(dp0
S'mentions'
p1
(dp2
S'i88'
p3
(i__main__
Mention
p4
(dp5
S'chainId'
p6
S't19'
p7
sS'relType'
p8
S'Anaphora-C'
p9
sS'mentionId'
p10
g3
sS'antecedentId'
p11
S'i85'
p12
sS'crefMod'
p13
NsS'tokenList'
p14
(lp15
(i__main__
Token
p16
(dp17
S'tokenId'
p18
I330
sbasS'mentionHead'
p19
NsbsS'i89'
p20
(i__main__
Mention
p21
(dp22
g6
S't20'
p23
sg8
S'Anaphora-RC'
p24
sg10
g20
sg11
S'i86'
p25
sg13
Nsg14
(lp26
(i__main__
Token
p27
(dp28
g18
I330
sba(i__main__
Token
p29
(dp30
g18
I331
sba(i__main__
Token
p31
(dp32
g18
I332
sba(i__main__
Token
p33
(dp34
g18
I333
sbasg19
NsbsS'i82'
p35
(i__main__
Mention
p36
(dp37
g6
S't19'
p38
sg8
S'Coreference-NounComplement'
p39
sg10
g35
sg11
S'i81'
p40
sg13
Nsg14
(lp41
(i__main__
Token
p42
(dp43
g18
I296
sba(i__main__
Token
p44
(dp45
g18
I297
sbasg19
NsbsS'i83'
p46
(i__main__
Mention
p47
(dp48
g6
S't1'
p49
sg8
S'Coreference-Noun-Noun'
p50
sg10
g46
sg11
S'i80'
p51
sg13
Nsg14
(lp52
(i__main__
Token
p53
(dp54
g18
I302
sbasg19
NsbsS'i80'
p55
(i__main__
Mention
p56
(dp57
g6
S't1'
p58
sg8
S'Coreference-Identity'
p59
sg10
g55
sg11
S'i75'
p60
sg13
Nsg14
(lp61
(i__main__
Token
p62
(dp63
g18
I291
sbasg19
NsbsS'i81'
p64
(i__main__
Mention
p65
(dp66
g6
S't19'
p67
sg8
Nsg10
g64
sg11
Nsg13
Nsg14
(lp68
(i__main__
Token
p69
(dp70
g18
I294
sba(i__main__
Token
p71
(dp72
g18
I295
sbasg19
NsbsS'i86'
p73
(i__main__
Mention
p74
(dp75
g6
S't20'
p76
sg8
S'anaphora-?'
p77
sg10
g73
sg11
S'i86'
p78
sg13
Nsg14
(lp79
(i__main__
Token
p80
(dp81
g18
I322
sbasg19
NsbsS'i87'
p82
(i__main__
Mention
p83
(dp84
g6
S't5'
p85
sg8
S'Coreference-Identity'
p86
sg10
g82
sg11
S'i79'
p87
sg13
Nsg14
(lp88
(i__main__
Token
p89
(dp90
g18
I324
sbasg19
NsbsS'i84'
p91
(i__main__
Mention
p92
(dp93
g6
S't19'
p94
sg8
S'Coreference-Identity'
p95
sg10
g91
sg11
S'i82'
p96
sg13
Nsg14
(lp97
(i__main__
Token
p98
(dp99
g18
I317
sbasg19
NsbsS'i85'
p100
(i__main__
Mention
p101
(dp102
g6
S't19'
p103
sg8
S'Anaphora-C'
p104
sg10
g100
sg11
S'i84'
p105
sg13
Nsg14
(lp106
(i__main__
Token
p107
(dp108
g18
I321
sbasg19
NsbsS'i77'
p109
(i__main__
Mention
p110
(dp111
g6
S't20'
p112
sg8
S'Anaphora-C'
p113
sg10
g109
sg11
S'i76'
p114
sg13
Nsg14
(lp115
(i__main__
Token
p116
(dp117
g18
I360
sbasg19
NsbsS'i76'
p118
(i__main__
Mention
p119
(dp120
g6
S't20'
p121
sg8
S'Coreference-Identity'
p122
sg10
g118
sg11
S'i73'
p123
sg13
Nsg14
(lp124
(i__main__
Token
p125
(dp126
g18
I356
sbasg19
NsbsS'i75'
p127
(i__main__
Mention
p128
(dp129
g6
S't21'
p130
sg8
S'Coreference-Identity'
p131
sg10
g127
sg11
S'i70'
p132
sg13
Nsg14
(lp133
(i__main__
Token
p134
(dp135
g18
I350
sba(i__main__
Token
p136
(dp137
g18
I351
sbasg19
NsbsS'i74'
p138
(i__main__
Mention
p139
(dp140
g6
S't22'
p141
sg8
S'Coreference-Noun-Noun'
p142
sg10
g138
sg11
S'i65'
p143
sg13
Nsg14
(lp144
(i__main__
Token
p145
(dp146
g18
I348
sbasg19
NsbsS'i73'
p147
(i__main__
Mention
p148
(dp149
g6
S't20'
p150
sg8
S'Anaphora-C'
p151
sg10
g147
sg11
S'i72'
p152
sg13
Nsg14
(lp153
(i__main__
Token
p154
(dp155
g18
I347
sbasg19
NsbsS'i72'
p156
(i__main__
Mention
p157
(dp158
g6
S't20'
p159
sg8
S'Anaphora-C'
p160
sg10
g156
sg11
S'i69'
p161
sg13
Nsg14
(lp162
(i__main__
Token
p163
(dp164
g18
I345
sbasg19
NsbsS'i71'
p165
(i__main__
Mention
p166
(dp167
g6
S't3'
p168
sg8
S'Coreference-Identity'
p169
sg10
g165
sg11
S'i58'
p170
sg13
Nsg14
(lp171
(i__main__
Token
p172
(dp173
g18
I337
sba(i__main__
Token
p174
(dp175
g18
I338
sbasg19
NsbsS'i70'
p176
(i__main__
Mention
p177
(dp178
g6
S't21'
p179
sg8
S'Coreference-Identity'
p180
sg10
g176
sg11
S'i63'
p181
sg13
Nsg14
(lp182
(i__main__
Token
p183
(dp184
g18
I334
sba(i__main__
Token
p185
(dp186
g18
I335
sbasg19
NsbsS'i79'
p187
(i__main__
Mention
p188
(dp189
g6
S't5'
p190
sg8
S'Coreference-Identity'
p191
sg10
g187
sg11
S'i55'
p192
sg13
Nsg14
(lp193
(i__main__
Token
p194
(dp195
g18
I289
sbasg19
NsbsS'i78'
p196
(i__main__
Mention
p197
(dp198
g6
S't21'
p199
sg8
S'Coreference-Identity'
p200
sg10
g196
sg11
S'i75'
p201
sg13
Nsg14
(lp202
(i__main__
Token
p203
(dp204
g18
I361
sba(i__main__
Token
p205
(dp206
g18
I362
sbasg19
NsbsS'i64'
p207
(i__main__
Mention
p208
(dp209
g6
S't22'
p210
sg8
Nsg10
g207
sg11
Nsg13
Nsg14
(lp211
(i__main__
Token
p212
(dp213
g18
I308
sbasg19
NsbsS'i65'
p214
(i__main__
Mention
p215
(dp216
g6
S't22'
p217
sg8
S'Coreference-NounComplement'
p218
sg10
g214
sg11
S'i64'
p219
sg13
Nsg14
(lp220
(i__main__
Token
p221
(dp222
g18
I309
sba(i__main__
Token
p223
(dp224
g18
I310
sbasg19
NsbsS'i66'
p225
(i__main__
Mention
p226
(dp227
g6
S't20'
p228
sg8
S'Coreference-Identity'
p229
sg10
g225
sg11
S'i62'
p230
sg13
Nsg14
(lp231
(i__main__
Token
p232
(dp233
g18
I316
sbasg19
NsbsS'i67'
p234
(i__main__
Mention
p235
(dp236
g6
S't1'
p237
sg8
S'Coreference-Identity'
p238
sg10
g234
sg11
S'i1'
p239
sg13
Nsg14
(lp240
(i__main__
Token
p241
(dp242
g18
I318
sbasg19
NsbsS'i60'
p243
(i__main__
Mention
p244
(dp245
g6
S't21'
p246
sg8
Nsg10
g243
sg11
Nsg13
Nsg14
(lp247
(i__main__
Token
p248
(dp249
g18
I287
sba(i__main__
Token
p250
(dp251
g18
I288
sbasg19
NsbsS'i61'
p252
(i__main__
Mention
p253
(dp254
g6
S't21'
p255
sg8
S'Coreference-NounComplement'
p256
sg10
g252
sg11
S'i60'
p257
sg13
Nsg14
(lp258
(i__main__
Token
p259
(dp260
g18
I289
sba(i__main__
Token
p261
(dp262
g18
I290
sba(i__main__
Token
p263
(dp264
g18
I291
sbasg19
NsbsS'i62'
p265
(i__main__
Mention
p266
(dp267
g6
S't20'
p268
sg8
S'Anaphora-C'
p269
sg10
g265
sg11
S'i59'
p270
sg13
Nsg14
(lp271
(i__main__
Token
p272
(dp273
g18
I302
sbasg19
NsbsS'i63'
p274
(i__main__
Mention
p275
(dp276
g6
S't21'
p277
sg8
S'Coreference-Noun-Noun'
p278
sg10
g274
sg11
S'i61'
p279
sg13
Nsg14
(lp280
(i__main__
Token
p281
(dp282
g18
I303
sba(i__main__
Token
p283
(dp284
g18
I304
sbasg19
NsbsS'i68'
p285
(i__main__
Mention
p286
(dp287
g6
S't20'
p288
sg8
S'Anaphora-C'
p289
sg10
g285
sg11
S'i66'
p290
sg13
Nsg14
(lp291
(i__main__
Token
p292
(dp293
g18
I329
sbasg19
NsbsS'i69'
p294
(i__main__
Mention
p295
(dp296
g6
S't20'
p297
sg8
S'Anaphora-C'
p298
sg10
g294
sg11
S'i68'
p299
sg13
Nsg14
(lp300
(i__main__
Token
p301
(dp302
g18
I333
sbasg19
NsbsS'i59'
p303
(i__main__
Mention
p304
(dp305
g6
S't20'
p306
sg8
S'Anaphora-C'
p307
sg10
g303
sg11
S'i57'
p308
sg13
Nsg14
(lp309
(i__main__
Token
p310
(dp311
g18
I286
sbasg19
NsbsS'i58'
p312
(i__main__
Mention
p313
(dp314
g6
S't3'
p315
sg8
S'Coreference-InferedRelation'
p316
sg10
g312
sg11
S'i53'
p317
sg13
Nsg14
(lp318
(i__main__
Token
p319
(dp320
g18
I282
sba(i__main__
Token
p321
(dp322
g18
I283
sba(i__main__
Token
p323
(dp324
g18
I284
sbasg19
NsbsS'i51'
p325
(i__main__
Mention
p326
(dp327
g6
S't3'
p328
sg8
S'Coreference-Identity'
p329
sg10
g325
sg11
S'i48'
p330
sg13
Nsg14
(lp331
(i__main__
Token
p332
(dp333
g18
I232
sba(i__main__
Token
p334
(dp335
g18
I233
sba(i__main__
Token
p336
(dp337
g18
I234
sba(i__main__
Token
p338
(dp339
g18
I235
sbasg19
NsbsS'i50'
p340
(i__main__
Mention
p341
(dp342
g6
S't2'
p343
sg8
S'Coreference-Identity'
p344
sg10
g340
sg11
S'i2'
p345
sg13
Nsg14
(lp346
(i__main__
Token
p347
(dp348
g18
I227
sbasg19
NsbsS'i53'
p349
(i__main__
Mention
p350
(dp351
g6
S't3'
p352
sg8
S'Coreference-InferedRelation'
p353
sg10
g349
sg11
S'i51'
p354
sg13
Nsg14
(lp355
(i__main__
Token
p356
(dp357
g18
I244
sbasg19
NsbsS'i52'
p358
(i__main__
Mention
p359
(dp360
g6
S't3'
p361
sg8
S'Coreference-InferedRelation'
p362
sg10
g358
sg11
S'i51'
p363
sg13
Nsg14
(lp364
(i__main__
Token
p365
(dp366
g18
I244
sbasg19
NsbsS'i55'
p367
(i__main__
Mention
p368
(dp369
g6
S't18'
p370
sg8
S'Anaphora-C'
p371
sg10
g367
sg11
S'i54'
p372
sg13
Nsg14
(lp373
(i__main__
Token
p374
(dp375
g18
I259
sbasg19
NsbsS'i54'
p376
(i__main__
Mention
p377
(dp378
g6
S't18'
p379
sg8
Nsg10
g376
sg11
Nsg13
Nsg14
(lp380
(i__main__
Token
p381
(dp382
g18
I250
sbasg19
NsbsS'i57'
p383
(i__main__
Mention
p384
(dp385
g6
S't20'
p386
sg8
Nsg10
g383
sg11
Nsg13
Nsg14
(lp387
(i__main__
Token
p388
(dp389
g18
I280
sbasg19
NsbsS'i56'
p390
(i__main__
Mention
p391
(dp392
g6
S't19'
p393
sg8
Nsg10
g390
sg11
Nsg13
Nsg14
(lp394
(i__main__
Token
p395
(dp396
g18
I260
sbasg19
NsbsS'i48'
p397
(i__main__
Mention
p398
(dp399
g6
S't3'
p400
sg8
S'Coreference-InferedRelation'
p401
sg10
g397
sg11
S'i45'
p402
sg13
Nsg14
(lp403
(i__main__
Token
p404
(dp405
g18
I218
sba(i__main__
Token
p406
(dp407
g18
I219
sbasg19
NsbsS'i49'
p408
(i__main__
Mention
p409
(dp410
g6
S't17'
p411
sg8
Nsg10
g408
sg11
Nsg13
Nsg14
(lp412
(i__main__
Token
p413
(dp414
g18
I225
sbasg19
NsbsS'i46'
p415
(i__main__
Mention
p416
(dp417
g6
S't16'
p418
sg8
S'Anaphora-C'
p419
sg10
g415
sg11
S'i43'
p420
sg13
Nsg14
(lp421
(i__main__
Token
p422
(dp423
g18
I214
sbasg19
NsbsS'i47'
p424
(i__main__
Mention
p425
(dp426
g6
S't6'
p427
sg8
S'Coreference-Identity'
p428
sg10
g424
sg11
S'i39'
p429
sg13
Nsg14
(lp430
(i__main__
Token
p431
(dp432
g18
I215
sbasg19
NsbsS'i44'
p433
(i__main__
Mention
p434
(dp435
g6
S't13'
p436
sg8
S'Coreference-Identity'
p437
sg10
g433
sg11
S'i32'
p438
sg13
Nsg14
(lp439
(i__main__
Token
p440
(dp441
g18
I209
sbasg19
NsbsS'i45'
p442
(i__main__
Mention
p443
(dp444
g6
S't3'
p445
sg8
S'Anaphora-C'
p446
sg10
g442
sg11
S'i28'
p447
sg13
Nsg14
(lp448
(i__main__
Token
p449
(dp450
g18
I210
sbasg19
NsbsS'i42'
p451
(i__main__
Mention
p452
(dp453
g6
S't12'
p454
sg8
S'Coreference-Noun-Noun'
p455
sg10
g451
sg11
S'i38'
p456
sg13
Nsg14
(lp457
(i__main__
Token
p458
(dp459
g18
I207
sbasg19
NsbsS'i43'
p460
(i__main__
Mention
p461
(dp462
g6
S't16'
p463
sg8
S'Anaphora-C'
p464
sg10
g460
sg11
S'i28'
p465
sg13
Nsg14
(lp466
(i__main__
Token
p467
(dp468
g18
I207
sba(i__main__
Token
p469
(dp470
g18
I208
sba(i__main__
Token
p471
(dp472
g18
I209
sba(i__main__
Token
p473
(dp474
g18
I210
sba(i__main__
Token
p475
(dp476
g18
I211
sba(i__main__
Token
p477
(dp478
g18
I212
sba(i__main__
Token
p479
(dp480
g18
I213
sbasg19
NsbsS'i40'
p481
(i__main__
Mention
p482
(dp483
g6
S't15'
p484
sg8
Nsg10
g481
sg11
Nsg13
Nsg14
(lp485
(i__main__
Token
p486
(dp487
g18
I200
sbasg19
NsbsS'i41'
p488
(i__main__
Mention
p489
(dp490
g6
S't15'
p491
sg8
S'Coreference-NounComplement'
p492
sg10
g488
sg11
S'i40'
p493
sg13
Nsg14
(lp494
(i__main__
Token
p495
(dp496
g18
I201
sba(i__main__
Token
p497
(dp498
g18
I202
sbasg19
NsbsS'i39'
p499
(i__main__
Mention
p500
(dp501
g6
S't6'
p502
sg8
S'Anaphora-C'
p503
sg10
g499
sg11
S'i37'
p504
sg13
Nsg14
(lp505
(i__main__
Token
p506
(dp507
g18
I199
sbasg19
NsbsS'i38'
p508
(i__main__
Mention
p509
(dp510
g6
S't12'
p511
sg8
S'Coreference-Identity'
p512
sg10
g508
sg11
S'i36'
p513
sg13
Nsg14
(lp514
(i__main__
Token
p515
(dp516
g18
I196
sba(i__main__
Token
p517
(dp518
g18
I197
sbasg19
NsbsS'i33'
p519
(i__main__
Mention
p520
(dp521
g6
S't11'
p522
sg8
S'Coreference-Identity'
p523
sg10
g519
sg11
S'i29'
p524
sg13
Nsg14
(lp525
(i__main__
Token
p526
(dp527
g18
I171
sbasg19
NsbsS'i32'
p528
(i__main__
Mention
p529
(dp530
g6
S't13'
p531
sg8
Nsg10
g528
sg11
Nsg13
Nsg14
(lp532
(i__main__
Token
p533
(dp534
g18
I164
sbasg19
NsbsS'i31'
p535
(i__main__
Mention
p536
(dp537
g6
S't12'
p538
sg8
S'Coreference-NounComplement'
p539
sg10
g535
sg11
S'i30'
p540
sg13
Nsg14
(lp541
(i__main__
Token
p542
(dp543
g18
I161
sbasg19
NsbsS'i30'
p544
(i__main__
Mention
p545
(dp546
g6
S't12'
p547
sg8
Nsg10
g544
sg11
Nsg13
Nsg14
(lp548
(i__main__
Token
p549
(dp550
g18
I159
sba(i__main__
Token
p551
(dp552
g18
I160
sbasg19
NsbsS'i37'
p553
(i__main__
Mention
p554
(dp555
g6
S't6'
p556
sg8
S'Coreference-Noun-Noun'
p557
sg10
g553
sg11
S'i24'
p558
sg13
Nsg14
(lp559
(i__main__
Token
p560
(dp561
g18
I186
sba(i__main__
Token
p562
(dp563
g18
I187
sbasg19
NsbsS'i36'
p564
(i__main__
Mention
p565
(dp566
g6
S't12'
p567
sg8
S'Coreference-Noun-Noun'
p568
sg10
g564
sg11
S'i34'
p569
sg13
Nsg14
(lp570
(i__main__
Token
p571
(dp572
g18
I183
sba(i__main__
Token
p573
(dp574
g18
I184
sbasg19
NsbsS'i35'
p575
(i__main__
Mention
p576
(dp577
g6
S't14'
p578
sg8
Nsg10
g575
sg11
Nsg13
Nsg14
(lp579
(i__main__
Token
p580
(dp581
g18
I174
sbasg19
NsbsS'i34'
p582
(i__main__
Mention
p583
(dp584
g6
S't12'
p585
sg8
S'Anaphora-C'
p586
sg10
g582
sg11
S'i31'
p587
sg13
Nsg14
(lp588
(i__main__
Token
p589
(dp590
g18
I173
sbasg19
NsbsS'i28'
p591
(i__main__
Mention
p592
(dp593
g6
S't3'
p594
sg8
S'Coreference-Identity'
p595
sg10
g591
sg11
S'i23'
p596
sg13
Nsg14
(lp597
(i__main__
Token
p598
(dp599
g18
I153
sba(i__main__
Token
p600
(dp601
g18
I154
sbasg19
NsbsS'i29'
p602
(i__main__
Mention
p603
(dp604
g6
S't11'
p605
sg8
Nsg10
g602
sg11
Nsg13
Nsg14
(lp606
(i__main__
Token
p607
(dp608
g18
I156
sba(i__main__
Token
p609
(dp610
g18
I157
sbasg19
NsbsS'i20'
p611
(i__main__
Mention
p612
(dp613
g6
S't7'
p614
sg8
S'Anaphora-E'
p615
sg10
g611
sg11
S'i19'
p616
sg13
Nsg14
(lp617
(i__main__
Token
p618
(dp619
g18
I101
sbasg19
NsbsS'i21'
p620
(i__main__
Mention
p621
(dp622
g6
S't6'
p623
sg8
S'Coreference-Noun-Noun'
p624
sg10
g620
sg11
S'i17'
p625
sg13
Nsg14
(lp626
(i__main__
Token
p627
(dp628
g18
I111
sbasg19
NsbsS'i22'
p629
(i__main__
Mention
p630
(dp631
g6
S't8'
p632
sg8
S'Anaphora-C'
p633
sg10
g629
sg11
S'i18'
p634
sg13
Nsg14
(lp635
(i__main__
Token
p636
(dp637
g18
I116
sbasg19
NsbsS'i23'
p638
(i__main__
Mention
p639
(dp640
g6
S't3'
p641
sg8
S'Anaphora-C'
p642
sg10
g638
sg11
S'i18'
p643
sg13
Nsg14
(lp644
(i__main__
Token
p645
(dp646
g18
I116
sbasg19
NsbsS'i24'
p647
(i__main__
Mention
p648
(dp649
g6
S't6'
p650
sg8
S'Coreference-Noun-Noun'
p651
sg10
g647
sg11
S'i21'
p652
sg13
Nsg14
(lp653
(i__main__
Token
p654
(dp655
g18
I136
sba(i__main__
Token
p656
(dp657
g18
I137
sbasg19
NsbsS'i25'
p658
(i__main__
Mention
p659
(dp660
g6
S't9'
p661
sg8
Nsg10
g658
sg11
Nsg13
Nsg14
(lp662
(i__main__
Token
p663
(dp664
g18
I143
sbasg19
NsbsS'i26'
p665
(i__main__
Mention
p666
(dp667
g6
S't5'
p668
sg8
S'Coreference-Identity'
p669
sg10
g665
sg11
S'i14'
p670
sg13
Nsg14
(lp671
(i__main__
Token
p672
(dp673
g18
I144
sbasg19
NsbsS'i27'
p674
(i__main__
Mention
p675
(dp676
g6
S't10'
p677
sg8
Nsg10
g674
sg11
Nsg13
Nsg14
(lp678
(i__main__
Token
p679
(dp680
g18
I147
sbasg19
NsbsS'i9'
p681
(i__main__
Mention
p682
(dp683
g6
S't6'
p684
sg8
S'Coreference-NounComplement'
p685
sg10
g681
sg11
S'i8'
p686
sg13
Nsg14
(lp687
(i__main__
Token
p688
(dp689
g18
I38
sba(i__main__
Token
p690
(dp691
g18
I39
sbasg19
NsbsS'i8'
p692
(i__main__
Mention
p693
(dp694
g6
S't6'
p695
sg8
Nsg10
g692
sg11
Nsg13
Nsg14
(lp696
(i__main__
Token
p697
(dp698
g18
I37
sbasg19
NsbsS'i1'
p699
(i__main__
Mention
p700
(dp701
g6
S't1'
p702
sg8
Nsg10
g699
sg11
Nsg13
Nsg14
(lp703
(i__main__
Token
p704
(dp705
g18
I12
sbasg19
NsbsS'i3'
p706
(i__main__
Mention
p707
(dp708
g6
S't3'
p709
sg8
Nsg10
g706
sg11
Nsg13
Nsg14
(lp710
(i__main__
Token
p711
(dp712
g18
I18
sba(i__main__
Token
p713
(dp714
g18
I19
sba(i__main__
Token
p715
(dp716
g18
I20
sba(i__main__
Token
p717
(dp718
g18
I21
sbasg19
NsbsS'i2'
p719
(i__main__
Mention
p720
(dp721
g6
S't2'
p722
sg8
Nsg10
g719
sg11
Nsg13
Nsg14
(lp723
(i__main__
Token
p724
(dp725
g18
I14
sbasg19
NsbsS'i5'
p726
(i__main__
Mention
p727
(dp728
g6
S't4'
p729
sg8
S'Anaphora-RT'
p730
sg10
g726
sg11
S'i4'
p731
sg13
Nsg14
(lp732
(i__main__
Token
p733
(dp734
g18
I30
sba(i__main__
Token
p735
(dp736
g18
I31
sba(i__main__
Token
p737
(dp738
g18
I32
sba(i__main__
Token
p739
(dp740
g18
I33
sba(i__main__
Token
p741
(dp742
g18
I34
sba(i__main__
Token
p743
(dp744
g18
I35
sba(i__main__
Token
p745
(dp746
g18
I36
sba(i__main__
Token
p747
(dp748
g18
I37
sba(i__main__
Token
p749
(dp750
g18
I38
sba(i__main__
Token
p751
(dp752
g18
I39
sba(i__main__
Token
p753
(dp754
g18
I40
sba(i__main__
Token
p755
(dp756
g18
I41
sba(i__main__
Token
p757
(dp758
g18
I42
sba(i__main__
Token
p759
(dp760
g18
I43
sbasg19
NsbsS'i4'
p761
(i__main__
Mention
p762
(dp763
g6
S't4'
p764
sg8
Nsg10
g761
sg11
Nsg13
Nsg14
(lp765
(i__main__
Token
p766
(dp767
g18
I29
sbasg19
NsbsS'i7'
p768
(i__main__
Mention
p769
(dp770
g6
S't5'
p771
sg8
Nsg10
g768
sg11
Nsg13
Nsg14
(lp772
(i__main__
Token
p773
(dp774
g18
I33
sbasg19
NsbsS'i6'
p775
(i__main__
Mention
p776
(dp777
g6
S't3'
p778
sg8
S'Anaphora-C'
p779
sg10
g775
sg11
S'i3'
p780
sg13
Nsg14
(lp781
(i__main__
Token
p782
(dp783
g18
I30
sbasg19
NsbsS'i19'
p784
(i__main__
Mention
p785
(dp786
g6
S't7'
p787
sg8
Nsg10
g784
sg11
Nsg13
Nsg14
(lp788
(i__main__
Token
p789
(dp790
g18
I94
sba(i__main__
Token
p791
(dp792
g18
I95
sba(i__main__
Token
p793
(dp794
g18
I96
sba(i__main__
Token
p795
(dp796
g18
I97
sba(i__main__
Token
p797
(dp798
g18
I98
sba(i__main__
Token
p799
(dp800
g18
I99
sbasg19
NsbsS'i18'
p801
(i__main__
Mention
p802
(dp803
g6
S't3'
p804
sg8
S'Anaphora-C'
p805
sg10
g801
sg11
S'i16'
p806
sg13
Nsg14
(lp807
(i__main__
Token
p808
(dp809
g18
I93
sbasg19
NsbsS'i15'
p810
(i__main__
Mention
p811
(dp812
g6
S't6'
p813
sg8
S'Coreference-Identity'
p814
sg10
g810
sg11
S'i12'
p815
sg13
Nsg14
(lp816
(i__main__
Token
p817
(dp818
g18
I77
sbasg19
NsbsS'i14'
p819
(i__main__
Mention
p820
(dp821
g6
S't5'
p822
sg8
S'Coreference-InferedRelation'
p823
sg10
g819
sg11
S'i10'
p824
sg13
Nsg14
(lp825
(i__main__
Token
p826
(dp827
g18
I65
sba(i__main__
Token
p828
(dp829
g18
I66
sbasg19
NsbsS'i17'
p830
(i__main__
Mention
p831
(dp832
g6
S't6'
p833
sg8
S'Coreference-Identity'
p834
sg10
g830
sg11
S'i15'
p835
sg13
Nsg14
(lp836
(i__main__
Token
p837
(dp838
g18
I90
sbasg19
NsbsS'i16'
p839
(i__main__
Mention
p840
(dp841
g6
S't3'
p842
sg8
S'Coreference-Identity'
p843
sg10
g839
sg11
S'i13'
p844
sg13
Nsg14
(lp845
(i__main__
Token
p846
(dp847
g18
I78
sbasg19
NsbsS'i11'
p848
(i__main__
Mention
p849
(dp850
g6
S't6'
p851
sg8
S'Coreference-Identity'
p852
sg10
g848
sg11
S'i9'
p853
sg13
Nsg14
(lp854
(i__main__
Token
p855
(dp856
g18
I51
sbasg19
NsbsS'i10'
p857
(i__main__
Mention
p858
(dp859
g6
S't5'
p860
sg8
S'Coreference-Identity'
p861
sg10
g857
sg11
S'i7'
p862
sg13
Nsg14
(lp863
(i__main__
Token
p864
(dp865
g18
I45
sbasg19
NsbsS'i13'
p866
(i__main__
Mention
p867
(dp868
g6
S't3'
p869
sg8
S'Anaphora-C'
p870
sg10
g866
sg11
S'i6'
p871
sg13
Nsg14
(lp872
(i__main__
Token
p873
(dp874
g18
I63
sbasg19
NsbsS'i12'
p875
(i__main__
Mention
p876
(dp877
g6
S't6'
p878
sg8
S'Anaphora-C'
p879
sg10
g875
sg11
S'i11'
p880
sg13
Nsg14
(lp881
(i__main__
Token
p882
(dp883
g18
I62
sbasg19
NsbsS'i95'
p884
(i__main__
Mention
p885
(dp886
g6
S't17'
p887
sg8
S'Coreference-NounComplement'
p888
sg10
g884
sg11
S'i94'
p889
sg13
Nsg14
(lp890
(i__main__
Token
p891
(dp892
g18
I353
sba(i__main__
Token
p893
(dp894
g18
I354
sbasg19
NsbsS'i94'
p895
(i__main__
Mention
p896
(dp897
g6
S't17'
p898
sg8
S'Coreference-Noun-Noun'
p899
sg10
g895
sg11
S'i68'
p900
sg13
Nsg14
(lp901
(i__main__
Token
p902
(dp903
g18
I351
sba(i__main__
Token
p904
(dp905
g18
I352
sbasg19
NsbsS'i97'
p906
(i__main__
Mention
p907
(dp908
g6
S't22'
p909
sg8
Nsg10
g906
sg11
Nsg13
Nsg14
(lp910
(i__main__
Token
p911
(dp912
g18
I356
sbasg19
NsbsS'i96'
p913
(i__main__
Mention
p914
(dp915
g6
S't21'
p916
sg8
Nsg10
g913
sg11
Nsg13
Nsg14
(lp917
(i__main__
Token
p918
(dp919
g18
I356
sbasg19
NsbsS'i91'
p920
(i__main__
Mention
p921
(dp922
g6
S't5'
p923
sg8
S'Anaphora-C'
p924
sg10
g920
sg11
S'i90'
p925
sg13
Nsg14
(lp926
(i__main__
Token
p927
(dp928
g18
I336
sbasg19
NsbsS'i90'
p929
(i__main__
Mention
p930
(dp931
g6
S't5'
p932
sg8
S'Anaphora-C'
p933
sg10
g929
sg11
S'i87'
p934
sg13
Nsg14
(lp935
(i__main__
Token
p936
(dp937
g18
I331
sbasg19
NsbsS'i93'
p938
(i__main__
Mention
p939
(dp940
g6
S't1'
p941
sg8
S'Coreference-Noun-Noun'
p942
sg10
g938
sg11
S'i83'
p943
sg13
Nsg14
(lp944
(i__main__
Token
p945
(dp946
g18
I351
sbasg19
NsbsS'i92'
p947
(i__main__
Mention
p948
(dp949
g6
S't5'
p950
sg8
S'Anaphora-C'
p951
sg10
g947
sg11
S'i91'
p952
sg13
Nsg14
(lp953
(i__main__
Token
p954
(dp955
g18
I343
sbasg19
NsbsS'i99'
p956
(i__main__
Mention
p957
(dp958
g6
S't22'
p959
sg8
S'Coreference-NounComplement'
p960
sg10
g956
sg11
S'i97'
p961
sg13
Nsg14
(lp962
(i__main__
Token
p963
(dp964
g18
I360
sbasg19
NsbsS'i98'
p965
(i__main__
Mention
p966
(dp967
g6
S't21'
p968
sg8
S'Coreference-NounComplement'
p969
sg10
g965
sg11
S'i96'
p970
sg13
Nsg14
(lp971
(i__main__
Token
p972
(dp973
g18
I357
sba(i__main__
Token
p974
(dp975
g18
I358
sbasg19
NsbssS'chains'
p976
(dp977
g578
(i__main__
Chain
p978
(dp979
S'mentionList'
p980
(lp981
g575
asg6
g578
sS'chainHead'
p982
Nsbsg484
(i__main__
Chain
p983
(dp984
g980
(lp985
g481
ag488
asg6
g484
sg982
Nsbsg463
(i__main__
Chain
p986
(dp987
g980
(lp988
g460
ag415
asg6
g463
sg982
Nsbsg411
(i__main__
Chain
p989
(dp990
g980
(lp991
g408
ag895
ag884
asg6
g411
sg982
Nsbsg677
(i__main__
Chain
p992
(dp993
g980
(lp994
g674
asg6
g677
sg982
Nsbsg605
(i__main__
Chain
p995
(dp996
g980
(lp997
g602
ag519
asg6
g605
sg982
Nsbsg547
(i__main__
Chain
p998
(dp999
g980
(lp1000
g544
ag535
ag582
ag564
ag508
ag451
asg6
g547
sg982
Nsbsg531
(i__main__
Chain
p1001
(dp1002
g980
(lp1003
g528
ag433
asg6
g531
sg982
Nsbsg379
(i__main__
Chain
p1004
(dp1005
g980
(lp1006
g376
ag367
asg6
g379
sg982
Nsbsg393
(i__main__
Chain
p1007
(dp1008
g980
(lp1009
g390
ag64
ag35
ag91
ag100
ag3
asg6
g393
sg982
Nsbsg632
(i__main__
Chain
p1010
(dp1011
g980
(lp1012
g629
asg6
g632
sg982
Nsbsg661
(i__main__
Chain
p1013
(dp1014
g980
(lp1015
g658
asg6
g661
sg982
Nsbsg695
(i__main__
Chain
p1016
(dp1017
g980
(lp1018
g692
ag681
ag848
ag875
ag810
ag830
ag620
ag647
ag553
ag499
ag424
asg6
g695
sg982
Nsbsg787
(i__main__
Chain
p1019
(dp1020
g980
(lp1021
g784
ag611
asg6
g787
sg982
Nsbsg764
(i__main__
Chain
p1022
(dp1023
g980
(lp1024
g761
ag726
asg6
g764
sg982
Nsbsg771
(i__main__
Chain
p1025
(dp1026
g980
(lp1027
g768
ag857
ag819
ag665
ag187
ag82
ag929
ag920
ag947
asg6
g771
sg982
Nsbsg722
(i__main__
Chain
p1028
(dp1029
g980
(lp1030
g719
ag340
asg6
g722
sg982
Nsbsg709
(i__main__
Chain
p1031
(dp1032
g980
(lp1033
g706
ag775
ag866
ag839
ag801
ag638
ag591
ag442
ag397
ag325
ag358
ag349
ag312
ag165
asg6
g709
sg982
Nsbsg702
(i__main__
Chain
p1034
(dp1035
g980
(lp1036
g699
ag234
ag55
ag46
ag938
asg6
g702
sg982
Nsbsg246
(i__main__
Chain
p1037
(dp1038
g980
(lp1039
g243
ag252
ag274
ag176
ag127
ag196
ag913
ag965
asg6
g246
sg982
Nsbsg386
(i__main__
Chain
p1040
(dp1041
g980
(lp1042
g383
ag303
ag265
ag225
ag285
ag294
ag156
ag147
ag118
ag109
ag73
ag20
asg6
g386
sg982
Nsbsg210
(i__main__
Chain
p1043
(dp1044
g980
(lp1045
g207
ag214
ag138
ag906
ag956
asg6
g210
sg982
NsbssS'modmentions'
p1046
(dp1047
S'm11'
p1048
(i__main__
ModMention
p1049
(dp1050
g14
(lp1051
(i__main__
Token
p1052
(dp1053
g18
I315
sbasg10
S'i75'
p1054
sS'modmentionId'
p1055
g1048
sS'modmentionHead'
p1056
I315
sbsS'm10'
p1057
(i__main__
ModMention
p1058
(dp1059
g14
(lp1060
(i__main__
Token
p1061
(dp1062
g18
I260
sbasg10
S'i66'
p1063
sg1055
g1057
sg1056
I260
sbsS'm5'
p1064
(i__main__
ModMention
p1065
(dp1066
g14
(lp1067
(i__main__
Token
p1068
(dp1069
g18
I286
sbasg10
S'i60'
p1070
sg1055
g1064
sg1056
I286
sbsS'm4'
p1071
(i__main__
ModMention
p1072
(dp1073
g14
(lp1074
(i__main__
Token
p1075
(dp1076
g18
I207
sbasg10
S'i44'
p1077
sg1055
g1071
sg1056
I207
sbsS'm7'
p1078
(i__main__
ModMention
p1079
(dp1080
g14
(lp1081
(i__main__
Token
p1082
(dp1083
g18
I347
sbasg10
S'i74'
p1084
sg1055
g1078
sg1056
I347
sbsS'm6'
p1085
(i__main__
ModMention
p1086
(dp1087
g14
(lp1088
(i__main__
Token
p1089
(dp1090
g18
I333
sbasg10
S'i70'
p1091
sg1055
g1085
sg1056
I333
sbsS'm1'
p1092
(i__main__
ModMention
p1093
(dp1094
g14
(lp1095
(i__main__
Token
p1096
(dp1097
g18
I35
sbasg10
S'i8'
p1098
sg1055
g1092
sg1056
I35
sbsS'm3'
p1099
(i__main__
ModMention
p1100
(dp1101
g14
(lp1102
(i__main__
Token
p1103
(dp1104
g18
I199
sbasg10
S'i40'
p1105
sg1055
g1099
sg1056
I199
sbsS'm2'
p1106
(i__main__
ModMention
p1107
(dp1108
g14
(lp1109
(i__main__
Token
p1110
(dp1111
g18
I156
sba(i__main__
Token
p1112
(dp1113
g18
I157
sbasg10
S'i30'
p1114
sg1055
g1106
sg1056
I157
sbsS'm9'
p1115
(i__main__
ModMention
p1116
(dp1117
g14
(lp1118
(i__main__
Token
p1119
(dp1120
g18
I231
sbasg10
S'i61'
p1121
sg1055
g1115
sg1056
I231
sbsS'm8'
p1122
(i__main__
ModMention
p1123
(dp1124
g14
(lp1125
(i__main__
Token
p1126
(dp1127
g18
I360
sbasg10
S'i78'
p1128
sg1055
g1122
sg1056
I360
sbssS'fileid'
p1129
S'fullnews_id_2477216_date_26_5_2004dat.cout.post.norm'
p1130
s.