(dp0
S'mentions'
p1
(dp2
S'i30'
p3
(i__main__
Mention
p4
(dp5
S'chainId'
p6
S't12'
p7
sS'relType'
p8
NsS'mentionId'
p9
g3
sS'antecedentId'
p10
NsS'crefMod'
p11
NsS'tokenList'
p12
(lp13
(i__main__
Token
p14
(dp15
S'tokenId'
p16
I159
sba(i__main__
Token
p17
(dp18
g16
I160
sbasS'mentionHead'
p19
NsbsS'i62'
p20
(i__main__
Mention
p21
(dp22
g6
S't20'
p23
sg8
S'Anaphora-C'
p24
sg9
g20
sg10
S'i59'
p25
sg11
Nsg12
(lp26
(i__main__
Token
p27
(dp28
g16
I302
sbasg19
NsbsS'i37'
p29
(i__main__
Mention
p30
(dp31
g6
S't6'
p32
sg8
S'Coreference-Noun-Noun'
p33
sg9
g29
sg10
S'i24'
p34
sg11
Nsg12
(lp35
(i__main__
Token
p36
(dp37
g16
I186
sba(i__main__
Token
p38
(dp39
g16
I187
sbasg19
NsbsS'i63'
p40
(i__main__
Mention
p41
(dp42
g6
S't21'
p43
sg8
S'Coreference-Noun-Noun'
p44
sg9
g40
sg10
S'i61'
p45
sg11
Nsg12
(lp46
(i__main__
Token
p47
(dp48
g16
I303
sba(i__main__
Token
p49
(dp50
g16
I304
sbasg19
NsbsS'i36'
p51
(i__main__
Mention
p52
(dp53
g6
S't12'
p54
sg8
S'Coreference-Noun-Noun'
p55
sg9
g51
sg10
S'i34'
p56
sg11
Nsg12
(lp57
(i__main__
Token
p58
(dp59
g16
I183
sba(i__main__
Token
p60
(dp61
g16
I184
sbasg19
NsbsS'i64'
p62
(i__main__
Mention
p63
(dp64
g6
S't22'
p65
sg8
Nsg9
g62
sg10
Nsg11
Nsg12
(lp66
(i__main__
Token
p67
(dp68
g16
I308
sbasg19
NsbsS'i65'
p69
(i__main__
Mention
p70
(dp71
g6
S't22'
p72
sg8
S'Coreference-NounComplement'
p73
sg9
g69
sg10
S'i64'
p74
sg11
Nsg12
(lp75
(i__main__
Token
p76
(dp77
g16
I309
sba(i__main__
Token
p78
(dp79
g16
I310
sbasg19
NsbsS'i66'
p80
(i__main__
Mention
p81
(dp82
g6
S't20'
p83
sg8
S'Coreference-Identity'
p84
sg9
g80
sg10
S'i62'
p85
sg11
Nsg12
(lp86
(i__main__
Token
p87
(dp88
g16
I316
sbasg19
NsbsS'i67'
p89
(i__main__
Mention
p90
(dp91
g6
S't1'
p92
sg8
S'Coreference-Identity'
p93
sg9
g89
sg10
S'i1'
p94
sg11
Nsg12
(lp95
(i__main__
Token
p96
(dp97
g16
I318
sbasg19
NsbsS'i60'
p98
(i__main__
Mention
p99
(dp100
g6
S't21'
p101
sg8
Nsg9
g98
sg10
Nsg11
Nsg12
(lp102
(i__main__
Token
p103
(dp104
g16
I287
sba(i__main__
Token
p105
(dp106
g16
I288
sbasg19
NsbsS'i35'
p107
(i__main__
Mention
p108
(dp109
g6
S't14'
p110
sg8
Nsg9
g107
sg10
Nsg11
Nsg12
(lp111
(i__main__
Token
p112
(dp113
g16
I174
sbasg19
NsbsS'i48'
p114
(i__main__
Mention
p115
(dp116
g6
S't3'
p117
sg8
S'Coreference-InferedRelation'
p118
sg9
g114
sg10
S'i45'
p119
sg11
Nsg12
(lp120
(i__main__
Token
p121
(dp122
g16
I218
sba(i__main__
Token
p123
(dp124
g16
I219
sbasg19
NsbsS'i49'
p125
(i__main__
Mention
p126
(dp127
g6
S't17'
p128
sg8
Nsg9
g125
sg10
Nsg11
Nsg12
(lp129
(i__main__
Token
p130
(dp131
g16
I225
sbasg19
NsbsS'i46'
p132
(i__main__
Mention
p133
(dp134
g6
S't16'
p135
sg8
S'Anaphora-C'
p136
sg9
g132
sg10
S'i43'
p137
sg11
Nsg12
(lp138
(i__main__
Token
p139
(dp140
g16
I214
sbasg19
NsbsS'i47'
p141
(i__main__
Mention
p142
(dp143
g6
S't6'
p144
sg8
S'Coreference-Identity'
p145
sg9
g141
sg10
S'i39'
p146
sg11
Nsg12
(lp147
(i__main__
Token
p148
(dp149
g16
I215
sbasg19
NsbsS'i44'
p150
(i__main__
Mention
p151
(dp152
g6
S't13'
p153
sg8
S'Coreference-Identity'
p154
sg9
g150
sg10
S'i32'
p155
sg11
Nsg12
(lp156
(i__main__
Token
p157
(dp158
g16
I209
sbasg19
NsbsS'i34'
p159
(i__main__
Mention
p160
(dp161
g6
S't12'
p162
sg8
S'Anaphora-C'
p163
sg9
g159
sg10
S'i31'
p164
sg11
Nsg12
(lp165
(i__main__
Token
p166
(dp167
g16
I173
sbasg19
NsbsS'i42'
p168
(i__main__
Mention
p169
(dp170
g6
S't12'
p171
sg8
S'Coreference-Noun-Noun'
p172
sg9
g168
sg10
S'i38'
p173
sg11
Nsg12
(lp174
(i__main__
Token
p175
(dp176
g16
I207
sbasg19
NsbsS'i43'
p177
(i__main__
Mention
p178
(dp179
g6
S't16'
p180
sg8
S'Anaphora-C'
p181
sg9
g177
sg10
S'i28'
p182
sg11
Nsg12
(lp183
(i__main__
Token
p184
(dp185
g16
I207
sba(i__main__
Token
p186
(dp187
g16
I208
sba(i__main__
Token
p188
(dp189
g16
I209
sba(i__main__
Token
p190
(dp191
g16
I210
sba(i__main__
Token
p192
(dp193
g16
I211
sba(i__main__
Token
p194
(dp195
g16
I212
sba(i__main__
Token
p196
(dp197
g16
I213
sbasg19
NsbsS'i40'
p198
(i__main__
Mention
p199
(dp200
g6
S't15'
p201
sg8
Nsg9
g198
sg10
Nsg11
Nsg12
(lp202
(i__main__
Token
p203
(dp204
g16
I200
sbasg19
NsbsS'i41'
p205
(i__main__
Mention
p206
(dp207
g6
S't15'
p208
sg8
S'Coreference-NounComplement'
p209
sg9
g205
sg10
S'i40'
p210
sg11
Nsg12
(lp211
(i__main__
Token
p212
(dp213
g16
I201
sba(i__main__
Token
p214
(dp215
g16
I202
sbasg19
NsbsS'i28'
p216
(i__main__
Mention
p217
(dp218
g6
S't3'
p219
sg8
S'Coreference-Identity'
p220
sg9
g216
sg10
S'i23'
p221
sg11
Nsg12
(lp222
(i__main__
Token
p223
(dp224
g16
I153
sba(i__main__
Token
p225
(dp226
g16
I154
sbasg19
NsbsS'i29'
p227
(i__main__
Mention
p228
(dp229
g6
S't11'
p230
sg8
Nsg9
g227
sg10
Nsg11
Nsg12
(lp231
(i__main__
Token
p232
(dp233
g16
I156
sba(i__main__
Token
p234
(dp235
g16
I157
sbasg19
NsbsS'i45'
p236
(i__main__
Mention
p237
(dp238
g6
S't3'
p239
sg8
S'Anaphora-C'
p240
sg9
g236
sg10
S'i28'
p241
sg11
Nsg12
(lp242
(i__main__
Token
p243
(dp244
g16
I210
sbasg19
NsbsS'i20'
p245
(i__main__
Mention
p246
(dp247
g6
S't7'
p248
sg8
S'Anaphora-E'
p249
sg9
g245
sg10
S'i19'
p250
sg11
Nsg12
(lp251
(i__main__
Token
p252
(dp253
g16
I101
sbasg19
NsbsS'i21'
p254
(i__main__
Mention
p255
(dp256
g6
S't6'
p257
sg8
S'Coreference-Noun-Noun'
p258
sg9
g254
sg10
S'i17'
p259
sg11
Nsg12
(lp260
(i__main__
Token
p261
(dp262
g16
I111
sbasg19
NsbsS'i22'
p263
(i__main__
Mention
p264
(dp265
g6
S't8'
p266
sg8
S'Anaphora-C'
p267
sg9
g263
sg10
S'i18'
p268
sg11
Nsg12
(lp269
(i__main__
Token
p270
(dp271
g16
I116
sbasg19
NsbsS'i23'
p272
(i__main__
Mention
p273
(dp274
g6
S't3'
p275
sg8
S'Anaphora-C'
p276
sg9
g272
sg10
S'i18'
p277
sg11
Nsg12
(lp278
(i__main__
Token
p279
(dp280
g16
I116
sbasg19
NsbsS'i24'
p281
(i__main__
Mention
p282
(dp283
g6
S't6'
p284
sg8
S'Coreference-Noun-Noun'
p285
sg9
g281
sg10
S'i21'
p286
sg11
Nsg12
(lp287
(i__main__
Token
p288
(dp289
g16
I136
sba(i__main__
Token
p290
(dp291
g16
I137
sbasg19
NsbsS'i25'
p292
(i__main__
Mention
p293
(dp294
g6
S't9'
p295
sg8
Nsg9
g292
sg10
Nsg11
Nsg12
(lp296
(i__main__
Token
p297
(dp298
g16
I143
sbasg19
NsbsS'i26'
p299
(i__main__
Mention
p300
(dp301
g6
S't5'
p302
sg8
S'Coreference-Identity'
p303
sg9
g299
sg10
S'i14'
p304
sg11
Nsg12
(lp305
(i__main__
Token
p306
(dp307
g16
I144
sbasg19
NsbsS'i27'
p308
(i__main__
Mention
p309
(dp310
g6
S't10'
p311
sg8
Nsg9
g308
sg10
Nsg11
Nsg12
(lp312
(i__main__
Token
p313
(dp314
g16
I147
sbasg19
NsbsS'i78'
p315
(i__main__
Mention
p316
(dp317
g6
S't21'
p318
sg8
S'Coreference-Identity'
p319
sg9
g315
sg10
S'i75'
p320
sg11
Nsg12
(lp321
(i__main__
Token
p322
(dp323
g16
I361
sba(i__main__
Token
p324
(dp325
g16
I362
sbasg19
NsbsS'i9'
p326
(i__main__
Mention
p327
(dp328
g6
S't6'
p329
sg8
S'Coreference-NounComplement'
p330
sg9
g326
sg10
S'i8'
p331
sg11
Nsg12
(lp332
(i__main__
Token
p333
(dp334
g16
I38
sba(i__main__
Token
p335
(dp336
g16
I39
sbasg19
NsbsS'i8'
p337
(i__main__
Mention
p338
(dp339
g6
S't6'
p340
sg8
Nsg9
g337
sg10
Nsg11
Nsg12
(lp341
(i__main__
Token
p342
(dp343
g16
I37
sbasg19
NsbsS'i68'
p344
(i__main__
Mention
p345
(dp346
g6
S't20'
p347
sg8
S'Anaphora-C'
p348
sg9
g344
sg10
S'i66'
p349
sg11
Nsg12
(lp350
(i__main__
Token
p351
(dp352
g16
I329
sbasg19
NsbsS'i1'
p353
(i__main__
Mention
p354
(dp355
g6
S't1'
p356
sg8
Nsg9
g353
sg10
Nsg11
Nsg12
(lp357
(i__main__
Token
p358
(dp359
g16
I12
sbasg19
NsbsS'i3'
p360
(i__main__
Mention
p361
(dp362
g6
S't3'
p363
sg8
Nsg9
g360
sg10
Nsg11
Nsg12
(lp364
(i__main__
Token
p365
(dp366
g16
I18
sba(i__main__
Token
p367
(dp368
g16
I19
sba(i__main__
Token
p369
(dp370
g16
I20
sba(i__main__
Token
p371
(dp372
g16
I21
sbasg19
NsbsS'i2'
p373
(i__main__
Mention
p374
(dp375
g6
S't2'
p376
sg8
Nsg9
g373
sg10
Nsg11
Nsg12
(lp377
(i__main__
Token
p378
(dp379
g16
I14
sbasg19
NsbsS'i5'
p380
(i__main__
Mention
p381
(dp382
g6
S't4'
p383
sg8
S'Anaphora-RT'
p384
sg9
g380
sg10
S'i4'
p385
sg11
Nsg12
(lp386
(i__main__
Token
p387
(dp388
g16
I30
sba(i__main__
Token
p389
(dp390
g16
I31
sba(i__main__
Token
p391
(dp392
g16
I32
sba(i__main__
Token
p393
(dp394
g16
I33
sba(i__main__
Token
p395
(dp396
g16
I34
sba(i__main__
Token
p397
(dp398
g16
I35
sba(i__main__
Token
p399
(dp400
g16
I36
sba(i__main__
Token
p401
(dp402
g16
I37
sba(i__main__
Token
p403
(dp404
g16
I38
sba(i__main__
Token
p405
(dp406
g16
I39
sba(i__main__
Token
p407
(dp408
g16
I40
sba(i__main__
Token
p409
(dp410
g16
I41
sba(i__main__
Token
p411
(dp412
g16
I42
sba(i__main__
Token
p413
(dp414
g16
I43
sbasg19
NsbsS'i4'
p415
(i__main__
Mention
p416
(dp417
g6
S't4'
p418
sg8
Nsg9
g415
sg10
Nsg11
Nsg12
(lp419
(i__main__
Token
p420
(dp421
g16
I29
sbasg19
NsbsS'i7'
p422
(i__main__
Mention
p423
(dp424
g6
S't5'
p425
sg8
Nsg9
g422
sg10
Nsg11
Nsg12
(lp426
(i__main__
Token
p427
(dp428
g16
I33
sbasg19
NsbsS'i6'
p429
(i__main__
Mention
p430
(dp431
g6
S't3'
p432
sg8
S'Anaphora-C'
p433
sg9
g429
sg10
S'i3'
p434
sg11
Nsg12
(lp435
(i__main__
Token
p436
(dp437
g16
I30
sbasg19
NsbsS'i59'
p438
(i__main__
Mention
p439
(dp440
g6
S't20'
p441
sg8
S'Anaphora-C'
p442
sg9
g438
sg10
S'i57'
p443
sg11
Nsg12
(lp444
(i__main__
Token
p445
(dp446
g16
I286
sbasg19
NsbsS'i58'
p447
(i__main__
Mention
p448
(dp449
g6
S't3'
p450
sg8
S'Coreference-InferedRelation'
p451
sg9
g447
sg10
S'i53'
p452
sg11
Nsg12
(lp453
(i__main__
Token
p454
(dp455
g16
I282
sba(i__main__
Token
p456
(dp457
g16
I283
sba(i__main__
Token
p458
(dp459
g16
I284
sbasg19
NsbsS'i75'
p460
(i__main__
Mention
p461
(dp462
g6
S't21'
p463
sg8
S'Coreference-Identity'
p464
sg9
g460
sg10
S'i70'
p465
sg11
Nsg12
(lp466
(i__main__
Token
p467
(dp468
g16
I350
sba(i__main__
Token
p469
(dp470
g16
I351
sbasg19
NsbsS'i74'
p471
(i__main__
Mention
p472
(dp473
g6
S't22'
p474
sg8
S'Coreference-Noun-Noun'
p475
sg9
g471
sg10
S'i65'
p476
sg11
Nsg12
(lp477
(i__main__
Token
p478
(dp479
g16
I348
sbasg19
NsbsS'i73'
p480
(i__main__
Mention
p481
(dp482
g6
S't20'
p483
sg8
S'Anaphora-C'
p484
sg9
g480
sg10
S'i72'
p485
sg11
Nsg12
(lp486
(i__main__
Token
p487
(dp488
g16
I347
sbasg19
NsbsS'i72'
p489
(i__main__
Mention
p490
(dp491
g6
S't20'
p492
sg8
S'Anaphora-C'
p493
sg9
g489
sg10
S'i69'
p494
sg11
Nsg12
(lp495
(i__main__
Token
p496
(dp497
g16
I345
sbasg19
NsbsS'i71'
p498
(i__main__
Mention
p499
(dp500
g6
S't3'
p501
sg8
S'Coreference-Identity'
p502
sg9
g498
sg10
S'i58'
p503
sg11
Nsg12
(lp504
(i__main__
Token
p505
(dp506
g16
I337
sba(i__main__
Token
p507
(dp508
g16
I338
sbasg19
NsbsS'i70'
p509
(i__main__
Mention
p510
(dp511
g6
S't21'
p512
sg8
S'Coreference-Identity'
p513
sg9
g509
sg10
S'i63'
p514
sg11
Nsg12
(lp515
(i__main__
Token
p516
(dp517
g16
I334
sba(i__main__
Token
p518
(dp519
g16
I335
sbasg19
NsbsS'i51'
p520
(i__main__
Mention
p521
(dp522
g6
S't3'
p523
sg8
S'Coreference-Identity'
p524
sg9
g520
sg10
S'i48'
p525
sg11
Nsg12
(lp526
(i__main__
Token
p527
(dp528
g16
I232
sba(i__main__
Token
p529
(dp530
g16
I233
sba(i__main__
Token
p531
(dp532
g16
I234
sba(i__main__
Token
p533
(dp534
g16
I235
sbasg19
NsbsS'i50'
p535
(i__main__
Mention
p536
(dp537
g6
S't2'
p538
sg8
S'Coreference-Identity'
p539
sg9
g535
sg10
S'i2'
p540
sg11
Nsg12
(lp541
(i__main__
Token
p542
(dp543
g16
I227
sbasg19
NsbsS'i53'
p544
(i__main__
Mention
p545
(dp546
g6
S't3'
p547
sg8
S'Coreference-InferedRelation'
p548
sg9
g544
sg10
S'i51'
p549
sg11
Nsg12
(lp550
(i__main__
Token
p551
(dp552
g16
I244
sbasg19
NsbsS'i52'
p553
(i__main__
Mention
p554
(dp555
g6
S't3'
p556
sg8
S'Coreference-InferedRelation'
p557
sg9
g553
sg10
S'i51'
p558
sg11
Nsg12
(lp559
(i__main__
Token
p560
(dp561
g16
I244
sbasg19
NsbsS'i55'
p562
(i__main__
Mention
p563
(dp564
g6
S't18'
p565
sg8
S'Anaphora-C'
p566
sg9
g562
sg10
S'i54'
p567
sg11
Nsg12
(lp568
(i__main__
Token
p569
(dp570
g16
I259
sbasg19
NsbsS'i54'
p571
(i__main__
Mention
p572
(dp573
g6
S't18'
p574
sg8
Nsg9
g571
sg10
Nsg11
Nsg12
(lp575
(i__main__
Token
p576
(dp577
g16
I250
sbasg19
NsbsS'i57'
p578
(i__main__
Mention
p579
(dp580
g6
S't20'
p581
sg8
Nsg9
g578
sg10
Nsg11
Nsg12
(lp582
(i__main__
Token
p583
(dp584
g16
I280
sbasg19
NsbsS'i56'
p585
(i__main__
Mention
p586
(dp587
g6
S't19'
p588
sg8
Nsg9
g585
sg10
Nsg11
Nsg12
(lp589
(i__main__
Token
p590
(dp591
g16
I260
sbasg19
NsbsS'i69'
p592
(i__main__
Mention
p593
(dp594
g6
S't20'
p595
sg8
S'Anaphora-C'
p596
sg9
g592
sg10
S'i68'
p597
sg11
Nsg12
(lp598
(i__main__
Token
p599
(dp600
g16
I333
sbasg19
NsbsS'i77'
p601
(i__main__
Mention
p602
(dp603
g6
S't20'
p604
sg8
S'Anaphora-C'
p605
sg9
g601
sg10
S'i76'
p606
sg11
Nsg12
(lp607
(i__main__
Token
p608
(dp609
g16
I360
sbasg19
NsbsS'i39'
p610
(i__main__
Mention
p611
(dp612
g6
S't6'
p613
sg8
S'Anaphora-C'
p614
sg9
g610
sg10
S'i37'
p615
sg11
Nsg12
(lp616
(i__main__
Token
p617
(dp618
g16
I199
sbasg19
NsbsS'i38'
p619
(i__main__
Mention
p620
(dp621
g6
S't12'
p622
sg8
S'Coreference-Identity'
p623
sg9
g619
sg10
S'i36'
p624
sg11
Nsg12
(lp625
(i__main__
Token
p626
(dp627
g16
I196
sba(i__main__
Token
p628
(dp629
g16
I197
sbasg19
NsbsS'i19'
p630
(i__main__
Mention
p631
(dp632
g6
S't7'
p633
sg8
Nsg9
g630
sg10
Nsg11
Nsg12
(lp634
(i__main__
Token
p635
(dp636
g16
I94
sba(i__main__
Token
p637
(dp638
g16
I95
sba(i__main__
Token
p639
(dp640
g16
I96
sba(i__main__
Token
p641
(dp642
g16
I97
sba(i__main__
Token
p643
(dp644
g16
I98
sba(i__main__
Token
p645
(dp646
g16
I99
sbasg19
NsbsS'i18'
p647
(i__main__
Mention
p648
(dp649
g6
S't3'
p650
sg8
S'Anaphora-C'
p651
sg9
g647
sg10
S'i16'
p652
sg11
Nsg12
(lp653
(i__main__
Token
p654
(dp655
g16
I93
sbasg19
NsbsS'i76'
p656
(i__main__
Mention
p657
(dp658
g6
S't20'
p659
sg8
S'Coreference-Identity'
p660
sg9
g656
sg10
S'i73'
p661
sg11
Nsg12
(lp662
(i__main__
Token
p663
(dp664
g16
I356
sbasg19
NsbsS'i15'
p665
(i__main__
Mention
p666
(dp667
g6
S't6'
p668
sg8
S'Coreference-Identity'
p669
sg9
g665
sg10
S'i12'
p670
sg11
Nsg12
(lp671
(i__main__
Token
p672
(dp673
g16
I77
sbasg19
NsbsS'i14'
p674
(i__main__
Mention
p675
(dp676
g6
S't5'
p677
sg8
S'Coreference-InferedRelation'
p678
sg9
g674
sg10
S'i10'
p679
sg11
Nsg12
(lp680
(i__main__
Token
p681
(dp682
g16
I65
sba(i__main__
Token
p683
(dp684
g16
I66
sbasg19
NsbsS'i17'
p685
(i__main__
Mention
p686
(dp687
g6
S't6'
p688
sg8
S'Coreference-Identity'
p689
sg9
g685
sg10
S'i15'
p690
sg11
Nsg12
(lp691
(i__main__
Token
p692
(dp693
g16
I90
sbasg19
NsbsS'i16'
p694
(i__main__
Mention
p695
(dp696
g6
S't3'
p697
sg8
S'Coreference-Identity'
p698
sg9
g694
sg10
S'i13'
p699
sg11
Nsg12
(lp700
(i__main__
Token
p701
(dp702
g16
I78
sbasg19
NsbsS'i11'
p703
(i__main__
Mention
p704
(dp705
g6
S't6'
p706
sg8
S'Coreference-Identity'
p707
sg9
g703
sg10
S'i9'
p708
sg11
Nsg12
(lp709
(i__main__
Token
p710
(dp711
g16
I51
sbasg19
NsbsS'i10'
p712
(i__main__
Mention
p713
(dp714
g6
S't5'
p715
sg8
S'Coreference-Identity'
p716
sg9
g712
sg10
S'i7'
p717
sg11
Nsg12
(lp718
(i__main__
Token
p719
(dp720
g16
I45
sbasg19
NsbsS'i13'
p721
(i__main__
Mention
p722
(dp723
g6
S't3'
p724
sg8
S'Anaphora-C'
p725
sg9
g721
sg10
S'i6'
p726
sg11
Nsg12
(lp727
(i__main__
Token
p728
(dp729
g16
I63
sbasg19
NsbsS'i12'
p730
(i__main__
Mention
p731
(dp732
g6
S't6'
p733
sg8
S'Anaphora-C'
p734
sg9
g730
sg10
S'i11'
p735
sg11
Nsg12
(lp736
(i__main__
Token
p737
(dp738
g16
I62
sbasg19
NsbsS'i33'
p739
(i__main__
Mention
p740
(dp741
g6
S't11'
p742
sg8
S'Coreference-Identity'
p743
sg9
g739
sg10
S'i29'
p744
sg11
Nsg12
(lp745
(i__main__
Token
p746
(dp747
g16
I171
sbasg19
NsbsS'i32'
p748
(i__main__
Mention
p749
(dp750
g6
S't13'
p751
sg8
Nsg9
g748
sg10
Nsg11
Nsg12
(lp752
(i__main__
Token
p753
(dp754
g16
I164
sbasg19
NsbsS'i31'
p755
(i__main__
Mention
p756
(dp757
g6
S't12'
p758
sg8
S'Coreference-NounComplement'
p759
sg9
g755
sg10
S'i30'
p760
sg11
Nsg12
(lp761
(i__main__
Token
p762
(dp763
g16
I161
sbasg19
NsbsS'i61'
p764
(i__main__
Mention
p765
(dp766
g6
S't21'
p767
sg8
S'Coreference-NounComplement'
p768
sg9
g764
sg10
S'i60'
p769
sg11
Nsg12
(lp770
(i__main__
Token
p771
(dp772
g16
I289
sba(i__main__
Token
p773
(dp774
g16
I290
sba(i__main__
Token
p775
(dp776
g16
I291
sbasg19
NsbssS'chains'
p777
(dp778
g110
(i__main__
Chain
p779
(dp780
S'mentionList'
p781
(lp782
g107
asg6
g110
sS'chainHead'
p783
Nsbsg201
(i__main__
Chain
p784
(dp785
g781
(lp786
g198
ag205
asg6
g201
sg783
Nsbsg180
(i__main__
Chain
p787
(dp788
g781
(lp789
g177
ag132
asg6
g180
sg783
Nsbsg128
(i__main__
Chain
p790
(dp791
g781
(lp792
g125
asg6
g128
sg783
Nsbsg311
(i__main__
Chain
p793
(dp794
g781
(lp795
g308
asg6
g311
sg783
Nsbsg230
(i__main__
Chain
p796
(dp797
g781
(lp798
g227
ag739
asg6
g230
sg783
Nsbsg7
(i__main__
Chain
p799
(dp800
g781
(lp801
g3
ag755
ag159
ag51
ag619
ag168
asg6
g7
sg783
Nsbsg751
(i__main__
Chain
p802
(dp803
g781
(lp804
g748
ag150
asg6
g751
sg783
Nsbsg574
(i__main__
Chain
p805
(dp806
g781
(lp807
g571
ag562
asg6
g574
sg783
Nsbsg588
(i__main__
Chain
p808
(dp809
g781
(lp810
g585
asg6
g588
sg783
Nsbsg266
(i__main__
Chain
p811
(dp812
g781
(lp813
g263
asg6
g266
sg783
Nsbsg295
(i__main__
Chain
p814
(dp815
g781
(lp816
g292
asg6
g295
sg783
Nsbsg340
(i__main__
Chain
p817
(dp818
g781
(lp819
g337
ag326
ag703
ag730
ag665
ag685
ag254
ag281
ag29
ag610
ag141
asg6
g340
sg783
Nsbsg633
(i__main__
Chain
p820
(dp821
g781
(lp822
g630
ag245
asg6
g633
sg783
Nsbsg418
(i__main__
Chain
p823
(dp824
g781
(lp825
g415
ag380
asg6
g418
sg783
Nsbsg425
(i__main__
Chain
p826
(dp827
g781
(lp828
g422
ag712
ag674
ag299
asg6
g425
sg783
Nsbsg376
(i__main__
Chain
p829
(dp830
g781
(lp831
g373
ag535
asg6
g376
sg783
Nsbsg363
(i__main__
Chain
p832
(dp833
g781
(lp834
g360
ag429
ag721
ag694
ag647
ag272
ag216
ag236
ag114
ag520
ag553
ag544
ag447
ag498
asg6
g363
sg783
Nsbsg356
(i__main__
Chain
p835
(dp836
g781
(lp837
g353
ag89
asg6
g356
sg783
Nsbsg101
(i__main__
Chain
p838
(dp839
g781
(lp840
g98
ag764
ag40
ag509
ag460
ag315
asg6
g101
sg783
Nsbsg581
(i__main__
Chain
p841
(dp842
g781
(lp843
g578
ag438
ag20
ag80
ag344
ag592
ag489
ag480
ag656
ag601
asg6
g581
sg783
Nsbsg65
(i__main__
Chain
p844
(dp845
g781
(lp846
g62
ag69
ag471
asg6
g65
sg783
NsbssS'modmentions'
p847
(dp848
S'm5'
p849
(i__main__
ModMention
p850
(dp851
g12
(lp852
(i__main__
Token
p853
(dp854
g16
I286
sbasg9
S'i60'
p855
sS'modmentionId'
p856
g849
sS'modmentionHead'
p857
I286
sbsS'm4'
p858
(i__main__
ModMention
p859
(dp860
g12
(lp861
(i__main__
Token
p862
(dp863
g16
I207
sbasg9
S'i44'
p864
sg856
g858
sg857
I207
sbsS'm7'
p865
(i__main__
ModMention
p866
(dp867
g12
(lp868
(i__main__
Token
p869
(dp870
g16
I347
sbasg9
S'i74'
p871
sg856
g865
sg857
I347
sbsS'm6'
p872
(i__main__
ModMention
p873
(dp874
g12
(lp875
(i__main__
Token
p876
(dp877
g16
I333
sbasg9
S'i70'
p878
sg856
g872
sg857
I333
sbsS'm1'
p879
(i__main__
ModMention
p880
(dp881
g12
(lp882
(i__main__
Token
p883
(dp884
g16
I35
sbasg9
S'i8'
p885
sg856
g879
sg857
I35
sbsS'm3'
p886
(i__main__
ModMention
p887
(dp888
g12
(lp889
(i__main__
Token
p890
(dp891
g16
I199
sbasg9
S'i40'
p892
sg856
g886
sg857
I199
sbsS'm2'
p893
(i__main__
ModMention
p894
(dp895
g12
(lp896
(i__main__
Token
p897
(dp898
g16
I156
sba(i__main__
Token
p899
(dp900
g16
I157
sbasg9
S'i30'
p901
sg856
g893
sg857
I157
sbsS'm8'
p902
(i__main__
ModMention
p903
(dp904
g12
(lp905
(i__main__
Token
p906
(dp907
g16
I360
sbasg9
S'i78'
p908
sg856
g902
sg857
I360
sbssS'fileid'
p909
S'fullnews_id_2474838_date_25_5_2004dat.cout.post.norm'
p910
s.