(issf_api
SSFInfo
p0
(dp1
S'globalWordList'
p2
(lp3
(issf_api
Word
p4
(dp5
S'splitConn'
p6
I00
sS'word'
p7
V\u0905\u0938\u092e
p8
sS'extraFeatureSet'
p9
(issf_api
FeatureSet
p10
(dp11
S'featureDict'
p12
(dp13
S'name'
p14
S'\xe0\xa4\x85\xe0\xa4\xb8\xe0\xa4\xae'
p15
sS'af'
p16
S'\xe0\xa4\x85\xe0\xa4\xb8\xe0\xa4\xae,n,m,sg,3,o,0_\xe0\xa4\x95\xe0\xa5\x87,0'
p17
sS'chunkid'
p18
S'NP'
p19
sS'drel'
p20
S'r6:NP2'
p21
sS'vpos'
p22
S'vib_2'
p23
sS'chunktype'
p24
S'head:NP'
p25
ssbsS'arg1'
p26
I00
sS'arg2'
p27
I00
sS'sense'
p28
NsS'arg1Span'
p29
NsS'chunkNum'
p30
I0
sS'sentenceNum'
p31
I0
sS'relationNum'
p32
NsS'arg2Span'
p33
NsS'wordTag'
p34
S'NNP'
p35
sS'featureSet'
p36
g10
sS'conn'
p37
I00
sba(issf_api
Word
p38
(dp39
g6
I00
sg7
V\u0915\u0947
p40
sg9
(issf_api
FeatureSet
p41
(dp42
g12
(dp43
S'name'
p44
S'\xe0\xa4\x95\xe0\xa5\x87'
p45
sS'drel'
p46
S'lwg__psp:NP'
p47
sS'chunktype'
p48
S'child:NP'
p49
sS'af'
p50
S'\xe0\xa4\x95\xe0\xa5\x87,psp,m,sg,,o,,'
p51
ssbsg26
I00
sg27
I00
sg28
Nsg29
Nsg30
I0
sg31
I0
sg32
Nsg33
Nsg34
S'PSP'
p52
sg36
g41
sg37
I00
sba(issf_api
Word
p53
(dp54
g6
I00
sg7
V\u0915\u0930\u094d\u092c\u0940
p55
sg9
(issf_api
FeatureSet
p56
(dp57
g12
(dp58
S'name'
p59
S'\xe0\xa4\x95\xe0\xa4\xb0\xe0\xa5\x8d\xe0\xa4\xac\xe0\xa5\x80'
p60
sS'drel'
p61
S'pof__cn:NP2'
p62
sS'cref'
p63
S'i1%0:t1'
p64
sS'chunktype'
p65
S'child:NP2'
p66
sS'af'
p67
S'\xe0\xa4\x95\xe0\xa4\xb0\xe0\xa5\x8d\xe0\xa4\xac\xe0\xa5\x80,n,m,sg,3,d,0,0'
p68
ssbsg26
I00
sg27
I00
sg28
Nsg29
Nsg30
I1
sg31
I0
sg32
Nsg33
Nsg34
S'NNPC'
p69
sg36
g56
sg37
I00
sba(issf_api
Word
p70
(dp71
g6
I00
sg7
V\u0906\u0902\u0917\u0932\u094b\u0902\u0917
p72
sg9
(issf_api
FeatureSet
p73
(dp74
g12
(dp75
S'name'
p76
S'\xe0\xa4\x86\xe0\xa4\x82\xe0\xa4\x97\xe0\xa4\xb2\xe0\xa5\x8b\xe0\xa4\x82\xe0\xa4\x97'
p77
sS'drel'
p78
S'nmod__adj:NP2'
p79
sS'cref'
p80
S'i1%0:t1'
p81
sS'chunktype'
p82
S'child:NP2'
p83
sS'af'
p84
S'\xe0\xa4\x86\xe0\xa4\x82\xe0\xa4\x97\xe0\xa4\xb2\xe0\xa5\x8b\xe0\xa4\x82\xe0\xa4\x97,n,m,sg,3,d,0,0'
p85
ssbsg26
I00
sg27
I00
sg28
Nsg29
Nsg30
I1
sg31
I0
sg32
Nsg33
Nsg34
S'NNP'
p86
sg36
g73
sg37
I00
sba(issf_api
Word
p87
(dp88
g6
I00
sg7
V\u091c\u093f\u0932\u0947
p89
sg9
(issf_api
FeatureSet
p90
(dp91
g12
(dp92
S'crefhead'
p93
S'\xe0\xa4\x9c\xe0\xa4\xbf\xe0\xa4\xb2\xe0\xa5\x87:i1'
p94
sS'name'
p95
S'\xe0\xa4\x9c\xe0\xa4\xbf\xe0\xa4\xb2\xe0\xa5\x87'
p96
sS'af'
p97
S'\xe0\xa4\x9c\xe0\xa4\xbf\xe0\xa4\xb2\xe0\xa4\xbe,n,m,sg,3,o,0_\xe0\xa4\xae\xe0\xa5\x87\xe0\xa4\x82,0'
p98
sS'chunkid'
p99
S'NP2'
p100
sS'chunktype'
p101
S'head:NP2'
p102
sS'crefchainhead'
p103
S'i1:t1'
p104
sS'vpos'
p105
S'vib_vib_4'
p106
sS'cref'
p107
S'i1%1:t1'
p108
sS'drel'
p109
S'k7p:VGF'
p110
ssbsg26
I00
sg27
I00
sg28
Nsg29
Nsg30
I1
sg31
I0
sg32
Nsg33
Nsg34
S'NN'
p111
sg36
g90
sg37
I00
sba(issf_api
Word
p112
(dp113
g6
I00
sg7
V\u092e\u0947\u0902
p114
sg9
(issf_api
FeatureSet
p115
(dp116
g12
(dp117
S'name'
p118
S'\xe0\xa4\xae\xe0\xa5\x87\xe0\xa4\x82'
p119
sS'drel'
p120
S'lwg__psp:NP2'
p121
sS'chunktype'
p122
S'child:NP2'
p123
sS'af'
p124
S'\xe0\xa4\xae\xe0\xa5\x87\xe0\xa4\x82,psp,,,,,,'
p125
ssbsg26
I00
sg27
I00
sg28
Nsg29
Nsg30
I1
sg31
I0
sg32
Nsg33
Nsg34
S'PSP'
p126
sg36
g115
sg37
I00
sba(issf_api
Word
p127
(dp128
g6
I00
sg7
V\u0939\u093f\u0902\u0938\u093e
p129
sg9
(issf_api
FeatureSet
p130
(dp131
g12
(dp132
S'name'
p133
S'\xe0\xa4\xb9\xe0\xa4\xbf\xe0\xa4\x82\xe0\xa4\xb8\xe0\xa4\xbe'
p134
sS'af'
p135
S'\xe0\xa4\xb9\xe0\xa4\xbf\xe0\xa4\x82\xe0\xa4\xb8\xe0\xa4\xbe,n,f,sg,3,o,0_\xe0\xa4\x95\xe0\xa4\xbe,0'
p136
sS'chunkid'
p137
S'NP3'
p138
sS'drel'
p139
S'r6:NP4'
p140
sS'vpos'
p141
S'vib_2'
p142
sS'chunktype'
p143
S'head:NP3'
p144
ssbsg26
I00
sg27
I00
sg28
Nsg29
Nsg30
I2
sg31
I0
sg32
Nsg33
Nsg34
S'NN'
p145
sg36
g130
sg37
I00
sba(issf_api
Word
p146
(dp147
g6
I00
sg7
V\u0915\u093e
p148
sg9
(issf_api
FeatureSet
p149
(dp150
g12
(dp151
S'name'
p152
S'\xe0\xa4\x95\xe0\xa4\xbe'
p153
sS'drel'
p154
S'lwg__psp:NP3'
p155
sS'chunktype'
p156
S'child:NP3'
p157
sS'af'
p158
S'\xe0\xa4\x95\xe0\xa4\xbe,psp,m,sg,,d,,'
p159
ssbsg26
I00
sg27
I00
sg28
Nsg29
Nsg30
I2
sg31
I0
sg32
Nsg33
Nsg34
S'PSP'
p160
sg36
g149
sg37
I00
sba(issf_api
Word
p161
(dp162
g6
I00
sg7
V\u0938\u093f\u0932\u0938\u093f\u0932\u093e
p163
sg9
(issf_api
FeatureSet
p164
(dp165
g12
(dp166
S'name'
p167
S'\xe0\xa4\xb8\xe0\xa4\xbf\xe0\xa4\xb2\xe0\xa4\xb8\xe0\xa4\xbf\xe0\xa4\xb2\xe0\xa4\xbe'
p168
sS'chunkid'
p169
S'NP4'
p170
sS'drel'
p171
S'k1:VGF'
p172
sS'chunktype'
p173
S'head:NP4'
p174
sS'af'
p175
S'\xe0\xa4\xb8\xe0\xa4\xbf\xe0\xa4\xb2\xe0\xa4\xb8\xe0\xa4\xbf\xe0\xa4\xb2\xe0\xa4\xbe,n,m,sg,3,d,0,0'
p176
ssbsg26
I00
sg27
I00
sg28
Nsg29
Nsg30
I3
sg31
I0
sg32
Nsg33
Nsg34
S'NN'
p177
sg36
g164
sg37
I00
sba(issf_api
Word
p178
(dp179
g6
I00
sg7
V\u092b\u093f\u0930
p180
sg9
(issf_api
FeatureSet
p181
(dp182
g12
(dp183
S'name'
p184
S'\xe0\xa4\xab\xe0\xa4\xbf\xe0\xa4\xb0'
p185
sS'chunkid'
p186
S'RBP'
p187
sS'drel'
p188
S'adv:VGF'
p189
sS'chunktype'
p190
S'head:RBP'
p191
sS'af'
p192
S'\xe0\xa4\xab\xe0\xa4\xbf\xe0\xa4\xb0,adv,,,,,,'
p193
ssbsg26
I00
sg27
I00
sg28
Nsg29
Nsg30
I4
sg31
I0
sg32
Nsg33
Nsg34
S'RB'
p194
sg36
g181
sg37
I00
sba(issf_api
Word
p195
(dp196
g6
I00
sg7
V\u0924\u0947\u091c
p197
sg9
(issf_api
FeatureSet
p198
(dp199
g12
(dp200
S'name'
p201
S'\xe0\xa4\xa4\xe0\xa5\x87\xe0\xa4\x9c'
p202
sS'chunkid'
p203
S'JJP'
p204
sS'drel'
p205
S'pof:VGF'
p206
sS'chunktype'
p207
S'head:JJP'
p208
sS'af'
p209
S'\xe0\xa4\xa4\xe0\xa5\x87\xe0\xa4\x9c,adj,any,any,,,,'
p210
ssbsg26
I00
sg27
I00
sg28
Nsg29
Nsg30
I5
sg31
I0
sg32
Nsg33
Nsg34
S'JJ'
p211
sg36
g198
sg37
I00
sba(issf_api
Word
p212
(dp213
g6
I00
sg7
V\u0939\u094b
p214
sg9
(issf_api
FeatureSet
p215
(dp216
g12
(dp217
S'name'
p218
S'\xe0\xa4\xb9\xe0\xa5\x8b'
p219
sS'af'
p220
S'\xe0\xa4\xb9\xe0\xa5\x8b,v,m,sg,3,,0_\xe0\xa4\x9c\xe0\xa4\xbe+\xe0\xa4\xaf\xe0\xa4\xbe\xe0\xa5\xa7_\xe0\xa4\xb9\xe0\xa5\x88,0'
p221
sS'chunkid'
p222
S'VGF'
p223
sS'chunktype'
p224
S'head:VGF'
p225
sS'voicetype'
p226
S'active'
p227
sS'vpos'
p228
S'tam_2_3'
p229
sS'stype'
p230
S'declarative'
p231
ssbsg26
I00
sg27
I00
sg28
Nsg29
Nsg30
I6
sg31
I0
sg32
Nsg33
Nsg34
S'VM'
p232
sg36
g215
sg37
I00
sba(issf_api
Word
p233
(dp234
g6
I00
sg7
V\u0917\u092f\u093e
p235
sg9
(issf_api
FeatureSet
p236
(dp237
g12
(dp238
S'name'
p239
S'\xe0\xa4\x97\xe0\xa4\xaf\xe0\xa4\xbe'
p240
sS'drel'
p241
S'lwg__vaux:VGF'
p242
sS'chunktype'
p243
S'child:VGF'
p244
sS'af'
p245
S'\xe0\xa4\x9c\xe0\xa4\xbe,v,m,sg,any,,\xe0\xa4\xaf\xe0\xa4\xbe\xe0\xa5\xa7,yA1'
p246
ssbsg26
I00
sg27
I00
sg28
Nsg29
Nsg30
I6
sg31
I0
sg32
Nsg33
Nsg34
S'VAUX'
p247
sg36
g236
sg37
I00
sba(issf_api
Word
p248
(dp249
g6
I00
sg7
V\u0939\u0948
p250
sg9
(issf_api
FeatureSet
p251
(dp252
g12
(dp253
S'name'
p254
S'\xe0\xa4\xb9\xe0\xa5\x88'
p255
sS'drel'
p256
S'lwg__vaux:VGF'
p257
sS'chunktype'
p258
S'child:VGF'
p259
sS'af'
p260
S'\xe0\xa4\xb9\xe0\xa5\x88,v,any,sg,3,,\xe0\xa4\xb9\xe0\xa5\x88,hE'
p261
ssbsg26
I00
sg27
I00
sg28
Nsg29
Nsg30
I6
sg31
I0
sg32
Nsg33
Nsg34
S'VAUX'
p262
sg36
g251
sg37
I00
sba(issf_api
Word
p263
(dp264
g6
I00
sg7
V\u0964
p265
sg9
(issf_api
FeatureSet
p266
(dp267
g12
(dp268
S'name'
p269
S'\xe0\xa5\xa4'
p270
sS'chunkid'
p271
S'BLK'
p272
sS'drel'
p273
S'rsym:VGF'
p274
sS'chunktype'
p275
S'head:BLK'
p276
sS'af'
p277
S'\xe0\xa5\xa4,punc,,,,,,'
p278
ssbsg26
I00
sg27
I00
sg28
Nsg29
Nsg30
I7
sg31
I0
sg32
Nsg33
Nsg34
S'SYM'
p279
sg36
g266
sg37
I00
sba(issf_api
Word
p280
(dp281
g6
I00
sg7
V\u0924\u093e\u091c\u093e
p282
sg9
(issf_api
FeatureSet
p283
(dp284
g12
(dp285
S'name'
p286
S'\xe0\xa4\xa4\xe0\xa4\xbe\xe0\xa4\x9c\xe0\xa4\xbe'
p287
sS'drel'
p288
S'nmod__adj:NP'
p289
sS'chunktype'
p290
S'child:NP'
p291
sS'af'
p292
S'\xe0\xa4\xa4\xe0\xa4\xbe\xe0\xa4\x9c\xe0\xa4\xbe,adj,m,sg,,o,,'
p293
ssbsg26
I00
sg27
I00
sg28
Nsg29
Nsg30
I0
sg31
I1
sg32
Nsg33
Nsg34
S'JJ'
p294
sg36
g283
sg37
I00
sba(issf_api
Word
p295
(dp296
g6
I00
sg7
V\u0918\u091f\u0928\u093e
p297
sg9
(issf_api
FeatureSet
p298
(dp299
g12
(dp300
S'name'
p301
S'\xe0\xa4\x98\xe0\xa4\x9f\xe0\xa4\xa8\xe0\xa4\xbe'
p302
sS'af'
p303
S'\xe0\xa4\x98\xe0\xa4\x9f\xe0\xa4\xa8\xe0\xa4\xbe,n,f,sg,3,o,0_\xe0\xa4\xae\xe0\xa5\x87\xe0\xa4\x82,0'
p304
sS'chunkid'
p305
S'NP'
p306
sS'drel'
p307
S'k7:VGF'
p308
sS'vpos'
p309
S'vib_3'
p310
sS'chunktype'
p311
S'head:NP'
p312
ssbsg26
I00
sg27
I00
sg28
Nsg29
Nsg30
I0
sg31
I1
sg32
Nsg33
Nsg34
S'NN'
p313
sg36
g298
sg37
I00
sba(issf_api
Word
p314
(dp315
g6
I00
sg7
V\u092e\u0947\u0902
p316
sg9
(issf_api
FeatureSet
p317
(dp318
g12
(dp319
S'name'
p320
S'\xe0\xa4\xae\xe0\xa5\x87\xe0\xa4\x82'
p321
sS'drel'
p322
S'lwg__psp:NP'
p323
sS'chunktype'
p324
S'child:NP'
p325
sS'af'
p326
S'\xe0\xa4\xae\xe0\xa5\x87\xe0\xa4\x82,psp,,,,,,'
p327
ssbsg26
I00
sg27
I00
sg28
Nsg29
Nsg30
I0
sg31
I1
sg32
Nsg33
Nsg34
S'PSP'
p328
sg36
g317
sg37
I00
sba(issf_api
Word
p329
(dp330
g6
I00
sg7
V\u091c\u093f\u0932\u0947
p331
sg9
(issf_api
FeatureSet
p332
(dp333
g12
(dp334
S'crefhead'
p335
S'\xe0\xa4\x9c\xe0\xa4\xbf\xe0\xa4\xb2\xe0\xa5\x87:i2'
p336
sS'name'
p337
S'\xe0\xa4\x9c\xe0\xa4\xbf\xe0\xa4\xb2\xe0\xa5\x87'
p338
sS'af'
p339
S'\xe0\xa4\x9c\xe0\xa4\xbf\xe0\xa4\xb2\xe0\xa4\xbe,n,m,sg,3,o,0_\xe0\xa4\xae\xe0\xa5\x87\xe0\xa4\x82,0'
p340
sS'chunkid'
p341
S'NP2'
p342
sS'creftype'
p343
S'Coreference-Identity:i1'
p344
sS'chunktype'
p345
S'head:NP2'
p346
sS'vpos'
p347
S'vib_2'
p348
sS'cref'
p349
S'i2%1:t1'
p350
sS'drel'
p351
S'k7p:VGF'
p352
ssbsg26
I00
sg27
I00
sg28
Nsg29
Nsg30
I1
sg31
I1
sg32
Nsg33
Nsg34
S'NN'
p353
sg36
g332
sg37
I00
sba(issf_api
Word
p354
(dp355
g6
I00
sg7
V\u092e\u0947\u0902
p356
sg9
(issf_api
FeatureSet
p357
(dp358
g12
(dp359
S'name'
p360
S'\xe0\xa4\xae\xe0\xa5\x87\xe0\xa4\x822'
p361
sS'drel'
p362
S'lwg__psp:NP2'
p363
sS'chunktype'
p364
S'child:NP2'
p365
sS'af'
p366
S'\xe0\xa4\xae\xe0\xa5\x87\xe0\xa4\x82,psp,,,,,,'
p367
ssbsg26
I00
sg27
I00
sg28
Nsg29
Nsg30
I1
sg31
I1
sg32
Nsg33
Nsg34
S'PSP'
p368
sg36
g357
sg37
I00
sba(issf_api
Word
p369
(dp370
g6
I00
sg7
V\u091c\u0928\u091c\u093e\u0924\u0940\u092f
p371
sg9
(issf_api
FeatureSet
p372
(dp373
g12
(dp374
S'name'
p375
S'\xe0\xa4\x9c\xe0\xa4\xa8\xe0\xa4\x9c\xe0\xa4\xbe\xe0\xa4\xa4\xe0\xa5\x80\xe0\xa4\xaf'
p376
sS'drel'
p377
S'nmod__adj:NP3'
p378
sS'cref'
p379
S'i3%0:t2'
p380
sS'chunktype'
p381
S'child:NP3'
p382
sS'af'
p383
S'\xe0\xa4\x9c\xe0\xa4\xa8\xe0\xa4\x9c\xe0\xa4\xbe\xe0\xa4\xa4\xe0\xa5\x80\xe0\xa4\xaf,adj,any,any,,o,,'
p384
ssbsg26
I00
sg27
I00
sg28
Nsg29
Nsg30
I2
sg31
I1
sg32
Nsg33
Nsg34
S'JJ'
p385
sg36
g372
sg37
I00
sba(issf_api
Word
p386
(dp387
g6
I00
sg7
V\u0938\u0902\u0918\u0930\u094d\u0937
p388
sg9
(issf_api
FeatureSet
p389
(dp390
g12
(dp391
S'name'
p392
S'\xe0\xa4\xb8\xe0\xa4\x82\xe0\xa4\x98\xe0\xa4\xb0\xe0\xa5\x8d\xe0\xa4\xb7'
p393
sS'af'
p394
S'\xe0\xa4\xb8\xe0\xa4\x82\xe0\xa4\x98\xe0\xa4\xb0\xe0\xa5\x8d\xe0\xa4\xb7,n,m,sg,3,o,0_\xe0\xa4\xae\xe0\xa5\x87\xe0\xa4\x82,0'
p395
sS'chunkid'
p396
S'NP3'
p397
sS'drel'
p398
S'k7:VGF'
p399
sS'chunktype'
p400
S'head:NP3'
p401
sS'vpos'
p402
S'vib_3'
p403
sS'cref'
p404
S'i3%0:t2'
p405
ssbsg26
I00
sg27
I00
sg28
Nsg29
Nsg30
I2
sg31
I1
sg32
Nsg33
Nsg34
S'NN'
p406
sg36
g389
sg37
I00
sba(issf_api
Word
p407
(dp408
g6
I00
sg7
V\u092e\u0947\u0902
p409
sg9
(issf_api
FeatureSet
p410
(dp411
g12
(dp412
S'name'
p413
S'\xe0\xa4\xae\xe0\xa5\x87\xe0\xa4\x823'
p414
sS'drel'
p415
S'lwg__psp:NP3'
p416
sS'cref'
p417
S'i3%0:t2'
p418
sS'chunktype'
p419
S'child:NP3'
p420
sS'af'
p421
S'\xe0\xa4\xae\xe0\xa5\x87\xe0\xa4\x82,psp,,,,,,'
p422
ssbsg26
I00
sg27
I00
sg28
Nsg29
Nsg30
I2
sg31
I1
sg32
Nsg33
Nsg34
S'PSP'
p423
sg36
g410
sg37
I00
sba(issf_api
Word
p424
(dp425
g6
I00
sg7
V\u096c
p426
sg9
(issf_api
FeatureSet
p427
(dp428
g12
(dp429
S'name'
p430
S'\xe0\xa5\xac'
p431
sS'drel'
p432
S'nmod__adj:NP4'
p433
sS'cref'
p434
S'i3%0:t2'
p435
sS'chunktype'
p436
S'child:NP4'
p437
sS'af'
p438
S'\xe0\xa5\xac,num,any,any,,any,,'
p439
ssbsg26
I00
sg27
I00
sg28
Nsg29
Nsg30
I3
sg31
I1
sg32
Nsg33
Nsg34
S'QC'
p440
sg36
g427
sg37
I00
sba(issf_api
Word
p441
(dp442
g6
I00
sg7
V\u0932\u094b\u0917\u094b\u0902
p443
sg9
(issf_api
FeatureSet
p444
(dp445
g12
(dp446
S'name'
p447
S'\xe0\xa4\xb2\xe0\xa5\x8b\xe0\xa4\x97\xe0\xa5\x8b\xe0\xa4\x82'
p448
sS'af'
p449
S'\xe0\xa4\xb2\xe0\xa5\x8b\xe0\xa4\x97,n,m,pl,3,o,0_\xe0\xa4\x95\xe0\xa4\xbe,0'
p450
sS'chunkid'
p451
S'NP4'
p452
sS'drel'
p453
S'r6-k1:NP5'
p454
sS'chunktype'
p455
S'head:NP4'
p456
sS'vpos'
p457
S'vib_3'
p458
sS'cref'
p459
S'i3%0:t2'
p460
ssbsg26
I00
sg27
I00
sg28
Nsg29
Nsg30
I3
sg31
I1
sg32
Nsg33
Nsg34
S'NN'
p461
sg36
g444
sg37
I00
sba(issf_api
Word
p462
(dp463
g6
I00
sg7
V\u0915\u0940
p464
sg9
(issf_api
FeatureSet
p465
(dp466
g12
(dp467
S'name'
p468
S'\xe0\xa4\x95\xe0\xa5\x80'
p469
sS'drel'
p470
S'lwg__psp:NP4'
p471
sS'cref'
p472
S'i3%0:t2'
p473
sS'chunktype'
p474
S'child:NP4'
p475
sS'af'
p476
S'\xe0\xa4\x95\xe0\xa4\xbe,psp,f,sg,,d,,'
p477
ssbsg26
I00
sg27
I00
sg28
Nsg29
Nsg30
I3
sg31
I1
sg32
Nsg33
Nsg34
S'PSP'
p478
sg36
g465
sg37
I00
sba(issf_api
Word
p479
(dp480
g6
I00
sg7
V\u092e\u094c\u0924
p481
sg9
(issf_api
FeatureSet
p482
(dp483
g12
(dp484
S'name'
p485
S'\xe0\xa4\xae\xe0\xa5\x8c\xe0\xa4\xa4'
p486
sS'af'
p487
S'\xe0\xa4\xae\xe0\xa5\x8c\xe0\xa4\xa4,n,f,sg,3,d,0,0'
p488
sS'chunkid'
p489
S'NP5'
p490
sS'drel'
p491
S'pof:VGF'
p492
sS'chunktype'
p493
S'head:NP5'
p494
sS'cref'
p495
S'i3%0:t2'
p496
ssbsg26
I00
sg27
I00
sg28
Nsg29
Nsg30
I4
sg31
I1
sg32
Nsg33
Nsg34
S'NN'
p497
sg36
g482
sg37
I00
sba(issf_api
Word
p498
(dp499
g6
I00
sg7
V\u0939\u0941\u0908
p500
sg9
(issf_api
FeatureSet
p501
(dp502
g12
(dp503
S'stype'
p504
S'declarative'
p505
sS'name'
p506
S'\xe0\xa4\xb9\xe0\xa5\x81\xe0\xa4\x88'
p507
sS'af'
p508
S'\xe0\xa4\xb9\xe0\xa5\x8b,v,f,sg,3,,\xe0\xa4\xaf\xe0\xa4\xbe_\xe0\xa4\xb9\xe0\xa5\x88,yA'
p509
sS'chunkid'
p510
S'VGF'
p511
sS'drel'
p512
S'ccof:CCP'
p513
sS'chunktype'
p514
S'head:VGF'
p515
sS'voicetype'
p516
S'active'
p517
sS'vpos'
p518
S'tam_2'
p519
sS'cref'
p520
S'i3%0:t2'
p521
ssbsg26
I00
sg27
I00
sg28
Nsg29
Nsg30
I5
sg31
I1
sg32
Nsg33
Nsg34
S'VM'
p522
sg36
g501
sg37
I00
sba(issf_api
Word
p523
(dp524
g6
I00
sg7
V\u0939\u0948
p525
sg9
(issf_api
FeatureSet
p526
(dp527
g12
(dp528
S'name'
p529
S'\xe0\xa4\xb9\xe0\xa5\x88'
p530
sS'drel'
p531
S'lwg__vaux:VGF'
p532
sS'cref'
p533
S'i3%0:t2'
p534
sS'chunktype'
p535
S'child:VGF'
p536
sS'af'
p537
S'\xe0\xa4\xb9\xe0\xa5\x88,v,any,sg,3,,\xe0\xa4\xb9\xe0\xa5\x88,hE'
p538
ssbsg26
I00
sg27
I00
sg28
Nsg29
Nsg30
I5
sg31
I1
sg32
Nsg33
Nsg34
S'VAUX'
p539
sg36
g526
sg37
I00
sba(issf_api
Word
p540
(dp541
g6
I00
sg7
V\u0914\u0930
p542
sg9
(issf_api
FeatureSet
p543
(dp544
g12
(dp545
S'name'
p546
S'\xe0\xa4\x94\xe0\xa4\xb0'
p547
sS'chunkid'
p548
S'CCP'
p549
sS'cref'
p550
S'i3%0:t2'
p551
sS'chunktype'
p552
S'head:CCP'
p553
sS'af'
p554
S'\xe0\xa4\x94\xe0\xa4\xb0,avy,,,,,,'
p555
ssbsg26
I00
sg27
I00
sg28
Nsg29
Nsg30
I6
sg31
I1
sg32
Nsg33
Nsg34
S'CC'
p556
sg36
g543
sg37
I00
sba(issf_api
Word
p557
(dp558
g6
I00
sg7
V\u0967\u096b\u0966
p559
sg9
(issf_api
FeatureSet
p560
(dp561
g12
(dp562
S'name'
p563
S'\xe0\xa5\xa7\xe0\xa5\xab\xe0\xa5\xa6'
p564
sS'af'
p565
S'\xe0\xa5\xa7\xe0\xa5\xab\xe0\xa5\xa6,num,any,any,,o,0_\xe0\xa4\xb8\xe0\xa5\x87,'
p566
sS'chunkid'
p567
S'NP6'
p568
sS'drel'
p569
S'nmod:NP7'
p570
sS'chunktype'
p571
S'head:NP6'
p572
sS'vpos'
p573
S'2'
p574
sS'cref'
p575
S'i3%0:t2'
p576
ssbsg26
I00
sg27
I00
sg28
Nsg29
Nsg30
I7
sg31
I1
sg32
Nsg33
Nsg34
S'QC'
p577
sg36
g560
sg37
I00
sba(issf_api
Word
p578
(dp579
g6
I00
sg7
V\u0938\u0947
p580
sg9
(issf_api
FeatureSet
p581
(dp582
g12
(dp583
S'name'
p584
S'\xe0\xa4\xb8\xe0\xa5\x87'
p585
sS'drel'
p586
S'lwg__psp:NP6'
p587
sS'cref'
p588
S'i3%0:t2'
p589
sS'chunktype'
p590
S'child:NP6'
p591
sS'af'
p592
S'\xe0\xa4\xb8\xe0\xa5\x87,psp,,,,,,'
p593
ssbsg26
I00
sg27
I00
sg28
Nsg29
Nsg30
I7
sg31
I1
sg32
Nsg33
Nsg34
S'PSP'
p594
sg36
g581
sg37
I00
sba(issf_api
Word
p595
(dp596
g6
I00
sg7
V\u0905\u0927\u093f\u0915
p597
sg9
(issf_api
FeatureSet
p598
(dp599
g12
(dp600
S'name'
p601
S'\xe0\xa4\x85\xe0\xa4\xa7\xe0\xa4\xbf\xe0\xa4\x95'
p602
sS'drel'
p603
S'nmod__adj:NP7'
p604
sS'cref'
p605
S'i3%0:t2'
p606
sS'chunktype'
p607
S'child:NP7'
p608
sS'af'
p609
S'\xe0\xa4\x85\xe0\xa4\xa7\xe0\xa4\xbf\xe0\xa4\x95,avy,,,,,,'
p610
ssbsg26
I00
sg27
I00
sg28
Nsg29
Nsg30
I8
sg31
I1
sg32
Nsg33
Nsg34
S'QF'
p611
sg36
g598
sg37
I00
sba(issf_api
Word
p612
(dp613
g6
I00
sg7
V\u0918\u0930\u094b\u0902
p614
sg9
(issf_api
FeatureSet
p615
(dp616
g12
(dp617
S'name'
p618
S'\xe0\xa4\x98\xe0\xa4\xb0\xe0\xa5\x8b\xe0\xa4\x82'
p619
sS'af'
p620
S'\xe0\xa4\x98\xe0\xa4\xb0,n,m,pl,3,o,0_\xe0\xa4\x95\xe0\xa5\x8b,0'
p621
sS'chunkid'
p622
S'NP7'
p623
sS'drel'
p624
S'k2:VGF2'
p625
sS'chunktype'
p626
S'head:NP7'
p627
sS'vpos'
p628
S'vib_3'
p629
sS'cref'
p630
S'i3%0:t2'
p631
ssbsg26
I00
sg27
I00
sg28
Nsg29
Nsg30
I8
sg31
I1
sg32
Nsg33
Nsg34
S'NN'
p632
sg36
g615
sg37
I00
sba(issf_api
Word
p633
(dp634
g6
I00
sg7
V\u0915\u094b
p635
sg9
(issf_api
FeatureSet
p636
(dp637
g12
(dp638
S'name'
p639
S'\xe0\xa4\x95\xe0\xa5\x8b'
p640
sS'drel'
p641
S'lwg__psp:NP7'
p642
sS'cref'
p643
S'i3%0:t2'
p644
sS'chunktype'
p645
S'child:NP7'
p646
sS'af'
p647
S'\xe0\xa4\x95\xe0\xa5\x8b,psp,,,,,,'
p648
ssbsg26
I00
sg27
I00
sg28
Nsg29
Nsg30
I8
sg31
I1
sg32
Nsg33
Nsg34
S'PSP'
p649
sg36
g636
sg37
I00
sba(issf_api
Word
p650
(dp651
g6
I00
sg7
V\u0906\u0917
p652
sg9
(issf_api
FeatureSet
p653
(dp654
g12
(dp655
S'name'
p656
S'\xe0\xa4\x86\xe0\xa4\x97'
p657
sS'af'
p658
S'\xe0\xa4\x86\xe0\xa4\x97,n,f,sg,3,o,0_\xe0\xa4\x95\xe0\xa4\xbe,0'
p659
sS'chunkid'
p660
S'NP8'
p661
sS'drel'
p662
S'r6-k2:NP9'
p663
sS'chunktype'
p664
S'head:NP8'
p665
sS'vpos'
p666
S'vib_2'
p667
sS'cref'
p668
S'i3%0:t2'
p669
ssbsg26
I00
sg27
I00
sg28
Nsg29
Nsg30
I9
sg31
I1
sg32
Nsg33
Nsg34
S'NN'
p670
sg36
g653
sg37
I00
sba(issf_api
Word
p671
(dp672
g6
I00
sg7
V\u0915\u0947
p673
sg9
(issf_api
FeatureSet
p674
(dp675
g12
(dp676
S'name'
p677
S'\xe0\xa4\x95\xe0\xa5\x87'
p678
sS'drel'
p679
S'lwg__psp:NP8'
p680
sS'cref'
p681
S'i3%0:t2'
p682
sS'chunktype'
p683
S'child:NP8'
p684
sS'af'
p685
S'\xe0\xa4\x95\xe0\xa4\xbe,psp,m,pl,,d,,'
p686
ssbsg26
I00
sg27
I00
sg28
Nsg29
Nsg30
I9
sg31
I1
sg32
Nsg33
Nsg34
S'PSP'
p687
sg36
g674
sg37
I00
sba(issf_api
Word
p688
(dp689
g6
I00
sg7
V\u0939\u0935\u093e\u0932\u0947
p690
sg9
(issf_api
FeatureSet
p691
(dp692
g12
(dp693
S'name'
p694
S'\xe0\xa4\xb9\xe0\xa4\xb5\xe0\xa4\xbe\xe0\xa4\xb2\xe0\xa5\x87'
p695
sS'af'
p696
S'\xe0\xa4\xb9\xe0\xa4\xb5\xe0\xa4\xbe\xe0\xa4\xb2\xe0\xa4\xbe,n,m,pl,3,d,0,0'
p697
sS'chunkid'
p698
S'NP9'
p699
sS'drel'
p700
S'pof:VGF2'
p701
sS'chunktype'
p702
S'head:NP9'
p703
sS'cref'
p704
S'i3%0:t2'
p705
ssbsg26
I00
sg27
I00
sg28
Nsg29
Nsg30
I10
sg31
I1
sg32
Nsg33
Nsg34
S'NN'
p706
sg36
g691
sg37
I00
sba(issf_api
Word
p707
(dp708
g6
I00
sg7
V\u0915\u0930
p709
sg9
(issf_api
FeatureSet
p710
(dp711
g12
(dp712
S'crefhead'
p713
S'\xe0\xa4\x95\xe0\xa4\xb0:i3'
p714
sS'name'
p715
S'\xe0\xa4\x95\xe0\xa4\xb0'
p716
sS'af'
p717
S'\xe0\xa4\x95\xe0\xa4\xb0,v,m,sg,3,,0_\xe0\xa4\xa6\xe0\xa5\x87+\xe0\xa4\xaf\xe0\xa4\xbe_\xe0\xa4\x9c\xe0\xa4\xbe+\xe0\xa4\xaf\xe0\xa4\xbe\xe0\xa5\xa7_\xe0\xa4\xb9\xe0\xa5\x88,0'
p718
sS'chunkid'
p719
S'VGF2'
p720
sS'stype'
p721
S'declarative'
p722
sS'chunktype'
p723
S'head:VGF2'
p724
sS'crefchainhead'
p725
S'i3:t2'
p726
sS'voicetype'
p727
S'passive'
p728
sS'vpos'
p729
S'tam_2_3_4'
p730
sS'cref'
p731
S'i3%0:t2'
p732
sS'drel'
p733
S'ccof:CCP'
p734
ssbsg26
I00
sg27
I00
sg28
Nsg29
Nsg30
I11
sg31
I1
sg32
Nsg33
Nsg34
S'VM'
p735
sg36
g710
sg37
I00
sba(issf_api
Word
p736
(dp737
g6
I00
sg7
V\u0926\u093f\u092f\u093e
p738
sg9
(issf_api
FeatureSet
p739
(dp740
g12
(dp741
S'name'
p742
S'\xe0\xa4\xa6\xe0\xa4\xbf\xe0\xa4\xaf\xe0\xa4\xbe'
p743
sS'drel'
p744
S'lwg__vaux:VGF2'
p745
sS'cref'
p746
S'i3%0:t2'
p747
sS'chunktype'
p748
S'child:VGF2'
p749
sS'af'
p750
S'\xe0\xa4\xa6\xe0\xa5\x87,v,m,sg,any,,\xe0\xa4\xaf\xe0\xa4\xbe,yA'
p751
ssbsg26
I00
sg27
I00
sg28
Nsg29
Nsg30
I11
sg31
I1
sg32
Nsg33
Nsg34
S'VAUX'
p752
sg36
g739
sg37
I00
sba(issf_api
Word
p753
(dp754
g6
I00
sg7
V\u0917\u092f\u093e
p755
sg9
(issf_api
FeatureSet
p756
(dp757
g12
(dp758
S'name'
p759
S'\xe0\xa4\x97\xe0\xa4\xaf\xe0\xa4\xbe'
p760
sS'drel'
p761
S'lwg__vaux:VGF2'
p762
sS'cref'
p763
S'i3%0:t2'
p764
sS'chunktype'
p765
S'child:VGF2'
p766
sS'af'
p767
S'\xe0\xa4\x9c\xe0\xa4\xbe,v,m,sg,any,,\xe0\xa4\xaf\xe0\xa4\xbe\xe0\xa5\xa7,yA1'
p768
ssbsg26
I00
sg27
I00
sg28
Nsg29
Nsg30
I11
sg31
I1
sg32
Nsg33
Nsg34
S'VAUX'
p769
sg36
g756
sg37
I00
sba(issf_api
Word
p770
(dp771
g6
I00
sg7
V\u0939\u0948
p772
sg9
(issf_api
FeatureSet
p773
(dp774
g12
(dp775
S'name'
p776
S'\xe0\xa4\xb9\xe0\xa5\x882'
p777
sS'drel'
p778
S'lwg__vaux:VGF2'
p779
sS'cref'
p780
S'i3%1:t2'
p781
sS'chunktype'
p782
S'child:VGF2'
p783
sS'af'
p784
S'\xe0\xa4\xb9\xe0\xa5\x88,v,any,sg,3,,\xe0\xa4\xb9\xe0\xa5\x88,hE'
p785
ssbsg26
I00
sg27
I00
sg28
Nsg29
Nsg30
I11
sg31
I1
sg32
Nsg33
Nsg34
S'VAUX'
p786
sg36
g773
sg37
I00
sba(issf_api
Word
p787
(dp788
g6
I00
sg7
V\u0964
p789
sg9
(issf_api
FeatureSet
p790
(dp791
g12
(dp792
S'name'
p793
S'\xe0\xa5\xa4'
p794
sS'chunkid'
p795
S'BLK'
p796
sS'drel'
p797
S'rsym:CCP'
p798
sS'chunktype'
p799
S'head:BLK'
p800
sS'af'
p801
S'\xe0\xa5\xa4,punc,,,,,,'
p802
ssbsg26
I00
sg27
I00
sg28
Nsg29
Nsg30
I12
sg31
I1
sg32
Nsg33
Nsg34
S'SYM'
p803
sg36
g790
sg37
I00
sba(issf_api
Word
p804
(dp805
g6
I00
sg7
V\u0907\u0938
p806
sg9
(issf_api
FeatureSet
p807
(dp808
g12
(dp809
S'name'
p810
S'\xe0\xa4\x87\xe0\xa4\xb8'
p811
sS'drel'
p812
S'nmod__adj:NP'
p813
sS'cref'
p814
S'i4%0:t2'
p815
sS'chunktype'
p816
S'child:NP'
p817
sS'af'
p818
S'\xe0\xa4\xaf\xe0\xa4\xb9,pn,any,sg,3,o,,'
p819
ssbsg26
I00
sg27
I00
sg28
Nsg29
Nsg30
I0
sg31
I2
sg32
Nsg33
Nsg34
S'DEM'
p820
sg36
g807
sg37
I00
sba(issf_api
Word
p821
(dp822
g6
I00
sg7
V\u0918\u091f\u0928\u093e
p823
sg9
(issf_api
FeatureSet
p824
(dp825
g12
(dp826
S'crefhead'
p827
S'\xe0\xa4\x98\xe0\xa4\x9f\xe0\xa4\xa8\xe0\xa4\xbe:i4'
p828
sS'name'
p829
S'\xe0\xa4\x98\xe0\xa4\x9f\xe0\xa4\xa8\xe0\xa4\xbe'
p830
sS'af'
p831
S'\xe0\xa4\x98\xe0\xa4\x9f\xe0\xa4\xa8\xe0\xa4\xbe,n,f,sg,3,o,0_\xe0\xa4\xa8\xe0\xa5\x87,0'
p832
sS'chunkid'
p833
S'NP'
p834
sS'creftype'
p835
S'Coreference-Noun-Noun:i3'
p836
sS'chunktype'
p837
S'head:NP'
p838
sS'vpos'
p839
S'vib_3'
p840
sS'cref'
p841
S'i4%1:t2'
p842
sS'drel'
p843
S'k1:VGF'
p844
ssbsg26
I00
sg27
I00
sg28
Nsg29
Nsg30
I0
sg31
I2
sg32
Nsg33
Nsg34
S'NN'
p845
sg36
g824
sg37
I00
sba(issf_api
Word
p846
(dp847
g6
I00
sg7
V\u0928\u0947
p848
sg9
(issf_api
FeatureSet
p849
(dp850
g12
(dp851
S'name'
p852
S'\xe0\xa4\xa8\xe0\xa5\x87'
p853
sS'drel'
p854
S'lwg__psp:NP'
p855
sS'chunktype'
p856
S'child:NP'
p857
sS'af'
p858
S'\xe0\xa4\xa8\xe0\xa5\x87,psp,,,,,,'
p859
ssbsg26
I00
sg27
I00
sg28
Nsg29
Nsg30
I0
sg31
I2
sg32
Nsg33
Nsg34
S'PSP'
p860
sg36
g849
sg37
I00
sba(issf_api
Word
p861
(dp862
g6
I00
sg7
V\u0905\u0915\u094d\u091f\u0942\u092c\u0930
p863
sg9
(issf_api
FeatureSet
p864
(dp865
g12
(dp866
S'crefhead'
p867
S'\xe0\xa4\x85\xe0\xa4\x95\xe0\xa5\x8d\xe0\xa4\x9f\xe0\xa5\x82\xe0\xa4\xac\xe0\xa4\xb0:i5'
p868
sS'name'
p869
S'\xe0\xa4\x85\xe0\xa4\x95\xe0\xa5\x8d\xe0\xa4\x9f\xe0\xa5\x82\xe0\xa4\xac\xe0\xa4\xb0'
p870
sS'af'
p871
S'\xe0\xa4\x85\xe0\xa4\x95\xe0\xa5\x8d\xe0\xa4\x9f\xe0\xa5\x82\xe0\xa4\xac\xe0\xa4\xb0,n,m,sg,3,o,0_\xe0\xa4\xae\xe0\xa5\x87\xe0\xa4\x82,0'
p872
sS'chunkid'
p873
S'NP2'
p874
sS'chunktype'
p875
S'head:NP2'
p876
sS'crefchainhead'
p877
S'i5:t3'
p878
sS'vpos'
p879
S'vib_2'
p880
sS'cref'
p881
S'i5%1:t3'
p882
sS'drel'
p883
S'k7t:VGF'
p884
ssbsg26
I00
sg27
I00
sg28
Nsg29
Nsg30
I1
sg31
I2
sg32
Nsg33
Nsg34
S'NNP'
p885
sg36
g864
sg37
I00
sba(issf_api
Word
p886
(dp887
g6
I00
sg7
V\u092e\u0947\u0902
p888
sg9
(issf_api
FeatureSet
p889
(dp890
g12
(dp891
S'name'
p892
S'\xe0\xa4\xae\xe0\xa5\x87\xe0\xa4\x82'
p893
sS'drel'
p894
S'lwg__psp:NP2'
p895
sS'chunktype'
p896
S'child:NP2'
p897
sS'af'
p898
S'\xe0\xa4\xae\xe0\xa5\x87\xe0\xa4\x82,psp,,,,,,'
p899
ssbsg26
I00
sg27
I00
sg28
Nsg29
Nsg30
I1
sg31
I2
sg32
Nsg33
Nsg34
S'PSP'
p900
sg36
g889
sg37
I00
sba(issf_api
Word
p901
(dp902
g6
I00
sg7
V\u091c\u093f\u0932\u0947
p903
sg9
(issf_api
FeatureSet
p904
(dp905
g12
(dp906
S'crefhead'
p907
S'\xe0\xa4\x9c\xe0\xa4\xbf\xe0\xa4\xb2\xe0\xa5\x87:i6'
p908
sS'name'
p909
S'\xe0\xa4\x9c\xe0\xa4\xbf\xe0\xa4\xb2\xe0\xa5\x87'
p910
sS'af'
p911
S'\xe0\xa4\x9c\xe0\xa4\xbf\xe0\xa4\xb2\xe0\xa4\xbe,n,m,sg,3,o,0_\xe0\xa4\xae\xe0\xa5\x87\xe0\xa4\x82,0'
p912
sS'chunkid'
p913
S'NP3'
p914
sS'creftype'
p915
S'Coreference-Identity:i2'
p916
sS'chunktype'
p917
S'head:NP3'
p918
sS'vpos'
p919
S'vib_2'
p920
sS'cref'
p921
S'i6%1:t1'
p922
sS'drel'
p923
S'k7p:VGF'
p924
ssbsg26
I00
sg27
I00
sg28
Nsg29
Nsg30
I2
sg31
I2
sg32
Nsg33
Nsg34
S'NN'
p925
sg36
g904
sg37
I00
sba(issf_api
Word
p926
(dp927
g6
I00
sg7
V\u092e\u0947\u0902
p928
sg9
(issf_api
FeatureSet
p929
(dp930
g12
(dp931
S'name'
p932
S'\xe0\xa4\xae\xe0\xa5\x87\xe0\xa4\x822'
p933
sS'drel'
p934
S'lwg__psp:NP3'
p935
sS'chunktype'
p936
S'child:NP3'
p937
sS'af'
p938
S'\xe0\xa4\xae\xe0\xa5\x87\xe0\xa4\x82,psp,,,,,,'
p939
ssbsg26
I00
sg27
I00
sg28
Nsg29
Nsg30
I2
sg31
I2
sg32
Nsg33
Nsg34
S'PSP'
p940
sg36
g929
sg37
I00
sba(issf_api
Word
p941
(dp942
g6
I00
sg7
V\u0915\u0930\u094d\u092c\u0940
p943
sg9
(issf_api
FeatureSet
p944
(dp945
g12
(dp946
S'crefhead'
p947
S'\xe0\xa4\x95\xe0\xa4\xb0\xe0\xa5\x8d\xe0\xa4\xac\xe0\xa5\x80:i7'
p948
sS'name'
p949
S'\xe0\xa4\x95\xe0\xa4\xb0\xe0\xa5\x8d\xe0\xa4\xac\xe0\xa5\x80'
p950
sS'af'
p951
S'\xe0\xa4\x95\xe0\xa4\xb0\xe0\xa5\x8d\xe0\xa4\xac\xe0\xa5\x80,n,m,sg,3,o,0,0'
p952
sS'chunkid'
p953
S'NP4'
p954
sS'chunktype'
p955
S'head:NP4'
p956
sS'crefchainhead'
p957
S'i7:t4'
p958
sS'cref'
p959
S'i7%1:t4'
p960
sS'drel'
p961
S'ccof:CCP'
p962
ssbsg26
I00
sg27
I00
sg28
Nsg29
Nsg30
I3
sg31
I2
sg32
Nsg33
Nsg34
S'NNP'
p963
sg36
g944
sg37
I00
sba(issf_api
Word
p964
(dp965
g6
I00
sg7
V\u0914\u0930
p966
sg9
(issf_api
FeatureSet
p967
(dp968
g12
(dp969
S'name'
p970
S'\xe0\xa4\x94\xe0\xa4\xb0'
p971
sS'chunkid'
p972
S'CCP'
p973
sS'drel'
p974
S'nmod:NP6'
p975
sS'chunktype'
p976
S'head:CCP'
p977
sS'af'
p978
S'\xe0\xa4\x94\xe0\xa4\xb0,avy,,,,,,'
p979
ssbsg26
I00
sg27
I00
sg28
Nsg29
Nsg30
I4
sg31
I2
sg32
Nsg33
Nsg34
S'CC'
p980
sg36
g967
sg37
I00
sba(issf_api
Word
p981
(dp982
g6
I00
sg7
V\u0926\u093f\u092e\u093e\u0938\u093e
p983
sg9
(issf_api
FeatureSet
p984
(dp985
g12
(dp986
S'crefhead'
p987
S'\xe0\xa4\xa6\xe0\xa4\xbf\xe0\xa4\xae\xe0\xa4\xbe\xe0\xa4\xb8\xe0\xa4\xbe:i8'
p988
sS'name'
p989
S'\xe0\xa4\xa6\xe0\xa4\xbf\xe0\xa4\xae\xe0\xa4\xbe\xe0\xa4\xb8\xe0\xa4\xbe'
p990
sS'af'
p991
S'\xe0\xa4\xa6\xe0\xa4\xbf\xe0\xa4\xae\xe0\xa4\xbe\xe0\xa4\xb8\xe0\xa4\xbe,n,m,sg,3,o,0,0'
p992
sS'chunkid'
p993
S'NP5'
p994
sS'chunktype'
p995
S'head:NP5'
p996
sS'crefchainhead'
p997
S'i8:t5'
p998
sS'cref'
p999
S'i8%1:t5'
p1000
sS'drel'
p1001
S'ccof:CCP'
p1002
ssbsg26
I00
sg27
I00
sg28
Nsg29
Nsg30
I5
sg31
I2
sg32
Nsg33
Nsg34
S'NNP'
p1003
sg36
g984
sg37
I00
sba(issf_api
Word
p1004
(dp1005
g6
I00
sg7
V\u091c\u0928\u091c\u093e\u0924\u093f\u092f\u094b\u0902
p1006
sg9
(issf_api
FeatureSet
p1007
(dp1008
g12
(dp1009
S'crefhead'
p1010
S'\xe0\xa4\x9c\xe0\xa4\xa8\xe0\xa4\x9c\xe0\xa4\xbe\xe0\xa4\xa4\xe0\xa4\xbf\xe0\xa4\xaf\xe0\xa5\x8b\xe0\xa4\x82:i9,\xe0\xa4\x9c\xe0\xa4\xa8\xe0\xa4\x9c\xe0\xa4\xbe\xe0\xa4\xa4\xe0\xa4\xbf\xe0\xa4\xaf\xe0\xa5\x8b\xe0\xa4\x82:i10'
p1011
sS'name'
p1012
S'\xe0\xa4\x9c\xe0\xa4\xa8\xe0\xa4\x9c\xe0\xa4\xbe\xe0\xa4\xa4\xe0\xa4\xbf\xe0\xa4\xaf\xe0\xa5\x8b\xe0\xa4\x82'
p1013
sS'af'
p1014
S'\xe0\xa4\x9c\xe0\xa4\xa8\xe0\xa4\x9c\xe0\xa4\xbe\xe0\xa4\xa4\xe0\xa4\xbf,n,f,pl,3,o,0_\xe0\xa4\x95\xe0\xa5\x87_\xe0\xa4\xac\xe0\xa5\x80\xe0\xa4\x9a,0'
p1015
sS'chunkid'
p1016
S'NP6'
p1017
sS'creftype'
p1018
S'Coreference-RPartOf:i8,Coreference-RPartOf:i7'
p1019
sS'chunktype'
p1020
S'head:NP6'
p1021
sS'vpos'
p1022
S'vib_2_3'
p1023
sS'cref'
p1024
S'i9%1:t5,i10%1:t4'
p1025
sS'drel'
p1026
S'k7:VGF'
p1027
ssbsg26
I00
sg27
I00
sg28
Nsg29
Nsg30
I6
sg31
I2
sg32
Nsg33
Nsg34
S'NN'
p1028
sg36
g1007
sg37
I00
sba(issf_api
Word
p1029
(dp1030
g6
I00
sg7
V\u0915\u0947
p1031
sg9
(issf_api
FeatureSet
p1032
(dp1033
g12
(dp1034
S'name'
p1035
S'\xe0\xa4\x95\xe0\xa5\x87'
p1036
sS'drel'
p1037
S'lwg__psp:NP6'
p1038
sS'chunktype'
p1039
S'child:NP6'
p1040
sS'af'
p1041
S'\xe0\xa4\x95\xe0\xa5\x87,psp,,,,,,'
p1042
ssbsg26
I00
sg27
I00
sg28
Nsg29
Nsg30
I6
sg31
I2
sg32
Nsg33
Nsg34
S'PSP'
p1043
sg36
g1032
sg37
I00
sba(issf_api
Word
p1044
(dp1045
g6
I00
sg7
V\u092c\u0940\u091a
p1046
sg9
(issf_api
FeatureSet
p1047
(dp1048
g12
(dp1049
S'name'
p1050
S'\xe0\xa4\xac\xe0\xa5\x80\xe0\xa4\x9a'
p1051
sS'drel'
p1052
S'lwg__psp:NP6'
p1053
sS'chunktype'
p1054
S'child:NP6'
p1055
sS'af'
p1056
S'\xe0\xa4\xac\xe0\xa5\x80\xe0\xa4\x9a,nst,m,sg,3,d,,'
p1057
ssbsg26
I00
sg27
I00
sg28
Nsg29
Nsg30
I6
sg31
I2
sg32
Nsg33
Nsg34
S'NST'
p1058
sg36
g1047
sg37
I00
sba(issf_api
Word
p1059
(dp1060
g6
I00
sg7
V\u0935\u094d\u092f\u093e\u092a\u0915
p1061
sg9
(issf_api
FeatureSet
p1062
(dp1063
g12
(dp1064
S'name'
p1065
S'\xe0\xa4\xb5\xe0\xa5\x8d\xe0\xa4\xaf\xe0\xa4\xbe\xe0\xa4\xaa\xe0\xa4\x95'
p1066
sS'drel'
p1067
S'nmod__adj:NP7'
p1068
sS'chunktype'
p1069
S'child:NP7'
p1070
sS'af'
p1071
S'\xe0\xa4\xb5\xe0\xa5\x8d\xe0\xa4\xaf\xe0\xa4\xbe\xe0\xa4\xaa\xe0\xa4\x95,adj,any,any,,o,,'
p1072
ssbsg26
I00
sg27
I00
sg28
Nsg29
Nsg30
I7
sg31
I2
sg32
Nsg33
Nsg34
S'JJ'
p1073
sg36
g1062
sg37
I00
sba(issf_api
Word
p1074
(dp1075
g6
I00
sg7
V\u0916\u0942\u0928\u0940
p1076
sg9
(issf_api
FeatureSet
p1077
(dp1078
g12
(dp1079
S'name'
p1080
S'\xe0\xa4\x96\xe0\xa5\x82\xe0\xa4\xa8\xe0\xa5\x80'
p1081
sS'drel'
p1082
S'nmod__adj:NP7'
p1083
sS'cref'
p1084
S'i11%0:t6'
p1085
sS'chunktype'
p1086
S'child:NP7'
p1087
sS'af'
p1088
S'\xe0\xa4\x96\xe0\xa5\x82\xe0\xa4\xa8\xe0\xa5\x80,adj,any,any,,o,,'
p1089
ssbsg26
I00
sg27
I00
sg28
Nsg29
Nsg30
I7
sg31
I2
sg32
Nsg33
Nsg34
S'JJ'
p1090
sg36
g1077
sg37
I00
sba(issf_api
Word
p1091
(dp1092
g6
I00
sg7
V\u0938\u0902\u0918\u0930\u094d\u0937
p1093
sg9
(issf_api
FeatureSet
p1094
(dp1095
g12
(dp1096
S'crefhead'
p1097
S'\xe0\xa4\xb8\xe0\xa4\x82\xe0\xa4\x98\xe0\xa4\xb0\xe0\xa5\x8d\xe0\xa4\xb7:i11'
p1098
sS'name'
p1099
S'\xe0\xa4\xb8\xe0\xa4\x82\xe0\xa4\x98\xe0\xa4\xb0\xe0\xa5\x8d\xe0\xa4\xb7'
p1100
sS'af'
p1101
S'\xe0\xa4\xb8\xe0\xa4\x82\xe0\xa4\x98\xe0\xa4\xb0\xe0\xa5\x8d\xe0\xa4\xb7,n,m,sg,3,o,0_\xe0\xa4\x95\xe0\xa4\xbe,0'
p1102
sS'chunkid'
p1103
S'NP7'
p1104
sS'chunktype'
p1105
S'head:NP7'
p1106
sS'crefchainhead'
p1107
S'i11:t6'
p1108
sS'vpos'
p1109
S'vib_4'
p1110
sS'cref'
p1111
S'i11%1:t6'
p1112
sS'drel'
p1113
S'r6:NP8'
p1114
ssbsg26
I00
sg27
I00
sg28
Nsg29
Nsg30
I7
sg31
I2
sg32
Nsg33
Nsg34
S'NN'
p1115
sg36
g1094
sg37
I00
sba(issf_api
Word
p1116
(dp1117
g6
I00
sg7
V\u0915\u0940
p1118
sg9
(issf_api
FeatureSet
p1119
(dp1120
g12
(dp1121
S'name'
p1122
S'\xe0\xa4\x95\xe0\xa5\x80'
p1123
sS'drel'
p1124
S'lwg__psp:NP7'
p1125
sS'chunktype'
p1126
S'child:NP7'
p1127
sS'af'
p1128
S'\xe0\xa4\x95\xe0\xa4\xbe,psp,f,sg,,d,,'
p1129
ssbsg26
I00
sg27
I00
sg28
Nsg29
Nsg30
I7
sg31
I2
sg32
Nsg33
Nsg34
S'PSP'
p1130
sg36
g1119
sg37
I00
sba(issf_api
Word
p1131
(dp1132
g6
I00
sg7
V\u092f\u093e\u0926
p1133
sg9
(issf_api
FeatureSet
p1134
(dp1135
g12
(dp1136
S'name'
p1137
S'\xe0\xa4\xaf\xe0\xa4\xbe\xe0\xa4\xa6'
p1138
sS'chunkid'
p1139
S'NP8'
p1140
sS'drel'
p1141
S'k2:VGF'
p1142
sS'chunktype'
p1143
S'head:NP8'
p1144
sS'af'
p1145
S'\xe0\xa4\xaf\xe0\xa4\xbe\xe0\xa4\xa6,n,f,sg,3,d,0,0'
p1146
ssbsg26
I00
sg27
I00
sg28
Nsg29
Nsg30
I8
sg31
I2
sg32
Nsg33
Nsg34
S'NN'
p1147
sg36
g1134
sg37
I00
sba(issf_api
Word
p1148
(dp1149
g6
I00
sg7
V\u0924\u093e\u091c\u093e
p1150
sg9
(issf_api
FeatureSet
p1151
(dp1152
g12
(dp1153
S'name'
p1154
S'\xe0\xa4\xa4\xe0\xa4\xbe\xe0\xa4\x9c\xe0\xa4\xbe'
p1155
sS'chunkid'
p1156
S'JJP'
p1157
sS'drel'
p1158
S'pof:VGF'
p1159
sS'chunktype'
p1160
S'head:JJP'
p1161
sS'af'
p1162
S'\xe0\xa4\xa4\xe0\xa4\xbe\xe0\xa4\x9c\xe0\xa4\xbe,adj,m,sg,,,,'
p1163
ssbsg26
I00
sg27
I00
sg28
Nsg29
Nsg30
I9
sg31
I2
sg32
Nsg33
Nsg34
S'JJ'
p1164
sg36
g1151
sg37
I00
sba(issf_api
Word
p1165
(dp1166
g6
I00
sg7
V\u0915\u0930
p1167
sg9
(issf_api
FeatureSet
p1168
(dp1169
g12
(dp1170
S'name'
p1171
S'\xe0\xa4\x95\xe0\xa4\xb0'
p1172
sS'af'
p1173
S'\xe0\xa4\x95\xe0\xa4\xb0,v,f,sg,3,,0_\xe0\xa4\xa6\xe0\xa5\x87+\xe0\xa4\xaf\xe0\xa4\xbe_\xe0\xa4\xb9\xe0\xa5\x88,0'
p1174
sS'chunkid'
p1175
S'VGF'
p1176
sS'chunktype'
p1177
S'head:VGF'
p1178
sS'voicetype'
p1179
S'active'
p1180
sS'vpos'
p1181
S'tam_2_3'
p1182
sS'stype'
p1183
S'declarative'
p1184
ssbsg26
I00
sg27
I00
sg28
Nsg29
Nsg30
I10
sg31
I2
sg32
Nsg33
Nsg34
S'VM'
p1185
sg36
g1168
sg37
I00
sba(issf_api
Word
p1186
(dp1187
g6
I00
sg7
V\u0926\u0940
p1188
sg9
(issf_api
FeatureSet
p1189
(dp1190
g12
(dp1191
S'name'
p1192
S'\xe0\xa4\xa6\xe0\xa5\x80'
p1193
sS'drel'
p1194
S'lwg__vaux:VGF'
p1195
sS'chunktype'
p1196
S'child:VGF'
p1197
sS'af'
p1198
S'\xe0\xa4\xa6\xe0\xa5\x87,v,f,sg,any,,\xe0\xa4\xaf\xe0\xa4\xbe,yA'
p1199
ssbsg26
I00
sg27
I00
sg28
Nsg29
Nsg30
I10
sg31
I2
sg32
Nsg33
Nsg34
S'VAUX'
p1200
sg36
g1189
sg37
I00
sba(issf_api
Word
p1201
(dp1202
g6
I00
sg7
V\u0939\u0948
p1203
sg9
(issf_api
FeatureSet
p1204
(dp1205
g12
(dp1206
S'name'
p1207
S'\xe0\xa4\xb9\xe0\xa5\x88'
p1208
sS'drel'
p1209
S'lwg__vaux:VGF'
p1210
sS'chunktype'
p1211
S'child:VGF'
p1212
sS'af'
p1213
S'\xe0\xa4\xb9\xe0\xa5\x88,v,any,sg,3,,\xe0\xa4\xb9\xe0\xa5\x88,hE'
p1214
ssbsg26
I00
sg27
I00
sg28
Nsg29
Nsg30
I10
sg31
I2
sg32
Nsg33
Nsg34
S'VAUX'
p1215
sg36
g1204
sg37
I00
sba(issf_api
Word
p1216
(dp1217
g6
I00
sg7
V\u0964
p1218
sg9
(issf_api
FeatureSet
p1219
(dp1220
g12
(dp1221
S'name'
p1222
S'\xe0\xa5\xa4'
p1223
sS'chunkid'
p1224
S'BLK'
p1225
sS'drel'
p1226
S'rsym:VGF'
p1227
sS'chunktype'
p1228
S'head:BLK'
p1229
sS'af'
p1230
S'\xe0\xa5\xa4,punc,,,,,,'
p1231
ssbsg26
I00
sg27
I00
sg28
Nsg29
Nsg30
I11
sg31
I2
sg32
Nsg33
Nsg34
S'SYM'
p1232
sg36
g1219
sg37
I00
sba(issf_api
Word
p1233
(dp1234
g6
I00
sg7
V\u0909\u0932\u094d\u0932\u0947\u0916\u0928\u0940\u092f
p1235
sg9
(issf_api
FeatureSet
p1236
(dp1237
g12
(dp1238
S'name'
p1239
S'\xe0\xa4\x89\xe0\xa4\xb2\xe0\xa5\x8d\xe0\xa4\xb2\xe0\xa5\x87\xe0\xa4\x96\xe0\xa4\xa8\xe0\xa5\x80\xe0\xa4\xaf'
p1240
sS'chunkid'
p1241
S'JJP'
p1242
sS'drel'
p1243
S'k1s:VGF'
p1244
sS'chunktype'
p1245
S'head:JJP'
p1246
sS'af'
p1247
S'\xe0\xa4\x89\xe0\xa4\xb2\xe0\xa5\x8d\xe0\xa4\xb2\xe0\xa5\x87\xe0\xa4\x96\xe0\xa4\xa8\xe0\xa5\x80\xe0\xa4\xaf,adj,any,any,,,,'
p1248
ssbsg26
I00
sg27
I00
sg28
Nsg29
Nsg30
I0
sg31
I3
sg32
Nsg33
Nsg34
S'JJ'
p1249
sg36
g1236
sg37
I00
sba(issf_api
Word
p1250
(dp1251
g6
I00
sg7
V\u0939\u0948
p1252
sg9
(issf_api
FeatureSet
p1253
(dp1254
g12
(dp1255
S'name'
p1256
S'\xe0\xa4\xb9\xe0\xa5\x88'
p1257
sS'af'
p1258
S'\xe0\xa4\xb9\xe0\xa5\x88,v,any,sg,3,,\xe0\xa4\xb9\xe0\xa5\x88,hE'
p1259
sS'chunkid'
p1260
S'VGF'
p1261
sS'chunktype'
p1262
S'head:VGF'
p1263
sS'voicetype'
p1264
S'active'
p1265
sS'stype'
p1266
S'declarative'
p1267
ssbsg26
I00
sg27
I00
sg28
Nsg29
Nsg30
I1
sg31
I3
sg32
Nsg33
Nsg34
S'VM'
p1268
sg36
g1253
sg37
I00
sba(issf_api
Word
p1269
(dp1270
g6
I00
sg7
V\u0915\u093f
p1271
sg9
(issf_api
FeatureSet
p1272
(dp1273
g12
(dp1274
S'name'
p1275
S'\xe0\xa4\x95\xe0\xa4\xbf'
p1276
sS'chunkid'
p1277
S'CCP'
p1278
sS'drel'
p1279
S'rs:NULL__NP'
p1280
sS'chunktype'
p1281
S'head:CCP'
p1282
sS'af'
p1283
S'\xe0\xa4\x95\xe0\xa4\xbf,avy,,,,,,'
p1284
ssbsg26
I00
sg27
I00
sg28
Nsg29
Nsg30
I2
sg31
I3
sg32
Nsg33
Nsg34
S'CC'
p1285
sg36
g1272
sg37
I00
sba(issf_api
Word
p1286
(dp1287
g6
I00
sg7
V\u0905\u0915\u094d\u0924\u0942\u092c\u0930
p1288
sg9
(issf_api
FeatureSet
p1289
(dp1290
g12
(dp1291
S'crefhead'
p1292
S'\xe0\xa4\x85\xe0\xa4\x95\xe0\xa5\x8d\xe0\xa4\xa4\xe0\xa5\x82\xe0\xa4\xac\xe0\xa4\xb0:i12'
p1293
sS'name'
p1294
S'\xe0\xa4\x85\xe0\xa4\x95\xe0\xa5\x8d\xe0\xa4\xa4\xe0\xa5\x82\xe0\xa4\xac\xe0\xa4\xb0'
p1295
sS'af'
p1296
S'\xe0\xa4\x85\xe0\xa4\x95\xe0\xa5\x8d\xe0\xa4\xa4\xe0\xa5\x82\xe0\xa4\xac\xe0\xa4\xb0,n,m,sg,3,o,0_\xe0\xa4\xae\xe0\xa5\x87\xe0\xa4\x82,0'
p1297
sS'chunkid'
p1298
S'NP'
p1299
sS'creftype'
p1300
S'Coreference-Identity:i5'
p1301
sS'chunktype'
p1302
S'head:NP'
p1303
sS'vpos'
p1304
S'vib_2'
p1305
sS'cref'
p1306
S'i12%1:t3'
p1307
sS'drel'
p1308
S'k7t:VGNF'
p1309
ssbsg26
I00
sg27
I00
sg28
Nsg29
Nsg30
I3
sg31
I3
sg32
Nsg33
Nsg34
S'NNP'
p1310
sg36
g1289
sg37
I00
sba(issf_api
Word
p1311
(dp1312
g6
I00
sg7
V\u092e\u0947\u0902
p1313
sg9
(issf_api
FeatureSet
p1314
(dp1315
g12
(dp1316
S'name'
p1317
S'\xe0\xa4\xae\xe0\xa5\x87\xe0\xa4\x82'
p1318
sS'drel'
p1319
S'lwg__psp:NP'
p1320
sS'chunktype'
p1321
S'child:NP'
p1322
sS'af'
p1323
S'\xe0\xa4\xae\xe0\xa5\x87\xe0\xa4\x82,psp,,,,,,'
p1324
ssbsg26
I00
sg27
I00
sg28
Nsg29
Nsg30
I3
sg31
I3
sg32
Nsg33
Nsg34
S'PSP'
p1325
sg36
g1314
sg37
I00
sba(issf_api
Word
p1326
(dp1327
g6
I00
sg7
V\u0915\u0908
p1328
sg9
(issf_api
FeatureSet
p1329
(dp1330
g12
(dp1331
S'name'
p1332
S'\xe0\xa4\x95\xe0\xa4\x88'
p1333
sS'drel'
p1334
S'nmod__adj:NP2'
p1335
sS'chunktype'
p1336
S'child:NP2'
p1337
sS'af'
p1338
S'\xe0\xa4\x95\xe0\xa4\x88,avy,,,,,,'
p1339
ssbsg26
I00
sg27
I00
sg28
Nsg29
Nsg30
I4
sg31
I3
sg32
Nsg33
Nsg34
S'QF'
p1340
sg36
g1329
sg37
I00
sba(issf_api
Word
p1341
(dp1342
g6
I00
sg7
V\u0926\u093f\u0928\u094b\u0902
p1343
sg9
(issf_api
FeatureSet
p1344
(dp1345
g12
(dp1346
S'name'
p1347
S'\xe0\xa4\xa6\xe0\xa4\xbf\xe0\xa4\xa8\xe0\xa5\x8b\xe0\xa4\x82'
p1348
sS'af'
p1349
S'\xe0\xa4\xa6\xe0\xa4\xbf\xe0\xa4\xa8,n,m,pl,3,o,0_\xe0\xa4\xa4\xe0\xa4\x95,0'
p1350
sS'chunkid'
p1351
S'NP2'
p1352
sS'drel'
p1353
S'k7t:VGNF'
p1354
sS'vpos'
p1355
S'vib_3'
p1356
sS'chunktype'
p1357
S'head:NP2'
p1358
ssbsg26
I00
sg27
I00
sg28
Nsg29
Nsg30
I4
sg31
I3
sg32
Nsg33
Nsg34
S'NN'
p1359
sg36
g1344
sg37
I00
sba(issf_api
Word
p1360
(dp1361
g6
I00
sg7
V\u0924\u0915
p1362
sg9
(issf_api
FeatureSet
p1363
(dp1364
g12
(dp1365
S'name'
p1366
S'\xe0\xa4\xa4\xe0\xa4\x95'
p1367
sS'drel'
p1368
S'lwg__psp:NP2'
p1369
sS'chunktype'
p1370
S'child:NP2'
p1371
sS'af'
p1372
S'\xe0\xa4\xa4\xe0\xa4\x95,psp,,,,,,'
p1373
ssbsg26
I00
sg27
I00
sg28
Nsg29
Nsg30
I4
sg31
I3
sg32
Nsg33
Nsg34
S'PSP'
p1374
sg36
g1363
sg37
I00
sba(issf_api
Word
p1375
(dp1376
g6
I00
sg7
V\u091a\u0932\u0947
p1377
sg9
(issf_api
FeatureSet
p1378
(dp1379
g12
(dp1380
S'name'
p1381
S'\xe0\xa4\x9a\xe0\xa4\xb2\xe0\xa5\x87'
p1382
sS'chunkid'
p1383
S'VGNF'
p1384
sS'drel'
p1385
S'nmod__k1inv:NP3'
p1386
sS'chunktype'
p1387
S'head:VGNF'
p1388
sS'af'
p1389
S'\xe0\xa4\x9a\xe0\xa4\xb2,v,any,sg,3,,\xe0\xa4\xaf\xe0\xa4\xbe,yA'
p1390
ssbsg26
I00
sg27
I00
sg28
Nsg29
Nsg30
I5
sg31
I3
sg32
Nsg33
Nsg34
S'VM'
p1391
sg36
g1378
sg37
I00
sba(issf_api
Word
p1392
(dp1393
g6
I00
sg7
V\u0938\u0902\u0918\u0930\u094d\u0937
p1394
sg9
(issf_api
FeatureSet
p1395
(dp1396
g12
(dp1397
S'crefhead'
p1398
S'\xe0\xa4\xb8\xe0\xa4\x82\xe0\xa4\x98\xe0\xa4\xb0\xe0\xa5\x8d\xe0\xa4\xb7:i13'
p1399
sS'name'
p1400
S'\xe0\xa4\xb8\xe0\xa4\x82\xe0\xa4\x98\xe0\xa4\xb0\xe0\xa5\x8d\xe0\xa4\xb7'
p1401
sS'af'
p1402
S'\xe0\xa4\xb8\xe0\xa4\x82\xe0\xa4\x98\xe0\xa4\xb0\xe0\xa5\x8d\xe0\xa4\xb7,n,m,sg,3,o,0_\xe0\xa4\xae\xe0\xa5\x87\xe0\xa4\x82,0'
p1403
sS'chunkid'
p1404
S'NP3'
p1405
sS'creftype'
p1406
S'Coreference-Identity:i11'
p1407
sS'chunktype'
p1408
S'head:NP3'
p1409
sS'vpos'
p1410
S'vib_2'
p1411
sS'cref'
p1412
S'i13%1:t6'
p1413
sS'drel'
p1414
S'k7:VGF2'
p1415
ssbsg26
I00
sg27
I00
sg28
Nsg29
Nsg30
I6
sg31
I3
sg32
Nsg33
Nsg34
S'NN'
p1416
sg36
g1395
sg37
I00
sba(issf_api
Word
p1417
(dp1418
g6
I00
sg7
V\u092e\u0947\u0902
p1419
sg9
(issf_api
FeatureSet
p1420
(dp1421
g12
(dp1422
S'name'
p1423
S'\xe0\xa4\xae\xe0\xa5\x87\xe0\xa4\x822'
p1424
sS'drel'
p1425
S'lwg__psp:NP3'
p1426
sS'chunktype'
p1427
S'child:NP3'
p1428
sS'af'
p1429
S'\xe0\xa4\xae\xe0\xa5\x87\xe0\xa4\x82,psp,,,,,,'
p1430
ssbsg26
I00
sg27
I00
sg28
Nsg29
Nsg30
I6
sg31
I3
sg32
Nsg33
Nsg34
S'PSP'
p1431
sg36
g1420
sg37
I00
sba(issf_api
Word
p1432
(dp1433
g6
I00
sg7
V\u096f\u0966
p1434
sg9
(issf_api
FeatureSet
p1435
(dp1436
g12
(dp1437
S'name'
p1438
S'\xe0\xa5\xaf\xe0\xa5\xa6'
p1439
sS'af'
p1440
S'\xe0\xa5\xaf\xe0\xa5\xa6,num,any,any,,o,0_\xe0\xa4\xb8\xe0\xa5\x87,'
p1441
sS'chunkid'
p1442
S'NP4'
p1443
sS'drel'
p1444
S'jjmod:JJP2'
p1445
sS'vpos'
p1446
g574
sS'chunktype'
p1447
S'head:NP4'
p1448
ssbsg26
I00
sg27
I00
sg28
Nsg29
Nsg30
I7
sg31
I3
sg32
Nsg33
Nsg34
S'QC'
p1449
sg36
g1435
sg37
I00
sba(issf_api
Word
p1450
(dp1451
g6
I00
sg7
V\u0938\u0947
p1452
sg9
(issf_api
FeatureSet
p1453
(dp1454
g12
(dp1455
S'name'
p1456
S'\xe0\xa4\xb8\xe0\xa5\x87'
p1457
sS'drel'
p1458
S'lwg__psp:NP4'
p1459
sS'chunktype'
p1460
S'child:NP4'
p1461
sS'af'
p1462
S'\xe0\xa4\xb8\xe0\xa5\x87,psp,,,,,,'
p1463
ssbsg26
I00
sg27
I00
sg28
Nsg29
Nsg30
I7
sg31
I3
sg32
Nsg33
Nsg34
S'PSP'
p1464
sg36
g1453
sg37
I00
sba(issf_api
Word
p1465
(dp1466
g6
I00
sg7
V\u0905\u0927\u093f\u0915
p1467
sg9
(issf_api
FeatureSet
p1468
(dp1469
g12
(dp1470
S'name'
p1471
S'\xe0\xa4\x85\xe0\xa4\xa7\xe0\xa4\xbf\xe0\xa4\x95'
p1472
sS'chunkid'
p1473
S'JJP2'
p1474
sS'drel'
p1475
S'nmod:NP5'
p1476
sS'chunktype'
p1477
S'head:JJP2'
p1478
sS'af'
p1479
S'\xe0\xa4\x85\xe0\xa4\xa7\xe0\xa4\xbf\xe0\xa4\x95,avy,,,,,,'
p1480
ssbsg26
I00
sg27
I00
sg28
Nsg29
Nsg30
I8
sg31
I3
sg32
Nsg33
Nsg34
S'QF'
p1481
sg36
g1468
sg37
I00
sba(issf_api
Word
p1482
(dp1483
g6
I00
sg7
V\u0932\u094b\u0917\u094b\u0902
p1484
sg9
(issf_api
FeatureSet
p1485
(dp1486
g12
(dp1487
S'name'
p1488
S'\xe0\xa4\xb2\xe0\xa5\x8b\xe0\xa4\x97\xe0\xa5\x8b\xe0\xa4\x82'
p1489
sS'af'
p1490
S'\xe0\xa4\xb2\xe0\xa5\x8b\xe0\xa4\x97,n,m,pl,3,o,0_\xe0\xa4\x95\xe0\xa4\xbe,0'
p1491
sS'chunkid'
p1492
S'NP5'
p1493
sS'drel'
p1494
S'r6-k1:NP6'
p1495
sS'vpos'
p1496
S'vib_2'
p1497
sS'chunktype'
p1498
S'head:NP5'
p1499
ssbsg26
I00
sg27
I00
sg28
Nsg29
Nsg30
I9
sg31
I3
sg32
Nsg33
Nsg34
S'NN'
p1500
sg36
g1485
sg37
I00
sba(issf_api
Word
p1501
(dp1502
g6
I00
sg7
V\u0915\u0940
p1503
sg9
(issf_api
FeatureSet
p1504
(dp1505
g12
(dp1506
S'name'
p1507
S'\xe0\xa4\x95\xe0\xa5\x80'
p1508
sS'drel'
p1509
S'lwg__psp:NP5'
p1510
sS'chunktype'
p1511
S'child:NP5'
p1512
sS'af'
p1513
S'\xe0\xa4\x95\xe0\xa4\xbe,psp,f,sg,,d,,'
p1514
ssbsg26
I00
sg27
I00
sg28
Nsg29
Nsg30
I9
sg31
I3
sg32
Nsg33
Nsg34
S'PSP'
p1515
sg36
g1504
sg37
I00
sba(issf_api
Word
p1516
(dp1517
g6
I00
sg7
V\u092e\u094c\u0924
p1518
sg9
(issf_api
FeatureSet
p1519
(dp1520
g12
(dp1521
S'name'
p1522
S'\xe0\xa4\xae\xe0\xa5\x8c\xe0\xa4\xa4'
p1523
sS'chunkid'
p1524
S'NP6'
p1525
sS'drel'
p1526
S'pof:VGF2'
p1527
sS'chunktype'
p1528
S'head:NP6'
p1529
sS'af'
p1530
S'\xe0\xa4\xae\xe0\xa5\x8c\xe0\xa4\xa4,n,f,sg,3,d,0,0'
p1531
ssbsg26
I00
sg27
I00
sg28
Nsg29
Nsg30
I10
sg31
I3
sg32
Nsg33
Nsg34
S'NN'
p1532
sg36
g1519
sg37
I00
sba(issf_api
Word
p1533
(dp1534
g6
I00
sg7
V\u0939\u094b
p1535
sg9
(issf_api
FeatureSet
p1536
(dp1537
g12
(dp1538
S'name'
p1539
S'\xe0\xa4\xb9\xe0\xa5\x8b'
p1540
sS'af'
p1541
S'\xe0\xa4\xb9\xe0\xa5\x8b,v,f,sg,any,,0_\xe0\xa4\x9c\xe0\xa4\xbe+\xe0\xa4\xaf\xe0\xa4\xbe\xe0\xa5\xa7_\xe0\xa4\xa5\xe0\xa4\xbe,0'
p1542
sS'chunkid'
p1543
S'VGF2'
p1544
sS'drel'
p1545
S'ccof:CCP2'
p1546
sS'chunktype'
p1547
S'head:VGF2'
p1548
sS'voicetype'
p1549
S'active'
p1550
sS'vpos'
p1551
S'tam_2_3'
p1552
sS'stype'
p1553
S'declarative'
p1554
ssbsg26
I00
sg27
I00
sg28
Nsg29
Nsg30
I11
sg31
I3
sg32
Nsg33
Nsg34
S'VM'
p1555
sg36
g1536
sg37
I00
sba(issf_api
Word
p1556
(dp1557
g6
I00
sg7
V\u0917\u0908
p1558
sg9
(issf_api
FeatureSet
p1559
(dp1560
g12
(dp1561
S'name'
p1562
S'\xe0\xa4\x97\xe0\xa4\x88'
p1563
sS'drel'
p1564
S'lwg__vaux:VGF2'
p1565
sS'chunktype'
p1566
S'child:VGF2'
p1567
sS'af'
p1568
S'\xe0\xa4\x9c\xe0\xa4\xbe,v,f,sg,any,,\xe0\xa4\xaf\xe0\xa4\xbe\xe0\xa5\xa7,yA1'
p1569
ssbsg26
I00
sg27
I00
sg28
Nsg29
Nsg30
I11
sg31
I3
sg32
Nsg33
Nsg34
S'VAUX'
p1570
sg36
g1559
sg37
I00
sba(issf_api
Word
p1571
(dp1572
g6
I00
sg7
V\u0925\u0940
p1573
sg9
(issf_api
FeatureSet
p1574
(dp1575
g12
(dp1576
S'name'
p1577
S'\xe0\xa4\xa5\xe0\xa5\x80'
p1578
sS'drel'
p1579
S'lwg__vaux:VGF2'
p1580
sS'chunktype'
p1581
S'child:VGF2'
p1582
sS'af'
p1583
S'\xe0\xa4\xa5\xe0\xa4\xbe,v,f,sg,any,,\xe0\xa4\xa5\xe0\xa4\xbe,WA'
p1584
ssbsg26
I00
sg27
I00
sg28
Nsg29
Nsg30
I11
sg31
I3
sg32
Nsg33
Nsg34
S'VAUX'
p1585
sg36
g1574
sg37
I00
sba(issf_api
Word
p1586
(dp1587
g6
I00
sg7
V\u0914\u0930
p1588
sg9
(issf_api
FeatureSet
p1589
(dp1590
g12
(dp1591
S'name'
p1592
S'\xe0\xa4\x94\xe0\xa4\xb0'
p1593
sS'chunkid'
p1594
S'CCP2'
p1595
sS'drel'
p1596
S'ccof:CCP'
p1597
sS'chunktype'
p1598
S'head:CCP2'
p1599
sS'af'
p1600
S'\xe0\xa4\x94\xe0\xa4\xb0,avy,,,,,,'
p1601
ssbsg26
I00
sg27
I00
sg28
Nsg29
Nsg30
I12
sg31
I3
sg32
Nsg33
Nsg34
S'CC'
p1602
sg36
g1589
sg37
I00
sba(issf_api
Word
p1603
(dp1604
g6
I00
sg7
V\u096a\u096b
p1605
sg9
(issf_api
FeatureSet
p1606
(dp1607
g12
(dp1608
S'name'
p1609
S'\xe0\xa5\xaa\xe0\xa5\xab'
p1610
sS'af'
p1611
S'\xe0\xa5\xaa\xe0\xa5\xab,num,any,any,,any,0_\xe0\xa4\xb8\xe0\xa5\x87,'
p1612
sS'chunkid'
p1613
S'NP7'
p1614
sS'drel'
p1615
S'jjmod:JJP4'
p1616
sS'chunktype'
p1617
S'head:NP7'
p1618
sS'vpos'
p1619
S'3'
p1620
sS'cref'
p1621
S'i14%0:t7'
p1622
ssbsg26
I00
sg27
I00
sg28
Nsg29
Nsg30
I13
sg31
I3
sg32
Nsg33
Nsg34
S'QCC'
p1623
sg36
g1606
sg37
I00
sba(issf_api
Word
p1624
(dp1625
g6
I00
sg7
V\u0939\u091c\u093e\u0930
p1626
sg9
(issf_api
FeatureSet
p1627
(dp1628
g12
(dp1629
S'name'
p1630
S'\xe0\xa4\xb9\xe0\xa4\x9c\xe0\xa4\xbe\xe0\xa4\xb0'
p1631
sS'drel'
p1632
S'ccof:NP7'
p1633
sS'cref'
p1634
S'i14%0:t7'
p1635
sS'chunktype'
p1636
S'child:NP7'
p1637
sS'af'
p1638
S'\xe0\xa4\xb9\xe0\xa4\x9c\xe0\xa4\xbe\xe0\xa4\xb0,num,any,any,,o,,'
p1639
ssbsg26
I00
sg27
I00
sg28
Nsg29
Nsg30
I13
sg31
I3
sg32
Nsg33
Nsg34
S'QC'
p1640
sg36
g1627
sg37
I00
sba(issf_api
Word
p1641
(dp1642
g6
I00
sg7
V\u0938\u0947
p1643
sg9
(issf_api
FeatureSet
p1644
(dp1645
g12
(dp1646
S'name'
p1647
S'\xe0\xa4\xb8\xe0\xa5\x872'
p1648
sS'drel'
p1649
S'ccof:NP7'
p1650
sS'cref'
p1651
S'i14%0:t7'
p1652
sS'chunktype'
p1653
S'child:NP7'
p1654
sS'af'
p1655
S'\xe0\xa4\xb8\xe0\xa5\x87,psp,,,,,,'
p1656
ssbsg26
I00
sg27
I00
sg28
Nsg29
Nsg30
I13
sg31
I3
sg32
Nsg33
Nsg34
S'PSP'
p1657
sg36
g1644
sg37
I00
sba(issf_api
Word
p1658
(dp1659
g6
I00
sg7
V\u0905\u0927\u093f\u0915
p1660
sg9
(issf_api
FeatureSet
p1661
(dp1662
g12
(dp1663
S'name'
p1664
S'\xe0\xa4\x85\xe0\xa4\xa7\xe0\xa4\xbf\xe0\xa4\x952'
p1665
sS'af'
p1666
S'\xe0\xa4\x85\xe0\xa4\xa7\xe0\xa4\xbf\xe0\xa4\x95,avy,,,,,,'
p1667
sS'chunkid'
p1668
S'JJP3'
p1669
sS'drel'
p1670
S'nmod:NP8'
p1671
sS'chunktype'
p1672
S'head:JJP3'
p1673
sS'cref'
p1674
S'i14%0:t7'
p1675
ssbsg26
I00
sg27
I00
sg28
Nsg29
Nsg30
I14
sg31
I3
sg32
Nsg33
Nsg34
S'QF'
p1676
sg36
g1661
sg37
I00
sba(issf_api
Word
p1677
(dp1678
g6
I00
sg7
V\u0932\u094b\u0917
p1679
sg9
(issf_api
FeatureSet
p1680
(dp1681
g12
(dp1682
S'crefhead'
p1683
S'\xe0\xa4\xb2\xe0\xa5\x8b\xe0\xa4\x97:i14'
p1684
sS'name'
p1685
S'\xe0\xa4\xb2\xe0\xa5\x8b\xe0\xa4\x97'
p1686
sS'af'
p1687
S'\xe0\xa4\xb2\xe0\xa5\x8b\xe0\xa4\x97,n,m,pl,3,d,0,0'
p1688
sS'chunkid'
p1689
S'NP8'
p1690
sS'chunktype'
p1691
S'head:NP8'
p1692
sS'crefchainhead'
p1693
S'i14:t7'
p1694
sS'cref'
p1695
S'i14%1:t7'
p1696
sS'drel'
p1697
S'k1:VGF3'
p1698
ssbsg26
I00
sg27
I00
sg28
Nsg29
Nsg30
I15
sg31
I3
sg32
Nsg33
Nsg34
S'NN'
p1699
sg36
g1680
sg37
I00
sba(issf_api
Word
p1700
(dp1701
g6
I00
sg7
V\u0935\u093f\u0938\u094d\u0925\u093e\u092a\u093f\u0924
p1702
sg9
(issf_api
FeatureSet
p1703
(dp1704
g12
(dp1705
S'name'
p1706
S'\xe0\xa4\xb5\xe0\xa4\xbf\xe0\xa4\xb8\xe0\xa5\x8d\xe0\xa4\xa5\xe0\xa4\xbe\xe0\xa4\xaa\xe0\xa4\xbf\xe0\xa4\xa4'
p1707
sS'chunkid'
p1708
S'JJP4'
p1709
sS'drel'
p1710
S'pof:VGF3'
p1711
sS'chunktype'
p1712
S'head:JJP4'
p1713
sS'af'
p1714
S'\xe0\xa4\xb5\xe0\xa4\xbf\xe0\xa4\xb8\xe0\xa5\x8d\xe0\xa4\xa5\xe0\xa4\xbe\xe0\xa4\xaa\xe0\xa4\xbf\xe0\xa4\xa4,adj,any,any,,,,'
p1715
ssbsg26
I00
sg27
I00
sg28
Nsg29
Nsg30
I16
sg31
I3
sg32
Nsg33
Nsg34
S'JJ'
p1716
sg36
g1703
sg37
I00
sba(issf_api
Word
p1717
(dp1718
g6
I00
sg7
V\u0939\u094b
p1719
sg9
(issf_api
FeatureSet
p1720
(dp1721
g12
(dp1722
S'name'
p1723
S'\xe0\xa4\xb9\xe0\xa5\x8b2'
p1724
sS'af'
p1725
S'\xe0\xa4\xb9\xe0\xa5\x8b,v,m,pl,any,,0_\xe0\xa4\x9c\xe0\xa4\xbe+\xe0\xa4\xaf\xe0\xa4\xbe\xe0\xa5\xa7_\xe0\xa4\xa5\xe0\xa4\xbe,'
p1726
sS'chunkid'
p1727
S'VGF3'
p1728
sS'drel'
p1729
S'ccof:CCP2'
p1730
sS'chunktype'
p1731
S'head:VGF3'
p1732
sS'voicetype'
p1733
S'active'
p1734
sS'vpos'
p1735
S'tam_2_3'
p1736
sS'stype'
p1737
S'declarative'
p1738
ssbsg26
I00
sg27
I00
sg28
Nsg29
Nsg30
I17
sg31
I3
sg32
Nsg33
Nsg34
S'VM'
p1739
sg36
g1720
sg37
I00
sba(issf_api
Word
p1740
(dp1741
g6
I00
sg7
V\u0917\u090f
p1742
sg9
(issf_api
FeatureSet
p1743
(dp1744
g12
(dp1745
S'name'
p1746
S'\xe0\xa4\x97\xe0\xa4\x8f'
p1747
sS'drel'
p1748
S'lwg__vaux:VGF3'
p1749
sS'chunktype'
p1750
S'child:VGF3'
p1751
sS'af'
p1752
S'\xe0\xa4\x9c\xe0\xa4\xbe,v,m,pl,any,,\xe0\xa4\xaf\xe0\xa4\xbe\xe0\xa5\xa7,yA1'
p1753
ssbsg26
I00
sg27
I00
sg28
Nsg29
Nsg30
I17
sg31
I3
sg32
Nsg33
Nsg34
S'VAUX'
p1754
sg36
g1743
sg37
I00
sba(issf_api
Word
p1755
(dp1756
g6
I00
sg7
V\u0925\u0947
p1757
sg9
(issf_api
FeatureSet
p1758
(dp1759
g12
(dp1760
S'name'
p1761
S'\xe0\xa4\xa5\xe0\xa5\x87'
p1762
sS'drel'
p1763
S'lwg__vaux:VGF3'
p1764
sS'chunktype'
p1765
S'child:VGF3'
p1766
sS'af'
p1767
S'\xe0\xa4\xa5\xe0\xa4\xbe,v,m,pl,any,,\xe0\xa4\xa5\xe0\xa4\xbe,WA'
p1768
ssbsg26
I00
sg27
I00
sg28
Nsg29
Nsg30
I17
sg31
I3
sg32
Nsg33
Nsg34
S'VAUX'
p1769
sg36
g1758
sg37
I00
sba(issf_api
Word
p1770
(dp1771
g6
I00
sg7
V\u0964
p1772
sg9
(issf_api
FeatureSet
p1773
(dp1774
g12
(dp1775
S'name'
p1776
S'\xe0\xa5\xa4'
p1777
sS'chunkid'
p1778
S'BLK'
p1779
sS'drel'
p1780
S'rsym:VGF'
p1781
sS'chunktype'
p1782
S'head:BLK'
p1783
sS'af'
p1784
S'\xe0\xa5\xa4,punc,,,,,,'
p1785
ssbsg26
I00
sg27
I00
sg28
Nsg29
Nsg30
I18
sg31
I3
sg32
Nsg33
Nsg34
S'SYM'
p1786
sg36
g1773
sg37
I00
sba(issf_api
Word
p1787
(dp1788
g6
I00
sg7
V\u0905\u092d\u0940
p1789
sg9
(issf_api
FeatureSet
p1790
(dp1791
g12
(dp1792
S'crefhead'
p1793
S'\xe0\xa4\x85\xe0\xa4\xad\xe0\xa5\x80:i15'
p1794
sS'name'
p1795
S'\xe0\xa4\x85\xe0\xa4\xad\xe0\xa5\x80'
p1796
sS'af'
p1797
S'\xe0\xa4\x85\xe0\xa4\xad\xe0\xa5\x80,pn,,,,d,,'
p1798
sS'chunkid'
p1799
S'NP'
p1800
sS'creftype'
p1801
S'anaphora-?:i15'
p1802
sS'chunktype'
p1803
S'head:NP'
p1804
sS'crefchainhead'
p1805
S'i15:t8'
p1806
sS'cref'
p1807
S'i15%1:t8'
p1808
sS'drel'
p1809
S'k7t:VGF'
p1810
ssbsg26
I00
sg27
I00
sg28
Nsg29
Nsg30
I0
sg31
I4
sg32
Nsg33
Nsg34
S'PRP'
p1811
sg36
g1790
sg37
I00
sba(issf_api
Word
p1812
(dp1813
g6
I00
sg7
V\u092d\u0940
p1814
sg9
(issf_api
FeatureSet
p1815
(dp1816
g12
(dp1817
S'name'
p1818
S'\xe0\xa4\xad\xe0\xa5\x80'
p1819
sS'drel'
p1820
S'lwg__rp:NP'
p1821
sS'chunktype'
p1822
S'child:NP'
p1823
sS'af'
p1824
S'\xe0\xa4\xad\xe0\xa5\x80,avy,,,,,,'
p1825
ssbsg26
I00
sg27
I00
sg28
Nsg29
Nsg30
I0
sg31
I4
sg32
Nsg33
Nsg34
S'RP'
p1826
sg36
g1815
sg37
I00
sba(issf_api
Word
p1827
(dp1828
g6
I00
sg7
V\u0907\u0928\u092e\u0947\u0902
p1829
sg9
(issf_api
FeatureSet
p1830
(dp1831
g12
(dp1832
S'crefhead'
p1833
S'\xe0\xa4\x87\xe0\xa4\xa8\xe0\xa4\xae\xe0\xa5\x87\xe0\xa4\x82:i16'
p1834
sS'name'
p1835
S'\xe0\xa4\x87\xe0\xa4\xa8\xe0\xa4\xae\xe0\xa5\x87\xe0\xa4\x82'
p1836
sS'af'
p1837
S'\xe0\xa4\xaf\xe0\xa4\xb9,pn,any,pl,3,o,0_\xe0\xa4\xb8\xe0\xa5\x87,meM'
p1838
sS'chunkid'
p1839
S'NP2'
p1840
sS'creftype'
p1841
S'Anaphora-C:i14'
p1842
sS'chunktype'
p1843
S'head:NP2'
p1844
sS'vpos'
p1845
S'vib_2'
p1846
sS'cref'
p1847
S'i16%1:t7'
p1848
sS'drel'
p1849
S'k7:VGF'
p1850
ssbsg26
I00
sg27
I00
sg28
Nsg29
Nsg30
I1
sg31
I4
sg32
Nsg33
Nsg34
S'PRP'
p1851
sg36
g1830
sg37
I00
sba(issf_api
Word
p1852
(dp1853
g6
I00
sg7
V\u0938\u0947
p1854
sg9
(issf_api
FeatureSet
p1855
(dp1856
g12
(dp1857
S'name'
p1858
S'\xe0\xa4\xb8\xe0\xa5\x87'
p1859
sS'drel'
p1860
S'lwg__psp:NP2'
p1861
sS'chunktype'
p1862
S'child:NP2'
p1863
sS'af'
p1864
S'\xe0\xa4\xb8\xe0\xa5\x87,psp,,,,,,'
p1865
ssbsg26
I00
sg27
I00
sg28
Nsg29
Nsg30
I1
sg31
I4
sg32
Nsg33
Nsg34
S'PSP'
p1866
sg36
g1855
sg37
I00
sba(issf_api
Word
p1867
(dp1868
g6
I00
sg7
V\u0915\u0908
p1869
sg9
(issf_api
FeatureSet
p1870
(dp1871
g12
(dp1872
S'name'
p1873
S'\xe0\xa4\x95\xe0\xa4\x88'
p1874
sS'drel'
p1875
S'nmod__adj:NP3'
p1876
sS'chunktype'
p1877
S'child:NP3'
p1878
sS'af'
p1879
S'\xe0\xa4\x95\xe0\xa4\x88,avy,,,,,,'
p1880
ssbsg26
I00
sg27
I00
sg28
Nsg29
Nsg30
I2
sg31
I4
sg32
Nsg33
Nsg34
S'QF'
p1881
sg36
g1870
sg37
I00
sba(issf_api
Word
p1882
(dp1883
g6
I00
sg7
V\u0936\u0930\u0923\u093e\u0930\u094d\u0925\u0940
p1884
sg9
(issf_api
FeatureSet
p1885
(dp1886
g12
(dp1887
S'name'
p1888
S'\xe0\xa4\xb6\xe0\xa4\xb0\xe0\xa4\xa3\xe0\xa4\xbe\xe0\xa4\xb0\xe0\xa5\x8d\xe0\xa4\xa5\xe0\xa5\x80'
p1889
sS'chunkid'
p1890
S'NP3'
p1891
sS'drel'
p1892
S'k1:VGF'
p1893
sS'chunktype'
p1894
S'head:NP3'
p1895
sS'af'
p1896
S'\xe0\xa4\xb6\xe0\xa4\xb0\xe0\xa4\xa3\xe0\xa4\xbe\xe0\xa4\xb0\xe0\xa5\x8d\xe0\xa4\xa5\xe0\xa5\x80,n,m,pl,3,d,0,0'
p1897
ssbsg26
I00
sg27
I00
sg28
Nsg29
Nsg30
I2
sg31
I4
sg32
Nsg33
Nsg34
S'NN'
p1898
sg36
g1885
sg37
I00
sba(issf_api
Word
p1899
(dp1900
g6
I00
sg7
V\u0936\u093f\u0935\u093f\u0930\u094b\u0902
p1901
sg9
(issf_api
FeatureSet
p1902
(dp1903
g12
(dp1904
S'name'
p1905
S'\xe0\xa4\xb6\xe0\xa4\xbf\xe0\xa4\xb5\xe0\xa4\xbf\xe0\xa4\xb0\xe0\xa5\x8b\xe0\xa4\x82'
p1906
sS'af'
p1907
S'\xe0\xa4\xb6\xe0\xa4\xbf\xe0\xa4\xb5\xe0\xa4\xbf\xe0\xa4\xb0,n,m,pl,3,o,0_\xe0\xa4\xae\xe0\xa5\x87\xe0\xa4\x82,0'
p1908
sS'chunkid'
p1909
S'NP4'
p1910
sS'drel'
p1911
S'k7p:VGF'
p1912
sS'vpos'
p1913
S'vib_2'
p1914
sS'chunktype'
p1915
S'head:NP4'
p1916
ssbsg26
I00
sg27
I00
sg28
Nsg29
Nsg30
I3
sg31
I4
sg32
Nsg33
Nsg34
S'NN'
p1917
sg36
g1902
sg37
I00
sba(issf_api
Word
p1918
(dp1919
g6
I00
sg7
V\u092e\u0947\u0902
p1920
sg9
(issf_api
FeatureSet
p1921
(dp1922
g12
(dp1923
S'name'
p1924
S'\xe0\xa4\xae\xe0\xa5\x87\xe0\xa4\x82'
p1925
sS'drel'
p1926
S'lwg__psp:NP4'
p1927
sS'chunktype'
p1928
S'child:NP4'
p1929
sS'af'
p1930
S'\xe0\xa4\xae\xe0\xa5\x87\xe0\xa4\x82,psp,,,,,,'
p1931
ssbsg26
I00
sg27
I00
sg28
Nsg29
Nsg30
I3
sg31
I4
sg32
Nsg33
Nsg34
S'PSP'
p1932
sg36
g1921
sg37
I00
sba(issf_api
Word
p1933
(dp1934
g6
I00
sg7
V\u092a\u0928\u093e\u0939
p1935
sg9
(issf_api
FeatureSet
p1936
(dp1937
g12
(dp1938
S'name'
p1939
S'\xe0\xa4\xaa\xe0\xa4\xa8\xe0\xa4\xbe\xe0\xa4\xb9'
p1940
sS'chunkid'
p1941
S'NP5'
p1942
sS'drel'
p1943
S'pof:VGF'
p1944
sS'chunktype'
p1945
S'head:NP5'
p1946
sS'af'
p1947
S'\xe0\xa4\xaa\xe0\xa4\xa8\xe0\xa4\xbe\xe0\xa4\xb9,n,f,sg,3,d,0,0'
p1948
ssbsg26
I00
sg27
I00
sg28
Nsg29
Nsg30
I4
sg31
I4
sg32
Nsg33
Nsg34
S'NN'
p1949
sg36
g1936
sg37
I00
sba(issf_api
Word
p1950
(dp1951
g6
I00
sg7
V\u0932\u093f\u090f
p1952
sg9
(issf_api
FeatureSet
p1953
(dp1954
g12
(dp1955
S'name'
p1956
S'\xe0\xa4\xb2\xe0\xa4\xbf\xe0\xa4\x8f'
p1957
sS'af'
p1958
S'\xe0\xa4\xb2\xe0\xa5\x87,v,m,pl,3,,\xe0\xa4\xaf\xe0\xa4\xbe_\xe0\xa4\xb9\xe0\xa5\x8b+\xe0\xa4\xaf\xe0\xa4\xbe_\xe0\xa4\xb9\xe0\xa5\x88,yA'
p1959
sS'chunkid'
p1960
S'VGF'
p1961
sS'chunktype'
p1962
S'head:VGF'
p1963
sS'voicetype'
p1964
S'active'
p1965
sS'vpos'
p1966
S'tam_2_3'
p1967
sS'stype'
p1968
S'declarative'
p1969
ssbsg26
I00
sg27
I00
sg28
Nsg29
Nsg30
I5
sg31
I4
sg32
Nsg33
Nsg34
S'VM'
p1970
sg36
g1953
sg37
I00
sba(issf_api
Word
p1971
(dp1972
g6
I00
sg7
V\u0939\u0941\u090f
p1973
sg9
(issf_api
FeatureSet
p1974
(dp1975
g12
(dp1976
S'name'
p1977
S'\xe0\xa4\xb9\xe0\xa5\x81\xe0\xa4\x8f'
p1978
sS'drel'
p1979
S'lwg__vaux:VGF'
p1980
sS'chunktype'
p1981
S'child:VGF'
p1982
sS'af'
p1983
S'\xe0\xa4\xb9\xe0\xa5\x8b,v,m,pl,any,,\xe0\xa4\xaf\xe0\xa4\xbe,yA'
p1984
ssbsg26
I00
sg27
I00
sg28
Nsg29
Nsg30
I5
sg31
I4
sg32
Nsg33
Nsg34
S'VAUX'
p1985
sg36
g1974
sg37
I00
sba(issf_api
Word
p1986
(dp1987
g6
I00
sg7
V\u0939\u0948\u0902
p1988
sg9
(issf_api
FeatureSet
p1989
(dp1990
g12
(dp1991
S'name'
p1992
S'\xe0\xa4\xb9\xe0\xa5\x88\xe0\xa4\x82'
p1993
sS'drel'
p1994
S'lwg__vaux:VGF'
p1995
sS'chunktype'
p1996
S'child:VGF'
p1997
sS'af'
p1998
S'\xe0\xa4\xb9\xe0\xa5\x88,v,any,pl,3,,\xe0\xa4\xb9\xe0\xa5\x88,hE'
p1999
ssbsg26
I00
sg27
I00
sg28
Nsg29
Nsg30
I5
sg31
I4
sg32
Nsg33
Nsg34
S'VAUX'
p2000
sg36
g1989
sg37
I00
sba(issf_api
Word
p2001
(dp2002
g6
I00
sg7
V\u0964
p2003
sg9
(issf_api
FeatureSet
p2004
(dp2005
g12
(dp2006
S'name'
p2007
S'\xe0\xa5\xa4'
p2008
sS'chunkid'
p2009
S'BLK'
p2010
sS'drel'
p2011
S'rsym:VGF'
p2012
sS'chunktype'
p2013
S'head:BLK'
p2014
sS'af'
p2015
S'\xe0\xa5\xa4,punc,,,,,,'
p2016
ssbsg26
I00
sg27
I00
sg28
Nsg29
Nsg30
I6
sg31
I4
sg32
Nsg33
Nsg34
S'SYM'
p2017
sg36
g2004
sg37
I00
sba(issf_api
Word
p2018
(dp2019
g6
I00
sg7
V\u0926\u094b\u0928\u094b\u0902
p2020
sg9
(issf_api
FeatureSet
p2021
(dp2022
g12
(dp2023
S'name'
p2024
S'\xe0\xa4\xa6\xe0\xa5\x8b\xe0\xa4\xa8\xe0\xa5\x8b\xe0\xa4\x82'
p2025
sS'drel'
p2026
S'nmod__adj:NP'
p2027
sS'cref'
p2028
S'i17%0:t5,i18%0:t4'
p2029
sS'chunktype'
p2030
S'child:NP'
p2031
sS'af'
p2032
S'\xe0\xa4\xa6\xe0\xa5\x8b,num,any,pl,,any,,'
p2033
ssbsg26
I00
sg27
I00
sg28
Nsg29
Nsg30
I0
sg31
I5
sg32
Nsg33
Nsg34
S'QC'
p2034
sg36
g2021
sg37
I00
sba(issf_api
Word
p2035
(dp2036
g6
I00
sg7
V\u091c\u0928\u091c\u093e\u0924\u093f\u092f\u094b\u0902
p2037
sg9
(issf_api
FeatureSet
p2038
(dp2039
g12
(dp2040
S'crefhead'
p2041
S'\xe0\xa4\x9c\xe0\xa4\xa8\xe0\xa4\x9c\xe0\xa4\xbe\xe0\xa4\xa4\xe0\xa4\xbf\xe0\xa4\xaf\xe0\xa5\x8b\xe0\xa4\x82:i17,\xe0\xa4\x9c\xe0\xa4\xa8\xe0\xa4\x9c\xe0\xa4\xbe\xe0\xa4\xa4\xe0\xa4\xbf\xe0\xa4\xaf\xe0\xa5\x8b\xe0\xa4\x82:i18'
p2042
sS'name'
p2043
S'\xe0\xa4\x9c\xe0\xa4\xa8\xe0\xa4\x9c\xe0\xa4\xbe\xe0\xa4\xa4\xe0\xa4\xbf\xe0\xa4\xaf\xe0\xa5\x8b\xe0\xa4\x82'
p2044
sS'af'
p2045
S'\xe0\xa4\x9c\xe0\xa4\xa8\xe0\xa4\x9c\xe0\xa4\xbe\xe0\xa4\xa4\xe0\xa4\xbf,n,f,pl,3,o,0_\xe0\xa4\x95\xe0\xa5\x87_\xe0\xa4\xac\xe0\xa5\x80\xe0\xa4\x9a,0'
p2046
sS'chunkid'
p2047
S'NP'
p2048
sS'creftype'
p2049
S'Coreference-Identity:i9,Coreference-Identity:i10'
p2050
sS'chunktype'
p2051
S'head:NP'
p2052
sS'vpos'
p2053
S'vib_3_4'
p2054
sS'cref'
p2055
S'i17%1:t5,i18%1:t4'
p2056
sS'drel'
p2057
S'k7:VGF'
p2058
ssbsg26
I00
sg27
I00
sg28
Nsg29
Nsg30
I0
sg31
I5
sg32
Nsg33
Nsg34
S'NN'
p2059
sg36
g2038
sg37
I00
sba(issf_api
Word
p2060
(dp2061
g6
I00
sg7
V\u0915\u0947
p2062
sg9
(issf_api
FeatureSet
p2063
(dp2064
g12
(dp2065
S'name'
p2066
S'\xe0\xa4\x95\xe0\xa5\x87'
p2067
sS'drel'
p2068
S'lwg__psp:NP'
p2069
sS'chunktype'
p2070
S'child:NP'
p2071
sS'af'
p2072
S'\xe0\xa4\x95\xe0\xa5\x87,psp,,,,,,'
p2073
ssbsg26
I00
sg27
I00
sg28
Nsg29
Nsg30
I0
sg31
I5
sg32
Nsg33
Nsg34
S'PSP'
p2074
sg36
g2063
sg37
I00
sba(issf_api
Word
p2075
(dp2076
g6
I00
sg7
V\u092c\u0940\u091a
p2077
sg9
(issf_api
FeatureSet
p2078
(dp2079
g12
(dp2080
S'name'
p2081
S'\xe0\xa4\xac\xe0\xa5\x80\xe0\xa4\x9a'
p2082
sS'drel'
p2083
S'lwg__psp:NP'
p2084
sS'chunktype'
p2085
S'child:NP'
p2086
sS'af'
p2087
S'\xe0\xa4\xac\xe0\xa5\x80\xe0\xa4\x9a,nst,m,sg,3,d,,'
p2088
ssbsg26
I00
sg27
I00
sg28
Nsg29
Nsg30
I0
sg31
I5
sg32
Nsg33
Nsg34
S'NST'
p2089
sg36
g2078
sg37
I00
sba(issf_api
Word
p2090
(dp2091
g6
I00
sg7
V\u0938\u0902\u0918\u0930\u094d\u0937
p2092
sg9
(issf_api
FeatureSet
p2093
(dp2094
g12
(dp2095
S'crefhead'
p2096
S'\xe0\xa4\xb8\xe0\xa4\x82\xe0\xa4\x98\xe0\xa4\xb0\xe0\xa5\x8d\xe0\xa4\xb7:i19'
p2097
sS'name'
p2098
S'\xe0\xa4\xb8\xe0\xa4\x82\xe0\xa4\x98\xe0\xa4\xb0\xe0\xa5\x8d\xe0\xa4\xb7'
p2099
sS'af'
p2100
S'\xe0\xa4\xb8\xe0\xa4\x82\xe0\xa4\x98\xe0\xa4\xb0\xe0\xa5\x8d\xe0\xa4\xb7,n,m,sg,3,o,0_\xe0\xa4\xae\xe0\xa5\x87\xe0\xa4\x82,0'
p2101
sS'chunkid'
p2102
S'NP2'
p2103
sS'creftype'
p2104
S'Coreference-Identity:i13'
p2105
sS'chunktype'
p2106
S'head:NP2'
p2107
sS'vpos'
p2108
S'vib_2'
p2109
sS'cref'
p2110
S'i19%1:t6'
p2111
sS'drel'
p2112
S'k7:VGF'
p2113
ssbsg26
I00
sg27
I00
sg28
Nsg29
Nsg30
I1
sg31
I5
sg32
Nsg33
Nsg34
S'NN'
p2114
sg36
g2093
sg37
I00
sba(issf_api
Word
p2115
(dp2116
g6
I00
sg7
V\u092e\u0947\u0902
p2117
sg9
(issf_api
FeatureSet
p2118
(dp2119
g12
(dp2120
S'name'
p2121
S'\xe0\xa4\xae\xe0\xa5\x87\xe0\xa4\x82'
p2122
sS'drel'
p2123
S'lwg__psp:NP2'
p2124
sS'chunktype'
p2125
S'child:NP2'
p2126
sS'af'
p2127
S'\xe0\xa4\xae\xe0\xa5\x87\xe0\xa4\x82,psp,,,,,,'
p2128
ssbsg26
I00
sg27
I00
sg28
Nsg29
Nsg30
I1
sg31
I5
sg32
Nsg33
Nsg34
S'PSP'
p2129
sg36
g2118
sg37
I00
sba(issf_api
Word
p2130
(dp2131
g6
I00
sg7
V\u0938\u0948\u0915\u0921\u093c\u094b\u0902
p2132
sg9
(issf_api
FeatureSet
p2133
(dp2134
g12
(dp2135
S'name'
p2136
S'\xe0\xa4\xb8\xe0\xa5\x88\xe0\xa4\x95\xe0\xa4\xa1\xe0\xa4\xbc\xe0\xa5\x8b\xe0\xa4\x82'
p2137
sS'drel'
p2138
S'nmod__adj:NP3'
p2139
sS'chunktype'
p2140
S'child:NP3'
p2141
sS'af'
p2142
S'\xe0\xa4\xb8\xe0\xa5\x88\xe0\xa4\x95\xe0\xa4\xa1\xe0\xa4\xbe,num,any,pl,,any,,'
p2143
ssbsg26
I00
sg27
I00
sg28
Nsg29
Nsg30
I2
sg31
I5
sg32
Nsg33
Nsg34
S'QC'
p2144
sg36
g2133
sg37
I00
sba(issf_api
Word
p2145
(dp2146
g6
I00
sg7
V\u0918\u0930
p2147
sg9
(issf_api
FeatureSet
p2148
(dp2149
g12
(dp2150
S'name'
p2151
S'\xe0\xa4\x98\xe0\xa4\xb0'
p2152
sS'chunkid'
p2153
S'NP3'
p2154
sS'drel'
p2155
S'k2:VGF'
p2156
sS'chunktype'
p2157
S'head:NP3'
p2158
sS'af'
p2159
S'\xe0\xa4\x98\xe0\xa4\xb0,n,m,pl,3,d,0,0'
p2160
ssbsg26
I00
sg27
I00
sg28
Nsg29
Nsg30
I2
sg31
I5
sg32
Nsg33
Nsg34
S'NN'
p2161
sg36
g2148
sg37
I00
sba(issf_api
Word
p2162
(dp2163
g6
I00
sg7
V\u091c\u0932\u093e
p2164
sg9
(issf_api
FeatureSet
p2165
(dp2166
g12
(dp2167
S'name'
p2168
S'\xe0\xa4\x9c\xe0\xa4\xb2\xe0\xa4\xbe'
p2169
sS'af'
p2170
S'\xe0\xa4\x9c\xe0\xa4\xb2\xe0\xa4\xbe,v,m,pl,any,,0_\xe0\xa4\xa6\xe0\xa5\x87+\xe0\xa4\xaf\xe0\xa4\xbe_\xe0\xa4\x9c\xe0\xa4\xbe+\xe0\xa4\xaf\xe0\xa4\xbe\xe0\xa5\xa7_\xe0\xa4\xa5\xe0\xa4\xbe,0'
p2171
sS'chunkid'
p2172
S'VGF'
p2173
sS'chunktype'
p2174
S'head:VGF'
p2175
sS'voicetype'
p2176
S'passive'
p2177
sS'vpos'
p2178
S'tam_2_3_4'
p2179
sS'stype'
p2180
S'declarative'
p2181
ssbsg26
I00
sg27
I00
sg28
Nsg29
Nsg30
I3
sg31
I5
sg32
Nsg33
Nsg34
S'VM'
p2182
sg36
g2165
sg37
I00
sba(issf_api
Word
p2183
(dp2184
g6
I00
sg7
V\u0926\u093f\u090f
p2185
sg9
(issf_api
FeatureSet
p2186
(dp2187
g12
(dp2188
S'name'
p2189
S'\xe0\xa4\xa6\xe0\xa4\xbf\xe0\xa4\x8f'
p2190
sS'drel'
p2191
S'lwg__vaux:VGF'
p2192
sS'chunktype'
p2193
S'child:VGF'
p2194
sS'af'
p2195
S'\xe0\xa4\xa6\xe0\xa5\x87,v,m,pl,any,,\xe0\xa4\xaf\xe0\xa4\xbe,yA'
p2196
ssbsg26
I00
sg27
I00
sg28
Nsg29
Nsg30
I3
sg31
I5
sg32
Nsg33
Nsg34
S'VAUX'
p2197
sg36
g2186
sg37
I00
sba(issf_api
Word
p2198
(dp2199
g6
I00
sg7
V\u0917\u090f
p2200
sg9
(issf_api
FeatureSet
p2201
(dp2202
g12
(dp2203
S'name'
p2204
S'\xe0\xa4\x97\xe0\xa4\x8f'
p2205
sS'drel'
p2206
S'lwg__vaux:VGF'
p2207
sS'chunktype'
p2208
S'child:VGF'
p2209
sS'af'
p2210
S'\xe0\xa4\x9c\xe0\xa4\xbe,v,m,pl,any,,\xe0\xa4\xaf\xe0\xa4\xbe\xe0\xa5\xa7,yA1'
p2211
ssbsg26
I00
sg27
I00
sg28
Nsg29
Nsg30
I3
sg31
I5
sg32
Nsg33
Nsg34
S'VAUX'
p2212
sg36
g2201
sg37
I00
sba(issf_api
Word
p2213
(dp2214
g6
I00
sg7
V\u0925\u0947
p2215
sg9
(issf_api
FeatureSet
p2216
(dp2217
g12
(dp2218
S'name'
p2219
S'\xe0\xa4\xa5\xe0\xa5\x87'
p2220
sS'drel'
p2221
S'lwg__vaux:VGF'
p2222
sS'chunktype'
p2223
S'child:VGF'
p2224
sS'af'
p2225
S'\xe0\xa4\xa5\xe0\xa4\xbe,v,m,pl,any,,\xe0\xa4\xa5\xe0\xa4\xbe,WA'
p2226
ssbsg26
I00
sg27
I00
sg28
Nsg29
Nsg30
I3
sg31
I5
sg32
Nsg33
Nsg34
S'VAUX'
p2227
sg36
g2216
sg37
I00
sba(issf_api
Word
p2228
(dp2229
g6
I00
sg7
V\u0964
p2230
sg9
(issf_api
FeatureSet
p2231
(dp2232
g12
(dp2233
S'name'
p2234
S'\xe0\xa5\xa4'
p2235
sS'chunkid'
p2236
S'BLK'
p2237
sS'drel'
p2238
S'rsym:VGF'
p2239
sS'chunktype'
p2240
S'head:BLK'
p2241
sS'af'
p2242
S'\xe0\xa5\xa4,punc,,,,,,'
p2243
ssbsg26
I00
sg27
I00
sg28
Nsg29
Nsg30
I4
sg31
I5
sg32
Nsg33
Nsg34
S'SYM'
p2244
sg36
g2231
sg37
I00
sba(issf_api
Word
p2245
(dp2246
g6
I00
sg7
V\u090f\u0915
p2247
sg9
(issf_api
FeatureSet
p2248
(dp2249
g12
(dp2250
S'name'
p2251
S'\xe0\xa4\x8f\xe0\xa4\x95'
p2252
sS'drel'
p2253
S'nmod__adj:NP'
p2254
sS'chunktype'
p2255
S'child:NP'
p2256
sS'af'
p2257
S'\xe0\xa4\x8f\xe0\xa4\x95,num,any,any,,any,,'
p2258
ssbsg26
I00
sg27
I00
sg28
Nsg29
Nsg30
I0
sg31
I6
sg32
Nsg33
Nsg34
S'QC'
p2259
sg36
g2248
sg37
I00
sba(issf_api
Word
p2260
(dp2261
g6
I00
sg7
V\u0935\u0930\u093f\u0937\u094d\u0920
p2262
sg9
(issf_api
FeatureSet
p2263
(dp2264
g12
(dp2265
S'name'
p2266
S'\xe0\xa4\xb5\xe0\xa4\xb0\xe0\xa4\xbf\xe0\xa4\xb7\xe0\xa5\x8d\xe0\xa4\xa0'
p2267
sS'drel'
p2268
S'nmod__adj:NP'
p2269
sS'chunktype'
p2270
S'child:NP'
p2271
sS'af'
p2272
S'\xe0\xa4\xb5\xe0\xa4\xb0\xe0\xa4\xbf\xe0\xa4\xb7\xe0\xa5\x8d\xe0\xa4\xa0,adj,any,any,,o,,'
p2273
ssbsg26
I00
sg27
I00
sg28
Nsg29
Nsg30
I0
sg31
I6
sg32
Nsg33
Nsg34
S'JJ'
p2274
sg36
g2263
sg37
I00
sba(issf_api
Word
p2275
(dp2276
g6
I00
sg7
V\u092a\u0941\u0932\u093f\u0938
p2277
sg9
(issf_api
FeatureSet
p2278
(dp2279
g12
(dp2280
S'crefhead'
p2281
S'\xe0\xa4\xaa\xe0\xa5\x81\xe0\xa4\xb2\xe0\xa4\xbf\xe0\xa4\xb8:i20'
p2282
sS'name'
p2283
S'\xe0\xa4\xaa\xe0\xa5\x81\xe0\xa4\xb2\xe0\xa4\xbf\xe0\xa4\xb8'
p2284
sS'af'
p2285
S'\xe0\xa4\xaa\xe0\xa5\x81\xe0\xa4\xb2\xe0\xa4\xbf\xe0\xa4\xb8,adj,f,sg,3,d,0,0'
p2286
sS'drel'
p2287
S'pof__cn:NP'
p2288
sS'crefchainhead'
p2289
S'i20:t9'
p2290
sS'chunktype'
p2291
S'child:NP'
p2292
sS'cref'
p2293
S'i20%1:t9'
p2294
ssbsg26
I00
sg27
I00
sg28
Nsg29
Nsg30
I0
sg31
I6
sg32
Nsg33
Nsg34
S'NNC'
p2295
sg36
g2278
sg37
I00
sba(issf_api
Word
p2296
(dp2297
g6
I00
sg7
V\u0905\u0927\u093f\u0915\u093e\u0930\u0940
p2298
sg9
(issf_api
FeatureSet
p2299
(dp2300
g12
(dp2301
S'name'
p2302
S'\xe0\xa4\x85\xe0\xa4\xa7\xe0\xa4\xbf\xe0\xa4\x95\xe0\xa4\xbe\xe0\xa4\xb0\xe0\xa5\x80'
p2303
sS'af'
p2304
S'\xe0\xa4\x85\xe0\xa4\xa7\xe0\xa4\xbf\xe0\xa4\x95\xe0\xa4\xbe\xe0\xa4\xb0\xe0\xa5\x80,n,m,sg,3,o,0_\xe0\xa4\xa8\xe0\xa5\x87,0'
p2305
sS'chunkid'
p2306
S'NP'
p2307
sS'drel'
p2308
S'k1:VGF'
p2309
sS'vpos'
p2310
S'vib_5'
p2311
sS'chunktype'
p2312
S'head:NP'
p2313
ssbsg26
I00
sg27
I00
sg28
Nsg29
Nsg30
I0
sg31
I6
sg32
Nsg33
Nsg34
S'NN'
p2314
sg36
g2299
sg37
I00
sba(issf_api
Word
p2315
(dp2316
g6
I00
sg7
V\u0928\u0947
p2317
sg9
(issf_api
FeatureSet
p2318
(dp2319
g12
(dp2320
S'name'
p2321
S'\xe0\xa4\xa8\xe0\xa5\x87'
p2322
sS'drel'
p2323
S'lwg__psp:NP'
p2324
sS'chunktype'
p2325
S'child:NP'
p2326
sS'af'
p2327
S'\xe0\xa4\xa8\xe0\xa5\x87,psp,,,,,,'
p2328
ssbsg26
I00
sg27
I00
sg28
Nsg29
Nsg30
I0
sg31
I6
sg32
Nsg33
Nsg34
S'PSP'
p2329
sg36
g2318
sg37
I00
sba(issf_api
Word
p2330
(dp2331
g6
I00
sg7
V\u092c\u0924\u093e\u092f\u093e
p2332
sg9
(issf_api
FeatureSet
p2333
(dp2334
g12
(dp2335
S'name'
p2336
S'\xe0\xa4\xac\xe0\xa4\xa4\xe0\xa4\xbe\xe0\xa4\xaf\xe0\xa4\xbe'
p2337
sS'af'
p2338
S'\xe0\xa4\xac\xe0\xa4\xa4\xe0\xa4\xbe,v,m,sg,any,,\xe0\xa4\xaf\xe0\xa4\xbe,yA'
p2339
sS'chunkid'
p2340
S'VGF'
p2341
sS'chunktype'
p2342
S'head:VGF'
p2343
sS'voicetype'
p2344
S'active'
p2345
sS'stype'
p2346
S'declarative'
p2347
ssbsg26
I00
sg27
I00
sg28
Nsg29
Nsg30
I1
sg31
I6
sg32
Nsg33
Nsg34
S'VM'
p2348
sg36
g2333
sg37
I00
sba(issf_api
Word
p2349
(dp2350
g6
I00
sg7
V\u0915\u093f
p2351
sg9
(issf_api
FeatureSet
p2352
(dp2353
g12
(dp2354
S'name'
p2355
S'\xe0\xa4\x95\xe0\xa4\xbf'
p2356
sS'chunkid'
p2357
S'CCP'
p2358
sS'drel'
p2359
S'k2:VGF'
p2360
sS'chunktype'
p2361
S'head:CCP'
p2362
sS'af'
p2363
S'\xe0\xa4\x95\xe0\xa4\xbf,avy,,,,,,'
p2364
ssbsg26
I00
sg27
I00
sg28
Nsg29
Nsg30
I2
sg31
I6
sg32
Nsg33
Nsg34
S'CC'
p2365
sg36
g2352
sg37
I00
sba(issf_api
Word
p2366
(dp2367
g6
I00
sg7
V\u091c\u093f\u0932\u093e
p2368
sg9
(issf_api
FeatureSet
p2369
(dp2370
g12
(dp2371
S'name'
p2372
S'\xe0\xa4\x9c\xe0\xa4\xbf\xe0\xa4\xb2\xe0\xa4\xbe'
p2373
sS'drel'
p2374
S'pof__cn:NP2'
p2375
sS'cref'
p2376
S'i21%0:t10'
p2377
sS'chunktype'
p2378
S'child:NP2'
p2379
sS'af'
p2380
S'\xe0\xa4\x9c\xe0\xa4\xbf\xe0\xa4\xb2\xe0\xa4\xbe,n,m,sg,3,d,0,0'
p2381
ssbsg26
I00
sg27
I00
sg28
Nsg29
Nsg30
I3
sg31
I6
sg32
Nsg33
Nsg34
S'NNC'
p2382
sg36
g2369
sg37
I00
sba(issf_api
Word
p2383
(dp2384
g6
I00
sg7
V\u092e\u0941\u0916\u094d\u092f\u093e\u0932\u092f
p2385
sg9
(issf_api
FeatureSet
p2386
(dp2387
g12
(dp2388
S'crefhead'
p2389
S'\xe0\xa4\xae\xe0\xa5\x81\xe0\xa4\x96\xe0\xa5\x8d\xe0\xa4\xaf\xe0\xa4\xbe\xe0\xa4\xb2\xe0\xa4\xaf:i21'
p2390
sS'name'
p2391
S'\xe0\xa4\xae\xe0\xa5\x81\xe0\xa4\x96\xe0\xa5\x8d\xe0\xa4\xaf\xe0\xa4\xbe\xe0\xa4\xb2\xe0\xa4\xaf'
p2392
sS'af'
p2393
S'\xe0\xa4\xae\xe0\xa5\x81\xe0\xa4\x96\xe0\xa5\x8d\xe0\xa4\xaf\xe0\xa4\xbe\xe0\xa4\xb2\xe0\xa4\xaf,n,m,sg,3,o,0,0'
p2394
sS'chunkid'
p2395
S'NP2'
p2396
sS'drel'
p2397
S'nmod:NP3'
p2398
sS'chunktype'
p2399
S'head:NP2'
p2400
sS'cref'
p2401
S'i21%1:t10'
p2402
ssbsg26
I00
sg27
I00
sg28
Nsg29
Nsg30
I3
sg31
I6
sg32
Nsg33
Nsg34
S'NN'
p2403
sg36
g2386
sg37
I00
sba(issf_api
Word
p2404
(dp2405
g6
I00
sg7
V\u0926\u093f\u092b\u0942
p2406
sg9
(issf_api
FeatureSet
p2407
(dp2408
g12
(dp2409
S'crefhead'
p2410
S'\xe0\xa4\xa6\xe0\xa4\xbf\xe0\xa4\xab\xe0\xa5\x82:i22'
p2411
sS'name'
p2412
S'\xe0\xa4\xa6\xe0\xa4\xbf\xe0\xa4\xab\xe0\xa5\x82'
p2413
sS'af'
p2414
S'\xe0\xa4\xa6\xe0\xa4\xbf\xe0\xa4\xab\xe0\xa5\x82,n,m,sg,3,o,0_\xe0\xa4\x95\xe0\xa5\x87_\xe0\xa4\xaa\xe0\xa4\xbe\xe0\xa4\xb8,0'
p2415
sS'chunkid'
p2416
S'NP3'
p2417
sS'creftype'
p2418
S'Coreference-NounComplement:i21'
p2419
sS'chunktype'
p2420
S'head:NP3'
p2421
sS'crefchainhead'
p2422
S'i22:t10'
p2423
sS'vpos'
p2424
S'vib_2_3'
p2425
sS'cref'
p2426
S'i22%1:t10'
p2427
sS'drel'
p2428
S'jjmod:JJP'
p2429
ssbsg26
I00
sg27
I00
sg28
Nsg29
Nsg30
I4
sg31
I6
sg32
Nsg33
Nsg34
S'NNP'
p2430
sg36
g2407
sg37
I00
sba(issf_api
Word
p2431
(dp2432
g6
I00
sg7
V\u0915\u0947
p2433
sg9
(issf_api
FeatureSet
p2434
(dp2435
g12
(dp2436
S'name'
p2437
S'\xe0\xa4\x95\xe0\xa5\x87'
p2438
sS'drel'
p2439
S'lwg__psp:NP3'
p2440
sS'chunktype'
p2441
S'child:NP3'
p2442
sS'af'
p2443
S'\xe0\xa4\x95\xe0\xa5\x87,psp,,,,,,'
p2444
ssbsg26
I00
sg27
I00
sg28
Nsg29
Nsg30
I4
sg31
I6
sg32
Nsg33
Nsg34
S'PSP'
p2445
sg36
g2434
sg37
I00
sba(issf_api
Word
p2446
(dp2447
g6
I00
sg7
V\u092a\u093e\u0938
p2448
sg9
(issf_api
FeatureSet
p2449
(dp2450
g12
(dp2451
S'name'
p2452
S'\xe0\xa4\xaa\xe0\xa4\xbe\xe0\xa4\xb8'
p2453
sS'drel'
p2454
S'lwg__psp:NP3'
p2455
sS'chunktype'
p2456
S'child:NP3'
p2457
sS'af'
p2458
S'\xe0\xa4\xaa\xe0\xa4\xbe\xe0\xa4\xb8,nst,m,sg,3,d,,'
p2459
ssbsg26
I00
sg27
I00
sg28
Nsg29
Nsg30
I4
sg31
I6
sg32
Nsg33
Nsg34
S'NST'
p2460
sg36
g2449
sg37
I00
sba(issf_api
Word
p2461
(dp2462
g6
I00
sg7
V\u0938\u094d\u0925\u093f\u0924
p2463
sg9
(issf_api
FeatureSet
p2464
(dp2465
g12
(dp2466
S'name'
p2467
S'\xe0\xa4\xb8\xe0\xa5\x8d\xe0\xa4\xa5\xe0\xa4\xbf\xe0\xa4\xa4'
p2468
sS'chunkid'
p2469
S'JJP'
p2470
sS'drel'
p2471
S'nmod:NP4'
p2472
sS'chunktype'
p2473
S'head:JJP'
p2474
sS'af'
p2475
S'\xe0\xa4\xb8\xe0\xa5\x8d\xe0\xa4\xa5\xe0\xa4\xbf\xe0\xa4\xa4,adj,any,any,,o,,'
p2476
ssbsg26
I00
sg27
I00
sg28
Nsg29
Nsg30
I5
sg31
I6
sg32
Nsg33
Nsg34
S'JJ'
p2477
sg36
g2464
sg37
I00
sba(issf_api
Word
p2478
(dp2479
g6
I00
sg7
V\u090f\u0915
p2480
sg9
(issf_api
FeatureSet
p2481
(dp2482
g12
(dp2483
S'name'
p2484
S'\xe0\xa4\x8f\xe0\xa4\x952'
p2485
sS'drel'
p2486
S'nmod__adj:NP4'
p2487
sS'chunktype'
p2488
S'child:NP4'
p2489
sS'af'
p2490
S'\xe0\xa4\x8f\xe0\xa4\x95,num,any,any,,any,,'
p2491
ssbsg26
I00
sg27
I00
sg28
Nsg29
Nsg30
I6
sg31
I6
sg32
Nsg33
Nsg34
S'QC'
p2492
sg36
g2481
sg37
I00
sba(issf_api
Word
p2493
(dp2494
g6
I00
sg7
V\u0917\u093e\u0902\u0935
p2495
sg9
(issf_api
FeatureSet
p2496
(dp2497
g12
(dp2498
S'name'
p2499
S'\xe0\xa4\x97\xe0\xa4\xbe\xe0\xa4\x82\xe0\xa4\xb5'
p2500
sS'af'
p2501
S'\xe0\xa4\x97\xe0\xa4\xbe\xe0\xa4\x81\xe0\xa4\xb5,n,m,sg,3,o,0_\xe0\xa4\xb8\xe0\xa5\x87,0'
p2502
sS'chunkid'
p2503
S'NP4'
p2504
sS'drel'
p2505
S'k5:VGF2'
p2506
sS'vpos'
p2507
S'vib_3'
p2508
sS'chunktype'
p2509
S'head:NP4'
p2510
ssbsg26
I00
sg27
I00
sg28
Nsg29
Nsg30
I6
sg31
I6
sg32
Nsg33
Nsg34
S'NN'
p2511
sg36
g2496
sg37
I00
sba(issf_api
Word
p2512
(dp2513
g6
I00
sg7
V\u0938\u0947
p2514
sg9
(issf_api
FeatureSet
p2515
(dp2516
g12
(dp2517
S'name'
p2518
S'\xe0\xa4\xb8\xe0\xa5\x87'
p2519
sS'drel'
p2520
S'lwg__psp:NP4'
p2521
sS'chunktype'
p2522
S'child:NP4'
p2523
sS'af'
p2524
S'\xe0\xa4\xb8\xe0\xa5\x87,psp,,,,,,'
p2525
ssbsg26
I00
sg27
I00
sg28
Nsg29
Nsg30
I6
sg31
I6
sg32
Nsg33
Nsg34
S'PSP'
p2526
sg36
g2515
sg37
I00
sba(issf_api
Word
p2527
(dp2528
g6
I00
sg7
V\u0926\u093f\u092e\u093e\u0938\u093e
p2529
sg9
(issf_api
FeatureSet
p2530
(dp2531
g12
(dp2532
S'name'
p2533
S'\xe0\xa4\xa6\xe0\xa4\xbf\xe0\xa4\xae\xe0\xa4\xbe\xe0\xa4\xb8\xe0\xa4\xbe'
p2534
sS'drel'
p2535
S'nmod__adj:NP5'
p2536
sS'cref'
p2537
S'i23%0:t5'
p2538
sS'chunktype'
p2539
S'child:NP5'
p2540
sS'af'
p2541
S'\xe0\xa4\xa6\xe0\xa4\xbf\xe0\xa4\xae\xe0\xa4\xbe\xe0\xa4\xb8\xe0\xa4\xbe,n,f,sg,3,d,0,0'
p2542
ssbsg26
I00
sg27
I00
sg28
Nsg29
Nsg30
I7
sg31
I6
sg32
Nsg33
Nsg34
S'NNP'
p2543
sg36
g2530
sg37
I00
sba(issf_api
Word
p2544
(dp2545
g6
I00
sg7
V\u091c\u0928\u091c\u093e\u0924\u093f
p2546
sg9
(issf_api
FeatureSet
p2547
(dp2548
g12
(dp2549
S'crefhead'
p2550
S'\xe0\xa4\x9c\xe0\xa4\xa8\xe0\xa4\x9c\xe0\xa4\xbe\xe0\xa4\xa4\xe0\xa4\xbf:i23'
p2551
sS'name'
p2552
S'\xe0\xa4\x9c\xe0\xa4\xa8\xe0\xa4\x9c\xe0\xa4\xbe\xe0\xa4\xa4\xe0\xa4\xbf'
p2553
sS'af'
p2554
S'\xe0\xa4\x9c\xe0\xa4\xa8\xe0\xa4\x9c\xe0\xa4\xbe\xe0\xa4\xa4\xe0\xa4\xbf,n,f,sg,3,o,0_\xe0\xa4\x95\xe0\xa5\x87,0'
p2555
sS'chunkid'
p2556
S'NP5'
p2557
sS'creftype'
p2558
S'Coreference-PartOf:i17'
p2559
sS'chunktype'
p2560
S'head:NP5'
p2561
sS'vpos'
p2562
S'vib_vib_3'
p2563
sS'cref'
p2564
S'i23%1:t5'
p2565
sS'drel'
p2566
S'r6:NP6'
p2567
ssbsg26
I00
sg27
I00
sg28
Nsg29
Nsg30
I7
sg31
I6
sg32
Nsg33
Nsg34
S'NN'
p2568
sg36
g2547
sg37
I00
sba(issf_api
Word
p2569
(dp2570
g6
I00
sg7
V\u0915\u0947
p2571
sg9
(issf_api
FeatureSet
p2572
(dp2573
g12
(dp2574
S'name'
p2575
S'\xe0\xa4\x95\xe0\xa5\x872'
p2576
sS'drel'
p2577
S'lwg__psp:NP5'
p2578
sS'chunktype'
p2579
S'child:NP5'
p2580
sS'af'
p2581
S'\xe0\xa4\x95\xe0\xa5\x87,psp,m,pl,,o,,'
p2582
ssbsg26
I00
sg27
I00
sg28
Nsg29
Nsg30
I7
sg31
I6
sg32
Nsg33
Nsg34
S'PSP'
p2583
sg36
g2572
sg37
I00
sba(issf_api
Word
p2584
(dp2585
g6
I00
sg7
V\u0926\u094b
p2586
sg9
(issf_api
FeatureSet
p2587
(dp2588
g12
(dp2589
S'name'
p2590
S'\xe0\xa4\xa6\xe0\xa5\x8b'
p2591
sS'drel'
p2592
S'nmod__adj:NP6'
p2593
sS'chunktype'
p2594
S'child:NP6'
p2595
sS'af'
p2596
S'\xe0\xa4\xa6\xe0\xa5\x8b,num,any,any,,any,,'
p2597
ssbsg26
I00
sg27
I00
sg28
Nsg29
Nsg30
I8
sg31
I6
sg32
Nsg33
Nsg34
S'QC'
p2598
sg36
g2587
sg37
I00
sba(issf_api
Word
p2599
(dp2600
g6
I00
sg7
V\u0932\u094b\u0917\u094b\u0902
p2601
sg9
(issf_api
FeatureSet
p2602
(dp2603
g12
(dp2604
S'name'
p2605
S'\xe0\xa4\xb2\xe0\xa5\x8b\xe0\xa4\x97\xe0\xa5\x8b\xe0\xa4\x82'
p2606
sS'af'
p2607
S'\xe0\xa4\xb2\xe0\xa5\x8b\xe0\xa4\x97,n,m,pl,3,o,0_\xe0\xa4\x95\xe0\xa5\x87,0'
p2608
sS'chunkid'
p2609
S'NP6'
p2610
sS'drel'
p2611
S'r6:NP7'
p2612
sS'vpos'
p2613
S'vib_3'
p2614
sS'chunktype'
p2615
S'head:NP6'
p2616
ssbsg26
I00
sg27
I00
sg28
Nsg29
Nsg30
I8
sg31
I6
sg32
Nsg33
Nsg34
S'NN'
p2617
sg36
g2602
sg37
I00
sba(issf_api
Word
p2618
(dp2619
g6
I00
sg7
V\u0915\u0947
p2620
sg9
(issf_api
FeatureSet
p2621
(dp2622
g12
(dp2623
S'name'
p2624
S'\xe0\xa4\x95\xe0\xa5\x873'
p2625
sS'drel'
p2626
S'lwg__psp:NP6'
p2627
sS'chunktype'
p2628
S'child:NP6'
p2629
sS'af'
p2630
S'\xe0\xa4\x95\xe0\xa5\x87,psp,m,pl,,d,,'
p2631
ssbsg26
I00
sg27
I00
sg28
Nsg29
Nsg30
I8
sg31
I6
sg32
Nsg33
Nsg34
S'PSP'
p2632
sg36
g2621
sg37
I00
sba(issf_api
Word
p2633
(dp2634
g6
I00
sg7
V\u0936\u0935
p2635
sg9
(issf_api
FeatureSet
p2636
(dp2637
g12
(dp2638
S'name'
p2639
S'\xe0\xa4\xb6\xe0\xa4\xb5'
p2640
sS'chunkid'
p2641
S'NP7'
p2642
sS'drel'
p2643
S'k1:VGF2'
p2644
sS'chunktype'
p2645
S'head:NP7'
p2646
sS'af'
p2647
S'\xe0\xa4\xb6\xe0\xa4\xb5,n,m,pl,3,d,0,0'
p2648
ssbsg26
I00
sg27
I00
sg28
Nsg29
Nsg30
I9
sg31
I6
sg32
Nsg33
Nsg34
S'NN'
p2649
sg36
g2636
sg37
I00
sba(issf_api
Word
p2650
(dp2651
g6
I00
sg7
V\u092c\u0930\u093e\u092e\u0926
p2652
sg9
(issf_api
FeatureSet
p2653
(dp2654
g12
(dp2655
S'name'
p2656
S'\xe0\xa4\xac\xe0\xa4\xb0\xe0\xa4\xbe\xe0\xa4\xae\xe0\xa4\xa6'
p2657
sS'chunkid'
p2658
S'JJP2'
p2659
sS'drel'
p2660
S'pof:VGF2'
p2661
sS'chunktype'
p2662
S'head:JJP2'
p2663
sS'af'
p2664
S'\xe0\xa4\xac\xe0\xa4\xb0\xe0\xa4\xbe\xe0\xa4\xae\xe0\xa4\xa6,adj,any,any,,,,'
p2665
ssbsg26
I00
sg27
I00
sg28
Nsg29
Nsg30
I10
sg31
I6
sg32
Nsg33
Nsg34
S'JJ'
p2666
sg36
g2653
sg37
I00
sba(issf_api
Word
p2667
(dp2668
g6
I00
sg7
V\u0939\u0941\u090f
p2669
sg9
(issf_api
FeatureSet
p2670
(dp2671
g12
(dp2672
S'name'
p2673
S'\xe0\xa4\xb9\xe0\xa5\x81\xe0\xa4\x8f'
p2674
sS'af'
p2675
S'\xe0\xa4\xb9\xe0\xa5\x8b,v,m,pl,3,,\xe0\xa4\xaf\xe0\xa4\xbe_\xe0\xa4\xb9\xe0\xa5\x88,yA'
p2676
sS'chunkid'
p2677
S'VGF2'
p2678
sS'drel'
p2679
S'ccof:CCP'
p2680
sS'chunktype'
p2681
S'head:VGF2'
p2682
sS'voicetype'
p2683
S'active'
p2684
sS'vpos'
p2685
S'tam_2'
p2686
sS'stype'
p2687
S'declarative'
p2688
ssbsg26
I00
sg27
I00
sg28
Nsg29
Nsg30
I11
sg31
I6
sg32
Nsg33
Nsg34
S'VM'
p2689
sg36
g2670
sg37
I00
sba(issf_api
Word
p2690
(dp2691
g6
I00
sg7
V\u0939\u0948\u0902
p2692
sg9
(issf_api
FeatureSet
p2693
(dp2694
g12
(dp2695
S'name'
p2696
S'\xe0\xa4\xb9\xe0\xa5\x88\xe0\xa4\x82'
p2697
sS'drel'
p2698
S'lwg__vaux:VGF2'
p2699
sS'chunktype'
p2700
S'child:VGF2'
p2701
sS'af'
p2702
S'\xe0\xa4\xb9\xe0\xa5\x88,v,any,pl,3,,\xe0\xa4\xb9\xe0\xa5\x88,hE'
p2703
ssbsg26
I00
sg27
I00
sg28
Nsg29
Nsg30
I11
sg31
I6
sg32
Nsg33
Nsg34
S'VAUX'
p2704
sg36
g2693
sg37
I00
sba(issf_api
Word
p2705
(dp2706
g6
I00
sg7
V\u0964
p2707
sg9
(issf_api
FeatureSet
p2708
(dp2709
g12
(dp2710
S'name'
p2711
S'\xe0\xa5\xa4'
p2712
sS'chunkid'
p2713
S'BLK'
p2714
sS'drel'
p2715
S'rsym:VGF'
p2716
sS'chunktype'
p2717
S'head:BLK'
p2718
sS'af'
p2719
S'\xe0\xa5\xa4,punc,,,,,,'
p2720
ssbsg26
I00
sg27
I00
sg28
Nsg29
Nsg30
I12
sg31
I6
sg32
Nsg33
Nsg34
S'SYM'
p2721
sg36
g2708
sg37
I00
sba(issf_api
Word
p2722
(dp2723
g6
I00
sg7
V\u0905\u092d\u0940
p2724
sg9
(issf_api
FeatureSet
p2725
(dp2726
g12
(dp2727
S'crefhead'
p2728
S'\xe0\xa4\x85\xe0\xa4\xad\xe0\xa5\x80:i24'
p2729
sS'name'
p2730
S'\xe0\xa4\x85\xe0\xa4\xad\xe0\xa5\x80'
p2731
sS'af'
p2732
S'\xe0\xa4\x85\xe0\xa4\xad\xe0\xa5\x80,pn,,,,o,0_\xe0\xa4\xa4\xe0\xa4\x95,'
p2733
sS'chunkid'
p2734
S'NP'
p2735
sS'creftype'
p2736
S'anaphora-?:i24'
p2737
sS'chunktype'
p2738
S'head:NP'
p2739
sS'crefchainhead'
p2740
S'i24:t11'
p2741
sS'vpos'
p2742
S'vib_2'
p2743
sS'cref'
p2744
S'i24%1:t11'
p2745
sS'drel'
p2746
S'k7t:VGF'
p2747
ssbsg26
I00
sg27
I00
sg28
Nsg29
Nsg30
I0
sg31
I7
sg32
Nsg33
Nsg34
S'PRP'
p2748
sg36
g2725
sg37
I00
sba(issf_api
Word
p2749
(dp2750
g6
I00
sg7
V\u0924\u0915
p2751
sg9
(issf_api
FeatureSet
p2752
(dp2753
g12
(dp2754
S'name'
p2755
S'\xe0\xa4\xa4\xe0\xa4\x95'
p2756
sS'drel'
p2757
S'lwg__psp:NP'
p2758
sS'chunktype'
p2759
S'child:NP'
p2760
sS'af'
p2761
S'\xe0\xa4\xa4\xe0\xa4\x95,psp,,,,,,'
p2762
ssbsg26
I00
sg27
I00
sg28
Nsg29
Nsg30
I0
sg31
I7
sg32
Nsg33
Nsg34
S'PSP'
p2763
sg36
g2752
sg37
I00
sba(issf_api
Word
p2764
(dp2765
g6
I00
sg7
V\u096c
p2766
sg9
(issf_api
FeatureSet
p2767
(dp2768
g12
(dp2769
S'name'
p2770
S'\xe0\xa5\xac'
p2771
sS'drel'
p2772
S'nmod__adj:NP2'
p2773
sS'chunktype'
p2774
S'child:NP2'
p2775
sS'af'
p2776
S'\xe0\xa5\xac,num,any,any,,any,,'
p2777
ssbsg26
I00
sg27
I00
sg28
Nsg29
Nsg30
I1
sg31
I7
sg32
Nsg33
Nsg34
S'QC'
p2778
sg36
g2767
sg37
I00
sba(issf_api
Word
p2779
(dp2780
g6
I00
sg7
V\u0936\u0935
p2781
sg9
(issf_api
FeatureSet
p2782
(dp2783
g12
(dp2784
S'name'
p2785
S'\xe0\xa4\xb6\xe0\xa4\xb5'
p2786
sS'chunkid'
p2787
S'NP2'
p2788
sS'drel'
p2789
S'k1:VGF'
p2790
sS'chunktype'
p2791
S'head:NP2'
p2792
sS'af'
p2793
S'\xe0\xa4\xb6\xe0\xa4\xb5,n,m,pl,3,d,0,0'
p2794
ssbsg26
I00
sg27
I00
sg28
Nsg29
Nsg30
I1
sg31
I7
sg32
Nsg33
Nsg34
S'NN'
p2795
sg36
g2782
sg37
I00
sba(issf_api
Word
p2796
(dp2797
g6
I00
sg7
V\u092c\u0930\u093e\u092e\u0926
p2798
sg9
(issf_api
FeatureSet
p2799
(dp2800
g12
(dp2801
S'name'
p2802
S'\xe0\xa4\xac\xe0\xa4\xb0\xe0\xa4\xbe\xe0\xa4\xae\xe0\xa4\xa6'
p2803
sS'chunkid'
p2804
S'JJP'
p2805
sS'drel'
p2806
S'pof:VGF'
p2807
sS'chunktype'
p2808
S'head:JJP'
p2809
sS'af'
p2810
S'\xe0\xa4\xac\xe0\xa4\xb0\xe0\xa4\xbe\xe0\xa4\xae\xe0\xa4\xa6,adj,any,any,,any,,'
p2811
ssbsg26
I00
sg27
I00
sg28
Nsg29
Nsg30
I2
sg31
I7
sg32
Nsg33
Nsg34
S'JJ'
p2812
sg36
g2799
sg37
I00
sba(issf_api
Word
p2813
(dp2814
g6
I00
sg7
V\u0939\u094b
p2815
sg9
(issf_api
FeatureSet
p2816
(dp2817
g12
(dp2818
S'name'
p2819
S'\xe0\xa4\xb9\xe0\xa5\x8b'
p2820
sS'af'
p2821
S'\xe0\xa4\xb9\xe0\xa5\x8b,v,any,pl,3,,0_\xe0\xa4\x9a\xe0\xa5\x81\xe0\xa4\x95+\xe0\xa4\xaf\xe0\xa4\xbe_\xe0\xa4\xb9\xe0\xa5\x88,0'
p2822
sS'chunkid'
p2823
S'VGF'
p2824
sS'chunktype'
p2825
S'head:VGF'
p2826
sS'voicetype'
p2827
S'active'
p2828
sS'vpos'
p2829
S'tam_2_3'
p2830
sS'stype'
p2831
S'declarative'
p2832
ssbsg26
I00
sg27
I00
sg28
Nsg29
Nsg30
I3
sg31
I7
sg32
Nsg33
Nsg34
S'VM'
p2833
sg36
g2816
sg37
I00
sba(issf_api
Word
p2834
(dp2835
g6
I00
sg7
V\u091a\u0941\u0915\u0947
p2836
sg9
(issf_api
FeatureSet
p2837
(dp2838
g12
(dp2839
S'name'
p2840
S'\xe0\xa4\x9a\xe0\xa5\x81\xe0\xa4\x95\xe0\xa5\x87'
p2841
sS'drel'
p2842
S'lwg__vaux:VGF'
p2843
sS'chunktype'
p2844
S'child:VGF'
p2845
sS'af'
p2846
S'\xe0\xa4\x9a\xe0\xa5\x81\xe0\xa4\x95,v,any,pl,3,,\xe0\xa4\xaf\xe0\xa4\xbe,yA'
p2847
ssbsg26
I00
sg27
I00
sg28
Nsg29
Nsg30
I3
sg31
I7
sg32
Nsg33
Nsg34
S'VAUX'
p2848
sg36
g2837
sg37
I00
sba(issf_api
Word
p2849
(dp2850
g6
I00
sg7
V\u0939\u0948\u0902
p2851
sg9
(issf_api
FeatureSet
p2852
(dp2853
g12
(dp2854
S'name'
p2855
S'\xe0\xa4\xb9\xe0\xa5\x88\xe0\xa4\x82'
p2856
sS'drel'
p2857
S'lwg__vaux:VGF'
p2858
sS'chunktype'
p2859
S'child:VGF'
p2860
sS'af'
p2861
S'\xe0\xa4\xb9\xe0\xa5\x88,v,any,pl,3,,\xe0\xa4\xb9\xe0\xa5\x88,hE'
p2862
ssbsg26
I00
sg27
I00
sg28
Nsg29
Nsg30
I3
sg31
I7
sg32
Nsg33
Nsg34
S'VAUX'
p2863
sg36
g2852
sg37
I00
sba(issf_api
Word
p2864
(dp2865
g6
I00
sg7
V\u0964
p2866
sg9
(issf_api
FeatureSet
p2867
(dp2868
g12
(dp2869
S'name'
p2870
S'\xe0\xa5\xa4'
p2871
sS'chunkid'
p2872
S'BLK'
p2873
sS'drel'
p2874
S'rsym:VGF'
p2875
sS'chunktype'
p2876
S'head:BLK'
p2877
sS'af'
p2878
S'\xe0\xa5\xa4,punc,,,,,,'
p2879
ssbsg26
I00
sg27
I00
sg28
Nsg29
Nsg30
I4
sg31
I7
sg32
Nsg33
Nsg34
S'SYM'
p2880
sg36
g2867
sg37
I00
sba(issf_api
Word
p2881
(dp2882
g6
I00
sg7
V\u0907\u0938
p2883
sg9
(issf_api
FeatureSet
p2884
(dp2885
g12
(dp2886
S'name'
p2887
S'\xe0\xa4\x87\xe0\xa4\xb8'
p2888
sS'drel'
p2889
S'nmod__adj:NP'
p2890
sS'chunktype'
p2891
S'child:NP'
p2892
sS'af'
p2893
S'\xe0\xa4\xaf\xe0\xa4\xb9,pn,any,sg,3,o,,'
p2894
ssbsg26
I00
sg27
I00
sg28
Nsg29
Nsg30
I0
sg31
I8
sg32
Nsg33
Nsg34
S'DEM'
p2895
sg36
g2884
sg37
I00
sba(issf_api
Word
p2896
(dp2897
g6
I00
sg7
V\u0938\u093f\u0932\u0938\u093f\u0932\u0947
p2898
sg9
(issf_api
FeatureSet
p2899
(dp2900
g12
(dp2901
S'comment'
p2902
S'probsent'
p2903
sS'name'
p2904
S'\xe0\xa4\xb8\xe0\xa4\xbf\xe0\xa4\xb2\xe0\xa4\xb8\xe0\xa4\xbf\xe0\xa4\xb2\xe0\xa5\x87'
p2905
sS'af'
p2906
S'\xe0\xa4\xb8\xe0\xa4\xbf\xe0\xa4\xb2\xe0\xa4\xb8\xe0\xa4\xbf\xe0\xa4\xb2\xe0\xa4\xbe,n,m,sg,3,o,0_\xe0\xa4\xae\xe0\xa5\x87\xe0\xa4\x82,0'
p2907
sS'chunkid'
p2908
S'NP'
p2909
sS'drel'
p2910
S'k7:NULL__VGF'
p2911
sS'vpos'
p2912
S'vib_3'
p2913
sS'chunktype'
p2914
S'head:NP'
p2915
ssbsg26
I00
sg27
I00
sg28
Nsg29
Nsg30
I0
sg31
I8
sg32
Nsg33
Nsg34
S'NN'
p2916
sg36
g2899
sg37
I00
sba(issf_api
Word
p2917
(dp2918
g6
I00
sg7
V\u092e\u0947\u0902
p2919
sg9
(issf_api
FeatureSet
p2920
(dp2921
g12
(dp2922
S'name'
p2923
S'\xe0\xa4\xae\xe0\xa5\x87\xe0\xa4\x82'
p2924
sS'drel'
p2925
S'lwg__psp:NP'
p2926
sS'chunktype'
p2927
S'child:NP'
p2928
sS'af'
p2929
S'\xe0\xa4\xae\xe0\xa5\x87\xe0\xa4\x82,psp,,,,,,'
p2930
ssbsg26
I00
sg27
I00
sg28
Nsg29
Nsg30
I0
sg31
I8
sg32
Nsg33
Nsg34
S'PSP'
p2931
sg36
g2920
sg37
I00
sba(issf_api
Word
p2932
(dp2933
g6
I00
sg7
V\u092a\u0941\u0932\u093f\u0938
p2934
sg9
(issf_api
FeatureSet
p2935
(dp2936
g12
(dp2937
S'crefhead'
p2938
S'\xe0\xa4\xaa\xe0\xa5\x81\xe0\xa4\xb2\xe0\xa4\xbf\xe0\xa4\xb8:i25'
p2939
sS'name'
p2940
S'\xe0\xa4\xaa\xe0\xa5\x81\xe0\xa4\xb2\xe0\xa4\xbf\xe0\xa4\xb8'
p2941
sS'af'
p2942
S'\xe0\xa4\xaa\xe0\xa5\x81\xe0\xa4\xb2\xe0\xa4\xbf\xe0\xa4\xb8,n,f,sg,3,o,0_\xe0\xa4\xa8\xe0\xa5\x87,0'
p2943
sS'chunkid'
p2944
S'NP2'
p2945
sS'creftype'
p2946
S'Coreference-Identity:i20'
p2947
sS'chunktype'
p2948
S'head:NP2'
p2949
sS'vpos'
p2950
S'vib_2'
p2951
sS'cref'
p2952
S'i25%1:t9'
p2953
sS'drel'
p2954
S'k1:NULL__VGF'
p2955
ssbsg26
I00
sg27
I00
sg28
Nsg29
Nsg30
I1
sg31
I8
sg32
Nsg33
Nsg34
S'NN'
p2956
sg36
g2935
sg37
I00
sba(issf_api
Word
p2957
(dp2958
g6
I00
sg7
V\u0928\u0947
p2959
sg9
(issf_api
FeatureSet
p2960
(dp2961
g12
(dp2962
S'name'
p2963
S'\xe0\xa4\xa8\xe0\xa5\x87'
p2964
sS'drel'
p2965
S'lwg__psp:NP2'
p2966
sS'chunktype'
p2967
S'child:NP2'
p2968
sS'af'
p2969
S'\xe0\xa4\xa8\xe0\xa5\x87,psp,,,,,,'
p2970
ssbsg26
I00
sg27
I00
sg28
Nsg29
Nsg30
I1
sg31
I8
sg32
Nsg33
Nsg34
S'PSP'
p2971
sg36
g2960
sg37
I00
sba(issf_api
Word
p2972
(dp2973
g6
I00
sg7
V\u096f
p2974
sg9
(issf_api
FeatureSet
p2975
(dp2976
g12
(dp2977
S'name'
p2978
S'\xe0\xa5\xaf'
p2979
sS'drel'
p2980
S'nmod__adj:NP3'
p2981
sS'cref'
p2982
S'i26%0:t12'
p2983
sS'chunktype'
p2984
S'child:NP3'
p2985
sS'af'
p2986
S'\xe0\xa5\xaf,num,any,any,,any,,'
p2987
ssbsg26
I00
sg27
I00
sg28
Nsg29
Nsg30
I2
sg31
I8
sg32
Nsg33
Nsg34
S'QC'
p2988
sg36
g2975
sg37
I00
sba(issf_api
Word
p2989
(dp2990
g6
I00
sg7
V\u0906\u0924\u0902\u0915\u0935\u093e\u0926\u093f\u092f\u094b\u0902
p2991
sg9
(issf_api
FeatureSet
p2992
(dp2993
g12
(dp2994
S'crefhead'
p2995
S'\xe0\xa4\x86\xe0\xa4\xa4\xe0\xa4\x82\xe0\xa4\x95\xe0\xa4\xb5\xe0\xa4\xbe\xe0\xa4\xa6\xe0\xa4\xbf\xe0\xa4\xaf\xe0\xa5\x8b\xe0\xa4\x82:i26'
p2996
sS'name'
p2997
S'\xe0\xa4\x86\xe0\xa4\xa4\xe0\xa4\x82\xe0\xa4\x95\xe0\xa4\xb5\xe0\xa4\xbe\xe0\xa4\xa6\xe0\xa4\xbf\xe0\xa4\xaf\xe0\xa5\x8b\xe0\xa4\x82'
p2998
sS'af'
p2999
S'\xe0\xa4\x86\xe0\xa4\xa4\xe0\xa4\x82\xe0\xa4\x95\xe0\xa4\xb5\xe0\xa4\xbe\xe0\xa4\xa6\xe0\xa5\x80,n,m,pl,3,d,0,0'
p3000
sS'chunkid'
p3001
S'NP3'
p3002
sS'chunktype'
p3003
S'head:NP3'
p3004
sS'crefchainhead'
p3005
S'i26:t12'
p3006
sS'cref'
p3007
S'i26%1:t12'
p3008
sS'drel'
p3009
S'vmod:NULL__VGF'
p3010
ssbsg26
I00
sg27
I00
sg28
Nsg29
Nsg30
I2
sg31
I8
sg32
Nsg33
Nsg34
S'NN'
p3011
sg36
g2992
sg37
I00
sba(issf_api
Word
p3012
(dp3013
g6
I00
sg7
V,
p3014
sg9
(issf_api
FeatureSet
p3015
(dp3016
g12
(dp3017
S'name'
p3018
S','
p3019
sS'drel'
p3020
S'rsym:NP3'
p3021
sS'chunktype'
p3022
S'child:NP3'
p3023
sS'af'
p3024
S'COMMA,punc,,,,,,'
p3025
ssbsg26
I00
sg27
I00
sg28
Nsg29
Nsg30
I2
sg31
I8
sg32
Nsg33
Nsg34
S'SYM'
p3026
sg36
g3015
sg37
I00
sba(issf_api
Word
p3027
(dp3028
g6
I00
sg7
V\u091c\u093f\u0928\u092e\u0947\u0902
p3029
sg9
(issf_api
FeatureSet
p3030
(dp3031
g12
(dp3032
S'crefhead'
p3033
S'\xe0\xa4\x9c\xe0\xa4\xbf\xe0\xa4\xa8\xe0\xa4\xae\xe0\xa5\x87\xe0\xa4\x82:i27'
p3034
sS'name'
p3035
S'\xe0\xa4\x9c\xe0\xa4\xbf\xe0\xa4\xa8\xe0\xa4\xae\xe0\xa5\x87\xe0\xa4\x82'
p3036
sS'af'
p3037
S'\xe0\xa4\x9c\xe0\xa5\x8b,pn,any,pl,3,o,0_\xe0\xa4\xb8\xe0\xa5\x87,meM'
p3038
sS'coref'
p3039
S'\xe0\xa4\x86\xe0\xa4\xa4\xe0\xa4\x82\xe0\xa4\x95\xe0\xa4\xb5\xe0\xa4\xbe\xe0\xa4\xa6\xe0\xa4\xbf\xe0\xa4\xaf\xe0\xa5\x8b\xe0\xa4\x82'
p3040
sS'chunkid'
p3041
S'NP4'
p3042
sS'creftype'
p3043
S'Anaphora-C:i26'
p3044
sS'chunktype'
p3045
S'head:NP4'
p3046
sS'vpos'
p3047
S'vib_2'
p3048
sS'cref'
p3049
S'i27%1:t12'
p3050
sS'drel'
p3051
S'k5:VGF'
p3052
ssbsg26
I00
sg27
I00
sg28
Nsg29
Nsg30
I3
sg31
I8
sg32
Nsg33
Nsg34
S'PRP'
p3053
sg36
g3030
sg37
I00
sba(issf_api
Word
p3054
(dp3055
g6
I00
sg7
V\u0938\u0947
p3056
sg9
(issf_api
FeatureSet
p3057
(dp3058
g12
(dp3059
S'name'
p3060
S'\xe0\xa4\xb8\xe0\xa5\x87'
p3061
sS'drel'
p3062
S'lwg__psp:NP4'
p3063
sS'chunktype'
p3064
S'child:NP4'
p3065
sS'af'
p3066
S'\xe0\xa4\xb8\xe0\xa5\x87,psp,,,,,,'
p3067
ssbsg26
I00
sg27
I00
sg28
Nsg29
Nsg30
I3
sg31
I8
sg32
Nsg33
Nsg34
S'PSP'
p3068
sg36
g3057
sg37
I00
sba(issf_api
Word
p3069
(dp3070
g6
I00
sg7
V\u096d
p3071
sg9
(issf_api
FeatureSet
p3072
(dp3073
g12
(dp3074
S'name'
p3075
S'\xe0\xa5\xad'
p3076
sS'drel'
p3077
S'nmod__adj:NP5'
p3078
sS'chunktype'
p3079
S'child:NP5'
p3080
sS'af'
p3081
S'\xe0\xa5\xad,num,any,any,,any,,'
p3082
ssbsg26
I00
sg27
I00
sg28
Nsg29
Nsg30
I4
sg31
I8
sg32
Nsg33
Nsg34
S'QC'
p3083
sg36
g3072
sg37
I00
sba(issf_api
Word
p3084
(dp3085
g6
I00
sg7
V\u0926\u093f\u092e\u0938\u093e
p3086
sg9
(issf_api
FeatureSet
p3087
(dp3088
g12
(dp3089
S'name'
p3090
S'\xe0\xa4\xa6\xe0\xa4\xbf\xe0\xa4\xae\xe0\xa4\xb8\xe0\xa4\xbe'
p3091
sS'af'
p3092
S'\xe0\xa4\xa6\xe0\xa4\xbf\xe0\xa4\xae\xe0\xa4\xb8\xe0\xa4\xbe,n,f,sg,3,o,0,0'
p3093
sS'chunkid'
p3094
S'NP5'
p3095
sS'drel'
p3096
S'ccof:CCP'
p3097
sS'chunktype'
p3098
S'head:NP5'
p3099
sS'cref'
p3100
S'i28%0:t5'
p3101
ssbsg26
I00
sg27
I00
sg28
Nsg29
Nsg30
I4
sg31
I8
sg32
Nsg33
Nsg34
S'NNP'
p3102
sg36
g3087
sg37
I00
sba(issf_api
Word
p3103
(dp3104
g6
I00
sg7
V\u0914\u0930
p3105
sg9
(issf_api
FeatureSet
p3106
(dp3107
g12
(dp3108
S'name'
p3109
S'\xe0\xa4\x94\xe0\xa4\xb0'
p3110
sS'chunkid'
p3111
S'CCP'
p3112
sS'drel'
p3113
S'nmod:NP7'
p3114
sS'chunktype'
p3115
S'head:CCP'
p3116
sS'af'
p3117
S'\xe0\xa4\x94\xe0\xa4\xb0,avy,,,,,,'
p3118
ssbsg26
I00
sg27
I00
sg28
Nsg29
Nsg30
I5
sg31
I8
sg32
Nsg33
Nsg34
S'CC'
p3119
sg36
g3106
sg37
I00
sba(issf_api
Word
p3120
(dp3121
g6
I00
sg7
V\u0968
p3122
sg9
(issf_api
FeatureSet
p3123
(dp3124
g12
(dp3125
S'name'
p3126
S'\xe0\xa5\xa8'
p3127
sS'drel'
p3128
S'nmod__adj:NP6'
p3129
sS'chunktype'
p3130
S'child:NP6'
p3131
sS'af'
p3132
S'\xe0\xa5\xa8,num,any,any,,any,,'
p3133
ssbsg26
I00
sg27
I00
sg28
Nsg29
Nsg30
I6
sg31
I8
sg32
Nsg33
Nsg34
S'QC'
p3134
sg36
g3123
sg37
I00
sba(issf_api
Word
p3135
(dp3136
g6
I00
sg7
V\u0915\u0930\u094d\u092c\u0940
p3137
sg9
(issf_api
FeatureSet
p3138
(dp3139
g12
(dp3140
S'name'
p3141
S'\xe0\xa4\x95\xe0\xa4\xb0\xe0\xa5\x8d\xe0\xa4\xac\xe0\xa5\x80'
p3142
sS'af'
p3143
S'\xe0\xa4\x95\xe0\xa4\xb0\xe0\xa5\x8d\xe0\xa4\xac\xe0\xa5\x80,n,f,sg,3,o,0,0'
p3144
sS'chunkid'
p3145
S'NP6'
p3146
sS'drel'
p3147
S'ccof:CCP'
p3148
sS'chunktype'
p3149
S'head:NP6'
p3150
sS'cref'
p3151
S'i29%0:t4'
p3152
ssbsg26
I00
sg27
I00
sg28
Nsg29
Nsg30
I6
sg31
I8
sg32
Nsg33
Nsg34
S'NNP'
p3153
sg36
g3138
sg37
I00
sba(issf_api
Word
p3154
(dp3155
g6
I00
sg7
V\u091c\u0928\u091c\u093e\u0924\u093f
p3156
sg9
(issf_api
FeatureSet
p3157
(dp3158
g12
(dp3159
S'crefhead'
p3160
S'\xe0\xa4\x9c\xe0\xa4\xa8\xe0\xa4\x9c\xe0\xa4\xbe\xe0\xa4\xa4\xe0\xa4\xbf:i29,\xe0\xa4\x9c\xe0\xa4\xa8\xe0\xa4\x9c\xe0\xa4\xbe\xe0\xa4\xa4\xe0\xa4\xbf:i28'
p3161
sS'name'
p3162
S'\xe0\xa4\x9c\xe0\xa4\xa8\xe0\xa4\x9c\xe0\xa4\xbe\xe0\xa4\xa4\xe0\xa4\xbf'
p3163
sS'af'
p3164
S'\xe0\xa4\x9c\xe0\xa4\xa8\xe0\xa4\x9c\xe0\xa4\xbe\xe0\xa4\xa4\xe0\xa4\xbf,n,f,sg,3,o,0_\xe0\xa4\x95\xe0\xa4\xbe,0'
p3165
sS'chunkid'
p3166
S'NP7'
p3167
sS'creftype'
p3168
S'Coreference-Identity:i23,Coreference-PartOf:i18'
p3169
sS'chunktype'
p3170
S'head:NP7'
p3171
sS'vpos'
p3172
S'vib_2'
p3173
sS'cref'
p3174
S'i29%1:t4,i28%1:t5'
p3175
sS'drel'
p3176
S'r6v:VGF'
p3177
ssbsg26
I00
sg27
I00
sg28
Nsg29
Nsg30
I7
sg31
I8
sg32
Nsg33
Nsg34
S'NN'
p3178
sg36
g3157
sg37
I00
sba(issf_api
Word
p3179
(dp3180
g6
I00
sg7
V\u0915\u0947
p3181
sg9
(issf_api
FeatureSet
p3182
(dp3183
g12
(dp3184
S'name'
p3185
S'\xe0\xa4\x95\xe0\xa5\x87'
p3186
sS'poslcat'
p3187
S'NM'
p3188
sS'drel'
p3189
S'lwg__psp:NP7'
p3190
sS'chunktype'
p3191
S'child:NP7'
p3192
sS'af'
p3193
S'\xe0\xa4\x95\xe0\xa4\xbe,psp,m,pl,,d,,'
p3194
ssbsg26
I00
sg27
I00
sg28
Nsg29
Nsg30
I7
sg31
I8
sg32
Nsg33
Nsg34
S'PSP'
p3195
sg36
g3182
sg37
I00
sba(issf_api
Word
p3196
(dp3197
g6
I00
sg7
V\u0939\u0948\u0902
p3198
sg9
(issf_api
FeatureSet
p3199
(dp3200
g12
(dp3201
S'name'
p3202
S'\xe0\xa4\xb9\xe0\xa5\x88\xe0\xa4\x82'
p3203
sS'af'
p3204
S'\xe0\xa4\xb9\xe0\xa5\x88,v,any,pl,3,,\xe0\xa4\xb9\xe0\xa5\x88,hE'
p3205
sS'chunkid'
p3206
S'VGF'
p3207
sS'drel'
p3208
S'nmod__relc:NP3'
p3209
sS'chunktype'
p3210
S'head:VGF'
p3211
sS'voicetype'
p3212
S'active'
p3213
sS'stype'
p3214
S'declarative'
p3215
ssbsg26
I00
sg27
I00
sg28
Nsg29
Nsg30
I8
sg31
I8
sg32
Nsg33
Nsg34
S'VM'
p3216
sg36
g3199
sg37
I00
sba(issf_api
Word
p3217
(dp3218
g6
I00
sg7
V\u0964
p3219
sg9
(issf_api
FeatureSet
p3220
(dp3221
g12
(dp3222
S'name'
p3223
S'\xe0\xa5\xa4'
p3224
sS'chunkid'
p3225
S'BLK'
p3226
sS'drel'
p3227
S'rsym:NULL__VGF'
p3228
sS'chunktype'
p3229
S'head:BLK'
p3230
sS'af'
p3231
S'\xe0\xa5\xa4,punc,,,,,,'
p3232
ssbsg26
I00
sg27
I00
sg28
Nsg29
Nsg30
I9
sg31
I8
sg32
Nsg33
Nsg34
S'SYM'
p3233
sg36
g3220
sg37
I00
sbasS'sentenceList'
p3234
(lp3235
(issf_api
Sentence
p3236
(dp3237
S'rootNode'
p3238
(lp3239
sg31
I0
sS'wordNumList'
p3240
(lp3241
I0
aI1
aI2
aI3
aI4
aI5
aI6
aI7
aI8
aI9
aI10
aI11
aI12
aI13
aI14
asS'nodeDict'
p3242
(dp3243
S'VGF'
p3244
(issf_api
Node
p3245
(dp3246
S'nodeRelation'
p3247
S'None'
p3248
sS'nodeName'
p3249
g3244
sS'nodeParent'
p3250
g3248
sS'nodeLevel'
p3251
I-1
sg30
I6
sS'childList'
p3252
(lp3253
S'JJP'
p3254
aS'BLK'
p3255
aS'NP4'
p3256
aS'RBP'
p3257
aS'NP2'
p3258
asbsg3254
(issf_api
Node
p3259
(dp3260
g3247
S'pof'
p3261
sg3249
g3254
sg3250
S'VGF'
p3262
sg3251
I-1
sg30
I5
sg3252
(lp3263
sbsg3255
(issf_api
Node
p3264
(dp3265
g3247
S'rsym'
p3266
sg3249
g3255
sg3250
S'VGF'
p3267
sg3251
I-1
sg30
I7
sg3252
(lp3268
sbsS'NP'
p3269
(issf_api
Node
p3270
(dp3271
g3247
S'r6'
p3272
sg3249
g3269
sg3250
S'NP2'
p3273
sg3251
I-1
sg30
I0
sg3252
(lp3274
sbsg3256
(issf_api
Node
p3275
(dp3276
g3247
S'k1'
p3277
sg3249
g3256
sg3250
S'VGF'
p3278
sg3251
I-1
sg30
I3
sg3252
(lp3279
S'NP3'
p3280
asbsg3257
(issf_api
Node
p3281
(dp3282
g3247
S'adv'
p3283
sg3249
g3257
sg3250
S'VGF'
p3284
sg3251
I-1
sg30
I4
sg3252
(lp3285
sbsg3280
(issf_api
Node
p3286
(dp3287
g3247
S'r6'
p3288
sg3249
g3280
sg3250
S'NP4'
p3289
sg3251
I-1
sg30
I2
sg3252
(lp3290
sbsg3258
(issf_api
Node
p3291
(dp3292
g3247
S'k7p'
p3293
sg3249
g3258
sg3250
S'VGF'
p3294
sg3251
I-1
sg30
I1
sg3252
(lp3295
g3269
asbssS'chunkList'
p3296
(lp3297
(issf_api
Chunk
p3298
(dp3299
g3249
g19
sg30
I0
sS'chunkTag'
p3300
g35
sg31
I0
sg3240
(lp3301
I0
aI1
asg36
(issf_api
FeatureSet
p3302
(dp3303
g12
(dp3304
S'name'
p3305
g3269
sS'drel'
p3306
S'r6:NP2'
p3307
ssbsba(issf_api
Chunk
p3308
(dp3309
g3249
g100
sg30
I1
sg3300
g111
sg31
I0
sg3240
(lp3310
I2
aI3
aI4
aI5
asg36
(issf_api
FeatureSet
p3311
(dp3312
g12
(dp3313
S'name'
p3314
g3258
sS'drel'
p3315
S'k7p:VGF'
p3316
ssbsba(issf_api
Chunk
p3317
(dp3318
g3249
g138
sg30
I2
sg3300
g145
sg31
I0
sg3240
(lp3319
I6
aI7
asg36
(issf_api
FeatureSet
p3320
(dp3321
g12
(dp3322
S'name'
p3323
g3280
sS'drel'
p3324
S'r6:NP4'
p3325
ssbsba(issf_api
Chunk
p3326
(dp3327
g3249
g170
sg30
I3
sg3300
g177
sg31
I0
sg3240
(lp3328
I8
asg36
(issf_api
FeatureSet
p3329
(dp3330
g12
(dp3331
S'name'
p3332
g3256
sS'drel'
p3333
S'k1:VGF'
p3334
ssbsba(issf_api
Chunk
p3335
(dp3336
g3249
g187
sg30
I4
sg3300
g194
sg31
I0
sg3240
(lp3337
I9
asg36
(issf_api
FeatureSet
p3338
(dp3339
g12
(dp3340
S'name'
p3341
g3257
sS'drel'
p3342
S'adv:VGF'
p3343
ssbsba(issf_api
Chunk
p3344
(dp3345
g3249
g204
sg30
I5
sg3300
g211
sg31
I0
sg3240
(lp3346
I10
asg36
(issf_api
FeatureSet
p3347
(dp3348
g12
(dp3349
S'name'
p3350
g3254
sS'drel'
p3351
S'pof:VGF'
p3352
ssbsba(issf_api
Chunk
p3353
(dp3354
g3249
g223
sg30
I6
sg3300
g232
sg31
I0
sg3240
(lp3355
I11
aI12
aI13
asg36
(issf_api
FeatureSet
p3356
(dp3357
g12
(dp3358
S'name'
p3359
g3244
ssbsba(issf_api
Chunk
p3360
(dp3361
g3249
g272
sg30
I7
sg3300
g279
sg31
I0
sg3240
(lp3362
I14
asg36
(issf_api
FeatureSet
p3363
(dp3364
g12
(dp3365
S'name'
p3366
g3255
sS'drel'
p3367
S'rsym:VGF'
p3368
ssbsbasba(issf_api
Sentence
p3369
(dp3370
g3238
(lp3371
sg31
I1
sg3240
(lp3372
I15
aI16
aI17
aI18
aI19
aI20
aI21
aI22
aI23
aI24
aI25
aI26
aI27
aI28
aI29
aI30
aI31
aI32
aI33
aI34
aI35
aI36
aI37
aI38
aI39
aI40
aI41
aI42
asg3242
(dp3373
S'VGF'
p3374
(issf_api
Node
p3375
(dp3376
g3247
S'ccof'
p3377
sg3249
g3374
sg3250
S'CCP'
p3378
sg3251
I-1
sg30
I5
sg3252
(lp3379
S'NP5'
p3380
aS'NP'
p3381
aS'NP3'
p3382
aS'NP2'
p3383
asbsS'CCP'
p3384
(issf_api
Node
p3385
(dp3386
g3247
g3248
sg3249
g3384
sg3250
g3248
sg3251
I-1
sg30
I6
sg3252
(lp3387
g3374
aS'VGF2'
p3388
aS'BLK'
p3389
asbsg3388
(issf_api
Node
p3390
(dp3391
g3247
S'ccof'
p3392
sg3249
g3388
sg3250
S'CCP'
p3393
sg3251
I-1
sg30
I11
sg3252
(lp3394
S'NP9'
p3395
aS'NP7'
p3396
asbsg3380
(issf_api
Node
p3397
(dp3398
g3247
S'pof'
p3399
sg3249
g3380
sg3250
S'VGF'
p3400
sg3251
I-1
sg30
I4
sg3252
(lp3401
S'NP4'
p3402
asbsg3395
(issf_api
Node
p3403
(dp3404
g3247
S'pof'
p3405
sg3249
g3395
sg3250
S'VGF2'
p3406
sg3251
I-1
sg30
I10
sg3252
(lp3407
S'NP8'
p3408
asbsg3408
(issf_api
Node
p3409
(dp3410
g3247
S'r6-k2'
p3411
sg3249
g3408
sg3250
S'NP9'
p3412
sg3251
I-1
sg30
I9
sg3252
(lp3413
sbsg3389
(issf_api
Node
p3414
(dp3415
g3247
S'rsym'
p3416
sg3249
g3389
sg3250
S'CCP'
p3417
sg3251
I-1
sg30
I12
sg3252
(lp3418
sbsg3381
(issf_api
Node
p3419
(dp3420
g3247
S'k7'
p3421
sg3249
g3381
sg3250
S'VGF'
p3422
sg3251
I-1
sg30
I0
sg3252
(lp3423
sbsg3402
(issf_api
Node
p3424
(dp3425
g3247
S'r6-k1'
p3426
sg3249
g3402
sg3250
S'NP5'
p3427
sg3251
I-1
sg30
I3
sg3252
(lp3428
sbsg3396
(issf_api
Node
p3429
(dp3430
g3247
S'k2'
p3431
sg3249
g3396
sg3250
S'VGF2'
p3432
sg3251
I-1
sg30
I8
sg3252
(lp3433
S'NP6'
p3434
asbsg3434
(issf_api
Node
p3435
(dp3436
g3247
S'nmod'
p3437
sg3249
g3434
sg3250
S'NP7'
p3438
sg3251
I-1
sg30
I7
sg3252
(lp3439
sbsg3382
(issf_api
Node
p3440
(dp3441
g3247
S'k7'
p3442
sg3249
g3382
sg3250
S'VGF'
p3443
sg3251
I-1
sg30
I2
sg3252
(lp3444
sbsg3383
(issf_api
Node
p3445
(dp3446
g3247
S'k7p'
p3447
sg3249
g3383
sg3250
S'VGF'
p3448
sg3251
I-1
sg30
I1
sg3252
(lp3449
sbssg3296
(lp3450
(issf_api
Chunk
p3451
(dp3452
g3249
g306
sg30
I0
sg3300
g313
sg31
I1
sg3240
(lp3453
I15
aI16
aI17
asg36
(issf_api
FeatureSet
p3454
(dp3455
g12
(dp3456
S'name'
p3457
g3381
sS'drel'
p3458
S'k7:VGF'
p3459
ssbsba(issf_api
Chunk
p3460
(dp3461
g3249
g342
sg30
I1
sg3300
g353
sg31
I1
sg3240
(lp3462
I18
aI19
asg36
(issf_api
FeatureSet
p3463
(dp3464
g12
(dp3465
S'name'
p3466
g3383
sS'drel'
p3467
S'k7p:VGF'
p3468
ssbsba(issf_api
Chunk
p3469
(dp3470
g3249
g397
sg30
I2
sg3300
g406
sg31
I1
sg3240
(lp3471
I20
aI21
aI22
asg36
(issf_api
FeatureSet
p3472
(dp3473
g12
(dp3474
S'name'
p3475
g3382
sS'drel'
p3476
S'k7:VGF'
p3477
ssbsba(issf_api
Chunk
p3478
(dp3479
g3249
g452
sg30
I3
sg3300
g461
sg31
I1
sg3240
(lp3480
I23
aI24
aI25
asg36
(issf_api
FeatureSet
p3481
(dp3482
g12
(dp3483
S'name'
p3484
g3402
sS'drel'
p3485
S'r6-k1:NP5'
p3486
ssbsba(issf_api
Chunk
p3487
(dp3488
g3249
g490
sg30
I4
sg3300
g497
sg31
I1
sg3240
(lp3489
I26
asg36
(issf_api
FeatureSet
p3490
(dp3491
g12
(dp3492
S'name'
p3493
g3380
sS'drel'
p3494
S'pof:VGF'
p3495
ssbsba(issf_api
Chunk
p3496
(dp3497
g3249
g511
sg30
I5
sg3300
g522
sg31
I1
sg3240
(lp3498
I27
aI28
asg36
(issf_api
FeatureSet
p3499
(dp3500
g12
(dp3501
S'name'
p3502
g3374
sS'drel'
p3503
S'ccof:CCP'
p3504
ssbsba(issf_api
Chunk
p3505
(dp3506
g3249
g549
sg30
I6
sg3300
g556
sg31
I1
sg3240
(lp3507
I29
asg36
(issf_api
FeatureSet
p3508
(dp3509
g12
(dp3510
S'name'
p3511
g3384
ssbsba(issf_api
Chunk
p3512
(dp3513
g3249
g568
sg30
I7
sg3300
g577
sg31
I1
sg3240
(lp3514
I30
aI31
asg36
(issf_api
FeatureSet
p3515
(dp3516
g12
(dp3517
S'name'
p3518
g3434
sS'drel'
p3519
S'nmod:NP7'
p3520
ssbsba(issf_api
Chunk
p3521
(dp3522
g3249
g623
sg30
I8
sg3300
g632
sg31
I1
sg3240
(lp3523
I32
aI33
aI34
asg36
(issf_api
FeatureSet
p3524
(dp3525
g12
(dp3526
S'name'
p3527
g3396
sS'drel'
p3528
S'k2:VGF2'
p3529
ssbsba(issf_api
Chunk
p3530
(dp3531
g3249
g661
sg30
I9
sg3300
g670
sg31
I1
sg3240
(lp3532
I35
aI36
asg36
(issf_api
FeatureSet
p3533
(dp3534
g12
(dp3535
S'name'
p3536
g3408
sS'drel'
p3537
S'r6-k2:NP9'
p3538
ssbsba(issf_api
Chunk
p3539
(dp3540
g3249
g699
sg30
I10
sg3300
g706
sg31
I1
sg3240
(lp3541
I37
asg36
(issf_api
FeatureSet
p3542
(dp3543
g12
(dp3544
S'name'
p3545
g3395
sS'drel'
p3546
S'pof:VGF2'
p3547
ssbsba(issf_api
Chunk
p3548
(dp3549
g3249
g720
sg30
I11
sg3300
g735
sg31
I1
sg3240
(lp3550
I38
aI39
aI40
aI41
asg36
(issf_api
FeatureSet
p3551
(dp3552
g12
(dp3553
S'name'
p3554
g3388
sS'drel'
p3555
S'ccof:CCP'
p3556
ssbsba(issf_api
Chunk
p3557
(dp3558
g3249
g796
sg30
I12
sg3300
g803
sg31
I1
sg3240
(lp3559
I42
asg36
(issf_api
FeatureSet
p3560
(dp3561
g12
(dp3562
S'name'
p3563
g3389
sS'drel'
p3564
S'rsym:CCP'
p3565
ssbsbasba(issf_api
Sentence
p3566
(dp3567
g3238
(lp3568
sg31
I2
sg3240
(lp3569
I43
aI44
aI45
aI46
aI47
aI48
aI49
aI50
aI51
aI52
aI53
aI54
aI55
aI56
aI57
aI58
aI59
aI60
aI61
aI62
aI63
aI64
aI65
asg3242
(dp3570
S'VGF'
p3571
(issf_api
Node
p3572
(dp3573
g3247
g3248
sg3249
g3571
sg3250
g3248
sg3251
I-1
sg30
I10
sg3252
(lp3574
S'JJP'
p3575
aS'NP8'
p3576
aS'BLK'
p3577
aS'NP'
p3578
aS'NP6'
p3579
aS'NP3'
p3580
aS'NP2'
p3581
asbsS'CCP'
p3582
(issf_api
Node
p3583
(dp3584
g3247
S'nmod'
p3585
sg3249
g3582
sg3250
S'NP6'
p3586
sg3251
I-1
sg30
I4
sg3252
(lp3587
S'NP5'
p3588
aS'NP4'
p3589
asbsg3575
(issf_api
Node
p3590
(dp3591
g3247
S'pof'
p3592
sg3249
g3575
sg3250
S'VGF'
p3593
sg3251
I-1
sg30
I9
sg3252
(lp3594
sbsg3588
(issf_api
Node
p3595
(dp3596
g3247
S'ccof'
p3597
sg3249
g3588
sg3250
S'CCP'
p3598
sg3251
I-1
sg30
I5
sg3252
(lp3599
sbsg3576
(issf_api
Node
p3600
(dp3601
g3247
S'k2'
p3602
sg3249
g3576
sg3250
S'VGF'
p3603
sg3251
I-1
sg30
I8
sg3252
(lp3604
S'NP7'
p3605
asbsg3577
(issf_api
Node
p3606
(dp3607
g3247
S'rsym'
p3608
sg3249
g3577
sg3250
S'VGF'
p3609
sg3251
I-1
sg30
I11
sg3252
(lp3610
sbsg3578
(issf_api
Node
p3611
(dp3612
g3247
S'k1'
p3613
sg3249
g3578
sg3250
S'VGF'
p3614
sg3251
I-1
sg30
I0
sg3252
(lp3615
sbsg3589
(issf_api
Node
p3616
(dp3617
g3247
S'ccof'
p3618
sg3249
g3589
sg3250
S'CCP'
p3619
sg3251
I-1
sg30
I3
sg3252
(lp3620
sbsg3605
(issf_api
Node
p3621
(dp3622
g3247
S'r6'
p3623
sg3249
g3605
sg3250
S'NP8'
p3624
sg3251
I-1
sg30
I7
sg3252
(lp3625
sbsg3579
(issf_api
Node
p3626
(dp3627
g3247
S'k7'
p3628
sg3249
g3579
sg3250
S'VGF'
p3629
sg3251
I-1
sg30
I6
sg3252
(lp3630
g3582
asbsg3580
(issf_api
Node
p3631
(dp3632
g3247
S'k7p'
p3633
sg3249
g3580
sg3250
S'VGF'
p3634
sg3251
I-1
sg30
I2
sg3252
(lp3635
sbsg3581
(issf_api
Node
p3636
(dp3637
g3247
S'k7t'
p3638
sg3249
g3581
sg3250
S'VGF'
p3639
sg3251
I-1
sg30
I1
sg3252
(lp3640
sbssg3296
(lp3641
(issf_api
Chunk
p3642
(dp3643
g3249
g834
sg30
I0
sg3300
g845
sg31
I2
sg3240
(lp3644
I43
aI44
aI45
asg36
(issf_api
FeatureSet
p3645
(dp3646
g12
(dp3647
S'name'
p3648
g3578
sS'drel'
p3649
S'k1:VGF'
p3650
ssbsba(issf_api
Chunk
p3651
(dp3652
g3249
g874
sg30
I1
sg3300
g885
sg31
I2
sg3240
(lp3653
I46
aI47
asg36
(issf_api
FeatureSet
p3654
(dp3655
g12
(dp3656
S'name'
p3657
g3581
sS'drel'
p3658
S'k7t:VGF'
p3659
ssbsba(issf_api
Chunk
p3660
(dp3661
g3249
g914
sg30
I2
sg3300
g925
sg31
I2
sg3240
(lp3662
I48
aI49
asg36
(issf_api
FeatureSet
p3663
(dp3664
g12
(dp3665
S'name'
p3666
g3580
sS'drel'
p3667
S'k7p:VGF'
p3668
ssbsba(issf_api
Chunk
p3669
(dp3670
g3249
g954
sg30
I3
sg3300
g963
sg31
I2
sg3240
(lp3671
I50
asg36
(issf_api
FeatureSet
p3672
(dp3673
g12
(dp3674
S'name'
p3675
g3589
sS'drel'
p3676
S'ccof:CCP'
p3677
ssbsba(issf_api
Chunk
p3678
(dp3679
g3249
g973
sg30
I4
sg3300
g980
sg31
I2
sg3240
(lp3680
I51
asg36
(issf_api
FeatureSet
p3681
(dp3682
g12
(dp3683
S'name'
p3684
g3582
sS'drel'
p3685
S'nmod:NP6'
p3686
ssbsba(issf_api
Chunk
p3687
(dp3688
g3249
g994
sg30
I5
sg3300
g1003
sg31
I2
sg3240
(lp3689
I52
asg36
(issf_api
FeatureSet
p3690
(dp3691
g12
(dp3692
S'name'
p3693
g3588
sS'drel'
p3694
S'ccof:CCP'
p3695
ssbsba(issf_api
Chunk
p3696
(dp3697
g3249
g1017
sg30
I6
sg3300
g1028
sg31
I2
sg3240
(lp3698
I53
aI54
aI55
asg36
(issf_api
FeatureSet
p3699
(dp3700
g12
(dp3701
S'name'
p3702
g3579
sS'drel'
p3703
S'k7:VGF'
p3704
ssbsba(issf_api
Chunk
p3705
(dp3706
g3249
g1104
sg30
I7
sg3300
g1115
sg31
I2
sg3240
(lp3707
I56
aI57
aI58
aI59
asg36
(issf_api
FeatureSet
p3708
(dp3709
g12
(dp3710
S'name'
p3711
g3605
sS'drel'
p3712
S'r6:NP8'
p3713
ssbsba(issf_api
Chunk
p3714
(dp3715
g3249
g1140
sg30
I8
sg3300
g1147
sg31
I2
sg3240
(lp3716
I60
asg36
(issf_api
FeatureSet
p3717
(dp3718
g12
(dp3719
S'name'
p3720
g3576
sS'drel'
p3721
S'k2:VGF'
p3722
ssbsba(issf_api
Chunk
p3723
(dp3724
g3249
g1157
sg30
I9
sg3300
g1164
sg31
I2
sg3240
(lp3725
I61
asg36
(issf_api
FeatureSet
p3726
(dp3727
g12
(dp3728
S'name'
p3729
g3575
sS'drel'
p3730
S'pof:VGF'
p3731
ssbsba(issf_api
Chunk
p3732
(dp3733
g3249
g1176
sg30
I10
sg3300
g1185
sg31
I2
sg3240
(lp3734
I62
aI63
aI64
asg36
(issf_api
FeatureSet
p3735
(dp3736
g12
(dp3737
S'name'
p3738
g3571
ssbsba(issf_api
Chunk
p3739
(dp3740
g3249
g1225
sg30
I11
sg3300
g1232
sg31
I2
sg3240
(lp3741
I65
asg36
(issf_api
FeatureSet
p3742
(dp3743
g12
(dp3744
S'name'
p3745
g3577
sS'drel'
p3746
S'rsym:VGF'
p3747
ssbsbasba(issf_api
Sentence
p3748
(dp3749
g3238
(lp3750
sg31
I3
sg3240
(lp3751
I66
aI67
aI68
aI69
aI70
aI71
aI72
aI73
aI74
aI75
aI76
aI77
aI78
aI79
aI80
aI81
aI82
aI83
aI84
aI85
aI86
aI87
aI88
aI89
aI90
aI91
aI92
aI93
aI94
aI95
aI96
asg3242
(dp3752
S'VGNF'
p3753
(issf_api
Node
p3754
(dp3755
g3247
S'nmod__k1inv'
p3756
sg3249
g3753
sg3250
S'NP3'
p3757
sg3251
I-1
sg30
I5
sg3252
(lp3758
S'NP'
p3759
aS'NP2'
p3760
asbsS'VGF'
p3761
(issf_api
Node
p3762
(dp3763
g3247
g3248
sg3249
g3761
sg3250
g3248
sg3251
I-1
sg30
I1
sg3252
(lp3764
S'JJP'
p3765
aS'BLK'
p3766
aS'NULL__NP'
p3767
asbsS'VGF3'
p3768
(issf_api
Node
p3769
(dp3770
g3247
S'ccof'
p3771
sg3249
g3768
sg3250
S'CCP2'
p3772
sg3251
I-1
sg30
I17
sg3252
(lp3773
S'JJP4'
p3774
aS'NP8'
p3775
asbsS'CCP'
p3776
(issf_api
Node
p3777
(dp3778
g3247
S'rs'
p3779
sg3249
g3776
sg3250
S'NULL__NP'
p3780
sg3251
I-1
sg30
I2
sg3252
(lp3781
S'CCP2'
p3782
asbsg3765
(issf_api
Node
p3783
(dp3784
g3247
S'k1s'
p3785
sg3249
g3765
sg3250
S'VGF'
p3786
sg3251
I-1
sg30
I0
sg3252
(lp3787
sbsS'VGF2'
p3788
(issf_api
Node
p3789
(dp3790
g3247
S'ccof'
p3791
sg3249
g3788
sg3250
S'CCP2'
p3792
sg3251
I-1
sg30
I11
sg3252
(lp3793
S'NP6'
p3794
aS'NP3'
p3795
asbsS'NP5'
p3796
(issf_api
Node
p3797
(dp3798
g3247
S'r6-k1'
p3799
sg3249
g3796
sg3250
S'NP6'
p3800
sg3251
I-1
sg30
I9
sg3252
(lp3801
S'JJP2'
p3802
asbsg3802
(issf_api
Node
p3803
(dp3804
g3247
S'nmod'
p3805
sg3249
g3802
sg3250
S'NP5'
p3806
sg3251
I-1
sg30
I8
sg3252
(lp3807
S'NP4'
p3808
asbsS'JJP3'
p3809
(issf_api
Node
p3810
(dp3811
g3247
S'nmod'
p3812
sg3249
g3809
sg3250
S'NP8'
p3813
sg3251
I-1
sg30
I14
sg3252
(lp3814
sbsg3774
(issf_api
Node
p3815
(dp3816
g3247
S'pof'
p3817
sg3249
g3774
sg3250
S'VGF3'
p3818
sg3251
I-1
sg30
I16
sg3252
(lp3819
S'NP7'
p3820
asbsg3775
(issf_api
Node
p3821
(dp3822
g3247
S'k1'
p3823
sg3249
g3775
sg3250
S'VGF3'
p3824
sg3251
I-1
sg30
I15
sg3252
(lp3825
g3809
asbsg3766
(issf_api
Node
p3826
(dp3827
g3247
S'rsym'
p3828
sg3249
g3766
sg3250
S'VGF'
p3829
sg3251
I-1
sg30
I18
sg3252
(lp3830
sbsg3767
(issf_api
Node
p3831
(dp3832
g3247
S'k1'
p3833
sg3249
g3767
sg3250
S'VGF'
p3834
sg3251
I-1
sg30
I-1
sg3252
(lp3835
g3776
asbsg3759
(issf_api
Node
p3836
(dp3837
g3247
S'k7t'
p3838
sg3249
g3759
sg3250
S'VGNF'
p3839
sg3251
I-1
sg30
I3
sg3252
(lp3840
sbsg3808
(issf_api
Node
p3841
(dp3842
g3247
S'jjmod'
p3843
sg3249
g3808
sg3250
S'JJP2'
p3844
sg3251
I-1
sg30
I7
sg3252
(lp3845
sbsg3820
(issf_api
Node
p3846
(dp3847
g3247
S'jjmod'
p3848
sg3249
g3820
sg3250
S'JJP4'
p3849
sg3251
I-1
sg30
I13
sg3252
(lp3850
sbsg3794
(issf_api
Node
p3851
(dp3852
g3247
S'pof'
p3853
sg3249
g3794
sg3250
S'VGF2'
p3854
sg3251
I-1
sg30
I10
sg3252
(lp3855
g3796
asbsg3782
(issf_api
Node
p3856
(dp3857
g3247
S'ccof'
p3858
sg3249
g3782
sg3250
S'CCP'
p3859
sg3251
I-1
sg30
I12
sg3252
(lp3860
g3768
ag3788
asbsg3795
(issf_api
Node
p3861
(dp3862
g3247
S'k7'
p3863
sg3249
g3795
sg3250
S'VGF2'
p3864
sg3251
I-1
sg30
I6
sg3252
(lp3865
g3753
asbsg3760
(issf_api
Node
p3866
(dp3867
g3247
S'k7t'
p3868
sg3249
g3760
sg3250
S'VGNF'
p3869
sg3251
I-1
sg30
I4
sg3252
(lp3870
sbssg3296
(lp3871
(issf_api
Chunk
p3872
(dp3873
g3249
g1242
sg30
I0
sg3300
g1249
sg31
I3
sg3240
(lp3874
I66
asg36
(issf_api
FeatureSet
p3875
(dp3876
g12
(dp3877
S'name'
p3878
g3765
sS'drel'
p3879
S'k1s:VGF'
p3880
ssbsba(issf_api
Chunk
p3881
(dp3882
g3249
g1261
sg30
I1
sg3300
g1268
sg31
I3
sg3240
(lp3883
I67
asg36
(issf_api
FeatureSet
p3884
(dp3885
g12
(dp3886
S'name'
p3887
g3761
ssbsba(issf_api
Chunk
p3888
(dp3889
g3249
g1278
sg30
I2
sg3300
g1285
sg31
I3
sg3240
(lp3890
I68
asg36
(issf_api
FeatureSet
p3891
(dp3892
g12
(dp3893
S'name'
p3894
g3776
sS'drel'
p3895
S'rs:NULL__NP'
p3896
ssbsba(issf_api
Chunk
p3897
(dp3898
g3249
g1299
sg30
I3
sg3300
g1310
sg31
I3
sg3240
(lp3899
I69
aI70
asg36
(issf_api
FeatureSet
p3900
(dp3901
g12
(dp3902
S'name'
p3903
g3759
sS'drel'
p3904
S'k7t:VGNF'
p3905
ssbsba(issf_api
Chunk
p3906
(dp3907
g3249
g1352
sg30
I4
sg3300
g1359
sg31
I3
sg3240
(lp3908
I71
aI72
aI73
asg36
(issf_api
FeatureSet
p3909
(dp3910
g12
(dp3911
S'name'
p3912
g3760
sS'drel'
p3913
S'k7t:VGNF'
p3914
ssbsba(issf_api
Chunk
p3915
(dp3916
g3249
g1384
sg30
I5
sg3300
g1391
sg31
I3
sg3240
(lp3917
I74
asg36
(issf_api
FeatureSet
p3918
(dp3919
g12
(dp3920
S'name'
p3921
g3753
sS'drel'
p3922
S'nmod__k1inv:NP3'
p3923
ssbsba(issf_api
Chunk
p3924
(dp3925
g3249
g1405
sg30
I6
sg3300
g1416
sg31
I3
sg3240
(lp3926
I75
aI76
asg36
(issf_api
FeatureSet
p3927
(dp3928
g12
(dp3929
S'name'
p3930
g3795
sS'drel'
p3931
S'k7:VGF2'
p3932
ssbsba(issf_api
Chunk
p3933
(dp3934
g3249
g1443
sg30
I7
sg3300
g1449
sg31
I3
sg3240
(lp3935
I77
aI78
asg36
(issf_api
FeatureSet
p3936
(dp3937
g12
(dp3938
S'name'
p3939
g3808
sS'drel'
p3940
S'jjmod:JJP2'
p3941
ssbsba(issf_api
Chunk
p3942
(dp3943
g3249
g1474
sg30
I8
sg3300
g1481
sg31
I3
sg3240
(lp3944
I79
asg36
(issf_api
FeatureSet
p3945
(dp3946
g12
(dp3947
S'name'
p3948
g3802
sS'drel'
p3949
S'nmod:NP5'
p3950
ssbsba(issf_api
Chunk
p3951
(dp3952
g3249
g1493
sg30
I9
sg3300
g1500
sg31
I3
sg3240
(lp3953
I80
aI81
asg36
(issf_api
FeatureSet
p3954
(dp3955
g12
(dp3956
S'name'
p3957
g3796
sS'drel'
p3958
S'r6-k1:NP6'
p3959
ssbsba(issf_api
Chunk
p3960
(dp3961
g3249
g1525
sg30
I10
sg3300
g1532
sg31
I3
sg3240
(lp3962
I82
asg36
(issf_api
FeatureSet
p3963
(dp3964
g12
(dp3965
S'name'
p3966
g3794
sS'drel'
p3967
S'pof:VGF2'
p3968
ssbsba(issf_api
Chunk
p3969
(dp3970
g3249
g1544
sg30
I11
sg3300
g1555
sg31
I3
sg3240
(lp3971
I83
aI84
aI85
asg36
(issf_api
FeatureSet
p3972
(dp3973
g12
(dp3974
S'name'
p3975
g3788
sS'drel'
p3976
S'ccof:CCP2'
p3977
ssbsba(issf_api
Chunk
p3978
(dp3979
g3249
g1595
sg30
I12
sg3300
g1602
sg31
I3
sg3240
(lp3980
I86
asg36
(issf_api
FeatureSet
p3981
(dp3982
g12
(dp3983
S'name'
p3984
g3782
sS'drel'
p3985
S'ccof:CCP'
p3986
ssbsba(issf_api
Chunk
p3987
(dp3988
g3249
g1614
sg30
I13
sg3300
g1623
sg31
I3
sg3240
(lp3989
I87
aI88
aI89
asg36
(issf_api
FeatureSet
p3990
(dp3991
g12
(dp3992
S'name'
p3993
g3820
sS'drel'
p3994
S'jjmod:JJP4'
p3995
ssbsba(issf_api
Chunk
p3996
(dp3997
g3249
g1669
sg30
I14
sg3300
g1676
sg31
I3
sg3240
(lp3998
I90
asg36
(issf_api
FeatureSet
p3999
(dp4000
g12
(dp4001
S'name'
p4002
g3809
sS'drel'
p4003
S'nmod:NP8'
p4004
ssbsba(issf_api
Chunk
p4005
(dp4006
g3249
g1690
sg30
I15
sg3300
g1699
sg31
I3
sg3240
(lp4007
I91
asg36
(issf_api
FeatureSet
p4008
(dp4009
g12
(dp4010
S'name'
p4011
g3775
sS'drel'
p4012
S'k1:VGF3'
p4013
ssbsba(issf_api
Chunk
p4014
(dp4015
g3249
g1709
sg30
I16
sg3300
g1716
sg31
I3
sg3240
(lp4016
I92
asg36
(issf_api
FeatureSet
p4017
(dp4018
g12
(dp4019
S'name'
p4020
g3774
sS'drel'
p4021
S'pof:VGF3'
p4022
ssbsba(issf_api
Chunk
p4023
(dp4024
g3249
g1728
sg30
I17
sg3300
g1739
sg31
I3
sg3240
(lp4025
I93
aI94
aI95
asg36
(issf_api
FeatureSet
p4026
(dp4027
g12
(dp4028
S'name'
p4029
g3768
sS'drel'
p4030
S'ccof:CCP2'
p4031
ssbsba(issf_api
Chunk
p4032
(dp4033
g3249
g1779
sg30
I18
sg3300
g1786
sg31
I3
sg3240
(lp4034
I96
asg36
(issf_api
FeatureSet
p4035
(dp4036
g12
(dp4037
S'name'
p4038
g3766
sS'drel'
p4039
S'rsym:VGF'
p4040
ssbsbasba(issf_api
Sentence
p4041
(dp4042
g3238
(lp4043
sg31
I4
sg3240
(lp4044
I97
aI98
aI99
aI100
aI101
aI102
aI103
aI104
aI105
aI106
aI107
aI108
aI109
asg3242
(dp4045
S'VGF'
p4046
(issf_api
Node
p4047
(dp4048
g3247
g3248
sg3249
g4046
sg3250
g3248
sg3251
I-1
sg30
I5
sg3252
(lp4049
S'NP5'
p4050
aS'BLK'
p4051
aS'NP'
p4052
aS'NP4'
p4053
aS'NP3'
p4054
aS'NP2'
p4055
asbsg4050
(issf_api
Node
p4056
(dp4057
g3247
S'pof'
p4058
sg3249
g4050
sg3250
S'VGF'
p4059
sg3251
I-1
sg30
I4
sg3252
(lp4060
sbsg4051
(issf_api
Node
p4061
(dp4062
g3247
S'rsym'
p4063
sg3249
g4051
sg3250
S'VGF'
p4064
sg3251
I-1
sg30
I6
sg3252
(lp4065
sbsg4052
(issf_api
Node
p4066
(dp4067
g3247
S'k7t'
p4068
sg3249
g4052
sg3250
S'VGF'
p4069
sg3251
I-1
sg30
I0
sg3252
(lp4070
sbsg4053
(issf_api
Node
p4071
(dp4072
g3247
S'k7p'
p4073
sg3249
g4053
sg3250
S'VGF'
p4074
sg3251
I-1
sg30
I3
sg3252
(lp4075
sbsg4054
(issf_api
Node
p4076
(dp4077
g3247
S'k1'
p4078
sg3249
g4054
sg3250
S'VGF'
p4079
sg3251
I-1
sg30
I2
sg3252
(lp4080
sbsg4055
(issf_api
Node
p4081
(dp4082
g3247
S'k7'
p4083
sg3249
g4055
sg3250
S'VGF'
p4084
sg3251
I-1
sg30
I1
sg3252
(lp4085
sbssg3296
(lp4086
(issf_api
Chunk
p4087
(dp4088
g3249
g1800
sg30
I0
sg3300
g1811
sg31
I4
sg3240
(lp4089
I97
aI98
asg36
(issf_api
FeatureSet
p4090
(dp4091
g12
(dp4092
S'name'
p4093
g4052
sS'drel'
p4094
S'k7t:VGF'
p4095
ssbsba(issf_api
Chunk
p4096
(dp4097
g3249
g1840
sg30
I1
sg3300
g1851
sg31
I4
sg3240
(lp4098
I99
aI100
asg36
(issf_api
FeatureSet
p4099
(dp4100
g12
(dp4101
S'name'
p4102
g4055
sS'drel'
p4103
S'k7:VGF'
p4104
ssbsba(issf_api
Chunk
p4105
(dp4106
g3249
g1891
sg30
I2
sg3300
g1898
sg31
I4
sg3240
(lp4107
I101
aI102
asg36
(issf_api
FeatureSet
p4108
(dp4109
g12
(dp4110
S'name'
p4111
g4054
sS'drel'
p4112
S'k1:VGF'
p4113
ssbsba(issf_api
Chunk
p4114
(dp4115
g3249
g1910
sg30
I3
sg3300
g1917
sg31
I4
sg3240
(lp4116
I103
aI104
asg36
(issf_api
FeatureSet
p4117
(dp4118
g12
(dp4119
S'name'
p4120
g4053
sS'drel'
p4121
S'k7p:VGF'
p4122
ssbsba(issf_api
Chunk
p4123
(dp4124
g3249
g1942
sg30
I4
sg3300
g1949
sg31
I4
sg3240
(lp4125
I105
asg36
(issf_api
FeatureSet
p4126
(dp4127
g12
(dp4128
S'name'
p4129
g4050
sS'drel'
p4130
S'pof:VGF'
p4131
ssbsba(issf_api
Chunk
p4132
(dp4133
g3249
g1961
sg30
I5
sg3300
g1970
sg31
I4
sg3240
(lp4134
I106
aI107
aI108
asg36
(issf_api
FeatureSet
p4135
(dp4136
g12
(dp4137
S'name'
p4138
g4046
ssbsba(issf_api
Chunk
p4139
(dp4140
g3249
g2010
sg30
I6
sg3300
g2017
sg31
I4
sg3240
(lp4141
I109
asg36
(issf_api
FeatureSet
p4142
(dp4143
g12
(dp4144
S'name'
p4145
g4051
sS'drel'
p4146
S'rsym:VGF'
p4147
ssbsbasba(issf_api
Sentence
p4148
(dp4149
g3238
(lp4150
sg31
I5
sg3240
(lp4151
I110
aI111
aI112
aI113
aI114
aI115
aI116
aI117
aI118
aI119
aI120
aI121
aI122
asg3242
(dp4152
S'NP'
p4153
(issf_api
Node
p4154
(dp4155
g3247
S'k7'
p4156
sg3249
g4153
sg3250
S'VGF'
p4157
sg3251
I-1
sg30
I0
sg3252
(lp4158
sbsS'VGF'
p4159
(issf_api
Node
p4160
(dp4161
g3247
g3248
sg3249
g4159
sg3250
g3248
sg3251
I-1
sg30
I3
sg3252
(lp4162
g4153
aS'BLK'
p4163
aS'NP3'
p4164
aS'NP2'
p4165
asbsg4163
(issf_api
Node
p4166
(dp4167
g3247
S'rsym'
p4168
sg3249
g4163
sg3250
S'VGF'
p4169
sg3251
I-1
sg30
I4
sg3252
(lp4170
sbsg4164
(issf_api
Node
p4171
(dp4172
g3247
S'k2'
p4173
sg3249
g4164
sg3250
S'VGF'
p4174
sg3251
I-1
sg30
I2
sg3252
(lp4175
sbsg4165
(issf_api
Node
p4176
(dp4177
g3247
S'k7'
p4178
sg3249
g4165
sg3250
S'VGF'
p4179
sg3251
I-1
sg30
I1
sg3252
(lp4180
sbssg3296
(lp4181
(issf_api
Chunk
p4182
(dp4183
g3249
g2048
sg30
I0
sg3300
g2059
sg31
I5
sg3240
(lp4184
I110
aI111
aI112
aI113
asg36
(issf_api
FeatureSet
p4185
(dp4186
g12
(dp4187
S'name'
p4188
g4153
sS'drel'
p4189
S'k7:VGF'
p4190
ssbsba(issf_api
Chunk
p4191
(dp4192
g3249
g2103
sg30
I1
sg3300
g2114
sg31
I5
sg3240
(lp4193
I114
aI115
asg36
(issf_api
FeatureSet
p4194
(dp4195
g12
(dp4196
S'name'
p4197
g4165
sS'drel'
p4198
S'k7:VGF'
p4199
ssbsba(issf_api
Chunk
p4200
(dp4201
g3249
g2154
sg30
I2
sg3300
g2161
sg31
I5
sg3240
(lp4202
I116
aI117
asg36
(issf_api
FeatureSet
p4203
(dp4204
g12
(dp4205
S'name'
p4206
g4164
sS'drel'
p4207
S'k2:VGF'
p4208
ssbsba(issf_api
Chunk
p4209
(dp4210
g3249
g2173
sg30
I3
sg3300
g2182
sg31
I5
sg3240
(lp4211
I118
aI119
aI120
aI121
asg36
(issf_api
FeatureSet
p4212
(dp4213
g12
(dp4214
S'name'
p4215
g4159
ssbsba(issf_api
Chunk
p4216
(dp4217
g3249
g2237
sg30
I4
sg3300
g2244
sg31
I5
sg3240
(lp4218
I122
asg36
(issf_api
FeatureSet
p4219
(dp4220
g12
(dp4221
S'name'
p4222
g4163
sS'drel'
p4223
S'rsym:VGF'
p4224
ssbsbasba(issf_api
Sentence
p4225
(dp4226
g3238
(lp4227
sg31
I6
sg3240
(lp4228
I123
aI124
aI125
aI126
aI127
aI128
aI129
aI130
aI131
aI132
aI133
aI134
aI135
aI136
aI137
aI138
aI139
aI140
aI141
aI142
aI143
aI144
aI145
aI146
aI147
aI148
aI149
asg3242
(dp4229
S'VGF2'
p4230
(issf_api
Node
p4231
(dp4232
g3247
S'ccof'
p4233
sg3249
g4230
sg3250
S'CCP'
p4234
sg3251
I-1
sg30
I11
sg3252
(lp4235
S'JJP2'
p4236
aS'NP4'
p4237
aS'NP7'
p4238
asbsS'VGF'
p4239
(issf_api
Node
p4240
(dp4241
g3247
g3248
sg3249
g4239
sg3250
g3248
sg3251
I-1
sg30
I1
sg3252
(lp4242
S'CCP'
p4243
aS'BLK'
p4244
aS'NP'
p4245
asbsg4243
(issf_api
Node
p4246
(dp4247
g3247
S'k2'
p4248
sg3249
g4243
sg3250
S'VGF'
p4249
sg3251
I-1
sg30
I2
sg3252
(lp4250
g4230
asbsS'JJP'
p4251
(issf_api
Node
p4252
(dp4253
g3247
S'nmod'
p4254
sg3249
g4251
sg3250
S'NP4'
p4255
sg3251
I-1
sg30
I5
sg3252
(lp4256
S'NP3'
p4257
asbsS'NP5'
p4258
(issf_api
Node
p4259
(dp4260
g3247
S'r6'
p4261
sg3249
g4258
sg3250
S'NP6'
p4262
sg3251
I-1
sg30
I7
sg3252
(lp4263
sbsg4236
(issf_api
Node
p4264
(dp4265
g3247
S'pof'
p4266
sg3249
g4236
sg3250
S'VGF2'
p4267
sg3251
I-1
sg30
I10
sg3252
(lp4268
sbsg4244
(issf_api
Node
p4269
(dp4270
g3247
S'rsym'
p4271
sg3249
g4244
sg3250
S'VGF'
p4272
sg3251
I-1
sg30
I12
sg3252
(lp4273
sbsg4245
(issf_api
Node
p4274
(dp4275
g3247
S'k1'
p4276
sg3249
g4245
sg3250
S'VGF'
p4277
sg3251
I-1
sg30
I0
sg3252
(lp4278
sbsg4237
(issf_api
Node
p4279
(dp4280
g3247
S'k5'
p4281
sg3249
g4237
sg3250
S'VGF2'
p4282
sg3251
I-1
sg30
I6
sg3252
(lp4283
g4251
asbsg4238
(issf_api
Node
p4284
(dp4285
g3247
S'k1'
p4286
sg3249
g4238
sg3250
S'VGF2'
p4287
sg3251
I-1
sg30
I9
sg3252
(lp4288
S'NP6'
p4289
asbsg4289
(issf_api
Node
p4290
(dp4291
g3247
S'r6'
p4292
sg3249
g4289
sg3250
S'NP7'
p4293
sg3251
I-1
sg30
I8
sg3252
(lp4294
g4258
asbsg4257
(issf_api
Node
p4295
(dp4296
g3247
S'jjmod'
p4297
sg3249
g4257
sg3250
S'JJP'
p4298
sg3251
I-1
sg30
I4
sg3252
(lp4299
S'NP2'
p4300
asbsg4300
(issf_api
Node
p4301
(dp4302
g3247
S'nmod'
p4303
sg3249
g4300
sg3250
S'NP3'
p4304
sg3251
I-1
sg30
I3
sg3252
(lp4305
sbssg3296
(lp4306
(issf_api
Chunk
p4307
(dp4308
g3249
g2307
sg30
I0
sg3300
g2314
sg31
I6
sg3240
(lp4309
I123
aI124
aI125
aI126
aI127
asg36
(issf_api
FeatureSet
p4310
(dp4311
g12
(dp4312
S'name'
p4313
g4245
sS'drel'
p4314
S'k1:VGF'
p4315
ssbsba(issf_api
Chunk
p4316
(dp4317
g3249
g2341
sg30
I1
sg3300
g2348
sg31
I6
sg3240
(lp4318
I128
asg36
(issf_api
FeatureSet
p4319
(dp4320
g12
(dp4321
S'name'
p4322
g4239
ssbsba(issf_api
Chunk
p4323
(dp4324
g3249
g2358
sg30
I2
sg3300
g2365
sg31
I6
sg3240
(lp4325
I129
asg36
(issf_api
FeatureSet
p4326
(dp4327
g12
(dp4328
S'name'
p4329
g4243
sS'drel'
p4330
S'k2:VGF'
p4331
ssbsba(issf_api
Chunk
p4332
(dp4333
g3249
g2396
sg30
I3
sg3300
g2403
sg31
I6
sg3240
(lp4334
I130
aI131
asg36
(issf_api
FeatureSet
p4335
(dp4336
g12
(dp4337
S'name'
p4338
g4300
sS'drel'
p4339
S'nmod:NP3'
p4340
ssbsba(issf_api
Chunk
p4341
(dp4342
g3249
g2417
sg30
I4
sg3300
g2430
sg31
I6
sg3240
(lp4343
I132
aI133
aI134
asg36
(issf_api
FeatureSet
p4344
(dp4345
g12
(dp4346
S'name'
p4347
g4257
sS'drel'
p4348
S'jjmod:JJP'
p4349
ssbsba(issf_api
Chunk
p4350
(dp4351
g3249
g2470
sg30
I5
sg3300
g2477
sg31
I6
sg3240
(lp4352
I135
asg36
(issf_api
FeatureSet
p4353
(dp4354
g12
(dp4355
S'name'
p4356
g4251
sS'drel'
p4357
S'nmod:NP4'
p4358
ssbsba(issf_api
Chunk
p4359
(dp4360
g3249
g2504
sg30
I6
sg3300
g2511
sg31
I6
sg3240
(lp4361
I136
aI137
aI138
asg36
(issf_api
FeatureSet
p4362
(dp4363
g12
(dp4364
S'name'
p4365
g4237
sS'drel'
p4366
S'k5:VGF2'
p4367
ssbsba(issf_api
Chunk
p4368
(dp4369
g3249
g2557
sg30
I7
sg3300
g2568
sg31
I6
sg3240
(lp4370
I139
aI140
aI141
asg36
(issf_api
FeatureSet
p4371
(dp4372
g12
(dp4373
S'name'
p4374
g4258
sS'drel'
p4375
S'r6:NP6'
p4376
ssbsba(issf_api
Chunk
p4377
(dp4378
g3249
g2610
sg30
I8
sg3300
g2617
sg31
I6
sg3240
(lp4379
I142
aI143
aI144
asg36
(issf_api
FeatureSet
p4380
(dp4381
g12
(dp4382
S'name'
p4383
g4289
sS'drel'
p4384
S'r6:NP7'
p4385
ssbsba(issf_api
Chunk
p4386
(dp4387
g3249
g2642
sg30
I9
sg3300
g2649
sg31
I6
sg3240
(lp4388
I145
asg36
(issf_api
FeatureSet
p4389
(dp4390
g12
(dp4391
S'name'
p4392
g4238
sS'drel'
p4393
S'k1:VGF2'
p4394
ssbsba(issf_api
Chunk
p4395
(dp4396
g3249
g2659
sg30
I10
sg3300
g2666
sg31
I6
sg3240
(lp4397
I146
asg36
(issf_api
FeatureSet
p4398
(dp4399
g12
(dp4400
S'name'
p4401
g4236
sS'drel'
p4402
S'pof:VGF2'
p4403
ssbsba(issf_api
Chunk
p4404
(dp4405
g3249
g2678
sg30
I11
sg3300
g2689
sg31
I6
sg3240
(lp4406
I147
aI148
asg36
(issf_api
FeatureSet
p4407
(dp4408
g12
(dp4409
S'name'
p4410
g4230
sS'drel'
p4411
S'ccof:CCP'
p4412
ssbsba(issf_api
Chunk
p4413
(dp4414
g3249
g2714
sg30
I12
sg3300
g2721
sg31
I6
sg3240
(lp4415
I149
asg36
(issf_api
FeatureSet
p4416
(dp4417
g12
(dp4418
S'name'
p4419
g4244
sS'drel'
p4420
S'rsym:VGF'
p4421
ssbsbasba(issf_api
Sentence
p4422
(dp4423
g3238
(lp4424
sg31
I7
sg3240
(lp4425
I150
aI151
aI152
aI153
aI154
aI155
aI156
aI157
aI158
asg3242
(dp4426
S'NP'
p4427
(issf_api
Node
p4428
(dp4429
g3247
S'k7t'
p4430
sg3249
g4427
sg3250
S'VGF'
p4431
sg3251
I-1
sg30
I0
sg3252
(lp4432
sbsS'VGF'
p4433
(issf_api
Node
p4434
(dp4435
g3247
g3248
sg3249
g4433
sg3250
g3248
sg3251
I-1
sg30
I3
sg3252
(lp4436
g4427
aS'JJP'
p4437
aS'BLK'
p4438
aS'NP2'
p4439
asbsg4437
(issf_api
Node
p4440
(dp4441
g3247
S'pof'
p4442
sg3249
g4437
sg3250
S'VGF'
p4443
sg3251
I-1
sg30
I2
sg3252
(lp4444
sbsg4438
(issf_api
Node
p4445
(dp4446
g3247
S'rsym'
p4447
sg3249
g4438
sg3250
S'VGF'
p4448
sg3251
I-1
sg30
I4
sg3252
(lp4449
sbsg4439
(issf_api
Node
p4450
(dp4451
g3247
S'k1'
p4452
sg3249
g4439
sg3250
S'VGF'
p4453
sg3251
I-1
sg30
I1
sg3252
(lp4454
sbssg3296
(lp4455
(issf_api
Chunk
p4456
(dp4457
g3249
g2735
sg30
I0
sg3300
g2748
sg31
I7
sg3240
(lp4458
I150
aI151
asg36
(issf_api
FeatureSet
p4459
(dp4460
g12
(dp4461
S'name'
p4462
g4427
sS'drel'
p4463
S'k7t:VGF'
p4464
ssbsba(issf_api
Chunk
p4465
(dp4466
g3249
g2788
sg30
I1
sg3300
g2795
sg31
I7
sg3240
(lp4467
I152
aI153
asg36
(issf_api
FeatureSet
p4468
(dp4469
g12
(dp4470
S'name'
p4471
g4439
sS'drel'
p4472
S'k1:VGF'
p4473
ssbsba(issf_api
Chunk
p4474
(dp4475
g3249
g2805
sg30
I2
sg3300
g2812
sg31
I7
sg3240
(lp4476
I154
asg36
(issf_api
FeatureSet
p4477
(dp4478
g12
(dp4479
S'name'
p4480
g4437
sS'drel'
p4481
S'pof:VGF'
p4482
ssbsba(issf_api
Chunk
p4483
(dp4484
g3249
g2824
sg30
I3
sg3300
g2833
sg31
I7
sg3240
(lp4485
I155
aI156
aI157
asg36
(issf_api
FeatureSet
p4486
(dp4487
g12
(dp4488
S'name'
p4489
g4433
ssbsba(issf_api
Chunk
p4490
(dp4491
g3249
g2873
sg30
I4
sg3300
g2880
sg31
I7
sg3240
(lp4492
I158
asg36
(issf_api
FeatureSet
p4493
(dp4494
g12
(dp4495
S'name'
p4496
g4438
sS'drel'
p4497
S'rsym:VGF'
p4498
ssbsbasba(issf_api
Sentence
p4499
(dp4500
g3238
(lp4501
sg31
I8
sg3240
(lp4502
I159
aI160
aI161
aI162
aI163
aI164
aI165
aI166
aI167
aI168
aI169
aI170
aI171
aI172
aI173
aI174
aI175
aI176
aI177
asg3242
(dp4503
S'NP6'
p4504
(issf_api
Node
p4505
(dp4506
g3247
S'ccof'
p4507
sg3249
g4504
sg3250
S'CCP'
p4508
sg3251
I-1
sg30
I6
sg3252
(lp4509
sbsS'VGF'
p4510
(issf_api
Node
p4511
(dp4512
g3247
S'nmod__relc'
p4513
sg3249
g4510
sg3250
S'NP3'
p4514
sg3251
I-1
sg30
I8
sg3252
(lp4515
S'NP4'
p4516
aS'NP7'
p4517
asbsS'CCP'
p4518
(issf_api
Node
p4519
(dp4520
g3247
S'nmod'
p4521
sg3249
g4518
sg3250
S'NP7'
p4522
sg3251
I-1
sg30
I5
sg3252
(lp4523
g4504
aS'NP5'
p4524
asbsg4524
(issf_api
Node
p4525
(dp4526
g3247
S'ccof'
p4527
sg3249
g4524
sg3250
S'CCP'
p4528
sg3251
I-1
sg30
I4
sg3252
(lp4529
sbsS'BLK'
p4530
(issf_api
Node
p4531
(dp4532
g3247
S'rsym'
p4533
sg3249
g4530
sg3250
S'NULL__VGF'
p4534
sg3251
I-1
sg30
I9
sg3252
(lp4535
sbsS'NP'
p4536
(issf_api
Node
p4537
(dp4538
g3247
S'k7'
p4539
sg3249
g4536
sg3250
S'NULL__VGF'
p4540
sg3251
I-1
sg30
I0
sg3252
(lp4541
sbsg4516
(issf_api
Node
p4542
(dp4543
g3247
S'k5'
p4544
sg3249
g4516
sg3250
S'VGF'
p4545
sg3251
I-1
sg30
I3
sg3252
(lp4546
sbsg4517
(issf_api
Node
p4547
(dp4548
g3247
S'r6v'
p4549
sg3249
g4517
sg3250
S'VGF'
p4550
sg3251
I-1
sg30
I7
sg3252
(lp4551
g4518
asbsS'NP2'
p4552
(issf_api
Node
p4553
(dp4554
g3247
S'k1'
p4555
sg3249
g4552
sg3250
S'NULL__VGF'
p4556
sg3251
I-1
sg30
I1
sg3252
(lp4557
sbsS'NP3'
p4558
(issf_api
Node
p4559
(dp4560
g3247
S'vmod'
p4561
sg3249
g4558
sg3250
S'NULL__VGF'
p4562
sg3251
I-1
sg30
I2
sg3252
(lp4563
g4510
asbsS'NULL__VGF'
p4564
(issf_api
Node
p4565
(dp4566
g3247
g3248
sg3249
g4564
sg3250
g3248
sg3251
I-1
sg30
I-1
sg3252
(lp4567
g4530
ag4536
ag4552
ag4558
asbssg3296
(lp4568
(issf_api
Chunk
p4569
(dp4570
g3249
g2909
sg30
I0
sg3300
g2916
sg31
I8
sg3240
(lp4571
I159
aI160
aI161
asg36
(issf_api
FeatureSet
p4572
(dp4573
g12
(dp4574
S'name'
p4575
g4536
sS'drel'
p4576
S'k7:NULL__VGF'
p4577
ssbsba(issf_api
Chunk
p4578
(dp4579
g3249
g2945
sg30
I1
sg3300
g2956
sg31
I8
sg3240
(lp4580
I162
aI163
asg36
(issf_api
FeatureSet
p4581
(dp4582
g12
(dp4583
S'name'
p4584
g4552
sS'drel'
p4585
S'k1:NULL__VGF'
p4586
ssbsba(issf_api
Chunk
p4587
(dp4588
g3249
g3002
sg30
I2
sg3300
g3011
sg31
I8
sg3240
(lp4589
I164
aI165
aI166
asg36
(issf_api
FeatureSet
p4590
(dp4591
g12
(dp4592
S'name'
p4593
g4558
sS'drel'
p4594
S'vmod:NULL__VGF'
p4595
ssbsba(issf_api
Chunk
p4596
(dp4597
g3249
g3042
sg30
I3
sg3300
g3053
sg31
I8
sg3240
(lp4598
I167
aI168
asg36
(issf_api
FeatureSet
p4599
(dp4600
g12
(dp4601
S'name'
p4602
g4516
sS'drel'
p4603
S'k5:VGF'
p4604
ssbsba(issf_api
Chunk
p4605
(dp4606
g3249
g3095
sg30
I4
sg3300
g3102
sg31
I8
sg3240
(lp4607
I169
aI170
asg36
(issf_api
FeatureSet
p4608
(dp4609
g12
(dp4610
S'name'
p4611
g4524
sS'drel'
p4612
S'ccof:CCP'
p4613
ssbsba(issf_api
Chunk
p4614
(dp4615
g3249
g3112
sg30
I5
sg3300
g3119
sg31
I8
sg3240
(lp4616
I171
asg36
(issf_api
FeatureSet
p4617
(dp4618
g12
(dp4619
S'name'
p4620
g4518
sS'drel'
p4621
S'nmod:NP7'
p4622
ssbsba(issf_api
Chunk
p4623
(dp4624
g3249
g3146
sg30
I6
sg3300
g3153
sg31
I8
sg3240
(lp4625
I172
aI173
asg36
(issf_api
FeatureSet
p4626
(dp4627
g12
(dp4628
S'name'
p4629
g4504
sS'drel'
p4630
S'ccof:CCP'
p4631
ssbsba(issf_api
Chunk
p4632
(dp4633
g3249
g3167
sg30
I7
sg3300
g3178
sg31
I8
sg3240
(lp4634
I174
aI175
asg36
(issf_api
FeatureSet
p4635
(dp4636
g12
(dp4637
S'name'
p4638
g4517
sS'drel'
p4639
S'r6v:VGF'
p4640
ssbsba(issf_api
Chunk
p4641
(dp4642
g3249
g3207
sg30
I8
sg3300
g3216
sg31
I8
sg3240
(lp4643
I176
asg36
(issf_api
FeatureSet
p4644
(dp4645
g12
(dp4646
S'name'
p4647
g4510
sS'drel'
p4648
S'nmod__relc:NP3'
p4649
ssbsba(issf_api
Chunk
p4650
(dp4651
g3249
g3226
sg30
I9
sg3300
g3233
sg31
I8
sg3240
(lp4652
I177
asg36
(issf_api
FeatureSet
p4653
(dp4654
g12
(dp4655
S'name'
p4656
g4530
sS'drel'
p4657
S'rsym:NULL__VGF'
p4658
ssbsbasbasb.