(issf_api
SSFInfo
p0
(dp1
S'globalWordList'
p2
(lp3
(issf_api
Word
p4
(dp5
S'splitConn'
p6
I00
sS'word'
p7
V\u0907\u0902\u092b\u093e\u0932
p8
sS'extraFeatureSet'
p9
(issf_api
FeatureSet
p10
(dp11
S'featureDict'
p12
(dp13
S'crefhead'
p14
S'\xe0\xa4\x87\xe0\xa4\x82\xe0\xa4\xab\xe0\xa4\xbe\xe0\xa4\xb2:i1'
p15
sS'posn'
p16
S'10'
p17
sS'name'
p18
S'\xe0\xa4\x87\xe0\xa4\x82\xe0\xa4\xab\xe0\xa4\xbe\xe0\xa4\xb2'
p19
sS'af'
p20
S'\xe0\xa4\x87\xe0\xa4\x82\xe0\xa4\xab\xe0\xa4\xbe\xe0\xa4\xb2,n,m,sg,3,o,0_\xe0\xa4\xae\xe0\xa5\x87\xe0\xa4\x82,0'
p21
sS'chunkid'
p22
S'NP'
p23
sS'chunktype'
p24
S'head:NP'
p25
sS'crefchainhead'
p26
S'i1:t1'
p27
sS'vpos'
p28
S'vib_2'
p29
sS'cref'
p30
S'i1%1:t1'
p31
sS'drel'
p32
S'k7p:VGNN'
p33
ssbsS'arg1'
p34
I00
sS'arg2'
p35
I00
sS'sense'
p36
NsS'arg1Span'
p37
NsS'chunkNum'
p38
I0
sS'sentenceNum'
p39
I0
sS'relationNum'
p40
NsS'arg2Span'
p41
NsS'wordTag'
p42
S'NNP'
p43
sS'featureSet'
p44
g10
sS'conn'
p45
I00
sba(issf_api
Word
p46
(dp47
g6
I00
sg7
V\u092e\u0947\u0902
p48
sg9
(issf_api
FeatureSet
p49
(dp50
g12
(dp51
S'posn'
p52
S'20'
p53
sS'name'
p54
S'\xe0\xa4\xae\xe0\xa5\x87\xe0\xa4\x82'
p55
sS'drel'
p56
S'lwg__psp:NP'
p57
sS'chunktype'
p58
S'child:NP'
p59
sS'af'
p60
S'\xe0\xa4\xae\xe0\xa5\x87\xe0\xa4\x82,psp,,,,,,'
p61
ssbsg34
I00
sg35
I00
sg36
Nsg37
Nsg38
I0
sg39
I0
sg40
Nsg41
Nsg42
S'PSP'
p62
sg44
g49
sg45
I00
sba(issf_api
Word
p63
(dp64
g6
I00
sg7
V\u0905\u0938\u092e
p65
sg9
(issf_api
FeatureSet
p66
(dp67
g12
(dp68
S'posn'
p69
S'30'
p70
sS'name'
p71
S'\xe0\xa4\x85\xe0\xa4\xb8\xe0\xa4\xae'
p72
sS'drel'
p73
S'pof__cn:NP2'
p74
sS'chunktype'
p75
S'child:NP2'
p76
sS'af'
p77
S'\xe0\xa4\x85\xe0\xa4\xb8\xe0\xa4\xae,n,m,sg,3,d,0,0'
p78
ssbsg34
I00
sg35
I00
sg36
Nsg37
Nsg38
I1
sg39
I0
sg40
Nsg41
Nsg42
S'NNPC'
p79
sg44
g66
sg45
I00
sba(issf_api
Word
p80
(dp81
g6
I00
sg7
V\u0930\u093e\u0907\u092b\u0932
p82
sg9
(issf_api
FeatureSet
p83
(dp84
g12
(dp85
S'posn'
p86
S'40'
p87
sS'name'
p88
S'\xe0\xa4\xb0\xe0\xa4\xbe\xe0\xa4\x87\xe0\xa4\xab\xe0\xa4\xb2'
p89
sS'af'
p90
S'\xe0\xa4\xb0\xe0\xa4\xbe\xe0\xa4\x87\xe0\xa4\xab\xe0\xa4\xb2,n,f,sg,3,o,0_\xe0\xa4\x95\xe0\xa4\xbe,0'
p91
sS'chunkid'
p92
S'NP2'
p93
sS'drel'
p94
S'r6:NP3'
p95
sS'vpos'
p96
S'vib_3'
p97
sS'chunktype'
p98
S'head:NP2'
p99
ssbsg34
I00
sg35
I00
sg36
Nsg37
Nsg38
I1
sg39
I0
sg40
Nsg41
Nsg42
S'NNP'
p100
sg44
g83
sg45
I00
sba(issf_api
Word
p101
(dp102
g6
I00
sg7
V\u0915\u0947
p103
sg9
(issf_api
FeatureSet
p104
(dp105
g12
(dp106
S'posn'
p107
S'50'
p108
sS'name'
p109
S'\xe0\xa4\x95\xe0\xa5\x87'
p110
sS'drel'
p111
S'lwg__psp:NP2'
p112
sS'chunktype'
p113
S'child:NP2'
p114
sS'af'
p115
S'\xe0\xa4\x95\xe0\xa4\xbe,psp,m,sg,,o,,'
p116
ssbsg34
I00
sg35
I00
sg36
Nsg37
Nsg38
I1
sg39
I0
sg40
Nsg41
Nsg42
S'PSP'
p117
sg44
g104
sg45
I00
sba(issf_api
Word
p118
(dp119
g6
I00
sg7
V\u0915\u0930\u094d\u092e\u0940
p120
sg9
(issf_api
FeatureSet
p121
(dp122
g12
(dp123
S'posn'
p124
S'60'
p125
sS'name'
p126
S'\xe0\xa4\x95\xe0\xa4\xb0\xe0\xa5\x8d\xe0\xa4\xae\xe0\xa5\x80'
p127
sS'af'
p128
S'\xe0\xa4\x95\xe0\xa4\xb0\xe0\xa5\x8d\xe0\xa4\xae\xe0\xa5\x80,n,m,sg,3,o,0_\xe0\xa4\xa6\xe0\xa5\x8d\xe0\xa4\xb5\xe0\xa4\xbe\xe0\xa4\xb0\xe0\xa4\xbe,0'
p129
sS'chunkid'
p130
S'NP3'
p131
sS'drel'
p132
S'nmod:NP4'
p133
sS'vpos'
p134
S'vib_2'
p135
sS'chunktype'
p136
S'head:NP3'
p137
ssbsg34
I00
sg35
I00
sg36
Nsg37
Nsg38
I2
sg39
I0
sg40
Nsg41
Nsg42
S'NN'
p138
sg44
g121
sg45
I00
sba(issf_api
Word
p139
(dp140
g6
I00
sg7
V\u0926\u094d\u0935\u093e\u0930\u093e
p141
sg9
(issf_api
FeatureSet
p142
(dp143
g12
(dp144
S'posn'
p145
S'70'
p146
sS'name'
p147
S'\xe0\xa4\xa6\xe0\xa5\x8d\xe0\xa4\xb5\xe0\xa4\xbe\xe0\xa4\xb0\xe0\xa4\xbe'
p148
sS'drel'
p149
S'lwg__psp:NP3'
p150
sS'chunktype'
p151
S'child:NP3'
p152
sS'af'
p153
S'\xe0\xa4\xa6\xe0\xa5\x8d\xe0\xa4\xb5\xe0\xa4\xbe\xe0\xa4\xb0\xe0\xa4\xbe,psp,,,,,,'
p154
ssbsg34
I00
sg35
I00
sg36
Nsg37
Nsg38
I2
sg39
I0
sg40
Nsg41
Nsg42
S'PSP'
p155
sg44
g142
sg45
I00
sba(issf_api
Word
p156
(dp157
g6
I00
sg7
V\u092e\u0928\u094b\u0930\u092e\u093e
p158
sg9
(issf_api
FeatureSet
p159
(dp160
g12
(dp161
S'posn'
p162
S'80'
p163
sS'name'
p164
S'\xe0\xa4\xae\xe0\xa4\xa8\xe0\xa5\x8b\xe0\xa4\xb0\xe0\xa4\xae\xe0\xa4\xbe'
p165
sS'af'
p166
S'\xe0\xa4\xae\xe0\xa4\xa8\xe0\xa5\x8b\xe0\xa4\xb0\xe0\xa4\xae\xe0\xa4\xbe,n,f,sg,3,d,0,0'
p167
sS'acrefmod'
p168
S'm1%0:i3'
p169
sS'drel'
p170
S'nmod__adj:NP4'
p171
sS'chunktype'
p172
S'child:NP4'
p173
sS'cref'
p174
S'i2%0:t2'
p175
ssbsg34
I00
sg35
I00
sg36
Nsg37
Nsg38
I3
sg39
I0
sg40
Nsg41
Nsg42
S'NNP'
p176
sg44
g159
sg45
I00
sba(issf_api
Word
p177
(dp178
g6
I00
sg7
V\u0926\u0947\u0935\u0940
p179
sg9
(issf_api
FeatureSet
p180
(dp181
g12
(dp182
S'crefhead'
p183
S'\xe0\xa4\xa6\xe0\xa5\x87\xe0\xa4\xb5\xe0\xa5\x80:i2'
p184
sS'posn'
p185
S'90'
p186
sS'name'
p187
S'\xe0\xa4\xa6\xe0\xa5\x87\xe0\xa4\xb5\xe0\xa5\x80'
p188
sS'af'
p189
S'\xe0\xa4\xa6\xe0\xa5\x87\xe0\xa4\xb5\xe0\xa5\x80,n,f,sg,3,o,0_\xe0\xa4\x95\xe0\xa4\xbe,0'
p190
sS'acrefmodhead'
p191
S'\xe0\xa4\xa6\xe0\xa5\x87\xe0\xa4\xb5\xe0\xa5\x80:m1'
p192
sS'chunkid'
p193
S'NP4'
p194
sS'acrefmod'
p195
S'm1%1:i3'
p196
sS'chunktype'
p197
S'head:NP4'
p198
sS'crefchainhead'
p199
S'i2:t2'
p200
sS'vpos'
p201
S'vib_vib_3'
p202
sS'cref'
p203
S'i2%1:t2'
p204
sS'drel'
p205
S'r6:NP5'
p206
ssbsg34
I00
sg35
I00
sg36
Nsg37
Nsg38
I3
sg39
I0
sg40
Nsg41
Nsg42
S'NN'
p207
sg44
g180
sg45
I00
sba(issf_api
Word
p208
(dp209
g6
I00
sg7
V\u0915\u0940
p210
sg9
(issf_api
FeatureSet
p211
(dp212
g12
(dp213
S'posn'
p214
S'100'
p215
sS'name'
p216
S'\xe0\xa4\x95\xe0\xa5\x80'
p217
sS'drel'
p218
S'lwg__psp:NP4'
p219
sS'chunktype'
p220
S'child:NP4'
p221
sS'af'
p222
S'\xe0\xa4\x95\xe0\xa4\xbe,psp,f,sg,,o,,'
p223
ssbsg34
I00
sg35
I00
sg36
Nsg37
Nsg38
I3
sg39
I0
sg40
Nsg41
Nsg42
S'PSP'
p224
sg44
g211
sg45
I00
sba(issf_api
Word
p225
(dp226
g6
I00
sg7
V\u0924\u0925\u093e\u0915\u0925\u093f\u0924
p227
sg9
(issf_api
FeatureSet
p228
(dp229
g12
(dp230
S'posn'
p231
S'110'
p232
sS'name'
p233
S'\xe0\xa4\xa4\xe0\xa4\xa5\xe0\xa4\xbe\xe0\xa4\x95\xe0\xa4\xa5\xe0\xa4\xbf\xe0\xa4\xa4'
p234
sS'af'
p235
S'\xe0\xa4\xa4\xe0\xa4\xa5\xe0\xa4\xbe\xe0\xa4\x95\xe0\xa4\xa5\xe0\xa4\xbf\xe0\xa4\xa4,adj,any,any,,o,,'
p236
sS'drel'
p237
S'nmod__adj:NP5'
p238
sS'chunktype'
p239
S'child:NP5'
p240
sS'cref'
p241
S'i3%0:t3'
p242
ssbsg34
I00
sg35
I00
sg36
Nsg37
Nsg38
I4
sg39
I0
sg40
Nsg41
Nsg42
S'JJ'
p243
sg44
g228
sg45
I00
sba(issf_api
Word
p244
(dp245
g6
I00
sg7
V\u0939\u0924\u094d\u092f\u093e
p246
sg9
(issf_api
FeatureSet
p247
(dp248
g12
(dp249
S'crefhead'
p250
S'\xe0\xa4\xb9\xe0\xa4\xa4\xe0\xa5\x8d\xe0\xa4\xaf\xe0\xa4\xbe:i3'
p251
sS'posn'
p252
S'120'
p253
sS'name'
p254
S'\xe0\xa4\xb9\xe0\xa4\xa4\xe0\xa5\x8d\xe0\xa4\xaf\xe0\xa4\xbe'
p255
sS'af'
p256
S'\xe0\xa4\xb9\xe0\xa4\xa4\xe0\xa5\x8d\xe0\xa4\xaf\xe0\xa4\xbe,n,f,sg,3,o,0_\xe0\xa4\x95\xe0\xa5\x87_\xe0\xa4\xb5\xe0\xa4\xbf\xe0\xa4\xb0\xe0\xa5\x8b\xe0\xa4\xa7_\xe0\xa4\xae\xe0\xa5\x87\xe0\xa4\x82,0'
p257
sS'chunkid'
p258
S'NP5'
p259
sS'crefmod'
p260
S'm1:i3'
p261
sS'chunktype'
p262
S'head:NP5'
p263
sS'crefchainhead'
p264
S'i3:t3'
p265
sS'vpos'
p266
S'vib_3_4_5'
p267
sS'cref'
p268
S'i3%1:t3'
p269
sS'drel'
p270
S'k7a:VGNN'
p271
ssbsg34
I00
sg35
I00
sg36
Nsg37
Nsg38
I4
sg39
I0
sg40
Nsg41
Nsg42
S'NN'
p272
sg44
g247
sg45
I00
sba(issf_api
Word
p273
(dp274
g6
I00
sg7
V\u0915\u0947
p275
sg9
(issf_api
FeatureSet
p276
(dp277
g12
(dp278
S'posn'
p279
S'130'
p280
sS'name'
p281
S'\xe0\xa4\x95\xe0\xa5\x872'
p282
sS'drel'
p283
S'lwg__psp:NP5'
p284
sS'chunktype'
p285
S'child:NP5'
p286
sS'af'
p287
S'\xe0\xa4\x95\xe0\xa5\x87,psp,m,,,o,,'
p288
ssbsg34
I00
sg35
I00
sg36
Nsg37
Nsg38
I4
sg39
I0
sg40
Nsg41
Nsg42
S'PSP'
p289
sg44
g276
sg45
I00
sba(issf_api
Word
p290
(dp291
g6
I00
sg7
V\u0935\u093f\u0930\u094b\u0927
p292
sg9
(issf_api
FeatureSet
p293
(dp294
g12
(dp295
S'posn'
p296
S'140'
p297
sS'name'
p298
S'\xe0\xa4\xb5\xe0\xa4\xbf\xe0\xa4\xb0\xe0\xa5\x8b\xe0\xa4\xa7'
p299
sS'drel'
p300
S'lwg__psp:NP5'
p301
sS'chunktype'
p302
S'child:NP5'
p303
sS'af'
p304
S'\xe0\xa4\xb5\xe0\xa4\xbf\xe0\xa4\xb0\xe0\xa5\x8b\xe0\xa4\xa7,n,m,,,o,,'
p305
ssbsg34
I00
sg35
I00
sg36
Nsg37
Nsg38
I4
sg39
I0
sg40
Nsg41
Nsg42
S'PSP'
p306
sg44
g293
sg45
I00
sba(issf_api
Word
p307
(dp308
g6
I00
sg7
V\u092e\u0947\u0902
p309
sg9
(issf_api
FeatureSet
p310
(dp311
g12
(dp312
S'posn'
p313
S'150'
p314
sS'name'
p315
S'\xe0\xa4\xae\xe0\xa5\x87\xe0\xa4\x822'
p316
sS'drel'
p317
S'lwg__psp:NP5'
p318
sS'chunktype'
p319
S'child:NP5'
p320
sS'af'
p321
S'\xe0\xa4\xae\xe0\xa5\x87\xe0\xa4\x82,psp,,,,,,'
p322
ssbsg34
I00
sg35
I00
sg36
Nsg37
Nsg38
I4
sg39
I0
sg40
Nsg41
Nsg42
S'PSP'
p323
sg44
g310
sg45
I00
sba(issf_api
Word
p324
(dp325
g6
I00
sg7
V\u0905\u0928\u0947\u0915
p326
sg9
(issf_api
FeatureSet
p327
(dp328
g12
(dp329
S'posn'
p330
S'160'
p331
sS'name'
p332
S'\xe0\xa4\x85\xe0\xa4\xa8\xe0\xa5\x87\xe0\xa4\x95'
p333
sS'drel'
p334
S'nmod__adj:NP6'
p335
sS'chunktype'
p336
S'child:NP6'
p337
sS'af'
p338
S'\xe0\xa4\x85\xe0\xa4\xa8\xe0\xa5\x87\xe0\xa4\x95,avy,,,,,,'
p339
ssbsg34
I00
sg35
I00
sg36
Nsg37
Nsg38
I5
sg39
I0
sg40
Nsg41
Nsg42
S'QF'
p340
sg44
g327
sg45
I00
sba(issf_api
Word
p341
(dp342
g6
I00
sg7
V\u092e\u0939\u093f\u0932\u093e\u0913\u0902
p343
sg9
(issf_api
FeatureSet
p344
(dp345
g12
(dp346
S'posn'
p347
S'170'
p348
sS'name'
p349
S'\xe0\xa4\xae\xe0\xa4\xb9\xe0\xa4\xbf\xe0\xa4\xb2\xe0\xa4\xbe\xe0\xa4\x93\xe0\xa4\x82'
p350
sS'af'
p351
S'\xe0\xa4\xae\xe0\xa4\xb9\xe0\xa4\xbf\xe0\xa4\xb2\xe0\xa4\xbe,n,f,pl,3,o,0_\xe0\xa4\xa6\xe0\xa5\x8d\xe0\xa4\xb5\xe0\xa4\xbe\xe0\xa4\xb0\xe0\xa4\xbe,0'
p352
sS'chunkid'
p353
S'NP6'
p354
sS'drel'
p355
S'k1:VGNN'
p356
sS'vpos'
p357
S'vib_3'
p358
sS'chunktype'
p359
S'head:NP6'
p360
ssbsg34
I00
sg35
I00
sg36
Nsg37
Nsg38
I5
sg39
I0
sg40
Nsg41
Nsg42
S'NN'
p361
sg44
g344
sg45
I00
sba(issf_api
Word
p362
(dp363
g6
I00
sg7
V\u0926\u094d\u0935\u093e\u0930\u093e
p364
sg9
(issf_api
FeatureSet
p365
(dp366
g12
(dp367
S'posn'
p368
S'180'
p369
sS'name'
p370
S'\xe0\xa4\xa6\xe0\xa5\x8d\xe0\xa4\xb5\xe0\xa4\xbe\xe0\xa4\xb0\xe0\xa4\xbe2'
p371
sS'drel'
p372
S'lwg__psp:NP6'
p373
sS'chunktype'
p374
S'child:NP6'
p375
sS'af'
p376
S'\xe0\xa4\xa6\xe0\xa5\x8d\xe0\xa4\xb5\xe0\xa4\xbe\xe0\xa4\xb0\xe0\xa4\xbe,psp,,,,,,'
p377
ssbsg34
I00
sg35
I00
sg36
Nsg37
Nsg38
I5
sg39
I0
sg40
Nsg41
Nsg42
S'PSP'
p378
sg44
g365
sg45
I00
sba(issf_api
Word
p379
(dp380
g6
I00
sg7
V\u0936\u0941\u0915\u094d\u0930\u0935\u093e\u0930
p381
sg9
(issf_api
FeatureSet
p382
(dp383
g12
(dp384
S'posn'
p385
S'190'
p386
sS'name'
p387
S'\xe0\xa4\xb6\xe0\xa5\x81\xe0\xa4\x95\xe0\xa5\x8d\xe0\xa4\xb0\xe0\xa4\xb5\xe0\xa4\xbe\xe0\xa4\xb0'
p388
sS'af'
p389
S'\xe0\xa4\xb6\xe0\xa5\x81\xe0\xa4\x95\xe0\xa5\x8d\xe0\xa4\xb0\xe0\xa4\xb5\xe0\xa4\xbe\xe0\xa4\xb0,n,m,sg,3,o,0_\xe0\xa4\x95\xe0\xa5\x8b,0'
p390
sS'chunkid'
p391
S'NP7'
p392
sS'drel'
p393
S'k7t:VGNN'
p394
sS'vpos'
p395
S'vib_2'
p396
sS'chunktype'
p397
S'head:NP7'
p398
ssbsg34
I00
sg35
I00
sg36
Nsg37
Nsg38
I6
sg39
I0
sg40
Nsg41
Nsg42
S'NNP'
p399
sg44
g382
sg45
I00
sba(issf_api
Word
p400
(dp401
g6
I00
sg7
V\u0915\u094b
p402
sg9
(issf_api
FeatureSet
p403
(dp404
g12
(dp405
S'posn'
p406
S'200'
p407
sS'name'
p408
S'\xe0\xa4\x95\xe0\xa5\x8b'
p409
sS'drel'
p410
S'lwg__psp:NP7'
p411
sS'chunktype'
p412
S'child:NP7'
p413
sS'af'
p414
S'\xe0\xa4\x95\xe0\xa5\x8b,psp,,,,,,'
p415
ssbsg34
I00
sg35
I00
sg36
Nsg37
Nsg38
I6
sg39
I0
sg40
Nsg41
Nsg42
S'PSP'
p416
sg44
g403
sg45
I00
sba(issf_api
Word
p417
(dp418
g6
I00
sg7
V\u0915\u0930\u094d\u092b\u094d\u0930\u094d\u092f\u0942
p419
sg9
(issf_api
FeatureSet
p420
(dp421
g12
(dp422
S'crefhead'
p423
S'\xe0\xa4\x95\xe0\xa4\xb0\xe0\xa5\x8d\xe0\xa4\xab\xe0\xa5\x8d\xe0\xa4\xb0\xe0\xa5\x8d\xe0\xa4\xaf\xe0\xa5\x82:i4'
p424
sS'posn'
p425
S'210'
p426
sS'name'
p427
S'\xe0\xa4\x95\xe0\xa4\xb0\xe0\xa5\x8d\xe0\xa4\xab\xe0\xa5\x8d\xe0\xa4\xb0\xe0\xa5\x8d\xe0\xa4\xaf\xe0\xa5\x82'
p428
sS'af'
p429
S'\xe0\xa4\x95\xe0\xa4\xb0\xe0\xa5\x8d\xe0\xa4\xab\xe0\xa5\x8d\xe0\xa4\xb0\xe0\xa5\x8d\xe0\xa4\xaf\xe0\xa5\x82,n,m,sg,3,d,0,0'
p430
sS'chunkid'
p431
S'NP8'
p432
sS'acrefmod'
p433
S'm2%0:i5'
p434
sS'chunktype'
p435
S'head:NP8'
p436
sS'crefchainhead'
p437
S'i4:t4'
p438
sS'cref'
p439
S'i4%1:t4'
p440
sS'drel'
p441
S'k2:VGNN'
p442
ssbsg34
I00
sg35
I00
sg36
Nsg37
Nsg38
I7
sg39
I0
sg40
Nsg41
Nsg42
S'NN'
p443
sg44
g420
sg45
I00
sba(issf_api
Word
p444
(dp445
g6
I00
sg7
V\u0924\u094b\u0921\u093c\u0928\u0947
p446
sg9
(issf_api
FeatureSet
p447
(dp448
g12
(dp449
S'posn'
p450
S'220'
p451
sS'name'
p452
S'\xe0\xa4\xa4\xe0\xa5\x8b\xe0\xa4\xa1\xe0\xa4\xbc\xe0\xa4\xa8\xe0\xa5\x87'
p453
sS'af'
p454
S'\xe0\xa4\xa4\xe0\xa5\x8b\xe0\xa4\xa1,v,any,any,any,o,\xe0\xa4\xa8\xe0\xa4\xbe,nA'
p455
sS'chunkid'
p456
S'VGNN'
p457
sS'acrefmod'
p458
S'm2%0:i5'
p459
sS'drel'
p460
S'ccof:CCP'
p461
sS'chunktype'
p462
S'head:VGNN'
p463
ssbsg34
I00
sg35
I00
sg36
Nsg37
Nsg38
I8
sg39
I0
sg40
Nsg41
Nsg42
S'VM'
p464
sg44
g447
sg45
I00
sba(issf_api
Word
p465
(dp466
g6
I00
sg7
V\u0914\u0930
p467
sg9
(issf_api
FeatureSet
p468
(dp469
g12
(dp470
S'posn'
p471
S'230'
p472
sS'name'
p473
S'\xe0\xa4\x94\xe0\xa4\xb0'
p474
sS'af'
p475
S'\xe0\xa4\x94\xe0\xa4\xb0,avy,,,,,,'
p476
sS'chunkid'
p477
S'CCP'
p478
sS'acrefmod'
p479
S'm2%0:i5'
p480
sS'drel'
p481
S'r6:NP10'
p482
sS'chunktype'
p483
S'head:CCP'
p484
ssbsg34
I00
sg35
I00
sg36
Nsg37
Nsg38
I9
sg39
I0
sg40
Nsg41
Nsg42
S'CC'
p485
sg44
g468
sg45
I00
sba(issf_api
Word
p486
(dp487
g6
I00
sg7
V\u091c\u0941\u0932\u0942\u0938
p488
sg9
(issf_api
FeatureSet
p489
(dp490
g12
(dp491
S'crefhead'
p492
S'\xe0\xa4\x9c\xe0\xa5\x81\xe0\xa4\xb2\xe0\xa5\x82\xe0\xa4\xb8:i6'
p493
sS'posn'
p494
S'240'
p495
sS'name'
p496
S'\xe0\xa4\x9c\xe0\xa5\x81\xe0\xa4\xb2\xe0\xa5\x82\xe0\xa4\xb8'
p497
sS'af'
p498
S'\xe0\xa4\x9c\xe0\xa5\x81\xe0\xa4\xb2\xe0\xa5\x82\xe0\xa4\xb8,n,m,sg,3,d,0,0'
p499
sS'chunkid'
p500
S'NP9'
p501
sS'acrefmod'
p502
S'm2%0:i5'
p503
sS'chunktype'
p504
S'head:NP9'
p505
sS'crefchainhead'
p506
S'i6:t5'
p507
sS'cref'
p508
S'i6%1:t5'
p509
sS'drel'
p510
S'k2:VGNN2'
p511
ssbsg34
I00
sg35
I00
sg36
Nsg37
Nsg38
I10
sg39
I0
sg40
Nsg41
Nsg42
S'NN'
p512
sg44
g489
sg45
I00
sba(issf_api
Word
p513
(dp514
g6
I00
sg7
V\u0928\u093f\u0915\u093e\u0932\u0928\u0947
p515
sg9
(issf_api
FeatureSet
p516
(dp517
g12
(dp518
S'posn'
p519
S'250'
p520
sS'name'
p521
S'\xe0\xa4\xa8\xe0\xa4\xbf\xe0\xa4\x95\xe0\xa4\xbe\xe0\xa4\xb2\xe0\xa4\xa8\xe0\xa5\x87'
p522
sS'af'
p523
S'\xe0\xa4\xa8\xe0\xa4\xbf\xe0\xa4\x95\xe0\xa4\xbe\xe0\xa4\xb2,v,any,sg,any,o,\xe0\xa4\xa8\xe0\xa4\xbe_\xe0\xa4\x95\xe0\xa4\xbe,nA'
p524
sS'acrefmodhead'
p525
S'\xe0\xa4\xa8\xe0\xa4\xbf\xe0\xa4\x95\xe0\xa4\xbe\xe0\xa4\xb2\xe0\xa4\xa8\xe0\xa5\x87:m2'
p526
sS'chunkid'
p527
S'VGNN2'
p528
sS'acrefmod'
p529
S'm2%1:i5'
p530
sS'drel'
p531
S'ccof:CCP'
p532
sS'vpos'
p533
S'tam_2'
p534
sS'chunktype'
p535
S'head:VGNN2'
p536
ssbsg34
I00
sg35
I00
sg36
Nsg37
Nsg38
I11
sg39
I0
sg40
Nsg41
Nsg42
S'VM'
p537
sg44
g516
sg45
I00
sba(issf_api
Word
p538
(dp539
g6
I00
sg7
V\u0915\u0940
p540
sg9
(issf_api
FeatureSet
p541
(dp542
g12
(dp543
S'posn'
p544
S'260'
p545
sS'name'
p546
S'\xe0\xa4\x95\xe0\xa5\x802'
p547
sS'drel'
p548
S'lwg__psp:VGNN2'
p549
sS'chunktype'
p550
S'child:VGNN2'
p551
sS'af'
p552
S'\xe0\xa4\x95\xe0\xa4\xbe,psp,f,sg,,o,,'
p553
ssbsg34
I00
sg35
I00
sg36
Nsg37
Nsg38
I11
sg39
I0
sg40
Nsg41
Nsg42
S'PSP'
p554
sg44
g541
sg45
I00
sba(issf_api
Word
p555
(dp556
g6
I00
sg7
V\u0915\u094b\u0936\u093f\u0936
p557
sg9
(issf_api
FeatureSet
p558
(dp559
g12
(dp560
S'crefhead'
p561
S'\xe0\xa4\x95\xe0\xa5\x8b\xe0\xa4\xb6\xe0\xa4\xbf\xe0\xa4\xb6:i5'
p562
sS'posn'
p563
S'270'
p564
sS'name'
p565
S'\xe0\xa4\x95\xe0\xa5\x8b\xe0\xa4\xb6\xe0\xa4\xbf\xe0\xa4\xb6'
p566
sS'af'
p567
S'\xe0\xa4\x95\xe0\xa5\x8b\xe0\xa4\xb6\xe0\xa4\xbf\xe0\xa4\xb6,n,f,sg,3,o,0_\xe0\xa4\x95\xe0\xa5\x87_\xe0\xa4\xa6\xe0\xa5\x8c\xe0\xa4\xb0\xe0\xa4\xbe\xe0\xa4\xa8,0'
p568
sS'chunkid'
p569
S'NP10'
p570
sS'crefmod'
p571
S'm2:i5'
p572
sS'chunktype'
p573
S'head:NP10'
p574
sS'crefchainhead'
p575
S'i5:t6'
p576
sS'vpos'
p577
S'vib_2_3'
p578
sS'cref'
p579
S'i5%1:t6'
p580
sS'drel'
p581
S'k7:VGF'
p582
ssbsg34
I00
sg35
I00
sg36
Nsg37
Nsg38
I12
sg39
I0
sg40
Nsg41
Nsg42
S'NN'
p583
sg44
g558
sg45
I00
sba(issf_api
Word
p584
(dp585
g6
I00
sg7
V\u0915\u0947
p586
sg9
(issf_api
FeatureSet
p587
(dp588
g12
(dp589
S'posn'
p590
S'280'
p591
sS'name'
p592
S'\xe0\xa4\x95\xe0\xa5\x873'
p593
sS'drel'
p594
S'lwg__psp:NP10'
p595
sS'chunktype'
p596
S'child:NP10'
p597
sS'af'
p598
S'\xe0\xa4\x95\xe0\xa5\x87,psp,,,,,,'
p599
ssbsg34
I00
sg35
I00
sg36
Nsg37
Nsg38
I12
sg39
I0
sg40
Nsg41
Nsg42
S'PSP'
p600
sg44
g587
sg45
I00
sba(issf_api
Word
p601
(dp602
g6
I00
sg7
V\u0926\u094c\u0930\u093e\u0928
p603
sg9
(issf_api
FeatureSet
p604
(dp605
g12
(dp606
S'posn'
p607
S'290'
p608
sS'name'
p609
S'\xe0\xa4\xa6\xe0\xa5\x8c\xe0\xa4\xb0\xe0\xa4\xbe\xe0\xa4\xa8'
p610
sS'drel'
p611
S'lwg__psp:NP10'
p612
sS'chunktype'
p613
S'child:NP10'
p614
sS'af'
p615
S'\xe0\xa4\xa6\xe0\xa5\x8c\xe0\xa4\xb0\xe0\xa4\xbe\xe0\xa4\xa8,nst,m,sg,3,d,,'
p616
ssbsg34
I00
sg35
I00
sg36
Nsg37
Nsg38
I12
sg39
I0
sg40
Nsg41
Nsg42
S'NST'
p617
sg44
g604
sg45
I00
sba(issf_api
Word
p618
(dp619
g6
I00
sg7
V\u0939\u093f\u0902\u0938\u093e
p620
sg9
(issf_api
FeatureSet
p621
(dp622
g12
(dp623
S'crefhead'
p624
S'\xe0\xa4\xb9\xe0\xa4\xbf\xe0\xa4\x82\xe0\xa4\xb8\xe0\xa4\xbe:i7'
p625
sS'posn'
p626
S'300'
p627
sS'name'
p628
S'\xe0\xa4\xb9\xe0\xa4\xbf\xe0\xa4\x82\xe0\xa4\xb8\xe0\xa4\xbe'
p629
sS'af'
p630
S'\xe0\xa4\xb9\xe0\xa4\xbf\xe0\xa4\x82\xe0\xa4\xb8\xe0\xa4\xbe,n,f,sg,3,o,0,0'
p631
sS'chunkid'
p632
S'NP11'
p633
sS'chunktype'
p634
S'head:NP11'
p635
sS'crefchainhead'
p636
S'i7:t7'
p637
sS'cref'
p638
S'i7%1:t7'
p639
sS'drel'
p640
S'k2:VGNN3'
p641
ssbsg34
I00
sg35
I00
sg36
Nsg37
Nsg38
I13
sg39
I0
sg40
Nsg41
Nsg42
S'NN'
p642
sg44
g621
sg45
I00
sba(issf_api
Word
p643
(dp644
g6
I00
sg7
V\u092d\u0921\u093c\u0915\u0928\u0947
p645
sg9
(issf_api
FeatureSet
p646
(dp647
g12
(dp648
S'posn'
p649
S'310'
p650
sS'name'
p651
S'\xe0\xa4\xad\xe0\xa4\xa1\xe0\xa4\xbc\xe0\xa4\x95\xe0\xa4\xa8\xe0\xa5\x87'
p652
sS'af'
p653
S'\xe0\xa4\xad\xe0\xa4\xa1\xe0\xa4\x95,v,any,any,any,o,\xe0\xa4\xa8\xe0\xa4\xbe_\xe0\xa4\xb8\xe0\xa5\x87,nA'
p654
sS'chunkid'
p655
S'VGNN3'
p656
sS'drel'
p657
S'rh:VGF'
p658
sS'vpos'
p659
S'tam_2'
p660
sS'chunktype'
p661
S'head:VGNN3'
p662
ssbsg34
I00
sg35
I00
sg36
Nsg37
Nsg38
I14
sg39
I0
sg40
Nsg41
Nsg42
S'VM'
p663
sg44
g646
sg45
I00
sba(issf_api
Word
p664
(dp665
g6
I00
sg7
V\u0938\u0947
p666
sg9
(issf_api
FeatureSet
p667
(dp668
g12
(dp669
S'posn'
p670
S'320'
p671
sS'name'
p672
S'\xe0\xa4\xb8\xe0\xa5\x87'
p673
sS'drel'
p674
S'lwg__psp:VGNN3'
p675
sS'chunktype'
p676
S'child:VGNN3'
p677
sS'af'
p678
S'\xe0\xa4\xb8\xe0\xa5\x87,psp,,,,,,'
p679
ssbsg34
I00
sg35
I00
sg36
Nsg37
Nsg38
I14
sg39
I0
sg40
Nsg41
Nsg42
S'PSP'
p680
sg44
g667
sg45
I00
sba(issf_api
Word
p681
(dp682
g6
I00
sg7
V\u0915\u0908
p683
sg9
(issf_api
FeatureSet
p684
(dp685
g12
(dp686
S'posn'
p687
S'330'
p688
sS'name'
p689
S'\xe0\xa4\x95\xe0\xa4\x88'
p690
sS'af'
p691
S'\xe0\xa4\x95\xe0\xa4\x88,avy,,,,,,'
p692
sS'drel'
p693
S'nmod__adj:NP12'
p694
sS'chunktype'
p695
S'child:NP12'
p696
sS'cref'
p697
S'i8%0:t8'
p698
ssbsg34
I00
sg35
I00
sg36
Nsg37
Nsg38
I15
sg39
I0
sg40
Nsg41
Nsg42
S'QF'
p699
sg44
g684
sg45
I00
sba(issf_api
Word
p700
(dp701
g6
I00
sg7
V\u0932\u094b\u0917
p702
sg9
(issf_api
FeatureSet
p703
(dp704
g12
(dp705
S'crefhead'
p706
S'\xe0\xa4\xb2\xe0\xa5\x8b\xe0\xa4\x97:i8'
p707
sS'posn'
p708
S'340'
p709
sS'name'
p710
S'\xe0\xa4\xb2\xe0\xa5\x8b\xe0\xa4\x97'
p711
sS'af'
p712
S'\xe0\xa4\xb2\xe0\xa5\x8b\xe0\xa4\x97,n,m,pl,3,d,0,0'
p713
sS'chunkid'
p714
S'NP12'
p715
sS'chunktype'
p716
S'head:NP12'
p717
sS'crefchainhead'
p718
S'i8:t8'
p719
sS'cref'
p720
S'i8%1:t8'
p721
sS'drel'
p722
S'k2:VGF'
p723
ssbsg34
I00
sg35
I00
sg36
Nsg37
Nsg38
I15
sg39
I0
sg40
Nsg41
Nsg42
S'NN'
p724
sg44
g703
sg45
I00
sba(issf_api
Word
p725
(dp726
g6
I00
sg7
V\u0918\u093e\u092f\u0932
p727
sg9
(issf_api
FeatureSet
p728
(dp729
g12
(dp730
S'posn'
p731
S'350'
p732
sS'name'
p733
S'\xe0\xa4\x98\xe0\xa4\xbe\xe0\xa4\xaf\xe0\xa4\xb2'
p734
sS'af'
p735
S'\xe0\xa4\x98\xe0\xa4\xbe\xe0\xa4\xaf\xe0\xa4\xb2,adj,any,any,,,,'
p736
sS'chunkid'
p737
S'JJP'
p738
sS'drel'
p739
S'pof:VGF'
p740
sS'chunktype'
p741
S'head:JJP'
p742
ssbsg34
I00
sg35
I00
sg36
Nsg37
Nsg38
I16
sg39
I0
sg40
Nsg41
Nsg42
S'JJ'
p743
sg44
g728
sg45
I00
sba(issf_api
Word
p744
(dp745
g6
I00
sg7
V\u0939\u094b
p746
sg9
(issf_api
FeatureSet
p747
(dp748
g12
(dp749
S'posn'
p750
S'360'
p751
sS'name'
p752
S'\xe0\xa4\xb9\xe0\xa5\x8b'
p753
sS'af'
p754
S'\xe0\xa4\xb9\xe0\xa5\x8b,v,any,pl,any,,0_\xe0\xa4\x9c\xe0\xa4\xbe+\xe0\xa4\xaf\xe0\xa4\xbe1,0'
p755
sS'chunkid'
p756
S'VGF'
p757
sS'chunktype'
p758
S'head:VGF'
p759
sS'voicetype'
p760
S'active'
p761
sS'vpos'
p762
S'tam_2'
p763
sS'stype'
p764
S'declarative'
p765
ssbsg34
I00
sg35
I00
sg36
Nsg37
Nsg38
I17
sg39
I0
sg40
Nsg41
Nsg42
S'VM'
p766
sg44
g747
sg45
I00
sba(issf_api
Word
p767
(dp768
g6
I00
sg7
V\u0917\u090f
p769
sg9
(issf_api
FeatureSet
p770
(dp771
g12
(dp772
S'posn'
p773
S'370'
p774
sS'name'
p775
S'\xe0\xa4\x97\xe0\xa4\x8f'
p776
sS'drel'
p777
S'lwg__vaux:VGF'
p778
sS'chunktype'
p779
S'child:VGF'
p780
sS'af'
p781
S'\xe0\xa4\x9c\xe0\xa4\xbe,v,m,pl,any,,\xe0\xa4\xaf\xe0\xa4\xbe1,yA1'
p782
ssbsg34
I00
sg35
I00
sg36
Nsg37
Nsg38
I17
sg39
I0
sg40
Nsg41
Nsg42
S'VAUX'
p783
sg44
g770
sg45
I00
sba(issf_api
Word
p784
(dp785
g6
I00
sg7
V\u0964
p786
sg9
(issf_api
FeatureSet
p787
(dp788
g12
(dp789
S'posn'
p790
S'380'
p791
sS'name'
p792
S'\xe0\xa5\xa4'
p793
sS'af'
p794
S'\xe0\xa5\xa4,punc,,,,,,'
p795
sS'chunkid'
p796
S'BLK'
p797
sS'drel'
p798
S'rsym:VGF'
p799
sS'chunktype'
p800
S'head:BLK'
p801
ssbsg34
I00
sg35
I00
sg36
Nsg37
Nsg38
I18
sg39
I0
sg40
Nsg41
Nsg42
S'SYM'
p802
sg44
g787
sg45
I00
sba(issf_api
Word
p803
(dp804
g6
I00
sg7
V\u0918\u093e\u092f\u0932\u094b\u0902
p805
sg9
(issf_api
FeatureSet
p806
(dp807
g12
(dp808
S'crefhead'
p809
S'\xe0\xa4\x98\xe0\xa4\xbe\xe0\xa4\xaf\xe0\xa4\xb2\xe0\xa5\x8b\xe0\xa4\x82:i9'
p810
sS'posn'
p811
S'10'
p812
sS'name'
p813
S'\xe0\xa4\x98\xe0\xa4\xbe\xe0\xa4\xaf\xe0\xa4\xb2\xe0\xa5\x8b\xe0\xa4\x82'
p814
sS'af'
p815
S'\xe0\xa4\x98\xe0\xa4\xbe\xe0\xa4\xaf\xe0\xa4\xb2,n,m,pl,3,o,0_\xe0\xa4\xae\xe0\xa5\x87\xe0\xa4\x82,0'
p816
sS'chunkid'
p817
S'NP'
p818
sS'creftype'
p819
S'Coreference-Noun-Noun:i8'
p820
sS'chunktype'
p821
S'head:NP'
p822
sS'vpos'
p823
S'vib_2'
p824
sS'cref'
p825
S'i9%1:t8'
p826
sS'drel'
p827
S'k7:VGF'
p828
ssbsg34
I00
sg35
I00
sg36
Nsg37
Nsg38
I0
sg39
I1
sg40
Nsg41
Nsg42
S'NN'
p829
sg44
g806
sg45
I00
sba(issf_api
Word
p830
(dp831
g6
I00
sg7
V\u092e\u0947\u0902
p832
sg9
(issf_api
FeatureSet
p833
(dp834
g12
(dp835
S'posn'
p836
S'20'
p837
sS'name'
p838
S'\xe0\xa4\xae\xe0\xa5\x87\xe0\xa4\x82'
p839
sS'drel'
p840
S'lwg__psp:NP'
p841
sS'chunktype'
p842
S'child:NP'
p843
sS'af'
p844
S'\xe0\xa4\xae\xe0\xa5\x87\xe0\xa4\x82,psp,,,,,,'
p845
ssbsg34
I00
sg35
I00
sg36
Nsg37
Nsg38
I0
sg39
I1
sg40
Nsg41
Nsg42
S'PSP'
p846
sg44
g833
sg45
I00
sba(issf_api
Word
p847
(dp848
g6
I00
sg7
V\u0905\u0927\u093f\u0915\u0924\u0930
p849
sg9
(issf_api
FeatureSet
p850
(dp851
g12
(dp852
S'posn'
p853
S'30'
p854
sS'name'
p855
S'\xe0\xa4\x85\xe0\xa4\xa7\xe0\xa4\xbf\xe0\xa4\x95\xe0\xa4\xa4\xe0\xa4\xb0'
p856
sS'drel'
p857
S'nmod__adj:NP2'
p858
sS'chunktype'
p859
S'child:NP2'
p860
sS'af'
p861
S'\xe0\xa4\x85\xe0\xa4\xa7\xe0\xa4\xbf\xe0\xa4\x95\xe0\xa4\xa4\xe0\xa4\xb0,adj,any,any,,d,,'
p862
ssbsg34
I00
sg35
I00
sg36
Nsg37
Nsg38
I1
sg39
I1
sg40
Nsg41
Nsg42
S'JJ'
p863
sg44
g850
sg45
I00
sba(issf_api
Word
p864
(dp865
g6
I00
sg7
V\u092e\u0939\u093f\u0932\u093e\u090f\u0902
p866
sg9
(issf_api
FeatureSet
p867
(dp868
g12
(dp869
S'posn'
p870
S'40'
p871
sS'name'
p872
S'\xe0\xa4\xae\xe0\xa4\xb9\xe0\xa4\xbf\xe0\xa4\xb2\xe0\xa4\xbe\xe0\xa4\x8f\xe0\xa4\x82'
p873
sS'af'
p874
S'\xe0\xa4\xae\xe0\xa4\xb9\xe0\xa4\xbf\xe0\xa4\xb2\xe0\xa4\xbe,n,f,pl,3,d,0,0'
p875
sS'chunkid'
p876
S'NP2'
p877
sS'drel'
p878
S'k1:VGF'
p879
sS'chunktype'
p880
S'head:NP2'
p881
ssbsg34
I00
sg35
I00
sg36
Nsg37
Nsg38
I1
sg39
I1
sg40
Nsg41
Nsg42
S'NN'
p882
sg44
g867
sg45
I00
sba(issf_api
Word
p883
(dp884
g6
I00
sg7
V\u0936\u093e\u092e\u093f\u0932
p885
sg9
(issf_api
FeatureSet
p886
(dp887
g12
(dp888
S'posn'
p889
S'50'
p890
sS'name'
p891
S'\xe0\xa4\xb6\xe0\xa4\xbe\xe0\xa4\xae\xe0\xa4\xbf\xe0\xa4\xb2'
p892
sS'af'
p893
S'\xe0\xa4\xb6\xe0\xa4\xbe\xe0\xa4\xae\xe0\xa4\xbf\xe0\xa4\xb2,adj,any,any,,,,'
p894
sS'chunkid'
p895
S'JJP'
p896
sS'drel'
p897
S'k1s:VGF'
p898
sS'chunktype'
p899
S'head:JJP'
p900
ssbsg34
I00
sg35
I00
sg36
Nsg37
Nsg38
I2
sg39
I1
sg40
Nsg41
Nsg42
S'JJ'
p901
sg44
g886
sg45
I00
sba(issf_api
Word
p902
(dp903
g6
I00
sg7
V\u0939\u0948\u0902
p904
sg9
(issf_api
FeatureSet
p905
(dp906
g12
(dp907
S'posn'
p908
S'60'
p909
sS'name'
p910
S'\xe0\xa4\xb9\xe0\xa5\x88\xe0\xa4\x82'
p911
sS'af'
p912
S'\xe0\xa4\xb9\xe0\xa5\x88,v,any,pl,3,,\xe0\xa4\xb9\xe0\xa5\x88,hE'
p913
sS'chunkid'
p914
S'VGF'
p915
sS'chunktype'
p916
S'head:VGF'
p917
sS'voicetype'
p918
S'active'
p919
sS'stype'
p920
S'declarative'
p921
ssbsg34
I00
sg35
I00
sg36
Nsg37
Nsg38
I3
sg39
I1
sg40
Nsg41
Nsg42
S'VM'
p922
sg44
g905
sg45
I00
sba(issf_api
Word
p923
(dp924
g6
I00
sg7
V\u0964
p925
sg9
(issf_api
FeatureSet
p926
(dp927
g12
(dp928
S'posn'
p929
S'70'
p930
sS'name'
p931
S'\xe0\xa5\xa4'
p932
sS'af'
p933
S'\xe0\xa5\xa4,punc,,,,,,'
p934
sS'chunkid'
p935
S'BLK'
p936
sS'drel'
p937
S'rsym:VGF'
p938
sS'chunktype'
p939
S'head:BLK'
p940
ssbsg34
I00
sg35
I00
sg36
Nsg37
Nsg38
I4
sg39
I1
sg40
Nsg41
Nsg42
S'SYM'
p941
sg44
g926
sg45
I00
sba(issf_api
Word
p942
(dp943
g6
I00
sg7
V\u0938\u0930\u0915\u093e\u0930\u0940
p944
sg9
(issf_api
FeatureSet
p945
(dp946
g12
(dp947
S'posn'
p948
S'10'
p949
sS'name'
p950
S'\xe0\xa4\xb8\xe0\xa4\xb0\xe0\xa4\x95\xe0\xa4\xbe\xe0\xa4\xb0\xe0\xa5\x80'
p951
sS'drel'
p952
S'nmod__adj:NP'
p953
sS'chunktype'
p954
S'child:NP'
p955
sS'af'
p956
S'\xe0\xa4\xb8\xe0\xa4\xb0\xe0\xa4\x95\xe0\xa4\xbe\xe0\xa4\xb0\xe0\xa5\x80,adj,any,any,,o,,'
p957
ssbsg34
I00
sg35
I00
sg36
Nsg37
Nsg38
I0
sg39
I2
sg40
Nsg41
Nsg42
S'JJ'
p958
sg44
g945
sg45
I00
sba(issf_api
Word
p959
(dp960
g6
I00
sg7
V\u0938\u0942\u0924\u094d\u0930\u094b\u0902
p961
sg9
(issf_api
FeatureSet
p962
(dp963
g12
(dp964
S'posn'
p965
S'20'
p966
sS'name'
p967
S'\xe0\xa4\xb8\xe0\xa5\x82\xe0\xa4\xa4\xe0\xa5\x8d\xe0\xa4\xb0\xe0\xa5\x8b\xe0\xa4\x82'
p968
sS'af'
p969
S'\xe0\xa4\xb8\xe0\xa5\x82\xe0\xa4\xa4\xe0\xa5\x8d\xe0\xa4\xb0,n,m,pl,3,o,0_\xe0\xa4\xa8\xe0\xa5\x87,0'
p970
sS'chunkid'
p971
S'NP'
p972
sS'drel'
p973
S'k1:VGF'
p974
sS'vpos'
p975
S'vib_3'
p976
sS'chunktype'
p977
S'head:NP'
p978
ssbsg34
I00
sg35
I00
sg36
Nsg37
Nsg38
I0
sg39
I2
sg40
Nsg41
Nsg42
S'NN'
p979
sg44
g962
sg45
I00
sba(issf_api
Word
p980
(dp981
g6
I00
sg7
V\u0928\u0947
p982
sg9
(issf_api
FeatureSet
p983
(dp984
g12
(dp985
S'posn'
p986
S'30'
p987
sS'name'
p988
S'\xe0\xa4\xa8\xe0\xa5\x87'
p989
sS'drel'
p990
S'lwg__psp:NP'
p991
sS'chunktype'
p992
S'child:NP'
p993
sS'af'
p994
S'\xe0\xa4\xa8\xe0\xa5\x87,psp,,,,,,'
p995
ssbsg34
I00
sg35
I00
sg36
Nsg37
Nsg38
I0
sg39
I2
sg40
Nsg41
Nsg42
S'PSP'
p996
sg44
g983
sg45
I00
sba(issf_api
Word
p997
(dp998
g6
I00
sg7
V\u0915\u0939\u093e
p999
sg9
(issf_api
FeatureSet
p1000
(dp1001
g12
(dp1002
S'posn'
p1003
S'40'
p1004
sS'name'
p1005
S'\xe0\xa4\x95\xe0\xa4\xb9\xe0\xa4\xbe'
p1006
sS'af'
p1007
S'\xe0\xa4\x95\xe0\xa4\xb9,v,m,sg,any,,\xe0\xa4\xaf\xe0\xa4\xbe,yA'
p1008
sS'chunkid'
p1009
S'VGF'
p1010
sS'chunktype'
p1011
S'head:VGF'
p1012
sS'voicetype'
p1013
S'active'
p1014
sS'stype'
p1015
S'declarative'
p1016
ssbsg34
I00
sg35
I00
sg36
Nsg37
Nsg38
I1
sg39
I2
sg40
Nsg41
Nsg42
S'VM'
p1017
sg44
g1000
sg45
I00
sba(issf_api
Word
p1018
(dp1019
g6
I00
sg7
V\u0915\u093f
p1020
sg9
(issf_api
FeatureSet
p1021
(dp1022
g12
(dp1023
S'posn'
p1024
S'50'
p1025
sS'name'
p1026
S'\xe0\xa4\x95\xe0\xa4\xbf'
p1027
sS'af'
p1028
S'\xe0\xa4\x95\xe0\xa4\xbf,avy,,,,,,'
p1029
sS'chunkid'
p1030
S'CCP'
p1031
sS'drel'
p1032
S'k2:VGF'
p1033
sS'chunktype'
p1034
S'head:CCP'
p1035
ssbsg34
I00
sg35
I00
sg36
Nsg37
Nsg38
I2
sg39
I2
sg40
Nsg41
Nsg42
S'CC'
p1036
sg44
g1021
sg45
I00
sba(issf_api
Word
p1037
(dp1038
g6
I00
sg7
V\u0932\u094b\u0917
p1039
sg9
(issf_api
FeatureSet
p1040
(dp1041
g12
(dp1042
S'posn'
p1043
S'60'
p1044
sS'name'
p1045
S'\xe0\xa4\xb2\xe0\xa5\x8b\xe0\xa4\x97'
p1046
sS'af'
p1047
S'\xe0\xa4\xb2\xe0\xa5\x8b\xe0\xa4\x97,n,m,pl,3,d,0,0'
p1048
sS'chunkid'
p1049
S'NP2'
p1050
sS'drel'
p1051
S'k1:VGF2'
p1052
sS'chunktype'
p1053
S'head:NP2'
p1054
ssbsg34
I00
sg35
I00
sg36
Nsg37
Nsg38
I3
sg39
I2
sg40
Nsg41
Nsg42
S'NN'
p1055
sg44
g1040
sg45
I00
sba(issf_api
Word
p1056
(dp1057
g6
I00
sg7
V10
p1058
sg9
(issf_api
FeatureSet
p1059
(dp1060
g12
(dp1061
S'posn'
p1062
S'70'
p1063
sS'name'
p1064
S'10'
p1065
sS'drel'
p1066
S'pof__cn:NP3'
p1067
sS'chunktype'
p1068
S'child:NP3'
p1069
sS'af'
p1070
S'10,n,any,sg,3,d,0,0'
p1071
ssbsg34
I00
sg35
I00
sg36
Nsg37
Nsg38
I4
sg39
I2
sg40
Nsg41
Nsg42
S'NNPC'
p1072
sg44
g1059
sg45
I00
sba(issf_api
Word
p1073
(dp1074
g6
I00
sg7
V\u091c\u0941\u0932\u093e\u0908
p1075
sg9
(issf_api
FeatureSet
p1076
(dp1077
g12
(dp1078
S'posn'
p1079
S'80'
p1080
sS'name'
p1081
S'\xe0\xa4\x9c\xe0\xa5\x81\xe0\xa4\xb2\xe0\xa4\xbe\xe0\xa4\x88'
p1082
sS'af'
p1083
S'\xe0\xa4\x9c\xe0\xa5\x81\xe0\xa4\xb2\xe0\xa4\xbe\xe0\xa4\x88,n,f,sg,3,o,0_\xe0\xa4\x95\xe0\xa5\x8b,0'
p1084
sS'chunkid'
p1085
S'NP3'
p1086
sS'drel'
p1087
S'k7t:VGF2'
p1088
sS'vpos'
p1089
S'vib_3'
p1090
sS'chunktype'
p1091
S'head:NP3'
p1092
ssbsg34
I00
sg35
I00
sg36
Nsg37
Nsg38
I4
sg39
I2
sg40
Nsg41
Nsg42
S'NNP'
p1093
sg44
g1076
sg45
I00
sba(issf_api
Word
p1094
(dp1095
g6
I00
sg7
V\u0915\u094b
p1096
sg9
(issf_api
FeatureSet
p1097
(dp1098
g12
(dp1099
S'posn'
p1100
S'90'
p1101
sS'name'
p1102
S'\xe0\xa4\x95\xe0\xa5\x8b'
p1103
sS'drel'
p1104
S'lwg__psp:NP3'
p1105
sS'chunktype'
p1106
S'child:NP3'
p1107
sS'af'
p1108
S'\xe0\xa4\x95\xe0\xa5\x8b,psp,,,,,,'
p1109
ssbsg34
I00
sg35
I00
sg36
Nsg37
Nsg38
I4
sg39
I2
sg40
Nsg41
Nsg42
S'PSP'
p1110
sg44
g1097
sg45
I00
sba(issf_api
Word
p1111
(dp1112
g6
I00
sg7
V\u092e\u0928\u094b\u0930\u092e\u093e
p1113
sg9
(issf_api
FeatureSet
p1114
(dp1115
g12
(dp1116
S'posn'
p1117
S'100'
p1118
sS'name'
p1119
S'\xe0\xa4\xae\xe0\xa4\xa8\xe0\xa5\x8b\xe0\xa4\xb0\xe0\xa4\xae\xe0\xa4\xbe'
p1120
sS'af'
p1121
S'\xe0\xa4\xae\xe0\xa4\xa8\xe0\xa5\x8b\xe0\xa4\xb0\xe0\xa4\xae\xe0\xa4\xbe,n,f,sg,3,d,0,0'
p1122
sS'acrefmod'
p1123
S'm3%0:i11'
p1124
sS'drel'
p1125
S'nmod__adj:NP4'
p1126
sS'chunktype'
p1127
S'child:NP4'
p1128
sS'cref'
p1129
S'i10%0:t2'
p1130
ssbsg34
I00
sg35
I00
sg36
Nsg37
Nsg38
I5
sg39
I2
sg40
Nsg41
Nsg42
S'NNP'
p1131
sg44
g1114
sg45
I00
sba(issf_api
Word
p1132
(dp1133
g6
I00
sg7
V\u0926\u0947\u0935\u0940
p1134
sg9
(issf_api
FeatureSet
p1135
(dp1136
g12
(dp1137
S'crefhead'
p1138
S'\xe0\xa4\xa6\xe0\xa5\x87\xe0\xa4\xb5\xe0\xa5\x80:i10'
p1139
sS'posn'
p1140
S'110'
p1141
sS'name'
p1142
S'\xe0\xa4\xa6\xe0\xa5\x87\xe0\xa4\xb5\xe0\xa5\x80'
p1143
sS'af'
p1144
S'\xe0\xa4\xa6\xe0\xa5\x87\xe0\xa4\xb5\xe0\xa5\x80,n,f,sg,3,o,0_\xe0\xa4\x95\xe0\xa4\xbe,0'
p1145
sS'acrefmodhead'
p1146
S'\xe0\xa4\xa6\xe0\xa5\x87\xe0\xa4\xb5\xe0\xa5\x80:m3'
p1147
sS'chunkid'
p1148
S'NP4'
p1149
sS'acrefmod'
p1150
S'm3%1:i11'
p1151
sS'creftype'
p1152
S'Coreference-Identity:i2'
p1153
sS'chunktype'
p1154
S'head:NP4'
p1155
sS'vpos'
p1156
S'vib_vib_3'
p1157
sS'cref'
p1158
S'i10%1:t2'
p1159
sS'drel'
p1160
S'r6:NP5'
p1161
ssbsg34
I00
sg35
I00
sg36
Nsg37
Nsg38
I5
sg39
I2
sg40
Nsg41
Nsg42
S'NN'
p1162
sg44
g1135
sg45
I00
sba(issf_api
Word
p1163
(dp1164
g6
I00
sg7
V\u0915\u0940
p1165
sg9
(issf_api
FeatureSet
p1166
(dp1167
g12
(dp1168
S'posn'
p1169
S'120'
p1170
sS'name'
p1171
S'\xe0\xa4\x95\xe0\xa5\x80'
p1172
sS'drel'
p1173
S'lwg__psp:NP4'
p1174
sS'chunktype'
p1175
S'child:NP4'
p1176
sS'af'
p1177
S'\xe0\xa4\x95\xe0\xa4\xbe,psp,f,sg,,o,,'
p1178
ssbsg34
I00
sg35
I00
sg36
Nsg37
Nsg38
I5
sg39
I2
sg40
Nsg41
Nsg42
S'PSP'
p1179
sg44
g1166
sg45
I00
sba(issf_api
Word
p1180
(dp1181
g6
I00
sg7
V\u0939\u0924\u094d\u092f\u093e
p1182
sg9
(issf_api
FeatureSet
p1183
(dp1184
g12
(dp1185
S'crefhead'
p1186
S'\xe0\xa4\xb9\xe0\xa4\xa4\xe0\xa5\x8d\xe0\xa4\xaf\xe0\xa4\xbe:i11'
p1187
sS'posn'
p1188
S'130'
p1189
sS'name'
p1190
S'\xe0\xa4\xb9\xe0\xa4\xa4\xe0\xa5\x8d\xe0\xa4\xaf\xe0\xa4\xbe'
p1191
sS'af'
p1192
S'\xe0\xa4\xb9\xe0\xa4\xa4\xe0\xa5\x8d\xe0\xa4\xaf\xe0\xa4\xbe,n,f,sg,3,o,0_\xe0\xa4\x95\xe0\xa5\x87_\xe0\xa4\xb5\xe0\xa4\xbf\xe0\xa4\xb0\xe0\xa5\x8b\xe0\xa4\xa7_\xe0\xa4\xae\xe0\xa5\x87\xe0\xa4\x82,0'
p1193
sS'chunkid'
p1194
S'NP5'
p1195
sS'crefmod'
p1196
S'm3:i11'
p1197
sS'creftype'
p1198
S'Coreference-Identity:i3'
p1199
sS'chunktype'
p1200
S'head:NP5'
p1201
sS'vpos'
p1202
S'vib_2_3_4'
p1203
sS'cref'
p1204
S'i11%1:t3'
p1205
sS'drel'
p1206
S'k7a:VGF2'
p1207
ssbsg34
I00
sg35
I00
sg36
Nsg37
Nsg38
I6
sg39
I2
sg40
Nsg41
Nsg42
S'NN'
p1208
sg44
g1183
sg45
I00
sba(issf_api
Word
p1209
(dp1210
g6
I00
sg7
V\u0915\u0947
p1211
sg9
(issf_api
FeatureSet
p1212
(dp1213
g12
(dp1214
S'posn'
p1215
S'140'
p1216
sS'name'
p1217
S'\xe0\xa4\x95\xe0\xa5\x87'
p1218
sS'drel'
p1219
S'lwg__psp:NP5'
p1220
sS'chunktype'
p1221
S'child:NP5'
p1222
sS'af'
p1223
S'\xe0\xa4\x95\xe0\xa5\x87,psp,m,,,o,,'
p1224
ssbsg34
I00
sg35
I00
sg36
Nsg37
Nsg38
I6
sg39
I2
sg40
Nsg41
Nsg42
S'PSP'
p1225
sg44
g1212
sg45
I00
sba(issf_api
Word
p1226
(dp1227
g6
I00
sg7
V\u0935\u093f\u0930\u094b\u0927
p1228
sg9
(issf_api
FeatureSet
p1229
(dp1230
g12
(dp1231
S'posn'
p1232
S'150'
p1233
sS'name'
p1234
S'\xe0\xa4\xb5\xe0\xa4\xbf\xe0\xa4\xb0\xe0\xa5\x8b\xe0\xa4\xa7'
p1235
sS'drel'
p1236
S'lwg__psp:NP5'
p1237
sS'chunktype'
p1238
S'child:NP5'
p1239
sS'af'
p1240
S'\xe0\xa4\xb5\xe0\xa4\xbf\xe0\xa4\xb0\xe0\xa5\x8b\xe0\xa4\xa7,n,m,,,o,,'
p1241
ssbsg34
I00
sg35
I00
sg36
Nsg37
Nsg38
I6
sg39
I2
sg40
Nsg41
Nsg42
S'PSP'
p1242
sg44
g1229
sg45
I00
sba(issf_api
Word
p1243
(dp1244
g6
I00
sg7
V\u092e\u0947\u0902
p1245
sg9
(issf_api
FeatureSet
p1246
(dp1247
g12
(dp1248
S'posn'
p1249
S'160'
p1250
sS'name'
p1251
S'\xe0\xa4\xae\xe0\xa5\x87\xe0\xa4\x82'
p1252
sS'drel'
p1253
S'lwg__psp:NP5'
p1254
sS'chunktype'
p1255
S'child:NP5'
p1256
sS'af'
p1257
S'\xe0\xa4\xae\xe0\xa5\x87\xe0\xa4\x82,psp,,,,,,'
p1258
ssbsg34
I00
sg35
I00
sg36
Nsg37
Nsg38
I6
sg39
I2
sg40
Nsg41
Nsg42
S'PSP'
p1259
sg44
g1246
sg45
I00
sba(issf_api
Word
p1260
(dp1261
g6
I00
sg7
V\u0915\u0930\u094d\u092b\u094d\u0930\u094d\u092f\u0942
p1262
sg9
(issf_api
FeatureSet
p1263
(dp1264
g12
(dp1265
S'crefhead'
p1266
S'\xe0\xa4\x95\xe0\xa4\xb0\xe0\xa5\x8d\xe0\xa4\xab\xe0\xa5\x8d\xe0\xa4\xb0\xe0\xa5\x8d\xe0\xa4\xaf\xe0\xa5\x82:i12'
p1267
sS'posn'
p1268
S'170'
p1269
sS'name'
p1270
S'\xe0\xa4\x95\xe0\xa4\xb0\xe0\xa5\x8d\xe0\xa4\xab\xe0\xa5\x8d\xe0\xa4\xb0\xe0\xa5\x8d\xe0\xa4\xaf\xe0\xa5\x82'
p1271
sS'af'
p1272
S'\xe0\xa4\x95\xe0\xa4\xb0\xe0\xa5\x8d\xe0\xa4\xab\xe0\xa5\x8d\xe0\xa4\xb0\xe0\xa5\x8d\xe0\xa4\xaf\xe0\xa5\x82,n,m,sg,3,d,0,0'
p1273
sS'chunkid'
p1274
S'NP6'
p1275
sS'acrefmod'
p1276
S'm4%0:i13'
p1277
sS'creftype'
p1278
S'Coreference-Identity:i4'
p1279
sS'chunktype'
p1280
S'head:NP6'
p1281
sS'cref'
p1282
S'i12%1:t4'
p1283
sS'drel'
p1284
S'k2:VGNF'
p1285
ssbsg34
I00
sg35
I00
sg36
Nsg37
Nsg38
I7
sg39
I2
sg40
Nsg41
Nsg42
S'NN'
p1286
sg44
g1263
sg45
I00
sba(issf_api
Word
p1287
(dp1288
g6
I00
sg7
V\u0924\u094b\u0921\u093c
p1289
sg9
(issf_api
FeatureSet
p1290
(dp1291
g12
(dp1292
S'posn'
p1293
S'180'
p1294
sS'name'
p1295
S'\xe0\xa4\xa4\xe0\xa5\x8b\xe0\xa4\xa1\xe0\xa4\xbc'
p1296
sS'af'
p1297
S'\xe0\xa4\xa4\xe0\xa5\x8b\xe0\xa4\xa1,v,any,any,any,,0_\xe0\xa4\x95\xe0\xa4\xb0,0'
p1298
sS'chunkid'
p1299
S'VGNF'
p1300
sS'acrefmod'
p1301
S'm4%0:i13'
p1302
sS'drel'
p1303
S'vmod:VGF2'
p1304
sS'vpos'
p1305
S'tam_2'
p1306
sS'chunktype'
p1307
S'head:VGNF'
p1308
ssbsg34
I00
sg35
I00
sg36
Nsg37
Nsg38
I8
sg39
I2
sg40
Nsg41
Nsg42
S'VM'
p1309
sg44
g1290
sg45
I00
sba(issf_api
Word
p1310
(dp1311
g6
I00
sg7
V\u0915\u0930
p1312
sg9
(issf_api
FeatureSet
p1313
(dp1314
g12
(dp1315
S'posn'
p1316
S'190'
p1317
sS'name'
p1318
S'\xe0\xa4\x95\xe0\xa4\xb0'
p1319
sS'af'
p1320
S'\xe0\xa4\x95\xe0\xa4\xb0,v,any,any,any,,\xe0\xa4\x95\xe0\xa4\xb0,kara'
p1321
sS'acrefmod'
p1322
S'm4%0:i13'
p1323
sS'drel'
p1324
S'lwg__vaux:VGNF'
p1325
sS'chunktype'
p1326
S'child:VGNF'
p1327
ssbsg34
I00
sg35
I00
sg36
Nsg37
Nsg38
I8
sg39
I2
sg40
Nsg41
Nsg42
S'VAUX'
p1328
sg44
g1313
sg45
I00
sba(issf_api
Word
p1329
(dp1330
g6
I00
sg7
V\u091c\u0941\u0932\u0942\u0938
p1331
sg9
(issf_api
FeatureSet
p1332
(dp1333
g12
(dp1334
S'crefhead'
p1335
S'\xe0\xa4\x9c\xe0\xa5\x81\xe0\xa4\xb2\xe0\xa5\x82\xe0\xa4\xb8:i14'
p1336
sS'posn'
p1337
S'200'
p1338
sS'name'
p1339
S'\xe0\xa4\x9c\xe0\xa5\x81\xe0\xa4\xb2\xe0\xa5\x82\xe0\xa4\xb8'
p1340
sS'af'
p1341
S'\xe0\xa4\x9c\xe0\xa5\x81\xe0\xa4\xb2\xe0\xa5\x82\xe0\xa4\xb8,n,m,sg,3,d,0,0'
p1342
sS'chunkid'
p1343
S'NP7'
p1344
sS'acrefmod'
p1345
S'm4%0:i13'
p1346
sS'creftype'
p1347
S'Coreference-Identity:i6'
p1348
sS'chunktype'
p1349
S'head:NP7'
p1350
sS'cref'
p1351
S'i14%1:t5'
p1352
sS'drel'
p1353
S'k2:VGNN'
p1354
ssbsg34
I00
sg35
I00
sg36
Nsg37
Nsg38
I9
sg39
I2
sg40
Nsg41
Nsg42
S'NN'
p1355
sg44
g1332
sg45
I00
sba(issf_api
Word
p1356
(dp1357
g6
I00
sg7
V\u0928\u093f\u0915\u093e\u0932\u0928\u0947
p1358
sg9
(issf_api
FeatureSet
p1359
(dp1360
g12
(dp1361
S'posn'
p1362
S'210'
p1363
sS'name'
p1364
S'\xe0\xa4\xa8\xe0\xa4\xbf\xe0\xa4\x95\xe0\xa4\xbe\xe0\xa4\xb2\xe0\xa4\xa8\xe0\xa5\x87'
p1365
sS'af'
p1366
S'\xe0\xa4\xa8\xe0\xa4\xbf\xe0\xa4\x95\xe0\xa4\xbe\xe0\xa4\xb2,v,any,sg,any,o,\xe0\xa4\xa8\xe0\xa4\xbe_\xe0\xa4\x95\xe0\xa4\xbe,nA'
p1367
sS'acrefmodhead'
p1368
S'\xe0\xa4\xa8\xe0\xa4\xbf\xe0\xa4\x95\xe0\xa4\xbe\xe0\xa4\xb2\xe0\xa4\xa8\xe0\xa5\x87:m4'
p1369
sS'chunkid'
p1370
S'VGNN'
p1371
sS'acrefmod'
p1372
S'm4%1:i13'
p1373
sS'drel'
p1374
S'r6-k2:NP8'
p1375
sS'vpos'
p1376
S'tam_2'
p1377
sS'chunktype'
p1378
S'head:VGNN'
p1379
ssbsg34
I00
sg35
I00
sg36
Nsg37
Nsg38
I10
sg39
I2
sg40
Nsg41
Nsg42
S'VM'
p1380
sg44
g1359
sg45
I00
sba(issf_api
Word
p1381
(dp1382
g6
I00
sg7
V\u0915\u0940
p1383
sg9
(issf_api
FeatureSet
p1384
(dp1385
g12
(dp1386
S'posn'
p1387
S'220'
p1388
sS'name'
p1389
S'\xe0\xa4\x95\xe0\xa5\x802'
p1390
sS'drel'
p1391
S'lwg__psp:VGNN'
p1392
sS'chunktype'
p1393
S'child:VGNN'
p1394
sS'af'
p1395
S'\xe0\xa4\x95\xe0\xa4\xbe,psp,f,sg,,d,,'
p1396
ssbsg34
I00
sg35
I00
sg36
Nsg37
Nsg38
I10
sg39
I2
sg40
Nsg41
Nsg42
S'PSP'
p1397
sg44
g1384
sg45
I00
sba(issf_api
Word
p1398
(dp1399
g6
I00
sg7
V\u0915\u094b\u0936\u093f\u0936
p1400
sg9
(issf_api
FeatureSet
p1401
(dp1402
g12
(dp1403
S'crefhead'
p1404
S'\xe0\xa4\x95\xe0\xa5\x8b\xe0\xa4\xb6\xe0\xa4\xbf\xe0\xa4\xb6:i13'
p1405
sS'posn'
p1406
S'230'
p1407
sS'name'
p1408
S'\xe0\xa4\x95\xe0\xa5\x8b\xe0\xa4\xb6\xe0\xa4\xbf\xe0\xa4\xb6'
p1409
sS'af'
p1410
S'\xe0\xa4\x95\xe0\xa5\x8b\xe0\xa4\xb6\xe0\xa4\xbf\xe0\xa4\xb6,n,f,sg,3,d,0,0'
p1411
sS'chunkid'
p1412
S'NP8'
p1413
sS'crefmod'
p1414
S'm4:i13'
p1415
sS'creftype'
p1416
S'Coreference-Identity:i5'
p1417
sS'chunktype'
p1418
S'head:NP8'
p1419
sS'cref'
p1420
S'i13%1:t6'
p1421
sS'drel'
p1422
S'pof:VGF2'
p1423
ssbsg34
I00
sg35
I00
sg36
Nsg37
Nsg38
I11
sg39
I2
sg40
Nsg41
Nsg42
S'NN'
p1424
sg44
g1401
sg45
I00
sba(issf_api
Word
p1425
(dp1426
g6
I00
sg7
V\u0915\u0930
p1427
sg9
(issf_api
FeatureSet
p1428
(dp1429
g12
(dp1430
S'posn'
p1431
S'240'
p1432
sS'name'
p1433
S'\xe0\xa4\x95\xe0\xa4\xb02'
p1434
sS'af'
p1435
S'\xe0\xa4\x95\xe0\xa4\xb0,v,m,pl,any,,0_\xe0\xa4\xb0\xe0\xa4\xb9+\xe0\xa4\xaf\xe0\xa4\xbe_\xe0\xa4\xa5\xe0\xa4\xbe,0'
p1436
sS'chunkid'
p1437
S'VGF2'
p1438
sS'stype'
p1439
S'declarative'
p1440
sS'drel'
p1441
S'ccof:CCP'
p1442
sS'voicetype'
p1443
S'active'
p1444
sS'vpos'
p1445
S'tam_2_3'
p1446
sS'chunktype'
p1447
S'head:VGF2'
p1448
ssbsg34
I00
sg35
I00
sg36
Nsg37
Nsg38
I12
sg39
I2
sg40
Nsg41
Nsg42
S'VM'
p1449
sg44
g1428
sg45
I00
sba(issf_api
Word
p1450
(dp1451
g6
I00
sg7
V\u0930\u0939\u0947
p1452
sg9
(issf_api
FeatureSet
p1453
(dp1454
g12
(dp1455
S'posn'
p1456
S'250'
p1457
sS'name'
p1458
S'\xe0\xa4\xb0\xe0\xa4\xb9\xe0\xa5\x87'
p1459
sS'drel'
p1460
S'lwg__vaux:VGF2'
p1461
sS'chunktype'
p1462
S'child:VGF2'
p1463
sS'af'
p1464
S'\xe0\xa4\xb0\xe0\xa4\xb9,v,m,pl,any,,\xe0\xa4\xaf\xe0\xa4\xbe,yA'
p1465
ssbsg34
I00
sg35
I00
sg36
Nsg37
Nsg38
I12
sg39
I2
sg40
Nsg41
Nsg42
S'VAUX'
p1466
sg44
g1453
sg45
I00
sba(issf_api
Word
p1467
(dp1468
g6
I00
sg7
V\u0925\u0947
p1469
sg9
(issf_api
FeatureSet
p1470
(dp1471
g12
(dp1472
S'posn'
p1473
S'260'
p1474
sS'name'
p1475
S'\xe0\xa4\xa5\xe0\xa5\x87'
p1476
sS'drel'
p1477
S'lwg__vaux:VGF2'
p1478
sS'chunktype'
p1479
S'child:VGF2'
p1480
sS'af'
p1481
S'\xe0\xa4\xa5\xe0\xa4\xbe,v,m,pl,any,,\xe0\xa4\xa5\xe0\xa4\xbe,WA'
p1482
ssbsg34
I00
sg35
I00
sg36
Nsg37
Nsg38
I12
sg39
I2
sg40
Nsg41
Nsg42
S'VAUX'
p1483
sg44
g1470
sg45
I00
sba(issf_api
Word
p1484
(dp1485
g6
I00
sg7
V\u0964
p1486
sg9
(issf_api
FeatureSet
p1487
(dp1488
g12
(dp1489
S'posn'
p1490
S'270'
p1491
sS'name'
p1492
S'\xe0\xa5\xa4'
p1493
sS'af'
p1494
S'\xe0\xa5\xa4,punc,,,,,,'
p1495
sS'chunkid'
p1496
S'BLK'
p1497
sS'drel'
p1498
S'rsym:VGF'
p1499
sS'chunktype'
p1500
S'head:BLK'
p1501
ssbsg34
I00
sg35
I00
sg36
Nsg37
Nsg38
I13
sg39
I2
sg40
Nsg41
Nsg42
S'SYM'
p1502
sg44
g1487
sg45
I00
sba(issf_api
Word
p1503
(dp1504
g6
I00
sg7
V\u0906\u0927\u093f\u0915\u093e\u0930\u093f\u0915
p1505
sg9
(issf_api
FeatureSet
p1506
(dp1507
g12
(dp1508
S'posn'
p1509
S'10'
p1510
sS'name'
p1511
S'\xe0\xa4\x86\xe0\xa4\xa7\xe0\xa4\xbf\xe0\xa4\x95\xe0\xa4\xbe\xe0\xa4\xb0\xe0\xa4\xbf\xe0\xa4\x95'
p1512
sS'drel'
p1513
S'nmod__adj:NP'
p1514
sS'chunktype'
p1515
S'child:NP'
p1516
sS'af'
p1517
S'\xe0\xa4\x86\xe0\xa4\xa7\xe0\xa4\xbf\xe0\xa4\x95\xe0\xa4\xbe\xe0\xa4\xb0\xe0\xa4\xbf\xe0\xa4\x95,adj,any,any,,o,,'
p1518
ssbsg34
I00
sg35
I00
sg36
Nsg37
Nsg38
I0
sg39
I3
sg40
Nsg41
Nsg42
S'JJ'
p1519
sg44
g1506
sg45
I00
sba(issf_api
Word
p1520
(dp1521
g6
I00
sg7
V\u0930\u093f\u092a\u094b\u0930\u094d\u091f
p1522
sg9
(issf_api
FeatureSet
p1523
(dp1524
g12
(dp1525
S'posn'
p1526
S'20'
p1527
sS'name'
p1528
S'\xe0\xa4\xb0\xe0\xa4\xbf\xe0\xa4\xaa\xe0\xa5\x8b\xe0\xa4\xb0\xe0\xa5\x8d\xe0\xa4\x9f'
p1529
sS'af'
p1530
S'\xe0\xa4\xb0\xe0\xa4\xbf\xe0\xa4\xaa\xe0\xa5\x8b\xe0\xa4\xb0\xe0\xa5\x8d\xe0\xa4\x9f,n,f,sg,3,o,0_\xe0\xa4\x95\xe0\xa5\x87_\xe0\xa4\x85\xe0\xa4\xa8\xe0\xa5\x81\xe0\xa4\xb8\xe0\xa4\xbe\xe0\xa4\xb0,0'
p1531
sS'chunkid'
p1532
S'NP'
p1533
sS'drel'
p1534
S'k7a:VGF'
p1535
sS'vpos'
p1536
S'vib_3_4'
p1537
sS'chunktype'
p1538
S'head:NP'
p1539
ssbsg34
I00
sg35
I00
sg36
Nsg37
Nsg38
I0
sg39
I3
sg40
Nsg41
Nsg42
S'NN'
p1540
sg44
g1523
sg45
I00
sba(issf_api
Word
p1541
(dp1542
g6
I00
sg7
V\u0915\u0947
p1543
sg9
(issf_api
FeatureSet
p1544
(dp1545
g12
(dp1546
S'posn'
p1547
S'30'
p1548
sS'name'
p1549
S'\xe0\xa4\x95\xe0\xa5\x87'
p1550
sS'drel'
p1551
S'lwg__psp:NP'
p1552
sS'chunktype'
p1553
S'child:NP'
p1554
sS'af'
p1555
S'\xe0\xa4\x95\xe0\xa5\x87,psp,,,,,,'
p1556
ssbsg34
I00
sg35
I00
sg36
Nsg37
Nsg38
I0
sg39
I3
sg40
Nsg41
Nsg42
S'PSP'
p1557
sg44
g1544
sg45
I00
sba(issf_api
Word
p1558
(dp1559
g6
I00
sg7
V\u0905\u0928\u0941\u0938\u093e\u0930
p1560
sg9
(issf_api
FeatureSet
p1561
(dp1562
g12
(dp1563
S'posn'
p1564
S'40'
p1565
sS'name'
p1566
S'\xe0\xa4\x85\xe0\xa4\xa8\xe0\xa5\x81\xe0\xa4\xb8\xe0\xa4\xbe\xe0\xa4\xb0'
p1567
sS'drel'
p1568
S'lwg__psp:NP'
p1569
sS'chunktype'
p1570
S'child:NP'
p1571
sS'af'
p1572
S'\xe0\xa4\x85\xe0\xa4\xa8\xe0\xa5\x81\xe0\xa4\xb8\xe0\xa4\xbe\xe0\xa4\xb0,psp,,,,,,'
p1573
ssbsg34
I00
sg35
I00
sg36
Nsg37
Nsg38
I0
sg39
I3
sg40
Nsg41
Nsg42
S'PSP'
p1574
sg44
g1561
sg45
I00
sba(issf_api
Word
p1575
(dp1576
g6
I00
sg7
V\u0935\u093f\u092d\u093f\u0928\u094d\u0928
p1577
sg9
(issf_api
FeatureSet
p1578
(dp1579
g12
(dp1580
S'posn'
p1581
S'50'
p1582
sS'name'
p1583
S'\xe0\xa4\xb5\xe0\xa4\xbf\xe0\xa4\xad\xe0\xa4\xbf\xe0\xa4\xa8\xe0\xa5\x8d\xe0\xa4\xa8'
p1584
sS'drel'
p1585
S'nmod__adj:NP2'
p1586
sS'chunktype'
p1587
S'child:NP2'
p1588
sS'af'
p1589
S'\xe0\xa4\xb5\xe0\xa4\xbf\xe0\xa4\xad\xe0\xa4\xbf\xe0\xa4\xa8\xe0\xa5\x8d\xe0\xa4\xa8,adj,any,any,,o,,'
p1590
ssbsg34
I00
sg35
I00
sg36
Nsg37
Nsg38
I1
sg39
I3
sg40
Nsg41
Nsg42
S'JJ'
p1591
sg44
g1578
sg45
I00
sba(issf_api
Word
p1592
(dp1593
g6
I00
sg7
V\u0938\u094d\u0925\u093e\u0928\u094b\u0902
p1594
sg9
(issf_api
FeatureSet
p1595
(dp1596
g12
(dp1597
S'posn'
p1598
S'60'
p1599
sS'name'
p1600
S'\xe0\xa4\xb8\xe0\xa5\x8d\xe0\xa4\xa5\xe0\xa4\xbe\xe0\xa4\xa8\xe0\xa5\x8b\xe0\xa4\x82'
p1601
sS'af'
p1602
S'\xe0\xa4\xb8\xe0\xa5\x8d\xe0\xa4\xa5\xe0\xa4\xbe\xe0\xa4\xa8,n,m,pl,3,o,0_\xe0\xa4\xb8\xe0\xa5\x87,0'
p1603
sS'chunkid'
p1604
S'NP2'
p1605
sS'drel'
p1606
S'k5:VGNF'
p1607
sS'vpos'
p1608
S'vib_3'
p1609
sS'chunktype'
p1610
S'head:NP2'
p1611
ssbsg34
I00
sg35
I00
sg36
Nsg37
Nsg38
I1
sg39
I3
sg40
Nsg41
Nsg42
S'NN'
p1612
sg44
g1595
sg45
I00
sba(issf_api
Word
p1613
(dp1614
g6
I00
sg7
V\u0938\u0947
p1615
sg9
(issf_api
FeatureSet
p1616
(dp1617
g12
(dp1618
S'posn'
p1619
S'70'
p1620
sS'name'
p1621
S'\xe0\xa4\xb8\xe0\xa5\x87'
p1622
sS'drel'
p1623
S'lwg__psp:NP2'
p1624
sS'chunktype'
p1625
S'child:NP2'
p1626
sS'af'
p1627
S'\xe0\xa4\xb8\xe0\xa5\x87,psp,,,,,,'
p1628
ssbsg34
I00
sg35
I00
sg36
Nsg37
Nsg38
I1
sg39
I3
sg40
Nsg41
Nsg42
S'PSP'
p1629
sg44
g1616
sg45
I00
sba(issf_api
Word
p1630
(dp1631
g6
I00
sg7
V\u0906\u090f
p1632
sg9
(issf_api
FeatureSet
p1633
(dp1634
g12
(dp1635
S'posn'
p1636
S'80'
p1637
sS'name'
p1638
S'\xe0\xa4\x86\xe0\xa4\x8f'
p1639
sS'af'
p1640
S'\xe0\xa4\x86,v,m,pl,any,,\xe0\xa4\xaf\xe0\xa4\xbe,yA'
p1641
sS'chunkid'
p1642
S'VGNF'
p1643
sS'drel'
p1644
S'nmod__k1inv:NP3'
p1645
sS'chunktype'
p1646
S'head:VGNF'
p1647
ssbsg34
I00
sg35
I00
sg36
Nsg37
Nsg38
I2
sg39
I3
sg40
Nsg41
Nsg42
S'VM'
p1648
sg44
g1633
sg45
I00
sba(issf_api
Word
p1649
(dp1650
g6
I00
sg7
V\u0938\u0948\u0902\u0915\u0921\u093c\u094b\u0902
p1651
sg9
(issf_api
FeatureSet
p1652
(dp1653
g12
(dp1654
S'posn'
p1655
S'90'
p1656
sS'name'
p1657
S'\xe0\xa4\xb8\xe0\xa5\x88\xe0\xa4\x82\xe0\xa4\x95\xe0\xa4\xa1\xe0\xa4\xbc\xe0\xa5\x8b\xe0\xa4\x82'
p1658
sS'af'
p1659
S'\xe0\xa4\xb8\xe0\xa5\x88\xe0\xa4\x82\xe0\xa4\x95\xe0\xa4\xa1\xe0\xa4\xbc\xe0\xa4\xbe,num,any,pl,,o,0_\xe0\xa4\x95\xe0\xa4\xbe,'
p1660
sS'chunkid'
p1661
S'NP3'
p1662
sS'drel'
p1663
S'r6:NP4'
p1664
sS'vpos'
p1665
S'2'
p1666
sS'chunktype'
p1667
S'head:NP3'
p1668
ssbsg34
I00
sg35
I00
sg36
Nsg37
Nsg38
I3
sg39
I3
sg40
Nsg41
Nsg42
S'QC'
p1669
sg44
g1652
sg45
I00
sba(issf_api
Word
p1670
(dp1671
g6
I00
sg7
V\u0915\u0940
p1672
sg9
(issf_api
FeatureSet
p1673
(dp1674
g12
(dp1675
S'posn'
p1676
S'100'
p1677
sS'name'
p1678
S'\xe0\xa4\x95\xe0\xa5\x80'
p1679
sS'drel'
p1680
S'lwg__psp:NP3'
p1681
sS'chunktype'
p1682
S'child:NP3'
p1683
sS'af'
p1684
S'\xe0\xa4\x95\xe0\xa4\xbe,psp,f,sg,,o,,'
p1685
ssbsg34
I00
sg35
I00
sg36
Nsg37
Nsg38
I3
sg39
I3
sg40
Nsg41
Nsg42
S'PSP'
p1686
sg44
g1673
sg45
I00
sba(issf_api
Word
p1687
(dp1688
g6
I00
sg7
V\u0938\u0902\u0916\u094d\u092f\u093e
p1689
sg9
(issf_api
FeatureSet
p1690
(dp1691
g12
(dp1692
S'posn'
p1693
S'110'
p1694
sS'name'
p1695
S'\xe0\xa4\xb8\xe0\xa4\x82\xe0\xa4\x96\xe0\xa5\x8d\xe0\xa4\xaf\xe0\xa4\xbe'
p1696
sS'af'
p1697
S'\xe0\xa4\xb8\xe0\xa4\x82\xe0\xa4\x96\xe0\xa5\x8d\xe0\xa4\xaf\xe0\xa4\xbe,n,f,sg,3,o,0_\xe0\xa4\xae\xe0\xa5\x87\xe0\xa4\x82,0'
p1698
sS'chunkid'
p1699
S'NP4'
p1700
sS'drel'
p1701
S'nmod:NP5'
p1702
sS'vpos'
p1703
S'vib_2'
p1704
sS'chunktype'
p1705
S'head:NP4'
p1706
ssbsg34
I00
sg35
I00
sg36
Nsg37
Nsg38
I4
sg39
I3
sg40
Nsg41
Nsg42
S'NN'
p1707
sg44
g1690
sg45
I00
sba(issf_api
Word
p1708
(dp1709
g6
I00
sg7
V\u092e\u0947\u0902
p1710
sg9
(issf_api
FeatureSet
p1711
(dp1712
g12
(dp1713
S'posn'
p1714
S'120'
p1715
sS'name'
p1716
S'\xe0\xa4\xae\xe0\xa5\x87\xe0\xa4\x82'
p1717
sS'drel'
p1718
S'lwg__psp:NP4'
p1719
sS'chunktype'
p1720
S'child:NP4'
p1721
sS'af'
p1722
S'\xe0\xa4\xae\xe0\xa5\x87\xe0\xa4\x82,psp,,,,,,'
p1723
ssbsg34
I00
sg35
I00
sg36
Nsg37
Nsg38
I4
sg39
I3
sg40
Nsg41
Nsg42
S'PSP'
p1724
sg44
g1711
sg45
I00
sba(issf_api
Word
p1725
(dp1726
g6
I00
sg7
V\u0932\u094b\u0917
p1727
sg9
(issf_api
FeatureSet
p1728
(dp1729
g12
(dp1730
S'posn'
p1731
S'130'
p1732
sS'name'
p1733
S'\xe0\xa4\xb2\xe0\xa5\x8b\xe0\xa4\x97'
p1734
sS'af'
p1735
S'\xe0\xa4\xb2\xe0\xa5\x8b\xe0\xa4\x97,n,m,pl,3,d,0,0'
p1736
sS'chunkid'
p1737
S'NP5'
p1738
sS'drel'
p1739
S'k1:VGF'
p1740
sS'chunktype'
p1741
S'head:NP5'
p1742
ssbsg34
I00
sg35
I00
sg36
Nsg37
Nsg38
I5
sg39
I3
sg40
Nsg41
Nsg42
S'NN'
p1743
sg44
g1728
sg45
I00
sba(issf_api
Word
p1744
(dp1745
g6
I00
sg7
V\u0915\u0930\u094d\u092b\u094d\u0930\u094d\u092f\u0942
p1746
sg9
(issf_api
FeatureSet
p1747
(dp1748
g12
(dp1749
S'crefhead'
p1750
S'\xe0\xa4\x95\xe0\xa4\xb0\xe0\xa5\x8d\xe0\xa4\xab\xe0\xa5\x8d\xe0\xa4\xb0\xe0\xa5\x8d\xe0\xa4\xaf\xe0\xa5\x82:i15'
p1751
sS'posn'
p1752
S'140'
p1753
sS'name'
p1754
S'\xe0\xa4\x95\xe0\xa4\xb0\xe0\xa5\x8d\xe0\xa4\xab\xe0\xa5\x8d\xe0\xa4\xb0\xe0\xa5\x8d\xe0\xa4\xaf\xe0\xa5\x82'
p1755
sS'af'
p1756
S'\xe0\xa4\x95\xe0\xa4\xb0\xe0\xa5\x8d\xe0\xa4\xab\xe0\xa5\x8d\xe0\xa4\xb0\xe0\xa5\x8d\xe0\xa4\xaf\xe0\xa5\x82,n,m,sg,3,d,0,0'
p1757
sS'chunkid'
p1758
S'NP6'
p1759
sS'creftype'
p1760
S'Coreference-Identity:i12'
p1761
sS'chunktype'
p1762
S'head:NP6'
p1763
sS'cref'
p1764
S'i15%1:t4'
p1765
sS'drel'
p1766
S'k2:VGNF2'
p1767
ssbsg34
I00
sg35
I00
sg36
Nsg37
Nsg38
I6
sg39
I3
sg40
Nsg41
Nsg42
S'NN'
p1768
sg44
g1747
sg45
I00
sba(issf_api
Word
p1769
(dp1770
g6
I00
sg7
V\u0924\u094b\u0921\u093c\u0924\u0947
p1771
sg9
(issf_api
FeatureSet
p1772
(dp1773
g12
(dp1774
S'posn'
p1775
S'150'
p1776
sS'name'
p1777
S'\xe0\xa4\xa4\xe0\xa5\x8b\xe0\xa4\xa1\xe0\xa4\xbc\xe0\xa4\xa4\xe0\xa5\x87'
p1778
sS'af'
p1779
S'\xe0\xa4\xa4\xe0\xa5\x8b\xe0\xa4\xa1,v,m,sg,any,,\xe0\xa4\xa4\xe0\xa4\xbe_\xe0\xa4\xb9\xe0\xa5\x8b+\xe0\xa4\xaf\xe0\xa4\xbe,wA'
p1780
sS'chunkid'
p1781
S'VGNF2'
p1782
sS'drel'
p1783
S'vmod:VGF'
p1784
sS'vpos'
p1785
S'tam_2'
p1786
sS'chunktype'
p1787
S'head:VGNF2'
p1788
ssbsg34
I00
sg35
I00
sg36
Nsg37
Nsg38
I7
sg39
I3
sg40
Nsg41
Nsg42
S'VM'
p1789
sg44
g1772
sg45
I00
sba(issf_api
Word
p1790
(dp1791
g6
I00
sg7
V\u0939\u0941\u090f
p1792
sg9
(issf_api
FeatureSet
p1793
(dp1794
g12
(dp1795
S'posn'
p1796
S'160'
p1797
sS'name'
p1798
S'\xe0\xa4\xb9\xe0\xa5\x81\xe0\xa4\x8f'
p1799
sS'drel'
p1800
S'lwg__vaux:VGNF2'
p1801
sS'chunktype'
p1802
S'child:VGNF2'
p1803
sS'af'
p1804
S'\xe0\xa4\xb9\xe0\xa5\x8b,v,m,sg,any,,\xe0\xa4\xaf\xe0\xa4\xbe,yA'
p1805
ssbsg34
I00
sg35
I00
sg36
Nsg37
Nsg38
I7
sg39
I3
sg40
Nsg41
Nsg42
S'VAUX'
p1806
sg44
g1793
sg45
I00
sba(issf_api
Word
p1807
(dp1808
g6
I00
sg7
V\u0907\u0902\u092b\u093e\u0932
p1809
sg9
(issf_api
FeatureSet
p1810
(dp1811
g12
(dp1812
S'crefhead'
p1813
S'\xe0\xa4\x87\xe0\xa4\x82\xe0\xa4\xab\xe0\xa4\xbe\xe0\xa4\xb2:i16'
p1814
sS'posn'
p1815
S'170'
p1816
sS'name'
p1817
S'\xe0\xa4\x87\xe0\xa4\x82\xe0\xa4\xab\xe0\xa4\xbe\xe0\xa4\xb2'
p1818
sS'af'
p1819
S'\xe0\xa4\x87\xe0\xa4\x82\xe0\xa4\xab\xe0\xa4\xbe\xe0\xa4\xb2,n,m,sg,3,o,0_\xe0\xa4\xae\xe0\xa5\x87\xe0\xa4\x82,0'
p1820
sS'chunkid'
p1821
S'NP7'
p1822
sS'creftype'
p1823
S'Coreference-Identity:i1'
p1824
sS'chunktype'
p1825
S'head:NP7'
p1826
sS'vpos'
p1827
S'vib_2'
p1828
sS'cref'
p1829
S'i16%1:t1'
p1830
sS'drel'
p1831
S'k7p:VGF'
p1832
ssbsg34
I00
sg35
I00
sg36
Nsg37
Nsg38
I8
sg39
I3
sg40
Nsg41
Nsg42
S'NNP'
p1833
sg44
g1810
sg45
I00
sba(issf_api
Word
p1834
(dp1835
g6
I00
sg7
V\u092e\u0947\u0902
p1836
sg9
(issf_api
FeatureSet
p1837
(dp1838
g12
(dp1839
S'posn'
p1840
S'180'
p1841
sS'name'
p1842
S'\xe0\xa4\xae\xe0\xa5\x87\xe0\xa4\x822'
p1843
sS'drel'
p1844
S'lwg__psp:NP7'
p1845
sS'chunktype'
p1846
S'child:NP7'
p1847
sS'af'
p1848
S'\xe0\xa4\xae\xe0\xa5\x87\xe0\xa4\x82,psp,,,,,,'
p1849
ssbsg34
I00
sg35
I00
sg36
Nsg37
Nsg38
I8
sg39
I3
sg40
Nsg41
Nsg42
S'PSP'
p1850
sg44
g1837
sg45
I00
sba(issf_api
Word
p1851
(dp1852
g6
I00
sg7
V\u0907\u0915\u091f\u094d\u0920\u0947
p1853
sg9
(issf_api
FeatureSet
p1854
(dp1855
g12
(dp1856
S'posn'
p1857
S'190'
p1858
sS'name'
p1859
S'\xe0\xa4\x87\xe0\xa4\x95\xe0\xa4\x9f\xe0\xa5\x8d\xe0\xa4\xa0\xe0\xa5\x87'
p1860
sS'af'
p1861
S'\xe0\xa4\x87\xe0\xa4\x95\xe0\xa4\x9f\xe0\xa5\x8d\xe0\xa4\xa0\xe0\xa4\xbe,adj,m,pl,,,,'
p1862
sS'chunkid'
p1863
S'JJP'
p1864
sS'drel'
p1865
S'adv:VGF'
p1866
sS'chunktype'
p1867
S'head:JJP'
p1868
ssbsg34
I00
sg35
I00
sg36
Nsg37
Nsg38
I9
sg39
I3
sg40
Nsg41
Nsg42
S'JJ'
p1869
sg44
g1854
sg45
I00
sba(issf_api
Word
p1870
(dp1871
g6
I00
sg7
V\u0939\u094b
p1872
sg9
(issf_api
FeatureSet
p1873
(dp1874
g12
(dp1875
S'posn'
p1876
S'200'
p1877
sS'name'
p1878
S'\xe0\xa4\xb9\xe0\xa5\x8b'
p1879
sS'af'
p1880
S'\xe0\xa4\xb9\xe0\xa5\x8b,v,any,pl,any,,0_\xe0\xa4\x9c\xe0\xa4\xbe+\xe0\xa4\xaf\xe0\xa4\xbe1,0'
p1881
sS'chunkid'
p1882
S'VGF'
p1883
sS'stype'
p1884
S'declarative'
p1885
sS'drel'
p1886
S'ccof:CCP'
p1887
sS'voicetype'
p1888
S'active'
p1889
sS'vpos'
p1890
S'tam_2'
p1891
sS'chunktype'
p1892
S'head:VGF'
p1893
ssbsg34
I00
sg35
I00
sg36
Nsg37
Nsg38
I10
sg39
I3
sg40
Nsg41
Nsg42
S'VM'
p1894
sg44
g1873
sg45
I00
sba(issf_api
Word
p1895
(dp1896
g6
I00
sg7
V\u0917\u090f
p1897
sg9
(issf_api
FeatureSet
p1898
(dp1899
g12
(dp1900
S'posn'
p1901
S'210'
p1902
sS'name'
p1903
S'\xe0\xa4\x97\xe0\xa4\x8f'
p1904
sS'drel'
p1905
S'lwg__vaux:VGF'
p1906
sS'chunktype'
p1907
S'child:VGF'
p1908
sS'af'
p1909
S'\xe0\xa4\x9c\xe0\xa4\xbe,v,m,pl,any,,\xe0\xa4\xaf\xe0\xa4\xbe1,yA1'
p1910
ssbsg34
I00
sg35
I00
sg36
Nsg37
Nsg38
I10
sg39
I3
sg40
Nsg41
Nsg42
S'VAUX'
p1911
sg44
g1898
sg45
I00
sba(issf_api
Word
p1912
(dp1913
g6
I00
sg7
V\u0914\u0930
p1914
sg9
(issf_api
FeatureSet
p1915
(dp1916
g12
(dp1917
S'posn'
p1918
S'220'
p1919
sS'chunkid'
p1920
S'CCP'
p1921
sS'name'
p1922
S'\xe0\xa4\x94\xe0\xa4\xb0'
p1923
sS'chunktype'
p1924
S'head:CCP'
p1925
sS'af'
p1926
S'\xe0\xa4\x94\xe0\xa4\xb0,avy,,,,,,'
p1927
ssbsg34
I00
sg35
I00
sg36
Nsg37
Nsg38
I11
sg39
I3
sg40
Nsg41
Nsg42
S'CC'
p1928
sg44
g1915
sg45
I00
sba(issf_api
Word
p1929
(dp1930
g6
I00
sg7
V\u0915\u094b\u0917\u0902\u092c\u093e
p1931
sg9
(issf_api
FeatureSet
p1932
(dp1933
g12
(dp1934
S'crefhead'
p1935
S'\xe0\xa4\x95\xe0\xa5\x8b\xe0\xa4\x97\xe0\xa4\x82\xe0\xa4\xac\xe0\xa4\xbe:i17'
p1936
sS'posn'
p1937
S'230'
p1938
sS'name'
p1939
S'\xe0\xa4\x95\xe0\xa5\x8b\xe0\xa4\x97\xe0\xa4\x82\xe0\xa4\xac\xe0\xa4\xbe'
p1940
sS'af'
p1941
S'\xe0\xa4\x95\xe0\xa5\x8b\xe0\xa4\x97\xe0\xa4\x82\xe0\xa4\xac\xe0\xa4\xbe,n,m,sg,3,o,0,0'
p1942
sS'chunkid'
p1943
S'NP8'
p1944
sS'chunktype'
p1945
S'head:NP8'
p1946
sS'crefchainhead'
p1947
S'i17:t9'
p1948
sS'cref'
p1949
S'i17%1:t9'
p1950
sS'drel'
p1951
S'ccof:NULL__CCP'
p1952
ssbsg34
I00
sg35
I00
sg36
Nsg37
Nsg38
I12
sg39
I3
sg40
Nsg41
Nsg42
S'NNP'
p1953
sg44
g1932
sg45
I00
sba(issf_api
Word
p1954
(dp1955
g6
I00
sg7
V,
p1956
sg9
(issf_api
FeatureSet
p1957
(dp1958
g12
(dp1959
S'posn'
p1960
S'240'
p1961
sS'name'
p1962
S','
p1963
sS'drel'
p1964
S'rsym:NP8'
p1965
sS'chunktype'
p1966
S'child:NP8'
p1967
sS'af'
p1968
S'COMMA,punc,,,,,,'
p1969
ssbsg34
I00
sg35
I00
sg36
Nsg37
Nsg38
I12
sg39
I3
sg40
Nsg41
Nsg42
S'SYM'
p1970
sg44
g1957
sg45
I00
sba(issf_api
Word
p1971
(dp1972
g6
I00
sg7
V\u0938\u0902\u0917\u093e\u0902\u0917\u092b\u093e\u092e
p1973
sg9
(issf_api
FeatureSet
p1974
(dp1975
g12
(dp1976
S'posn'
p1977
S'250'
p1978
sS'name'
p1979
S'\xe0\xa4\xb8\xe0\xa4\x82\xe0\xa4\x97\xe0\xa4\xbe\xe0\xa4\x82\xe0\xa4\x97\xe0\xa4\xab\xe0\xa4\xbe\xe0\xa4\xae'
p1980
sS'af'
p1981
S'\xe0\xa4\xb8\xe0\xa4\x82\xe0\xa4\x97\xe0\xa4\xbe\xe0\xa4\x82\xe0\xa4\x97\xe0\xa4\xab\xe0\xa4\xbe\xe0\xa4\xae,n,m,sg,3,o,0,0'
p1982
sS'chunkid'
p1983
S'NP9'
p1984
sS'drel'
p1985
S'ccof:NULL__CCP'
p1986
sS'chunktype'
p1987
S'head:NP9'
p1988
ssbsg34
I00
sg35
I00
sg36
Nsg37
Nsg38
I13
sg39
I3
sg40
Nsg41
Nsg42
S'NNP'
p1989
sg44
g1974
sg45
I00
sba(issf_api
Word
p1990
(dp1991
g6
I00
sg7
V,
p1992
sg9
(issf_api
FeatureSet
p1993
(dp1994
g12
(dp1995
S'posn'
p1996
S'260'
p1997
sS'name'
p1998
S',2'
p1999
sS'drel'
p2000
S'rsym:NP9'
p2001
sS'chunktype'
p2002
S'child:NP9'
p2003
sS'af'
p2004
S'COMMA,punc,,,,,,'
p2005
ssbsg34
I00
sg35
I00
sg36
Nsg37
Nsg38
I13
sg39
I3
sg40
Nsg41
Nsg42
S'SYM'
p2006
sg44
g1993
sg45
I00
sba(issf_api
Word
p2007
(dp2008
g6
I00
sg7
V\u091f\u0947\u0930\u093e
p2009
sg9
(issf_api
FeatureSet
p2010
(dp2011
g12
(dp2012
S'posn'
p2013
S'270'
p2014
sS'name'
p2015
S'\xe0\xa4\x9f\xe0\xa5\x87\xe0\xa4\xb0\xe0\xa4\xbe'
p2016
sS'af'
p2017
S'\xe0\xa4\x9f\xe0\xa5\x87\xe0\xa4\xb0,n,m,sg,3,o,0,0'
p2018
sS'chunkid'
p2019
S'NP10'
p2020
sS'drel'
p2021
S'ccof:NULL__CCP'
p2022
sS'chunktype'
p2023
S'head:NP10'
p2024
ssbsg34
I00
sg35
I00
sg36
Nsg37
Nsg38
I14
sg39
I3
sg40
Nsg41
Nsg42
S'NNP'
p2025
sg44
g2010
sg45
I00
sba(issf_api
Word
p2026
(dp2027
g6
I00
sg7
V,
p2028
sg9
(issf_api
FeatureSet
p2029
(dp2030
g12
(dp2031
S'posn'
p2032
S'280'
p2033
sS'name'
p2034
S',3'
p2035
sS'drel'
p2036
S'rsym:NP10'
p2037
sS'chunktype'
p2038
S'child:NP10'
p2039
sS'af'
p2040
S'COMMA,punc,,,,,,'
p2041
ssbsg34
I00
sg35
I00
sg36
Nsg37
Nsg38
I14
sg39
I3
sg40
Nsg41
Nsg42
S'SYM'
p2042
sg44
g2029
sg45
I00
sba(issf_api
Word
p2043
(dp2044
g6
I00
sg7
V\u0909\u091a\u0947\u0915\u094b\u0928
p2045
sg9
(issf_api
FeatureSet
p2046
(dp2047
g12
(dp2048
S'posn'
p2049
S'290'
p2050
sS'name'
p2051
S'\xe0\xa4\x89\xe0\xa4\x9a\xe0\xa5\x87\xe0\xa4\x95\xe0\xa5\x8b\xe0\xa4\xa8'
p2052
sS'af'
p2053
S'\xe0\xa4\x89\xe0\xa4\x9a\xe0\xa5\x87\xe0\xa4\x95\xe0\xa5\x8b\xe0\xa4\xa8,n,m,sg,3,o,0_\xe0\xa4\xb8\xe0\xa4\xae\xe0\xa5\x87\xe0\xa4\xa4,0'
p2054
sS'chunkid'
p2055
S'NP11'
p2056
sS'drel'
p2057
S'ccof:NULL__CCP'
p2058
sS'vpos'
p2059
S'vib_2'
p2060
sS'chunktype'
p2061
S'head:NP11'
p2062
ssbsg34
I00
sg35
I00
sg36
Nsg37
Nsg38
I15
sg39
I3
sg40
Nsg41
Nsg42
S'NNP'
p2063
sg44
g2046
sg45
I00
sba(issf_api
Word
p2064
(dp2065
g6
I00
sg7
V\u0938\u092e\u0947\u0924
p2066
sg9
(issf_api
FeatureSet
p2067
(dp2068
g12
(dp2069
S'posn'
p2070
S'300'
p2071
sS'name'
p2072
S'\xe0\xa4\xb8\xe0\xa4\xae\xe0\xa5\x87\xe0\xa4\xa4'
p2073
sS'drel'
p2074
S'lwg__psp:NP11'
p2075
sS'chunktype'
p2076
S'child:NP11'
p2077
sS'af'
p2078
S'\xe0\xa4\xb8\xe0\xa4\xae\xe0\xa5\x87\xe0\xa4\xa4,psp,,,,,,'
p2079
ssbsg34
I00
sg35
I00
sg36
Nsg37
Nsg38
I15
sg39
I3
sg40
Nsg41
Nsg42
S'PSP'
p2080
sg44
g2067
sg45
I00
sba(issf_api
Word
p2081
(dp2082
g6
I00
sg7
V\u0930\u093e\u091c\u0927\u093e\u0928\u0940
p2083
sg9
(issf_api
FeatureSet
p2084
(dp2085
g12
(dp2086
S'crefhead'
p2087
S'\xe0\xa4\xb0\xe0\xa4\xbe\xe0\xa4\x9c\xe0\xa4\xa7\xe0\xa4\xbe\xe0\xa4\xa8\xe0\xa5\x80:i18'
p2088
sS'posn'
p2089
S'310'
p2090
sS'name'
p2091
S'\xe0\xa4\xb0\xe0\xa4\xbe\xe0\xa4\x9c\xe0\xa4\xa7\xe0\xa4\xbe\xe0\xa4\xa8\xe0\xa5\x80'
p2092
sS'af'
p2093
S'\xe0\xa4\xb0\xe0\xa4\xbe\xe0\xa4\x9c\xe0\xa4\xa7\xe0\xa4\xbe\xe0\xa4\xa8\xe0\xa5\x80,n,f,sg,3,o,0_\xe0\xa4\x95\xe0\xa4\xbe,0'
p2094
sS'chunkid'
p2095
S'NP12'
p2096
sS'creftype'
p2097
S'Coreference-InferedRelation:i16'
p2098
sS'chunktype'
p2099
S'head:NP12'
p2100
sS'vpos'
p2101
S'vib_2'
p2102
sS'cref'
p2103
S'i18%1:t1'
p2104
sS'drel'
p2105
S'r6:NP13'
p2106
ssbsg34
I00
sg35
I00
sg36
Nsg37
Nsg38
I16
sg39
I3
sg40
Nsg41
Nsg42
S'NN'
p2107
sg44
g2084
sg45
I00
sba(issf_api
Word
p2108
(dp2109
g6
I00
sg7
V\u0915\u0947
p2110
sg9
(issf_api
FeatureSet
p2111
(dp2112
g12
(dp2113
S'posn'
p2114
S'320'
p2115
sS'name'
p2116
S'\xe0\xa4\x95\xe0\xa5\x872'
p2117
sS'drel'
p2118
S'lwg__psp:NP12'
p2119
sS'chunktype'
p2120
S'child:NP12'
p2121
sS'af'
p2122
S'\xe0\xa4\x95\xe0\xa4\xbe,psp,m,pl,,o,,'
p2123
ssbsg34
I00
sg35
I00
sg36
Nsg37
Nsg38
I16
sg39
I3
sg40
Nsg41
Nsg42
S'PSP'
p2124
sg44
g2111
sg45
I00
sba(issf_api
Word
p2125
(dp2126
g6
I00
sg7
V\u092c\u093e\u0939\u0930\u0940
p2127
sg9
(issf_api
FeatureSet
p2128
(dp2129
g12
(dp2130
S'posn'
p2131
S'330'
p2132
sS'name'
p2133
S'\xe0\xa4\xac\xe0\xa4\xbe\xe0\xa4\xb9\xe0\xa4\xb0\xe0\xa5\x80'
p2134
sS'drel'
p2135
S'nmod__adj:NP13'
p2136
sS'chunktype'
p2137
S'child:NP13'
p2138
sS'af'
p2139
S'\xe0\xa4\xac\xe0\xa4\xbe\xe0\xa4\xb9\xe0\xa4\xb0\xe0\xa5\x80,adj,any,any,,o,,'
p2140
ssbsg34
I00
sg35
I00
sg36
Nsg37
Nsg38
I17
sg39
I3
sg40
Nsg41
Nsg42
S'JJ'
p2141
sg44
g2128
sg45
I00
sba(issf_api
Word
p2142
(dp2143
g6
I00
sg7
V\u0915\u094d\u0937\u0947\u0924\u094d\u0930\u094b\u0902
p2144
sg9
(issf_api
FeatureSet
p2145
(dp2146
g12
(dp2147
S'posn'
p2148
S'340'
p2149
sS'name'
p2150
S'\xe0\xa4\x95\xe0\xa5\x8d\xe0\xa4\xb7\xe0\xa5\x87\xe0\xa4\xa4\xe0\xa5\x8d\xe0\xa4\xb0\xe0\xa5\x8b\xe0\xa4\x82'
p2151
sS'af'
p2152
S'\xe0\xa4\x95\xe0\xa5\x8d\xe0\xa4\xb7\xe0\xa5\x87\xe0\xa4\xa4\xe0\xa5\x8d\xe0\xa4\xb0,n,m,pl,3,o,0_\xe0\xa4\xae\xe0\xa5\x87\xe0\xa4\x82,0'
p2153
sS'chunkid'
p2154
S'NP13'
p2155
sS'drel'
p2156
S'ccof:NULL__CCP'
p2157
sS'vpos'
p2158
S'vib_3'
p2159
sS'chunktype'
p2160
S'head:NP13'
p2161
ssbsg34
I00
sg35
I00
sg36
Nsg37
Nsg38
I17
sg39
I3
sg40
Nsg41
Nsg42
S'NN'
p2162
sg44
g2145
sg45
I00
sba(issf_api
Word
p2163
(dp2164
g6
I00
sg7
V\u092e\u0947\u0902
p2165
sg9
(issf_api
FeatureSet
p2166
(dp2167
g12
(dp2168
S'posn'
p2169
S'350'
p2170
sS'name'
p2171
S'\xe0\xa4\xae\xe0\xa5\x87\xe0\xa4\x823'
p2172
sS'drel'
p2173
S'lwg__psp:NP13'
p2174
sS'chunktype'
p2175
S'child:NP13'
p2176
sS'af'
p2177
S'\xe0\xa4\xae\xe0\xa5\x87\xe0\xa4\x82,psp,,,,,,'
p2178
ssbsg34
I00
sg35
I00
sg36
Nsg37
Nsg38
I17
sg39
I3
sg40
Nsg41
Nsg42
S'PSP'
p2179
sg44
g2166
sg45
I00
sba(issf_api
Word
p2180
(dp2181
g6
I00
sg7
V\u0938\u0941\u0930\u0915\u094d\u0937\u093e
p2182
sg9
(issf_api
FeatureSet
p2183
(dp2184
g12
(dp2185
S'posn'
p2186
S'360'
p2187
sS'name'
p2188
S'\xe0\xa4\xb8\xe0\xa5\x81\xe0\xa4\xb0\xe0\xa4\x95\xe0\xa5\x8d\xe0\xa4\xb7\xe0\xa4\xbe'
p2189
sS'drel'
p2190
S'pof__cn:NP14'
p2191
sS'chunktype'
p2192
S'child:NP14'
p2193
sS'af'
p2194
S'\xe0\xa4\xb8\xe0\xa5\x81\xe0\xa4\xb0\xe0\xa4\x95\xe0\xa5\x8d\xe0\xa4\xb7\xe0\xa4\xbe,n,f,sg,3,d,0,0'
p2195
ssbsg34
I00
sg35
I00
sg36
Nsg37
Nsg38
I18
sg39
I3
sg40
Nsg41
Nsg42
S'NNC'
p2196
sg44
g2183
sg45
I00
sba(issf_api
Word
p2197
(dp2198
g6
I00
sg7
V\u0905\u0935\u0930\u094b\u0927\u0915
p2199
sg9
(issf_api
FeatureSet
p2200
(dp2201
g12
(dp2202
S'posn'
p2203
S'370'
p2204
sS'name'
p2205
S'\xe0\xa4\x85\xe0\xa4\xb5\xe0\xa4\xb0\xe0\xa5\x8b\xe0\xa4\xa7\xe0\xa4\x95'
p2206
sS'af'
p2207
S'\xe0\xa4\x85\xe0\xa4\xb5\xe0\xa4\xb0\xe0\xa5\x8b\xe0\xa4\xa7\xe0\xa4\x95,n,m,sg,3,d,0,0'
p2208
sS'chunkid'
p2209
S'NP14'
p2210
sS'drel'
p2211
S'k2:VGNN'
p2212
sS'chunktype'
p2213
S'head:NP14'
p2214
ssbsg34
I00
sg35
I00
sg36
Nsg37
Nsg38
I18
sg39
I3
sg40
Nsg41
Nsg42
S'NN'
p2215
sg44
g2200
sg45
I00
sba(issf_api
Word
p2216
(dp2217
g6
I00
sg7
V\u0924\u094b\u0921\u093c\u0928\u0947
p2218
sg9
(issf_api
FeatureSet
p2219
(dp2220
g12
(dp2221
S'posn'
p2222
S'380'
p2223
sS'name'
p2224
S'\xe0\xa4\xa4\xe0\xa5\x8b\xe0\xa4\xa1\xe0\xa4\xbc\xe0\xa4\xa8\xe0\xa5\x87'
p2225
sS'af'
p2226
S'\xe0\xa4\xa4\xe0\xa5\x8b\xe0\xa4\xa1,v,any,sg,any,o,\xe0\xa4\xa8\xe0\xa4\xbe_\xe0\xa4\x95\xe0\xa4\xbe,nA'
p2227
sS'chunkid'
p2228
S'VGNN'
p2229
sS'drel'
p2230
S'r6-k2:NP15'
p2231
sS'vpos'
p2232
S'tam_2'
p2233
sS'chunktype'
p2234
S'head:VGNN'
p2235
ssbsg34
I00
sg35
I00
sg36
Nsg37
Nsg38
I19
sg39
I3
sg40
Nsg41
Nsg42
S'VM'
p2236
sg44
g2219
sg45
I00
sba(issf_api
Word
p2237
(dp2238
g6
I00
sg7
V\u0915\u0940
p2239
sg9
(issf_api
FeatureSet
p2240
(dp2241
g12
(dp2242
S'posn'
p2243
S'390'
p2244
sS'name'
p2245
S'\xe0\xa4\x95\xe0\xa5\x802'
p2246
sS'drel'
p2247
S'lwg__psp:VGNN'
p2248
sS'chunktype'
p2249
S'child:VGNN'
p2250
sS'af'
p2251
S'\xe0\xa4\x95\xe0\xa4\xbe,psp,f,sg,,d,,'
p2252
ssbsg34
I00
sg35
I00
sg36
Nsg37
Nsg38
I19
sg39
I3
sg40
Nsg41
Nsg42
S'PSP'
p2253
sg44
g2240
sg45
I00
sba(issf_api
Word
p2254
(dp2255
g6
I00
sg7
V\u0915\u094b\u0936\u093f\u0936
p2256
sg9
(issf_api
FeatureSet
p2257
(dp2258
g12
(dp2259
S'posn'
p2260
S'400'
p2261
sS'name'
p2262
S'\xe0\xa4\x95\xe0\xa5\x8b\xe0\xa4\xb6\xe0\xa4\xbf\xe0\xa4\xb6'
p2263
sS'af'
p2264
S'\xe0\xa4\x95\xe0\xa5\x8b\xe0\xa4\xb6\xe0\xa4\xbf\xe0\xa4\xb6,n,f,sg,3,d,0,0'
p2265
sS'chunkid'
p2266
S'NP15'
p2267
sS'drel'
p2268
S'pof:VGF2'
p2269
sS'chunktype'
p2270
S'head:NP15'
p2271
ssbsg34
I00
sg35
I00
sg36
Nsg37
Nsg38
I20
sg39
I3
sg40
Nsg41
Nsg42
S'NN'
p2272
sg44
g2257
sg45
I00
sba(issf_api
Word
p2273
(dp2274
g6
I00
sg7
V\u0915\u0930\u0928\u0947
p2275
sg9
(issf_api
FeatureSet
p2276
(dp2277
g12
(dp2278
S'posn'
p2279
S'410'
p2280
sS'name'
p2281
S'\xe0\xa4\x95\xe0\xa4\xb0\xe0\xa4\xa8\xe0\xa5\x87'
p2282
sS'af'
p2283
S'\xe0\xa4\x95\xe0\xa4\xb0,v,any,pl,any,,\xe0\xa4\xa8\xe0\xa4\xbe_\xe0\xa4\xb2\xe0\xa4\x97+\xe0\xa4\xaf\xe0\xa4\xbe,nA'
p2284
sS'chunkid'
p2285
S'VGF2'
p2286
sS'stype'
p2287
S'declarative'
p2288
sS'drel'
p2289
S'ccof:CCP'
p2290
sS'voicetype'
p2291
S'active'
p2292
sS'vpos'
p2293
S'tam_2'
p2294
sS'chunktype'
p2295
S'head:VGF2'
p2296
ssbsg34
I00
sg35
I00
sg36
Nsg37
Nsg38
I21
sg39
I3
sg40
Nsg41
Nsg42
S'VM'
p2297
sg44
g2276
sg45
I00
sba(issf_api
Word
p2298
(dp2299
g6
I00
sg7
V\u0932\u0917\u0947
p2300
sg9
(issf_api
FeatureSet
p2301
(dp2302
g12
(dp2303
S'posn'
p2304
S'420'
p2305
sS'name'
p2306
S'\xe0\xa4\xb2\xe0\xa4\x97\xe0\xa5\x87'
p2307
sS'drel'
p2308
S'lwg__vaux:VGF2'
p2309
sS'chunktype'
p2310
S'child:VGF2'
p2311
sS'af'
p2312
S'\xe0\xa4\xb2\xe0\xa4\x97,v,m,pl,any,,\xe0\xa4\xaf\xe0\xa4\xbe,yA'
p2313
ssbsg34
I00
sg35
I00
sg36
Nsg37
Nsg38
I21
sg39
I3
sg40
Nsg41
Nsg42
S'VAUX'
p2314
sg44
g2301
sg45
I00
sba(issf_api
Word
p2315
(dp2316
g6
I00
sg7
V\u0964
p2317
sg9
(issf_api
FeatureSet
p2318
(dp2319
g12
(dp2320
S'posn'
p2321
S'430'
p2322
sS'name'
p2323
S'\xe0\xa5\xa4'
p2324
sS'af'
p2325
S'\xe0\xa5\xa4,punc,,,,,,'
p2326
sS'chunkid'
p2327
S'BLK'
p2328
sS'drel'
p2329
S'rsym:CCP'
p2330
sS'chunktype'
p2331
S'head:BLK'
p2332
ssbsg34
I00
sg35
I00
sg36
Nsg37
Nsg38
I22
sg39
I3
sg40
Nsg41
Nsg42
S'SYM'
p2333
sg44
g2318
sg45
I00
sba(issf_api
Word
p2334
(dp2335
g6
I00
sg7
V\u092d\u0921\u093c\u0915\u0940
p2336
sg9
(issf_api
FeatureSet
p2337
(dp2338
g12
(dp2339
S'posn'
p2340
S'10'
p2341
sS'name'
p2342
S'\xe0\xa4\xad\xe0\xa4\xa1\xe0\xa4\xbc\xe0\xa4\x95\xe0\xa5\x80'
p2343
sS'af'
p2344
S'\xe0\xa4\xad\xe0\xa4\xa1\xe0\xa4\x95,v,f,sg,any,,\xe0\xa4\xaf\xe0\xa4\xbe,yA'
p2345
sS'chunkid'
p2346
S'VGNF'
p2347
sS'drel'
p2348
S'nmod__k2inv:NP'
p2349
sS'chunktype'
p2350
S'head:VGNF'
p2351
ssbsg34
I00
sg35
I00
sg36
Nsg37
Nsg38
I0
sg39
I4
sg40
Nsg41
Nsg42
S'VM'
p2352
sg44
g2337
sg45
I00
sba(issf_api
Word
p2353
(dp2354
g6
I00
sg7
V\u0939\u093f\u0902\u0938\u093e
p2355
sg9
(issf_api
FeatureSet
p2356
(dp2357
g12
(dp2358
S'crefhead'
p2359
S'\xe0\xa4\xb9\xe0\xa4\xbf\xe0\xa4\x82\xe0\xa4\xb8\xe0\xa4\xbe:i19'
p2360
sS'posn'
p2361
S'20'
p2362
sS'name'
p2363
S'\xe0\xa4\xb9\xe0\xa4\xbf\xe0\xa4\x82\xe0\xa4\xb8\xe0\xa4\xbe'
p2364
sS'af'
p2365
S'\xe0\xa4\xb9\xe0\xa4\xbf\xe0\xa4\x82\xe0\xa4\xb8\xe0\xa4\xbe,n,f,sg,3,o,0_\xe0\xa4\x95\xe0\xa5\x87_\xe0\xa4\xa6\xe0\xa5\x8c\xe0\xa4\xb0\xe0\xa4\xbe\xe0\xa4\xa8,0'
p2366
sS'chunkid'
p2367
S'NP'
p2368
sS'creftype'
p2369
S'Coreference-Identity:i7'
p2370
sS'chunktype'
p2371
S'head:NP'
p2372
sS'vpos'
p2373
S'vib_2_3'
p2374
sS'cref'
p2375
S'i19%1:t7'
p2376
sS'drel'
p2377
S'k7t:VGF'
p2378
ssbsg34
I00
sg35
I00
sg36
Nsg37
Nsg38
I1
sg39
I4
sg40
Nsg41
Nsg42
S'NN'
p2379
sg44
g2356
sg45
I00
sba(issf_api
Word
p2380
(dp2381
g6
I00
sg7
V\u0915\u0947
p2382
sg9
(issf_api
FeatureSet
p2383
(dp2384
g12
(dp2385
S'posn'
p2386
S'30'
p2387
sS'name'
p2388
S'\xe0\xa4\x95\xe0\xa5\x87'
p2389
sS'drel'
p2390
S'lwg__psp:NP'
p2391
sS'chunktype'
p2392
S'child:NP'
p2393
sS'af'
p2394
S'\xe0\xa4\x95\xe0\xa5\x87,psp,,,,,,'
p2395
ssbsg34
I00
sg35
I00
sg36
Nsg37
Nsg38
I1
sg39
I4
sg40
Nsg41
Nsg42
S'PSP'
p2396
sg44
g2383
sg45
I00
sba(issf_api
Word
p2397
(dp2398
g6
I00
sg7
V\u0926\u094c\u0930\u093e\u0928
p2399
sg9
(issf_api
FeatureSet
p2400
(dp2401
g12
(dp2402
S'posn'
p2403
S'40'
p2404
sS'name'
p2405
S'\xe0\xa4\xa6\xe0\xa5\x8c\xe0\xa4\xb0\xe0\xa4\xbe\xe0\xa4\xa8'
p2406
sS'drel'
p2407
S'lwg__psp:NP'
p2408
sS'chunktype'
p2409
S'child:NP'
p2410
sS'af'
p2411
S'\xe0\xa4\xa6\xe0\xa5\x8c\xe0\xa4\xb0\xe0\xa4\xbe\xe0\xa4\xa8,nst,m,sg,3,d,,'
p2412
ssbsg34
I00
sg35
I00
sg36
Nsg37
Nsg38
I1
sg39
I4
sg40
Nsg41
Nsg42
S'NST'
p2413
sg44
g2400
sg45
I00
sba(issf_api
Word
p2414
(dp2415
g6
I00
sg7
V\u092d\u0940\u0921\u093c
p2416
sg9
(issf_api
FeatureSet
p2417
(dp2418
g12
(dp2419
S'posn'
p2420
S'50'
p2421
sS'name'
p2422
S'\xe0\xa4\xad\xe0\xa5\x80\xe0\xa4\xa1\xe0\xa4\xbc'
p2423
sS'af'
p2424
S'\xe0\xa4\xad\xe0\xa5\x80\xe0\xa4\xa1,n,f,sg,3,o,0_\xe0\xa4\x95\xe0\xa5\x8b,0'
p2425
sS'chunkid'
p2426
S'NP2'
p2427
sS'drel'
p2428
S'k2:VGNN'
p2429
sS'vpos'
p2430
S'vib_2'
p2431
sS'chunktype'
p2432
S'head:NP2'
p2433
ssbsg34
I00
sg35
I00
sg36
Nsg37
Nsg38
I2
sg39
I4
sg40
Nsg41
Nsg42
S'NN'
p2434
sg44
g2417
sg45
I00
sba(issf_api
Word
p2435
(dp2436
g6
I00
sg7
V\u0915\u094b
p2437
sg9
(issf_api
FeatureSet
p2438
(dp2439
g12
(dp2440
S'posn'
p2441
S'60'
p2442
sS'name'
p2443
S'\xe0\xa4\x95\xe0\xa5\x8b'
p2444
sS'drel'
p2445
S'lwg__psp:NP2'
p2446
sS'chunktype'
p2447
S'child:NP2'
p2448
sS'af'
p2449
S'\xe0\xa4\x95\xe0\xa5\x8b,psp,,,,,,'
p2450
ssbsg34
I00
sg35
I00
sg36
Nsg37
Nsg38
I2
sg39
I4
sg40
Nsg41
Nsg42
S'PSP'
p2451
sg44
g2438
sg45
I00
sba(issf_api
Word
p2452
(dp2453
g6
I00
sg7
V\u0924\u093f\u0924\u0930
p2454
sg9
(issf_api
FeatureSet
p2455
(dp2456
g12
(dp2457
S'posn'
p2458
S'70'
p2459
sS'name'
p2460
S'\xe0\xa4\xa4\xe0\xa4\xbf\xe0\xa4\xa4\xe0\xa4\xb0'
p2461
sS'drel'
p2462
S'mod:JJP'
p2463
sS'chunktype'
p2464
S'child:JJP'
p2465
sS'af'
p2466
S'\xe0\xa4\xa4\xe0\xa4\xbf\xe0\xa4\xa4\xe0\xa4\xb0,adj,any,any,,,,'
p2467
ssbsg34
I00
sg35
I00
sg36
Nsg37
Nsg38
I3
sg39
I4
sg40
Nsg41
Nsg42
S'JJC'
p2468
sg44
g2455
sg45
I00
sba(issf_api
Word
p2469
(dp2470
g6
I00
sg7
V-
p2471
sg9
(issf_api
FeatureSet
p2472
(dp2473
g12
(dp2474
S'posn'
p2475
S'80'
p2476
sS'name'
p2477
S'-'
p2478
sS'drel'
p2479
S'rsym:JJP'
p2480
sS'chunktype'
p2481
S'child:JJP'
p2482
sS'af'
p2483
S'-,punc,,,,,,'
p2484
ssbsg34
I00
sg35
I00
sg36
Nsg37
Nsg38
I3
sg39
I4
sg40
Nsg41
Nsg42
S'SYM'
p2485
sg44
g2472
sg45
I00
sba(issf_api
Word
p2486
(dp2487
g6
I00
sg7
V\u092c\u093f\u0924\u0930
p2488
sg9
(issf_api
FeatureSet
p2489
(dp2490
g12
(dp2491
S'posn'
p2492
S'90'
p2493
sS'name'
p2494
S'\xe0\xa4\xac\xe0\xa4\xbf\xe0\xa4\xa4\xe0\xa4\xb0'
p2495
sS'af'
p2496
S'\xe0\xa4\xac\xe0\xa4\xbf\xe0\xa4\xa4\xe0\xa4\xb0,adj,any,any,,,,'
p2497
sS'chunkid'
p2498
S'JJP'
p2499
sS'drel'
p2500
S'pof:VGNN'
p2501
sS'chunktype'
p2502
S'head:JJP'
p2503
ssbsg34
I00
sg35
I00
sg36
Nsg37
Nsg38
I3
sg39
I4
sg40
Nsg41
Nsg42
S'JJ'
p2504
sg44
g2489
sg45
I00
sba(issf_api
Word
p2505
(dp2506
g6
I00
sg7
V\u0915\u0930\u0928\u0947
p2507
sg9
(issf_api
FeatureSet
p2508
(dp2509
g12
(dp2510
S'posn'
p2511
S'100'
p2512
sS'name'
p2513
S'\xe0\xa4\x95\xe0\xa4\xb0\xe0\xa4\xa8\xe0\xa5\x87'
p2514
sS'af'
p2515
S'\xe0\xa4\x95\xe0\xa4\xb0,v,any,any,any,o,\xe0\xa4\xa8\xe0\xa4\xbe_\xe0\xa4\x95\xe0\xa5\x87_\xe0\xa4\xb2\xe0\xa4\xbf\xe0\xa4\x8f,nA'
p2516
sS'chunkid'
p2517
S'VGNN'
p2518
sS'drel'
p2519
S'rt:VGF'
p2520
sS'vpos'
p2521
S'tam_2_3'
p2522
sS'chunktype'
p2523
S'head:VGNN'
p2524
ssbsg34
I00
sg35
I00
sg36
Nsg37
Nsg38
I4
sg39
I4
sg40
Nsg41
Nsg42
S'VM'
p2525
sg44
g2508
sg45
I00
sba(issf_api
Word
p2526
(dp2527
g6
I00
sg7
V\u0915\u0947
p2528
sg9
(issf_api
FeatureSet
p2529
(dp2530
g12
(dp2531
S'posn'
p2532
S'110'
p2533
sS'name'
p2534
S'\xe0\xa4\x95\xe0\xa5\x872'
p2535
sS'drel'
p2536
S'lwg__psp:VGNN'
p2537
sS'chunktype'
p2538
S'child:VGNN'
p2539
sS'af'
p2540
S'\xe0\xa4\x95\xe0\xa5\x87,psp,,,,,,'
p2541
ssbsg34
I00
sg35
I00
sg36
Nsg37
Nsg38
I4
sg39
I4
sg40
Nsg41
Nsg42
S'PSP'
p2542
sg44
g2529
sg45
I00
sba(issf_api
Word
p2543
(dp2544
g6
I00
sg7
V\u0932\u093f\u090f
p2545
sg9
(issf_api
FeatureSet
p2546
(dp2547
g12
(dp2548
S'posn'
p2549
S'120'
p2550
sS'name'
p2551
S'\xe0\xa4\xb2\xe0\xa4\xbf\xe0\xa4\x8f'
p2552
sS'drel'
p2553
S'lwg__psp:VGNN'
p2554
sS'chunktype'
p2555
S'child:VGNN'
p2556
sS'af'
p2557
S'\xe0\xa4\xb2\xe0\xa4\xbf\xe0\xa4\x8f,psp,,,,,,'
p2558
ssbsg34
I00
sg35
I00
sg36
Nsg37
Nsg38
I4
sg39
I4
sg40
Nsg41
Nsg42
S'PSP'
p2559
sg44
g2546
sg45
I00
sba(issf_api
Word
p2560
(dp2561
g6
I00
sg7
V\u092a\u0941\u0932\u093f\u0938
p2562
sg9
(issf_api
FeatureSet
p2563
(dp2564
g12
(dp2565
S'crefhead'
p2566
S'\xe0\xa4\xaa\xe0\xa5\x81\xe0\xa4\xb2\xe0\xa4\xbf\xe0\xa4\xb8:i20'
p2567
sS'posn'
p2568
S'130'
p2569
sS'name'
p2570
S'\xe0\xa4\xaa\xe0\xa5\x81\xe0\xa4\xb2\xe0\xa4\xbf\xe0\xa4\xb8'
p2571
sS'af'
p2572
S'\xe0\xa4\xaa\xe0\xa5\x81\xe0\xa4\xb2\xe0\xa4\xbf\xe0\xa4\xb8,n,f,sg,3,o,0_\xe0\xa4\xa8\xe0\xa5\x87,0'
p2573
sS'chunkid'
p2574
S'NP3'
p2575
sS'chunktype'
p2576
S'head:NP3'
p2577
sS'crefchainhead'
p2578
S'i20:t10'
p2579
sS'vpos'
p2580
S'vib_2'
p2581
sS'cref'
p2582
S'i20%1:t10'
p2583
sS'drel'
p2584
S'k1:VGF'
p2585
ssbsg34
I00
sg35
I00
sg36
Nsg37
Nsg38
I5
sg39
I4
sg40
Nsg41
Nsg42
S'NN'
p2586
sg44
g2563
sg45
I00
sba(issf_api
Word
p2587
(dp2588
g6
I00
sg7
V\u0928\u0947
p2589
sg9
(issf_api
FeatureSet
p2590
(dp2591
g12
(dp2592
S'posn'
p2593
S'140'
p2594
sS'name'
p2595
S'\xe0\xa4\xa8\xe0\xa5\x87'
p2596
sS'drel'
p2597
S'lwg__psp:NP3'
p2598
sS'chunktype'
p2599
S'child:NP3'
p2600
sS'af'
p2601
S'\xe0\xa4\xa8\xe0\xa5\x87,psp,,,,,,'
p2602
ssbsg34
I00
sg35
I00
sg36
Nsg37
Nsg38
I5
sg39
I4
sg40
Nsg41
Nsg42
S'PSP'
p2603
sg44
g2590
sg45
I00
sba(issf_api
Word
p2604
(dp2605
g6
I00
sg7
V\u0906\u0901\u0938\u0942
p2606
sg9
(issf_api
FeatureSet
p2607
(dp2608
g12
(dp2609
S'posn'
p2610
S'150'
p2611
sS'name'
p2612
S'\xe0\xa4\x86\xe0\xa4\x81\xe0\xa4\xb8\xe0\xa5\x82'
p2613
sS'af'
p2614
S'\xe0\xa4\x86\xe0\xa4\x81\xe0\xa4\xb8\xe0\xa5\x82,n,m,sg,3,d,0,0'
p2615
sS'drel'
p2616
S'pof__cn:NP4'
p2617
sS'chunktype'
p2618
S'child:NP4'
p2619
sS'cref'
p2620
S'i21%0:t11'
p2621
ssbsg34
I00
sg35
I00
sg36
Nsg37
Nsg38
I6
sg39
I4
sg40
Nsg41
Nsg42
S'NNC'
p2622
sg44
g2607
sg45
I00
sba(issf_api
Word
p2623
(dp2624
g6
I00
sg7
V\u0917\u0948\u0938
p2625
sg9
(issf_api
FeatureSet
p2626
(dp2627
g12
(dp2628
S'posn'
p2629
S'160'
p2630
sS'name'
p2631
S'\xe0\xa4\x97\xe0\xa5\x88\xe0\xa4\xb8'
p2632
sS'af'
p2633
S'\xe0\xa4\x97\xe0\xa5\x88\xe0\xa4\xb8,n,f,sg,3,o,0_\xe0\xa4\x95\xe0\xa4\xbe,0'
p2634
sS'chunkid'
p2635
S'NP4'
p2636
sS'drel'
p2637
S'r6:NP5'
p2638
sS'chunktype'
p2639
S'head:NP4'
p2640
sS'vpos'
p2641
S'vib_3'
p2642
sS'cref'
p2643
S'i21%0:t11'
p2644
ssbsg34
I00
sg35
I00
sg36
Nsg37
Nsg38
I6
sg39
I4
sg40
Nsg41
Nsg42
S'NN'
p2645
sg44
g2626
sg45
I00
sba(issf_api
Word
p2646
(dp2647
g6
I00
sg7
V\u0915\u0947
p2648
sg9
(issf_api
FeatureSet
p2649
(dp2650
g12
(dp2651
S'posn'
p2652
S'170'
p2653
sS'name'
p2654
S'\xe0\xa4\x95\xe0\xa5\x873'
p2655
sS'af'
p2656
S'\xe0\xa4\x95\xe0\xa4\xbe,psp,m,pl,,d,,'
p2657
sS'drel'
p2658
S'lwg__psp:NP4'
p2659
sS'chunktype'
p2660
S'child:NP4'
p2661
sS'cref'
p2662
S'i21%0:t11'
p2663
ssbsg34
I00
sg35
I00
sg36
Nsg37
Nsg38
I6
sg39
I4
sg40
Nsg41
Nsg42
S'PSP'
p2664
sg44
g2649
sg45
I00
sba(issf_api
Word
p2665
(dp2666
g6
I00
sg7
V\u0917\u094b\u0932\u0947
p2667
sg9
(issf_api
FeatureSet
p2668
(dp2669
g12
(dp2670
S'posn'
p2671
S'180'
p2672
sS'name'
p2673
S'\xe0\xa4\x97\xe0\xa5\x8b\xe0\xa4\xb2\xe0\xa5\x87'
p2674
sS'af'
p2675
S'\xe0\xa4\x97\xe0\xa5\x8b\xe0\xa4\xb2\xe0\xa4\xbe,n,m,pl,3,d,0,0'
p2676
sS'chunkid'
p2677
S'NP5'
p2678
sS'drel'
p2679
S'k2:VGF'
p2680
sS'chunktype'
p2681
S'head:NP5'
p2682
sS'cref'
p2683
S'i21%0:t11'
p2684
ssbsg34
I00
sg35
I00
sg36
Nsg37
Nsg38
I7
sg39
I4
sg40
Nsg41
Nsg42
S'NN'
p2685
sg44
g2668
sg45
I00
sba(issf_api
Word
p2686
(dp2687
g6
I00
sg7
V\u091b\u094b\u0921\u093c\u0947
p2688
sg9
(issf_api
FeatureSet
p2689
(dp2690
g12
(dp2691
S'posn'
p2692
S'190'
p2693
sS'name'
p2694
S'\xe0\xa4\x9b\xe0\xa5\x8b\xe0\xa4\xa1\xe0\xa4\xbc\xe0\xa5\x87'
p2695
sS'af'
p2696
S'\xe0\xa4\x9b\xe0\xa5\x8b\xe0\xa4\xa1,v,m,pl,any,,\xe0\xa4\xaf\xe0\xa4\xbe,yA'
p2697
sS'chunkid'
p2698
S'VGF'
p2699
sS'stype'
p2700
S'declarative'
p2701
sS'drel'
p2702
S'ccof:CCP'
p2703
sS'chunktype'
p2704
S'head:VGF'
p2705
sS'voicetype'
p2706
S'active'
p2707
sS'cref'
p2708
S'i21%0:t11'
p2709
ssbsg34
I00
sg35
I00
sg36
Nsg37
Nsg38
I8
sg39
I4
sg40
Nsg41
Nsg42
S'VM'
p2710
sg44
g2689
sg45
I00
sba(issf_api
Word
p2711
(dp2712
g6
I00
sg7
V\u0935
p2713
sg9
(issf_api
FeatureSet
p2714
(dp2715
g12
(dp2716
S'posn'
p2717
S'200'
p2718
sS'name'
p2719
S'\xe0\xa4\xb5'
p2720
sS'af'
p2721
S'\xe0\xa4\xb5,avy,,,,,,'
p2722
sS'chunkid'
p2723
S'CCP'
p2724
sS'chunktype'
p2725
S'head:CCP'
p2726
sS'cref'
p2727
S'i21%0:t11'
p2728
ssbsg34
I00
sg35
I00
sg36
Nsg37
Nsg38
I9
sg39
I4
sg40
Nsg41
Nsg42
S'CC'
p2729
sg44
g2714
sg45
I00
sba(issf_api
Word
p2730
(dp2731
g6
I00
sg7
V\u0939\u0935\u093e
p2732
sg9
(issf_api
FeatureSet
p2733
(dp2734
g12
(dp2735
S'posn'
p2736
S'210'
p2737
sS'name'
p2738
S'\xe0\xa4\xb9\xe0\xa4\xb5\xe0\xa4\xbe'
p2739
sS'af'
p2740
S'\xe0\xa4\xb9\xe0\xa4\xb5\xe0\xa4\xbe,n,f,sg,3,o,0_\xe0\xa4\xae\xe0\xa5\x87\xe0\xa4\x82,0'
p2741
sS'chunkid'
p2742
S'NP6'
p2743
sS'drel'
p2744
S'k7:VGF2'
p2745
sS'chunktype'
p2746
S'head:NP6'
p2747
sS'vpos'
p2748
S'vib_2'
p2749
sS'cref'
p2750
S'i21%0:t11'
p2751
ssbsg34
I00
sg35
I00
sg36
Nsg37
Nsg38
I10
sg39
I4
sg40
Nsg41
Nsg42
S'NN'
p2752
sg44
g2733
sg45
I00
sba(issf_api
Word
p2753
(dp2754
g6
I00
sg7
V\u092e\u0947\u0902
p2755
sg9
(issf_api
FeatureSet
p2756
(dp2757
g12
(dp2758
S'posn'
p2759
S'220'
p2760
sS'name'
p2761
S'\xe0\xa4\xae\xe0\xa5\x87\xe0\xa4\x82'
p2762
sS'af'
p2763
S'\xe0\xa4\xae\xe0\xa5\x87\xe0\xa4\x82,psp,,,,,,'
p2764
sS'drel'
p2765
S'lwg__psp:NP6'
p2766
sS'chunktype'
p2767
S'child:NP6'
p2768
sS'cref'
p2769
S'i21%0:t11'
p2770
ssbsg34
I00
sg35
I00
sg36
Nsg37
Nsg38
I10
sg39
I4
sg40
Nsg41
Nsg42
S'PSP'
p2771
sg44
g2756
sg45
I00
sba(issf_api
Word
p2772
(dp2773
g6
I00
sg7
V\u0930\u092c\u0930
p2774
sg9
(issf_api
FeatureSet
p2775
(dp2776
g12
(dp2777
S'posn'
p2778
S'230'
p2779
sS'name'
p2780
S'\xe0\xa4\xb0\xe0\xa4\xac\xe0\xa4\xb0'
p2781
sS'af'
p2782
S'\xe0\xa4\xb0\xe0\xa4\xac\xe0\xa4\xb0,n,f,sg,3,o,0_\xe0\xa4\x95\xe0\xa4\xbe,0'
p2783
sS'chunkid'
p2784
S'NP7'
p2785
sS'drel'
p2786
S'r6:NP8'
p2787
sS'chunktype'
p2788
S'head:NP7'
p2789
sS'vpos'
p2790
S'vib_2'
p2791
sS'cref'
p2792
S'i21%0:t11'
p2793
ssbsg34
I00
sg35
I00
sg36
Nsg37
Nsg38
I11
sg39
I4
sg40
Nsg41
Nsg42
S'NN'
p2794
sg44
g2775
sg45
I00
sba(issf_api
Word
p2795
(dp2796
g6
I00
sg7
V\u0915\u0940
p2797
sg9
(issf_api
FeatureSet
p2798
(dp2799
g12
(dp2800
S'posn'
p2801
S'240'
p2802
sS'name'
p2803
S'\xe0\xa4\x95\xe0\xa5\x80'
p2804
sS'af'
p2805
S'\xe0\xa4\x95\xe0\xa4\xbe,psp,f,pl,,d,,'
p2806
sS'drel'
p2807
S'lwg__psp:NP7'
p2808
sS'chunktype'
p2809
S'child:NP7'
p2810
sS'cref'
p2811
S'i21%0:t11'
p2812
ssbsg34
I00
sg35
I00
sg36
Nsg37
Nsg38
I11
sg39
I4
sg40
Nsg41
Nsg42
S'PSP'
p2813
sg44
g2798
sg45
I00
sba(issf_api
Word
p2814
(dp2815
g6
I00
sg7
V\u0917\u094b\u0932\u093f\u092f\u093e\u0901
p2816
sg9
(issf_api
FeatureSet
p2817
(dp2818
g12
(dp2819
S'posn'
p2820
S'250'
p2821
sS'name'
p2822
S'\xe0\xa4\x97\xe0\xa5\x8b\xe0\xa4\xb2\xe0\xa4\xbf\xe0\xa4\xaf\xe0\xa4\xbe\xe0\xa4\x81'
p2823
sS'af'
p2824
S'\xe0\xa4\x97\xe0\xa5\x8b\xe0\xa4\xb2\xe0\xa5\x80,n,f,pl,3,d,0,0'
p2825
sS'chunkid'
p2826
S'NP8'
p2827
sS'drel'
p2828
S'k2:VGF2'
p2829
sS'chunktype'
p2830
S'head:NP8'
p2831
sS'cref'
p2832
S'i21%0:t11'
p2833
ssbsg34
I00
sg35
I00
sg36
Nsg37
Nsg38
I12
sg39
I4
sg40
Nsg41
Nsg42
S'NN'
p2834
sg44
g2817
sg45
I00
sba(issf_api
Word
p2835
(dp2836
g6
I00
sg7
V\u091a\u0932\u093e\u0908
p2837
sg9
(issf_api
FeatureSet
p2838
(dp2839
g12
(dp2840
S'crefhead'
p2841
S'\xe0\xa4\x9a\xe0\xa4\xb2\xe0\xa4\xbe\xe0\xa4\x88:i21'
p2842
sS'posn'
p2843
S'260'
p2844
sS'name'
p2845
S'\xe0\xa4\x9a\xe0\xa4\xb2\xe0\xa4\xbe\xe0\xa4\x88'
p2846
sS'af'
p2847
S'\xe0\xa4\x9a\xe0\xa4\xb2\xe0\xa4\xbe,v,f,pl,any,,\xe0\xa4\xaf\xe0\xa4\xbe,yA'
p2848
sS'chunkid'
p2849
S'VGF2'
p2850
sS'stype'
p2851
S'declarative'
p2852
sS'chunktype'
p2853
S'head:VGF2'
p2854
sS'crefchainhead'
p2855
S'i21:t11'
p2856
sS'voicetype'
p2857
S'active'
p2858
sS'cref'
p2859
S'i21%1:t11'
p2860
sS'drel'
p2861
S'ccof:CCP'
p2862
ssbsg34
I00
sg35
I00
sg36
Nsg37
Nsg38
I13
sg39
I4
sg40
Nsg41
Nsg42
S'VM'
p2863
sg44
g2838
sg45
I00
sba(issf_api
Word
p2864
(dp2865
g6
I00
sg7
V\u0964
p2866
sg9
(issf_api
FeatureSet
p2867
(dp2868
g12
(dp2869
S'posn'
p2870
S'270'
p2871
sS'name'
p2872
S'\xe0\xa5\xa4'
p2873
sS'af'
p2874
S'\xe0\xa5\xa4,punc,,,,,,'
p2875
sS'chunkid'
p2876
S'BLK'
p2877
sS'drel'
p2878
S'rsym:CCP'
p2879
sS'chunktype'
p2880
S'head:BLK'
p2881
ssbsg34
I00
sg35
I00
sg36
Nsg37
Nsg38
I14
sg39
I4
sg40
Nsg41
Nsg42
S'SYM'
p2882
sg44
g2867
sg45
I00
sba(issf_api
Word
p2883
(dp2884
g6
I00
sg7
V\u091c\u093f\u0938\u0938\u0947
p2885
sg9
(issf_api
FeatureSet
p2886
(dp2887
g12
(dp2888
S'crefhead'
p2889
S'\xe0\xa4\x9c\xe0\xa4\xbf\xe0\xa4\xb8\xe0\xa4\xb8\xe0\xa5\x87:i22'
p2890
sS'posn'
p2891
S'10'
p2892
sS'name'
p2893
S'\xe0\xa4\x9c\xe0\xa4\xbf\xe0\xa4\xb8\xe0\xa4\xb8\xe0\xa5\x87'
p2894
sS'af'
p2895
S'\xe0\xa4\x9c\xe0\xa5\x8b,pn,any,sg,3,o,\xe0\xa4\xb8\xe0\xa5\x87,se'
p2896
sS'chunkid'
p2897
S'NP'
p2898
sS'creftype'
p2899
S'Anaphora-E:i21'
p2900
sS'chunktype'
p2901
S'head:NP'
p2902
sS'cref'
p2903
S'i22%1:t11'
p2904
sS'drel'
p2905
S'rh:VGF'
p2906
ssbsg34
I00
sg35
I00
sg36
Nsg37
Nsg38
I0
sg39
I5
sg40
Nsg41
Nsg42
S'PRP'
p2907
sg44
g2886
sg45
I00
sba(issf_api
Word
p2908
(dp2909
g6
I00
sg7
V\u0915\u0941\u091b
p2910
sg9
(issf_api
FeatureSet
p2911
(dp2912
g12
(dp2913
S'posn'
p2914
S'20'
p2915
sS'name'
p2916
S'\xe0\xa4\x95\xe0\xa5\x81\xe0\xa4\x9b'
p2917
sS'af'
p2918
S'\xe0\xa4\x95\xe0\xa5\x81\xe0\xa4\x9b,avy,,,,,,'
p2919
sS'drel'
p2920
S'nmod__adj:NP2'
p2921
sS'chunktype'
p2922
S'child:NP2'
p2923
sS'cref'
p2924
S'i23%0:t8'
p2925
ssbsg34
I00
sg35
I00
sg36
Nsg37
Nsg38
I1
sg39
I5
sg40
Nsg41
Nsg42
S'QF'
p2926
sg44
g2911
sg45
I00
sba(issf_api
Word
p2927
(dp2928
g6
I00
sg7
V\u0932\u094b\u0917
p2929
sg9
(issf_api
FeatureSet
p2930
(dp2931
g12
(dp2932
S'crefhead'
p2933
S'\xe0\xa4\xb2\xe0\xa5\x8b\xe0\xa4\x97:i23'
p2934
sS'posn'
p2935
S'30'
p2936
sS'name'
p2937
S'\xe0\xa4\xb2\xe0\xa5\x8b\xe0\xa4\x97'
p2938
sS'af'
p2939
S'\xe0\xa4\xb2\xe0\xa5\x8b\xe0\xa4\x97,n,m,pl,3,d,0,0'
p2940
sS'chunkid'
p2941
S'NP2'
p2942
sS'creftype'
p2943
S'Coreference-Noun-Noun:i9'
p2944
sS'chunktype'
p2945
S'head:NP2'
p2946
sS'cref'
p2947
S'i23%1:t8'
p2948
sS'drel'
p2949
S'k1:VGF'
p2950
ssbsg34
I00
sg35
I00
sg36
Nsg37
Nsg38
I1
sg39
I5
sg40
Nsg41
Nsg42
S'NN'
p2951
sg44
g2930
sg45
I00
sba(issf_api
Word
p2952
(dp2953
g6
I00
sg7
V\u0918\u093e\u092f\u0932
p2954
sg9
(issf_api
FeatureSet
p2955
(dp2956
g12
(dp2957
S'posn'
p2958
S'40'
p2959
sS'name'
p2960
S'\xe0\xa4\x98\xe0\xa4\xbe\xe0\xa4\xaf\xe0\xa4\xb2'
p2961
sS'af'
p2962
S'\xe0\xa4\x98\xe0\xa4\xbe\xe0\xa4\xaf\xe0\xa4\xb2,adj,any,any,,,,'
p2963
sS'chunkid'
p2964
S'JJP'
p2965
sS'drel'
p2966
S'pof:VGF'
p2967
sS'chunktype'
p2968
S'head:JJP'
p2969
ssbsg34
I00
sg35
I00
sg36
Nsg37
Nsg38
I2
sg39
I5
sg40
Nsg41
Nsg42
S'JJ'
p2970
sg44
g2955
sg45
I00
sba(issf_api
Word
p2971
(dp2972
g6
I00
sg7
V\u0939\u094b
p2973
sg9
(issf_api
FeatureSet
p2974
(dp2975
g12
(dp2976
S'posn'
p2977
S'50'
p2978
sS'name'
p2979
S'\xe0\xa4\xb9\xe0\xa5\x8b'
p2980
sS'af'
p2981
S'\xe0\xa4\xb9\xe0\xa5\x8b,v,any,pl,any,,0_\xe0\xa4\x9c\xe0\xa4\xbe+\xe0\xa4\xaf\xe0\xa4\xbe1,0'
p2982
sS'chunkid'
p2983
S'VGF'
p2984
sS'chunktype'
p2985
S'head:VGF'
p2986
sS'voicetype'
p2987
S'active'
p2988
sS'vpos'
p2989
S'tam_2'
p2990
sS'stype'
p2991
S'declarative'
p2992
ssbsg34
I00
sg35
I00
sg36
Nsg37
Nsg38
I3
sg39
I5
sg40
Nsg41
Nsg42
S'VM'
p2993
sg44
g2974
sg45
I00
sba(issf_api
Word
p2994
(dp2995
g6
I00
sg7
V\u0917\u090f
p2996
sg9
(issf_api
FeatureSet
p2997
(dp2998
g12
(dp2999
S'posn'
p3000
S'60'
p3001
sS'name'
p3002
S'\xe0\xa4\x97\xe0\xa4\x8f'
p3003
sS'drel'
p3004
S'lwg__vaux:VGF'
p3005
sS'chunktype'
p3006
S'child:VGF'
p3007
sS'af'
p3008
S'\xe0\xa4\x9c\xe0\xa4\xbe,v,m,pl,any,,\xe0\xa4\xaf\xe0\xa4\xbe1,yA1'
p3009
ssbsg34
I00
sg35
I00
sg36
Nsg37
Nsg38
I3
sg39
I5
sg40
Nsg41
Nsg42
S'VAUX'
p3010
sg44
g2997
sg45
I00
sba(issf_api
Word
p3011
(dp3012
g6
I00
sg7
V\u0964
p3013
sg9
(issf_api
FeatureSet
p3014
(dp3015
g12
(dp3016
S'posn'
p3017
S'70'
p3018
sS'name'
p3019
S'\xe0\xa5\xa4'
p3020
sS'af'
p3021
S'\xe0\xa5\xa4,punc,,,,,,'
p3022
sS'chunkid'
p3023
S'BLK'
p3024
sS'drel'
p3025
S'rsym:VGF'
p3026
sS'chunktype'
p3027
S'head:BLK'
p3028
ssbsg34
I00
sg35
I00
sg36
Nsg37
Nsg38
I4
sg39
I5
sg40
Nsg41
Nsg42
S'SYM'
p3029
sg44
g3014
sg45
I00
sba(issf_api
Word
p3030
(dp3031
g6
I00
sg7
V\u092a\u0941\u0932\u093f\u0938
p3032
sg9
(issf_api
FeatureSet
p3033
(dp3034
g12
(dp3035
S'crefhead'
p3036
S'\xe0\xa4\xaa\xe0\xa5\x81\xe0\xa4\xb2\xe0\xa4\xbf\xe0\xa4\xb8:i24'
p3037
sS'posn'
p3038
S'10'
p3039
sS'name'
p3040
S'\xe0\xa4\xaa\xe0\xa5\x81\xe0\xa4\xb2\xe0\xa4\xbf\xe0\xa4\xb8'
p3041
sS'af'
p3042
S'\xe0\xa4\xaa\xe0\xa5\x81\xe0\xa4\xb2\xe0\xa4\xbf\xe0\xa4\xb8,n,f,sg,3,o,0_\xe0\xa4\x95\xe0\xa4\xbe,0'
p3043
sS'acrefmodhead'
p3044
S'\xe0\xa4\xaa\xe0\xa5\x81\xe0\xa4\xb2\xe0\xa4\xbf\xe0\xa4\xb8:m5'
p3045
sS'chunkid'
p3046
S'NP'
p3047
sS'acrefmod'
p3048
S'm5%1:i25'
p3049
sS'creftype'
p3050
S'Coreference-Identity:i20'
p3051
sS'chunktype'
p3052
S'head:NP'
p3053
sS'vpos'
p3054
S'vib_2'
p3055
sS'cref'
p3056
S'i24%1:t10'
p3057
sS'drel'
p3058
S'r6:NP2'
p3059
ssbsg34
I00
sg35
I00
sg36
Nsg37
Nsg38
I0
sg39
I6
sg40
Nsg41
Nsg42
S'NN'
p3060
sg44
g3033
sg45
I00
sba(issf_api
Word
p3061
(dp3062
g6
I00
sg7
V\u0915\u0940
p3063
sg9
(issf_api
FeatureSet
p3064
(dp3065
g12
(dp3066
S'posn'
p3067
S'20'
p3068
sS'name'
p3069
S'\xe0\xa4\x95\xe0\xa5\x80'
p3070
sS'drel'
p3071
S'lwg__psp:NP'
p3072
sS'chunktype'
p3073
S'child:NP'
p3074
sS'af'
p3075
S'\xe0\xa4\x95\xe0\xa4\xbe,psp,f,sg,,o,,'
p3076
ssbsg34
I00
sg35
I00
sg36
Nsg37
Nsg38
I0
sg39
I6
sg40
Nsg41
Nsg42
S'PSP'
p3077
sg44
g3064
sg45
I00
sba(issf_api
Word
p3078
(dp3079
g6
I00
sg7
V\u0907\u0938
p3080
sg9
(issf_api
FeatureSet
p3081
(dp3082
g12
(dp3083
S'posn'
p3084
S'30'
p3085
sS'name'
p3086
S'\xe0\xa4\x87\xe0\xa4\xb8'
p3087
sS'af'
p3088
S'\xe0\xa4\xaf\xe0\xa4\xb9,pn,any,sg,3,o,,'
p3089
sS'drel'
p3090
S'nmod__adj:NP2'
p3091
sS'chunktype'
p3092
S'child:NP2'
p3093
sS'cref'
p3094
S'i25%0:t11'
p3095
ssbsg34
I00
sg35
I00
sg36
Nsg37
Nsg38
I1
sg39
I6
sg40
Nsg41
Nsg42
S'DEM'
p3096
sg44
g3081
sg45
I00
sba(issf_api
Word
p3097
(dp3098
g6
I00
sg7
V\u0915\u093e\u0930\u094d\u0930\u0935\u093e\u0908
p3099
sg9
(issf_api
FeatureSet
p3100
(dp3101
g12
(dp3102
S'crefhead'
p3103
S'\xe0\xa4\x95\xe0\xa4\xbe\xe0\xa4\xb0\xe0\xa5\x8d\xe0\xa4\xb0\xe0\xa4\xb5\xe0\xa4\xbe\xe0\xa4\x88:i25'
p3104
sS'posn'
p3105
S'40'
p3106
sS'name'
p3107
S'\xe0\xa4\x95\xe0\xa4\xbe\xe0\xa4\xb0\xe0\xa5\x8d\xe0\xa4\xb0\xe0\xa4\xb5\xe0\xa4\xbe\xe0\xa4\x88'
p3108
sS'af'
p3109
S'\xe0\xa4\x95\xe0\xa4\xbe\xe0\xa4\xb0\xe0\xa5\x8d\xe0\xa4\xb0\xe0\xa4\xb5\xe0\xa4\xbe\xe0\xa4\x88,n,f,sg,3,o,0_\xe0\xa4\xae\xe0\xa5\x87\xe0\xa4\x82,0'
p3110
sS'chunkid'
p3111
S'NP2'
p3112
sS'crefmod'
p3113
S'm5:i25'
p3114
sS'creftype'
p3115
S'Coreference-Noun-Noun:i22'
p3116
sS'chunktype'
p3117
S'head:NP2'
p3118
sS'vpos'
p3119
S'vib_3'
p3120
sS'cref'
p3121
S'i25%1:t11'
p3122
sS'drel'
p3123
S'k7:VGF'
p3124
ssbsg34
I00
sg35
I00
sg36
Nsg37
Nsg38
I1
sg39
I6
sg40
Nsg41
Nsg42
S'NN'
p3125
sg44
g3100
sg45
I00
sba(issf_api
Word
p3126
(dp3127
g6
I00
sg7
V\u092e\u0947\u0902
p3128
sg9
(issf_api
FeatureSet
p3129
(dp3130
g12
(dp3131
S'posn'
p3132
S'50'
p3133
sS'name'
p3134
S'\xe0\xa4\xae\xe0\xa5\x87\xe0\xa4\x82'
p3135
sS'drel'
p3136
S'lwg__psp:NP2'
p3137
sS'chunktype'
p3138
S'child:NP2'
p3139
sS'af'
p3140
S'\xe0\xa4\xae\xe0\xa5\x87\xe0\xa4\x82,psp,,,,,,'
p3141
ssbsg34
I00
sg35
I00
sg36
Nsg37
Nsg38
I1
sg39
I6
sg40
Nsg41
Nsg42
S'PSP'
p3142
sg44
g3129
sg45
I00
sba(issf_api
Word
p3143
(dp3144
g6
I00
sg7
V\u091b\u093f\u0902\u0917\u092e\u093e\u0930\u094b\u0902\u0917
p3145
sg9
(issf_api
FeatureSet
p3146
(dp3147
g12
(dp3148
S'posn'
p3149
S'60'
p3150
sS'name'
p3151
S'\xe0\xa4\x9b\xe0\xa4\xbf\xe0\xa4\x82\xe0\xa4\x97\xe0\xa4\xae\xe0\xa4\xbe\xe0\xa4\xb0\xe0\xa5\x8b\xe0\xa4\x82\xe0\xa4\x97'
p3152
sS'drel'
p3153
S'nmod__adj:NP3'
p3154
sS'chunktype'
p3155
S'child:NP3'
p3156
sS'af'
p3157
S'\xe0\xa4\x9b\xe0\xa4\xbf\xe0\xa4\x82\xe0\xa4\x97\xe0\xa4\xae\xe0\xa4\xbe\xe0\xa4\xb0\xe0\xa5\x8b\xe0\xa4\x82\xe0\xa4\x97,n,m,sg,3,d,0,0'
p3158
ssbsg34
I00
sg35
I00
sg36
Nsg37
Nsg38
I2
sg39
I6
sg40
Nsg41
Nsg42
S'NNP'
p3159
sg44
g3146
sg45
I00
sba(issf_api
Word
p3160
(dp3161
g6
I00
sg7
V\u0907\u0932\u093e\u0915\u0947
p3162
sg9
(issf_api
FeatureSet
p3163
(dp3164
g12
(dp3165
S'posn'
p3166
S'70'
p3167
sS'name'
p3168
S'\xe0\xa4\x87\xe0\xa4\xb2\xe0\xa4\xbe\xe0\xa4\x95\xe0\xa5\x87'
p3169
sS'af'
p3170
S'\xe0\xa4\x87\xe0\xa4\xb2\xe0\xa4\xbe\xe0\xa4\x95\xe0\xa4\xbe,n,m,sg,3,o,0_\xe0\xa4\xae\xe0\xa5\x87\xe0\xa4\x82,0'
p3171
sS'chunkid'
p3172
S'NP3'
p3173
sS'drel'
p3174
S'nmod:NP4'
p3175
sS'vpos'
p3176
S'vib_vib_3'
p3177
sS'chunktype'
p3178
S'head:NP3'
p3179
ssbsg34
I00
sg35
I00
sg36
Nsg37
Nsg38
I2
sg39
I6
sg40
Nsg41
Nsg42
S'NN'
p3180
sg44
g3163
sg45
I00
sba(issf_api
Word
p3181
(dp3182
g6
I00
sg7
V\u092e\u0947\u0902
p3183
sg9
(issf_api
FeatureSet
p3184
(dp3185
g12
(dp3186
S'posn'
p3187
S'80'
p3188
sS'name'
p3189
S'\xe0\xa4\xae\xe0\xa5\x87\xe0\xa4\x822'
p3190
sS'drel'
p3191
S'lwg__psp:NP3'
p3192
sS'chunktype'
p3193
S'child:NP3'
p3194
sS'af'
p3195
S'\xe0\xa4\xae\xe0\xa5\x87\xe0\xa4\x82,psp,,,,,,'
p3196
ssbsg34
I00
sg35
I00
sg36
Nsg37
Nsg38
I2
sg39
I6
sg40
Nsg41
Nsg42
S'PSP'
p3197
sg44
g3184
sg45
I00
sba(issf_api
Word
p3198
(dp3199
g6
I00
sg7
V\u0926\u094b
p3200
sg9
(issf_api
FeatureSet
p3201
(dp3202
g12
(dp3203
S'posn'
p3204
S'90'
p3205
sS'name'
p3206
S'\xe0\xa4\xa6\xe0\xa5\x8b'
p3207
sS'drel'
p3208
S'nmod__adj:NP4'
p3209
sS'chunktype'
p3210
S'child:NP4'
p3211
sS'af'
p3212
S'\xe0\xa4\xa6\xe0\xa5\x8b,num,any,any,,any,,'
p3213
ssbsg34
I00
sg35
I00
sg36
Nsg37
Nsg38
I3
sg39
I6
sg40
Nsg41
Nsg42
S'QC'
p3214
sg44
g3201
sg45
I00
sba(issf_api
Word
p3215
(dp3216
g6
I00
sg7
V\u092e\u0939\u093f\u0932\u093e\u090f\u0901
p3217
sg9
(issf_api
FeatureSet
p3218
(dp3219
g12
(dp3220
S'posn'
p3221
S'100'
p3222
sS'name'
p3223
S'\xe0\xa4\xae\xe0\xa4\xb9\xe0\xa4\xbf\xe0\xa4\xb2\xe0\xa4\xbe\xe0\xa4\x8f\xe0\xa4\x81'
p3224
sS'af'
p3225
S'\xe0\xa4\xae\xe0\xa4\xb9\xe0\xa4\xbf\xe0\xa4\xb2\xe0\xa4\xbe,n,f,pl,3,d,0,0'
p3226
sS'chunkid'
p3227
S'NP4'
p3228
sS'drel'
p3229
S'ccof:CCP'
p3230
sS'chunktype'
p3231
S'head:NP4'
p3232
ssbsg34
I00
sg35
I00
sg36
Nsg37
Nsg38
I3
sg39
I6
sg40
Nsg41
Nsg42
S'NN'
p3233
sg44
g3218
sg45
I00
sba(issf_api
Word
p3234
(dp3235
g6
I00
sg7
V\u0914\u0930
p3236
sg9
(issf_api
FeatureSet
p3237
(dp3238
g12
(dp3239
S'posn'
p3240
S'110'
p3241
sS'name'
p3242
S'\xe0\xa4\x94\xe0\xa4\xb0'
p3243
sS'af'
p3244
S'\xe0\xa4\x94\xe0\xa4\xb0,avy,,,,,,'
p3245
sS'chunkid'
p3246
S'CCP'
p3247
sS'drel'
p3248
S'k2:VGF'
p3249
sS'chunktype'
p3250
S'head:CCP'
p3251
ssbsg34
I00
sg35
I00
sg36
Nsg37
Nsg38
I4
sg39
I6
sg40
Nsg41
Nsg42
S'CC'
p3252
sg44
g3237
sg45
I00
sba(issf_api
Word
p3253
(dp3254
g6
I00
sg7
V\u0915\u094b\u0902\u0917\u092c\u093e
p3255
sg9
(issf_api
FeatureSet
p3256
(dp3257
g12
(dp3258
S'posn'
p3259
S'120'
p3260
sS'name'
p3261
S'\xe0\xa4\x95\xe0\xa5\x8b\xe0\xa4\x82\xe0\xa4\x97\xe0\xa4\xac\xe0\xa4\xbe'
p3262
sS'af'
p3263
S'\xe0\xa4\x95\xe0\xa5\x8b\xe0\xa4\x82\xe0\xa4\x97\xe0\xa4\xac\xe0\xa4\xbe,n,m,sg,3,d,0,0'
p3264
sS'drel'
p3265
S'nmod__adj:NP5'
p3266
sS'chunktype'
p3267
S'child:NP5'
p3268
sS'cref'
p3269
S'i26%0:t9'
p3270
ssbsg34
I00
sg35
I00
sg36
Nsg37
Nsg38
I5
sg39
I6
sg40
Nsg41
Nsg42
S'NNP'
p3271
sg44
g3256
sg45
I00
sba(issf_api
Word
p3272
(dp3273
g6
I00
sg7
V\u0907\u0932\u093e\u0915\u0947
p3274
sg9
(issf_api
FeatureSet
p3275
(dp3276
g12
(dp3277
S'crefhead'
p3278
S'\xe0\xa4\x87\xe0\xa4\xb2\xe0\xa4\xbe\xe0\xa4\x95\xe0\xa5\x87:i26'
p3279
sS'posn'
p3280
S'130'
p3281
sS'name'
p3282
S'\xe0\xa4\x87\xe0\xa4\xb2\xe0\xa4\xbe\xe0\xa4\x95\xe0\xa5\x872'
p3283
sS'af'
p3284
S'\xe0\xa4\x87\xe0\xa4\xb2\xe0\xa4\xbe\xe0\xa4\x95\xe0\xa4\xbe,n,m,sg,3,o,0_\xe0\xa4\xae\xe0\xa5\x87\xe0\xa4\x82,0'
p3285
sS'chunkid'
p3286
S'NP5'
p3287
sS'creftype'
p3288
S'Coreference-Identity:i17'
p3289
sS'chunktype'
p3290
S'head:NP5'
p3291
sS'vpos'
p3292
S'vib_vib_3'
p3293
sS'cref'
p3294
S'i26%1:t9'
p3295
sS'drel'
p3296
S'nmod:NP6'
p3297
ssbsg34
I00
sg35
I00
sg36
Nsg37
Nsg38
I5
sg39
I6
sg40
Nsg41
Nsg42
S'NN'
p3298
sg44
g3275
sg45
I00
sba(issf_api
Word
p3299
(dp3300
g6
I00
sg7
V\u092e\u0947\u0902
p3301
sg9
(issf_api
FeatureSet
p3302
(dp3303
g12
(dp3304
S'posn'
p3305
S'140'
p3306
sS'name'
p3307
S'\xe0\xa4\xae\xe0\xa5\x87\xe0\xa4\x823'
p3308
sS'drel'
p3309
S'lwg__psp:NP5'
p3310
sS'chunktype'
p3311
S'child:NP5'
p3312
sS'af'
p3313
S'\xe0\xa4\xae\xe0\xa5\x87\xe0\xa4\x82,psp,,,,,,'
p3314
ssbsg34
I00
sg35
I00
sg36
Nsg37
Nsg38
I5
sg39
I6
sg40
Nsg41
Nsg42
S'PSP'
p3315
sg44
g3302
sg45
I00
sba(issf_api
Word
p3316
(dp3317
g6
I00
sg7
V\u091a\u093e\u0930
p3318
sg9
(issf_api
FeatureSet
p3319
(dp3320
g12
(dp3321
S'posn'
p3322
S'150'
p3323
sS'name'
p3324
S'\xe0\xa4\x9a\xe0\xa4\xbe\xe0\xa4\xb0'
p3325
sS'drel'
p3326
S'nmod__adj:NP6'
p3327
sS'chunktype'
p3328
S'child:NP6'
p3329
sS'af'
p3330
S'\xe0\xa4\x9a\xe0\xa4\xbe\xe0\xa4\xb0,num,any,any,,any,,'
p3331
ssbsg34
I00
sg35
I00
sg36
Nsg37
Nsg38
I6
sg39
I6
sg40
Nsg41
Nsg42
S'QC'
p3332
sg44
g3319
sg45
I00
sba(issf_api
Word
p3333
(dp3334
g6
I00
sg7
V\u0932\u094b\u0917
p3335
sg9
(issf_api
FeatureSet
p3336
(dp3337
g12
(dp3338
S'posn'
p3339
S'160'
p3340
sS'name'
p3341
S'\xe0\xa4\xb2\xe0\xa5\x8b\xe0\xa4\x97'
p3342
sS'af'
p3343
S'\xe0\xa4\xb2\xe0\xa5\x8b\xe0\xa4\x97,n,m,pl,3,d,0,0'
p3344
sS'chunkid'
p3345
S'NP6'
p3346
sS'drel'
p3347
S'ccof:CCP'
p3348
sS'chunktype'
p3349
S'head:NP6'
p3350
ssbsg34
I00
sg35
I00
sg36
Nsg37
Nsg38
I6
sg39
I6
sg40
Nsg41
Nsg42
S'NN'
p3351
sg44
g3336
sg45
I00
sba(issf_api
Word
p3352
(dp3353
g6
I00
sg7
V\u0917\u0902\u092d\u0940\u0930
p3354
sg9
(issf_api
FeatureSet
p3355
(dp3356
g12
(dp3357
S'posn'
p3358
S'170'
p3359
sS'name'
p3360
S'\xe0\xa4\x97\xe0\xa4\x82\xe0\xa4\xad\xe0\xa5\x80\xe0\xa4\xb0'
p3361
sS'drel'
p3362
S'nmod__adj:NP7'
p3363
sS'chunktype'
p3364
S'child:NP7'
p3365
sS'af'
p3366
S'\xe0\xa4\x97\xe0\xa4\x82\xe0\xa4\xad\xe0\xa5\x80\xe0\xa4\xb0,adj,any,any,,o,,'
p3367
ssbsg34
I00
sg35
I00
sg36
Nsg37
Nsg38
I7
sg39
I6
sg40
Nsg41
Nsg42
S'JJ'
p3368
sg44
g3355
sg45
I00
sba(issf_api
Word
p3369
(dp3370
g6
I00
sg7
V\u0930\u0942\u092a
p3371
sg9
(issf_api
FeatureSet
p3372
(dp3373
g12
(dp3374
S'posn'
p3375
S'180'
p3376
sS'name'
p3377
S'\xe0\xa4\xb0\xe0\xa5\x82\xe0\xa4\xaa'
p3378
sS'af'
p3379
S'\xe0\xa4\xb0\xe0\xa5\x82\xe0\xa4\xaa,n,m,sg,3,o,0_\xe0\xa4\xb8\xe0\xa5\x87,0'
p3380
sS'chunkid'
p3381
S'NP7'
p3382
sS'drel'
p3383
S'adv:VGF'
p3384
sS'vpos'
p3385
S'vib_3'
p3386
sS'chunktype'
p3387
S'head:NP7'
p3388
ssbsg34
I00
sg35
I00
sg36
Nsg37
Nsg38
I7
sg39
I6
sg40
Nsg41
Nsg42
S'NN'
p3389
sg44
g3372
sg45
I00
sba(issf_api
Word
p3390
(dp3391
g6
I00
sg7
V\u0938\u0947
p3392
sg9
(issf_api
FeatureSet
p3393
(dp3394
g12
(dp3395
S'posn'
p3396
S'190'
p3397
sS'name'
p3398
S'\xe0\xa4\xb8\xe0\xa5\x87'
p3399
sS'drel'
p3400
S'lwg__psp:NP7'
p3401
sS'chunktype'
p3402
S'child:NP7'
p3403
sS'af'
p3404
S'\xe0\xa4\xb8\xe0\xa5\x87,psp,,,,,,'
p3405
ssbsg34
I00
sg35
I00
sg36
Nsg37
Nsg38
I7
sg39
I6
sg40
Nsg41
Nsg42
S'PSP'
p3406
sg44
g3393
sg45
I00
sba(issf_api
Word
p3407
(dp3408
g6
I00
sg7
V\u0918\u093e\u092f\u0932
p3409
sg9
(issf_api
FeatureSet
p3410
(dp3411
g12
(dp3412
S'posn'
p3413
S'200'
p3414
sS'name'
p3415
S'\xe0\xa4\x98\xe0\xa4\xbe\xe0\xa4\xaf\xe0\xa4\xb2'
p3416
sS'af'
p3417
S'\xe0\xa4\x98\xe0\xa4\xbe\xe0\xa4\xaf\xe0\xa4\xb2,adj,any,any,,,,'
p3418
sS'chunkid'
p3419
S'JJP'
p3420
sS'drel'
p3421
S'pof:VGF'
p3422
sS'chunktype'
p3423
S'head:JJP'
p3424
ssbsg34
I00
sg35
I00
sg36
Nsg37
Nsg38
I8
sg39
I6
sg40
Nsg41
Nsg42
S'JJ'
p3425
sg44
g3410
sg45
I00
sba(issf_api
Word
p3426
(dp3427
g6
I00
sg7
V\u0939\u0941\u090f
p3428
sg9
(issf_api
FeatureSet
p3429
(dp3430
g12
(dp3431
S'posn'
p3432
S'210'
p3433
sS'name'
p3434
S'\xe0\xa4\xb9\xe0\xa5\x81\xe0\xa4\x8f'
p3435
sS'af'
p3436
S'\xe0\xa4\xb9\xe0\xa5\x8b,v,m,pl,3,,\xe0\xa4\xaf\xe0\xa4\xbe_\xe0\xa4\xb9\xe0\xa5\x88,yA'
p3437
sS'chunkid'
p3438
S'VGF'
p3439
sS'chunktype'
p3440
S'head:VGF'
p3441
sS'voicetype'
p3442
S'active'
p3443
sS'vpos'
p3444
S'tam_2'
p3445
sS'stype'
p3446
S'declarative'
p3447
ssbsg34
I00
sg35
I00
sg36
Nsg37
Nsg38
I9
sg39
I6
sg40
Nsg41
Nsg42
S'VM'
p3448
sg44
g3429
sg45
I00
sba(issf_api
Word
p3449
(dp3450
g6
I00
sg7
V\u0939\u0948\u0902
p3451
sg9
(issf_api
FeatureSet
p3452
(dp3453
g12
(dp3454
S'posn'
p3455
S'220'
p3456
sS'name'
p3457
S'\xe0\xa4\xb9\xe0\xa5\x88\xe0\xa4\x82'
p3458
sS'drel'
p3459
S'lwg__vaux:VGF'
p3460
sS'chunktype'
p3461
S'child:VGF'
p3462
sS'af'
p3463
S'\xe0\xa4\xb9\xe0\xa5\x88,v,any,pl,3,,\xe0\xa4\xb9\xe0\xa5\x88,hE'
p3464
ssbsg34
I00
sg35
I00
sg36
Nsg37
Nsg38
I9
sg39
I6
sg40
Nsg41
Nsg42
S'VAUX'
p3465
sg44
g3452
sg45
I00
sba(issf_api
Word
p3466
(dp3467
g6
I00
sg7
V\u0964
p3468
sg9
(issf_api
FeatureSet
p3469
(dp3470
g12
(dp3471
S'posn'
p3472
S'230'
p3473
sS'name'
p3474
S'\xe0\xa5\xa4'
p3475
sS'af'
p3476
S'\xe0\xa5\xa4,punc,,,,,,'
p3477
sS'chunkid'
p3478
S'BLK'
p3479
sS'drel'
p3480
S'rsym:VGF'
p3481
sS'chunktype'
p3482
S'head:BLK'
p3483
ssbsg34
I00
sg35
I00
sg36
Nsg37
Nsg38
I10
sg39
I6
sg40
Nsg41
Nsg42
S'SYM'
p3484
sg44
g3469
sg45
I00
sba(issf_api
Word
p3485
(dp3486
g6
I00
sg7
V\u0905\u0927\u093f\u0915\u093e\u0930\u093f\u0915
p3487
sg9
(issf_api
FeatureSet
p3488
(dp3489
g12
(dp3490
S'posn'
p3491
S'10'
p3492
sS'name'
p3493
S'\xe0\xa4\x85\xe0\xa4\xa7\xe0\xa4\xbf\xe0\xa4\x95\xe0\xa4\xbe\xe0\xa4\xb0\xe0\xa4\xbf\xe0\xa4\x95'
p3494
sS'drel'
p3495
S'nmod__adj:NP'
p3496
sS'chunktype'
p3497
S'child:NP'
p3498
sS'af'
p3499
S'\xe0\xa4\x85\xe0\xa4\xa7\xe0\xa4\xbf\xe0\xa4\x95\xe0\xa4\xbe\xe0\xa4\xb0\xe0\xa4\xbf\xe0\xa4\x95,adj,any,any,,o,,'
p3500
ssbsg34
I00
sg35
I00
sg36
Nsg37
Nsg38
I0
sg39
I7
sg40
Nsg41
Nsg42
S'JJ'
p3501
sg44
g3488
sg45
I00
sba(issf_api
Word
p3502
(dp3503
g6
I00
sg7
V\u0938\u0942\u0924\u094d\u0930\u094b\u0902
p3504
sg9
(issf_api
FeatureSet
p3505
(dp3506
g12
(dp3507
S'posn'
p3508
S'20'
p3509
sS'name'
p3510
S'\xe0\xa4\xb8\xe0\xa5\x82\xe0\xa4\xa4\xe0\xa5\x8d\xe0\xa4\xb0\xe0\xa5\x8b\xe0\xa4\x82'
p3511
sS'af'
p3512
S'\xe0\xa4\xb8\xe0\xa5\x82\xe0\xa4\xa4\xe0\xa5\x8d\xe0\xa4\xb0,n,m,pl,3,o,0_\xe0\xa4\x95\xe0\xa5\x87_\xe0\xa4\xae\xe0\xa5\x81\xe0\xa4\xa4\xe0\xa4\xbe\xe0\xa4\xac\xe0\xa4\xbf\xe0\xa4\x95,0'
p3513
sS'chunkid'
p3514
S'NP'
p3515
sS'drel'
p3516
S'k7a:VGF'
p3517
sS'vpos'
p3518
S'vib_3_4'
p3519
sS'chunktype'
p3520
S'head:NP'
p3521
ssbsg34
I00
sg35
I00
sg36
Nsg37
Nsg38
I0
sg39
I7
sg40
Nsg41
Nsg42
S'NN'
p3522
sg44
g3505
sg45
I00
sba(issf_api
Word
p3523
(dp3524
g6
I00
sg7
V\u0915\u0947
p3525
sg9
(issf_api
FeatureSet
p3526
(dp3527
g12
(dp3528
S'posn'
p3529
S'30'
p3530
sS'name'
p3531
S'\xe0\xa4\x95\xe0\xa5\x87'
p3532
sS'drel'
p3533
S'lwg__psp:NP'
p3534
sS'chunktype'
p3535
S'child:NP'
p3536
sS'af'
p3537
S'\xe0\xa4\x95\xe0\xa5\x87,psp,,,,,,'
p3538
ssbsg34
I00
sg35
I00
sg36
Nsg37
Nsg38
I0
sg39
I7
sg40
Nsg41
Nsg42
S'PSP'
p3539
sg44
g3526
sg45
I00
sba(issf_api
Word
p3540
(dp3541
g6
I00
sg7
V\u092e\u0941\u0924\u093e\u092c\u093f\u0915
p3542
sg9
(issf_api
FeatureSet
p3543
(dp3544
g12
(dp3545
S'posn'
p3546
S'40'
p3547
sS'name'
p3548
S'\xe0\xa4\xae\xe0\xa5\x81\xe0\xa4\xa4\xe0\xa4\xbe\xe0\xa4\xac\xe0\xa4\xbf\xe0\xa4\x95'
p3549
sS'drel'
p3550
S'lwg__psp:NP'
p3551
sS'chunktype'
p3552
S'child:NP'
p3553
sS'af'
p3554
S'\xe0\xa4\xae\xe0\xa5\x81\xe0\xa4\xa4\xe0\xa4\xbe\xe0\xa4\xac\xe0\xa4\xbf\xe0\xa4\x95,psp,,,,,,'
p3555
ssbsg34
I00
sg35
I00
sg36
Nsg37
Nsg38
I0
sg39
I7
sg40
Nsg41
Nsg42
S'PSP'
p3556
sg44
g3543
sg45
I00
sba(issf_api
Word
p3557
(dp3558
g6
I00
sg7
V\u0905\u091c\u094d\u091e\u093e\u0924
p3559
sg9
(issf_api
FeatureSet
p3560
(dp3561
g12
(dp3562
S'posn'
p3563
S'50'
p3564
sS'name'
p3565
S'\xe0\xa4\x85\xe0\xa4\x9c\xe0\xa5\x8d\xe0\xa4\x9e\xe0\xa4\xbe\xe0\xa4\xa4'
p3566
sS'drel'
p3567
S'nmod__adj:NP2'
p3568
sS'chunktype'
p3569
S'child:NP2'
p3570
sS'af'
p3571
S'\xe0\xa4\x85\xe0\xa4\x9c\xe0\xa5\x8d\xe0\xa4\x9e\xe0\xa4\xbe\xe0\xa4\xa4,adj,any,any,,o,,'
p3572
ssbsg34
I00
sg35
I00
sg36
Nsg37
Nsg38
I1
sg39
I7
sg40
Nsg41
Nsg42
S'JJ'
p3573
sg44
g3560
sg45
I00
sba(issf_api
Word
p3574
(dp3575
g6
I00
sg7
V\u0932\u094b\u0917\u094b\u0902
p3576
sg9
(issf_api
FeatureSet
p3577
(dp3578
g12
(dp3579
S'posn'
p3580
S'60'
p3581
sS'name'
p3582
S'\xe0\xa4\xb2\xe0\xa5\x8b\xe0\xa4\x97\xe0\xa5\x8b\xe0\xa4\x82'
p3583
sS'af'
p3584
S'\xe0\xa4\xb2\xe0\xa5\x8b\xe0\xa4\x97,n,m,pl,3,o,0_\xe0\xa4\xa8\xe0\xa5\x87,0'
p3585
sS'chunkid'
p3586
S'NP2'
p3587
sS'drel'
p3588
S'k1:VGF'
p3589
sS'vpos'
p3590
S'vib_3'
p3591
sS'chunktype'
p3592
S'head:NP2'
p3593
ssbsg34
I00
sg35
I00
sg36
Nsg37
Nsg38
I1
sg39
I7
sg40
Nsg41
Nsg42
S'NN'
p3594
sg44
g3577
sg45
I00
sba(issf_api
Word
p3595
(dp3596
g6
I00
sg7
V\u0928\u0947
p3597
sg9
(issf_api
FeatureSet
p3598
(dp3599
g12
(dp3600
S'posn'
p3601
S'70'
p3602
sS'name'
p3603
S'\xe0\xa4\xa8\xe0\xa5\x87'
p3604
sS'drel'
p3605
S'lwg__psp:NP2'
p3606
sS'chunktype'
p3607
S'child:NP2'
p3608
sS'af'
p3609
S'\xe0\xa4\xa8\xe0\xa5\x87,psp,,,,,,'
p3610
ssbsg34
I00
sg35
I00
sg36
Nsg37
Nsg38
I1
sg39
I7
sg40
Nsg41
Nsg42
S'PSP'
p3611
sg44
g3598
sg45
I00
sba(issf_api
Word
p3612
(dp3613
g6
I00
sg7
V\u0915\u0930\u094d\u092b\u094d\u0930\u094d\u092f\u0942
p3614
sg9
(issf_api
FeatureSet
p3615
(dp3616
g12
(dp3617
S'crefhead'
p3618
S'\xe0\xa4\x95\xe0\xa4\xb0\xe0\xa5\x8d\xe0\xa4\xab\xe0\xa5\x8d\xe0\xa4\xb0\xe0\xa5\x8d\xe0\xa4\xaf\xe0\xa5\x82:i27'
p3619
sS'posn'
p3620
S'80'
p3621
sS'name'
p3622
S'\xe0\xa4\x95\xe0\xa4\xb0\xe0\xa5\x8d\xe0\xa4\xab\xe0\xa5\x8d\xe0\xa4\xb0\xe0\xa5\x8d\xe0\xa4\xaf\xe0\xa5\x82'
p3623
sS'af'
p3624
S'\xe0\xa4\x95\xe0\xa4\xb0\xe0\xa5\x8d\xe0\xa4\xab\xe0\xa5\x8d\xe0\xa4\xb0\xe0\xa5\x8d\xe0\xa4\xaf\xe0\xa5\x82,n,m,sg,3,o,0_\xe0\xa4\x95\xe0\xa4\xbe,0'
p3625
sS'chunkid'
p3626
S'NP3'
p3627
sS'creftype'
p3628
S'Coreference-Identity:i15'
p3629
sS'chunktype'
p3630
S'head:NP3'
p3631
sS'vpos'
p3632
S'vib_2'
p3633
sS'cref'
p3634
S'i27%1:t4'
p3635
sS'drel'
p3636
S'r6:NP4'
p3637
ssbsg34
I00
sg35
I00
sg36
Nsg37
Nsg38
I2
sg39
I7
sg40
Nsg41
Nsg42
S'NN'
p3638
sg44
g3615
sg45
I00
sba(issf_api
Word
p3639
(dp3640
g6
I00
sg7
V\u0915\u0947
p3641
sg9
(issf_api
FeatureSet
p3642
(dp3643
g12
(dp3644
S'posn'
p3645
S'90'
p3646
sS'name'
p3647
S'\xe0\xa4\x95\xe0\xa5\x872'
p3648
sS'drel'
p3649
S'lwg__psp:NP3'
p3650
sS'chunktype'
p3651
S'child:NP3'
p3652
sS'af'
p3653
S'\xe0\xa4\x95\xe0\xa4\xbe,psp,m,pl,,o,,'
p3654
ssbsg34
I00
sg35
I00
sg36
Nsg37
Nsg38
I2
sg39
I7
sg40
Nsg41
Nsg42
S'PSP'
p3655
sg44
g3642
sg45
I00
sba(issf_api
Word
p3656
(dp3657
g6
I00
sg7
V\u0928\u093f\u092f\u092e\u094b\u0902
p3658
sg9
(issf_api
FeatureSet
p3659
(dp3660
g12
(dp3661
S'posn'
p3662
S'100'
p3663
sS'name'
p3664
S'\xe0\xa4\xa8\xe0\xa4\xbf\xe0\xa4\xaf\xe0\xa4\xae\xe0\xa5\x8b\xe0\xa4\x82'
p3665
sS'af'
p3666
S'\xe0\xa4\xa8\xe0\xa4\xbf\xe0\xa4\xaf\xe0\xa4\xae,n,m,pl,3,o,0_\xe0\xa4\x95\xe0\xa4\xbe,0'
p3667
sS'chunkid'
p3668
S'NP4'
p3669
sS'drel'
p3670
S'r6-k2:NP5'
p3671
sS'vpos'
p3672
S'vib_2'
p3673
sS'chunktype'
p3674
S'head:NP4'
p3675
ssbsg34
I00
sg35
I00
sg36
Nsg37
Nsg38
I3
sg39
I7
sg40
Nsg41
Nsg42
S'NN'
p3676
sg44
g3659
sg45
I00
sba(issf_api
Word
p3677
(dp3678
g6
I00
sg7
V\u0915\u093e
p3679
sg9
(issf_api
FeatureSet
p3680
(dp3681
g12
(dp3682
S'posn'
p3683
S'110'
p3684
sS'name'
p3685
S'\xe0\xa4\x95\xe0\xa4\xbe'
p3686
sS'drel'
p3687
S'lwg__psp:NP4'
p3688
sS'chunktype'
p3689
S'child:NP4'
p3690
sS'af'
p3691
S'\xe0\xa4\x95\xe0\xa4\xbe,psp,m,sg,,d,,'
p3692
ssbsg34
I00
sg35
I00
sg36
Nsg37
Nsg38
I3
sg39
I7
sg40
Nsg41
Nsg42
S'PSP'
p3693
sg44
g3680
sg45
I00
sba(issf_api
Word
p3694
(dp3695
g6
I00
sg7
V\u0909\u0932\u094d\u0932\u0902\u0918\u0928
p3696
sg9
(issf_api
FeatureSet
p3697
(dp3698
g12
(dp3699
S'posn'
p3700
S'120'
p3701
sS'name'
p3702
S'\xe0\xa4\x89\xe0\xa4\xb2\xe0\xa5\x8d\xe0\xa4\xb2\xe0\xa4\x82\xe0\xa4\x98\xe0\xa4\xa8'
p3703
sS'af'
p3704
S'\xe0\xa4\x89\xe0\xa4\xb2\xe0\xa5\x8d\xe0\xa4\xb2\xe0\xa4\x82\xe0\xa4\x98\xe0\xa4\xa8,n,m,sg,3,d,0,0'
p3705
sS'chunkid'
p3706
S'NP5'
p3707
sS'drel'
p3708
S'pof:VGNF'
p3709
sS'chunktype'
p3710
S'head:NP5'
p3711
ssbsg34
I00
sg35
I00
sg36
Nsg37
Nsg38
I4
sg39
I7
sg40
Nsg41
Nsg42
S'NN'
p3712
sg44
g3697
sg45
I00
sba(issf_api
Word
p3713
(dp3714
g6
I00
sg7
V\u0915\u0930
p3715
sg9
(issf_api
FeatureSet
p3716
(dp3717
g12
(dp3718
S'posn'
p3719
S'130'
p3720
sS'name'
p3721
S'\xe0\xa4\x95\xe0\xa4\xb0'
p3722
sS'af'
p3723
S'\xe0\xa4\x95\xe0\xa4\xb0,v,any,any,any,,0,0'
p3724
sS'chunkid'
p3725
S'VGNF'
p3726
sS'drel'
p3727
S'vmod:VGF'
p3728
sS'chunktype'
p3729
S'head:VGNF'
p3730
ssbsg34
I00
sg35
I00
sg36
Nsg37
Nsg38
I5
sg39
I7
sg40
Nsg41
Nsg42
S'VM'
p3731
sg44
g3716
sg45
I00
sba(issf_api
Word
p3732
(dp3733
g6
I00
sg7
V\u092c\u0943\u0939\u0938\u094d\u092a\u0924\u093f\u0935\u093e\u0930
p3734
sg9
(issf_api
FeatureSet
p3735
(dp3736
g12
(dp3737
S'posn'
p3738
S'140'
p3739
sS'name'
p3740
S'\xe0\xa4\xac\xe0\xa5\x83\xe0\xa4\xb9\xe0\xa4\xb8\xe0\xa5\x8d\xe0\xa4\xaa\xe0\xa4\xa4\xe0\xa4\xbf\xe0\xa4\xb5\xe0\xa4\xbe\xe0\xa4\xb0'
p3741
sS'drel'
p3742
S'nmod__adj:NP6'
p3743
sS'chunktype'
p3744
S'child:NP6'
p3745
sS'af'
p3746
S'\xe0\xa4\xac\xe0\xa5\x83\xe0\xa4\xb9\xe0\xa4\xb8\xe0\xa5\x8d\xe0\xa4\xaa\xe0\xa4\xa4\xe0\xa4\xbf\xe0\xa4\xb5\xe0\xa4\xbe\xe0\xa4\xb0,n,m,sg,3,d,0,0'
p3747
ssbsg34
I00
sg35
I00
sg36
Nsg37
Nsg38
I6
sg39
I7
sg40
Nsg41
Nsg42
S'NNP'
p3748
sg44
g3735
sg45
I00
sba(issf_api
Word
p3749
(dp3750
g6
I00
sg7
V\u0930\u093e\u0924
p3751
sg9
(issf_api
FeatureSet
p3752
(dp3753
g12
(dp3754
S'posn'
p3755
S'150'
p3756
sS'name'
p3757
S'\xe0\xa4\xb0\xe0\xa4\xbe\xe0\xa4\xa4'
p3758
sS'af'
p3759
S'\xe0\xa4\xb0\xe0\xa4\xbe\xe0\xa4\xa4,n,f,sg,3,d,0,0'
p3760
sS'chunkid'
p3761
S'NP6'
p3762
sS'drel'
p3763
S'k7t:VGF'
p3764
sS'chunktype'
p3765
S'head:NP6'
p3766
ssbsg34
I00
sg35
I00
sg36
Nsg37
Nsg38
I6
sg39
I7
sg40
Nsg41
Nsg42
S'NN'
p3767
sg44
g3752
sg45
I00
sba(issf_api
Word
p3768
(dp3769
g6
I00
sg7
V\u0924\u0940\u0928
p3770
sg9
(issf_api
FeatureSet
p3771
(dp3772
g12
(dp3773
S'posn'
p3774
S'160'
p3775
sS'name'
p3776
S'\xe0\xa4\xa4\xe0\xa5\x80\xe0\xa4\xa8'
p3777
sS'drel'
p3778
S'nmod__adj:NP7'
p3779
sS'chunktype'
p3780
S'child:NP7'
p3781
sS'af'
p3782
S'\xe0\xa4\xa4\xe0\xa5\x80\xe0\xa4\xa8,num,any,any,,any,,'
p3783
ssbsg34
I00
sg35
I00
sg36
Nsg37
Nsg38
I7
sg39
I7
sg40
Nsg41
Nsg42
S'QC'
p3784
sg44
g3771
sg45
I00
sba(issf_api
Word
p3785
(dp3786
g6
I00
sg7
V\u0938\u0930\u0915\u093e\u0930\u0940
p3787
sg9
(issf_api
FeatureSet
p3788
(dp3789
g12
(dp3790
S'posn'
p3791
S'170'
p3792
sS'name'
p3793
S'\xe0\xa4\xb8\xe0\xa4\xb0\xe0\xa4\x95\xe0\xa4\xbe\xe0\xa4\xb0\xe0\xa5\x80'
p3794
sS'drel'
p3795
S'nmod__adj:NP7'
p3796
sS'chunktype'
p3797
S'child:NP7'
p3798
sS'af'
p3799
S'\xe0\xa4\xb8\xe0\xa4\xb0\xe0\xa4\x95\xe0\xa4\xbe\xe0\xa4\xb0\xe0\xa5\x80,adj,any,any,,o,,'
p3800
ssbsg34
I00
sg35
I00
sg36
Nsg37
Nsg38
I7
sg39
I7
sg40
Nsg41
Nsg42
S'JJ'
p3801
sg44
g3788
sg45
I00
sba(issf_api
Word
p3802
(dp3803
g6
I00
sg7
V\u0915\u093e\u0930\u094d\u092f\u093e\u0932\u092f\u094b\u0902
p3804
sg9
(issf_api
FeatureSet
p3805
(dp3806
g12
(dp3807
S'posn'
p3808
S'180'
p3809
sS'name'
p3810
S'\xe0\xa4\x95\xe0\xa4\xbe\xe0\xa4\xb0\xe0\xa5\x8d\xe0\xa4\xaf\xe0\xa4\xbe\xe0\xa4\xb2\xe0\xa4\xaf\xe0\xa5\x8b\xe0\xa4\x82'
p3811
sS'af'
p3812
S'\xe0\xa4\x95\xe0\xa4\xbe\xe0\xa4\xb0\xe0\xa5\x8d\xe0\xa4\xaf\xe0\xa4\xbe\xe0\xa4\xb2\xe0\xa4\xaf,n,m,pl,3,o,0_\xe0\xa4\xae\xe0\xa5\x87\xe0\xa4\x82,0'
p3813
sS'chunkid'
p3814
S'NP7'
p3815
sS'drel'
p3816
S'k7p:VGF'
p3817
sS'vpos'
p3818
S'vib_4'
p3819
sS'chunktype'
p3820
S'head:NP7'
p3821
ssbsg34
I00
sg35
I00
sg36
Nsg37
Nsg38
I7
sg39
I7
sg40
Nsg41
Nsg42
S'NN'
p3822
sg44
g3805
sg45
I00
sba(issf_api
Word
p3823
(dp3824
g6
I00
sg7
V\u092e\u0947\u0902
p3825
sg9
(issf_api
FeatureSet
p3826
(dp3827
g12
(dp3828
S'posn'
p3829
S'190'
p3830
sS'name'
p3831
S'\xe0\xa4\xae\xe0\xa5\x87\xe0\xa4\x82'
p3832
sS'drel'
p3833
S'lwg__psp:NP7'
p3834
sS'chunktype'
p3835
S'child:NP7'
p3836
sS'af'
p3837
S'\xe0\xa4\xae\xe0\xa5\x87\xe0\xa4\x82,psp,,,,,,'
p3838
ssbsg34
I00
sg35
I00
sg36
Nsg37
Nsg38
I7
sg39
I7
sg40
Nsg41
Nsg42
S'PSP'
p3839
sg44
g3826
sg45
I00
sba(issf_api
Word
p3840
(dp3841
g6
I00
sg7
V\u0906\u0917
p3842
sg9
(issf_api
FeatureSet
p3843
(dp3844
g12
(dp3845
S'posn'
p3846
S'200'
p3847
sS'name'
p3848
S'\xe0\xa4\x86\xe0\xa4\x97'
p3849
sS'af'
p3850
S'\xe0\xa4\x86\xe0\xa4\x97,n,f,sg,3,d,0,0'
p3851
sS'chunkid'
p3852
S'NP8'
p3853
sS'drel'
p3854
S'k2:VGF'
p3855
sS'chunktype'
p3856
S'head:NP8'
p3857
ssbsg34
I00
sg35
I00
sg36
Nsg37
Nsg38
I8
sg39
I7
sg40
Nsg41
Nsg42
S'NN'
p3858
sg44
g3843
sg45
I00
sba(issf_api
Word
p3859
(dp3860
g6
I00
sg7
V\u0932\u0917\u093e
p3861
sg9
(issf_api
FeatureSet
p3862
(dp3863
g12
(dp3864
S'posn'
p3865
S'210'
p3866
sS'name'
p3867
S'\xe0\xa4\xb2\xe0\xa4\x97\xe0\xa4\xbe'
p3868
sS'af'
p3869
S'\xe0\xa4\xb2\xe0\xa4\x97\xe0\xa4\xbe,v,any,sg,any,,0_\xe0\xa4\xa6\xe0\xa5\x87+\xe0\xa4\xaf\xe0\xa4\xbe,0'
p3870
sS'chunkid'
p3871
S'VGF'
p3872
sS'chunktype'
p3873
S'head:VGF'
p3874
sS'voicetype'
p3875
S'active'
p3876
sS'vpos'
p3877
S'tam_2'
p3878
sS'stype'
p3879
S'declarative'
p3880
ssbsg34
I00
sg35
I00
sg36
Nsg37
Nsg38
I9
sg39
I7
sg40
Nsg41
Nsg42
S'VM'
p3881
sg44
g3862
sg45
I00
sba(issf_api
Word
p3882
(dp3883
g6
I00
sg7
V\u0926\u0940
p3884
sg9
(issf_api
FeatureSet
p3885
(dp3886
g12
(dp3887
S'posn'
p3888
S'220'
p3889
sS'name'
p3890
S'\xe0\xa4\xa6\xe0\xa5\x80'
p3891
sS'drel'
p3892
S'lwg__vaux:VGF'
p3893
sS'chunktype'
p3894
S'child:VGF'
p3895
sS'af'
p3896
S'\xe0\xa4\xa6\xe0\xa5\x87,v,f,sg,any,,\xe0\xa4\xaf\xe0\xa4\xbe,yA'
p3897
ssbsg34
I00
sg35
I00
sg36
Nsg37
Nsg38
I9
sg39
I7
sg40
Nsg41
Nsg42
S'VAUX'
p3898
sg44
g3885
sg45
I00
sba(issf_api
Word
p3899
(dp3900
g6
I00
sg7
V\u0964
p3901
sg9
(issf_api
FeatureSet
p3902
(dp3903
g12
(dp3904
S'posn'
p3905
S'230'
p3906
sS'name'
p3907
S'\xe0\xa5\xa4'
p3908
sS'af'
p3909
S'\xe0\xa5\xa4,punc,,,,,,'
p3910
sS'chunkid'
p3911
S'BLK'
p3912
sS'drel'
p3913
S'rsym:VGF'
p3914
sS'chunktype'
p3915
S'head:BLK'
p3916
ssbsg34
I00
sg35
I00
sg36
Nsg37
Nsg38
I10
sg39
I7
sg40
Nsg41
Nsg42
S'SYM'
p3917
sg44
g3902
sg45
I00
sbasS'sentenceList'
p3918
(lp3919
(issf_api
Sentence
p3920
(dp3921
S'rootNode'
p3922
(lp3923
sg39
I0
sS'wordNumList'
p3924
(lp3925
I0
aI1
aI2
aI3
aI4
aI5
aI6
aI7
aI8
aI9
aI10
aI11
aI12
aI13
aI14
aI15
aI16
aI17
aI18
aI19
aI20
aI21
aI22
aI23
aI24
aI25
aI26
aI27
aI28
aI29
aI30
aI31
aI32
aI33
aI34
aI35
aI36
aI37
asS'nodeDict'
p3926
(dp3927
S'VGNN3'
p3928
(issf_api
Node
p3929
(dp3930
S'nodeRelation'
p3931
S'rh'
p3932
sS'nodeName'
p3933
g3928
sS'nodeParent'
p3934
S'VGF'
p3935
sS'nodeLevel'
p3936
I-1
sg38
I14
sS'childList'
p3937
(lp3938
S'NP11'
p3939
asbsg3939
(issf_api
Node
p3940
(dp3941
g3931
S'k2'
p3942
sg3933
g3939
sg3934
S'VGNN3'
p3943
sg3936
I-1
sg38
I13
sg3937
(lp3944
sbsS'VGNN'
p3945
(issf_api
Node
p3946
(dp3947
g3931
S'ccof'
p3948
sg3933
g3945
sg3934
S'CCP'
p3949
sg3936
I-1
sg38
I8
sg3937
(lp3950
S'NP5'
p3951
aS'NP8'
p3952
aS'NP'
p3953
aS'NP7'
p3954
aS'NP6'
p3955
asbsS'VGF'
p3956
(issf_api
Node
p3957
(dp3958
g3931
S'None'
p3959
sg3933
g3956
sg3934
g3959
sg3936
I-1
sg38
I17
sg3937
(lp3960
g3928
aS'NP12'
p3961
aS'JJP'
p3962
aS'BLK'
p3963
aS'NP10'
p3964
asbsg3961
(issf_api
Node
p3965
(dp3966
g3931
S'k2'
p3967
sg3933
g3961
sg3934
S'VGF'
p3968
sg3936
I-1
sg38
I15
sg3937
(lp3969
sbsS'CCP'
p3970
(issf_api
Node
p3971
(dp3972
g3931
S'r6'
p3973
sg3933
g3970
sg3934
S'NP10'
p3974
sg3936
I-1
sg38
I9
sg3937
(lp3975
g3945
aS'VGNN2'
p3976
asbsg3962
(issf_api
Node
p3977
(dp3978
g3931
S'pof'
p3979
sg3933
g3962
sg3934
S'VGF'
p3980
sg3936
I-1
sg38
I16
sg3937
(lp3981
sbsg3976
(issf_api
Node
p3982
(dp3983
g3931
S'ccof'
p3984
sg3933
g3976
sg3934
S'CCP'
p3985
sg3936
I-1
sg38
I11
sg3937
(lp3986
S'NP9'
p3987
asbsg3951
(issf_api
Node
p3988
(dp3989
g3931
S'k7a'
p3990
sg3933
g3951
sg3934
S'VGNN'
p3991
sg3936
I-1
sg38
I4
sg3937
(lp3992
S'NP4'
p3993
asbsg3987
(issf_api
Node
p3994
(dp3995
g3931
S'k2'
p3996
sg3933
g3987
sg3934
S'VGNN2'
p3997
sg3936
I-1
sg38
I10
sg3937
(lp3998
sbsg3952
(issf_api
Node
p3999
(dp4000
g3931
S'k2'
p4001
sg3933
g3952
sg3934
S'VGNN'
p4002
sg3936
I-1
sg38
I7
sg3937
(lp4003
sbsg3963
(issf_api
Node
p4004
(dp4005
g3931
S'rsym'
p4006
sg3933
g3963
sg3934
S'VGF'
p4007
sg3936
I-1
sg38
I18
sg3937
(lp4008
sbsg3964
(issf_api
Node
p4009
(dp4010
g3931
S'k7'
p4011
sg3933
g3964
sg3934
S'VGF'
p4012
sg3936
I-1
sg38
I12
sg3937
(lp4013
g3970
asbsg3953
(issf_api
Node
p4014
(dp4015
g3931
S'k7p'
p4016
sg3933
g3953
sg3934
S'VGNN'
p4017
sg3936
I-1
sg38
I0
sg3937
(lp4018
sbsg3993
(issf_api
Node
p4019
(dp4020
g3931
S'r6'
p4021
sg3933
g3993
sg3934
S'NP5'
p4022
sg3936
I-1
sg38
I3
sg3937
(lp4023
S'NP3'
p4024
asbsg3954
(issf_api
Node
p4025
(dp4026
g3931
S'k7t'
p4027
sg3933
g3954
sg3934
S'VGNN'
p4028
sg3936
I-1
sg38
I6
sg3937
(lp4029
sbsg3955
(issf_api
Node
p4030
(dp4031
g3931
S'k1'
p4032
sg3933
g3955
sg3934
S'VGNN'
p4033
sg3936
I-1
sg38
I5
sg3937
(lp4034
sbsg4024
(issf_api
Node
p4035
(dp4036
g3931
S'nmod'
p4037
sg3933
g4024
sg3934
S'NP4'
p4038
sg3936
I-1
sg38
I2
sg3937
(lp4039
S'NP2'
p4040
asbsg4040
(issf_api
Node
p4041
(dp4042
g3931
S'r6'
p4043
sg3933
g4040
sg3934
S'NP3'
p4044
sg3936
I-1
sg38
I1
sg3937
(lp4045
sbssS'chunkList'
p4046
(lp4047
(issf_api
Chunk
p4048
(dp4049
g3933
g23
sg38
I0
sS'chunkTag'
p4050
g43
sg39
I0
sg3924
(lp4051
I0
aI1
asg44
(issf_api
FeatureSet
p4052
(dp4053
g12
(dp4054
S'name'
p4055
g3953
sS'drel'
p4056
S'k7p:VGNN'
p4057
ssbsba(issf_api
Chunk
p4058
(dp4059
g3933
g93
sg38
I1
sg4050
g100
sg39
I0
sg3924
(lp4060
I2
aI3
aI4
asg44
(issf_api
FeatureSet
p4061
(dp4062
g12
(dp4063
S'name'
p4064
g4040
sS'drel'
p4065
S'r6:NP3'
p4066
ssbsba(issf_api
Chunk
p4067
(dp4068
g3933
g131
sg38
I2
sg4050
g138
sg39
I0
sg3924
(lp4069
I5
aI6
asg44
(issf_api
FeatureSet
p4070
(dp4071
g12
(dp4072
S'name'
p4073
g4024
sS'drel'
p4074
S'nmod:NP4'
p4075
ssbsba(issf_api
Chunk
p4076
(dp4077
g3933
g194
sg38
I3
sg4050
g207
sg39
I0
sg3924
(lp4078
I7
aI8
aI9
asg44
(issf_api
FeatureSet
p4079
(dp4080
g12
(dp4081
S'name'
p4082
g3993
sS'drel'
p4083
S'r6:NP5'
p4084
ssbsba(issf_api
Chunk
p4085
(dp4086
g3933
g259
sg38
I4
sg4050
g272
sg39
I0
sg3924
(lp4087
I10
aI11
aI12
aI13
aI14
asg44
(issf_api
FeatureSet
p4088
(dp4089
g12
(dp4090
S'name'
p4091
g3951
sS'drel'
p4092
S'k7a:VGNN'
p4093
ssbsba(issf_api
Chunk
p4094
(dp4095
g3933
g354
sg38
I5
sg4050
g361
sg39
I0
sg3924
(lp4096
I15
aI16
aI17
asg44
(issf_api
FeatureSet
p4097
(dp4098
g12
(dp4099
S'name'
p4100
g3955
sS'drel'
p4101
S'k1:VGNN'
p4102
ssbsba(issf_api
Chunk
p4103
(dp4104
g3933
g392
sg38
I6
sg4050
g399
sg39
I0
sg3924
(lp4105
I18
aI19
asg44
(issf_api
FeatureSet
p4106
(dp4107
g12
(dp4108
S'name'
p4109
g3954
sS'drel'
p4110
S'k7t:VGNN'
p4111
ssbsba(issf_api
Chunk
p4112
(dp4113
g3933
g432
sg38
I7
sg4050
g443
sg39
I0
sg3924
(lp4114
I20
asg44
(issf_api
FeatureSet
p4115
(dp4116
g12
(dp4117
S'name'
p4118
g3952
sS'drel'
p4119
S'k2:VGNN'
p4120
ssbsba(issf_api
Chunk
p4121
(dp4122
g3933
g457
sg38
I8
sg4050
g464
sg39
I0
sg3924
(lp4123
I21
asg44
(issf_api
FeatureSet
p4124
(dp4125
g12
(dp4126
S'name'
p4127
g3945
sS'drel'
p4128
S'ccof:CCP'
p4129
ssbsba(issf_api
Chunk
p4130
(dp4131
g3933
g478
sg38
I9
sg4050
g485
sg39
I0
sg3924
(lp4132
I22
asg44
(issf_api
FeatureSet
p4133
(dp4134
g12
(dp4135
S'name'
p4136
g3970
sS'drel'
p4137
S'r6:NP10'
p4138
ssbsba(issf_api
Chunk
p4139
(dp4140
g3933
g501
sg38
I10
sg4050
g512
sg39
I0
sg3924
(lp4141
I23
asg44
(issf_api
FeatureSet
p4142
(dp4143
g12
(dp4144
S'name'
p4145
g3987
sS'drel'
p4146
S'k2:VGNN2'
p4147
ssbsba(issf_api
Chunk
p4148
(dp4149
g3933
g528
sg38
I11
sg4050
g537
sg39
I0
sg3924
(lp4150
I24
aI25
asg44
(issf_api
FeatureSet
p4151
(dp4152
g12
(dp4153
S'name'
p4154
g3976
sS'drel'
p4155
S'ccof:CCP'
p4156
ssbsba(issf_api
Chunk
p4157
(dp4158
g3933
g570
sg38
I12
sg4050
g583
sg39
I0
sg3924
(lp4159
I26
aI27
aI28
asg44
(issf_api
FeatureSet
p4160
(dp4161
g12
(dp4162
S'name'
p4163
g3964
sS'drel'
p4164
S'k7:VGF'
p4165
ssbsba(issf_api
Chunk
p4166
(dp4167
g3933
g633
sg38
I13
sg4050
g642
sg39
I0
sg3924
(lp4168
I29
asg44
(issf_api
FeatureSet
p4169
(dp4170
g12
(dp4171
S'name'
p4172
g3939
sS'drel'
p4173
S'k2:VGNN3'
p4174
ssbsba(issf_api
Chunk
p4175
(dp4176
g3933
g656
sg38
I14
sg4050
g663
sg39
I0
sg3924
(lp4177
I30
aI31
asg44
(issf_api
FeatureSet
p4178
(dp4179
g12
(dp4180
S'name'
p4181
g3928
sS'drel'
p4182
S'rh:VGF'
p4183
ssbsba(issf_api
Chunk
p4184
(dp4185
g3933
g715
sg38
I15
sg4050
g724
sg39
I0
sg3924
(lp4186
I32
aI33
asg44
(issf_api
FeatureSet
p4187
(dp4188
g12
(dp4189
S'name'
p4190
g3961
sS'drel'
p4191
S'k2:VGF'
p4192
ssbsba(issf_api
Chunk
p4193
(dp4194
g3933
g738
sg38
I16
sg4050
g743
sg39
I0
sg3924
(lp4195
I34
asg44
(issf_api
FeatureSet
p4196
(dp4197
g12
(dp4198
S'name'
p4199
g3962
sS'drel'
p4200
S'pof:VGF'
p4201
ssbsba(issf_api
Chunk
p4202
(dp4203
g3933
g757
sg38
I17
sg4050
g766
sg39
I0
sg3924
(lp4204
I35
aI36
asg44
(issf_api
FeatureSet
p4205
(dp4206
g12
(dp4207
S'name'
p4208
g3956
ssbsba(issf_api
Chunk
p4209
(dp4210
g3933
g797
sg38
I18
sg4050
g802
sg39
I0
sg3924
(lp4211
I37
asg44
(issf_api
FeatureSet
p4212
(dp4213
g12
(dp4214
S'name'
p4215
g3963
sS'drel'
p4216
S'rsym:VGF'
p4217
ssbsbasba(issf_api
Sentence
p4218
(dp4219
g3922
(lp4220
sg39
I1
sg3924
(lp4221
I38
aI39
aI40
aI41
aI42
aI43
aI44
asg3926
(dp4222
S'NP'
p4223
(issf_api
Node
p4224
(dp4225
g3931
S'k7'
p4226
sg3933
g4223
sg3934
S'VGF'
p4227
sg3936
I-1
sg38
I0
sg3937
(lp4228
sbsS'VGF'
p4229
(issf_api
Node
p4230
(dp4231
g3931
g3959
sg3933
g4229
sg3934
g3959
sg3936
I-1
sg38
I3
sg3937
(lp4232
g4223
aS'JJP'
p4233
aS'BLK'
p4234
aS'NP2'
p4235
asbsg4233
(issf_api
Node
p4236
(dp4237
g3931
S'k1s'
p4238
sg3933
g4233
sg3934
S'VGF'
p4239
sg3936
I-1
sg38
I2
sg3937
(lp4240
sbsg4234
(issf_api
Node
p4241
(dp4242
g3931
S'rsym'
p4243
sg3933
g4234
sg3934
S'VGF'
p4244
sg3936
I-1
sg38
I4
sg3937
(lp4245
sbsg4235
(issf_api
Node
p4246
(dp4247
g3931
S'k1'
p4248
sg3933
g4235
sg3934
S'VGF'
p4249
sg3936
I-1
sg38
I1
sg3937
(lp4250
sbssg4046
(lp4251
(issf_api
Chunk
p4252
(dp4253
g3933
g818
sg38
I0
sg4050
g829
sg39
I1
sg3924
(lp4254
I38
aI39
asg44
(issf_api
FeatureSet
p4255
(dp4256
g12
(dp4257
S'name'
p4258
g4223
sS'drel'
p4259
S'k7:VGF'
p4260
ssbsba(issf_api
Chunk
p4261
(dp4262
g3933
g877
sg38
I1
sg4050
g882
sg39
I1
sg3924
(lp4263
I40
aI41
asg44
(issf_api
FeatureSet
p4264
(dp4265
g12
(dp4266
S'name'
p4267
g4235
sS'drel'
p4268
S'k1:VGF'
p4269
ssbsba(issf_api
Chunk
p4270
(dp4271
g3933
g896
sg38
I2
sg4050
g901
sg39
I1
sg3924
(lp4272
I42
asg44
(issf_api
FeatureSet
p4273
(dp4274
g12
(dp4275
S'name'
p4276
g4233
sS'drel'
p4277
S'k1s:VGF'
p4278
ssbsba(issf_api
Chunk
p4279
(dp4280
g3933
g915
sg38
I3
sg4050
g922
sg39
I1
sg3924
(lp4281
I43
asg44
(issf_api
FeatureSet
p4282
(dp4283
g12
(dp4284
S'name'
p4285
g4229
ssbsba(issf_api
Chunk
p4286
(dp4287
g3933
g936
sg38
I4
sg4050
g941
sg39
I1
sg3924
(lp4288
I44
asg44
(issf_api
FeatureSet
p4289
(dp4290
g12
(dp4291
S'name'
p4292
g4234
sS'drel'
p4293
S'rsym:VGF'
p4294
ssbsbasba(issf_api
Sentence
p4295
(dp4296
g3922
(lp4297
sg39
I2
sg3924
(lp4298
I45
aI46
aI47
aI48
aI49
aI50
aI51
aI52
aI53
aI54
aI55
aI56
aI57
aI58
aI59
aI60
aI61
aI62
aI63
aI64
aI65
aI66
aI67
aI68
aI69
aI70
aI71
asg3926
(dp4299
S'VGNF'
p4300
(issf_api
Node
p4301
(dp4302
g3931
S'vmod'
p4303
sg3933
g4300
sg3934
S'VGF2'
p4304
sg3936
I-1
sg38
I8
sg3937
(lp4305
S'NP6'
p4306
asbsS'VGNN'
p4307
(issf_api
Node
p4308
(dp4309
g3931
S'r6-k2'
p4310
sg3933
g4307
sg3934
S'NP8'
p4311
sg3936
I-1
sg38
I10
sg3937
(lp4312
S'NP7'
p4313
asbsS'VGF'
p4314
(issf_api
Node
p4315
(dp4316
g3931
g3959
sg3933
g4314
sg3934
g3959
sg3936
I-1
sg38
I1
sg3937
(lp4317
S'CCP'
p4318
aS'BLK'
p4319
aS'NP'
p4320
asbsg4318
(issf_api
Node
p4321
(dp4322
g3931
S'k2'
p4323
sg3933
g4318
sg3934
S'VGF'
p4324
sg3936
I-1
sg38
I2
sg3937
(lp4325
S'VGF2'
p4326
asbsg4326
(issf_api
Node
p4327
(dp4328
g3931
S'ccof'
p4329
sg3933
g4326
sg3934
S'CCP'
p4330
sg3936
I-1
sg38
I12
sg3937
(lp4331
g4300
aS'NP5'
p4332
aS'NP8'
p4333
aS'NP3'
p4334
aS'NP2'
p4335
asbsg4332
(issf_api
Node
p4336
(dp4337
g3931
S'k7a'
p4338
sg3933
g4332
sg3934
S'VGF2'
p4339
sg3936
I-1
sg38
I6
sg3937
(lp4340
S'NP4'
p4341
asbsg4333
(issf_api
Node
p4342
(dp4343
g3931
S'pof'
p4344
sg3933
g4333
sg3934
S'VGF2'
p4345
sg3936
I-1
sg38
I11
sg3937
(lp4346
g4307
asbsg4319
(issf_api
Node
p4347
(dp4348
g3931
S'rsym'
p4349
sg3933
g4319
sg3934
S'VGF'
p4350
sg3936
I-1
sg38
I13
sg3937
(lp4351
sbsg4320
(issf_api
Node
p4352
(dp4353
g3931
S'k1'
p4354
sg3933
g4320
sg3934
S'VGF'
p4355
sg3936
I-1
sg38
I0
sg3937
(lp4356
sbsg4341
(issf_api
Node
p4357
(dp4358
g3931
S'r6'
p4359
sg3933
g4341
sg3934
S'NP5'
p4360
sg3936
I-1
sg38
I5
sg3937
(lp4361
sbsg4313
(issf_api
Node
p4362
(dp4363
g3931
S'k2'
p4364
sg3933
g4313
sg3934
S'VGNN'
p4365
sg3936
I-1
sg38
I9
sg3937
(lp4366
sbsg4306
(issf_api
Node
p4367
(dp4368
g3931
S'k2'
p4369
sg3933
g4306
sg3934
S'VGNF'
p4370
sg3936
I-1
sg38
I7
sg3937
(lp4371
sbsg4334
(issf_api
Node
p4372
(dp4373
g3931
S'k7t'
p4374
sg3933
g4334
sg3934
S'VGF2'
p4375
sg3936
I-1
sg38
I4
sg3937
(lp4376
sbsg4335
(issf_api
Node
p4377
(dp4378
g3931
S'k1'
p4379
sg3933
g4335
sg3934
S'VGF2'
p4380
sg3936
I-1
sg38
I3
sg3937
(lp4381
sbssg4046
(lp4382
(issf_api
Chunk
p4383
(dp4384
g3933
g972
sg38
I0
sg4050
g979
sg39
I2
sg3924
(lp4385
I45
aI46
aI47
asg44
(issf_api
FeatureSet
p4386
(dp4387
g12
(dp4388
S'name'
p4389
g4320
sS'drel'
p4390
S'k1:VGF'
p4391
ssbsba(issf_api
Chunk
p4392
(dp4393
g3933
g1010
sg38
I1
sg4050
g1017
sg39
I2
sg3924
(lp4394
I48
asg44
(issf_api
FeatureSet
p4395
(dp4396
g12
(dp4397
S'name'
p4398
g4314
ssbsba(issf_api
Chunk
p4399
(dp4400
g3933
g1031
sg38
I2
sg4050
g1036
sg39
I2
sg3924
(lp4401
I49
asg44
(issf_api
FeatureSet
p4402
(dp4403
g12
(dp4404
S'name'
p4405
g4318
sS'drel'
p4406
S'k2:VGF'
p4407
ssbsba(issf_api
Chunk
p4408
(dp4409
g3933
g1050
sg38
I3
sg4050
g1055
sg39
I2
sg3924
(lp4410
I50
asg44
(issf_api
FeatureSet
p4411
(dp4412
g12
(dp4413
S'name'
p4414
g4335
sS'drel'
p4415
S'k1:VGF2'
p4416
ssbsba(issf_api
Chunk
p4417
(dp4418
g3933
g1086
sg38
I4
sg4050
g1093
sg39
I2
sg3924
(lp4419
I51
aI52
aI53
asg44
(issf_api
FeatureSet
p4420
(dp4421
g12
(dp4422
S'name'
p4423
g4334
sS'drel'
p4424
S'k7t:VGF2'
p4425
ssbsba(issf_api
Chunk
p4426
(dp4427
g3933
g1149
sg38
I5
sg4050
g1162
sg39
I2
sg3924
(lp4428
I54
aI55
aI56
asg44
(issf_api
FeatureSet
p4429
(dp4430
g12
(dp4431
S'name'
p4432
g4341
sS'drel'
p4433
S'r6:NP5'
p4434
ssbsba(issf_api
Chunk
p4435
(dp4436
g3933
g1195
sg38
I6
sg4050
g1208
sg39
I2
sg3924
(lp4437
I57
aI58
aI59
aI60
asg44
(issf_api
FeatureSet
p4438
(dp4439
g12
(dp4440
S'name'
p4441
g4332
sS'drel'
p4442
S'k7a:VGF2'
p4443
ssbsba(issf_api
Chunk
p4444
(dp4445
g3933
g1275
sg38
I7
sg4050
g1286
sg39
I2
sg3924
(lp4446
I61
asg44
(issf_api
FeatureSet
p4447
(dp4448
g12
(dp4449
S'name'
p4450
g4306
sS'drel'
p4451
S'k2:VGNF'
p4452
ssbsba(issf_api
Chunk
p4453
(dp4454
g3933
g1300
sg38
I8
sg4050
g1309
sg39
I2
sg3924
(lp4455
I62
aI63
asg44
(issf_api
FeatureSet
p4456
(dp4457
g12
(dp4458
S'name'
p4459
g4300
sS'drel'
p4460
S'vmod:VGF2'
p4461
ssbsba(issf_api
Chunk
p4462
(dp4463
g3933
g1344
sg38
I9
sg4050
g1355
sg39
I2
sg3924
(lp4464
I64
asg44
(issf_api
FeatureSet
p4465
(dp4466
g12
(dp4467
S'name'
p4468
g4313
sS'drel'
p4469
S'k2:VGNN'
p4470
ssbsba(issf_api
Chunk
p4471
(dp4472
g3933
g1371
sg38
I10
sg4050
g1380
sg39
I2
sg3924
(lp4473
I65
aI66
asg44
(issf_api
FeatureSet
p4474
(dp4475
g12
(dp4476
S'name'
p4477
g4307
sS'drel'
p4478
S'r6-k2:NP8'
p4479
ssbsba(issf_api
Chunk
p4480
(dp4481
g3933
g1413
sg38
I11
sg4050
g1424
sg39
I2
sg3924
(lp4482
I67
asg44
(issf_api
FeatureSet
p4483
(dp4484
g12
(dp4485
S'name'
p4486
g4333
sS'drel'
p4487
S'pof:VGF2'
p4488
ssbsba(issf_api
Chunk
p4489
(dp4490
g3933
g1438
sg38
I12
sg4050
g1449
sg39
I2
sg3924
(lp4491
I68
aI69
aI70
asg44
(issf_api
FeatureSet
p4492
(dp4493
g12
(dp4494
S'name'
p4495
g4326
sS'drel'
p4496
S'ccof:CCP'
p4497
ssbsba(issf_api
Chunk
p4498
(dp4499
g3933
g1497
sg38
I13
sg4050
g1502
sg39
I2
sg3924
(lp4500
I71
asg44
(issf_api
FeatureSet
p4501
(dp4502
g12
(dp4503
S'name'
p4504
g4319
sS'drel'
p4505
S'rsym:VGF'
p4506
ssbsbasba(issf_api
Sentence
p4507
(dp4508
g3922
(lp4509
sg39
I3
sg3924
(lp4510
I72
aI73
aI74
aI75
aI76
aI77
aI78
aI79
aI80
aI81
aI82
aI83
aI84
aI85
aI86
aI87
aI88
aI89
aI90
aI91
aI92
aI93
aI94
aI95
aI96
aI97
aI98
aI99
aI100
aI101
aI102
aI103
aI104
aI105
aI106
aI107
aI108
aI109
aI110
aI111
aI112
aI113
aI114
asg3926
(dp4511
S'CCP'
p4512
(issf_api
Node
p4513
(dp4514
g3931
g3959
sg3933
g4512
sg3934
g3959
sg3936
I-1
sg38
I11
sg3937
(lp4515
S'VGF2'
p4516
aS'VGF'
p4517
aS'BLK'
p4518
asbsg4516
(issf_api
Node
p4519
(dp4520
g3931
S'ccof'
p4521
sg3933
g4516
sg3934
S'CCP'
p4522
sg3936
I-1
sg38
I21
sg3937
(lp4523
S'NP15'
p4524
asbsS'NP9'
p4525
(issf_api
Node
p4526
(dp4527
g3931
S'ccof'
p4528
sg3933
g4525
sg3934
S'NULL__CCP'
p4529
sg3936
I-1
sg38
I13
sg3937
(lp4530
sbsS'NP8'
p4531
(issf_api
Node
p4532
(dp4533
g3931
S'ccof'
p4534
sg3933
g4531
sg3934
S'NULL__CCP'
p4535
sg3936
I-1
sg38
I12
sg3937
(lp4536
sbsS'NP5'
p4537
(issf_api
Node
p4538
(dp4539
g3931
S'k1'
p4540
sg3933
g4537
sg3934
S'VGF'
p4541
sg3936
I-1
sg38
I5
sg3937
(lp4542
S'NP4'
p4543
asbsg4543
(issf_api
Node
p4544
(dp4545
g3931
S'nmod'
p4546
sg3933
g4543
sg3934
S'NP5'
p4547
sg3936
I-1
sg38
I4
sg3937
(lp4548
S'NP3'
p4549
asbsS'NP7'
p4550
(issf_api
Node
p4551
(dp4552
g3931
S'k7p'
p4553
sg3933
g4550
sg3934
S'VGF'
p4554
sg3936
I-1
sg38
I8
sg3937
(lp4555
sbsS'NP6'
p4556
(issf_api
Node
p4557
(dp4558
g3931
S'k2'
p4559
sg3933
g4556
sg3934
S'VGNF2'
p4560
sg3936
I-1
sg38
I6
sg3937
(lp4561
sbsg4549
(issf_api
Node
p4562
(dp4563
g3931
S'r6'
p4564
sg3933
g4549
sg3934
S'NP4'
p4565
sg3936
I-1
sg38
I3
sg3937
(lp4566
S'VGNF'
p4567
asbsS'NP2'
p4568
(issf_api
Node
p4569
(dp4570
g3931
S'k5'
p4571
sg3933
g4568
sg3934
S'VGNF'
p4572
sg3936
I-1
sg38
I1
sg3937
(lp4573
sbsS'NP11'
p4574
(issf_api
Node
p4575
(dp4576
g3931
S'ccof'
p4577
sg3933
g4574
sg3934
S'NULL__CCP'
p4578
sg3936
I-1
sg38
I15
sg3937
(lp4579
sbsS'NP10'
p4580
(issf_api
Node
p4581
(dp4582
g3931
S'ccof'
p4583
sg3933
g4580
sg3934
S'NULL__CCP'
p4584
sg3936
I-1
sg38
I14
sg3937
(lp4585
sbsS'NP13'
p4586
(issf_api
Node
p4587
(dp4588
g3931
S'ccof'
p4589
sg3933
g4586
sg3934
S'NULL__CCP'
p4590
sg3936
I-1
sg38
I17
sg3937
(lp4591
S'NP12'
p4592
asbsg4592
(issf_api
Node
p4593
(dp4594
g3931
S'r6'
p4595
sg3933
g4592
sg3934
S'NP13'
p4596
sg3936
I-1
sg38
I16
sg3937
(lp4597
sbsg4524
(issf_api
Node
p4598
(dp4599
g3931
S'pof'
p4600
sg3933
g4524
sg3934
S'VGF2'
p4601
sg3936
I-1
sg38
I20
sg3937
(lp4602
S'VGNN'
p4603
asbsS'NP14'
p4604
(issf_api
Node
p4605
(dp4606
g3931
S'k2'
p4607
sg3933
g4604
sg3934
S'VGNN'
p4608
sg3936
I-1
sg38
I18
sg3937
(lp4609
sbsS'VGNF2'
p4610
(issf_api
Node
p4611
(dp4612
g3931
S'vmod'
p4613
sg3933
g4610
sg3934
S'VGF'
p4614
sg3936
I-1
sg38
I7
sg3937
(lp4615
g4556
asbsg4567
(issf_api
Node
p4616
(dp4617
g3931
S'nmod__k1inv'
p4618
sg3933
g4567
sg3934
S'NP3'
p4619
sg3936
I-1
sg38
I2
sg3937
(lp4620
g4568
asbsS'NULL__CCP'
p4621
(issf_api
Node
p4622
(dp4623
g3931
S'k7p'
p4624
sg3933
g4621
sg3934
S'VGNN'
p4625
sg3936
I-1
sg38
I-1
sg3937
(lp4626
g4525
ag4531
ag4574
ag4580
ag4586
asbsg4603
(issf_api
Node
p4627
(dp4628
g3931
S'r6-k2'
p4629
sg3933
g4603
sg3934
S'NP15'
p4630
sg3936
I-1
sg38
I19
sg3937
(lp4631
g4604
ag4621
asbsg4517
(issf_api
Node
p4632
(dp4633
g3931
S'ccof'
p4634
sg3933
g4517
sg3934
S'CCP'
p4635
sg3936
I-1
sg38
I10
sg3937
(lp4636
g4537
ag4550
ag4610
aS'NP'
p4637
aS'JJP'
p4638
asbsg4637
(issf_api
Node
p4639
(dp4640
g3931
S'k7a'
p4641
sg3933
g4637
sg3934
S'VGF'
p4642
sg3936
I-1
sg38
I0
sg3937
(lp4643
sbsg4518
(issf_api
Node
p4644
(dp4645
g3931
S'rsym'
p4646
sg3933
g4518
sg3934
S'CCP'
p4647
sg3936
I-1
sg38
I22
sg3937
(lp4648
sbsg4638
(issf_api
Node
p4649
(dp4650
g3931
S'adv'
p4651
sg3933
g4638
sg3934
S'VGF'
p4652
sg3936
I-1
sg38
I9
sg3937
(lp4653
sbssg4046
(lp4654
(issf_api
Chunk
p4655
(dp4656
g3933
g1533
sg38
I0
sg4050
g1540
sg39
I3
sg3924
(lp4657
I72
aI73
aI74
aI75
asg44
(issf_api
FeatureSet
p4658
(dp4659
g12
(dp4660
S'name'
p4661
g4637
sS'drel'
p4662
S'k7a:VGF'
p4663
ssbsba(issf_api
Chunk
p4664
(dp4665
g3933
g1605
sg38
I1
sg4050
g1612
sg39
I3
sg3924
(lp4666
I76
aI77
aI78
asg44
(issf_api
FeatureSet
p4667
(dp4668
g12
(dp4669
S'name'
p4670
g4568
sS'drel'
p4671
S'k5:VGNF'
p4672
ssbsba(issf_api
Chunk
p4673
(dp4674
g3933
g1643
sg38
I2
sg4050
g1648
sg39
I3
sg3924
(lp4675
I79
asg44
(issf_api
FeatureSet
p4676
(dp4677
g12
(dp4678
S'name'
p4679
g4567
sS'drel'
p4680
S'nmod__k1inv:NP3'
p4681
ssbsba(issf_api
Chunk
p4682
(dp4683
g3933
g1662
sg38
I3
sg4050
g1669
sg39
I3
sg3924
(lp4684
I80
aI81
asg44
(issf_api
FeatureSet
p4685
(dp4686
g12
(dp4687
S'name'
p4688
g4549
sS'drel'
p4689
S'r6:NP4'
p4690
ssbsba(issf_api
Chunk
p4691
(dp4692
g3933
g1700
sg38
I4
sg4050
g1707
sg39
I3
sg3924
(lp4693
I82
aI83
asg44
(issf_api
FeatureSet
p4694
(dp4695
g12
(dp4696
S'name'
p4697
g4543
sS'drel'
p4698
S'nmod:NP5'
p4699
ssbsba(issf_api
Chunk
p4700
(dp4701
g3933
g1738
sg38
I5
sg4050
g1743
sg39
I3
sg3924
(lp4702
I84
asg44
(issf_api
FeatureSet
p4703
(dp4704
g12
(dp4705
S'name'
p4706
g4537
sS'drel'
p4707
S'k1:VGF'
p4708
ssbsba(issf_api
Chunk
p4709
(dp4710
g3933
g1759
sg38
I6
sg4050
g1768
sg39
I3
sg3924
(lp4711
I85
asg44
(issf_api
FeatureSet
p4712
(dp4713
g12
(dp4714
S'name'
p4715
g4556
sS'drel'
p4716
S'k2:VGNF2'
p4717
ssbsba(issf_api
Chunk
p4718
(dp4719
g3933
g1782
sg38
I7
sg4050
g1789
sg39
I3
sg3924
(lp4720
I86
aI87
asg44
(issf_api
FeatureSet
p4721
(dp4722
g12
(dp4723
S'name'
p4724
g4610
sS'drel'
p4725
S'vmod:VGF'
p4726
ssbsba(issf_api
Chunk
p4727
(dp4728
g3933
g1822
sg38
I8
sg4050
g1833
sg39
I3
sg3924
(lp4729
I88
aI89
asg44
(issf_api
FeatureSet
p4730
(dp4731
g12
(dp4732
S'name'
p4733
g4550
sS'drel'
p4734
S'k7p:VGF'
p4735
ssbsba(issf_api
Chunk
p4736
(dp4737
g3933
g1864
sg38
I9
sg4050
g1869
sg39
I3
sg3924
(lp4738
I90
asg44
(issf_api
FeatureSet
p4739
(dp4740
g12
(dp4741
S'name'
p4742
g4638
sS'drel'
p4743
S'adv:VGF'
p4744
ssbsba(issf_api
Chunk
p4745
(dp4746
g3933
g1883
sg38
I10
sg4050
g1894
sg39
I3
sg3924
(lp4747
I91
aI92
asg44
(issf_api
FeatureSet
p4748
(dp4749
g12
(dp4750
S'name'
p4751
g4517
sS'drel'
p4752
S'ccof:CCP'
p4753
ssbsba(issf_api
Chunk
p4754
(dp4755
g3933
g1921
sg38
I11
sg4050
g1928
sg39
I3
sg3924
(lp4756
I93
asg44
(issf_api
FeatureSet
p4757
(dp4758
g12
(dp4759
S'name'
p4760
g4512
ssbsba(issf_api
Chunk
p4761
(dp4762
g3933
g1944
sg38
I12
sg4050
g1953
sg39
I3
sg3924
(lp4763
I94
aI95
asg44
(issf_api
FeatureSet
p4764
(dp4765
g12
(dp4766
S'name'
p4767
g4531
sS'drel'
p4768
S'ccof:NULL__CCP'
p4769
ssbsba(issf_api
Chunk
p4770
(dp4771
g3933
g1984
sg38
I13
sg4050
g1989
sg39
I3
sg3924
(lp4772
I96
aI97
asg44
(issf_api
FeatureSet
p4773
(dp4774
g12
(dp4775
S'name'
p4776
g4525
sS'drel'
p4777
S'ccof:NULL__CCP'
p4778
ssbsba(issf_api
Chunk
p4779
(dp4780
g3933
g2020
sg38
I14
sg4050
g2025
sg39
I3
sg3924
(lp4781
I98
aI99
asg44
(issf_api
FeatureSet
p4782
(dp4783
g12
(dp4784
S'name'
p4785
g4580
sS'drel'
p4786
S'ccof:NULL__CCP'
p4787
ssbsba(issf_api
Chunk
p4788
(dp4789
g3933
g2056
sg38
I15
sg4050
g2063
sg39
I3
sg3924
(lp4790
I100
aI101
asg44
(issf_api
FeatureSet
p4791
(dp4792
g12
(dp4793
S'name'
p4794
g4574
sS'drel'
p4795
S'ccof:NULL__CCP'
p4796
ssbsba(issf_api
Chunk
p4797
(dp4798
g3933
g2096
sg38
I16
sg4050
g2107
sg39
I3
sg3924
(lp4799
I102
aI103
asg44
(issf_api
FeatureSet
p4800
(dp4801
g12
(dp4802
S'name'
p4803
g4592
sS'drel'
p4804
S'r6:NP13'
p4805
ssbsba(issf_api
Chunk
p4806
(dp4807
g3933
g2155
sg38
I17
sg4050
g2162
sg39
I3
sg3924
(lp4808
I104
aI105
aI106
asg44
(issf_api
FeatureSet
p4809
(dp4810
g12
(dp4811
S'name'
p4812
g4586
sS'drel'
p4813
S'ccof:NULL__CCP'
p4814
ssbsba(issf_api
Chunk
p4815
(dp4816
g3933
g2210
sg38
I18
sg4050
g2215
sg39
I3
sg3924
(lp4817
I107
aI108
asg44
(issf_api
FeatureSet
p4818
(dp4819
g12
(dp4820
S'name'
p4821
g4604
sS'drel'
p4822
S'k2:VGNN'
p4823
ssbsba(issf_api
Chunk
p4824
(dp4825
g3933
g2229
sg38
I19
sg4050
g2236
sg39
I3
sg3924
(lp4826
I109
aI110
asg44
(issf_api
FeatureSet
p4827
(dp4828
g12
(dp4829
S'name'
p4830
g4603
sS'drel'
p4831
S'r6-k2:NP15'
p4832
ssbsba(issf_api
Chunk
p4833
(dp4834
g3933
g2267
sg38
I20
sg4050
g2272
sg39
I3
sg3924
(lp4835
I111
asg44
(issf_api
FeatureSet
p4836
(dp4837
g12
(dp4838
S'name'
p4839
g4524
sS'drel'
p4840
S'pof:VGF2'
p4841
ssbsba(issf_api
Chunk
p4842
(dp4843
g3933
g2286
sg38
I21
sg4050
g2297
sg39
I3
sg3924
(lp4844
I112
aI113
asg44
(issf_api
FeatureSet
p4845
(dp4846
g12
(dp4847
S'name'
p4848
g4516
sS'drel'
p4849
S'ccof:CCP'
p4850
ssbsba(issf_api
Chunk
p4851
(dp4852
g3933
g2328
sg38
I22
sg4050
g2333
sg39
I3
sg3924
(lp4853
I114
asg44
(issf_api
FeatureSet
p4854
(dp4855
g12
(dp4856
S'name'
p4857
g4518
sS'drel'
p4858
S'rsym:CCP'
p4859
ssbsbasba(issf_api
Sentence
p4860
(dp4861
g3922
(lp4862
sg39
I4
sg3924
(lp4863
I115
aI116
aI117
aI118
aI119
aI120
aI121
aI122
aI123
aI124
aI125
aI126
aI127
aI128
aI129
aI130
aI131
aI132
aI133
aI134
aI135
aI136
aI137
aI138
aI139
aI140
aI141
asg3926
(dp4864
S'VGNF'
p4865
(issf_api
Node
p4866
(dp4867
g3931
S'nmod__k2inv'
p4868
sg3933
g4865
sg3934
S'NP'
p4869
sg3936
I-1
sg38
I0
sg3937
(lp4870
sbsS'VGNN'
p4871
(issf_api
Node
p4872
(dp4873
g3931
S'rt'
p4874
sg3933
g4871
sg3934
S'VGF'
p4875
sg3936
I-1
sg38
I4
sg3937
(lp4876
S'JJP'
p4877
aS'NP2'
p4878
asbsS'VGF'
p4879
(issf_api
Node
p4880
(dp4881
g3931
S'ccof'
p4882
sg3933
g4879
sg3934
S'CCP'
p4883
sg3936
I-1
sg38
I8
sg3937
(lp4884
g4871
aS'NP5'
p4885
aS'NP'
p4886
aS'NP3'
p4887
asbsS'CCP'
p4888
(issf_api
Node
p4889
(dp4890
g3931
g3959
sg3933
g4888
sg3934
g3959
sg3936
I-1
sg38
I9
sg3937
(lp4891
g4879
aS'VGF2'
p4892
aS'BLK'
p4893
asbsg4877
(issf_api
Node
p4894
(dp4895
g3931
S'pof'
p4896
sg3933
g4877
sg3934
S'VGNN'
p4897
sg3936
I-1
sg38
I3
sg3937
(lp4898
sbsg4892
(issf_api
Node
p4899
(dp4900
g3931
S'ccof'
p4901
sg3933
g4892
sg3934
S'CCP'
p4902
sg3936
I-1
sg38
I13
sg3937
(lp4903
S'NP8'
p4904
aS'NP6'
p4905
asbsg4885
(issf_api
Node
p4906
(dp4907
g3931
S'k2'
p4908
sg3933
g4885
sg3934
S'VGF'
p4909
sg3936
I-1
sg38
I7
sg3937
(lp4910
S'NP4'
p4911
asbsg4904
(issf_api
Node
p4912
(dp4913
g3931
S'k2'
p4914
sg3933
g4904
sg3934
S'VGF2'
p4915
sg3936
I-1
sg38
I12
sg3937
(lp4916
S'NP7'
p4917
asbsg4893
(issf_api
Node
p4918
(dp4919
g3931
S'rsym'
p4920
sg3933
g4893
sg3934
S'CCP'
p4921
sg3936
I-1
sg38
I14
sg3937
(lp4922
sbsg4886
(issf_api
Node
p4923
(dp4924
g3931
S'k7t'
p4925
sg3933
g4886
sg3934
S'VGF'
p4926
sg3936
I-1
sg38
I1
sg3937
(lp4927
g4865
asbsg4911
(issf_api
Node
p4928
(dp4929
g3931
S'r6'
p4930
sg3933
g4911
sg3934
S'NP5'
p4931
sg3936
I-1
sg38
I6
sg3937
(lp4932
sbsg4917
(issf_api
Node
p4933
(dp4934
g3931
S'r6'
p4935
sg3933
g4917
sg3934
S'NP8'
p4936
sg3936
I-1
sg38
I11
sg3937
(lp4937
sbsg4905
(issf_api
Node
p4938
(dp4939
g3931
S'k7'
p4940
sg3933
g4905
sg3934
S'VGF2'
p4941
sg3936
I-1
sg38
I10
sg3937
(lp4942
sbsg4887
(issf_api
Node
p4943
(dp4944
g3931
S'k1'
p4945
sg3933
g4887
sg3934
S'VGF'
p4946
sg3936
I-1
sg38
I5
sg3937
(lp4947
sbsg4878
(issf_api
Node
p4948
(dp4949
g3931
S'k2'
p4950
sg3933
g4878
sg3934
S'VGNN'
p4951
sg3936
I-1
sg38
I2
sg3937
(lp4952
sbssg4046
(lp4953
(issf_api
Chunk
p4954
(dp4955
g3933
g2347
sg38
I0
sg4050
g2352
sg39
I4
sg3924
(lp4956
I115
asg44
(issf_api
FeatureSet
p4957
(dp4958
g12
(dp4959
S'name'
p4960
g4865
sS'drel'
p4961
S'nmod__k2inv:NP'
p4962
ssbsba(issf_api
Chunk
p4963
(dp4964
g3933
g2368
sg38
I1
sg4050
g2379
sg39
I4
sg3924
(lp4965
I116
aI117
aI118
asg44
(issf_api
FeatureSet
p4966
(dp4967
g12
(dp4968
S'name'
p4969
g4886
sS'drel'
p4970
S'k7t:VGF'
p4971
ssbsba(issf_api
Chunk
p4972
(dp4973
g3933
g2427
sg38
I2
sg4050
g2434
sg39
I4
sg3924
(lp4974
I119
aI120
asg44
(issf_api
FeatureSet
p4975
(dp4976
g12
(dp4977
S'name'
p4978
g4878
sS'drel'
p4979
S'k2:VGNN'
p4980
ssbsba(issf_api
Chunk
p4981
(dp4982
g3933
g2499
sg38
I3
sg4050
g2504
sg39
I4
sg3924
(lp4983
I121
aI122
aI123
asg44
(issf_api
FeatureSet
p4984
(dp4985
g12
(dp4986
S'name'
p4987
g4877
sS'drel'
p4988
S'pof:VGNN'
p4989
ssbsba(issf_api
Chunk
p4990
(dp4991
g3933
g2518
sg38
I4
sg4050
g2525
sg39
I4
sg3924
(lp4992
I124
aI125
aI126
asg44
(issf_api
FeatureSet
p4993
(dp4994
g12
(dp4995
S'name'
p4996
g4871
sS'drel'
p4997
S'rt:VGF'
p4998
ssbsba(issf_api
Chunk
p4999
(dp5000
g3933
g2575
sg38
I5
sg4050
g2586
sg39
I4
sg3924
(lp5001
I127
aI128
asg44
(issf_api
FeatureSet
p5002
(dp5003
g12
(dp5004
S'name'
p5005
g4887
sS'drel'
p5006
S'k1:VGF'
p5007
ssbsba(issf_api
Chunk
p5008
(dp5009
g3933
g2636
sg38
I6
sg4050
g2645
sg39
I4
sg3924
(lp5010
I129
aI130
aI131
asg44
(issf_api
FeatureSet
p5011
(dp5012
g12
(dp5013
S'name'
p5014
g4911
sS'drel'
p5015
S'r6:NP5'
p5016
ssbsba(issf_api
Chunk
p5017
(dp5018
g3933
g2678
sg38
I7
sg4050
g2685
sg39
I4
sg3924
(lp5019
I132
asg44
(issf_api
FeatureSet
p5020
(dp5021
g12
(dp5022
S'name'
p5023
g4885
sS'drel'
p5024
S'k2:VGF'
p5025
ssbsba(issf_api
Chunk
p5026
(dp5027
g3933
g2699
sg38
I8
sg4050
g2710
sg39
I4
sg3924
(lp5028
I133
asg44
(issf_api
FeatureSet
p5029
(dp5030
g12
(dp5031
S'name'
p5032
g4879
sS'drel'
p5033
S'ccof:CCP'
p5034
ssbsba(issf_api
Chunk
p5035
(dp5036
g3933
g2724
sg38
I9
sg4050
g2729
sg39
I4
sg3924
(lp5037
I134
asg44
(issf_api
FeatureSet
p5038
(dp5039
g12
(dp5040
S'name'
p5041
g4888
ssbsba(issf_api
Chunk
p5042
(dp5043
g3933
g2743
sg38
I10
sg4050
g2752
sg39
I4
sg3924
(lp5044
I135
aI136
asg44
(issf_api
FeatureSet
p5045
(dp5046
g12
(dp5047
S'name'
p5048
g4905
sS'drel'
p5049
S'k7:VGF2'
p5050
ssbsba(issf_api
Chunk
p5051
(dp5052
g3933
g2785
sg38
I11
sg4050
g2794
sg39
I4
sg3924
(lp5053
I137
aI138
asg44
(issf_api
FeatureSet
p5054
(dp5055
g12
(dp5056
S'name'
p5057
g4917
sS'drel'
p5058
S'r6:NP8'
p5059
ssbsba(issf_api
Chunk
p5060
(dp5061
g3933
g2827
sg38
I12
sg4050
g2834
sg39
I4
sg3924
(lp5062
I139
asg44
(issf_api
FeatureSet
p5063
(dp5064
g12
(dp5065
S'name'
p5066
g4904
sS'drel'
p5067
S'k2:VGF2'
p5068
ssbsba(issf_api
Chunk
p5069
(dp5070
g3933
g2850
sg38
I13
sg4050
g2863
sg39
I4
sg3924
(lp5071
I140
asg44
(issf_api
FeatureSet
p5072
(dp5073
g12
(dp5074
S'name'
p5075
g4892
sS'drel'
p5076
S'ccof:CCP'
p5077
ssbsba(issf_api
Chunk
p5078
(dp5079
g3933
g2877
sg38
I14
sg4050
g2882
sg39
I4
sg3924
(lp5080
I141
asg44
(issf_api
FeatureSet
p5081
(dp5082
g12
(dp5083
S'name'
p5084
g4893
sS'drel'
p5085
S'rsym:CCP'
p5086
ssbsbasba(issf_api
Sentence
p5087
(dp5088
g3922
(lp5089
sg39
I5
sg3924
(lp5090
I142
aI143
aI144
aI145
aI146
aI147
aI148
asg3926
(dp5091
S'NP'
p5092
(issf_api
Node
p5093
(dp5094
g3931
S'rh'
p5095
sg3933
g5092
sg3934
S'VGF'
p5096
sg3936
I-1
sg38
I0
sg3937
(lp5097
sbsS'VGF'
p5098
(issf_api
Node
p5099
(dp5100
g3931
g3959
sg3933
g5098
sg3934
g3959
sg3936
I-1
sg38
I3
sg3937
(lp5101
g5092
aS'JJP'
p5102
aS'BLK'
p5103
aS'NP2'
p5104
asbsg5102
(issf_api
Node
p5105
(dp5106
g3931
S'pof'
p5107
sg3933
g5102
sg3934
S'VGF'
p5108
sg3936
I-1
sg38
I2
sg3937
(lp5109
sbsg5103
(issf_api
Node
p5110
(dp5111
g3931
S'rsym'
p5112
sg3933
g5103
sg3934
S'VGF'
p5113
sg3936
I-1
sg38
I4
sg3937
(lp5114
sbsg5104
(issf_api
Node
p5115
(dp5116
g3931
S'k1'
p5117
sg3933
g5104
sg3934
S'VGF'
p5118
sg3936
I-1
sg38
I1
sg3937
(lp5119
sbssg4046
(lp5120
(issf_api
Chunk
p5121
(dp5122
g3933
g2898
sg38
I0
sg4050
g2907
sg39
I5
sg3924
(lp5123
I142
asg44
(issf_api
FeatureSet
p5124
(dp5125
g12
(dp5126
S'name'
p5127
g5092
sS'drel'
p5128
S'rh:VGF'
p5129
ssbsba(issf_api
Chunk
p5130
(dp5131
g3933
g2942
sg38
I1
sg4050
g2951
sg39
I5
sg3924
(lp5132
I143
aI144
asg44
(issf_api
FeatureSet
p5133
(dp5134
g12
(dp5135
S'name'
p5136
g5104
sS'drel'
p5137
S'k1:VGF'
p5138
ssbsba(issf_api
Chunk
p5139
(dp5140
g3933
g2965
sg38
I2
sg4050
g2970
sg39
I5
sg3924
(lp5141
I145
asg44
(issf_api
FeatureSet
p5142
(dp5143
g12
(dp5144
S'name'
p5145
g5102
sS'drel'
p5146
S'pof:VGF'
p5147
ssbsba(issf_api
Chunk
p5148
(dp5149
g3933
g2984
sg38
I3
sg4050
g2993
sg39
I5
sg3924
(lp5150
I146
aI147
asg44
(issf_api
FeatureSet
p5151
(dp5152
g12
(dp5153
S'name'
p5154
g5098
ssbsba(issf_api
Chunk
p5155
(dp5156
g3933
g3024
sg38
I4
sg4050
g3029
sg39
I5
sg3924
(lp5157
I148
asg44
(issf_api
FeatureSet
p5158
(dp5159
g12
(dp5160
S'name'
p5161
g5103
sS'drel'
p5162
S'rsym:VGF'
p5163
ssbsbasba(issf_api
Sentence
p5164
(dp5165
g3922
(lp5166
sg39
I6
sg3924
(lp5167
I149
aI150
aI151
aI152
aI153
aI154
aI155
aI156
aI157
aI158
aI159
aI160
aI161
aI162
aI163
aI164
aI165
aI166
aI167
aI168
aI169
aI170
aI171
asg3926
(dp5168
S'VGF'
p5169
(issf_api
Node
p5170
(dp5171
g3931
g3959
sg3933
g5169
sg3934
g3959
sg3936
I-1
sg38
I9
sg3937
(lp5172
S'CCP'
p5173
aS'JJP'
p5174
aS'BLK'
p5175
aS'NP7'
p5176
aS'NP2'
p5177
asbsg5173
(issf_api
Node
p5178
(dp5179
g3931
S'k2'
p5180
sg3933
g5173
sg3934
S'VGF'
p5181
sg3936
I-1
sg38
I4
sg3937
(lp5182
S'NP4'
p5183
aS'NP6'
p5184
asbsg5174
(issf_api
Node
p5185
(dp5186
g3931
S'pof'
p5187
sg3933
g5174
sg3934
S'VGF'
p5188
sg3936
I-1
sg38
I8
sg3937
(lp5189
sbsS'NP5'
p5190
(issf_api
Node
p5191
(dp5192
g3931
S'nmod'
p5193
sg3933
g5190
sg3934
S'NP6'
p5194
sg3936
I-1
sg38
I5
sg3937
(lp5195
sbsg5175
(issf_api
Node
p5196
(dp5197
g3931
S'rsym'
p5198
sg3933
g5175
sg3934
S'VGF'
p5199
sg3936
I-1
sg38
I10
sg3937
(lp5200
sbsS'NP'
p5201
(issf_api
Node
p5202
(dp5203
g3931
S'r6'
p5204
sg3933
g5201
sg3934
S'NP2'
p5205
sg3936
I-1
sg38
I0
sg3937
(lp5206
sbsg5183
(issf_api
Node
p5207
(dp5208
g3931
S'ccof'
p5209
sg3933
g5183
sg3934
S'CCP'
p5210
sg3936
I-1
sg38
I3
sg3937
(lp5211
S'NP3'
p5212
asbsg5176
(issf_api
Node
p5213
(dp5214
g3931
S'adv'
p5215
sg3933
g5176
sg3934
S'VGF'
p5216
sg3936
I-1
sg38
I7
sg3937
(lp5217
sbsg5184
(issf_api
Node
p5218
(dp5219
g3931
S'ccof'
p5220
sg3933
g5184
sg3934
S'CCP'
p5221
sg3936
I-1
sg38
I6
sg3937
(lp5222
g5190
asbsg5212
(issf_api
Node
p5223
(dp5224
g3931
S'nmod'
p5225
sg3933
g5212
sg3934
S'NP4'
p5226
sg3936
I-1
sg38
I2
sg3937
(lp5227
sbsg5177
(issf_api
Node
p5228
(dp5229
g3931
S'k7'
p5230
sg3933
g5177
sg3934
S'VGF'
p5231
sg3936
I-1
sg38
I1
sg3937
(lp5232
g5201
asbssg4046
(lp5233
(issf_api
Chunk
p5234
(dp5235
g3933
g3047
sg38
I0
sg4050
g3060
sg39
I6
sg3924
(lp5236
I149
aI150
asg44
(issf_api
FeatureSet
p5237
(dp5238
g12
(dp5239
S'name'
p5240
g5201
sS'drel'
p5241
S'r6:NP2'
p5242
ssbsba(issf_api
Chunk
p5243
(dp5244
g3933
g3112
sg38
I1
sg4050
g3125
sg39
I6
sg3924
(lp5245
I151
aI152
aI153
asg44
(issf_api
FeatureSet
p5246
(dp5247
g12
(dp5248
S'name'
p5249
g5177
sS'drel'
p5250
S'k7:VGF'
p5251
ssbsba(issf_api
Chunk
p5252
(dp5253
g3933
g3173
sg38
I2
sg4050
g3180
sg39
I6
sg3924
(lp5254
I154
aI155
aI156
asg44
(issf_api
FeatureSet
p5255
(dp5256
g12
(dp5257
S'name'
p5258
g5212
sS'drel'
p5259
S'nmod:NP4'
p5260
ssbsba(issf_api
Chunk
p5261
(dp5262
g3933
g3228
sg38
I3
sg4050
g3233
sg39
I6
sg3924
(lp5263
I157
aI158
asg44
(issf_api
FeatureSet
p5264
(dp5265
g12
(dp5266
S'name'
p5267
g5183
sS'drel'
p5268
S'ccof:CCP'
p5269
ssbsba(issf_api
Chunk
p5270
(dp5271
g3933
g3247
sg38
I4
sg4050
g3252
sg39
I6
sg3924
(lp5272
I159
asg44
(issf_api
FeatureSet
p5273
(dp5274
g12
(dp5275
S'name'
p5276
g5173
sS'drel'
p5277
S'k2:VGF'
p5278
ssbsba(issf_api
Chunk
p5279
(dp5280
g3933
g3287
sg38
I5
sg4050
g3298
sg39
I6
sg3924
(lp5281
I160
aI161
aI162
asg44
(issf_api
FeatureSet
p5282
(dp5283
g12
(dp5284
S'name'
p5285
g5190
sS'drel'
p5286
S'nmod:NP6'
p5287
ssbsba(issf_api
Chunk
p5288
(dp5289
g3933
g3346
sg38
I6
sg4050
g3351
sg39
I6
sg3924
(lp5290
I163
aI164
asg44
(issf_api
FeatureSet
p5291
(dp5292
g12
(dp5293
S'name'
p5294
g5184
sS'drel'
p5295
S'ccof:CCP'
p5296
ssbsba(issf_api
Chunk
p5297
(dp5298
g3933
g3382
sg38
I7
sg4050
g3389
sg39
I6
sg3924
(lp5299
I165
aI166
aI167
asg44
(issf_api
FeatureSet
p5300
(dp5301
g12
(dp5302
S'name'
p5303
g5176
sS'drel'
p5304
S'adv:VGF'
p5305
ssbsba(issf_api
Chunk
p5306
(dp5307
g3933
g3420
sg38
I8
sg4050
g3425
sg39
I6
sg3924
(lp5308
I168
asg44
(issf_api
FeatureSet
p5309
(dp5310
g12
(dp5311
S'name'
p5312
g5174
sS'drel'
p5313
S'pof:VGF'
p5314
ssbsba(issf_api
Chunk
p5315
(dp5316
g3933
g3439
sg38
I9
sg4050
g3448
sg39
I6
sg3924
(lp5317
I169
aI170
asg44
(issf_api
FeatureSet
p5318
(dp5319
g12
(dp5320
S'name'
p5321
g5169
ssbsba(issf_api
Chunk
p5322
(dp5323
g3933
g3479
sg38
I10
sg4050
g3484
sg39
I6
sg3924
(lp5324
I171
asg44
(issf_api
FeatureSet
p5325
(dp5326
g12
(dp5327
S'name'
p5328
g5175
sS'drel'
p5329
S'rsym:VGF'
p5330
ssbsbasba(issf_api
Sentence
p5331
(dp5332
g3922
(lp5333
sg39
I7
sg3924
(lp5334
I172
aI173
aI174
aI175
aI176
aI177
aI178
aI179
aI180
aI181
aI182
aI183
aI184
aI185
aI186
aI187
aI188
aI189
aI190
aI191
aI192
aI193
aI194
asg3926
(dp5335
S'VGNF'
p5336
(issf_api
Node
p5337
(dp5338
g3931
S'vmod'
p5339
sg3933
g5336
sg3934
S'VGF'
p5340
sg3936
I-1
sg38
I5
sg3937
(lp5341
S'NP5'
p5342
asbsS'VGF'
p5343
(issf_api
Node
p5344
(dp5345
g3931
g3959
sg3933
g5343
sg3934
g3959
sg3936
I-1
sg38
I9
sg3937
(lp5346
g5336
aS'NP8'
p5347
aS'BLK'
p5348
aS'NP'
p5349
aS'NP7'
p5350
aS'NP6'
p5351
aS'NP2'
p5352
asbsg5342
(issf_api
Node
p5353
(dp5354
g3931
S'pof'
p5355
sg3933
g5342
sg3934
S'VGNF'
p5356
sg3936
I-1
sg38
I4
sg3937
(lp5357
S'NP4'
p5358
asbsg5347
(issf_api
Node
p5359
(dp5360
g3931
S'k2'
p5361
sg3933
g5347
sg3934
S'VGF'
p5362
sg3936
I-1
sg38
I8
sg3937
(lp5363
sbsg5348
(issf_api
Node
p5364
(dp5365
g3931
S'rsym'
p5366
sg3933
g5348
sg3934
S'VGF'
p5367
sg3936
I-1
sg38
I10
sg3937
(lp5368
sbsg5349
(issf_api
Node
p5369
(dp5370
g3931
S'k7a'
p5371
sg3933
g5349
sg3934
S'VGF'
p5372
sg3936
I-1
sg38
I0
sg3937
(lp5373
sbsg5358
(issf_api
Node
p5374
(dp5375
g3931
S'r6-k2'
p5376
sg3933
g5358
sg3934
S'NP5'
p5377
sg3936
I-1
sg38
I3
sg3937
(lp5378
S'NP3'
p5379
asbsg5350
(issf_api
Node
p5380
(dp5381
g3931
S'k7p'
p5382
sg3933
g5350
sg3934
S'VGF'
p5383
sg3936
I-1
sg38
I7
sg3937
(lp5384
sbsg5351
(issf_api
Node
p5385
(dp5386
g3931
S'k7t'
p5387
sg3933
g5351
sg3934
S'VGF'
p5388
sg3936
I-1
sg38
I6
sg3937
(lp5389
sbsg5379
(issf_api
Node
p5390
(dp5391
g3931
S'r6'
p5392
sg3933
g5379
sg3934
S'NP4'
p5393
sg3936
I-1
sg38
I2
sg3937
(lp5394
sbsg5352
(issf_api
Node
p5395
(dp5396
g3931
S'k1'
p5397
sg3933
g5352
sg3934
S'VGF'
p5398
sg3936
I-1
sg38
I1
sg3937
(lp5399
sbssg4046
(lp5400
(issf_api
Chunk
p5401
(dp5402
g3933
g3515
sg38
I0
sg4050
g3522
sg39
I7
sg3924
(lp5403
I172
aI173
aI174
aI175
asg44
(issf_api
FeatureSet
p5404
(dp5405
g12
(dp5406
S'name'
p5407
g5349
sS'drel'
p5408
S'k7a:VGF'
p5409
ssbsba(issf_api
Chunk
p5410
(dp5411
g3933
g3587
sg38
I1
sg4050
g3594
sg39
I7
sg3924
(lp5412
I176
aI177
aI178
asg44
(issf_api
FeatureSet
p5413
(dp5414
g12
(dp5415
S'name'
p5416
g5352
sS'drel'
p5417
S'k1:VGF'
p5418
ssbsba(issf_api
Chunk
p5419
(dp5420
g3933
g3627
sg38
I2
sg4050
g3638
sg39
I7
sg3924
(lp5421
I179
aI180
asg44
(issf_api
FeatureSet
p5422
(dp5423
g12
(dp5424
S'name'
p5425
g5379
sS'drel'
p5426
S'r6:NP4'
p5427
ssbsba(issf_api
Chunk
p5428
(dp5429
g3933
g3669
sg38
I3
sg4050
g3676
sg39
I7
sg3924
(lp5430
I181
aI182
asg44
(issf_api
FeatureSet
p5431
(dp5432
g12
(dp5433
S'name'
p5434
g5358
sS'drel'
p5435
S'r6-k2:NP5'
p5436
ssbsba(issf_api
Chunk
p5437
(dp5438
g3933
g3707
sg38
I4
sg4050
g3712
sg39
I7
sg3924
(lp5439
I183
asg44
(issf_api
FeatureSet
p5440
(dp5441
g12
(dp5442
S'name'
p5443
g5342
sS'drel'
p5444
S'pof:VGNF'
p5445
ssbsba(issf_api
Chunk
p5446
(dp5447
g3933
g3726
sg38
I5
sg4050
g3731
sg39
I7
sg3924
(lp5448
I184
asg44
(issf_api
FeatureSet
p5449
(dp5450
g12
(dp5451
S'name'
p5452
g5336
sS'drel'
p5453
S'vmod:VGF'
p5454
ssbsba(issf_api
Chunk
p5455
(dp5456
g3933
g3762
sg38
I6
sg4050
g3767
sg39
I7
sg3924
(lp5457
I185
aI186
asg44
(issf_api
FeatureSet
p5458
(dp5459
g12
(dp5460
S'name'
p5461
g5351
sS'drel'
p5462
S'k7t:VGF'
p5463
ssbsba(issf_api
Chunk
p5464
(dp5465
g3933
g3815
sg38
I7
sg4050
g3822
sg39
I7
sg3924
(lp5466
I187
aI188
aI189
aI190
asg44
(issf_api
FeatureSet
p5467
(dp5468
g12
(dp5469
S'name'
p5470
g5350
sS'drel'
p5471
S'k7p:VGF'
p5472
ssbsba(issf_api
Chunk
p5473
(dp5474
g3933
g3853
sg38
I8
sg4050
g3858
sg39
I7
sg3924
(lp5475
I191
asg44
(issf_api
FeatureSet
p5476
(dp5477
g12
(dp5478
S'name'
p5479
g5347
sS'drel'
p5480
S'k2:VGF'
p5481
ssbsba(issf_api
Chunk
p5482
(dp5483
g3933
g3872
sg38
I9
sg4050
g3881
sg39
I7
sg3924
(lp5484
I192
aI193
asg44
(issf_api
FeatureSet
p5485
(dp5486
g12
(dp5487
S'name'
p5488
g5343
ssbsba(issf_api
Chunk
p5489
(dp5490
g3933
g3912
sg38
I10
sg4050
g3917
sg39
I7
sg3924
(lp5491
I194
asg44
(issf_api
FeatureSet
p5492
(dp5493
g12
(dp5494
S'name'
p5495
g5348
sS'drel'
p5496
S'rsym:VGF'
p5497
ssbsbasbasb.