(issf_api
SSFInfo
p0
(dp1
S'globalWordList'
p2
(lp3
(issf_api
Word
p4
(dp5
S'splitConn'
p6
I00
sS'word'
p7
V\u0930\u093e\u0937\u094d\u091f\u094d\u0930\u092a\u0924\u093f
p8
sS'extraFeatureSet'
p9
(issf_api
FeatureSet
p10
(dp11
S'featureDict'
p12
(dp13
S'crefhead'
p14
S'\xe0\xa4\xb0\xe0\xa4\xbe\xe0\xa4\xb7\xe0\xa5\x8d\xe0\xa4\x9f\xe0\xa5\x8d\xe0\xa4\xb0\xe0\xa4\xaa\xe0\xa4\xa4\xe0\xa4\xbf:i1'
p15
sS'posn'
p16
S'10'
p17
sS'name'
p18
S'\xe0\xa4\xb0\xe0\xa4\xbe\xe0\xa4\xb7\xe0\xa5\x8d\xe0\xa4\x9f\xe0\xa5\x8d\xe0\xa4\xb0\xe0\xa4\xaa\xe0\xa4\xa4\xe0\xa4\xbf'
p19
sS'af'
p20
S'\xe0\xa4\xb0\xe0\xa4\xbe\xe0\xa4\xb7\xe0\xa5\x8d\xe0\xa4\x9f\xe0\xa5\x8d\xe0\xa4\xb0\xe0\xa4\xaa\xe0\xa4\xa4\xe0\xa4\xbf,n,m,sg,3,d,0,0'
p21
sS'drel'
p22
S'nmod__adj:NP'
p23
sS'chunktype'
p24
S'child:NP'
p25
sS'cref'
p26
S'i1%1:t1'
p27
ssbsS'arg1'
p28
I00
sS'arg2'
p29
I00
sS'sense'
p30
NsS'arg1Span'
p31
NsS'chunkNum'
p32
I0
sS'sentenceNum'
p33
I0
sS'relationNum'
p34
NsS'arg2Span'
p35
NsS'wordTag'
p36
S'NNP'
p37
sS'featureSet'
p38
g10
sS'conn'
p39
I00
sba(issf_api
Word
p40
(dp41
g6
I00
sg7
V\u090f\u092a\u0940\u091c\u0947
p42
sg9
(issf_api
FeatureSet
p43
(dp44
g12
(dp45
S'posn'
p46
S'20'
p47
sS'name'
p48
S'\xe0\xa4\x8f\xe0\xa4\xaa\xe0\xa5\x80\xe0\xa4\x9c\xe0\xa5\x87'
p49
sS'af'
p50
S'\xe0\xa4\x8f\xe0\xa4\xaa\xe0\xa5\x80\xe0\xa4\x9c\xe0\xa5\x87,n,m,sg,3,d,0,0'
p51
sS'drel'
p52
S'pof__cn:NP'
p53
sS'chunktype'
p54
S'child:NP'
p55
sS'cref'
p56
S'i2%0:t1'
p57
ssbsg28
I00
sg29
I00
sg30
Nsg31
Nsg32
I0
sg33
I0
sg34
Nsg35
Nsg36
S'NNPC'
p58
sg38
g43
sg39
I00
sba(issf_api
Word
p59
(dp60
g6
I00
sg7
V\u0905\u092c\u094d\u0926\u0941\u0932
p61
sg9
(issf_api
FeatureSet
p62
(dp63
g12
(dp64
S'posn'
p65
S'30'
p66
sS'name'
p67
S'\xe0\xa4\x85\xe0\xa4\xac\xe0\xa5\x8d\xe0\xa4\xa6\xe0\xa5\x81\xe0\xa4\xb2'
p68
sS'af'
p69
S'\xe0\xa4\x85\xe0\xa4\xac\xe0\xa5\x8d\xe0\xa4\xa6\xe0\xa5\x81\xe0\xa4\xb2,null,m,sg,3,d,0,0'
p70
sS'drel'
p71
S'pof__cn:NP'
p72
sS'chunktype'
p73
S'child:NP'
p74
sS'cref'
p75
S'i2%0:t1'
p76
ssbsg28
I00
sg29
I00
sg30
Nsg31
Nsg32
I0
sg33
I0
sg34
Nsg35
Nsg36
S'NNPC'
p77
sg38
g62
sg39
I00
sba(issf_api
Word
p78
(dp79
g6
I00
sg7
V\u0915\u0932\u093e\u092e
p80
sg9
(issf_api
FeatureSet
p81
(dp82
g12
(dp83
S'crefhead'
p84
S'\xe0\xa4\x95\xe0\xa4\xb2\xe0\xa4\xbe\xe0\xa4\xae:i2'
p85
sS'posn'
p86
S'40'
p87
sS'name'
p88
S'\xe0\xa4\x95\xe0\xa4\xb2\xe0\xa4\xbe\xe0\xa4\xae'
p89
sS'af'
p90
S'\xe0\xa4\x95\xe0\xa4\xb2\xe0\xa4\xbe\xe0\xa4\xae,n,m,sg,3,o,0,0'
p91
sS'chunkid'
p92
S'NP'
p93
sS'creftype'
p94
S'Coreference-NounComplement:i1'
p95
sS'chunktype'
p96
S'head:NP'
p97
sS'crefchainhead'
p98
S'i2:t1'
p99
sS'cref'
p100
S'i2%1:t1'
p101
sS'drel'
p102
S'ccof:CCP'
p103
ssbsg28
I00
sg29
I00
sg30
Nsg31
Nsg32
I0
sg33
I0
sg34
Nsg35
Nsg36
S'NNP'
p104
sg38
g81
sg39
I00
sba(issf_api
Word
p105
(dp106
g6
I00
sg7
V,
p107
sg9
(issf_api
FeatureSet
p108
(dp109
g12
(dp110
S'posn'
p111
S'50'
p112
sS'name'
p113
S','
p114
sS'drel'
p115
S'rsym:NP'
p116
sS'chunktype'
p117
S'child:NP'
p118
sS'af'
p119
S'COMMA,punc,,,,,,'
p120
ssbsg28
I00
sg29
I00
sg30
Nsg31
Nsg32
I0
sg33
I0
sg34
Nsg35
Nsg36
S'SYM'
p121
sg38
g108
sg39
I00
sba(issf_api
Word
p122
(dp123
g6
I00
sg7
V\u092a\u094d\u0930\u0927\u093e\u0928\u092e\u0902\u0924\u094d\u0930\u0940
p124
sg9
(issf_api
FeatureSet
p125
(dp126
g12
(dp127
S'crefhead'
p128
S'\xe0\xa4\xaa\xe0\xa5\x8d\xe0\xa4\xb0\xe0\xa4\xa7\xe0\xa4\xbe\xe0\xa4\xa8\xe0\xa4\xae\xe0\xa4\x82\xe0\xa4\xa4\xe0\xa5\x8d\xe0\xa4\xb0\xe0\xa5\x80:i3'
p129
sS'posn'
p130
S'60'
p131
sS'name'
p132
S'\xe0\xa4\xaa\xe0\xa5\x8d\xe0\xa4\xb0\xe0\xa4\xa7\xe0\xa4\xbe\xe0\xa4\xa8\xe0\xa4\xae\xe0\xa4\x82\xe0\xa4\xa4\xe0\xa5\x8d\xe0\xa4\xb0\xe0\xa5\x80'
p133
sS'af'
p134
S'\xe0\xa4\xaa\xe0\xa5\x8d\xe0\xa4\xb0\xe0\xa4\xa7\xe0\xa4\xbe\xe0\xa4\xa8\xe0\xa4\xae\xe0\xa4\x82\xe0\xa4\xa4\xe0\xa5\x8d\xe0\xa4\xb0\xe0\xa5\x80,n,m,sg,3,d,0,0'
p135
sS'drel'
p136
S'nmod__adj:NP2'
p137
sS'chunktype'
p138
S'child:NP2'
p139
sS'cref'
p140
S'i3%1:t2'
p141
ssbsg28
I00
sg29
I00
sg30
Nsg31
Nsg32
I1
sg33
I0
sg34
Nsg35
Nsg36
S'NNP'
p142
sg38
g125
sg39
I00
sba(issf_api
Word
p143
(dp144
g6
I00
sg7
V\u092e\u0928\u092e\u094b\u0939\u0928
p145
sg9
(issf_api
FeatureSet
p146
(dp147
g12
(dp148
S'posn'
p149
S'70'
p150
sS'name'
p151
S'\xe0\xa4\xae\xe0\xa4\xa8\xe0\xa4\xae\xe0\xa5\x8b\xe0\xa4\xb9\xe0\xa4\xa8'
p152
sS'af'
p153
S'\xe0\xa4\xae\xe0\xa4\xa8\xe0\xa4\xae\xe0\xa5\x8b\xe0\xa4\xb9\xe0\xa4\xa8,n,m,sg,3,d,0,0'
p154
sS'drel'
p155
S'pof__cn:NP2'
p156
sS'chunktype'
p157
S'child:NP2'
p158
sS'cref'
p159
S'i4%0:t2'
p160
ssbsg28
I00
sg29
I00
sg30
Nsg31
Nsg32
I1
sg33
I0
sg34
Nsg35
Nsg36
S'NNPC'
p161
sg38
g146
sg39
I00
sba(issf_api
Word
p162
(dp163
g6
I00
sg7
V\u0938\u093f\u0902\u0939
p164
sg9
(issf_api
FeatureSet
p165
(dp166
g12
(dp167
S'crefhead'
p168
S'\xe0\xa4\xb8\xe0\xa4\xbf\xe0\xa4\x82\xe0\xa4\xb9:i4'
p169
sS'posn'
p170
S'80'
p171
sS'name'
p172
S'\xe0\xa4\xb8\xe0\xa4\xbf\xe0\xa4\x82\xe0\xa4\xb9'
p173
sS'af'
p174
S'\xe0\xa4\xb8\xe0\xa4\xbf\xe0\xa4\x82\xe0\xa4\xb9,n,m,sg,3,o,0,0'
p175
sS'chunkid'
p176
S'NP2'
p177
sS'creftype'
p178
S'Coreference-NounComplement:i3'
p179
sS'chunktype'
p180
S'head:NP2'
p181
sS'crefchainhead'
p182
S'i4:t2'
p183
sS'cref'
p184
S'i4%1:t2'
p185
sS'drel'
p186
S'ccof:CCP'
p187
ssbsg28
I00
sg29
I00
sg30
Nsg31
Nsg32
I1
sg33
I0
sg34
Nsg35
Nsg36
S'NNP'
p188
sg38
g165
sg39
I00
sba(issf_api
Word
p189
(dp190
g6
I00
sg7
V\u0914\u0930
p191
sg9
(issf_api
FeatureSet
p192
(dp193
g12
(dp194
S'posn'
p195
S'90'
p196
sS'name'
p197
S'\xe0\xa4\x94\xe0\xa4\xb0'
p198
sS'af'
p199
S'\xe0\xa4\x94\xe0\xa4\xb0,avy,,,,,,'
p200
sS'chunkid'
p201
S'CCP'
p202
sS'drel'
p203
S'k1:VGF'
p204
sS'chunktype'
p205
S'head:CCP'
p206
ssbsg28
I00
sg29
I00
sg30
Nsg31
Nsg32
I2
sg33
I0
sg34
Nsg35
Nsg36
S'CC'
p207
sg38
g192
sg39
I00
sba(issf_api
Word
p208
(dp209
g6
I00
sg7
V\u092f\u0942\u092a\u0940\u090f
p210
sg9
(issf_api
FeatureSet
p211
(dp212
g12
(dp213
S'posn'
p214
S'100'
p215
sS'name'
p216
S'\xe0\xa4\xaf\xe0\xa5\x82\xe0\xa4\xaa\xe0\xa5\x80\xe0\xa4\x8f'
p217
sS'af'
p218
S'\xe0\xa4\xaf\xe0\xa5\x82\xe0\xa4\xaa\xe0\xa5\x80\xe0\xa4\x8f,n,m,sg,3,d,0,0'
p219
sS'drel'
p220
S'pof__cn:NP3'
p221
sS'chunktype'
p222
S'child:NP3'
p223
sS'cref'
p224
S'i5%0:t3'
p225
ssbsg28
I00
sg29
I00
sg30
Nsg31
Nsg32
I3
sg33
I0
sg34
Nsg35
Nsg36
S'NNC'
p226
sg38
g211
sg39
I00
sba(issf_api
Word
p227
(dp228
g6
I00
sg7
V\u0905\u0927\u094d\u092f\u0915\u094d\u0937
p229
sg9
(issf_api
FeatureSet
p230
(dp231
g12
(dp232
S'crefhead'
p233
S'\xe0\xa4\x85\xe0\xa4\xa7\xe0\xa5\x8d\xe0\xa4\xaf\xe0\xa4\x95\xe0\xa5\x8d\xe0\xa4\xb7:i5'
p234
sS'posn'
p235
S'110'
p236
sS'name'
p237
S'\xe0\xa4\x85\xe0\xa4\xa7\xe0\xa5\x8d\xe0\xa4\xaf\xe0\xa4\x95\xe0\xa5\x8d\xe0\xa4\xb7'
p238
sS'af'
p239
S'\xe0\xa4\x85\xe0\xa4\xa7\xe0\xa5\x8d\xe0\xa4\xaf\xe0\xa4\x95\xe0\xa5\x8d\xe0\xa4\xb7,n,f,sg,3,d,0,0'
p240
sS'drel'
p241
S'nmod:NP3'
p242
sS'chunktype'
p243
S'child:NP3'
p244
sS'cref'
p245
S'i5%1:t3'
p246
ssbsg28
I00
sg29
I00
sg30
Nsg31
Nsg32
I3
sg33
I0
sg34
Nsg35
Nsg36
S'NN'
p247
sg38
g230
sg39
I00
sba(issf_api
Word
p248
(dp249
g6
I00
sg7
V\u0938\u094b\u0928\u093f\u092f\u093e
p250
sg9
(issf_api
FeatureSet
p251
(dp252
g12
(dp253
S'posn'
p254
S'120'
p255
sS'name'
p256
S'\xe0\xa4\xb8\xe0\xa5\x8b\xe0\xa4\xa8\xe0\xa4\xbf\xe0\xa4\xaf\xe0\xa4\xbe'
p257
sS'af'
p258
S'\xe0\xa4\xb8\xe0\xa5\x8b\xe0\xa4\xa8\xe0\xa4\xbf\xe0\xa4\xaf\xe0\xa4\xbe,n,f,sg,3,d,0,0'
p259
sS'drel'
p260
S'pof__cn:NP3'
p261
sS'chunktype'
p262
S'child:NP3'
p263
sS'cref'
p264
S'i6%0:t3'
p265
ssbsg28
I00
sg29
I00
sg30
Nsg31
Nsg32
I3
sg33
I0
sg34
Nsg35
Nsg36
S'NNPC'
p266
sg38
g251
sg39
I00
sba(issf_api
Word
p267
(dp268
g6
I00
sg7
V\u0917\u093e\u0902\u0927\u0940
p269
sg9
(issf_api
FeatureSet
p270
(dp271
g12
(dp272
S'crefhead'
p273
S'\xe0\xa4\x97\xe0\xa4\xbe\xe0\xa4\x82\xe0\xa4\xa7\xe0\xa5\x80:i6'
p274
sS'posn'
p275
S'130'
p276
sS'name'
p277
S'\xe0\xa4\x97\xe0\xa4\xbe\xe0\xa4\x82\xe0\xa4\xa7\xe0\xa5\x80'
p278
sS'af'
p279
S'\xe0\xa4\x97\xe0\xa4\xbe\xe0\xa4\x82\xe0\xa4\xa7\xe0\xa5\x80,n,any,sg,3,o,0_\xe0\xa4\xa8\xe0\xa5\x87,0'
p280
sS'chunkid'
p281
S'NP3'
p282
sS'creftype'
p283
S'Coreference-NounComplement:i5'
p284
sS'chunktype'
p285
S'head:NP3'
p286
sS'crefchainhead'
p287
S'i6:t3'
p288
sS'vpos'
p289
S'vib_vib_5'
p290
sS'cref'
p291
S'i6%1:t3'
p292
sS'drel'
p293
S'ccof:CCP'
p294
ssbsg28
I00
sg29
I00
sg30
Nsg31
Nsg32
I3
sg33
I0
sg34
Nsg35
Nsg36
S'NNP'
p295
sg38
g270
sg39
I00
sba(issf_api
Word
p296
(dp297
g6
I00
sg7
V\u0928\u0947
p298
sg9
(issf_api
FeatureSet
p299
(dp300
g12
(dp301
S'posn'
p302
S'140'
p303
sS'name'
p304
S'\xe0\xa4\xa8\xe0\xa5\x87'
p305
sS'drel'
p306
S'lwg__psp:NP3'
p307
sS'chunktype'
p308
S'child:NP3'
p309
sS'af'
p310
S'\xe0\xa4\xa8\xe0\xa5\x87,psp,,,,,,'
p311
ssbsg28
I00
sg29
I00
sg30
Nsg31
Nsg32
I3
sg33
I0
sg34
Nsg35
Nsg36
S'PSP'
p312
sg38
g299
sg39
I00
sba(issf_api
Word
p313
(dp314
g6
I00
sg7
V\u0936\u0941\u0915\u094d\u0930\u0935\u093e\u0930
p315
sg9
(issf_api
FeatureSet
p316
(dp317
g12
(dp318
S'posn'
p319
S'150'
p320
sS'name'
p321
S'\xe0\xa4\xb6\xe0\xa5\x81\xe0\xa4\x95\xe0\xa5\x8d\xe0\xa4\xb0\xe0\xa4\xb5\xe0\xa4\xbe\xe0\xa4\xb0'
p322
sS'af'
p323
S'\xe0\xa4\xb6\xe0\xa5\x81\xe0\xa4\x95\xe0\xa5\x8d\xe0\xa4\xb0\xe0\xa4\xb5\xe0\xa4\xbe\xe0\xa4\xb0,n,m,sg,3,o,0_\xe0\xa4\x95\xe0\xa5\x8b,0'
p324
sS'chunkid'
p325
S'NP4'
p326
sS'drel'
p327
S'k7t:VGF'
p328
sS'vpos'
p329
S'vib_2'
p330
sS'chunktype'
p331
S'head:NP4'
p332
ssbsg28
I00
sg29
I00
sg30
Nsg31
Nsg32
I4
sg33
I0
sg34
Nsg35
Nsg36
S'NNP'
p333
sg38
g316
sg39
I00
sba(issf_api
Word
p334
(dp335
g6
I00
sg7
V\u0915\u094b
p336
sg9
(issf_api
FeatureSet
p337
(dp338
g12
(dp339
S'posn'
p340
S'160'
p341
sS'name'
p342
S'\xe0\xa4\x95\xe0\xa5\x8b'
p343
sS'drel'
p344
S'lwg__psp:NP4'
p345
sS'chunktype'
p346
S'child:NP4'
p347
sS'af'
p348
S'\xe0\xa4\x95\xe0\xa5\x8b,psp,,,,,,'
p349
ssbsg28
I00
sg29
I00
sg30
Nsg31
Nsg32
I4
sg33
I0
sg34
Nsg35
Nsg36
S'PSP'
p350
sg38
g337
sg39
I00
sba(issf_api
Word
p351
(dp352
g6
I00
sg7
V\u0930\u093e\u0937\u094d\u091f\u094d\u0930
p353
sg9
(issf_api
FeatureSet
p354
(dp355
g12
(dp356
S'crefhead'
p357
S'\xe0\xa4\xb0\xe0\xa4\xbe\xe0\xa4\xb7\xe0\xa5\x8d\xe0\xa4\x9f\xe0\xa5\x8d\xe0\xa4\xb0:i7'
p358
sS'posn'
p359
S'170'
p360
sS'name'
p361
S'\xe0\xa4\xb0\xe0\xa4\xbe\xe0\xa4\xb7\xe0\xa5\x8d\xe0\xa4\x9f\xe0\xa5\x8d\xe0\xa4\xb0'
p362
sS'af'
p363
S'\xe0\xa4\xb0\xe0\xa4\xbe\xe0\xa4\xb7\xe0\xa5\x8d\xe0\xa4\x9f\xe0\xa5\x8d\xe0\xa4\xb0,n,m,sg,3,o,0_\xe0\xa4\x95\xe0\xa5\x8b,0'
p364
sS'chunkid'
p365
S'NP5'
p366
sS'drel'
p367
S'k4:VGF'
p368
sS'chunktype'
p369
S'head:NP5'
p370
sS'vpos'
p371
S'vib_2'
p372
sS'cref'
p373
S'i7%1:t4'
p374
ssbsg28
I00
sg29
I00
sg30
Nsg31
Nsg32
I5
sg33
I0
sg34
Nsg35
Nsg36
S'NN'
p375
sg38
g354
sg39
I00
sba(issf_api
Word
p376
(dp377
g6
I00
sg7
V\u0915\u094b
p378
sg9
(issf_api
FeatureSet
p379
(dp380
g12
(dp381
S'posn'
p382
S'180'
p383
sS'name'
p384
S'\xe0\xa4\x95\xe0\xa5\x8b2'
p385
sS'drel'
p386
S'lwg__psp:NP5'
p387
sS'chunktype'
p388
S'child:NP5'
p389
sS'af'
p390
S'\xe0\xa4\x95\xe0\xa5\x8b,psp,,,,,,'
p391
ssbsg28
I00
sg29
I00
sg30
Nsg31
Nsg32
I5
sg33
I0
sg34
Nsg35
Nsg36
S'PSP'
p392
sg38
g379
sg39
I00
sba(issf_api
Word
p393
(dp394
g6
I00
sg7
V\u0939\u094b\u0932\u0940
p395
sg9
(issf_api
FeatureSet
p396
(dp397
g12
(dp398
S'crefhead'
p399
S'\xe0\xa4\xb9\xe0\xa5\x8b\xe0\xa4\xb2\xe0\xa5\x80:i8'
p400
sS'posn'
p401
S'190'
p402
sS'name'
p403
S'\xe0\xa4\xb9\xe0\xa5\x8b\xe0\xa4\xb2\xe0\xa5\x80'
p404
sS'af'
p405
S'\xe0\xa4\xb9\xe0\xa5\x8b\xe0\xa4\xb2\xe0\xa5\x80,n,f,sg,3,o,0_\xe0\xa4\xaa\xe0\xa4\xb0,0'
p406
sS'chunkid'
p407
S'NP6'
p408
sS'chunktype'
p409
S'head:NP6'
p410
sS'crefchainhead'
p411
S'i8:t5'
p412
sS'vpos'
p413
S'vib_2'
p414
sS'cref'
p415
S'i8%1:t5'
p416
sS'drel'
p417
S'k7:VGF'
p418
ssbsg28
I00
sg29
I00
sg30
Nsg31
Nsg32
I6
sg33
I0
sg34
Nsg35
Nsg36
S'NNP'
p419
sg38
g396
sg39
I00
sba(issf_api
Word
p420
(dp421
g6
I00
sg7
V\u092a\u0930
p422
sg9
(issf_api
FeatureSet
p423
(dp424
g12
(dp425
S'posn'
p426
S'200'
p427
sS'name'
p428
S'\xe0\xa4\xaa\xe0\xa4\xb0'
p429
sS'drel'
p430
S'lwg__psp:NP6'
p431
sS'chunktype'
p432
S'child:NP6'
p433
sS'af'
p434
S'\xe0\xa4\xaa\xe0\xa4\xb0,psp,,,,,,'
p435
ssbsg28
I00
sg29
I00
sg30
Nsg31
Nsg32
I6
sg33
I0
sg34
Nsg35
Nsg36
S'PSP'
p436
sg38
g423
sg39
I00
sba(issf_api
Word
p437
(dp438
g6
I00
sg7
V\u0936\u0941\u092d\u0915\u093e\u092e\u0928\u093e\u090f\u0902
p439
sg9
(issf_api
FeatureSet
p440
(dp441
g12
(dp442
S'posn'
p443
S'210'
p444
sS'name'
p445
S'\xe0\xa4\xb6\xe0\xa5\x81\xe0\xa4\xad\xe0\xa4\x95\xe0\xa4\xbe\xe0\xa4\xae\xe0\xa4\xa8\xe0\xa4\xbe\xe0\xa4\x8f\xe0\xa4\x82'
p446
sS'af'
p447
S'\xe0\xa4\xb6\xe0\xa5\x81\xe0\xa4\xad\xe0\xa4\x95\xe0\xa4\xbe\xe0\xa4\xae\xe0\xa4\xa8\xe0\xa4\xbe,n,f,pl,3,d,0,0'
p448
sS'chunkid'
p449
S'NP7'
p450
sS'drel'
p451
S'k2:VGF'
p452
sS'chunktype'
p453
S'head:NP7'
p454
ssbsg28
I00
sg29
I00
sg30
Nsg31
Nsg32
I7
sg33
I0
sg34
Nsg35
Nsg36
S'NN'
p455
sg38
g440
sg39
I00
sba(issf_api
Word
p456
(dp457
g6
I00
sg7
V\u0926\u0940\u0902
p458
sg9
(issf_api
FeatureSet
p459
(dp460
g12
(dp461
S'posn'
p462
S'220'
p463
sS'name'
p464
S'\xe0\xa4\xa6\xe0\xa5\x80\xe0\xa4\x82'
p465
sS'af'
p466
S'\xe0\xa4\xa6\xe0\xa5\x87,v,f,pl,any,,\xe0\xa4\xaf\xe0\xa4\xbe,yA'
p467
sS'chunkid'
p468
S'VGF'
p469
sS'chunktype'
p470
S'head:VGF'
p471
sS'voicetype'
p472
S'active'
p473
sS'stype'
p474
S'declarative'
p475
ssbsg28
I00
sg29
I00
sg30
Nsg31
Nsg32
I8
sg33
I0
sg34
Nsg35
Nsg36
S'VM'
p476
sg38
g459
sg39
I00
sba(issf_api
Word
p477
(dp478
g6
I00
sg7
V\u0964
p479
sg9
(issf_api
FeatureSet
p480
(dp481
g12
(dp482
S'posn'
p483
S'230'
p484
sS'name'
p485
S'\xe0\xa5\xa4'
p486
sS'af'
p487
S'\xe0\xa5\xa4,punc,,,,,,'
p488
sS'chunkid'
p489
S'BLK'
p490
sS'drel'
p491
S'rsym:VGF'
p492
sS'chunktype'
p493
S'head:BLK'
p494
ssbsg28
I00
sg29
I00
sg30
Nsg31
Nsg32
I9
sg33
I0
sg34
Nsg35
Nsg36
S'SYM'
p495
sg38
g480
sg39
I00
sba(issf_api
Word
p496
(dp497
g6
I00
sg7
V\u0930\u093e\u0937\u094d\u091f\u094d\u0930\u092a\u0924\u093f
p498
sg9
(issf_api
FeatureSet
p499
(dp500
g12
(dp501
S'crefhead'
p502
S'\xe0\xa4\xb0\xe0\xa4\xbe\xe0\xa4\xb7\xe0\xa5\x8d\xe0\xa4\x9f\xe0\xa5\x8d\xe0\xa4\xb0\xe0\xa4\xaa\xe0\xa4\xa4\xe0\xa4\xbf:i9'
p503
sS'posn'
p504
S'10'
p505
sS'name'
p506
S'\xe0\xa4\xb0\xe0\xa4\xbe\xe0\xa4\xb7\xe0\xa5\x8d\xe0\xa4\x9f\xe0\xa5\x8d\xe0\xa4\xb0\xe0\xa4\xaa\xe0\xa4\xa4\xe0\xa4\xbf'
p507
sS'af'
p508
S'\xe0\xa4\xb0\xe0\xa4\xbe\xe0\xa4\xb7\xe0\xa5\x8d\xe0\xa4\x9f\xe0\xa5\x8d\xe0\xa4\xb0\xe0\xa4\xaa\xe0\xa4\xa4\xe0\xa4\xbf,n,m,sg,3,d,0,0'
p509
sS'creftype'
p510
S'Coreference-Noun-Noun:i2'
p511
sS'drel'
p512
S'nmod__adj:NP'
p513
sS'chunktype'
p514
S'child:NP'
p515
sS'cref'
p516
S'i9%1:t1'
p517
ssbsg28
I00
sg29
I00
sg30
Nsg31
Nsg32
I0
sg33
I1
sg34
Nsg35
Nsg36
S'NNP'
p518
sg38
g499
sg39
I00
sba(issf_api
Word
p519
(dp520
g6
I00
sg7
V\u0915\u0932\u093e\u092e
p521
sg9
(issf_api
FeatureSet
p522
(dp523
g12
(dp524
S'crefhead'
p525
S'\xe0\xa4\x95\xe0\xa4\xb2\xe0\xa4\xbe\xe0\xa4\xae:i10'
p526
sS'posn'
p527
S'20'
p528
sS'name'
p529
S'\xe0\xa4\x95\xe0\xa4\xb2\xe0\xa4\xbe\xe0\xa4\xae'
p530
sS'af'
p531
S'\xe0\xa4\x95\xe0\xa4\xb2\xe0\xa4\xbe\xe0\xa4\xae,n,m,sg,3,o,0_\xe0\xa4\xa8\xe0\xa5\x87,0'
p532
sS'chunkid'
p533
S'NP'
p534
sS'creftype'
p535
S'Coreference-NounComplement:i9'
p536
sS'chunktype'
p537
S'head:NP'
p538
sS'vpos'
p539
S'vib_vib_3'
p540
sS'cref'
p541
S'i10%1:t1'
p542
sS'drel'
p543
S'k1:VGF'
p544
ssbsg28
I00
sg29
I00
sg30
Nsg31
Nsg32
I0
sg33
I1
sg34
Nsg35
Nsg36
S'NNP'
p545
sg38
g522
sg39
I00
sba(issf_api
Word
p546
(dp547
g6
I00
sg7
V\u0928\u0947
p548
sg9
(issf_api
FeatureSet
p549
(dp550
g12
(dp551
S'posn'
p552
S'30'
p553
sS'name'
p554
S'\xe0\xa4\xa8\xe0\xa5\x87'
p555
sS'drel'
p556
S'lwg__psp:NP'
p557
sS'chunktype'
p558
S'child:NP'
p559
sS'af'
p560
S'\xe0\xa4\xa8\xe0\xa5\x87,psp,,,,,,'
p561
ssbsg28
I00
sg29
I00
sg30
Nsg31
Nsg32
I0
sg33
I1
sg34
Nsg35
Nsg36
S'PSP'
p562
sg38
g549
sg39
I00
sba(issf_api
Word
p563
(dp564
g6
I00
sg7
V\u0905\u092a\u0928\u0947
p565
sg9
(issf_api
FeatureSet
p566
(dp567
g12
(dp568
S'crefhead'
p569
S'\xe0\xa4\x85\xe0\xa4\xaa\xe0\xa4\xa8\xe0\xa5\x87:i11'
p570
sS'posn'
p571
S'40'
p572
sS'name'
p573
S'\xe0\xa4\x85\xe0\xa4\xaa\xe0\xa4\xa8\xe0\xa5\x87'
p574
sS'af'
p575
S'\xe0\xa4\x85\xe0\xa4\xaa\xe0\xa4\xa8\xe0\xa4\xbe,pn,m,any,any,o,0,0'
p576
sS'chunkid'
p577
S'NP2'
p578
sS'creftype'
p579
S'Anaphora-C:i10'
p580
sS'chunktype'
p581
S'head:NP2'
p582
sS'cref'
p583
S'i11%1:t1'
p584
sS'drel'
p585
S'r6:NP3'
p586
ssbsg28
I00
sg29
I00
sg30
Nsg31
Nsg32
I1
sg33
I1
sg34
Nsg35
Nsg36
S'PRP'
p587
sg38
g566
sg39
I00
sba(issf_api
Word
p588
(dp589
g6
I00
sg7
V\u0936\u0941\u092d\u0915\u093e\u092e\u0928\u093e
p590
sg9
(issf_api
FeatureSet
p591
(dp592
g12
(dp593
S'posn'
p594
S'50'
p595
sS'name'
p596
S'\xe0\xa4\xb6\xe0\xa5\x81\xe0\xa4\xad\xe0\xa4\x95\xe0\xa4\xbe\xe0\xa4\xae\xe0\xa4\xa8\xe0\xa4\xbe'
p597
sS'drel'
p598
S'pof__cn:NP3'
p599
sS'chunktype'
p600
S'child:NP3'
p601
sS'af'
p602
S'\xe0\xa4\xb6\xe0\xa5\x81\xe0\xa4\xad\xe0\xa4\x95\xe0\xa4\xbe\xe0\xa4\xae\xe0\xa4\xa8\xe0\xa4\xbe,n,f,sg,3,d,0,0'
p603
ssbsg28
I00
sg29
I00
sg30
Nsg31
Nsg32
I2
sg33
I1
sg34
Nsg35
Nsg36
S'NNC'
p604
sg38
g591
sg39
I00
sba(issf_api
Word
p605
(dp606
g6
I00
sg7
V\u0938\u0902\u0926\u0947\u0936
p607
sg9
(issf_api
FeatureSet
p608
(dp609
g12
(dp610
S'posn'
p611
S'60'
p612
sS'name'
p613
S'\xe0\xa4\xb8\xe0\xa4\x82\xe0\xa4\xa6\xe0\xa5\x87\xe0\xa4\xb6'
p614
sS'af'
p615
S'\xe0\xa4\xb8\xe0\xa4\x82\xe0\xa4\xa6\xe0\xa5\x87\xe0\xa4\xb6,n,m,sg,3,o,0_\xe0\xa4\xae\xe0\xa5\x87\xe0\xa4\x82,0'
p616
sS'chunkid'
p617
S'NP3'
p618
sS'drel'
p619
S'k7:VGF'
p620
sS'vpos'
p621
S'vib_3'
p622
sS'chunktype'
p623
S'head:NP3'
p624
ssbsg28
I00
sg29
I00
sg30
Nsg31
Nsg32
I2
sg33
I1
sg34
Nsg35
Nsg36
S'NN'
p625
sg38
g608
sg39
I00
sba(issf_api
Word
p626
(dp627
g6
I00
sg7
V\u092e\u0947\u0902
p628
sg9
(issf_api
FeatureSet
p629
(dp630
g12
(dp631
S'posn'
p632
S'70'
p633
sS'name'
p634
S'\xe0\xa4\xae\xe0\xa5\x87\xe0\xa4\x82'
p635
sS'drel'
p636
S'lwg__psp:NP3'
p637
sS'chunktype'
p638
S'child:NP3'
p639
sS'af'
p640
S'\xe0\xa4\xae\xe0\xa5\x87\xe0\xa4\x82,psp,,,,,,'
p641
ssbsg28
I00
sg29
I00
sg30
Nsg31
Nsg32
I2
sg33
I1
sg34
Nsg35
Nsg36
S'PSP'
p642
sg38
g629
sg39
I00
sba(issf_api
Word
p643
(dp644
g6
I00
sg7
V\u0915\u0939\u093e
p645
sg9
(issf_api
FeatureSet
p646
(dp647
g12
(dp648
S'posn'
p649
S'80'
p650
sS'name'
p651
S'\xe0\xa4\x95\xe0\xa4\xb9\xe0\xa4\xbe'
p652
sS'af'
p653
S'\xe0\xa4\x95\xe0\xa4\xb9,v,m,sg,any,,\xe0\xa4\xaf\xe0\xa4\xbe,yA'
p654
sS'chunkid'
p655
S'VGF'
p656
sS'chunktype'
p657
S'head:VGF'
p658
sS'voicetype'
p659
S'active'
p660
sS'stype'
p661
S'declarative'
p662
ssbsg28
I00
sg29
I00
sg30
Nsg31
Nsg32
I3
sg33
I1
sg34
Nsg35
Nsg36
S'VM'
p663
sg38
g646
sg39
I00
sba(issf_api
Word
p664
(dp665
g6
I00
sg7
V\u0915\u093f
p666
sg9
(issf_api
FeatureSet
p667
(dp668
g12
(dp669
S'posn'
p670
S'90'
p671
sS'name'
p672
S'\xe0\xa4\x95\xe0\xa4\xbf'
p673
sS'af'
p674
S'\xe0\xa4\x95\xe0\xa4\xbf,avy,,,,,,'
p675
sS'chunkid'
p676
S'CCP'
p677
sS'drel'
p678
S'k2:VGF'
p679
sS'chunktype'
p680
S'head:CCP'
p681
ssbsg28
I00
sg29
I00
sg30
Nsg31
Nsg32
I4
sg33
I1
sg34
Nsg35
Nsg36
S'CC'
p682
sg38
g667
sg39
I00
sba(issf_api
Word
p683
(dp684
g6
I00
sg7
V\u0939\u094b\u0932\u0940
p685
sg9
(issf_api
FeatureSet
p686
(dp687
g12
(dp688
S'crefhead'
p689
S'\xe0\xa4\xb9\xe0\xa5\x8b\xe0\xa4\xb2\xe0\xa5\x80:i13'
p690
sS'posn'
p691
S'100'
p692
sS'name'
p693
S'\xe0\xa4\xb9\xe0\xa5\x8b\xe0\xa4\xb2\xe0\xa5\x80'
p694
sS'af'
p695
S'\xe0\xa4\xb9\xe0\xa5\x8b\xe0\xa4\xb2\xe0\xa5\x80,n,f,sg,3,o,0_\xe0\xa4\x95\xe0\xa4\xbe,0'
p696
sS'chunkid'
p697
S'NP4'
p698
sS'creftype'
p699
S'Coreference-Identity:i8'
p700
sS'chunktype'
p701
S'head:NP4'
p702
sS'vpos'
p703
S'vib_2'
p704
sS'cref'
p705
S'i13%1:t5'
p706
sS'drel'
p707
S'r6:NP5'
p708
ssbsg28
I00
sg29
I00
sg30
Nsg31
Nsg32
I5
sg33
I1
sg34
Nsg35
Nsg36
S'NNP'
p709
sg38
g686
sg39
I00
sba(issf_api
Word
p710
(dp711
g6
I00
sg7
V\u0915\u093e
p712
sg9
(issf_api
FeatureSet
p713
(dp714
g12
(dp715
S'posn'
p716
S'110'
p717
sS'name'
p718
S'\xe0\xa4\x95\xe0\xa4\xbe'
p719
sS'drel'
p720
S'lwg__psp:NP4'
p721
sS'chunktype'
p722
S'child:NP4'
p723
sS'af'
p724
S'\xe0\xa4\x95\xe0\xa4\xbe,psp,m,sg,,d,,'
p725
ssbsg28
I00
sg29
I00
sg30
Nsg31
Nsg32
I5
sg33
I1
sg34
Nsg35
Nsg36
S'PSP'
p726
sg38
g713
sg39
I00
sba(issf_api
Word
p727
(dp728
g6
I00
sg7
V\u092a\u0930\u094d\u0935
p729
sg9
(issf_api
FeatureSet
p730
(dp731
g12
(dp732
S'posn'
p733
S'120'
p734
sS'name'
p735
S'\xe0\xa4\xaa\xe0\xa4\xb0\xe0\xa5\x8d\xe0\xa4\xb5'
p736
sS'af'
p737
S'\xe0\xa4\xaa\xe0\xa4\xb0\xe0\xa5\x8d\xe0\xa4\xb5,n,m,sg,3,d,0,0'
p738
sS'chunkid'
p739
S'NP5'
p740
sS'drel'
p741
S'k1:VGF2'
p742
sS'chunktype'
p743
S'head:NP5'
p744
ssbsg28
I00
sg29
I00
sg30
Nsg31
Nsg32
I6
sg33
I1
sg34
Nsg35
Nsg36
S'NN'
p745
sg38
g730
sg39
I00
sba(issf_api
Word
p746
(dp747
g6
I00
sg7
V\u0916\u0941\u0936\u093f\u092f\u093e\u0902
p748
sg9
(issf_api
FeatureSet
p749
(dp750
g12
(dp751
S'posn'
p752
S'130'
p753
sS'name'
p754
S'\xe0\xa4\x96\xe0\xa5\x81\xe0\xa4\xb6\xe0\xa4\xbf\xe0\xa4\xaf\xe0\xa4\xbe\xe0\xa4\x82'
p755
sS'af'
p756
S'\xe0\xa4\x96\xe0\xa5\x81\xe0\xa4\xb6\xe0\xa5\x80,n,f,pl,3,d,0,0'
p757
sS'chunkid'
p758
S'NP6'
p759
sS'drel'
p760
S'k2:VGNN'
p761
sS'chunktype'
p762
S'head:NP6'
p763
ssbsg28
I00
sg29
I00
sg30
Nsg31
Nsg32
I7
sg33
I1
sg34
Nsg35
Nsg36
S'NN'
p764
sg38
g749
sg39
I00
sba(issf_api
Word
p765
(dp766
g6
I00
sg7
V\u092c\u093e\u0902\u091f\u0928\u0947
p767
sg9
(issf_api
FeatureSet
p768
(dp769
g12
(dp770
S'posn'
p771
S'140'
p772
sS'name'
p773
S'\xe0\xa4\xac\xe0\xa4\xbe\xe0\xa4\x82\xe0\xa4\x9f\xe0\xa4\xa8\xe0\xa5\x87'
p774
sS'af'
p775
S'\xe0\xa4\xac\xe0\xa4\xbe\xe0\xa4\x82\xe0\xa4\x9f,v,any,any,any,o,\xe0\xa4\xa8\xe0\xa4\xbe,nA'
p776
sS'chunkid'
p777
S'VGNN'
p778
sS'drel'
p779
S'ccof:CCP2'
p780
sS'chunktype'
p781
S'head:VGNN'
p782
ssbsg28
I00
sg29
I00
sg30
Nsg31
Nsg32
I8
sg33
I1
sg34
Nsg35
Nsg36
S'VM'
p783
sg38
g768
sg39
I00
sba(issf_api
Word
p784
(dp785
g6
I00
sg7
V\u0914\u0930
p786
sg9
(issf_api
FeatureSet
p787
(dp788
g12
(dp789
S'posn'
p790
S'150'
p791
sS'name'
p792
S'\xe0\xa4\x94\xe0\xa4\xb0'
p793
sS'af'
p794
S'\xe0\xa4\x94\xe0\xa4\xb0,avy,,,,,,'
p795
sS'chunkid'
p796
S'CCP2'
p797
sS'drel'
p798
S'r6:NULL__NP'
p799
sS'chunktype'
p800
S'head:CCP2'
p801
ssbsg28
I00
sg29
I00
sg30
Nsg31
Nsg32
I9
sg33
I1
sg34
Nsg35
Nsg36
S'CC'
p802
sg38
g787
sg39
I00
sba(issf_api
Word
p803
(dp804
g6
I00
sg7
V\u092e\u093e\u092b
p805
sg9
(issf_api
FeatureSet
p806
(dp807
g12
(dp808
S'posn'
p809
S'160'
p810
sS'name'
p811
S'\xe0\xa4\xae\xe0\xa4\xbe\xe0\xa4\xab'
p812
sS'af'
p813
S'\xe0\xa4\xae\xe0\xa4\xbe\xe0\xa4\xab,adj,any,any,,,,'
p814
sS'chunkid'
p815
S'JJP'
p816
sS'drel'
p817
S'pof:VGNN2'
p818
sS'chunktype'
p819
S'head:JJP'
p820
ssbsg28
I00
sg29
I00
sg30
Nsg31
Nsg32
I10
sg33
I1
sg34
Nsg35
Nsg36
S'JJ'
p821
sg38
g806
sg39
I00
sba(issf_api
Word
p822
(dp823
g6
I00
sg7
V\u0915\u0930\u0928\u0947
p824
sg9
(issf_api
FeatureSet
p825
(dp826
g12
(dp827
S'posn'
p828
S'170'
p829
sS'name'
p830
S'\xe0\xa4\x95\xe0\xa4\xb0\xe0\xa4\xa8\xe0\xa5\x87'
p831
sS'af'
p832
S'\xe0\xa4\x95\xe0\xa4\xb0,v,any,sg,any,o,\xe0\xa4\xa8\xe0\xa4\xbe_\xe0\xa4\x95\xe0\xa4\xbe,nA'
p833
sS'chunkid'
p834
S'VGNN2'
p835
sS'drel'
p836
S'ccof:CCP2'
p837
sS'vpos'
p838
S'tam_2'
p839
sS'chunktype'
p840
S'head:VGNN2'
p841
ssbsg28
I00
sg29
I00
sg30
Nsg31
Nsg32
I11
sg33
I1
sg34
Nsg35
Nsg36
S'VM'
p842
sg38
g825
sg39
I00
sba(issf_api
Word
p843
(dp844
g6
I00
sg7
V\u0915\u093e
p845
sg9
(issf_api
FeatureSet
p846
(dp847
g12
(dp848
S'posn'
p849
S'180'
p850
sS'name'
p851
S'\xe0\xa4\x95\xe0\xa4\xbe2'
p852
sS'drel'
p853
S'lwg__psp:VGNN2'
p854
sS'chunktype'
p855
S'child:VGNN2'
p856
sS'af'
p857
S'\xe0\xa4\x95\xe0\xa4\xbe,psp,m,sg,,d,,'
p858
ssbsg28
I00
sg29
I00
sg30
Nsg31
Nsg32
I11
sg33
I1
sg34
Nsg35
Nsg36
S'PSP'
p859
sg38
g846
sg39
I00
sba(issf_api
Word
p860
(dp861
g6
I00
sg7
V\u0939\u0948
p862
sg9
(issf_api
FeatureSet
p863
(dp864
g12
(dp865
S'posn'
p866
S'190'
p867
sS'name'
p868
S'\xe0\xa4\xb9\xe0\xa5\x88'
p869
sS'af'
p870
S'\xe0\xa4\xb9\xe0\xa5\x88,v,any,sg,3,,\xe0\xa4\xb9\xe0\xa5\x88,hE'
p871
sS'chunkid'
p872
S'VGF2'
p873
sS'stype'
p874
S'declarative'
p875
sS'drel'
p876
S'ccof:CCP'
p877
sS'voicetype'
p878
S'active'
p879
sS'chunktype'
p880
S'head:VGF2'
p881
ssbsg28
I00
sg29
I00
sg30
Nsg31
Nsg32
I12
sg33
I1
sg34
Nsg35
Nsg36
S'VM'
p882
sg38
g863
sg39
I00
sba(issf_api
Word
p883
(dp884
g6
I00
sg7
V\u0964
p885
sg9
(issf_api
FeatureSet
p886
(dp887
g12
(dp888
S'posn'
p889
S'200'
p890
sS'name'
p891
S'\xe0\xa5\xa4'
p892
sS'af'
p893
S'\xe0\xa5\xa4,punc,,,,,,'
p894
sS'chunkid'
p895
S'BLK'
p896
sS'drel'
p897
S'rsym:VGF'
p898
sS'chunktype'
p899
S'head:BLK'
p900
ssbsg28
I00
sg29
I00
sg30
Nsg31
Nsg32
I13
sg33
I1
sg34
Nsg35
Nsg36
S'SYM'
p901
sg38
g886
sg39
I00
sba(issf_api
Word
p902
(dp903
g6
I00
sg7
V\u092a\u094d\u0930\u0927\u093e\u0928\u092e\u0902\u0924\u094d\u0930\u0940
p904
sg9
(issf_api
FeatureSet
p905
(dp906
g12
(dp907
S'crefhead'
p908
S'\xe0\xa4\xaa\xe0\xa5\x8d\xe0\xa4\xb0\xe0\xa4\xa7\xe0\xa4\xbe\xe0\xa4\xa8\xe0\xa4\xae\xe0\xa4\x82\xe0\xa4\xa4\xe0\xa5\x8d\xe0\xa4\xb0\xe0\xa5\x80:i14'
p909
sS'posn'
p910
S'10'
p911
sS'name'
p912
S'\xe0\xa4\xaa\xe0\xa5\x8d\xe0\xa4\xb0\xe0\xa4\xa7\xe0\xa4\xbe\xe0\xa4\xa8\xe0\xa4\xae\xe0\xa4\x82\xe0\xa4\xa4\xe0\xa5\x8d\xe0\xa4\xb0\xe0\xa5\x80'
p913
sS'af'
p914
S'\xe0\xa4\xaa\xe0\xa5\x8d\xe0\xa4\xb0\xe0\xa4\xa7\xe0\xa4\xbe\xe0\xa4\xa8\xe0\xa4\xae\xe0\xa4\x82\xe0\xa4\xa4\xe0\xa5\x8d\xe0\xa4\xb0\xe0\xa5\x80,n,m,sg,3,d,0,0'
p915
sS'creftype'
p916
S'Coreference-Noun-Noun:i4'
p917
sS'drel'
p918
S'nmod__adj:NP'
p919
sS'chunktype'
p920
S'child:NP'
p921
sS'cref'
p922
S'i14%1:t2'
p923
ssbsg28
I00
sg29
I00
sg30
Nsg31
Nsg32
I0
sg33
I2
sg34
Nsg35
Nsg36
S'NNP'
p924
sg38
g905
sg39
I00
sba(issf_api
Word
p925
(dp926
g6
I00
sg7
V\u0938\u093f\u0902\u0939
p927
sg9
(issf_api
FeatureSet
p928
(dp929
g12
(dp930
S'crefhead'
p931
S'\xe0\xa4\xb8\xe0\xa4\xbf\xe0\xa4\x82\xe0\xa4\xb9:i15'
p932
sS'posn'
p933
S'20'
p934
sS'name'
p935
S'\xe0\xa4\xb8\xe0\xa4\xbf\xe0\xa4\x82\xe0\xa4\xb9'
p936
sS'af'
p937
S'\xe0\xa4\xb8\xe0\xa4\xbf\xe0\xa4\x82\xe0\xa4\xb9,n,m,sg,3,o,0_\xe0\xa4\xa8\xe0\xa5\x87,0'
p938
sS'chunkid'
p939
S'NP'
p940
sS'creftype'
p941
S'Coreference-NounComplement:i14'
p942
sS'chunktype'
p943
S'head:NP'
p944
sS'vpos'
p945
S'vib_vib_3'
p946
sS'cref'
p947
S'i15%1:t2'
p948
sS'drel'
p949
S'k1:VGF'
p950
ssbsg28
I00
sg29
I00
sg30
Nsg31
Nsg32
I0
sg33
I2
sg34
Nsg35
Nsg36
S'NNP'
p951
sg38
g928
sg39
I00
sba(issf_api
Word
p952
(dp953
g6
I00
sg7
V\u0928\u0947
p954
sg9
(issf_api
FeatureSet
p955
(dp956
g12
(dp957
S'posn'
p958
S'30'
p959
sS'name'
p960
S'\xe0\xa4\xa8\xe0\xa5\x87'
p961
sS'drel'
p962
S'lwg__psp:NP'
p963
sS'chunktype'
p964
S'child:NP'
p965
sS'af'
p966
S'\xe0\xa4\xa8\xe0\xa5\x87,psp,,,,,,'
p967
ssbsg28
I00
sg29
I00
sg30
Nsg31
Nsg32
I0
sg33
I2
sg34
Nsg35
Nsg36
S'PSP'
p968
sg38
g955
sg39
I00
sba(issf_api
Word
p969
(dp970
g6
I00
sg7
V\u0905\u092a\u0928\u0947
p971
sg9
(issf_api
FeatureSet
p972
(dp973
g12
(dp974
S'crefhead'
p975
S'\xe0\xa4\x85\xe0\xa4\xaa\xe0\xa4\xa8\xe0\xa5\x87:i16'
p976
sS'posn'
p977
S'40'
p978
sS'name'
p979
S'\xe0\xa4\x85\xe0\xa4\xaa\xe0\xa4\xa8\xe0\xa5\x87'
p980
sS'af'
p981
S'\xe0\xa4\x85\xe0\xa4\xaa\xe0\xa4\xa8\xe0\xa4\xbe,pn,m,any,any,o,0,0'
p982
sS'chunkid'
p983
S'NP2'
p984
sS'creftype'
p985
S'Anaphora-C:i15'
p986
sS'chunktype'
p987
S'head:NP2'
p988
sS'cref'
p989
S'i16%1:t2'
p990
sS'drel'
p991
S'r6:NP3'
p992
ssbsg28
I00
sg29
I00
sg30
Nsg31
Nsg32
I1
sg33
I2
sg34
Nsg35
Nsg36
S'PRP'
p993
sg38
g972
sg39
I00
sba(issf_api
Word
p994
(dp995
g6
I00
sg7
V\u0938\u0902\u0926\u0947\u0936
p996
sg9
(issf_api
FeatureSet
p997
(dp998
g12
(dp999
S'posn'
p1000
S'50'
p1001
sS'name'
p1002
S'\xe0\xa4\xb8\xe0\xa4\x82\xe0\xa4\xa6\xe0\xa5\x87\xe0\xa4\xb6'
p1003
sS'af'
p1004
S'\xe0\xa4\xb8\xe0\xa4\x82\xe0\xa4\xa6\xe0\xa5\x87\xe0\xa4\xb6,n,m,sg,3,o,0_\xe0\xa4\xae\xe0\xa5\x87\xe0\xa4\x82,0'
p1005
sS'chunkid'
p1006
S'NP3'
p1007
sS'drel'
p1008
S'k7:VGF'
p1009
sS'vpos'
p1010
S'vib_2'
p1011
sS'chunktype'
p1012
S'head:NP3'
p1013
ssbsg28
I00
sg29
I00
sg30
Nsg31
Nsg32
I2
sg33
I2
sg34
Nsg35
Nsg36
S'NN'
p1014
sg38
g997
sg39
I00
sba(issf_api
Word
p1015
(dp1016
g6
I00
sg7
V\u092e\u0947\u0902
p1017
sg9
(issf_api
FeatureSet
p1018
(dp1019
g12
(dp1020
S'posn'
p1021
S'60'
p1022
sS'name'
p1023
S'\xe0\xa4\xae\xe0\xa5\x87\xe0\xa4\x82'
p1024
sS'drel'
p1025
S'lwg__psp:NP3'
p1026
sS'chunktype'
p1027
S'child:NP3'
p1028
sS'af'
p1029
S'\xe0\xa4\xae\xe0\xa5\x87\xe0\xa4\x82,psp,,,,,,'
p1030
ssbsg28
I00
sg29
I00
sg30
Nsg31
Nsg32
I2
sg33
I2
sg34
Nsg35
Nsg36
S'PSP'
p1031
sg38
g1018
sg39
I00
sba(issf_api
Word
p1032
(dp1033
g6
I00
sg7
V\u0915\u0939\u093e
p1034
sg9
(issf_api
FeatureSet
p1035
(dp1036
g12
(dp1037
S'posn'
p1038
S'70'
p1039
sS'name'
p1040
S'\xe0\xa4\x95\xe0\xa4\xb9\xe0\xa4\xbe'
p1041
sS'af'
p1042
S'\xe0\xa4\x95\xe0\xa4\xb9,v,m,sg,any,,\xe0\xa4\xaf\xe0\xa4\xbe,yA'
p1043
sS'chunkid'
p1044
S'VGF'
p1045
sS'chunktype'
p1046
S'head:VGF'
p1047
sS'voicetype'
p1048
S'active'
p1049
sS'stype'
p1050
S'declarative'
p1051
ssbsg28
I00
sg29
I00
sg30
Nsg31
Nsg32
I3
sg33
I2
sg34
Nsg35
Nsg36
S'VM'
p1052
sg38
g1035
sg39
I00
sba(issf_api
Word
p1053
(dp1054
g6
I00
sg7
V\u0915\u093f
p1055
sg9
(issf_api
FeatureSet
p1056
(dp1057
g12
(dp1058
S'posn'
p1059
S'80'
p1060
sS'name'
p1061
S'\xe0\xa4\x95\xe0\xa4\xbf'
p1062
sS'af'
p1063
S'\xe0\xa4\x95\xe0\xa4\xbf,avy,,,,,,'
p1064
sS'chunkid'
p1065
S'CCP'
p1066
sS'drel'
p1067
S'k2:VGF'
p1068
sS'chunktype'
p1069
S'head:CCP'
p1070
ssbsg28
I00
sg29
I00
sg30
Nsg31
Nsg32
I4
sg33
I2
sg34
Nsg35
Nsg36
S'CC'
p1071
sg38
g1056
sg39
I00
sba(issf_api
Word
p1072
(dp1073
g6
I00
sg7
V\u0930\u0902\u0917\u094b\u0902
p1074
sg9
(issf_api
FeatureSet
p1075
(dp1076
g12
(dp1077
S'posn'
p1078
S'90'
p1079
sS'name'
p1080
S'\xe0\xa4\xb0\xe0\xa4\x82\xe0\xa4\x97\xe0\xa5\x8b\xe0\xa4\x82'
p1081
sS'af'
p1082
S'\xe0\xa4\xb0\xe0\xa4\x82\xe0\xa4\x97,n,m,pl,3,o,0_\xe0\xa4\x95\xe0\xa4\xbe,0'
p1083
sS'chunkid'
p1084
S'NP4'
p1085
sS'drel'
p1086
S'r6:NP5'
p1087
sS'vpos'
p1088
S'vib_2'
p1089
sS'chunktype'
p1090
S'head:NP4'
p1091
ssbsg28
I00
sg29
I00
sg30
Nsg31
Nsg32
I5
sg33
I2
sg34
Nsg35
Nsg36
S'NN'
p1092
sg38
g1075
sg39
I00
sba(issf_api
Word
p1093
(dp1094
g6
I00
sg7
V\u0915\u093e
p1095
sg9
(issf_api
FeatureSet
p1096
(dp1097
g12
(dp1098
S'posn'
p1099
S'100'
p1100
sS'name'
p1101
S'\xe0\xa4\x95\xe0\xa4\xbe'
p1102
sS'drel'
p1103
S'lwg__psp:NP4'
p1104
sS'chunktype'
p1105
S'child:NP4'
p1106
sS'af'
p1107
S'\xe0\xa4\x95\xe0\xa4\xbe,psp,m,sg,,d,,'
p1108
ssbsg28
I00
sg29
I00
sg30
Nsg31
Nsg32
I5
sg33
I2
sg34
Nsg35
Nsg36
S'PSP'
p1109
sg38
g1096
sg39
I00
sba(issf_api
Word
p1110
(dp1111
g6
I00
sg7
V\u092f\u0939
p1112
sg9
(issf_api
FeatureSet
p1113
(dp1114
g12
(dp1115
S'posn'
p1116
S'110'
p1117
sS'name'
p1118
S'\xe0\xa4\xaf\xe0\xa4\xb9'
p1119
sS'af'
p1120
S'\xe0\xa4\xaf\xe0\xa4\xb9,pn,any,sg,3,d,,'
p1121
sS'drel'
p1122
S'nmod__adj:NP5'
p1123
sS'chunktype'
p1124
S'child:NP5'
p1125
sS'cref'
p1126
S'i18%0:t5'
p1127
ssbsg28
I00
sg29
I00
sg30
Nsg31
Nsg32
I6
sg33
I2
sg34
Nsg35
Nsg36
S'DEM'
p1128
sg38
g1113
sg39
I00
sba(issf_api
Word
p1129
(dp1130
g6
I00
sg7
V\u0924\u094d\u092f\u094b\u0939\u093e\u0930
p1131
sg9
(issf_api
FeatureSet
p1132
(dp1133
g12
(dp1134
S'crefhead'
p1135
S'\xe0\xa4\xa4\xe0\xa5\x8d\xe0\xa4\xaf\xe0\xa5\x8b\xe0\xa4\xb9\xe0\xa4\xbe\xe0\xa4\xb0:i18'
p1136
sS'posn'
p1137
S'120'
p1138
sS'name'
p1139
S'\xe0\xa4\xa4\xe0\xa5\x8d\xe0\xa4\xaf\xe0\xa5\x8b\xe0\xa4\xb9\xe0\xa4\xbe\xe0\xa4\xb0'
p1140
sS'af'
p1141
S'\xe0\xa4\xa4\xe0\xa5\x8d\xe0\xa4\xaf\xe0\xa5\x8b\xe0\xa4\xb9\xe0\xa4\xbe\xe0\xa4\xb0,n,m,sg,3,d,0,0'
p1142
sS'chunkid'
p1143
S'NP5'
p1144
sS'creftype'
p1145
S'Coreference-Noun-Noun:i13'
p1146
sS'chunktype'
p1147
S'head:NP5'
p1148
sS'cref'
p1149
S'i18%1:t5'
p1150
sS'drel'
p1151
S'k1:VGF2'
p1152
ssbsg28
I00
sg29
I00
sg30
Nsg31
Nsg32
I6
sg33
I2
sg34
Nsg35
Nsg36
S'NN'
p1153
sg38
g1132
sg39
I00
sba(issf_api
Word
p1154
(dp1155
g6
I00
sg7
V\u092d\u093e\u0930\u0924
p1156
sg9
(issf_api
FeatureSet
p1157
(dp1158
g12
(dp1159
S'crefhead'
p1160
S'\xe0\xa4\xad\xe0\xa4\xbe\xe0\xa4\xb0\xe0\xa4\xa4:i19'
p1161
sS'posn'
p1162
S'130'
p1163
sS'name'
p1164
S'\xe0\xa4\xad\xe0\xa4\xbe\xe0\xa4\xb0\xe0\xa4\xa4'
p1165
sS'af'
p1166
S'\xe0\xa4\xad\xe0\xa4\xbe\xe0\xa4\xb0\xe0\xa4\xa4,n,m,sg,3,o,0_\xe0\xa4\x95\xe0\xa4\xbe,0'
p1167
sS'chunkid'
p1168
S'NP6'
p1169
sS'creftype'
p1170
S'Coreference-Noun-Noun:i7'
p1171
sS'chunktype'
p1172
S'head:NP6'
p1173
sS'crefchainhead'
p1174
S'i19:t4'
p1175
sS'vpos'
p1176
S'vib_2'
p1177
sS'cref'
p1178
S'i19%1:t4'
p1179
sS'drel'
p1180
S'r6:NP7'
p1181
ssbsg28
I00
sg29
I00
sg30
Nsg31
Nsg32
I7
sg33
I2
sg34
Nsg35
Nsg36
S'NNP'
p1182
sg38
g1157
sg39
I00
sba(issf_api
Word
p1183
(dp1184
g6
I00
sg7
V\u0915\u0940
p1185
sg9
(issf_api
FeatureSet
p1186
(dp1187
g12
(dp1188
S'posn'
p1189
S'140'
p1190
sS'name'
p1191
S'\xe0\xa4\x95\xe0\xa5\x80'
p1192
sS'drel'
p1193
S'lwg__psp:NP6'
p1194
sS'chunktype'
p1195
S'child:NP6'
p1196
sS'af'
p1197
S'\xe0\xa4\x95\xe0\xa4\xbe,psp,f,sg,,o,,'
p1198
ssbsg28
I00
sg29
I00
sg30
Nsg31
Nsg32
I7
sg33
I2
sg34
Nsg35
Nsg36
S'PSP'
p1199
sg38
g1186
sg39
I00
sba(issf_api
Word
p1200
(dp1201
g6
I00
sg7
V\u0938\u093e\u0902\u0938\u094d\u0915\u0943\u0924\u093f\u0915
p1202
sg9
(issf_api
FeatureSet
p1203
(dp1204
g12
(dp1205
S'posn'
p1206
S'150'
p1207
sS'name'
p1208
S'\xe0\xa4\xb8\xe0\xa4\xbe\xe0\xa4\x82\xe0\xa4\xb8\xe0\xa5\x8d\xe0\xa4\x95\xe0\xa5\x83\xe0\xa4\xa4\xe0\xa4\xbf\xe0\xa4\x95'
p1209
sS'drel'
p1210
S'nmod__adj:NP7'
p1211
sS'chunktype'
p1212
S'child:NP7'
p1213
sS'af'
p1214
S'\xe0\xa4\xb8\xe0\xa4\xbe\xe0\xa4\x82\xe0\xa4\xb8\xe0\xa5\x8d\xe0\xa4\x95\xe0\xa5\x83\xe0\xa4\xa4\xe0\xa4\xbf\xe0\xa4\x95,adj,any,any,,o,,'
p1215
ssbsg28
I00
sg29
I00
sg30
Nsg31
Nsg32
I8
sg33
I2
sg34
Nsg35
Nsg36
S'JJ'
p1216
sg38
g1203
sg39
I00
sba(issf_api
Word
p1217
(dp1218
g6
I00
sg7
V\u0916\u0942\u092c\u0938\u0942\u0930\u0924\u0940
p1219
sg9
(issf_api
FeatureSet
p1220
(dp1221
g12
(dp1222
S'posn'
p1223
S'160'
p1224
sS'name'
p1225
S'\xe0\xa4\x96\xe0\xa5\x82\xe0\xa4\xac\xe0\xa4\xb8\xe0\xa5\x82\xe0\xa4\xb0\xe0\xa4\xa4\xe0\xa5\x80'
p1226
sS'af'
p1227
S'\xe0\xa4\x96\xe0\xa5\x82\xe0\xa4\xac\xe0\xa4\xb8\xe0\xa5\x82\xe0\xa4\xb0\xe0\xa4\xa4\xe0\xa5\x80,n,f,sg,3,o,0,0'
p1228
sS'chunkid'
p1229
S'NP7'
p1230
sS'drel'
p1231
S'ccof:CCP2'
p1232
sS'chunktype'
p1233
S'head:NP7'
p1234
ssbsg28
I00
sg29
I00
sg30
Nsg31
Nsg32
I8
sg33
I2
sg34
Nsg35
Nsg36
S'NN'
p1235
sg38
g1220
sg39
I00
sba(issf_api
Word
p1236
(dp1237
g6
I00
sg7
V\u0935
p1238
sg9
(issf_api
FeatureSet
p1239
(dp1240
g12
(dp1241
S'posn'
p1242
S'170'
p1243
sS'name'
p1244
S'\xe0\xa4\xb5'
p1245
sS'af'
p1246
S'\xe0\xa4\xb5,avy,,,,,,'
p1247
sS'chunkid'
p1248
S'CCP2'
p1249
sS'drel'
p1250
S'k2:VGF2'
p1251
sS'chunktype'
p1252
S'head:CCP2'
p1253
ssbsg28
I00
sg29
I00
sg30
Nsg31
Nsg32
I9
sg33
I2
sg34
Nsg35
Nsg36
S'CC'
p1254
sg38
g1239
sg39
I00
sba(issf_api
Word
p1255
(dp1256
g6
I00
sg7
V\u092e\u091c\u092c\u0942\u0924\u0940
p1257
sg9
(issf_api
FeatureSet
p1258
(dp1259
g12
(dp1260
S'posn'
p1261
S'180'
p1262
sS'name'
p1263
S'\xe0\xa4\xae\xe0\xa4\x9c\xe0\xa4\xac\xe0\xa5\x82\xe0\xa4\xa4\xe0\xa5\x80'
p1264
sS'af'
p1265
S'\xe0\xa4\xae\xe0\xa4\x9c\xe0\xa4\xac\xe0\xa5\x82\xe0\xa4\xa4\xe0\xa5\x80,n,f,sg,3,o,0_\xe0\xa4\x95\xe0\xa5\x8b,0'
p1266
sS'chunkid'
p1267
S'NP8'
p1268
sS'drel'
p1269
S'ccof:CCP2'
p1270
sS'vpos'
p1271
S'vib_2'
p1272
sS'chunktype'
p1273
S'head:NP8'
p1274
ssbsg28
I00
sg29
I00
sg30
Nsg31
Nsg32
I10
sg33
I2
sg34
Nsg35
Nsg36
S'NN'
p1275
sg38
g1258
sg39
I00
sba(issf_api
Word
p1276
(dp1277
g6
I00
sg7
V\u0915\u094b
p1278
sg9
(issf_api
FeatureSet
p1279
(dp1280
g12
(dp1281
S'posn'
p1282
S'190'
p1283
sS'name'
p1284
S'\xe0\xa4\x95\xe0\xa5\x8b'
p1285
sS'drel'
p1286
S'lwg__psp:NP8'
p1287
sS'chunktype'
p1288
S'child:NP8'
p1289
sS'af'
p1290
S'\xe0\xa4\x95\xe0\xa5\x8b,psp,,,,,,'
p1291
ssbsg28
I00
sg29
I00
sg30
Nsg31
Nsg32
I10
sg33
I2
sg34
Nsg35
Nsg36
S'PSP'
p1292
sg38
g1279
sg39
I00
sba(issf_api
Word
p1293
(dp1294
g6
I00
sg7
V\u0926\u0930\u094d\u0936\u093e\u0924\u093e
p1295
sg9
(issf_api
FeatureSet
p1296
(dp1297
g12
(dp1298
S'posn'
p1299
S'200'
p1300
sS'name'
p1301
S'\xe0\xa4\xa6\xe0\xa4\xb0\xe0\xa5\x8d\xe0\xa4\xb6\xe0\xa4\xbe\xe0\xa4\xa4\xe0\xa4\xbe'
p1302
sS'af'
p1303
S'\xe0\xa4\xa6\xe0\xa4\xb0\xe0\xa5\x8d\xe0\xa4\xb6\xe0\xa4\xbe,v,m,sg,3,,\xe0\xa4\xa4\xe0\xa4\xbe_\xe0\xa4\xb9\xe0\xa5\x88,wA'
p1304
sS'chunkid'
p1305
S'VGF2'
p1306
sS'stype'
p1307
S'declarative'
p1308
sS'drel'
p1309
S'ccof:CCP'
p1310
sS'voicetype'
p1311
S'active'
p1312
sS'vpos'
p1313
S'tam_2'
p1314
sS'chunktype'
p1315
S'head:VGF2'
p1316
ssbsg28
I00
sg29
I00
sg30
Nsg31
Nsg32
I11
sg33
I2
sg34
Nsg35
Nsg36
S'VM'
p1317
sg38
g1296
sg39
I00
sba(issf_api
Word
p1318
(dp1319
g6
I00
sg7
V\u0939\u0948
p1320
sg9
(issf_api
FeatureSet
p1321
(dp1322
g12
(dp1323
S'posn'
p1324
S'210'
p1325
sS'name'
p1326
S'\xe0\xa4\xb9\xe0\xa5\x88'
p1327
sS'drel'
p1328
S'lwg__vaux:VGF2'
p1329
sS'chunktype'
p1330
S'child:VGF2'
p1331
sS'af'
p1332
S'\xe0\xa4\xb9\xe0\xa5\x88,v,any,sg,3,,\xe0\xa4\xb9\xe0\xa5\x88,hE'
p1333
ssbsg28
I00
sg29
I00
sg30
Nsg31
Nsg32
I11
sg33
I2
sg34
Nsg35
Nsg36
S'VAUX'
p1334
sg38
g1321
sg39
I00
sba(issf_api
Word
p1335
(dp1336
g6
I00
sg7
V\u0964
p1337
sg9
(issf_api
FeatureSet
p1338
(dp1339
g12
(dp1340
S'posn'
p1341
S'220'
p1342
sS'name'
p1343
S'\xe0\xa5\xa4'
p1344
sS'af'
p1345
S'\xe0\xa5\xa4,punc,,,,,,'
p1346
sS'chunkid'
p1347
S'BLK'
p1348
sS'drel'
p1349
S'rsym:VGF'
p1350
sS'chunktype'
p1351
S'head:BLK'
p1352
ssbsg28
I00
sg29
I00
sg30
Nsg31
Nsg32
I12
sg33
I2
sg34
Nsg35
Nsg36
S'SYM'
p1353
sg38
g1338
sg39
I00
sba(issf_api
Word
p1354
(dp1355
g6
I00
sg7
V\u0935\u0939\u0940\u0902
p1356
sg9
(issf_api
FeatureSet
p1357
(dp1358
g12
(dp1359
S'posn'
p1360
S'10'
p1361
sS'name'
p1362
S'\xe0\xa4\xb5\xe0\xa4\xb9\xe0\xa5\x80\xe0\xa4\x82'
p1363
sS'af'
p1364
S'\xe0\xa4\xb5\xe0\xa4\xb9\xe0\xa5\x80\xe0\xa4\x82,adv,,,,,,'
p1365
sS'chunkid'
p1366
S'RBP'
p1367
sS'drel'
p1368
S'sent-adv:VGF'
p1369
sS'chunktype'
p1370
S'head:RBP'
p1371
ssbsg28
I00
sg29
I00
sg30
Nsg31
Nsg32
I0
sg33
I3
sg34
Nsg35
Nsg36
S'RB'
p1372
sg38
g1357
sg39
I00
sba(issf_api
Word
p1373
(dp1374
g6
I00
sg7
V,
p1375
sg9
(issf_api
FeatureSet
p1376
(dp1377
g12
(dp1378
S'posn'
p1379
S'20'
p1380
sS'name'
p1381
g114
sS'drel'
p1382
S'rsym:RBP'
p1383
sS'chunktype'
p1384
S'child:RBP'
p1385
sS'af'
p1386
S'COMMA,punc,,,,,,'
p1387
ssbsg28
I00
sg29
I00
sg30
Nsg31
Nsg32
I0
sg33
I3
sg34
Nsg35
Nsg36
S'SYM'
p1388
sg38
g1376
sg39
I00
sba(issf_api
Word
p1389
(dp1390
g6
I00
sg7
V\u0938\u094b\u0928\u093f\u092f\u093e
p1391
sg9
(issf_api
FeatureSet
p1392
(dp1393
g12
(dp1394
S'posn'
p1395
S'30'
p1396
sS'name'
p1397
S'\xe0\xa4\xb8\xe0\xa5\x8b\xe0\xa4\xa8\xe0\xa4\xbf\xe0\xa4\xaf\xe0\xa4\xbe'
p1398
sS'af'
p1399
S'\xe0\xa4\xb8\xe0\xa5\x8b\xe0\xa4\xa8\xe0\xa4\xbf\xe0\xa4\xaf\xe0\xa4\xbe,n,f,sg,3,d,0,0'
p1400
sS'drel'
p1401
S'pof__cn:NP'
p1402
sS'chunktype'
p1403
S'child:NP'
p1404
sS'cref'
p1405
S'i20%0:t3'
p1406
ssbsg28
I00
sg29
I00
sg30
Nsg31
Nsg32
I1
sg33
I3
sg34
Nsg35
Nsg36
S'NNPC'
p1407
sg38
g1392
sg39
I00
sba(issf_api
Word
p1408
(dp1409
g6
I00
sg7
V\u0917\u093e\u0902\u0927\u0940
p1410
sg9
(issf_api
FeatureSet
p1411
(dp1412
g12
(dp1413
S'crefhead'
p1414
S'\xe0\xa4\x97\xe0\xa4\xbe\xe0\xa4\x82\xe0\xa4\xa7\xe0\xa5\x80:i20'
p1415
sS'posn'
p1416
S'40'
p1417
sS'name'
p1418
S'\xe0\xa4\x97\xe0\xa4\xbe\xe0\xa4\x82\xe0\xa4\xa7\xe0\xa5\x80'
p1419
sS'af'
p1420
S'\xe0\xa4\x97\xe0\xa4\xbe\xe0\xa4\x82\xe0\xa4\xa7\xe0\xa5\x80,n,any,sg,3,o,0_\xe0\xa4\xa8\xe0\xa5\x87,0'
p1421
sS'chunkid'
p1422
S'NP'
p1423
sS'creftype'
p1424
S'Coreference-Identity:i6'
p1425
sS'chunktype'
p1426
S'head:NP'
p1427
sS'vpos'
p1428
S'vib_3'
p1429
sS'cref'
p1430
S'i20%1:t3'
p1431
sS'drel'
p1432
S'k1:VGF'
p1433
ssbsg28
I00
sg29
I00
sg30
Nsg31
Nsg32
I1
sg33
I3
sg34
Nsg35
Nsg36
S'NNP'
p1434
sg38
g1411
sg39
I00
sba(issf_api
Word
p1435
(dp1436
g6
I00
sg7
V\u0928\u0947
p1437
sg9
(issf_api
FeatureSet
p1438
(dp1439
g12
(dp1440
S'posn'
p1441
S'50'
p1442
sS'name'
p1443
S'\xe0\xa4\xa8\xe0\xa5\x87'
p1444
sS'drel'
p1445
S'lwg__psp:NP'
p1446
sS'chunktype'
p1447
S'child:NP'
p1448
sS'af'
p1449
S'\xe0\xa4\xa8\xe0\xa5\x87,psp,,,,,,'
p1450
ssbsg28
I00
sg29
I00
sg30
Nsg31
Nsg32
I1
sg33
I3
sg34
Nsg35
Nsg36
S'PSP'
p1451
sg38
g1438
sg39
I00
sba(issf_api
Word
p1452
(dp1453
g6
I00
sg7
V\u0915\u0939\u093e
p1454
sg9
(issf_api
FeatureSet
p1455
(dp1456
g12
(dp1457
S'posn'
p1458
S'60'
p1459
sS'name'
p1460
S'\xe0\xa4\x95\xe0\xa4\xb9\xe0\xa4\xbe'
p1461
sS'af'
p1462
S'\xe0\xa4\x95\xe0\xa4\xb9,v,m,sg,any,,\xe0\xa4\xaf\xe0\xa4\xbe,yA'
p1463
sS'chunkid'
p1464
S'VGF'
p1465
sS'chunktype'
p1466
S'head:VGF'
p1467
sS'voicetype'
p1468
S'active'
p1469
sS'stype'
p1470
S'declarative'
p1471
ssbsg28
I00
sg29
I00
sg30
Nsg31
Nsg32
I2
sg33
I3
sg34
Nsg35
Nsg36
S'VM'
p1472
sg38
g1455
sg39
I00
sba(issf_api
Word
p1473
(dp1474
g6
I00
sg7
V\u0915\u093f
p1475
sg9
(issf_api
FeatureSet
p1476
(dp1477
g12
(dp1478
S'posn'
p1479
S'70'
p1480
sS'name'
p1481
S'\xe0\xa4\x95\xe0\xa4\xbf'
p1482
sS'af'
p1483
S'\xe0\xa4\x95\xe0\xa4\xbf,avy,,,,,,'
p1484
sS'chunkid'
p1485
S'CCP'
p1486
sS'drel'
p1487
S'k2:VGF'
p1488
sS'chunktype'
p1489
S'head:CCP'
p1490
ssbsg28
I00
sg29
I00
sg30
Nsg31
Nsg32
I3
sg33
I3
sg34
Nsg35
Nsg36
S'CC'
p1491
sg38
g1476
sg39
I00
sba(issf_api
Word
p1492
(dp1493
g6
I00
sg7
V\u0939\u094b\u0932\u0940
p1494
sg9
(issf_api
FeatureSet
p1495
(dp1496
g12
(dp1497
S'crefhead'
p1498
S'\xe0\xa4\xb9\xe0\xa5\x8b\xe0\xa4\xb2\xe0\xa5\x80:i21'
p1499
sS'posn'
p1500
S'80'
p1501
sS'name'
p1502
S'\xe0\xa4\xb9\xe0\xa5\x8b\xe0\xa4\xb2\xe0\xa5\x80'
p1503
sS'af'
p1504
S'\xe0\xa4\xb9\xe0\xa5\x8b\xe0\xa4\xb2\xe0\xa5\x80,n,f,sg,3,d,0,0'
p1505
sS'chunkid'
p1506
S'NP2'
p1507
sS'creftype'
p1508
S'Coreference-Noun-Noun:i18'
p1509
sS'chunktype'
p1510
S'head:NP2'
p1511
sS'cref'
p1512
S'i21%1:t5'
p1513
sS'drel'
p1514
S'k1:VGF2'
p1515
ssbsg28
I00
sg29
I00
sg30
Nsg31
Nsg32
I4
sg33
I3
sg34
Nsg35
Nsg36
S'NNP'
p1516
sg38
g1495
sg39
I00
sba(issf_api
Word
p1517
(dp1518
g6
I00
sg7
V\u092e\u093f\u0924\u094d\u0930\u0924\u093e
p1519
sg9
(issf_api
FeatureSet
p1520
(dp1521
g12
(dp1522
S'posn'
p1523
S'90'
p1524
sS'name'
p1525
S'\xe0\xa4\xae\xe0\xa4\xbf\xe0\xa4\xa4\xe0\xa5\x8d\xe0\xa4\xb0\xe0\xa4\xa4\xe0\xa4\xbe'
p1526
sS'af'
p1527
S'\xe0\xa4\xae\xe0\xa4\xbf\xe0\xa4\xa4\xe0\xa5\x8d\xe0\xa4\xb0\xe0\xa4\xa4\xe0\xa4\xbe,n,f,sg,3,d,0,0'
p1528
sS'chunkid'
p1529
S'NP3'
p1530
sS'drel'
p1531
S'k2:VGNN'
p1532
sS'chunktype'
p1533
S'head:NP3'
p1534
sS'cref'
p1535
S'i22%0:t5'
p1536
ssbsg28
I00
sg29
I00
sg30
Nsg31
Nsg32
I5
sg33
I3
sg34
Nsg35
Nsg36
S'NN'
p1537
sg38
g1520
sg39
I00
sba(issf_api
Word
p1538
(dp1539
g6
I00
sg7
V\u092c\u0922\u093c\u093e\u0928\u0947
p1540
sg9
(issf_api
FeatureSet
p1541
(dp1542
g12
(dp1543
S'posn'
p1544
S'100'
p1545
sS'name'
p1546
S'\xe0\xa4\xac\xe0\xa4\xa2\xe0\xa4\xbc\xe0\xa4\xbe\xe0\xa4\xa8\xe0\xa5\x87'
p1547
sS'af'
p1548
S'\xe0\xa4\xac\xe0\xa4\xa2\xe0\xa4\xbe,v,any,sg,any,o,\xe0\xa4\xa8\xe0\xa4\xbe_\xe0\xa4\x95\xe0\xa4\xbe,nA'
p1549
sS'chunkid'
p1550
S'VGNN'
p1551
sS'drel'
p1552
S'r6:NP4'
p1553
sS'chunktype'
p1554
S'head:VGNN'
p1555
sS'vpos'
p1556
S'tam_2'
p1557
sS'cref'
p1558
S'i22%0:t5'
p1559
ssbsg28
I00
sg29
I00
sg30
Nsg31
Nsg32
I6
sg33
I3
sg34
Nsg35
Nsg36
S'VM'
p1560
sg38
g1541
sg39
I00
sba(issf_api
Word
p1561
(dp1562
g6
I00
sg7
V\u0915\u093e
p1563
sg9
(issf_api
FeatureSet
p1564
(dp1565
g12
(dp1566
S'posn'
p1567
S'110'
p1568
sS'name'
p1569
S'\xe0\xa4\x95\xe0\xa4\xbe'
p1570
sS'af'
p1571
S'\xe0\xa4\x95\xe0\xa4\xbe,psp,m,sg,,d,,'
p1572
sS'drel'
p1573
S'lwg__psp:VGNN'
p1574
sS'chunktype'
p1575
S'child:VGNN'
p1576
sS'cref'
p1577
S'i22%0:t5'
p1578
ssbsg28
I00
sg29
I00
sg30
Nsg31
Nsg32
I6
sg33
I3
sg34
Nsg35
Nsg36
S'PSP'
p1579
sg38
g1564
sg39
I00
sba(issf_api
Word
p1580
(dp1581
g6
I00
sg7
V\u0924\u094d\u092f\u094b\u0939\u093e\u0930
p1582
sg9
(issf_api
FeatureSet
p1583
(dp1584
g12
(dp1585
S'crefhead'
p1586
S'\xe0\xa4\xa4\xe0\xa5\x8d\xe0\xa4\xaf\xe0\xa5\x8b\xe0\xa4\xb9\xe0\xa4\xbe\xe0\xa4\xb0:i22'
p1587
sS'posn'
p1588
S'120'
p1589
sS'name'
p1590
S'\xe0\xa4\xa4\xe0\xa5\x8d\xe0\xa4\xaf\xe0\xa5\x8b\xe0\xa4\xb9\xe0\xa4\xbe\xe0\xa4\xb0'
p1591
sS'af'
p1592
S'\xe0\xa4\xa4\xe0\xa5\x8d\xe0\xa4\xaf\xe0\xa5\x8b\xe0\xa4\xb9\xe0\xa4\xbe\xe0\xa4\xb0,n,m,sg,3,d,0,0'
p1593
sS'chunkid'
p1594
S'NP4'
p1595
sS'creftype'
p1596
S'Coreference-Apposition:i21'
p1597
sS'chunktype'
p1598
S'head:NP4'
p1599
sS'cref'
p1600
S'i22%1:t5'
p1601
sS'drel'
p1602
S'k1s:VGF2'
p1603
ssbsg28
I00
sg29
I00
sg30
Nsg31
Nsg32
I7
sg33
I3
sg34
Nsg35
Nsg36
S'NN'
p1604
sg38
g1583
sg39
I00
sba(issf_api
Word
p1605
(dp1606
g6
I00
sg7
V\u0939\u0948
p1607
sg9
(issf_api
FeatureSet
p1608
(dp1609
g12
(dp1610
S'posn'
p1611
S'130'
p1612
sS'name'
p1613
S'\xe0\xa4\xb9\xe0\xa5\x88'
p1614
sS'af'
p1615
S'\xe0\xa4\xb9\xe0\xa5\x88,v,any,sg,3,,\xe0\xa4\xb9\xe0\xa5\x88,hE'
p1616
sS'chunkid'
p1617
S'VGF2'
p1618
sS'stype'
p1619
S'declarative'
p1620
sS'drel'
p1621
S'ccof:CCP'
p1622
sS'voicetype'
p1623
S'active'
p1624
sS'chunktype'
p1625
S'head:VGF2'
p1626
ssbsg28
I00
sg29
I00
sg30
Nsg31
Nsg32
I8
sg33
I3
sg34
Nsg35
Nsg36
S'VM'
p1627
sg38
g1608
sg39
I00
sba(issf_api
Word
p1628
(dp1629
g6
I00
sg7
V\u0964
p1630
sg9
(issf_api
FeatureSet
p1631
(dp1632
g12
(dp1633
S'posn'
p1634
S'140'
p1635
sS'name'
p1636
S'\xe0\xa5\xa4'
p1637
sS'af'
p1638
S'\xe0\xa5\xa4,punc,,,,,,'
p1639
sS'chunkid'
p1640
S'BLK'
p1641
sS'drel'
p1642
S'rsym:VGF'
p1643
sS'chunktype'
p1644
S'head:BLK'
p1645
ssbsg28
I00
sg29
I00
sg30
Nsg31
Nsg32
I9
sg33
I3
sg34
Nsg35
Nsg36
S'SYM'
p1646
sg38
g1631
sg39
I00
sba(issf_api
Word
p1647
(dp1648
g6
I00
sg7
V\u0938\u0902\u0918\u0930\u094d\u0937
p1649
sg9
(issf_api
FeatureSet
p1650
(dp1651
g12
(dp1652
S'posn'
p1653
S'10'
p1654
sS'name'
p1655
S'\xe0\xa4\xb8\xe0\xa4\x82\xe0\xa4\x98\xe0\xa4\xb0\xe0\xa5\x8d\xe0\xa4\xb7'
p1656
sS'af'
p1657
S'\xe0\xa4\xb8\xe0\xa4\x82\xe0\xa4\x98\xe0\xa4\xb0\xe0\xa5\x8d\xe0\xa4\xb7,n,m,sg,3,d,0,0'
p1658
sS'chunkid'
p1659
S'NP'
p1660
sS'drel'
p1661
S'k2:VGNN'
p1662
sS'chunktype'
p1663
S'head:NP'
p1664
ssbsg28
I00
sg29
I00
sg30
Nsg31
Nsg32
I0
sg33
I4
sg34
Nsg35
Nsg36
S'NN'
p1665
sg38
g1650
sg39
I00
sba(issf_api
Word
p1666
(dp1667
g6
I00
sg7
V\u092d\u0941\u0932\u093e\u0928\u0947
p1668
sg9
(issf_api
FeatureSet
p1669
(dp1670
g12
(dp1671
S'posn'
p1672
S'20'
p1673
sS'name'
p1674
S'\xe0\xa4\xad\xe0\xa5\x81\xe0\xa4\xb2\xe0\xa4\xbe\xe0\xa4\xa8\xe0\xa5\x87'
p1675
sS'af'
p1676
S'\xe0\xa4\xad\xe0\xa5\x81\xe0\xa4\xb2\xe0\xa4\xbe,v,any,any,any,o,\xe0\xa4\xa8\xe0\xa4\xbe,nA'
p1677
sS'chunkid'
p1678
S'VGNN'
p1679
sS'drel'
p1680
S'ccof:CCP'
p1681
sS'chunktype'
p1682
S'head:VGNN'
p1683
ssbsg28
I00
sg29
I00
sg30
Nsg31
Nsg32
I1
sg33
I4
sg34
Nsg35
Nsg36
S'VM'
p1684
sg38
g1669
sg39
I00
sba(issf_api
Word
p1685
(dp1686
g6
I00
sg7
V\u0935
p1687
sg9
(issf_api
FeatureSet
p1688
(dp1689
g12
(dp1690
S'posn'
p1691
S'30'
p1692
sS'name'
p1693
S'\xe0\xa4\xb5'
p1694
sS'af'
p1695
S'\xe0\xa4\xb5,avy,,,,,,'
p1696
sS'chunkid'
p1697
S'CCP'
p1698
sS'drel'
p1699
S'r6:NP2'
p1700
sS'chunktype'
p1701
S'head:CCP'
p1702
ssbsg28
I00
sg29
I00
sg30
Nsg31
Nsg32
I2
sg33
I4
sg34
Nsg35
Nsg36
S'CC'
p1703
sg38
g1688
sg39
I00
sba(issf_api
Word
p1704
(dp1705
g6
I00
sg7
V\u092e\u093e\u092b
p1706
sg9
(issf_api
FeatureSet
p1707
(dp1708
g12
(dp1709
S'posn'
p1710
S'40'
p1711
sS'name'
p1712
S'\xe0\xa4\xae\xe0\xa4\xbe\xe0\xa4\xab'
p1713
sS'af'
p1714
S'\xe0\xa4\xae\xe0\xa4\xbe\xe0\xa4\xab,adj,any,any,,,,'
p1715
sS'chunkid'
p1716
S'JJP'
p1717
sS'drel'
p1718
S'pof:VGNN2'
p1719
sS'chunktype'
p1720
S'head:JJP'
p1721
ssbsg28
I00
sg29
I00
sg30
Nsg31
Nsg32
I3
sg33
I4
sg34
Nsg35
Nsg36
S'JJ'
p1722
sg38
g1707
sg39
I00
sba(issf_api
Word
p1723
(dp1724
g6
I00
sg7
V\u0915\u0930\u0928\u0947
p1725
sg9
(issf_api
FeatureSet
p1726
(dp1727
g12
(dp1728
S'posn'
p1729
S'50'
p1730
sS'name'
p1731
S'\xe0\xa4\x95\xe0\xa4\xb0\xe0\xa4\xa8\xe0\xa5\x87'
p1732
sS'af'
p1733
S'\xe0\xa4\x95\xe0\xa4\xb0,v,any,sg,any,o,\xe0\xa4\xa8\xe0\xa4\xbe_\xe0\xa4\x95\xe0\xa4\xbe,nA'
p1734
sS'chunkid'
p1735
S'VGNN2'
p1736
sS'drel'
p1737
S'ccof:CCP'
p1738
sS'vpos'
p1739
S'tam_2'
p1740
sS'chunktype'
p1741
S'head:VGNN2'
p1742
ssbsg28
I00
sg29
I00
sg30
Nsg31
Nsg32
I4
sg33
I4
sg34
Nsg35
Nsg36
S'VM'
p1743
sg38
g1726
sg39
I00
sba(issf_api
Word
p1744
(dp1745
g6
I00
sg7
V\u0915\u093e
p1746
sg9
(issf_api
FeatureSet
p1747
(dp1748
g12
(dp1749
S'posn'
p1750
S'60'
p1751
sS'name'
p1752
S'\xe0\xa4\x95\xe0\xa4\xbe'
p1753
sS'drel'
p1754
S'lwg__psp:VGNN2'
p1755
sS'chunktype'
p1756
S'child:VGNN2'
p1757
sS'af'
p1758
S'\xe0\xa4\x95\xe0\xa4\xbe,psp,m,sg,,d,,'
p1759
ssbsg28
I00
sg29
I00
sg30
Nsg31
Nsg32
I4
sg33
I4
sg34
Nsg35
Nsg36
S'PSP'
p1760
sg38
g1747
sg39
I00
sba(issf_api
Word
p1761
(dp1762
g6
I00
sg7
V\u092f\u0939
p1763
sg9
(issf_api
FeatureSet
p1764
(dp1765
g12
(dp1766
S'posn'
p1767
S'70'
p1768
sS'name'
p1769
S'\xe0\xa4\xaf\xe0\xa4\xb9'
p1770
sS'af'
p1771
S'\xe0\xa4\xaf\xe0\xa4\xb9,pn,any,sg,3,d,,'
p1772
sS'drel'
p1773
S'nmod__adj:NP2'
p1774
sS'chunktype'
p1775
S'child:NP2'
p1776
sS'cref'
p1777
S'i23%0:t5'
p1778
ssbsg28
I00
sg29
I00
sg30
Nsg31
Nsg32
I5
sg33
I4
sg34
Nsg35
Nsg36
S'DEM'
p1779
sg38
g1764
sg39
I00
sba(issf_api
Word
p1780
(dp1781
g6
I00
sg7
V\u0909\u0924\u094d\u0938\u0935
p1782
sg9
(issf_api
FeatureSet
p1783
(dp1784
g12
(dp1785
S'crefhead'
p1786
S'\xe0\xa4\x89\xe0\xa4\xa4\xe0\xa5\x8d\xe0\xa4\xb8\xe0\xa4\xb5:i23'
p1787
sS'posn'
p1788
S'80'
p1789
sS'name'
p1790
S'\xe0\xa4\x89\xe0\xa4\xa4\xe0\xa5\x8d\xe0\xa4\xb8\xe0\xa4\xb5'
p1791
sS'af'
p1792
S'\xe0\xa4\x89\xe0\xa4\xa4\xe0\xa5\x8d\xe0\xa4\xb8\xe0\xa4\xb5,n,m,sg,3,d,0,0'
p1793
sS'chunkid'
p1794
S'NP2'
p1795
sS'creftype'
p1796
S'Coreference-Noun-Noun:i30:i21'
p1797
sS'chunktype'
p1798
S'head:NP2'
p1799
sS'cref'
p1800
S'i23%1:t5'
p1801
sS'drel'
p1802
S'k1:VGF'
p1803
ssbsg28
I00
sg29
I00
sg30
Nsg31
Nsg32
I5
sg33
I4
sg34
Nsg35
Nsg36
S'NN'
p1804
sg38
g1783
sg39
I00
sba(issf_api
Word
p1805
(dp1806
g6
I00
sg7
V\u0932\u094b\u0917\u094b\u0902
p1807
sg9
(issf_api
FeatureSet
p1808
(dp1809
g12
(dp1810
S'posn'
p1811
S'90'
p1812
sS'name'
p1813
S'\xe0\xa4\xb2\xe0\xa5\x8b\xe0\xa4\x97\xe0\xa5\x8b\xe0\xa4\x82'
p1814
sS'af'
p1815
S'\xe0\xa4\xb2\xe0\xa5\x8b\xe0\xa4\x97,n,m,pl,3,o,0_\xe0\xa4\x95\xe0\xa5\x87_\xe0\xa4\xac\xe0\xa5\x80\xe0\xa4\x9a_\xe0\xa4\xb8\xe0\xa5\x87,0'
p1816
sS'chunkid'
p1817
S'NP3'
p1818
sS'drel'
p1819
S'k7:VGF'
p1820
sS'vpos'
p1821
S'vib_2_3_4'
p1822
sS'chunktype'
p1823
S'head:NP3'
p1824
ssbsg28
I00
sg29
I00
sg30
Nsg31
Nsg32
I6
sg33
I4
sg34
Nsg35
Nsg36
S'NN'
p1825
sg38
g1808
sg39
I00
sba(issf_api
Word
p1826
(dp1827
g6
I00
sg7
V\u0915\u0947
p1828
sg9
(issf_api
FeatureSet
p1829
(dp1830
g12
(dp1831
S'posn'
p1832
S'100'
p1833
sS'name'
p1834
S'\xe0\xa4\x95\xe0\xa5\x87'
p1835
sS'drel'
p1836
S'lwg__psp:NP3'
p1837
sS'chunktype'
p1838
S'child:NP3'
p1839
sS'af'
p1840
S'\xe0\xa4\x95\xe0\xa5\x87,psp,,,,,,'
p1841
ssbsg28
I00
sg29
I00
sg30
Nsg31
Nsg32
I6
sg33
I4
sg34
Nsg35
Nsg36
S'PSP'
p1842
sg38
g1829
sg39
I00
sba(issf_api
Word
p1843
(dp1844
g6
I00
sg7
V\u092c\u0940\u091a
p1845
sg9
(issf_api
FeatureSet
p1846
(dp1847
g12
(dp1848
S'posn'
p1849
S'110'
p1850
sS'name'
p1851
S'\xe0\xa4\xac\xe0\xa5\x80\xe0\xa4\x9a'
p1852
sS'drel'
p1853
S'lwg__psp:NP3'
p1854
sS'chunktype'
p1855
S'child:NP3'
p1856
sS'af'
p1857
S'\xe0\xa4\xac\xe0\xa5\x80\xe0\xa4\x9a,nst,m,sg,3,o,,'
p1858
ssbsg28
I00
sg29
I00
sg30
Nsg31
Nsg32
I6
sg33
I4
sg34
Nsg35
Nsg36
S'NST'
p1859
sg38
g1846
sg39
I00
sba(issf_api
Word
p1860
(dp1861
g6
I00
sg7
V\u0938\u0947
p1862
sg9
(issf_api
FeatureSet
p1863
(dp1864
g12
(dp1865
S'posn'
p1866
S'120'
p1867
sS'name'
p1868
S'\xe0\xa4\xb8\xe0\xa5\x87'
p1869
sS'drel'
p1870
S'lwg__psp:NP3'
p1871
sS'chunktype'
p1872
S'child:NP3'
p1873
sS'af'
p1874
S'\xe0\xa4\xb8\xe0\xa5\x87,psp,,,,,,'
p1875
ssbsg28
I00
sg29
I00
sg30
Nsg31
Nsg32
I6
sg33
I4
sg34
Nsg35
Nsg36
S'PSP'
p1876
sg38
g1863
sg39
I00
sba(issf_api
Word
p1877
(dp1878
g6
I00
sg7
V\u0926\u094d\u0935\u0947\u0937
p1879
sg9
(issf_api
FeatureSet
p1880
(dp1881
g12
(dp1882
S'posn'
p1883
S'130'
p1884
sS'name'
p1885
S'\xe0\xa4\xa6\xe0\xa5\x8d\xe0\xa4\xb5\xe0\xa5\x87\xe0\xa4\xb7'
p1886
sS'af'
p1887
S'\xe0\xa4\xa6\xe0\xa5\x8d\xe0\xa4\xb5\xe0\xa5\x87\xe0\xa4\xb7,n,m,sg,3,d,0,0'
p1888
sS'chunkid'
p1889
S'NP4'
p1890
sS'drel'
p1891
S'ccof:CCP2'
p1892
sS'chunktype'
p1893
S'head:NP4'
p1894
ssbsg28
I00
sg29
I00
sg30
Nsg31
Nsg32
I7
sg33
I4
sg34
Nsg35
Nsg36
S'NN'
p1895
sg38
g1880
sg39
I00
sba(issf_api
Word
p1896
(dp1897
g6
I00
sg7
V\u0935
p1898
sg9
(issf_api
FeatureSet
p1899
(dp1900
g12
(dp1901
S'posn'
p1902
S'140'
p1903
sS'name'
p1904
S'\xe0\xa4\xb52'
p1905
sS'af'
p1906
S'\xe0\xa4\xb5,avy,,,,,,'
p1907
sS'chunkid'
p1908
S'CCP2'
p1909
sS'drel'
p1910
S'k2:VGF'
p1911
sS'chunktype'
p1912
S'head:CCP2'
p1913
ssbsg28
I00
sg29
I00
sg30
Nsg31
Nsg32
I8
sg33
I4
sg34
Nsg35
Nsg36
S'CC'
p1914
sg38
g1899
sg39
I00
sba(issf_api
Word
p1915
(dp1916
g6
I00
sg7
V\u092d\u0947\u0926\u092d\u093e\u0935
p1917
sg9
(issf_api
FeatureSet
p1918
(dp1919
g12
(dp1920
S'posn'
p1921
S'150'
p1922
sS'name'
p1923
S'\xe0\xa4\xad\xe0\xa5\x87\xe0\xa4\xa6\xe0\xa4\xad\xe0\xa4\xbe\xe0\xa4\xb5'
p1924
sS'af'
p1925
S'\xe0\xa4\xad\xe0\xa5\x87\xe0\xa4\xa6\xe0\xa4\xad\xe0\xa4\xbe\xe0\xa4\xb5,n,m,sg,3,d,0,0'
p1926
sS'chunkid'
p1927
S'NP5'
p1928
sS'drel'
p1929
S'ccof:CCP2'
p1930
sS'chunktype'
p1931
S'head:NP5'
p1932
ssbsg28
I00
sg29
I00
sg30
Nsg31
Nsg32
I9
sg33
I4
sg34
Nsg35
Nsg36
S'NN'
p1933
sg38
g1918
sg39
I00
sba(issf_api
Word
p1934
(dp1935
g6
I00
sg7
V\u092e\u093f\u091f\u093e\u0924\u093e
p1936
sg9
(issf_api
FeatureSet
p1937
(dp1938
g12
(dp1939
S'posn'
p1940
S'160'
p1941
sS'name'
p1942
S'\xe0\xa4\xae\xe0\xa4\xbf\xe0\xa4\x9f\xe0\xa4\xbe\xe0\xa4\xa4\xe0\xa4\xbe'
p1943
sS'af'
p1944
S'\xe0\xa4\xae\xe0\xa4\xbf\xe0\xa4\x9f\xe0\xa4\xbe,v,m,sg,3,,\xe0\xa4\xa4\xe0\xa4\xbe_\xe0\xa4\xb9\xe0\xa5\x88,wA'
p1945
sS'chunkid'
p1946
S'VGF'
p1947
sS'chunktype'
p1948
S'head:VGF'
p1949
sS'voicetype'
p1950
S'active'
p1951
sS'vpos'
p1952
S'tam_2'
p1953
sS'stype'
p1954
S'declarative'
p1955
ssbsg28
I00
sg29
I00
sg30
Nsg31
Nsg32
I10
sg33
I4
sg34
Nsg35
Nsg36
S'VM'
p1956
sg38
g1937
sg39
I00
sba(issf_api
Word
p1957
(dp1958
g6
I00
sg7
V\u0939\u0948
p1959
sg9
(issf_api
FeatureSet
p1960
(dp1961
g12
(dp1962
S'posn'
p1963
S'170'
p1964
sS'name'
p1965
S'\xe0\xa4\xb9\xe0\xa5\x88'
p1966
sS'drel'
p1967
S'lwg__vaux:VGF'
p1968
sS'chunktype'
p1969
S'child:VGF'
p1970
sS'af'
p1971
S'\xe0\xa4\xb9\xe0\xa5\x88,v,any,sg,3,,\xe0\xa4\xb9\xe0\xa5\x88,hE'
p1972
ssbsg28
I00
sg29
I00
sg30
Nsg31
Nsg32
I10
sg33
I4
sg34
Nsg35
Nsg36
S'VAUX'
p1973
sg38
g1960
sg39
I00
sba(issf_api
Word
p1974
(dp1975
g6
I00
sg7
V\u0964
p1976
sg9
(issf_api
FeatureSet
p1977
(dp1978
g12
(dp1979
S'posn'
p1980
S'180'
p1981
sS'name'
p1982
S'\xe0\xa5\xa4'
p1983
sS'af'
p1984
S'\xe0\xa5\xa4,punc,,,,,,'
p1985
sS'chunkid'
p1986
S'BLK'
p1987
sS'drel'
p1988
S'rsym:VGF'
p1989
sS'chunktype'
p1990
S'head:BLK'
p1991
ssbsg28
I00
sg29
I00
sg30
Nsg31
Nsg32
I11
sg33
I4
sg34
Nsg35
Nsg36
S'SYM'
p1992
sg38
g1977
sg39
I00
sba(issf_api
Word
p1993
(dp1994
g6
I00
sg7
V\u0926\u093f\u0932\u094d\u0932\u0940
p1995
sg9
(issf_api
FeatureSet
p1996
(dp1997
g12
(dp1998
S'posn'
p1999
S'10'
p2000
sS'name'
p2001
S'\xe0\xa4\xa6\xe0\xa4\xbf\xe0\xa4\xb2\xe0\xa5\x8d\xe0\xa4\xb2\xe0\xa5\x80'
p2002
sS'af'
p2003
S'\xe0\xa4\xa6\xe0\xa4\xbf\xe0\xa4\xb2\xe0\xa5\x8d\xe0\xa4\xb2\xe0\xa5\x80,n,f,sg,3,o,0_\xe0\xa4\x95\xe0\xa4\xbe,0'
p2004
sS'acrefmodhead'
p2005
S'\xe0\xa4\xa6\xe0\xa4\xbf\xe0\xa4\xb2\xe0\xa5\x8d\xe0\xa4\xb2\xe0\xa5\x80:m1'
p2006
sS'chunkid'
p2007
S'NP'
p2008
sS'acrefmod'
p2009
S'm1%1:i24'
p2010
sS'drel'
p2011
S'r6:NP2'
p2012
sS'vpos'
p2013
S'vib_2'
p2014
sS'chunktype'
p2015
S'head:NP'
p2016
ssbsg28
I00
sg29
I00
sg30
Nsg31
Nsg32
I0
sg33
I5
sg34
Nsg35
Nsg36
S'NNP'
p2017
sg38
g1996
sg39
I00
sba(issf_api
Word
p2018
(dp2019
g6
I00
sg7
V\u0915\u0947
p2020
sg9
(issf_api
FeatureSet
p2021
(dp2022
g12
(dp2023
S'posn'
p2024
S'20'
p2025
sS'name'
p2026
S'\xe0\xa4\x95\xe0\xa5\x87'
p2027
sS'drel'
p2028
S'lwg__psp:NP'
p2029
sS'chunktype'
p2030
S'child:NP'
p2031
sS'af'
p2032
S'\xe0\xa4\x95\xe0\xa4\xbe,psp,m,sg,,o,,'
p2033
ssbsg28
I00
sg29
I00
sg30
Nsg31
Nsg32
I0
sg33
I5
sg34
Nsg35
Nsg36
S'PSP'
p2034
sg38
g2021
sg39
I00
sba(issf_api
Word
p2035
(dp2036
g6
I00
sg7
V\u0932\u0947\u092b\u094d\u091f\u093f\u0928\u0947\u0902\u091f
p2037
sg9
(issf_api
FeatureSet
p2038
(dp2039
g12
(dp2040
S'posn'
p2041
S'30'
p2042
sS'name'
p2043
S'\xe0\xa4\xb2\xe0\xa5\x87\xe0\xa4\xab\xe0\xa5\x8d\xe0\xa4\x9f\xe0\xa4\xbf\xe0\xa4\xa8\xe0\xa5\x87\xe0\xa4\x82\xe0\xa4\x9f'
p2044
sS'af'
p2045
S'\xe0\xa4\xb2\xe0\xa5\x87\xe0\xa4\xab\xe0\xa5\x8d\xe0\xa4\x9f\xe0\xa4\xbf\xe0\xa4\xa8\xe0\xa5\x87\xe0\xa4\x82\xe0\xa4\x9f,n,m,sg,3,d,0,0'
p2046
sS'drel'
p2047
S'pof__cn:NP2'
p2048
sS'chunktype'
p2049
S'child:NP2'
p2050
sS'cref'
p2051
S'i24%0:t6'
p2052
ssbsg28
I00
sg29
I00
sg30
Nsg31
Nsg32
I1
sg33
I5
sg34
Nsg35
Nsg36
S'NNC'
p2053
sg38
g2038
sg39
I00
sba(issf_api
Word
p2054
(dp2055
g6
I00
sg7
V\u0917\u0935\u0930\u094d\u0928\u0930
p2056
sg9
(issf_api
FeatureSet
p2057
(dp2058
g12
(dp2059
S'crefhead'
p2060
S'\xe0\xa4\x97\xe0\xa4\xb5\xe0\xa4\xb0\xe0\xa5\x8d\xe0\xa4\xa8\xe0\xa4\xb0:i24'
p2061
sS'posn'
p2062
S'40'
p2063
sS'name'
p2064
S'\xe0\xa4\x97\xe0\xa4\xb5\xe0\xa4\xb0\xe0\xa5\x8d\xe0\xa4\xa8\xe0\xa4\xb0'
p2065
sS'af'
p2066
S'\xe0\xa4\x97\xe0\xa4\xb5\xe0\xa4\xb0\xe0\xa5\x8d\xe0\xa4\xa8\xe0\xa4\xb0,n,m,sg,3,o,0,0'
p2067
sS'chunkid'
p2068
S'NP2'
p2069
sS'crefmod'
p2070
S'm1:i24'
p2071
sS'chunktype'
p2072
S'head:NP2'
p2073
sS'cref'
p2074
S'i24%1:t6'
p2075
sS'drel'
p2076
S'nmod:NP3'
p2077
ssbsg28
I00
sg29
I00
sg30
Nsg31
Nsg32
I1
sg33
I5
sg34
Nsg35
Nsg36
S'NN'
p2078
sg38
g2057
sg39
I00
sba(issf_api
Word
p2079
(dp2080
g6
I00
sg7
V\u092c\u0940.
p2081
sg9
(issf_api
FeatureSet
p2082
(dp2083
g12
(dp2084
S'posn'
p2085
S'50'
p2086
sS'name'
p2087
S'\xe0\xa4\xac\xe0\xa5\x80.'
p2088
sS'af'
p2089
S'\xe0\xa4\xac\xe0\xa5\x80.,n,m,sg,3,d,0,0'
p2090
sS'drel'
p2091
S'pof__cn:NP3'
p2092
sS'chunktype'
p2093
S'child:NP3'
p2094
sS'cref'
p2095
S'i25%0:t6'
p2096
ssbsg28
I00
sg29
I00
sg30
Nsg31
Nsg32
I2
sg33
I5
sg34
Nsg35
Nsg36
S'NNPC'
p2097
sg38
g2082
sg39
I00
sba(issf_api
Word
p2098
(dp2099
g6
I00
sg7
V\u090f\u0932.
p2100
sg9
(issf_api
FeatureSet
p2101
(dp2102
g12
(dp2103
S'posn'
p2104
S'60'
p2105
sS'name'
p2106
S'\xe0\xa4\x8f\xe0\xa4\xb2.'
p2107
sS'af'
p2108
S'\xe0\xa4\x8f\xe0\xa4\xb2.,null,m,sg,3,d,0,0'
p2109
sS'drel'
p2110
S'pof__cn:NP3'
p2111
sS'chunktype'
p2112
S'child:NP3'
p2113
sS'cref'
p2114
S'i25%0:t6'
p2115
ssbsg28
I00
sg29
I00
sg30
Nsg31
Nsg32
I2
sg33
I5
sg34
Nsg35
Nsg36
S'NNPC'
p2116
sg38
g2101
sg39
I00
sba(issf_api
Word
p2117
(dp2118
g6
I00
sg7
V\u091c\u094b\u0936\u0940
p2119
sg9
(issf_api
FeatureSet
p2120
(dp2121
g12
(dp2122
S'crefhead'
p2123
S'\xe0\xa4\x9c\xe0\xa5\x8b\xe0\xa4\xb6\xe0\xa5\x80:i25'
p2124
sS'posn'
p2125
S'70'
p2126
sS'name'
p2127
S'\xe0\xa4\x9c\xe0\xa5\x8b\xe0\xa4\xb6\xe0\xa5\x80'
p2128
sS'af'
p2129
S'\xe0\xa4\x9c\xe0\xa5\x8b\xe0\xa4\xb6\xe0\xa5\x80,n,any,sg,3,o,0_\xe0\xa4\xa8\xe0\xa5\x87,0'
p2130
sS'chunkid'
p2131
S'NP3'
p2132
sS'creftype'
p2133
S'Coreference-NounComplement:i24'
p2134
sS'chunktype'
p2135
S'head:NP3'
p2136
sS'crefchainhead'
p2137
S'i25:t6'
p2138
sS'vpos'
p2139
S'vib_4'
p2140
sS'cref'
p2141
S'i25%1:t6'
p2142
sS'drel'
p2143
S'k1:VGF'
p2144
ssbsg28
I00
sg29
I00
sg30
Nsg31
Nsg32
I2
sg33
I5
sg34
Nsg35
Nsg36
S'NNP'
p2145
sg38
g2120
sg39
I00
sba(issf_api
Word
p2146
(dp2147
g6
I00
sg7
V\u0928\u0947
p2148
sg9
(issf_api
FeatureSet
p2149
(dp2150
g12
(dp2151
S'posn'
p2152
S'80'
p2153
sS'name'
p2154
S'\xe0\xa4\xa8\xe0\xa5\x87'
p2155
sS'drel'
p2156
S'lwg__psp:NP3'
p2157
sS'chunktype'
p2158
S'child:NP3'
p2159
sS'af'
p2160
S'\xe0\xa4\xa8\xe0\xa5\x87,psp,,,,,,'
p2161
ssbsg28
I00
sg29
I00
sg30
Nsg31
Nsg32
I2
sg33
I5
sg34
Nsg35
Nsg36
S'PSP'
p2162
sg38
g2149
sg39
I00
sba(issf_api
Word
p2163
(dp2164
g6
I00
sg7
V\u0932\u094b\u0917\u094b\u0902
p2165
sg9
(issf_api
FeatureSet
p2166
(dp2167
g12
(dp2168
S'posn'
p2169
S'90'
p2170
sS'name'
p2171
S'\xe0\xa4\xb2\xe0\xa5\x8b\xe0\xa4\x97\xe0\xa5\x8b\xe0\xa4\x82'
p2172
sS'af'
p2173
S'\xe0\xa4\xb2\xe0\xa5\x8b\xe0\xa4\x97,n,m,pl,3,o,0_\xe0\xa4\xb8\xe0\xa5\x87,0'
p2174
sS'chunkid'
p2175
S'NP4'
p2176
sS'drel'
p2177
S'k4:VGF'
p2178
sS'vpos'
p2179
S'vib_2'
p2180
sS'chunktype'
p2181
S'head:NP4'
p2182
ssbsg28
I00
sg29
I00
sg30
Nsg31
Nsg32
I3
sg33
I5
sg34
Nsg35
Nsg36
S'NN'
p2183
sg38
g2166
sg39
I00
sba(issf_api
Word
p2184
(dp2185
g6
I00
sg7
V\u0938\u0947
p2186
sg9
(issf_api
FeatureSet
p2187
(dp2188
g12
(dp2189
S'posn'
p2190
S'100'
p2191
sS'name'
p2192
S'\xe0\xa4\xb8\xe0\xa5\x87'
p2193
sS'drel'
p2194
S'lwg__psp:NP4'
p2195
sS'chunktype'
p2196
S'child:NP4'
p2197
sS'af'
p2198
S'\xe0\xa4\xb8\xe0\xa5\x87,psp,,,,,,'
p2199
ssbsg28
I00
sg29
I00
sg30
Nsg31
Nsg32
I3
sg33
I5
sg34
Nsg35
Nsg36
S'PSP'
p2200
sg38
g2187
sg39
I00
sba(issf_api
Word
p2201
(dp2202
g6
I00
sg7
V\u0907\u0938
p2203
sg9
(issf_api
FeatureSet
p2204
(dp2205
g12
(dp2206
S'posn'
p2207
S'110'
p2208
sS'name'
p2209
S'\xe0\xa4\x87\xe0\xa4\xb8'
p2210
sS'af'
p2211
S'\xe0\xa4\xaf\xe0\xa4\xb9,pn,any,sg,3,o,,'
p2212
sS'drel'
p2213
S'nmod__adj:NP5'
p2214
sS'chunktype'
p2215
S'child:NP5'
p2216
sS'cref'
p2217
S'i26%0:t5'
p2218
ssbsg28
I00
sg29
I00
sg30
Nsg31
Nsg32
I4
sg33
I5
sg34
Nsg35
Nsg36
S'DEM'
p2219
sg38
g2204
sg39
I00
sba(issf_api
Word
p2220
(dp2221
g6
I00
sg7
V\u0924\u094d\u092f\u094b\u0939\u093e\u0930
p2222
sg9
(issf_api
FeatureSet
p2223
(dp2224
g12
(dp2225
S'crefhead'
p2226
S'\xe0\xa4\xa4\xe0\xa5\x8d\xe0\xa4\xaf\xe0\xa5\x8b\xe0\xa4\xb9\xe0\xa4\xbe\xe0\xa4\xb0:i26'
p2227
sS'posn'
p2228
S'120'
p2229
sS'name'
p2230
S'\xe0\xa4\xa4\xe0\xa5\x8d\xe0\xa4\xaf\xe0\xa5\x8b\xe0\xa4\xb9\xe0\xa4\xbe\xe0\xa4\xb0'
p2231
sS'af'
p2232
S'\xe0\xa4\xa4\xe0\xa5\x8d\xe0\xa4\xaf\xe0\xa5\x8b\xe0\xa4\xb9\xe0\xa4\xbe\xe0\xa4\xb0,n,m,sg,3,o,0_\xe0\xa4\x95\xe0\xa5\x8b,0'
p2233
sS'chunkid'
p2234
S'NP5'
p2235
sS'creftype'
p2236
S'Coreference-Noun-Noun:i23'
p2237
sS'chunktype'
p2238
S'head:NP5'
p2239
sS'vpos'
p2240
S'vib_3'
p2241
sS'cref'
p2242
S'i26%1:t5'
p2243
sS'drel'
p2244
S'k2:VGNN'
p2245
ssbsg28
I00
sg29
I00
sg30
Nsg31
Nsg32
I4
sg33
I5
sg34
Nsg35
Nsg36
S'NN'
p2246
sg38
g2223
sg39
I00
sba(issf_api
Word
p2247
(dp2248
g6
I00
sg7
V\u0915\u094b
p2249
sg9
(issf_api
FeatureSet
p2250
(dp2251
g12
(dp2252
S'posn'
p2253
S'130'
p2254
sS'name'
p2255
S'\xe0\xa4\x95\xe0\xa5\x8b'
p2256
sS'drel'
p2257
S'lwg__psp:NP5'
p2258
sS'chunktype'
p2259
S'child:NP5'
p2260
sS'af'
p2261
S'\xe0\xa4\x95\xe0\xa5\x8b,psp,,,,,,'
p2262
ssbsg28
I00
sg29
I00
sg30
Nsg31
Nsg32
I4
sg33
I5
sg34
Nsg35
Nsg36
S'PSP'
p2263
sg38
g2250
sg39
I00
sba(issf_api
Word
p2264
(dp2265
g6
I00
sg7
V\u0936\u093e\u0902\u0924\u093f\u092a\u0942\u0930\u094d\u0935\u0915
p2266
sg9
(issf_api
FeatureSet
p2267
(dp2268
g12
(dp2269
S'posn'
p2270
S'140'
p2271
sS'name'
p2272
S'\xe0\xa4\xb6\xe0\xa4\xbe\xe0\xa4\x82\xe0\xa4\xa4\xe0\xa4\xbf\xe0\xa4\xaa\xe0\xa5\x82\xe0\xa4\xb0\xe0\xa5\x8d\xe0\xa4\xb5\xe0\xa4\x95'
p2273
sS'af'
p2274
S'\xe0\xa4\xb6\xe0\xa4\xbe\xe0\xa4\x82\xe0\xa4\xa4\xe0\xa4\xbf\xe0\xa4\xaa\xe0\xa5\x82\xe0\xa4\xb0\xe0\xa5\x8d\xe0\xa4\xb5\xe0\xa4\x95,adv,,,,,,'
p2275
sS'chunkid'
p2276
S'RBP'
p2277
sS'drel'
p2278
S'adv:VGNN'
p2279
sS'chunktype'
p2280
S'head:RBP'
p2281
ssbsg28
I00
sg29
I00
sg30
Nsg31
Nsg32
I5
sg33
I5
sg34
Nsg35
Nsg36
S'RB'
p2282
sg38
g2267
sg39
I00
sba(issf_api
Word
p2283
(dp2284
g6
I00
sg7
V\u092e\u0928\u093e\u0928\u0947
p2285
sg9
(issf_api
FeatureSet
p2286
(dp2287
g12
(dp2288
S'posn'
p2289
S'150'
p2290
sS'name'
p2291
S'\xe0\xa4\xae\xe0\xa4\xa8\xe0\xa4\xbe\xe0\xa4\xa8\xe0\xa5\x87'
p2292
sS'af'
p2293
S'\xe0\xa4\xae\xe0\xa4\xa8\xe0\xa4\xbe,v,any,sg,any,o,\xe0\xa4\xa8\xe0\xa4\xbe_\xe0\xa4\x95\xe0\xa4\xbe,nA'
p2294
sS'chunkid'
p2295
S'VGNN'
p2296
sS'drel'
p2297
S'r6-k2:NP6'
p2298
sS'vpos'
p2299
S'tam_2'
p2300
sS'chunktype'
p2301
S'head:VGNN'
p2302
ssbsg28
I00
sg29
I00
sg30
Nsg31
Nsg32
I6
sg33
I5
sg34
Nsg35
Nsg36
S'VM'
p2303
sg38
g2286
sg39
I00
sba(issf_api
Word
p2304
(dp2305
g6
I00
sg7
V\u0915\u0940
p2306
sg9
(issf_api
FeatureSet
p2307
(dp2308
g12
(dp2309
S'posn'
p2310
S'160'
p2311
sS'name'
p2312
S'\xe0\xa4\x95\xe0\xa5\x80'
p2313
sS'drel'
p2314
S'lwg__psp:VGNN'
p2315
sS'chunktype'
p2316
S'child:VGNN'
p2317
sS'af'
p2318
S'\xe0\xa4\x95\xe0\xa4\xbe,psp,f,sg,,d,,'
p2319
ssbsg28
I00
sg29
I00
sg30
Nsg31
Nsg32
I6
sg33
I5
sg34
Nsg35
Nsg36
S'PSP'
p2320
sg38
g2307
sg39
I00
sba(issf_api
Word
p2321
(dp2322
g6
I00
sg7
V\u0905\u092a\u0940\u0932
p2323
sg9
(issf_api
FeatureSet
p2324
(dp2325
g12
(dp2326
S'posn'
p2327
S'170'
p2328
sS'name'
p2329
S'\xe0\xa4\x85\xe0\xa4\xaa\xe0\xa5\x80\xe0\xa4\xb2'
p2330
sS'af'
p2331
S'\xe0\xa4\x85\xe0\xa4\xaa\xe0\xa5\x80\xe0\xa4\xb2,n,f,sg,3,d,0,0'
p2332
sS'chunkid'
p2333
S'NP6'
p2334
sS'drel'
p2335
S'pof:VGF'
p2336
sS'chunktype'
p2337
S'head:NP6'
p2338
ssbsg28
I00
sg29
I00
sg30
Nsg31
Nsg32
I7
sg33
I5
sg34
Nsg35
Nsg36
S'NN'
p2339
sg38
g2324
sg39
I00
sba(issf_api
Word
p2340
(dp2341
g6
I00
sg7
V\u0915\u0940
p2342
sg9
(issf_api
FeatureSet
p2343
(dp2344
g12
(dp2345
S'posn'
p2346
S'180'
p2347
sS'name'
p2348
S'\xe0\xa4\x95\xe0\xa5\x802'
p2349
sS'af'
p2350
S'\xe0\xa4\x95\xe0\xa4\xb0,v,f,sg,any,,\xe0\xa4\xaf\xe0\xa4\xbe,yA'
p2351
sS'chunkid'
p2352
S'VGF'
p2353
sS'chunktype'
p2354
S'head:VGF'
p2355
sS'voicetype'
p2356
S'active'
p2357
sS'stype'
p2358
S'declarative'
p2359
ssbsg28
I00
sg29
I00
sg30
Nsg31
Nsg32
I8
sg33
I5
sg34
Nsg35
Nsg36
S'VM'
p2360
sg38
g2343
sg39
I00
sba(issf_api
Word
p2361
(dp2362
g6
I00
sg7
V\u0964
p2363
sg9
(issf_api
FeatureSet
p2364
(dp2365
g12
(dp2366
S'posn'
p2367
S'190'
p2368
sS'name'
p2369
S'\xe0\xa5\xa4'
p2370
sS'af'
p2371
S'\xe0\xa5\xa4,punc,,,,,,'
p2372
sS'chunkid'
p2373
S'BLK'
p2374
sS'drel'
p2375
S'rsym:VGF'
p2376
sS'chunktype'
p2377
S'head:BLK'
p2378
ssbsg28
I00
sg29
I00
sg30
Nsg31
Nsg32
I9
sg33
I5
sg34
Nsg35
Nsg36
S'SYM'
p2379
sg38
g2364
sg39
I00
sbasS'sentenceList'
p2380
(lp2381
(issf_api
Sentence
p2382
(dp2383
S'rootNode'
p2384
(lp2385
sg33
I0
sS'wordNumList'
p2386
(lp2387
I0
aI1
aI2
aI3
aI4
aI5
aI6
aI7
aI8
aI9
aI10
aI11
aI12
aI13
aI14
aI15
aI16
aI17
aI18
aI19
aI20
aI21
aI22
asS'nodeDict'
p2388
(dp2389
S'VGF'
p2390
(issf_api
Node
p2391
(dp2392
S'nodeRelation'
p2393
S'None'
p2394
sS'nodeName'
p2395
g2390
sS'nodeParent'
p2396
g2394
sS'nodeLevel'
p2397
I-1
sg32
I8
sS'childList'
p2398
(lp2399
S'CCP'
p2400
aS'NP5'
p2401
aS'BLK'
p2402
aS'NP4'
p2403
aS'NP7'
p2404
aS'NP6'
p2405
asbsg2400
(issf_api
Node
p2406
(dp2407
g2393
S'k1'
p2408
sg2395
g2400
sg2396
S'VGF'
p2409
sg2397
I-1
sg32
I2
sg2398
(lp2410
S'NP'
p2411
aS'NP3'
p2412
aS'NP2'
p2413
asbsg2401
(issf_api
Node
p2414
(dp2415
g2393
S'k4'
p2416
sg2395
g2401
sg2396
S'VGF'
p2417
sg2397
I-1
sg32
I5
sg2398
(lp2418
sbsg2402
(issf_api
Node
p2419
(dp2420
g2393
S'rsym'
p2421
sg2395
g2402
sg2396
S'VGF'
p2422
sg2397
I-1
sg32
I9
sg2398
(lp2423
sbsg2411
(issf_api
Node
p2424
(dp2425
g2393
S'ccof'
p2426
sg2395
g2411
sg2396
S'CCP'
p2427
sg2397
I-1
sg32
I0
sg2398
(lp2428
sbsg2403
(issf_api
Node
p2429
(dp2430
g2393
S'k7t'
p2431
sg2395
g2403
sg2396
S'VGF'
p2432
sg2397
I-1
sg32
I4
sg2398
(lp2433
sbsg2404
(issf_api
Node
p2434
(dp2435
g2393
S'k2'
p2436
sg2395
g2404
sg2396
S'VGF'
p2437
sg2397
I-1
sg32
I7
sg2398
(lp2438
sbsg2405
(issf_api
Node
p2439
(dp2440
g2393
S'k7'
p2441
sg2395
g2405
sg2396
S'VGF'
p2442
sg2397
I-1
sg32
I6
sg2398
(lp2443
sbsg2412
(issf_api
Node
p2444
(dp2445
g2393
S'ccof'
p2446
sg2395
g2412
sg2396
S'CCP'
p2447
sg2397
I-1
sg32
I3
sg2398
(lp2448
sbsg2413
(issf_api
Node
p2449
(dp2450
g2393
S'ccof'
p2451
sg2395
g2413
sg2396
S'CCP'
p2452
sg2397
I-1
sg32
I1
sg2398
(lp2453
sbssS'chunkList'
p2454
(lp2455
(issf_api
Chunk
p2456
(dp2457
g2395
g93
sg32
I0
sS'chunkTag'
p2458
g104
sg33
I0
sg2386
(lp2459
I0
aI1
aI2
aI3
aI4
asg38
(issf_api
FeatureSet
p2460
(dp2461
g12
(dp2462
S'name'
p2463
g2411
sS'drel'
p2464
S'ccof:CCP'
p2465
ssbsba(issf_api
Chunk
p2466
(dp2467
g2395
g177
sg32
I1
sg2458
g188
sg33
I0
sg2386
(lp2468
I5
aI6
aI7
asg38
(issf_api
FeatureSet
p2469
(dp2470
g12
(dp2471
S'name'
p2472
g2413
sS'drel'
p2473
S'ccof:CCP'
p2474
ssbsba(issf_api
Chunk
p2475
(dp2476
g2395
g202
sg32
I2
sg2458
g207
sg33
I0
sg2386
(lp2477
I8
asg38
(issf_api
FeatureSet
p2478
(dp2479
g12
(dp2480
S'name'
p2481
g2400
sS'drel'
p2482
S'k1:VGF'
p2483
ssbsba(issf_api
Chunk
p2484
(dp2485
g2395
g282
sg32
I3
sg2458
g295
sg33
I0
sg2386
(lp2486
I9
aI10
aI11
aI12
aI13
asg38
(issf_api
FeatureSet
p2487
(dp2488
g12
(dp2489
S'name'
p2490
g2412
sS'drel'
p2491
S'ccof:CCP'
p2492
ssbsba(issf_api
Chunk
p2493
(dp2494
g2395
g326
sg32
I4
sg2458
g333
sg33
I0
sg2386
(lp2495
I14
aI15
asg38
(issf_api
FeatureSet
p2496
(dp2497
g12
(dp2498
S'name'
p2499
g2403
sS'drel'
p2500
S'k7t:VGF'
p2501
ssbsba(issf_api
Chunk
p2502
(dp2503
g2395
g366
sg32
I5
sg2458
g375
sg33
I0
sg2386
(lp2504
I16
aI17
asg38
(issf_api
FeatureSet
p2505
(dp2506
g12
(dp2507
S'name'
p2508
g2401
sS'drel'
p2509
S'k4:VGF'
p2510
ssbsba(issf_api
Chunk
p2511
(dp2512
g2395
g408
sg32
I6
sg2458
g419
sg33
I0
sg2386
(lp2513
I18
aI19
asg38
(issf_api
FeatureSet
p2514
(dp2515
g12
(dp2516
S'name'
p2517
g2405
sS'drel'
p2518
S'k7:VGF'
p2519
ssbsba(issf_api
Chunk
p2520
(dp2521
g2395
g450
sg32
I7
sg2458
g455
sg33
I0
sg2386
(lp2522
I20
asg38
(issf_api
FeatureSet
p2523
(dp2524
g12
(dp2525
S'name'
p2526
g2404
sS'drel'
p2527
S'k2:VGF'
p2528
ssbsba(issf_api
Chunk
p2529
(dp2530
g2395
g469
sg32
I8
sg2458
g476
sg33
I0
sg2386
(lp2531
I21
asg38
(issf_api
FeatureSet
p2532
(dp2533
g12
(dp2534
S'name'
p2535
g2390
ssbsba(issf_api
Chunk
p2536
(dp2537
g2395
g490
sg32
I9
sg2458
g495
sg33
I0
sg2386
(lp2538
I22
asg38
(issf_api
FeatureSet
p2539
(dp2540
g12
(dp2541
S'name'
p2542
g2402
sS'drel'
p2543
S'rsym:VGF'
p2544
ssbsbasba(issf_api
Sentence
p2545
(dp2546
g2384
(lp2547
sg33
I1
sg2386
(lp2548
I23
aI24
aI25
aI26
aI27
aI28
aI29
aI30
aI31
aI32
aI33
aI34
aI35
aI36
aI37
aI38
aI39
aI40
aI41
aI42
asg2388
(dp2549
S'VGF2'
p2550
(issf_api
Node
p2551
(dp2552
g2393
S'ccof'
p2553
sg2395
g2550
sg2396
S'CCP'
p2554
sg2397
I-1
sg32
I12
sg2398
(lp2555
S'NP5'
p2556
aS'NULL__NP'
p2557
asbsS'VGNN'
p2558
(issf_api
Node
p2559
(dp2560
g2393
S'ccof'
p2561
sg2395
g2558
sg2396
S'CCP2'
p2562
sg2397
I-1
sg32
I8
sg2398
(lp2563
S'NP6'
p2564
asbsS'VGF'
p2565
(issf_api
Node
p2566
(dp2567
g2393
g2394
sg2395
g2565
sg2396
g2394
sg2397
I-1
sg32
I3
sg2398
(lp2568
S'CCP'
p2569
aS'BLK'
p2570
aS'NP'
p2571
aS'NP3'
p2572
asbsg2569
(issf_api
Node
p2573
(dp2574
g2393
S'k2'
p2575
sg2395
g2569
sg2396
S'VGF'
p2576
sg2397
I-1
sg32
I4
sg2398
(lp2577
g2550
asbsS'JJP'
p2578
(issf_api
Node
p2579
(dp2580
g2393
S'pof'
p2581
sg2395
g2578
sg2396
S'VGNN2'
p2582
sg2397
I-1
sg32
I10
sg2398
(lp2583
sbsS'VGNN2'
p2584
(issf_api
Node
p2585
(dp2586
g2393
S'ccof'
p2587
sg2395
g2584
sg2396
S'CCP2'
p2588
sg2397
I-1
sg32
I11
sg2398
(lp2589
g2578
asbsg2556
(issf_api
Node
p2590
(dp2591
g2393
S'k1'
p2592
sg2395
g2556
sg2396
S'VGF2'
p2593
sg2397
I-1
sg32
I6
sg2398
(lp2594
S'NP4'
p2595
asbsg2570
(issf_api
Node
p2596
(dp2597
g2393
S'rsym'
p2598
sg2395
g2570
sg2396
S'VGF'
p2599
sg2397
I-1
sg32
I13
sg2398
(lp2600
sbsg2557
(issf_api
Node
p2601
(dp2602
g2393
S'k1s'
p2603
sg2395
g2557
sg2396
S'VGF2'
p2604
sg2397
I-1
sg32
I-1
sg2398
(lp2605
S'CCP2'
p2606
asbsg2571
(issf_api
Node
p2607
(dp2608
g2393
S'k1'
p2609
sg2395
g2571
sg2396
S'VGF'
p2610
sg2397
I-1
sg32
I0
sg2398
(lp2611
sbsg2595
(issf_api
Node
p2612
(dp2613
g2393
S'r6'
p2614
sg2395
g2595
sg2396
S'NP5'
p2615
sg2397
I-1
sg32
I5
sg2398
(lp2616
sbsg2564
(issf_api
Node
p2617
(dp2618
g2393
S'k2'
p2619
sg2395
g2564
sg2396
S'VGNN'
p2620
sg2397
I-1
sg32
I7
sg2398
(lp2621
sbsg2606
(issf_api
Node
p2622
(dp2623
g2393
S'r6'
p2624
sg2395
g2606
sg2396
S'NULL__NP'
p2625
sg2397
I-1
sg32
I9
sg2398
(lp2626
g2558
ag2584
asbsg2572
(issf_api
Node
p2627
(dp2628
g2393
S'k7'
p2629
sg2395
g2572
sg2396
S'VGF'
p2630
sg2397
I-1
sg32
I2
sg2398
(lp2631
S'NP2'
p2632
asbsg2632
(issf_api
Node
p2633
(dp2634
g2393
S'r6'
p2635
sg2395
g2632
sg2396
S'NP3'
p2636
sg2397
I-1
sg32
I1
sg2398
(lp2637
sbssg2454
(lp2638
(issf_api
Chunk
p2639
(dp2640
g2395
g534
sg32
I0
sg2458
g545
sg33
I1
sg2386
(lp2641
I23
aI24
aI25
asg38
(issf_api
FeatureSet
p2642
(dp2643
g12
(dp2644
S'name'
p2645
g2571
sS'drel'
p2646
S'k1:VGF'
p2647
ssbsba(issf_api
Chunk
p2648
(dp2649
g2395
g578
sg32
I1
sg2458
g587
sg33
I1
sg2386
(lp2650
I26
asg38
(issf_api
FeatureSet
p2651
(dp2652
g12
(dp2653
S'name'
p2654
g2632
sS'drel'
p2655
S'r6:NP3'
p2656
ssbsba(issf_api
Chunk
p2657
(dp2658
g2395
g618
sg32
I2
sg2458
g625
sg33
I1
sg2386
(lp2659
I27
aI28
aI29
asg38
(issf_api
FeatureSet
p2660
(dp2661
g12
(dp2662
S'name'
p2663
g2572
sS'drel'
p2664
S'k7:VGF'
p2665
ssbsba(issf_api
Chunk
p2666
(dp2667
g2395
g656
sg32
I3
sg2458
g663
sg33
I1
sg2386
(lp2668
I30
asg38
(issf_api
FeatureSet
p2669
(dp2670
g12
(dp2671
S'name'
p2672
g2565
ssbsba(issf_api
Chunk
p2673
(dp2674
g2395
g677
sg32
I4
sg2458
g682
sg33
I1
sg2386
(lp2675
I31
asg38
(issf_api
FeatureSet
p2676
(dp2677
g12
(dp2678
S'name'
p2679
g2569
sS'drel'
p2680
S'k2:VGF'
p2681
ssbsba(issf_api
Chunk
p2682
(dp2683
g2395
g698
sg32
I5
sg2458
g709
sg33
I1
sg2386
(lp2684
I32
aI33
asg38
(issf_api
FeatureSet
p2685
(dp2686
g12
(dp2687
S'name'
p2688
g2595
sS'drel'
p2689
S'r6:NP5'
p2690
ssbsba(issf_api
Chunk
p2691
(dp2692
g2395
g740
sg32
I6
sg2458
g745
sg33
I1
sg2386
(lp2693
I34
asg38
(issf_api
FeatureSet
p2694
(dp2695
g12
(dp2696
S'name'
p2697
g2556
sS'drel'
p2698
S'k1:VGF2'
p2699
ssbsba(issf_api
Chunk
p2700
(dp2701
g2395
g759
sg32
I7
sg2458
g764
sg33
I1
sg2386
(lp2702
I35
asg38
(issf_api
FeatureSet
p2703
(dp2704
g12
(dp2705
S'name'
p2706
g2564
sS'drel'
p2707
S'k2:VGNN'
p2708
ssbsba(issf_api
Chunk
p2709
(dp2710
g2395
g778
sg32
I8
sg2458
g783
sg33
I1
sg2386
(lp2711
I36
asg38
(issf_api
FeatureSet
p2712
(dp2713
g12
(dp2714
S'name'
p2715
g2558
sS'drel'
p2716
S'ccof:CCP2'
p2717
ssbsba(issf_api
Chunk
p2718
(dp2719
g2395
g797
sg32
I9
sg2458
g802
sg33
I1
sg2386
(lp2720
I37
asg38
(issf_api
FeatureSet
p2721
(dp2722
g12
(dp2723
S'name'
p2724
g2606
sS'drel'
p2725
S'r6:NULL__NP'
p2726
ssbsba(issf_api
Chunk
p2727
(dp2728
g2395
g816
sg32
I10
sg2458
g821
sg33
I1
sg2386
(lp2729
I38
asg38
(issf_api
FeatureSet
p2730
(dp2731
g12
(dp2732
S'name'
p2733
g2578
sS'drel'
p2734
S'pof:VGNN2'
p2735
ssbsba(issf_api
Chunk
p2736
(dp2737
g2395
g835
sg32
I11
sg2458
g842
sg33
I1
sg2386
(lp2738
I39
aI40
asg38
(issf_api
FeatureSet
p2739
(dp2740
g12
(dp2741
S'name'
p2742
g2584
sS'drel'
p2743
S'ccof:CCP2'
p2744
ssbsba(issf_api
Chunk
p2745
(dp2746
g2395
g873
sg32
I12
sg2458
g882
sg33
I1
sg2386
(lp2747
I41
asg38
(issf_api
FeatureSet
p2748
(dp2749
g12
(dp2750
S'name'
p2751
g2550
sS'drel'
p2752
S'ccof:CCP'
p2753
ssbsba(issf_api
Chunk
p2754
(dp2755
g2395
g896
sg32
I13
sg2458
g901
sg33
I1
sg2386
(lp2756
I42
asg38
(issf_api
FeatureSet
p2757
(dp2758
g12
(dp2759
S'name'
p2760
g2570
sS'drel'
p2761
S'rsym:VGF'
p2762
ssbsbasba(issf_api
Sentence
p2763
(dp2764
g2384
(lp2765
sg33
I2
sg2386
(lp2766
I43
aI44
aI45
aI46
aI47
aI48
aI49
aI50
aI51
aI52
aI53
aI54
aI55
aI56
aI57
aI58
aI59
aI60
aI61
aI62
aI63
aI64
asg2388
(dp2767
S'VGF'
p2768
(issf_api
Node
p2769
(dp2770
g2393
g2394
sg2395
g2768
sg2396
g2394
sg2397
I-1
sg32
I3
sg2398
(lp2771
S'CCP'
p2772
aS'BLK'
p2773
aS'NP'
p2774
aS'NP3'
p2775
asbsg2772
(issf_api
Node
p2776
(dp2777
g2393
S'k2'
p2778
sg2395
g2772
sg2396
S'VGF'
p2779
sg2397
I-1
sg32
I4
sg2398
(lp2780
S'VGF2'
p2781
asbsg2781
(issf_api
Node
p2782
(dp2783
g2393
S'ccof'
p2784
sg2395
g2781
sg2396
S'CCP'
p2785
sg2397
I-1
sg32
I11
sg2398
(lp2786
S'NP5'
p2787
aS'CCP2'
p2788
asbsg2787
(issf_api
Node
p2789
(dp2790
g2393
S'k1'
p2791
sg2395
g2787
sg2396
S'VGF2'
p2792
sg2397
I-1
sg32
I6
sg2398
(lp2793
S'NP4'
p2794
asbsS'NP8'
p2795
(issf_api
Node
p2796
(dp2797
g2393
S'ccof'
p2798
sg2395
g2795
sg2396
S'CCP2'
p2799
sg2397
I-1
sg32
I10
sg2398
(lp2800
sbsg2773
(issf_api
Node
p2801
(dp2802
g2393
S'rsym'
p2803
sg2395
g2773
sg2396
S'VGF'
p2804
sg2397
I-1
sg32
I12
sg2398
(lp2805
sbsg2774
(issf_api
Node
p2806
(dp2807
g2393
S'k1'
p2808
sg2395
g2774
sg2396
S'VGF'
p2809
sg2397
I-1
sg32
I0
sg2398
(lp2810
sbsg2794
(issf_api
Node
p2811
(dp2812
g2393
S'r6'
p2813
sg2395
g2794
sg2396
S'NP5'
p2814
sg2397
I-1
sg32
I5
sg2398
(lp2815
sbsS'NP7'
p2816
(issf_api
Node
p2817
(dp2818
g2393
S'ccof'
p2819
sg2395
g2816
sg2396
S'CCP2'
p2820
sg2397
I-1
sg32
I8
sg2398
(lp2821
S'NP6'
p2822
asbsg2822
(issf_api
Node
p2823
(dp2824
g2393
S'r6'
p2825
sg2395
g2822
sg2396
S'NP7'
p2826
sg2397
I-1
sg32
I7
sg2398
(lp2827
sbsg2788
(issf_api
Node
p2828
(dp2829
g2393
S'k2'
p2830
sg2395
g2788
sg2396
S'VGF2'
p2831
sg2397
I-1
sg32
I9
sg2398
(lp2832
g2795
ag2816
asbsg2775
(issf_api
Node
p2833
(dp2834
g2393
S'k7'
p2835
sg2395
g2775
sg2396
S'VGF'
p2836
sg2397
I-1
sg32
I2
sg2398
(lp2837
S'NP2'
p2838
asbsg2838
(issf_api
Node
p2839
(dp2840
g2393
S'r6'
p2841
sg2395
g2838
sg2396
S'NP3'
p2842
sg2397
I-1
sg32
I1
sg2398
(lp2843
sbssg2454
(lp2844
(issf_api
Chunk
p2845
(dp2846
g2395
g940
sg32
I0
sg2458
g951
sg33
I2
sg2386
(lp2847
I43
aI44
aI45
asg38
(issf_api
FeatureSet
p2848
(dp2849
g12
(dp2850
S'name'
p2851
g2774
sS'drel'
p2852
S'k1:VGF'
p2853
ssbsba(issf_api
Chunk
p2854
(dp2855
g2395
g984
sg32
I1
sg2458
g993
sg33
I2
sg2386
(lp2856
I46
asg38
(issf_api
FeatureSet
p2857
(dp2858
g12
(dp2859
S'name'
p2860
g2838
sS'drel'
p2861
S'r6:NP3'
p2862
ssbsba(issf_api
Chunk
p2863
(dp2864
g2395
g1007
sg32
I2
sg2458
g1014
sg33
I2
sg2386
(lp2865
I47
aI48
asg38
(issf_api
FeatureSet
p2866
(dp2867
g12
(dp2868
S'name'
p2869
g2775
sS'drel'
p2870
S'k7:VGF'
p2871
ssbsba(issf_api
Chunk
p2872
(dp2873
g2395
g1045
sg32
I3
sg2458
g1052
sg33
I2
sg2386
(lp2874
I49
asg38
(issf_api
FeatureSet
p2875
(dp2876
g12
(dp2877
S'name'
p2878
g2768
ssbsba(issf_api
Chunk
p2879
(dp2880
g2395
g1066
sg32
I4
sg2458
g1071
sg33
I2
sg2386
(lp2881
I50
asg38
(issf_api
FeatureSet
p2882
(dp2883
g12
(dp2884
S'name'
p2885
g2772
sS'drel'
p2886
S'k2:VGF'
p2887
ssbsba(issf_api
Chunk
p2888
(dp2889
g2395
g1085
sg32
I5
sg2458
g1092
sg33
I2
sg2386
(lp2890
I51
aI52
asg38
(issf_api
FeatureSet
p2891
(dp2892
g12
(dp2893
S'name'
p2894
g2794
sS'drel'
p2895
S'r6:NP5'
p2896
ssbsba(issf_api
Chunk
p2897
(dp2898
g2395
g1144
sg32
I6
sg2458
g1153
sg33
I2
sg2386
(lp2899
I53
aI54
asg38
(issf_api
FeatureSet
p2900
(dp2901
g12
(dp2902
S'name'
p2903
g2787
sS'drel'
p2904
S'k1:VGF2'
p2905
ssbsba(issf_api
Chunk
p2906
(dp2907
g2395
g1169
sg32
I7
sg2458
g1182
sg33
I2
sg2386
(lp2908
I55
aI56
asg38
(issf_api
FeatureSet
p2909
(dp2910
g12
(dp2911
S'name'
p2912
g2822
sS'drel'
p2913
S'r6:NP7'
p2914
ssbsba(issf_api
Chunk
p2915
(dp2916
g2395
g1230
sg32
I8
sg2458
g1235
sg33
I2
sg2386
(lp2917
I57
aI58
asg38
(issf_api
FeatureSet
p2918
(dp2919
g12
(dp2920
S'name'
p2921
g2816
sS'drel'
p2922
S'ccof:CCP2'
p2923
ssbsba(issf_api
Chunk
p2924
(dp2925
g2395
g1249
sg32
I9
sg2458
g1254
sg33
I2
sg2386
(lp2926
I59
asg38
(issf_api
FeatureSet
p2927
(dp2928
g12
(dp2929
S'name'
p2930
g2788
sS'drel'
p2931
S'k2:VGF2'
p2932
ssbsba(issf_api
Chunk
p2933
(dp2934
g2395
g1268
sg32
I10
sg2458
g1275
sg33
I2
sg2386
(lp2935
I60
aI61
asg38
(issf_api
FeatureSet
p2936
(dp2937
g12
(dp2938
S'name'
p2939
g2795
sS'drel'
p2940
S'ccof:CCP2'
p2941
ssbsba(issf_api
Chunk
p2942
(dp2943
g2395
g1306
sg32
I11
sg2458
g1317
sg33
I2
sg2386
(lp2944
I62
aI63
asg38
(issf_api
FeatureSet
p2945
(dp2946
g12
(dp2947
S'name'
p2948
g2781
sS'drel'
p2949
S'ccof:CCP'
p2950
ssbsba(issf_api
Chunk
p2951
(dp2952
g2395
g1348
sg32
I12
sg2458
g1353
sg33
I2
sg2386
(lp2953
I64
asg38
(issf_api
FeatureSet
p2954
(dp2955
g12
(dp2956
S'name'
p2957
g2773
sS'drel'
p2958
S'rsym:VGF'
p2959
ssbsbasba(issf_api
Sentence
p2960
(dp2961
g2384
(lp2962
sg33
I3
sg2386
(lp2963
I65
aI66
aI67
aI68
aI69
aI70
aI71
aI72
aI73
aI74
aI75
aI76
aI77
aI78
asg2388
(dp2964
S'VGF2'
p2965
(issf_api
Node
p2966
(dp2967
g2393
S'ccof'
p2968
sg2395
g2965
sg2396
S'CCP'
p2969
sg2397
I-1
sg32
I8
sg2398
(lp2970
S'NP4'
p2971
aS'NP2'
p2972
asbsS'VGNN'
p2973
(issf_api
Node
p2974
(dp2975
g2393
S'r6'
p2976
sg2395
g2973
sg2396
S'NP4'
p2977
sg2397
I-1
sg32
I6
sg2398
(lp2978
S'NP3'
p2979
asbsS'VGF'
p2980
(issf_api
Node
p2981
(dp2982
g2393
g2394
sg2395
g2980
sg2396
g2394
sg2397
I-1
sg32
I2
sg2398
(lp2983
S'CCP'
p2984
aS'RBP'
p2985
aS'BLK'
p2986
aS'NP'
p2987
asbsg2984
(issf_api
Node
p2988
(dp2989
g2393
S'k2'
p2990
sg2395
g2984
sg2396
S'VGF'
p2991
sg2397
I-1
sg32
I3
sg2398
(lp2992
g2965
asbsg2985
(issf_api
Node
p2993
(dp2994
g2393
S'sent-adv'
p2995
sg2395
g2985
sg2396
S'VGF'
p2996
sg2397
I-1
sg32
I0
sg2398
(lp2997
sbsg2986
(issf_api
Node
p2998
(dp2999
g2393
S'rsym'
p3000
sg2395
g2986
sg2396
S'VGF'
p3001
sg2397
I-1
sg32
I9
sg2398
(lp3002
sbsg2987
(issf_api
Node
p3003
(dp3004
g2393
S'k1'
p3005
sg2395
g2987
sg2396
S'VGF'
p3006
sg2397
I-1
sg32
I1
sg2398
(lp3007
sbsg2971
(issf_api
Node
p3008
(dp3009
g2393
S'k1s'
p3010
sg2395
g2971
sg2396
S'VGF2'
p3011
sg2397
I-1
sg32
I7
sg2398
(lp3012
g2973
asbsg2979
(issf_api
Node
p3013
(dp3014
g2393
S'k2'
p3015
sg2395
g2979
sg2396
S'VGNN'
p3016
sg2397
I-1
sg32
I5
sg2398
(lp3017
sbsg2972
(issf_api
Node
p3018
(dp3019
g2393
S'k1'
p3020
sg2395
g2972
sg2396
S'VGF2'
p3021
sg2397
I-1
sg32
I4
sg2398
(lp3022
sbssg2454
(lp3023
(issf_api
Chunk
p3024
(dp3025
g2395
g1367
sg32
I0
sg2458
g1372
sg33
I3
sg2386
(lp3026
I65
aI66
asg38
(issf_api
FeatureSet
p3027
(dp3028
g12
(dp3029
S'name'
p3030
g2985
sS'drel'
p3031
S'sent-adv:VGF'
p3032
ssbsba(issf_api
Chunk
p3033
(dp3034
g2395
g1423
sg32
I1
sg2458
g1434
sg33
I3
sg2386
(lp3035
I67
aI68
aI69
asg38
(issf_api
FeatureSet
p3036
(dp3037
g12
(dp3038
S'name'
p3039
g2987
sS'drel'
p3040
S'k1:VGF'
p3041
ssbsba(issf_api
Chunk
p3042
(dp3043
g2395
g1465
sg32
I2
sg2458
g1472
sg33
I3
sg2386
(lp3044
I70
asg38
(issf_api
FeatureSet
p3045
(dp3046
g12
(dp3047
S'name'
p3048
g2980
ssbsba(issf_api
Chunk
p3049
(dp3050
g2395
g1486
sg32
I3
sg2458
g1491
sg33
I3
sg2386
(lp3051
I71
asg38
(issf_api
FeatureSet
p3052
(dp3053
g12
(dp3054
S'name'
p3055
g2984
sS'drel'
p3056
S'k2:VGF'
p3057
ssbsba(issf_api
Chunk
p3058
(dp3059
g2395
g1507
sg32
I4
sg2458
g1516
sg33
I3
sg2386
(lp3060
I72
asg38
(issf_api
FeatureSet
p3061
(dp3062
g12
(dp3063
S'name'
p3064
g2972
sS'drel'
p3065
S'k1:VGF2'
p3066
ssbsba(issf_api
Chunk
p3067
(dp3068
g2395
g1530
sg32
I5
sg2458
g1537
sg33
I3
sg2386
(lp3069
I73
asg38
(issf_api
FeatureSet
p3070
(dp3071
g12
(dp3072
S'name'
p3073
g2979
sS'drel'
p3074
S'k2:VGNN'
p3075
ssbsba(issf_api
Chunk
p3076
(dp3077
g2395
g1551
sg32
I6
sg2458
g1560
sg33
I3
sg2386
(lp3078
I74
aI75
asg38
(issf_api
FeatureSet
p3079
(dp3080
g12
(dp3081
S'name'
p3082
g2973
sS'drel'
p3083
S'r6:NP4'
p3084
ssbsba(issf_api
Chunk
p3085
(dp3086
g2395
g1595
sg32
I7
sg2458
g1604
sg33
I3
sg2386
(lp3087
I76
asg38
(issf_api
FeatureSet
p3088
(dp3089
g12
(dp3090
S'name'
p3091
g2971
sS'drel'
p3092
S'k1s:VGF2'
p3093
ssbsba(issf_api
Chunk
p3094
(dp3095
g2395
g1618
sg32
I8
sg2458
g1627
sg33
I3
sg2386
(lp3096
I77
asg38
(issf_api
FeatureSet
p3097
(dp3098
g12
(dp3099
S'name'
p3100
g2965
sS'drel'
p3101
S'ccof:CCP'
p3102
ssbsba(issf_api
Chunk
p3103
(dp3104
g2395
g1641
sg32
I9
sg2458
g1646
sg33
I3
sg2386
(lp3105
I78
asg38
(issf_api
FeatureSet
p3106
(dp3107
g12
(dp3108
S'name'
p3109
g2986
sS'drel'
p3110
S'rsym:VGF'
p3111
ssbsbasba(issf_api
Sentence
p3112
(dp3113
g2384
(lp3114
sg33
I4
sg2386
(lp3115
I79
aI80
aI81
aI82
aI83
aI84
aI85
aI86
aI87
aI88
aI89
aI90
aI91
aI92
aI93
aI94
aI95
aI96
asg2388
(dp3116
S'VGNN'
p3117
(issf_api
Node
p3118
(dp3119
g2393
S'ccof'
p3120
sg2395
g3117
sg2396
S'CCP'
p3121
sg2397
I-1
sg32
I1
sg2398
(lp3122
S'NP'
p3123
asbsS'VGF'
p3124
(issf_api
Node
p3125
(dp3126
g2393
g2394
sg2395
g3124
sg2396
g2394
sg2397
I-1
sg32
I10
sg2398
(lp3127
S'BLK'
p3128
aS'CCP2'
p3129
aS'NP3'
p3130
aS'NP2'
p3131
asbsS'CCP'
p3132
(issf_api
Node
p3133
(dp3134
g2393
S'r6'
p3135
sg2395
g3132
sg2396
S'NP2'
p3136
sg2397
I-1
sg32
I2
sg2398
(lp3137
g3117
aS'VGNN2'
p3138
asbsS'JJP'
p3139
(issf_api
Node
p3140
(dp3141
g2393
S'pof'
p3142
sg2395
g3139
sg2396
S'VGNN2'
p3143
sg2397
I-1
sg32
I3
sg2398
(lp3144
sbsg3138
(issf_api
Node
p3145
(dp3146
g2393
S'ccof'
p3147
sg2395
g3138
sg2396
S'CCP'
p3148
sg2397
I-1
sg32
I4
sg2398
(lp3149
g3139
asbsS'NP5'
p3150
(issf_api
Node
p3151
(dp3152
g2393
S'ccof'
p3153
sg2395
g3150
sg2396
S'CCP2'
p3154
sg2397
I-1
sg32
I9
sg2398
(lp3155
sbsg3128
(issf_api
Node
p3156
(dp3157
g2393
S'rsym'
p3158
sg2395
g3128
sg2396
S'VGF'
p3159
sg2397
I-1
sg32
I11
sg2398
(lp3160
sbsg3123
(issf_api
Node
p3161
(dp3162
g2393
S'k2'
p3163
sg2395
g3123
sg2396
S'VGNN'
p3164
sg2397
I-1
sg32
I0
sg2398
(lp3165
sbsS'NP4'
p3166
(issf_api
Node
p3167
(dp3168
g2393
S'ccof'
p3169
sg2395
g3166
sg2396
S'CCP2'
p3170
sg2397
I-1
sg32
I7
sg2398
(lp3171
sbsg3129
(issf_api
Node
p3172
(dp3173
g2393
S'k2'
p3174
sg2395
g3129
sg2396
S'VGF'
p3175
sg2397
I-1
sg32
I8
sg2398
(lp3176
g3150
ag3166
asbsg3130
(issf_api
Node
p3177
(dp3178
g2393
S'k7'
p3179
sg2395
g3130
sg2396
S'VGF'
p3180
sg2397
I-1
sg32
I6
sg2398
(lp3181
sbsg3131
(issf_api
Node
p3182
(dp3183
g2393
S'k1'
p3184
sg2395
g3131
sg2396
S'VGF'
p3185
sg2397
I-1
sg32
I5
sg2398
(lp3186
g3132
asbssg2454
(lp3187
(issf_api
Chunk
p3188
(dp3189
g2395
g1660
sg32
I0
sg2458
g1665
sg33
I4
sg2386
(lp3190
I79
asg38
(issf_api
FeatureSet
p3191
(dp3192
g12
(dp3193
S'name'
p3194
g3123
sS'drel'
p3195
S'k2:VGNN'
p3196
ssbsba(issf_api
Chunk
p3197
(dp3198
g2395
g1679
sg32
I1
sg2458
g1684
sg33
I4
sg2386
(lp3199
I80
asg38
(issf_api
FeatureSet
p3200
(dp3201
g12
(dp3202
S'name'
p3203
g3117
sS'drel'
p3204
S'ccof:CCP'
p3205
ssbsba(issf_api
Chunk
p3206
(dp3207
g2395
g1698
sg32
I2
sg2458
g1703
sg33
I4
sg2386
(lp3208
I81
asg38
(issf_api
FeatureSet
p3209
(dp3210
g12
(dp3211
S'name'
p3212
g3132
sS'drel'
p3213
S'r6:NP2'
p3214
ssbsba(issf_api
Chunk
p3215
(dp3216
g2395
g1717
sg32
I3
sg2458
g1722
sg33
I4
sg2386
(lp3217
I82
asg38
(issf_api
FeatureSet
p3218
(dp3219
g12
(dp3220
S'name'
p3221
g3139
sS'drel'
p3222
S'pof:VGNN2'
p3223
ssbsba(issf_api
Chunk
p3224
(dp3225
g2395
g1736
sg32
I4
sg2458
g1743
sg33
I4
sg2386
(lp3226
I83
aI84
asg38
(issf_api
FeatureSet
p3227
(dp3228
g12
(dp3229
S'name'
p3230
g3138
sS'drel'
p3231
S'ccof:CCP'
p3232
ssbsba(issf_api
Chunk
p3233
(dp3234
g2395
g1795
sg32
I5
sg2458
g1804
sg33
I4
sg2386
(lp3235
I85
aI86
asg38
(issf_api
FeatureSet
p3236
(dp3237
g12
(dp3238
S'name'
p3239
g3131
sS'drel'
p3240
S'k1:VGF'
p3241
ssbsba(issf_api
Chunk
p3242
(dp3243
g2395
g1818
sg32
I6
sg2458
g1825
sg33
I4
sg2386
(lp3244
I87
aI88
aI89
aI90
asg38
(issf_api
FeatureSet
p3245
(dp3246
g12
(dp3247
S'name'
p3248
g3130
sS'drel'
p3249
S'k7:VGF'
p3250
ssbsba(issf_api
Chunk
p3251
(dp3252
g2395
g1890
sg32
I7
sg2458
g1895
sg33
I4
sg2386
(lp3253
I91
asg38
(issf_api
FeatureSet
p3254
(dp3255
g12
(dp3256
S'name'
p3257
g3166
sS'drel'
p3258
S'ccof:CCP2'
p3259
ssbsba(issf_api
Chunk
p3260
(dp3261
g2395
g1909
sg32
I8
sg2458
g1914
sg33
I4
sg2386
(lp3262
I92
asg38
(issf_api
FeatureSet
p3263
(dp3264
g12
(dp3265
S'name'
p3266
g3129
sS'drel'
p3267
S'k2:VGF'
p3268
ssbsba(issf_api
Chunk
p3269
(dp3270
g2395
g1928
sg32
I9
sg2458
g1933
sg33
I4
sg2386
(lp3271
I93
asg38
(issf_api
FeatureSet
p3272
(dp3273
g12
(dp3274
S'name'
p3275
g3150
sS'drel'
p3276
S'ccof:CCP2'
p3277
ssbsba(issf_api
Chunk
p3278
(dp3279
g2395
g1947
sg32
I10
sg2458
g1956
sg33
I4
sg2386
(lp3280
I94
aI95
asg38
(issf_api
FeatureSet
p3281
(dp3282
g12
(dp3283
S'name'
p3284
g3124
ssbsba(issf_api
Chunk
p3285
(dp3286
g2395
g1987
sg32
I11
sg2458
g1992
sg33
I4
sg2386
(lp3287
I96
asg38
(issf_api
FeatureSet
p3288
(dp3289
g12
(dp3290
S'name'
p3291
g3128
sS'drel'
p3292
S'rsym:VGF'
p3293
ssbsbasba(issf_api
Sentence
p3294
(dp3295
g2384
(lp3296
sg33
I5
sg2386
(lp3297
I97
aI98
aI99
aI100
aI101
aI102
aI103
aI104
aI105
aI106
aI107
aI108
aI109
aI110
aI111
aI112
aI113
aI114
aI115
asg2388
(dp3298
S'VGNN'
p3299
(issf_api
Node
p3300
(dp3301
g2393
S'r6-k2'
p3302
sg2395
g3299
sg2396
S'NP6'
p3303
sg2397
I-1
sg32
I6
sg2398
(lp3304
S'RBP'
p3305
aS'NP5'
p3306
asbsS'VGF'
p3307
(issf_api
Node
p3308
(dp3309
g2393
g2394
sg2395
g3307
sg2396
g2394
sg2397
I-1
sg32
I8
sg2398
(lp3310
S'BLK'
p3311
aS'NP4'
p3312
aS'NP6'
p3313
aS'NP3'
p3314
asbsg3305
(issf_api
Node
p3315
(dp3316
g2393
S'adv'
p3317
sg2395
g3305
sg2396
S'VGNN'
p3318
sg2397
I-1
sg32
I5
sg2398
(lp3319
sbsg3306
(issf_api
Node
p3320
(dp3321
g2393
S'k2'
p3322
sg2395
g3306
sg2396
S'VGNN'
p3323
sg2397
I-1
sg32
I4
sg2398
(lp3324
sbsg3311
(issf_api
Node
p3325
(dp3326
g2393
S'rsym'
p3327
sg2395
g3311
sg2396
S'VGF'
p3328
sg2397
I-1
sg32
I9
sg2398
(lp3329
sbsS'NP'
p3330
(issf_api
Node
p3331
(dp3332
g2393
S'r6'
p3333
sg2395
g3330
sg2396
S'NP2'
p3334
sg2397
I-1
sg32
I0
sg2398
(lp3335
sbsg3312
(issf_api
Node
p3336
(dp3337
g2393
S'k4'
p3338
sg2395
g3312
sg2396
S'VGF'
p3339
sg2397
I-1
sg32
I3
sg2398
(lp3340
sbsg3313
(issf_api
Node
p3341
(dp3342
g2393
S'pof'
p3343
sg2395
g3313
sg2396
S'VGF'
p3344
sg2397
I-1
sg32
I7
sg2398
(lp3345
g3299
asbsg3314
(issf_api
Node
p3346
(dp3347
g2393
S'k1'
p3348
sg2395
g3314
sg2396
S'VGF'
p3349
sg2397
I-1
sg32
I2
sg2398
(lp3350
S'NP2'
p3351
asbsg3351
(issf_api
Node
p3352
(dp3353
g2393
S'nmod'
p3354
sg2395
g3351
sg2396
S'NP3'
p3355
sg2397
I-1
sg32
I1
sg2398
(lp3356
g3330
asbssg2454
(lp3357
(issf_api
Chunk
p3358
(dp3359
g2395
g2008
sg32
I0
sg2458
g2017
sg33
I5
sg2386
(lp3360
I97
aI98
asg38
(issf_api
FeatureSet
p3361
(dp3362
g12
(dp3363
S'name'
p3364
g3330
sS'drel'
p3365
S'r6:NP2'
p3366
ssbsba(issf_api
Chunk
p3367
(dp3368
g2395
g2069
sg32
I1
sg2458
g2078
sg33
I5
sg2386
(lp3369
I99
aI100
asg38
(issf_api
FeatureSet
p3370
(dp3371
g12
(dp3372
S'name'
p3373
g3351
sS'drel'
p3374
S'nmod:NP3'
p3375
ssbsba(issf_api
Chunk
p3376
(dp3377
g2395
g2132
sg32
I2
sg2458
g2145
sg33
I5
sg2386
(lp3378
I101
aI102
aI103
aI104
asg38
(issf_api
FeatureSet
p3379
(dp3380
g12
(dp3381
S'name'
p3382
g3314
sS'drel'
p3383
S'k1:VGF'
p3384
ssbsba(issf_api
Chunk
p3385
(dp3386
g2395
g2176
sg32
I3
sg2458
g2183
sg33
I5
sg2386
(lp3387
I105
aI106
asg38
(issf_api
FeatureSet
p3388
(dp3389
g12
(dp3390
S'name'
p3391
g3312
sS'drel'
p3392
S'k4:VGF'
p3393
ssbsba(issf_api
Chunk
p3394
(dp3395
g2395
g2235
sg32
I4
sg2458
g2246
sg33
I5
sg2386
(lp3396
I107
aI108
aI109
asg38
(issf_api
FeatureSet
p3397
(dp3398
g12
(dp3399
S'name'
p3400
g3306
sS'drel'
p3401
S'k2:VGNN'
p3402
ssbsba(issf_api
Chunk
p3403
(dp3404
g2395
g2277
sg32
I5
sg2458
g2282
sg33
I5
sg2386
(lp3405
I110
asg38
(issf_api
FeatureSet
p3406
(dp3407
g12
(dp3408
S'name'
p3409
g3305
sS'drel'
p3410
S'adv:VGNN'
p3411
ssbsba(issf_api
Chunk
p3412
(dp3413
g2395
g2296
sg32
I6
sg2458
g2303
sg33
I5
sg2386
(lp3414
I111
aI112
asg38
(issf_api
FeatureSet
p3415
(dp3416
g12
(dp3417
S'name'
p3418
g3299
sS'drel'
p3419
S'r6-k2:NP6'
p3420
ssbsba(issf_api
Chunk
p3421
(dp3422
g2395
g2334
sg32
I7
sg2458
g2339
sg33
I5
sg2386
(lp3423
I113
asg38
(issf_api
FeatureSet
p3424
(dp3425
g12
(dp3426
S'name'
p3427
g3313
sS'drel'
p3428
S'pof:VGF'
p3429
ssbsba(issf_api
Chunk
p3430
(dp3431
g2395
g2353
sg32
I8
sg2458
g2360
sg33
I5
sg2386
(lp3432
I114
asg38
(issf_api
FeatureSet
p3433
(dp3434
g12
(dp3435
S'name'
p3436
g3307
ssbsba(issf_api
Chunk
p3437
(dp3438
g2395
g2374
sg32
I9
sg2458
g2379
sg33
I5
sg2386
(lp3439
I115
asg38
(issf_api
FeatureSet
p3440
(dp3441
g12
(dp3442
S'name'
p3443
g3311
sS'drel'
p3444
S'rsym:VGF'
p3445
ssbsbasbasb.