(issf_api
SSFInfo
p0
(dp1
S'globalWordList'
p2
(lp3
(issf_api
Word
p4
(dp5
S'splitConn'
p6
I00
sS'word'
p7
V\u0932\u0902\u092c\u0940
p8
sS'extraFeatureSet'
p9
(issf_api
FeatureSet
p10
(dp11
S'featureDict'
p12
(dp13
S'posn'
p14
S'10'
p15
sS'name'
p16
S'\xe0\xa4\xb2\xe0\xa4\x82\xe0\xa4\xac\xe0\xa5\x80'
p17
sS'drel'
p18
S'nmod__adj:NP'
p19
sS'chunktype'
p20
S'child:NP'
p21
sS'af'
p22
S'\xe0\xa4\xb2\xe0\xa4\x82\xe0\xa4\xac\xe0\xa4\xbe,adj,f,sg,,o,,'
p23
ssbsS'arg1'
p24
I00
sS'arg2'
p25
I00
sS'sense'
p26
NsS'arg1Span'
p27
NsS'chunkNum'
p28
I0
sS'sentenceNum'
p29
I0
sS'relationNum'
p30
NsS'arg2Span'
p31
NsS'wordTag'
p32
S'JJ'
p33
sS'featureSet'
p34
g10
sS'conn'
p35
I00
sba(issf_api
Word
p36
(dp37
g6
I00
sg7
V\u092c\u0940\u092e\u093e\u0930\u0940
p38
sg9
(issf_api
FeatureSet
p39
(dp40
g12
(dp41
S'posn'
p42
S'20'
p43
sS'name'
p44
S'\xe0\xa4\xac\xe0\xa5\x80\xe0\xa4\xae\xe0\xa4\xbe\xe0\xa4\xb0\xe0\xa5\x80'
p45
sS'af'
p46
S'\xe0\xa4\xac\xe0\xa5\x80\xe0\xa4\xae\xe0\xa4\xbe\xe0\xa4\xb0\xe0\xa5\x80,n,f,sg,3,o,0_\xe0\xa4\x95\xe0\xa5\x87_\xe0\xa4\xac\xe0\xa4\xbe\xe0\xa4\xa6,0'
p47
sS'chunkid'
p48
S'NP'
p49
sS'drel'
p50
S'k7t:VGF'
p51
sS'vpos'
p52
S'vib_3_4'
p53
sS'chunktype'
p54
S'head:NP'
p55
ssbsg24
I00
sg25
I00
sg26
Nsg27
Nsg28
I0
sg29
I0
sg30
Nsg31
Nsg32
S'NN'
p56
sg34
g39
sg35
I00
sba(issf_api
Word
p57
(dp58
g6
I00
sg7
V\u0915\u0947
p59
sg9
(issf_api
FeatureSet
p60
(dp61
g12
(dp62
S'posn'
p63
S'30'
p64
sS'name'
p65
S'\xe0\xa4\x95\xe0\xa5\x87'
p66
sS'drel'
p67
S'lwg__psp:NP'
p68
sS'chunktype'
p69
S'child:NP'
p70
sS'af'
p71
S'\xe0\xa4\x95\xe0\xa5\x87,psp,,,,,,'
p72
ssbsg24
I00
sg25
I00
sg26
Nsg27
Nsg28
I0
sg29
I0
sg30
Nsg31
Nsg32
S'PSP'
p73
sg34
g60
sg35
I00
sba(issf_api
Word
p74
(dp75
g6
I00
sg7
V\u092c\u093e\u0926
p76
sg9
(issf_api
FeatureSet
p77
(dp78
g12
(dp79
S'posn'
p80
S'40'
p81
sS'name'
p82
S'\xe0\xa4\xac\xe0\xa4\xbe\xe0\xa4\xa6'
p83
sS'drel'
p84
S'lwg__psp:NP'
p85
sS'chunktype'
p86
S'child:NP'
p87
sS'af'
p88
S'\xe0\xa4\xac\xe0\xa4\xbe\xe0\xa4\xa6,nst,m,sg,3,d,,'
p89
ssbsg24
I00
sg25
I00
sg26
Nsg27
Nsg28
I0
sg29
I0
sg30
Nsg31
Nsg32
S'NST'
p90
sg34
g77
sg35
I00
sba(issf_api
Word
p91
(dp92
g6
I00
sg7
V\u092a\u0902\u091c\u093e\u092c\u0940
p93
sg9
(issf_api
FeatureSet
p94
(dp95
g12
(dp96
S'posn'
p97
S'50'
p98
sS'name'
p99
S'\xe0\xa4\xaa\xe0\xa4\x82\xe0\xa4\x9c\xe0\xa4\xbe\xe0\xa4\xac\xe0\xa5\x80'
p100
sS'af'
p101
S'\xe0\xa4\xaa\xe0\xa4\x82\xe0\xa4\x9c\xe0\xa4\xbe\xe0\xa4\xac\xe0\xa5\x80,n,f,sg,3,o,0_\xe0\xa4\x95\xe0\xa4\xbe,0'
p102
sS'acrefmodhead'
p103
S'\xe0\xa4\xaa\xe0\xa4\x82\xe0\xa4\x9c\xe0\xa4\xbe\xe0\xa4\xac\xe0\xa5\x80:m1'
p104
sS'chunkid'
p105
S'NP2'
p106
sS'acrefmod'
p107
S'm1%1:i1'
p108
sS'drel'
p109
S'r6:NP3'
p110
sS'vpos'
p111
S'vib_2'
p112
sS'chunktype'
p113
S'head:NP2'
p114
ssbsg24
I00
sg25
I00
sg26
Nsg27
Nsg28
I1
sg29
I0
sg30
Nsg31
Nsg32
S'NNP'
p115
sg34
g94
sg35
I00
sba(issf_api
Word
p116
(dp117
g6
I00
sg7
V\u0915\u0940
p118
sg9
(issf_api
FeatureSet
p119
(dp120
g12
(dp121
S'posn'
p122
S'60'
p123
sS'name'
p124
S'\xe0\xa4\x95\xe0\xa5\x80'
p125
sS'drel'
p126
S'lwg__psp:NP2'
p127
sS'chunktype'
p128
S'child:NP2'
p129
sS'af'
p130
S'\xe0\xa4\x95\xe0\xa4\xbe,psp,f,sg,,o,,'
p131
ssbsg24
I00
sg25
I00
sg26
Nsg27
Nsg28
I1
sg29
I0
sg30
Nsg31
Nsg32
S'PSP'
p132
sg34
g119
sg35
I00
sba(issf_api
Word
p133
(dp134
g6
I00
sg7
V\u0938\u0941\u092a\u094d\u0930\u0938\u093f\u0926\u094d\u0927
p135
sg9
(issf_api
FeatureSet
p136
(dp137
g12
(dp138
S'posn'
p139
S'70'
p140
sS'name'
p141
S'\xe0\xa4\xb8\xe0\xa5\x81\xe0\xa4\xaa\xe0\xa5\x8d\xe0\xa4\xb0\xe0\xa4\xb8\xe0\xa4\xbf\xe0\xa4\xa6\xe0\xa5\x8d\xe0\xa4\xa7'
p142
sS'af'
p143
S'\xe0\xa4\xb8\xe0\xa5\x81\xe0\xa4\xaa\xe0\xa5\x8d\xe0\xa4\xb0\xe0\xa4\xb8\xe0\xa4\xbf\xe0\xa4\xa6\xe0\xa5\x8d\xe0\xa4\xa7,adj,any,any,,o,,'
p144
sS'drel'
p145
S'nmod__adj:NP3'
p146
sS'chunktype'
p147
S'child:NP3'
p148
sS'cref'
p149
S'i1%0:t1'
p150
ssbsg24
I00
sg25
I00
sg26
Nsg27
Nsg28
I2
sg29
I0
sg30
Nsg31
Nsg32
S'JJ'
p151
sg34
g136
sg35
I00
sba(issf_api
Word
p152
(dp153
g6
I00
sg7
V\u0932\u0947\u0916\u093f\u0915\u093e
p154
sg9
(issf_api
FeatureSet
p155
(dp156
g12
(dp157
S'crefhead'
p158
S'\xe0\xa4\xb2\xe0\xa5\x87\xe0\xa4\x96\xe0\xa4\xbf\xe0\xa4\x95\xe0\xa4\xbe:i1'
p159
sS'posn'
p160
S'80'
p161
sS'name'
p162
S'\xe0\xa4\xb2\xe0\xa5\x87\xe0\xa4\x96\xe0\xa4\xbf\xe0\xa4\x95\xe0\xa4\xbe'
p163
sS'af'
p164
S'\xe0\xa4\xb2\xe0\xa5\x87\xe0\xa4\x96\xe0\xa4\xbf\xe0\xa4\x95\xe0\xa4\xbe,n,f,sg,3,o,0,0'
p165
sS'chunkid'
p166
S'NP3'
p167
sS'crefmod'
p168
S'm1:i1'
p169
sS'chunktype'
p170
S'head:NP3'
p171
sS'cref'
p172
S'i1%1:t1'
p173
sS'drel'
p174
S'nmod:NP4'
p175
ssbsg24
I00
sg25
I00
sg26
Nsg27
Nsg28
I2
sg29
I0
sg30
Nsg31
Nsg32
S'NN'
p176
sg34
g155
sg35
I00
sba(issf_api
Word
p177
(dp178
g6
I00
sg7
V\u0905\u092e\u0943\u0924\u093e
p179
sg9
(issf_api
FeatureSet
p180
(dp181
g12
(dp182
S'posn'
p183
S'90'
p184
sS'name'
p185
S'\xe0\xa4\x85\xe0\xa4\xae\xe0\xa5\x83\xe0\xa4\xa4\xe0\xa4\xbe'
p186
sS'af'
p187
S'\xe0\xa4\x85\xe0\xa4\xae\xe0\xa5\x83\xe0\xa4\xa4\xe0\xa4\xbe,n,f,sg,3,d,0,0'
p188
sS'drel'
p189
S'pof__cn:NP4'
p190
sS'chunktype'
p191
S'child:NP4'
p192
sS'cref'
p193
S'i2%0:t1'
p194
ssbsg24
I00
sg25
I00
sg26
Nsg27
Nsg28
I3
sg29
I0
sg30
Nsg31
Nsg32
S'NNPC'
p195
sg34
g180
sg35
I00
sba(issf_api
Word
p196
(dp197
g6
I00
sg7
V\u092a\u094d\u0930\u0940\u0924\u092e
p198
sg9
(issf_api
FeatureSet
p199
(dp200
g12
(dp201
S'crefhead'
p202
S'\xe0\xa4\xaa\xe0\xa5\x8d\xe0\xa4\xb0\xe0\xa5\x80\xe0\xa4\xa4\xe0\xa4\xae:i2'
p203
sS'posn'
p204
S'100'
p205
sS'name'
p206
S'\xe0\xa4\xaa\xe0\xa5\x8d\xe0\xa4\xb0\xe0\xa5\x80\xe0\xa4\xa4\xe0\xa4\xae'
p207
sS'af'
p208
S'\xe0\xa4\xaa\xe0\xa5\x8d\xe0\xa4\xb0\xe0\xa5\x80\xe0\xa4\xa4\xe0\xa4\xae,n,f,sg,3,o,0_\xe0\xa4\x95\xe0\xa4\xbe,0'
p209
sS'chunkid'
p210
S'NP4'
p211
sS'creftype'
p212
S'Coreference-NounComplement:i1'
p213
sS'chunktype'
p214
S'head:NP4'
p215
sS'crefchainhead'
p216
S'i2:t1'
p217
sS'vpos'
p218
S'vib_3'
p219
sS'cref'
p220
S'i2%1:t1'
p221
sS'drel'
p222
S'r6-k1:NP6'
p223
ssbsg24
I00
sg25
I00
sg26
Nsg27
Nsg28
I3
sg29
I0
sg30
Nsg31
Nsg32
S'NNP'
p224
sg34
g199
sg35
I00
sba(issf_api
Word
p225
(dp226
g6
I00
sg7
V\u0915\u093e
p227
sg9
(issf_api
FeatureSet
p228
(dp229
g12
(dp230
S'posn'
p231
S'110'
p232
sS'name'
p233
S'\xe0\xa4\x95\xe0\xa4\xbe'
p234
sS'drel'
p235
S'lwg__psp:NP4'
p236
sS'chunktype'
p237
S'child:NP4'
p238
sS'af'
p239
S'\xe0\xa4\x95\xe0\xa4\xbe,psp,m,sg,,d,,'
p240
ssbsg24
I00
sg25
I00
sg26
Nsg27
Nsg28
I3
sg29
I0
sg30
Nsg31
Nsg32
S'PSP'
p241
sg34
g228
sg35
I00
sba(issf_api
Word
p242
(dp243
g6
I00
sg7
V\u0938\u094b\u092e\u0935\u093e\u0930
p244
sg9
(issf_api
FeatureSet
p245
(dp246
g12
(dp247
S'crefhead'
p248
S'\xe0\xa4\xb8\xe0\xa5\x8b\xe0\xa4\xae\xe0\xa4\xb5\xe0\xa4\xbe\xe0\xa4\xb0:i3'
p249
sS'posn'
p250
S'120'
p251
sS'name'
p252
S'\xe0\xa4\xb8\xe0\xa5\x8b\xe0\xa4\xae\xe0\xa4\xb5\xe0\xa4\xbe\xe0\xa4\xb0'
p253
sS'af'
p254
S'\xe0\xa4\xb8\xe0\xa5\x8b\xe0\xa4\xae\xe0\xa4\xb5\xe0\xa4\xbe\xe0\xa4\xb0,n,m,sg,3,o,0_\xe0\xa4\x95\xe0\xa5\x8b,0'
p255
sS'chunkid'
p256
S'NP5'
p257
sS'chunktype'
p258
S'head:NP5'
p259
sS'crefchainhead'
p260
S'i3:t2'
p261
sS'vpos'
p262
S'vib_2'
p263
sS'cref'
p264
S'i3%1:t2'
p265
sS'drel'
p266
S'k7t:VGF'
p267
ssbsg24
I00
sg25
I00
sg26
Nsg27
Nsg28
I4
sg29
I0
sg30
Nsg31
Nsg32
S'NNP'
p268
sg34
g245
sg35
I00
sba(issf_api
Word
p269
(dp270
g6
I00
sg7
V\u0915\u094b
p271
sg9
(issf_api
FeatureSet
p272
(dp273
g12
(dp274
S'posn'
p275
S'130'
p276
sS'name'
p277
S'\xe0\xa4\x95\xe0\xa5\x8b'
p278
sS'drel'
p279
S'lwg__psp:NP5'
p280
sS'chunktype'
p281
S'child:NP5'
p282
sS'af'
p283
S'\xe0\xa4\x95\xe0\xa5\x8b,psp,,,,,,'
p284
ssbsg24
I00
sg25
I00
sg26
Nsg27
Nsg28
I4
sg29
I0
sg30
Nsg31
Nsg32
S'PSP'
p285
sg34
g272
sg35
I00
sba(issf_api
Word
p286
(dp287
g6
I00
sg7
V\u0928\u093f\u0927\u0928
p288
sg9
(issf_api
FeatureSet
p289
(dp290
g12
(dp291
S'posn'
p292
S'140'
p293
sS'name'
p294
S'\xe0\xa4\xa8\xe0\xa4\xbf\xe0\xa4\xa7\xe0\xa4\xa8'
p295
sS'af'
p296
S'\xe0\xa4\xa8\xe0\xa4\xbf\xe0\xa4\xa7\xe0\xa4\xa8,n,m,sg,3,d,0,0'
p297
sS'chunkid'
p298
S'NP6'
p299
sS'drel'
p300
S'pof:VGF'
p301
sS'chunktype'
p302
S'head:NP6'
p303
ssbsg24
I00
sg25
I00
sg26
Nsg27
Nsg28
I5
sg29
I0
sg30
Nsg31
Nsg32
S'NN'
p304
sg34
g289
sg35
I00
sba(issf_api
Word
p305
(dp306
g6
I00
sg7
V\u0939\u094b
p307
sg9
(issf_api
FeatureSet
p308
(dp309
g12
(dp310
S'posn'
p311
S'150'
p312
sS'name'
p313
S'\xe0\xa4\xb9\xe0\xa5\x8b'
p314
sS'af'
p315
S'\xe0\xa4\xb9\xe0\xa5\x8b,v,any,sg,3,,0_\xe0\xa4\x9c\xe0\xa4\xbe+\xe0\xa4\xaf\xe0\xa4\xbe\xe0\xa5\xa7,0'
p316
sS'chunkid'
p317
S'VGF'
p318
sS'chunktype'
p319
S'head:VGF'
p320
sS'voicetype'
p321
S'active'
p322
sS'vpos'
p323
S'tam_2'
p324
sS'stype'
p325
S'declarative'
p326
ssbsg24
I00
sg25
I00
sg26
Nsg27
Nsg28
I6
sg29
I0
sg30
Nsg31
Nsg32
S'VM'
p327
sg34
g308
sg35
I00
sba(issf_api
Word
p328
(dp329
g6
I00
sg7
V\u0917\u092f\u093e
p330
sg9
(issf_api
FeatureSet
p331
(dp332
g12
(dp333
S'posn'
p334
S'160'
p335
sS'name'
p336
S'\xe0\xa4\x97\xe0\xa4\xaf\xe0\xa4\xbe'
p337
sS'drel'
p338
S'lwg__vaux:VGF'
p339
sS'chunktype'
p340
S'child:VGF'
p341
sS'af'
p342
S'\xe0\xa4\x9c\xe0\xa4\xbe,v,m,sg,3,,\xe0\xa4\xaf\xe0\xa4\xbe\xe0\xa5\xa7,yA1'
p343
ssbsg24
I00
sg25
I00
sg26
Nsg27
Nsg28
I6
sg29
I0
sg30
Nsg31
Nsg32
S'VAUX'
p344
sg34
g331
sg35
I00
sba(issf_api
Word
p345
(dp346
g6
I00
sg7
V.
p347
sg9
(issf_api
FeatureSet
p348
(dp349
g12
(dp350
S'posn'
p351
S'170'
p352
sS'name'
p353
S'.'
p354
sS'af'
p355
S'.,punc,,,,,,'
p356
sS'chunkid'
p357
S'BLK'
p358
sS'drel'
p359
S'rsym:VGF'
p360
sS'chunktype'
p361
S'head:BLK'
p362
ssbsg24
I00
sg25
I00
sg26
Nsg27
Nsg28
I7
sg29
I0
sg30
Nsg31
Nsg32
S'SYM'
p363
sg34
g348
sg35
I00
sba(issf_api
Word
p364
(dp365
g6
I00
sg7
V\u0935\u0947
p366
sg9
(issf_api
FeatureSet
p367
(dp368
g12
(dp369
S'crefhead'
p370
S'\xe0\xa4\xb5\xe0\xa5\x87:i4'
p371
sS'posn'
p372
S'10'
p373
sS'name'
p374
S'\xe0\xa4\xb5\xe0\xa5\x87'
p375
sS'af'
p376
S'\xe0\xa4\xb5\xe0\xa4\xb9,pn,any,sg,3h,d,0,0'
p377
sS'chunkid'
p378
S'NP'
p379
sS'creftype'
p380
S'Anaphora-C:i2'
p381
sS'chunktype'
p382
S'head:NP'
p383
sS'cref'
p384
S'i4%1:t1'
p385
sS'drel'
p386
S'k1:VGF'
p387
ssbsg24
I00
sg25
I00
sg26
Nsg27
Nsg28
I0
sg29
I1
sg30
Nsg31
Nsg32
S'PRP'
p388
sg34
g367
sg35
I00
sba(issf_api
Word
p389
(dp390
g6
I00
sg7
V\u096e\u096c
p391
sg9
(issf_api
FeatureSet
p392
(dp393
g12
(dp394
S'posn'
p395
S'20'
p396
sS'name'
p397
S'\xe0\xa5\xae\xe0\xa5\xac'
p398
sS'drel'
p399
S'nmod__adj:NP2'
p400
sS'chunktype'
p401
S'child:NP2'
p402
sS'af'
p403
S'\xe0\xa5\xae\xe0\xa5\xac,num,any,any,,any,,'
p404
ssbsg24
I00
sg25
I00
sg26
Nsg27
Nsg28
I1
sg29
I1
sg30
Nsg31
Nsg32
S'QC'
p405
sg34
g392
sg35
I00
sba(issf_api
Word
p406
(dp407
g6
I00
sg7
V\u0935\u0930\u094d\u0937
p408
sg9
(issf_api
FeatureSet
p409
(dp410
g12
(dp411
S'posn'
p412
S'30'
p413
sS'name'
p414
S'\xe0\xa4\xb5\xe0\xa4\xb0\xe0\xa5\x8d\xe0\xa4\xb7'
p415
sS'af'
p416
S'\xe0\xa4\xb5\xe0\xa4\xb0\xe0\xa5\x8d\xe0\xa4\xb7,n,m,sg,3,o,0_\xe0\xa4\x95\xe0\xa4\xbe,0'
p417
sS'chunkid'
p418
S'NP2'
p419
sS'drel'
p420
S'r6:NULL__NP'
p421
sS'vpos'
p422
S'vib_3'
p423
sS'chunktype'
p424
S'head:NP2'
p425
ssbsg24
I00
sg25
I00
sg26
Nsg27
Nsg28
I1
sg29
I1
sg30
Nsg31
Nsg32
S'NN'
p426
sg34
g409
sg35
I00
sba(issf_api
Word
p427
(dp428
g6
I00
sg7
V\u0915\u0940
p429
sg9
(issf_api
FeatureSet
p430
(dp431
g12
(dp432
S'posn'
p433
S'40'
p434
sS'name'
p435
S'\xe0\xa4\x95\xe0\xa5\x80'
p436
sS'drel'
p437
S'lwg__psp:NP2'
p438
sS'chunktype'
p439
S'child:NP2'
p440
sS'af'
p441
S'\xe0\xa4\x95\xe0\xa4\xbe,psp,f,sg,,d,,'
p442
ssbsg24
I00
sg25
I00
sg26
Nsg27
Nsg28
I1
sg29
I1
sg30
Nsg31
Nsg32
S'PSP'
p443
sg34
g430
sg35
I00
sba(issf_api
Word
p444
(dp445
g6
I00
sg7
V\u0925\u0940\u0902
p446
sg9
(issf_api
FeatureSet
p447
(dp448
g12
(dp449
S'posn'
p450
S'50'
p451
sS'name'
p452
S'\xe0\xa4\xa5\xe0\xa5\x80\xe0\xa4\x82'
p453
sS'af'
p454
S'\xe0\xa4\xa5\xe0\xa4\xbe,v,f,sg,3h,,\xe0\xa4\xa5\xe0\xa4\xbe,WA'
p455
sS'chunkid'
p456
S'VGF'
p457
sS'chunktype'
p458
S'head:VGF'
p459
sS'voicetype'
p460
S'active'
p461
sS'stype'
p462
S'declarative'
p463
ssbsg24
I00
sg25
I00
sg26
Nsg27
Nsg28
I2
sg29
I1
sg30
Nsg31
Nsg32
S'VM'
p464
sg34
g447
sg35
I00
sba(issf_api
Word
p465
(dp466
g6
I00
sg7
V.
p467
sg9
(issf_api
FeatureSet
p468
(dp469
g12
(dp470
S'posn'
p471
S'60'
p472
sS'name'
p473
g354
sS'af'
p474
S'.,punc,,,,,,'
p475
sS'chunkid'
p476
S'BLK'
p477
sS'drel'
p478
S'rsym:VGF'
p479
sS'chunktype'
p480
S'head:BLK'
p481
ssbsg24
I00
sg25
I00
sg26
Nsg27
Nsg28
I3
sg29
I1
sg30
Nsg31
Nsg32
S'SYM'
p482
sg34
g468
sg35
I00
sba(issf_api
Word
p483
(dp484
g6
I00
sg7
V\u0909\u0928\u094d\u0939\u094b\u0902\u0928\u0947
p485
sg9
(issf_api
FeatureSet
p486
(dp487
g12
(dp488
S'crefhead'
p489
S'\xe0\xa4\x89\xe0\xa4\xa8\xe0\xa5\x8d\xe0\xa4\xb9\xe0\xa5\x8b\xe0\xa4\x82\xe0\xa4\xa8\xe0\xa5\x87:i5'
p490
sS'posn'
p491
S'10'
p492
sS'name'
p493
S'\xe0\xa4\x89\xe0\xa4\xa8\xe0\xa5\x8d\xe0\xa4\xb9\xe0\xa5\x8b\xe0\xa4\x82\xe0\xa4\xa8\xe0\xa5\x87'
p494
sS'af'
p495
S'\xe0\xa4\xb5\xe0\xa4\xb9,pn,any,sg,3h,o,\xe0\xa4\xa8\xe0\xa5\x87,ne'
p496
sS'chunkid'
p497
S'NP'
p498
sS'creftype'
p499
S'Anaphora-C:i4'
p500
sS'chunktype'
p501
S'head:NP'
p502
sS'cref'
p503
S'i5%1:t1'
p504
sS'drel'
p505
S'k1:VGF'
p506
ssbsg24
I00
sg25
I00
sg26
Nsg27
Nsg28
I0
sg29
I2
sg30
Nsg31
Nsg32
S'PRP'
p507
sg34
g486
sg35
I00
sba(issf_api
Word
p508
(dp509
g6
I00
sg7
V\u0926\u0915\u094d\u0937\u093f\u0923
p510
sg9
(issf_api
FeatureSet
p511
(dp512
g12
(dp513
S'posn'
p514
S'20'
p515
sS'name'
p516
S'\xe0\xa4\xa6\xe0\xa4\x95\xe0\xa5\x8d\xe0\xa4\xb7\xe0\xa4\xbf\xe0\xa4\xa3'
p517
sS'af'
p518
S'\xe0\xa4\xa6\xe0\xa4\x95\xe0\xa5\x8d\xe0\xa4\xb7\xe0\xa4\xbf\xe0\xa4\xa3,n,m,sg,3,d,0,0'
p519
sS'drel'
p520
S'pof__cn:NP2'
p521
sS'chunktype'
p522
S'child:NP2'
p523
sS'cref'
p524
S'i6%0:t3'
p525
ssbsg24
I00
sg25
I00
sg26
Nsg27
Nsg28
I1
sg29
I2
sg30
Nsg31
Nsg32
S'NNPC'
p526
sg34
g511
sg35
I00
sba(issf_api
Word
p527
(dp528
g6
I00
sg7
V\u0926\u093f\u0932\u094d\u0932\u0940
p529
sg9
(issf_api
FeatureSet
p530
(dp531
g12
(dp532
S'crefhead'
p533
S'\xe0\xa4\xa6\xe0\xa4\xbf\xe0\xa4\xb2\xe0\xa5\x8d\xe0\xa4\xb2\xe0\xa5\x80:i6'
p534
sS'posn'
p535
S'30'
p536
sS'name'
p537
S'\xe0\xa4\xa6\xe0\xa4\xbf\xe0\xa4\xb2\xe0\xa5\x8d\xe0\xa4\xb2\xe0\xa5\x80'
p538
sS'af'
p539
S'\xe0\xa4\xa6\xe0\xa4\xbf\xe0\xa4\xb2\xe0\xa5\x8d\xe0\xa4\xb2\xe0\xa5\x80,n,f,sg,3,o,0_\xe0\xa4\x95\xe0\xa4\xbe,0'
p540
sS'chunkid'
p541
S'NP2'
p542
sS'chunktype'
p543
S'head:NP2'
p544
sS'crefchainhead'
p545
S'i6:t3'
p546
sS'vpos'
p547
S'vib_3'
p548
sS'cref'
p549
S'i6%1:t3'
p550
sS'drel'
p551
S'r6:NP3'
p552
ssbsg24
I00
sg25
I00
sg26
Nsg27
Nsg28
I1
sg29
I2
sg30
Nsg31
Nsg32
S'NNP'
p553
sg34
g530
sg35
I00
sba(issf_api
Word
p554
(dp555
g6
I00
sg7
V\u0915\u0947
p556
sg9
(issf_api
FeatureSet
p557
(dp558
g12
(dp559
S'posn'
p560
S'40'
p561
sS'name'
p562
S'\xe0\xa4\x95\xe0\xa5\x87'
p563
sS'drel'
p564
S'lwg__psp:NP2'
p565
sS'chunktype'
p566
S'child:NP2'
p567
sS'af'
p568
S'\xe0\xa4\x95\xe0\xa4\xbe,psp,m,sg,,o,,'
p569
ssbsg24
I00
sg25
I00
sg26
Nsg27
Nsg28
I1
sg29
I2
sg30
Nsg31
Nsg32
S'PSP'
p570
sg34
g557
sg35
I00
sba(issf_api
Word
p571
(dp572
g6
I00
sg7
V\u0939\u094c\u091c\u0916\u093e\u0938
p573
sg9
(issf_api
FeatureSet
p574
(dp575
g12
(dp576
S'posn'
p577
S'50'
p578
sS'name'
p579
S'\xe0\xa4\xb9\xe0\xa5\x8c\xe0\xa4\x9c\xe0\xa4\x96\xe0\xa4\xbe\xe0\xa4\xb8'
p580
sS'af'
p581
S'\xe0\xa4\xb9\xe0\xa5\x8c\xe0\xa4\x9c\xe0\xa4\x96\xe0\xa4\xbe\xe0\xa4\xb8,n,m,sg,3,d,0,0'
p582
sS'chunkid'
p583
S'NP3'
p584
sS'drel'
p585
S'jjmod:JJP'
p586
sS'chunktype'
p587
S'head:NP3'
p588
ssbsg24
I00
sg25
I00
sg26
Nsg27
Nsg28
I2
sg29
I2
sg30
Nsg31
Nsg32
S'NNP'
p589
sg34
g574
sg35
I00
sba(issf_api
Word
p590
(dp591
g6
I00
sg7
V\u0938\u094d\u0925\u093f\u0924
p592
sg9
(issf_api
FeatureSet
p593
(dp594
g12
(dp595
S'posn'
p596
S'60'
p597
sS'name'
p598
S'\xe0\xa4\xb8\xe0\xa5\x8d\xe0\xa4\xa5\xe0\xa4\xbf\xe0\xa4\xa4'
p599
sS'af'
p600
S'\xe0\xa4\xb8\xe0\xa5\x8d\xe0\xa4\xa5\xe0\xa4\xbf\xe0\xa4\xa4,adj,any,any,,o,,'
p601
sS'chunkid'
p602
S'JJP'
p603
sS'drel'
p604
S'nmod:NP4'
p605
sS'chunktype'
p606
S'head:JJP'
p607
ssbsg24
I00
sg25
I00
sg26
Nsg27
Nsg28
I3
sg29
I2
sg30
Nsg31
Nsg32
S'JJ'
p608
sg34
g593
sg35
I00
sba(issf_api
Word
p609
(dp610
g6
I00
sg7
V\u0906\u0935\u093e\u0938
p611
sg9
(issf_api
FeatureSet
p612
(dp613
g12
(dp614
S'posn'
p615
S'70'
p616
sS'name'
p617
S'\xe0\xa4\x86\xe0\xa4\xb5\xe0\xa4\xbe\xe0\xa4\xb8'
p618
sS'af'
p619
S'\xe0\xa4\x86\xe0\xa4\xb5\xe0\xa4\xbe\xe0\xa4\xb8,n,m,sg,3,o,0_\xe0\xa4\xaa\xe0\xa4\xb0,0'
p620
sS'chunkid'
p621
S'NP4'
p622
sS'drel'
p623
S'k7p:VGF'
p624
sS'vpos'
p625
S'vib_2'
p626
sS'chunktype'
p627
S'head:NP4'
p628
ssbsg24
I00
sg25
I00
sg26
Nsg27
Nsg28
I4
sg29
I2
sg30
Nsg31
Nsg32
S'NN'
p629
sg34
g612
sg35
I00
sba(issf_api
Word
p630
(dp631
g6
I00
sg7
V\u092a\u0930
p632
sg9
(issf_api
FeatureSet
p633
(dp634
g12
(dp635
S'posn'
p636
S'80'
p637
sS'name'
p638
S'\xe0\xa4\xaa\xe0\xa4\xb0'
p639
sS'drel'
p640
S'lwg__psp:NP4'
p641
sS'chunktype'
p642
S'child:NP4'
p643
sS'af'
p644
S'\xe0\xa4\xaa\xe0\xa4\xb0,psp,,,,,,'
p645
ssbsg24
I00
sg25
I00
sg26
Nsg27
Nsg28
I4
sg29
I2
sg30
Nsg31
Nsg32
S'PSP'
p646
sg34
g633
sg35
I00
sba(issf_api
Word
p647
(dp648
g6
I00
sg7
V\u0936\u093e\u092e
p649
sg9
(issf_api
FeatureSet
p650
(dp651
g12
(dp652
S'posn'
p653
S'90'
p654
sS'name'
p655
S'\xe0\xa4\xb6\xe0\xa4\xbe\xe0\xa4\xae'
p656
sS'af'
p657
S'\xe0\xa4\xb6\xe0\xa4\xbe\xe0\xa4\xae,n,f,sg,3,o,0_\xe0\xa4\x95\xe0\xa5\x8b,0'
p658
sS'chunkid'
p659
S'NP5'
p660
sS'drel'
p661
S'k7t:VGF'
p662
sS'vpos'
p663
S'vib_2'
p664
sS'chunktype'
p665
S'head:NP5'
p666
ssbsg24
I00
sg25
I00
sg26
Nsg27
Nsg28
I5
sg29
I2
sg30
Nsg31
Nsg32
S'NN'
p667
sg34
g650
sg35
I00
sba(issf_api
Word
p668
(dp669
g6
I00
sg7
V\u0915\u094b
p670
sg9
(issf_api
FeatureSet
p671
(dp672
g12
(dp673
S'posn'
p674
S'100'
p675
sS'name'
p676
S'\xe0\xa4\x95\xe0\xa5\x8b'
p677
sS'drel'
p678
S'lwg__psp:NP5'
p679
sS'chunktype'
p680
S'child:NP5'
p681
sS'af'
p682
S'\xe0\xa4\x95\xe0\xa5\x8b,psp,,,,,,'
p683
ssbsg24
I00
sg25
I00
sg26
Nsg27
Nsg28
I5
sg29
I2
sg30
Nsg31
Nsg32
S'PSP'
p684
sg34
g671
sg35
I00
sba(issf_api
Word
p685
(dp686
g6
I00
sg7
V\u0932\u0917\u092d\u0917
p687
sg9
(issf_api
FeatureSet
p688
(dp689
g12
(dp690
S'posn'
p691
S'110'
p692
sS'name'
p693
S'\xe0\xa4\xb2\xe0\xa4\x97\xe0\xa4\xad\xe0\xa4\x97'
p694
sS'drel'
p695
S'lwg__rp:NP6'
p696
sS'chunktype'
p697
S'child:NP6'
p698
sS'af'
p699
S'\xe0\xa4\xb2\xe0\xa4\x97\xe0\xa4\xad\xe0\xa4\x97,avy,,,,,,'
p700
ssbsg24
I00
sg25
I00
sg26
Nsg27
Nsg28
I6
sg29
I2
sg30
Nsg31
Nsg32
S'RP'
p701
sg34
g688
sg35
I00
sba(issf_api
Word
p702
(dp703
g6
I00
sg7
V\u096a
p704
sg9
(issf_api
FeatureSet
p705
(dp706
g12
(dp707
S'posn'
p708
S'120'
p709
sS'name'
p710
S'\xe0\xa5\xaa'
p711
sS'drel'
p712
S'nmod__adj:NP6'
p713
sS'chunktype'
p714
S'child:NP6'
p715
sS'af'
p716
S'\xe0\xa5\xaa,num,any,any,,any,,'
p717
ssbsg24
I00
sg25
I00
sg26
Nsg27
Nsg28
I6
sg29
I2
sg30
Nsg31
Nsg32
S'QC'
p718
sg34
g705
sg35
I00
sba(issf_api
Word
p719
(dp720
g6
I00
sg7
V\u092c\u091c\u0947
p721
sg9
(issf_api
FeatureSet
p722
(dp723
g12
(dp724
S'posn'
p725
S'130'
p726
sS'name'
p727
S'\xe0\xa4\xac\xe0\xa4\x9c\xe0\xa5\x87'
p728
sS'af'
p729
S'\xe0\xa4\xac\xe0\xa4\x9c,n,any,sg,3,d,0,0'
p730
sS'chunkid'
p731
S'NP6'
p732
sS'drel'
p733
S'k7t:VGF'
p734
sS'chunktype'
p735
S'head:NP6'
p736
ssbsg24
I00
sg25
I00
sg26
Nsg27
Nsg28
I6
sg29
I2
sg30
Nsg31
Nsg32
S'NN'
p737
sg34
g722
sg35
I00
sba(issf_api
Word
p738
(dp739
g6
I00
sg7
V\u0905\u0902\u0924\u093f\u092e
p740
sg9
(issf_api
FeatureSet
p741
(dp742
g12
(dp743
S'posn'
p744
S'140'
p745
sS'name'
p746
S'\xe0\xa4\x85\xe0\xa4\x82\xe0\xa4\xa4\xe0\xa4\xbf\xe0\xa4\xae'
p747
sS'drel'
p748
S'nmod__adj:NP7'
p749
sS'chunktype'
p750
S'child:NP7'
p751
sS'af'
p752
S'\xe0\xa4\x85\xe0\xa4\x82\xe0\xa4\xa4\xe0\xa4\xbf\xe0\xa4\xae,adj,any,any,,d,,'
p753
ssbsg24
I00
sg25
I00
sg26
Nsg27
Nsg28
I7
sg29
I2
sg30
Nsg31
Nsg32
S'JJ'
p754
sg34
g741
sg35
I00
sba(issf_api
Word
p755
(dp756
g6
I00
sg7
V\u0938\u093e\u0902\u0938
p757
sg9
(issf_api
FeatureSet
p758
(dp759
g12
(dp760
S'posn'
p761
S'150'
p762
sS'name'
p763
S'\xe0\xa4\xb8\xe0\xa4\xbe\xe0\xa4\x82\xe0\xa4\xb8'
p764
sS'af'
p765
S'\xe0\xa4\xb8\xe0\xa4\xbe\xe0\xa4\x81\xe0\xa4\xb8,n,f,sg,3,d,0,0'
p766
sS'chunkid'
p767
S'NP7'
p768
sS'drel'
p769
S'pof:VGF'
p770
sS'chunktype'
p771
S'head:NP7'
p772
ssbsg24
I00
sg25
I00
sg26
Nsg27
Nsg28
I7
sg29
I2
sg30
Nsg31
Nsg32
S'NN'
p773
sg34
g758
sg35
I00
sba(issf_api
Word
p774
(dp775
g6
I00
sg7
V\u0932\u0940
p776
sg9
(issf_api
FeatureSet
p777
(dp778
g12
(dp779
S'posn'
p780
S'160'
p781
sS'name'
p782
S'\xe0\xa4\xb2\xe0\xa5\x80'
p783
sS'af'
p784
S'\xe0\xa4\xb2\xe0\xa5\x87,v,f,sg,3,,\xe0\xa4\xaf\xe0\xa4\xbe,yA'
p785
sS'chunkid'
p786
S'VGF'
p787
sS'chunktype'
p788
S'head:VGF'
p789
sS'voicetype'
p790
S'active'
p791
sS'stype'
p792
S'declarative'
p793
ssbsg24
I00
sg25
I00
sg26
Nsg27
Nsg28
I8
sg29
I2
sg30
Nsg31
Nsg32
S'VM'
p794
sg34
g777
sg35
I00
sba(issf_api
Word
p795
(dp796
g6
I00
sg7
V.
p797
sg9
(issf_api
FeatureSet
p798
(dp799
g12
(dp800
S'posn'
p801
S'170'
p802
sS'name'
p803
g354
sS'af'
p804
S'.,punc,,,,,,'
p805
sS'chunkid'
p806
S'BLK'
p807
sS'drel'
p808
S'rsym:VGF'
p809
sS'chunktype'
p810
S'head:BLK'
p811
ssbsg24
I00
sg25
I00
sg26
Nsg27
Nsg28
I9
sg29
I2
sg30
Nsg31
Nsg32
S'SYM'
p812
sg34
g798
sg35
I00
sba(issf_api
Word
p813
(dp814
g6
I00
sg7
V\u0935\u0930\u094d\u0937\u094b\u0902
p815
sg9
(issf_api
FeatureSet
p816
(dp817
g12
(dp818
S'posn'
p819
S'10'
p820
sS'name'
p821
S'\xe0\xa4\xb5\xe0\xa4\xb0\xe0\xa5\x8d\xe0\xa4\xb7\xe0\xa5\x8b\xe0\xa4\x82'
p822
sS'af'
p823
S'\xe0\xa4\xb5\xe0\xa4\xb0\xe0\xa5\x8d\xe0\xa4\xb7,n,m,pl,3,o,0_\xe0\xa4\xb8\xe0\xa5\x87,0'
p824
sS'chunkid'
p825
S'NP'
p826
sS'drel'
p827
S'k7t:VGNF'
p828
sS'vpos'
p829
S'vib_2'
p830
sS'chunktype'
p831
S'head:NP'
p832
ssbsg24
I00
sg25
I00
sg26
Nsg27
Nsg28
I0
sg29
I3
sg30
Nsg31
Nsg32
S'NN'
p833
sg34
g816
sg35
I00
sba(issf_api
Word
p834
(dp835
g6
I00
sg7
V\u0938\u0947
p836
sg9
(issf_api
FeatureSet
p837
(dp838
g12
(dp839
S'posn'
p840
S'20'
p841
sS'name'
p842
S'\xe0\xa4\xb8\xe0\xa5\x87'
p843
sS'drel'
p844
S'lwg__psp:NP'
p845
sS'chunktype'
p846
S'child:NP'
p847
sS'af'
p848
S'\xe0\xa4\xb8\xe0\xa5\x87,psp,,,,,,'
p849
ssbsg24
I00
sg25
I00
sg26
Nsg27
Nsg28
I0
sg29
I3
sg30
Nsg31
Nsg32
S'PSP'
p850
sg34
g837
sg35
I00
sba(issf_api
Word
p851
(dp852
g6
I00
sg7
V\u0909\u0928\u0915\u0947
p853
sg9
(issf_api
FeatureSet
p854
(dp855
g12
(dp856
S'crefhead'
p857
S'\xe0\xa4\x89\xe0\xa4\xa8\xe0\xa4\x95\xe0\xa5\x87:i7'
p858
sS'posn'
p859
S'30'
p860
sS'name'
p861
S'\xe0\xa4\x89\xe0\xa4\xa8\xe0\xa4\x95\xe0\xa5\x87'
p862
sS'af'
p863
S'\xe0\xa4\xb5\xe0\xa4\xb9,pn,any,sg,3h,o,0_\xe0\xa4\xb8\xe0\xa4\xbe\xe0\xa4\xa5,ke'
p864
sS'chunkid'
p865
S'NP2'
p866
sS'creftype'
p867
S'Anaphora-C:i5'
p868
sS'chunktype'
p869
S'head:NP2'
p870
sS'vpos'
p871
S'vib_2'
p872
sS'cref'
p873
S'i7%1:t1'
p874
sS'drel'
p875
S'ras-k1:VGNF'
p876
ssbsg24
I00
sg25
I00
sg26
Nsg27
Nsg28
I1
sg29
I3
sg30
Nsg31
Nsg32
S'PRP'
p877
sg34
g854
sg35
I00
sba(issf_api
Word
p878
(dp879
g6
I00
sg7
V\u0938\u093e\u0925
p880
sg9
(issf_api
FeatureSet
p881
(dp882
g12
(dp883
S'posn'
p884
S'40'
p885
sS'name'
p886
S'\xe0\xa4\xb8\xe0\xa4\xbe\xe0\xa4\xa5'
p887
sS'drel'
p888
S'lwg__psp:NP2'
p889
sS'chunktype'
p890
S'child:NP2'
p891
sS'af'
p892
S'\xe0\xa4\xb8\xe0\xa4\xbe\xe0\xa4\xa5,nst,m,sg,3,d,,'
p893
ssbsg24
I00
sg25
I00
sg26
Nsg27
Nsg28
I1
sg29
I3
sg30
Nsg31
Nsg32
S'NST'
p894
sg34
g881
sg35
I00
sba(issf_api
Word
p895
(dp896
g6
I00
sg7
V\u0930\u0939
p897
sg9
(issf_api
FeatureSet
p898
(dp899
g12
(dp900
S'posn'
p901
S'50'
p902
sS'name'
p903
S'\xe0\xa4\xb0\xe0\xa4\xb9'
p904
sS'af'
p905
S'\xe0\xa4\xb0\xe0\xa4\xb9,v,any,sg,3,,0_\xe0\xa4\xb0\xe0\xa4\xb9+\xe0\xa4\x8f\xe0\xa4\x82,0'
p906
sS'chunkid'
p907
S'VGNF'
p908
sS'stype'
p909
S'declarative'
p910
sS'drel'
p911
S'nmod__k1inv:NP3'
p912
sS'voicetype'
p913
S'active'
p914
sS'vpos'
p915
S'tam_2'
p916
sS'chunktype'
p917
S'head:VGNF'
p918
ssbsg24
I00
sg25
I00
sg26
Nsg27
Nsg28
I2
sg29
I3
sg30
Nsg31
Nsg32
S'VM'
p919
sg34
g898
sg35
I00
sba(issf_api
Word
p920
(dp921
g6
I00
sg7
V\u0930\u0939\u0947
p922
sg9
(issf_api
FeatureSet
p923
(dp924
g12
(dp925
S'posn'
p926
S'60'
p927
sS'name'
p928
S'\xe0\xa4\xb0\xe0\xa4\xb9\xe0\xa5\x87'
p929
sS'drel'
p930
S'lwg__vaux:VGNF'
p931
sS'chunktype'
p932
S'child:VGNF'
p933
sS'af'
p934
S'\xe0\xa4\xb0\xe0\xa4\xb9,v,any,sg,3,,\xe0\xa4\x8f\xe0\xa4\x82,eM'
p935
ssbsg24
I00
sg25
I00
sg26
Nsg27
Nsg28
I2
sg29
I3
sg30
Nsg31
Nsg32
S'VAUX'
p936
sg34
g923
sg35
I00
sba(issf_api
Word
p937
(dp938
g6
I00
sg7
V\u0907\u092e\u0930\u094b\u091c
p939
sg9
(issf_api
FeatureSet
p940
(dp941
g12
(dp942
S'crefhead'
p943
S'\xe0\xa4\x87\xe0\xa4\xae\xe0\xa4\xb0\xe0\xa5\x8b\xe0\xa4\x9c:i8'
p944
sS'posn'
p945
S'70'
p946
sS'name'
p947
S'\xe0\xa4\x87\xe0\xa4\xae\xe0\xa4\xb0\xe0\xa5\x8b\xe0\xa4\x9c'
p948
sS'af'
p949
S'\xe0\xa4\x87\xe0\xa4\xae\xe0\xa4\xb0\xe0\xa5\x8b\xe0\xa4\x9c,n,m,sg,3,d,0,0'
p950
sS'chunkid'
p951
S'NP3'
p952
sS'chunktype'
p953
S'head:NP3'
p954
sS'crefchainhead'
p955
S'i8:t4'
p956
sS'cref'
p957
S'i8%1:t4'
p958
sS'drel'
p959
S'k1:VGF'
p960
ssbsg24
I00
sg25
I00
sg26
Nsg27
Nsg28
I3
sg29
I3
sg30
Nsg31
Nsg32
S'NNP'
p961
sg34
g940
sg35
I00
sba(issf_api
Word
p962
(dp963
g6
I00
sg7
V\u0909\u0938
p964
sg9
(issf_api
FeatureSet
p965
(dp966
g12
(dp967
S'posn'
p968
S'80'
p969
sS'name'
p970
S'\xe0\xa4\x89\xe0\xa4\xb8'
p971
sS'drel'
p972
S'nmod__adj:NP4'
p973
sS'chunktype'
p974
S'child:NP4'
p975
sS'af'
p976
S'\xe0\xa4\xb5\xe0\xa4\xb9,pn,any,sg,3,o,,'
p977
ssbsg24
I00
sg25
I00
sg26
Nsg27
Nsg28
I4
sg29
I3
sg30
Nsg31
Nsg32
S'DEM'
p978
sg34
g965
sg35
I00
sba(issf_api
Word
p979
(dp980
g6
I00
sg7
V\u0935\u0915\u094d\u0924
p981
sg9
(issf_api
FeatureSet
p982
(dp983
g12
(dp984
S'posn'
p985
S'90'
p986
sS'name'
p987
S'\xe0\xa4\xb5\xe0\xa4\x95\xe0\xa5\x8d\xe0\xa4\xa4'
p988
sS'af'
p989
S'\xe0\xa4\xb5\xe0\xa4\x95\xe0\xa5\x8d\xe0\xa4\xa4,n,m,sg,3,d,0,0'
p990
sS'chunkid'
p991
S'NP4'
p992
sS'drel'
p993
S'k7t:VGF'
p994
sS'chunktype'
p995
S'head:NP4'
p996
ssbsg24
I00
sg25
I00
sg26
Nsg27
Nsg28
I4
sg29
I3
sg30
Nsg31
Nsg32
S'NN'
p997
sg34
g982
sg35
I00
sba(issf_api
Word
p998
(dp999
g6
I00
sg7
V\u092d\u0940
p1000
sg9
(issf_api
FeatureSet
p1001
(dp1002
g12
(dp1003
S'posn'
p1004
S'100'
p1005
sS'name'
p1006
S'\xe0\xa4\xad\xe0\xa5\x80'
p1007
sS'drel'
p1008
S'lwg__rp:NP4'
p1009
sS'chunktype'
p1010
S'child:NP4'
p1011
sS'af'
p1012
S'\xe0\xa4\xad\xe0\xa5\x80,avy,,,,,,'
p1013
ssbsg24
I00
sg25
I00
sg26
Nsg27
Nsg28
I4
sg29
I3
sg30
Nsg31
Nsg32
S'RP'
p1014
sg34
g1001
sg35
I00
sba(issf_api
Word
p1015
(dp1016
g6
I00
sg7
V\u0909\u0928\u0915\u0947
p1017
sg9
(issf_api
FeatureSet
p1018
(dp1019
g12
(dp1020
S'crefhead'
p1021
S'\xe0\xa4\x89\xe0\xa4\xa8\xe0\xa4\x95\xe0\xa5\x87:i9'
p1022
sS'posn'
p1023
S'110'
p1024
sS'name'
p1025
S'\xe0\xa4\x89\xe0\xa4\xa8\xe0\xa4\x95\xe0\xa5\x872'
p1026
sS'af'
p1027
S'\xe0\xa4\xb5\xe0\xa4\xb9,pn,any,sg,3h,o,0_\xe0\xa4\xaa\xe0\xa4\xbe\xe0\xa4\xb8,ke'
p1028
sS'chunkid'
p1029
S'NP5'
p1030
sS'creftype'
p1031
S'Anaphora-C:i7'
p1032
sS'chunktype'
p1033
S'head:NP5'
p1034
sS'vpos'
p1035
S'vib_2_RP'
p1036
sS'cref'
p1037
S'i9%1:t1'
p1038
sS'drel'
p1039
S'k7p:VGF'
p1040
ssbsg24
I00
sg25
I00
sg26
Nsg27
Nsg28
I5
sg29
I3
sg30
Nsg31
Nsg32
S'PRP'
p1041
sg34
g1018
sg35
I00
sba(issf_api
Word
p1042
(dp1043
g6
I00
sg7
V\u092a\u093e\u0938
p1044
sg9
(issf_api
FeatureSet
p1045
(dp1046
g12
(dp1047
S'posn'
p1048
S'120'
p1049
sS'name'
p1050
S'\xe0\xa4\xaa\xe0\xa4\xbe\xe0\xa4\xb8'
p1051
sS'drel'
p1052
S'lwg__psp:NP5'
p1053
sS'chunktype'
p1054
S'child:NP5'
p1055
sS'af'
p1056
S'\xe0\xa4\xaa\xe0\xa4\xbe\xe0\xa4\xb8,nst,m,sg,3,d,,'
p1057
ssbsg24
I00
sg25
I00
sg26
Nsg27
Nsg28
I5
sg29
I3
sg30
Nsg31
Nsg32
S'NST'
p1058
sg34
g1045
sg35
I00
sba(issf_api
Word
p1059
(dp1060
g6
I00
sg7
V\u0939\u0940
p1061
sg9
(issf_api
FeatureSet
p1062
(dp1063
g12
(dp1064
S'posn'
p1065
S'130'
p1066
sS'name'
p1067
S'\xe0\xa4\xb9\xe0\xa5\x80'
p1068
sS'drel'
p1069
S'lwg__rp:NP5'
p1070
sS'chunktype'
p1071
S'child:NP5'
p1072
sS'af'
p1073
S'\xe0\xa4\xb9\xe0\xa5\x80,avy,,,,,,'
p1074
ssbsg24
I00
sg25
I00
sg26
Nsg27
Nsg28
I5
sg29
I3
sg30
Nsg31
Nsg32
S'RP'
p1075
sg34
g1062
sg35
I00
sba(issf_api
Word
p1076
(dp1077
g6
I00
sg7
V\u0925\u0947
p1078
sg9
(issf_api
FeatureSet
p1079
(dp1080
g12
(dp1081
S'posn'
p1082
S'140'
p1083
sS'name'
p1084
S'\xe0\xa4\xa5\xe0\xa5\x87'
p1085
sS'af'
p1086
S'\xe0\xa4\xa5\xe0\xa4\xbe,v,m,sg,3h,,\xe0\xa4\xa5\xe0\xa4\xbe,WA'
p1087
sS'chunkid'
p1088
S'VGF'
p1089
sS'chunktype'
p1090
S'head:VGF'
p1091
sS'voicetype'
p1092
S'active'
p1093
sS'stype'
p1094
S'declarative'
p1095
ssbsg24
I00
sg25
I00
sg26
Nsg27
Nsg28
I6
sg29
I3
sg30
Nsg31
Nsg32
S'VM'
p1096
sg34
g1079
sg35
I00
sba(issf_api
Word
p1097
(dp1098
g6
I00
sg7
V.
p1099
sg9
(issf_api
FeatureSet
p1100
(dp1101
g12
(dp1102
S'posn'
p1103
S'150'
p1104
sS'name'
p1105
g354
sS'af'
p1106
S'.,punc,,,,,,'
p1107
sS'chunkid'
p1108
S'BLK'
p1109
sS'drel'
p1110
S'rsym:VGF'
p1111
sS'chunktype'
p1112
S'head:BLK'
p1113
ssbsg24
I00
sg25
I00
sg26
Nsg27
Nsg28
I7
sg29
I3
sg30
Nsg31
Nsg32
S'SYM'
p1114
sg34
g1100
sg35
I00
sba(issf_api
Word
p1115
(dp1116
g6
I00
sg7
V\u0907\u092e\u0930\u094b\u091c
p1117
sg9
(issf_api
FeatureSet
p1118
(dp1119
g12
(dp1120
S'crefhead'
p1121
S'\xe0\xa4\x87\xe0\xa4\xae\xe0\xa4\xb0\xe0\xa5\x8b\xe0\xa4\x9c:i10'
p1122
sS'posn'
p1123
S'10'
p1124
sS'name'
p1125
S'\xe0\xa4\x87\xe0\xa4\xae\xe0\xa4\xb0\xe0\xa5\x8b\xe0\xa4\x9c'
p1126
sS'af'
p1127
S'\xe0\xa4\x87\xe0\xa4\xae\xe0\xa4\xb0\xe0\xa5\x8b\xe0\xa4\x9c,n,m,sg,3,d,0,0'
p1128
sS'chunkid'
p1129
S'NP'
p1130
sS'creftype'
p1131
S'Coreference-Identity:i8'
p1132
sS'chunktype'
p1133
S'head:NP'
p1134
sS'cref'
p1135
S'i10%1:t4'
p1136
sS'drel'
p1137
S'k1:VGF'
p1138
ssbsg24
I00
sg25
I00
sg26
Nsg27
Nsg28
I0
sg29
I4
sg30
Nsg31
Nsg32
S'NNP'
p1139
sg34
g1118
sg35
I00
sba(issf_api
Word
p1140
(dp1141
g6
I00
sg7
V\u0916\u0941\u0926
p1142
sg9
(issf_api
FeatureSet
p1143
(dp1144
g12
(dp1145
S'crefhead'
p1146
S'\xe0\xa4\x96\xe0\xa5\x81\xe0\xa4\xa6:i11'
p1147
sS'posn'
p1148
S'30'
p1149
sS'name'
p1150
S'\xe0\xa4\x96\xe0\xa5\x81\xe0\xa4\xa6'
p1151
sS'af'
p1152
S'\xe0\xa4\x96\xe0\xa5\x81\xe0\xa4\xa6,pn,,,,,,'
p1153
sS'chunkid'
p1154
S'NP2'
p1155
sS'creftype'
p1156
S'Anaphora-C:i10'
p1157
sS'chunktype'
p1158
S'head:NP2'
p1159
sS'cref'
p1160
S'i11%1:t4'
p1161
sS'drel'
p1162
S'nmod__emph:NP'
p1163
ssbsg24
I00
sg25
I00
sg26
Nsg27
Nsg28
I1
sg29
I4
sg30
Nsg31
Nsg32
S'PRP'
p1164
sg34
g1143
sg35
I00
sba(issf_api
Word
p1165
(dp1166
g6
I00
sg7
V\u092d\u0940
p1167
sg9
(issf_api
FeatureSet
p1168
(dp1169
g12
(dp1170
S'posn'
p1171
S'30'
p1172
sS'name'
p1173
S'\xe0\xa4\xad\xe0\xa5\x80'
p1174
sS'drel'
p1175
S'lwg__rp:NP2'
p1176
sS'chunktype'
p1177
S'child:NP2'
p1178
sS'af'
p1179
S'\xe0\xa4\xad\xe0\xa5\x80,avy,,,,,,'
p1180
ssbsg24
I00
sg25
I00
sg26
Nsg27
Nsg28
I1
sg29
I4
sg30
Nsg31
Nsg32
S'RP'
p1181
sg34
g1168
sg35
I00
sba(issf_api
Word
p1182
(dp1183
g6
I00
sg7
V\u0932\u0947\u0916\u0915
p1184
sg9
(issf_api
FeatureSet
p1185
(dp1186
g12
(dp1187
S'posn'
p1188
S'40'
p1189
sS'name'
p1190
S'\xe0\xa4\xb2\xe0\xa5\x87\xe0\xa4\x96\xe0\xa4\x95'
p1191
sS'af'
p1192
S'\xe0\xa4\xb2\xe0\xa5\x87\xe0\xa4\x96\xe0\xa4\x95,n,m,sg,3,d,0,0'
p1193
sS'chunkid'
p1194
S'NP3'
p1195
sS'drel'
p1196
S'k1s:VGF'
p1197
sS'chunktype'
p1198
S'head:NP3'
p1199
ssbsg24
I00
sg25
I00
sg26
Nsg27
Nsg28
I2
sg29
I4
sg30
Nsg31
Nsg32
S'NN'
p1200
sg34
g1185
sg35
I00
sba(issf_api
Word
p1201
(dp1202
g6
I00
sg7
V\u0939\u0948\u0902
p1203
sg9
(issf_api
FeatureSet
p1204
(dp1205
g12
(dp1206
S'posn'
p1207
S'50'
p1208
sS'name'
p1209
S'\xe0\xa4\xb9\xe0\xa5\x88\xe0\xa4\x82'
p1210
sS'af'
p1211
S'\xe0\xa4\xb9\xe0\xa5\x88,v,any,sg,3h,,\xe0\xa4\xb9\xe0\xa5\x88,hE'
p1212
sS'chunkid'
p1213
S'VGF'
p1214
sS'chunktype'
p1215
S'head:VGF'
p1216
sS'voicetype'
p1217
S'active'
p1218
sS'stype'
p1219
S'declarative'
p1220
ssbsg24
I00
sg25
I00
sg26
Nsg27
Nsg28
I3
sg29
I4
sg30
Nsg31
Nsg32
S'VM'
p1221
sg34
g1204
sg35
I00
sba(issf_api
Word
p1222
(dp1223
g6
I00
sg7
V.
p1224
sg9
(issf_api
FeatureSet
p1225
(dp1226
g12
(dp1227
S'posn'
p1228
S'60'
p1229
sS'name'
p1230
g354
sS'af'
p1231
S'.,punc,,,,,,'
p1232
sS'chunkid'
p1233
S'BLK'
p1234
sS'drel'
p1235
S'rsym:VGF'
p1236
sS'chunktype'
p1237
S'head:BLK'
p1238
ssbsg24
I00
sg25
I00
sg26
Nsg27
Nsg28
I4
sg29
I4
sg30
Nsg31
Nsg32
S'SYM'
p1239
sg34
g1225
sg35
I00
sba(issf_api
Word
p1240
(dp1241
g6
I00
sg7
V\u0905\u092e\u0943\u0924\u093e
p1242
sg9
(issf_api
FeatureSet
p1243
(dp1244
g12
(dp1245
S'posn'
p1246
S'10'
p1247
sS'name'
p1248
S'\xe0\xa4\x85\xe0\xa4\xae\xe0\xa5\x83\xe0\xa4\xa4\xe0\xa4\xbe'
p1249
sS'af'
p1250
S'\xe0\xa4\x85\xe0\xa4\xae\xe0\xa5\x83\xe0\xa4\xa4\xe0\xa4\xbe,n,f,sg,3,d,0,0'
p1251
sS'drel'
p1252
S'pof__cn:NP'
p1253
sS'chunktype'
p1254
S'child:NP'
p1255
sS'cref'
p1256
S'i12%0:t1'
p1257
ssbsg24
I00
sg25
I00
sg26
Nsg27
Nsg28
I0
sg29
I5
sg30
Nsg31
Nsg32
S'NNPC'
p1258
sg34
g1243
sg35
I00
sba(issf_api
Word
p1259
(dp1260
g6
I00
sg7
V\u092a\u094d\u0930\u0940\u0924\u092e
p1261
sg9
(issf_api
FeatureSet
p1262
(dp1263
g12
(dp1264
S'crefhead'
p1265
S'\xe0\xa4\xaa\xe0\xa5\x8d\xe0\xa4\xb0\xe0\xa5\x80\xe0\xa4\xa4\xe0\xa4\xae:i12'
p1266
sS'posn'
p1267
S'20'
p1268
sS'name'
p1269
S'\xe0\xa4\xaa\xe0\xa5\x8d\xe0\xa4\xb0\xe0\xa5\x80\xe0\xa4\xa4\xe0\xa4\xae'
p1270
sS'af'
p1271
S'\xe0\xa4\xaa\xe0\xa5\x8d\xe0\xa4\xb0\xe0\xa5\x80\xe0\xa4\xa4\xe0\xa4\xae,n,f,sg,3,o,0_\xe0\xa4\x95\xe0\xa5\x87,0'
p1272
sS'chunkid'
p1273
S'NP'
p1274
sS'creftype'
p1275
S'Coreference-Identity:i9'
p1276
sS'chunktype'
p1277
S'head:NP'
p1278
sS'vpos'
p1279
S'vib_3'
p1280
sS'cref'
p1281
S'i12%1:t1'
p1282
sS'drel'
p1283
S'r6:NP2'
p1284
ssbsg24
I00
sg25
I00
sg26
Nsg27
Nsg28
I0
sg29
I5
sg30
Nsg31
Nsg32
S'NNP'
p1285
sg34
g1262
sg35
I00
sba(issf_api
Word
p1286
(dp1287
g6
I00
sg7
V\u0915\u0947
p1288
sg9
(issf_api
FeatureSet
p1289
(dp1290
g12
(dp1291
S'posn'
p1292
S'30'
p1293
sS'name'
p1294
S'\xe0\xa4\x95\xe0\xa5\x87'
p1295
sS'drel'
p1296
S'lwg__psp:NP'
p1297
sS'chunktype'
p1298
S'child:NP'
p1299
sS'af'
p1300
S'\xe0\xa4\x95\xe0\xa5\x87,psp,m,sg,,o,,'
p1301
ssbsg24
I00
sg25
I00
sg26
Nsg27
Nsg28
I0
sg29
I5
sg30
Nsg31
Nsg32
S'PSP'
p1302
sg34
g1289
sg35
I00
sba(issf_api
Word
p1303
(dp1304
g6
I00
sg7
V\u092a\u0930\u093f\u0935\u093e\u0930
p1305
sg9
(issf_api
FeatureSet
p1306
(dp1307
g12
(dp1308
S'posn'
p1309
S'40'
p1310
sS'name'
p1311
S'\xe0\xa4\xaa\xe0\xa4\xb0\xe0\xa4\xbf\xe0\xa4\xb5\xe0\xa4\xbe\xe0\xa4\xb0'
p1312
sS'af'
p1313
S'\xe0\xa4\xaa\xe0\xa4\xb0\xe0\xa4\xbf\xe0\xa4\xb5\xe0\xa4\xbe\xe0\xa4\xb0,n,m,sg,3,o,0_\xe0\xa4\xae\xe0\xa5\x87\xe0\xa4\x82,0'
p1314
sS'chunkid'
p1315
S'NP2'
p1316
sS'drel'
p1317
S'k7:VGF'
p1318
sS'vpos'
p1319
S'vib_2'
p1320
sS'chunktype'
p1321
S'head:NP2'
p1322
ssbsg24
I00
sg25
I00
sg26
Nsg27
Nsg28
I1
sg29
I5
sg30
Nsg31
Nsg32
S'NN'
p1323
sg34
g1306
sg35
I00
sba(issf_api
Word
p1324
(dp1325
g6
I00
sg7
V\u092e\u0947\u0902
p1326
sg9
(issf_api
FeatureSet
p1327
(dp1328
g12
(dp1329
S'posn'
p1330
S'50'
p1331
sS'name'
p1332
S'\xe0\xa4\xae\xe0\xa5\x87\xe0\xa4\x82'
p1333
sS'drel'
p1334
S'lwg__psp:NP2'
p1335
sS'chunktype'
p1336
S'child:NP2'
p1337
sS'af'
p1338
S'\xe0\xa4\xae\xe0\xa5\x87\xe0\xa4\x82,psp,,,,,,'
p1339
ssbsg24
I00
sg25
I00
sg26
Nsg27
Nsg28
I1
sg29
I5
sg30
Nsg31
Nsg32
S'PSP'
p1340
sg34
g1327
sg35
I00
sba(issf_api
Word
p1341
(dp1342
g6
I00
sg7
V\u090f\u0915
p1343
sg9
(issf_api
FeatureSet
p1344
(dp1345
g12
(dp1346
S'posn'
p1347
S'60'
p1348
sS'name'
p1349
S'\xe0\xa4\x8f\xe0\xa4\x95'
p1350
sS'drel'
p1351
S'nmod__adj:NP3'
p1352
sS'chunktype'
p1353
S'child:NP3'
p1354
sS'af'
p1355
S'\xe0\xa4\x8f\xe0\xa4\x95,num,any,any,,any,,'
p1356
ssbsg24
I00
sg25
I00
sg26
Nsg27
Nsg28
I2
sg29
I5
sg30
Nsg31
Nsg32
S'QC'
p1357
sg34
g1344
sg35
I00
sba(issf_api
Word
p1358
(dp1359
g6
I00
sg7
V\u092a\u0941\u0924\u094d\u0930
p1360
sg9
(issf_api
FeatureSet
p1361
(dp1362
g12
(dp1363
S'posn'
p1364
S'70'
p1365
sS'name'
p1366
S'\xe0\xa4\xaa\xe0\xa5\x81\xe0\xa4\xa4\xe0\xa5\x8d\xe0\xa4\xb0'
p1367
sS'af'
p1368
S'\xe0\xa4\xaa\xe0\xa5\x81\xe0\xa4\xa4\xe0\xa5\x8d\xe0\xa4\xb0,n,m,sg,3,d,0,0'
p1369
sS'chunkid'
p1370
S'NP3'
p1371
sS'drel'
p1372
S'k1:VGF'
p1373
sS'chunktype'
p1374
S'head:NP3'
p1375
ssbsg24
I00
sg25
I00
sg26
Nsg27
Nsg28
I2
sg29
I5
sg30
Nsg31
Nsg32
S'NN'
p1376
sg34
g1361
sg35
I00
sba(issf_api
Word
p1377
(dp1378
g6
I00
sg7
V\u092d\u0940
p1379
sg9
(issf_api
FeatureSet
p1380
(dp1381
g12
(dp1382
S'posn'
p1383
S'80'
p1384
sS'name'
p1385
S'\xe0\xa4\xad\xe0\xa5\x80'
p1386
sS'drel'
p1387
S'lwg__rp:NP3'
p1388
sS'chunktype'
p1389
S'child:NP3'
p1390
sS'af'
p1391
S'\xe0\xa4\xad\xe0\xa5\x80,avy,,,,,,'
p1392
ssbsg24
I00
sg25
I00
sg26
Nsg27
Nsg28
I2
sg29
I5
sg30
Nsg31
Nsg32
S'RP'
p1393
sg34
g1380
sg35
I00
sba(issf_api
Word
p1394
(dp1395
g6
I00
sg7
V\u0939\u0948
p1396
sg9
(issf_api
FeatureSet
p1397
(dp1398
g12
(dp1399
S'posn'
p1400
S'90'
p1401
sS'name'
p1402
S'\xe0\xa4\xb9\xe0\xa5\x88'
p1403
sS'af'
p1404
S'\xe0\xa4\xb9\xe0\xa5\x88,v,any,sg,3,,\xe0\xa4\xb9\xe0\xa5\x88,hE'
p1405
sS'chunkid'
p1406
S'VGF'
p1407
sS'chunktype'
p1408
S'head:VGF'
p1409
sS'voicetype'
p1410
S'active'
p1411
sS'stype'
p1412
S'declarative'
p1413
ssbsg24
I00
sg25
I00
sg26
Nsg27
Nsg28
I3
sg29
I5
sg30
Nsg31
Nsg32
S'VM'
p1414
sg34
g1397
sg35
I00
sba(issf_api
Word
p1415
(dp1416
g6
I00
sg7
V.
p1417
sg9
(issf_api
FeatureSet
p1418
(dp1419
g12
(dp1420
S'posn'
p1421
S'100'
p1422
sS'name'
p1423
g354
sS'af'
p1424
S'.,punc,,,,,,'
p1425
sS'chunkid'
p1426
S'BLK'
p1427
sS'drel'
p1428
S'rsym:VGF'
p1429
sS'chunktype'
p1430
S'head:BLK'
p1431
ssbsg24
I00
sg25
I00
sg26
Nsg27
Nsg28
I4
sg29
I5
sg30
Nsg31
Nsg32
S'SYM'
p1432
sg34
g1418
sg35
I00
sba(issf_api
Word
p1433
(dp1434
g6
I00
sg7
V\u092a\u093e\u0930\u093f\u0935\u093e\u0930\u093f\u0915
p1435
sg9
(issf_api
FeatureSet
p1436
(dp1437
g12
(dp1438
S'posn'
p1439
S'10'
p1440
sS'name'
p1441
S'\xe0\xa4\xaa\xe0\xa4\xbe\xe0\xa4\xb0\xe0\xa4\xbf\xe0\xa4\xb5\xe0\xa4\xbe\xe0\xa4\xb0\xe0\xa4\xbf\xe0\xa4\x95'
p1442
sS'drel'
p1443
S'nmod__adj:NP'
p1444
sS'chunktype'
p1445
S'child:NP'
p1446
sS'af'
p1447
S'\xe0\xa4\xaa\xe0\xa4\xbe\xe0\xa4\xb0\xe0\xa4\xbf\xe0\xa4\xb5\xe0\xa4\xbe\xe0\xa4\xb0\xe0\xa4\xbf\xe0\xa4\x95,adj,any,any,,o,,'
p1448
ssbsg24
I00
sg25
I00
sg26
Nsg27
Nsg28
I0
sg29
I6
sg30
Nsg31
Nsg32
S'JJ'
p1449
sg34
g1436
sg35
I00
sba(issf_api
Word
p1450
(dp1451
g6
I00
sg7
V\u0938\u0942\u0924\u094d\u0930\u094b\u0902
p1452
sg9
(issf_api
FeatureSet
p1453
(dp1454
g12
(dp1455
S'posn'
p1456
S'20'
p1457
sS'name'
p1458
S'\xe0\xa4\xb8\xe0\xa5\x82\xe0\xa4\xa4\xe0\xa5\x8d\xe0\xa4\xb0\xe0\xa5\x8b\xe0\xa4\x82'
p1459
sS'af'
p1460
S'\xe0\xa4\xb8\xe0\xa5\x82\xe0\xa4\xa4\xe0\xa5\x8d\xe0\xa4\xb0,n,m,pl,3,o,0_\xe0\xa4\xa8\xe0\xa5\x87,0'
p1461
sS'chunkid'
p1462
S'NP'
p1463
sS'drel'
p1464
S'k1:VGF'
p1465
sS'vpos'
p1466
S'vib_3'
p1467
sS'chunktype'
p1468
S'head:NP'
p1469
ssbsg24
I00
sg25
I00
sg26
Nsg27
Nsg28
I0
sg29
I6
sg30
Nsg31
Nsg32
S'NN'
p1470
sg34
g1453
sg35
I00
sba(issf_api
Word
p1471
(dp1472
g6
I00
sg7
V\u0928\u0947
p1473
sg9
(issf_api
FeatureSet
p1474
(dp1475
g12
(dp1476
S'posn'
p1477
S'30'
p1478
sS'name'
p1479
S'\xe0\xa4\xa8\xe0\xa5\x87'
p1480
sS'drel'
p1481
S'lwg__psp:NP'
p1482
sS'chunktype'
p1483
S'child:NP'
p1484
sS'af'
p1485
S'\xe0\xa4\xa8\xe0\xa5\x87,psp,,,,,,'
p1486
ssbsg24
I00
sg25
I00
sg26
Nsg27
Nsg28
I0
sg29
I6
sg30
Nsg31
Nsg32
S'PSP'
p1487
sg34
g1474
sg35
I00
sba(issf_api
Word
p1488
(dp1489
g6
I00
sg7
V\u092c\u0924\u093e\u092f\u093e
p1490
sg9
(issf_api
FeatureSet
p1491
(dp1492
g12
(dp1493
S'posn'
p1494
S'40'
p1495
sS'name'
p1496
S'\xe0\xa4\xac\xe0\xa4\xa4\xe0\xa4\xbe\xe0\xa4\xaf\xe0\xa4\xbe'
p1497
sS'af'
p1498
S'\xe0\xa4\xac\xe0\xa4\xa4\xe0\xa4\xbe,v,m,sg,3,,\xe0\xa4\xaf\xe0\xa4\xbe,yA'
p1499
sS'chunkid'
p1500
S'VGF'
p1501
sS'chunktype'
p1502
S'head:VGF'
p1503
sS'voicetype'
p1504
S'active'
p1505
sS'stype'
p1506
S'declarative'
p1507
ssbsg24
I00
sg25
I00
sg26
Nsg27
Nsg28
I1
sg29
I6
sg30
Nsg31
Nsg32
S'VM'
p1508
sg34
g1491
sg35
I00
sba(issf_api
Word
p1509
(dp1510
g6
I00
sg7
V\u0915\u093f
p1511
sg9
(issf_api
FeatureSet
p1512
(dp1513
g12
(dp1514
S'posn'
p1515
S'50'
p1516
sS'name'
p1517
S'\xe0\xa4\x95\xe0\xa4\xbf'
p1518
sS'af'
p1519
S'\xe0\xa4\x95\xe0\xa4\xbf,avy,,,,,,'
p1520
sS'chunkid'
p1521
S'CCP'
p1522
sS'drel'
p1523
S'k2:VGF'
p1524
sS'chunktype'
p1525
S'head:CCP'
p1526
ssbsg24
I00
sg25
I00
sg26
Nsg27
Nsg28
I2
sg29
I6
sg30
Nsg31
Nsg32
S'CC'
p1527
sg34
g1512
sg35
I00
sba(issf_api
Word
p1528
(dp1529
g6
I00
sg7
V\u0926\u0915\u094d\u0937\u093f\u0923
p1530
sg9
(issf_api
FeatureSet
p1531
(dp1532
g12
(dp1533
S'posn'
p1534
S'60'
p1535
sS'name'
p1536
S'\xe0\xa4\xa6\xe0\xa4\x95\xe0\xa5\x8d\xe0\xa4\xb7\xe0\xa4\xbf\xe0\xa4\xa3'
p1537
sS'af'
p1538
S'\xe0\xa4\xa6\xe0\xa4\x95\xe0\xa5\x8d\xe0\xa4\xb7\xe0\xa4\xbf\xe0\xa4\xa3,n,m,sg,3,d,0,0'
p1539
sS'drel'
p1540
S'pof__cn:NP2'
p1541
sS'chunktype'
p1542
S'child:NP2'
p1543
sS'cref'
p1544
S'i13%0:t3'
p1545
ssbsg24
I00
sg25
I00
sg26
Nsg27
Nsg28
I3
sg29
I6
sg30
Nsg31
Nsg32
S'NNPC'
p1546
sg34
g1531
sg35
I00
sba(issf_api
Word
p1547
(dp1548
g6
I00
sg7
V\u0926\u093f\u0932\u094d\u0932\u0940
p1549
sg9
(issf_api
FeatureSet
p1550
(dp1551
g12
(dp1552
S'crefhead'
p1553
S'\xe0\xa4\xa6\xe0\xa4\xbf\xe0\xa4\xb2\xe0\xa5\x8d\xe0\xa4\xb2\xe0\xa5\x80:i13'
p1554
sS'posn'
p1555
S'70'
p1556
sS'name'
p1557
S'\xe0\xa4\xa6\xe0\xa4\xbf\xe0\xa4\xb2\xe0\xa5\x8d\xe0\xa4\xb2\xe0\xa5\x80'
p1558
sS'af'
p1559
S'\xe0\xa4\xa6\xe0\xa4\xbf\xe0\xa4\xb2\xe0\xa5\x8d\xe0\xa4\xb2\xe0\xa5\x80,n,f,sg,3,o,0_\xe0\xa4\xae\xe0\xa5\x87\xe0\xa4\x82,0'
p1560
sS'chunkid'
p1561
S'NP2'
p1562
sS'creftype'
p1563
S'Coreference-Identity:i8:i14'
p1564
sS'chunktype'
p1565
S'head:NP2'
p1566
sS'vpos'
p1567
S'vib_3'
p1568
sS'cref'
p1569
S'i13%1:t3'
p1570
sS'drel'
p1571
S'k7p:VGF2'
p1572
ssbsg24
I00
sg25
I00
sg26
Nsg27
Nsg28
I3
sg29
I6
sg30
Nsg31
Nsg32
S'NNP'
p1573
sg34
g1550
sg35
I00
sba(issf_api
Word
p1574
(dp1575
g6
I00
sg7
V\u092e\u0947\u0902
p1576
sg9
(issf_api
FeatureSet
p1577
(dp1578
g12
(dp1579
S'posn'
p1580
S'80'
p1581
sS'name'
p1582
S'\xe0\xa4\xae\xe0\xa5\x87\xe0\xa4\x82'
p1583
sS'drel'
p1584
S'lwg__psp:NP2'
p1585
sS'chunktype'
p1586
S'child:NP2'
p1587
sS'af'
p1588
S'\xe0\xa4\xae\xe0\xa5\x87\xe0\xa4\x82,psp,,,,,,'
p1589
ssbsg24
I00
sg25
I00
sg26
Nsg27
Nsg28
I3
sg29
I6
sg30
Nsg31
Nsg32
S'PSP'
p1590
sg34
g1577
sg35
I00
sba(issf_api
Word
p1591
(dp1592
g6
I00
sg7
V\u0938\u094b\u092e\u0935\u093e\u0930
p1593
sg9
(issf_api
FeatureSet
p1594
(dp1595
g12
(dp1596
S'crefhead'
p1597
S'\xe0\xa4\xb8\xe0\xa5\x8b\xe0\xa4\xae\xe0\xa4\xb5\xe0\xa4\xbe\xe0\xa4\xb0:i15'
p1598
sS'posn'
p1599
S'90'
p1600
sS'name'
p1601
S'\xe0\xa4\xb8\xe0\xa5\x8b\xe0\xa4\xae\xe0\xa4\xb5\xe0\xa4\xbe\xe0\xa4\xb0'
p1602
sS'af'
p1603
S'\xe0\xa4\xb8\xe0\xa5\x8b\xe0\xa4\xae\xe0\xa4\xb5\xe0\xa4\xbe\xe0\xa4\xb0,n,m,sg,3,o,0_\xe0\xa4\x95\xe0\xa5\x8b,0'
p1604
sS'chunkid'
p1605
S'NP3'
p1606
sS'creftype'
p1607
S'Coreference-Identity:i3'
p1608
sS'chunktype'
p1609
S'head:NP3'
p1610
sS'vpos'
p1611
S'vib_2_RP'
p1612
sS'cref'
p1613
S'i15%1:t2'
p1614
sS'drel'
p1615
S'k7t:VGF2'
p1616
ssbsg24
I00
sg25
I00
sg26
Nsg27
Nsg28
I4
sg29
I6
sg30
Nsg31
Nsg32
S'NNP'
p1617
sg34
g1594
sg35
I00
sba(issf_api
Word
p1618
(dp1619
g6
I00
sg7
V\u0915\u094b
p1620
sg9
(issf_api
FeatureSet
p1621
(dp1622
g12
(dp1623
S'posn'
p1624
S'100'
p1625
sS'name'
p1626
S'\xe0\xa4\x95\xe0\xa5\x8b'
p1627
sS'drel'
p1628
S'lwg__psp:NP3'
p1629
sS'chunktype'
p1630
S'child:NP3'
p1631
sS'af'
p1632
S'\xe0\xa4\x95\xe0\xa5\x8b,psp,,,,,,'
p1633
ssbsg24
I00
sg25
I00
sg26
Nsg27
Nsg28
I4
sg29
I6
sg30
Nsg31
Nsg32
S'PSP'
p1634
sg34
g1621
sg35
I00
sba(issf_api
Word
p1635
(dp1636
g6
I00
sg7
V\u0939\u0940
p1637
sg9
(issf_api
FeatureSet
p1638
(dp1639
g12
(dp1640
S'posn'
p1641
S'110'
p1642
sS'name'
p1643
S'\xe0\xa4\xb9\xe0\xa5\x80'
p1644
sS'drel'
p1645
S'lwg__rp:NP3'
p1646
sS'chunktype'
p1647
S'child:NP3'
p1648
sS'af'
p1649
S'\xe0\xa4\xb9\xe0\xa5\x80,avy,,,,,,'
p1650
ssbsg24
I00
sg25
I00
sg26
Nsg27
Nsg28
I4
sg29
I6
sg30
Nsg31
Nsg32
S'RP'
p1651
sg34
g1638
sg35
I00
sba(issf_api
Word
p1652
(dp1653
g6
I00
sg7
V\u0936\u093e\u092e
p1654
sg9
(issf_api
FeatureSet
p1655
(dp1656
g12
(dp1657
S'posn'
p1658
S'120'
p1659
sS'name'
p1660
S'\xe0\xa4\xb6\xe0\xa4\xbe\xe0\xa4\xae'
p1661
sS'af'
p1662
S'\xe0\xa4\xb6\xe0\xa4\xbe\xe0\xa4\xae,n,f,sg,3,d,0,0'
p1663
sS'chunkid'
p1664
S'NP4'
p1665
sS'drel'
p1666
S'k7t:VGF2'
p1667
sS'chunktype'
p1668
S'head:NP4'
p1669
ssbsg24
I00
sg25
I00
sg26
Nsg27
Nsg28
I5
sg29
I6
sg30
Nsg31
Nsg32
S'NN'
p1670
sg34
g1655
sg35
I00
sba(issf_api
Word
p1671
(dp1672
g6
I00
sg7
V\u0909\u0928\u0915\u093e
p1673
sg9
(issf_api
FeatureSet
p1674
(dp1675
g12
(dp1676
S'crefhead'
p1677
S'\xe0\xa4\x89\xe0\xa4\xa8\xe0\xa4\x95\xe0\xa4\xbe:i16'
p1678
sS'posn'
p1679
S'130'
p1680
sS'name'
p1681
S'\xe0\xa4\x89\xe0\xa4\xa8\xe0\xa4\x95\xe0\xa4\xbe'
p1682
sS'af'
p1683
S'\xe0\xa4\xb5\xe0\xa4\xb9,pn,any,sg,3h,o,\xe0\xa4\x95\xe0\xa4\xbe,kA'
p1684
sS'chunkid'
p1685
S'NP5'
p1686
sS'creftype'
p1687
S'Anaphora-C:i12'
p1688
sS'chunktype'
p1689
S'head:NP5'
p1690
sS'cref'
p1691
S'i16%1:t1'
p1692
sS'drel'
p1693
S'r6-k2:NP6'
p1694
ssbsg24
I00
sg25
I00
sg26
Nsg27
Nsg28
I6
sg29
I6
sg30
Nsg31
Nsg32
S'PRP'
p1695
sg34
g1674
sg35
I00
sba(issf_api
Word
p1696
(dp1697
g6
I00
sg7
V\u0905\u0902\u0924\u093f\u092e
p1698
sg9
(issf_api
FeatureSet
p1699
(dp1700
g12
(dp1701
S'posn'
p1702
S'140'
p1703
sS'name'
p1704
S'\xe0\xa4\x85\xe0\xa4\x82\xe0\xa4\xa4\xe0\xa4\xbf\xe0\xa4\xae'
p1705
sS'drel'
p1706
S'nmod__adj:NP6'
p1707
sS'chunktype'
p1708
S'child:NP6'
p1709
sS'af'
p1710
S'\xe0\xa4\x85\xe0\xa4\x82\xe0\xa4\xa4\xe0\xa4\xbf\xe0\xa4\xae,adj,any,any,,d,,'
p1711
ssbsg24
I00
sg25
I00
sg26
Nsg27
Nsg28
I7
sg29
I6
sg30
Nsg31
Nsg32
S'JJ'
p1712
sg34
g1699
sg35
I00
sba(issf_api
Word
p1713
(dp1714
g6
I00
sg7
V\u0938\u0902\u0938\u094d\u0915\u093e\u0930
p1715
sg9
(issf_api
FeatureSet
p1716
(dp1717
g12
(dp1718
S'posn'
p1719
S'150'
p1720
sS'name'
p1721
S'\xe0\xa4\xb8\xe0\xa4\x82\xe0\xa4\xb8\xe0\xa5\x8d\xe0\xa4\x95\xe0\xa4\xbe\xe0\xa4\xb0'
p1722
sS'af'
p1723
S'\xe0\xa4\xb8\xe0\xa4\x82\xe0\xa4\xb8\xe0\xa5\x8d\xe0\xa4\x95\xe0\xa4\xbe\xe0\xa4\xb0,n,m,sg,3,d,0,0'
p1724
sS'chunkid'
p1725
S'NP6'
p1726
sS'drel'
p1727
S'pof:VGF2'
p1728
sS'chunktype'
p1729
S'head:NP6'
p1730
ssbsg24
I00
sg25
I00
sg26
Nsg27
Nsg28
I7
sg29
I6
sg30
Nsg31
Nsg32
S'NN'
p1731
sg34
g1716
sg35
I00
sba(issf_api
Word
p1732
(dp1733
g6
I00
sg7
V\u092d\u0940
p1734
sg9
(issf_api
FeatureSet
p1735
(dp1736
g12
(dp1737
S'posn'
p1738
S'160'
p1739
sS'name'
p1740
S'\xe0\xa4\xad\xe0\xa5\x80'
p1741
sS'drel'
p1742
S'lwg__rp:NP6'
p1743
sS'chunktype'
p1744
S'child:NP6'
p1745
sS'af'
p1746
S'\xe0\xa4\xad\xe0\xa5\x80,avy,,,,,,'
p1747
ssbsg24
I00
sg25
I00
sg26
Nsg27
Nsg28
I7
sg29
I6
sg30
Nsg31
Nsg32
S'RP'
p1748
sg34
g1735
sg35
I00
sba(issf_api
Word
p1749
(dp1750
g6
I00
sg7
V\u0915\u0930
p1751
sg9
(issf_api
FeatureSet
p1752
(dp1753
g12
(dp1754
S'posn'
p1755
S'170'
p1756
sS'name'
p1757
S'\xe0\xa4\x95\xe0\xa4\xb0'
p1758
sS'af'
p1759
S'\xe0\xa4\x95\xe0\xa4\xb0,v,m,sg,3,,0_\xe0\xa4\xa6\xe0\xa5\x87+\xe0\xa4\xaf\xe0\xa4\xbe_\xe0\xa4\x9c\xe0\xa4\xbe+\xe0\xa4\xaf\xe0\xa4\xbe\xe0\xa5\xa7,0'
p1760
sS'chunkid'
p1761
S'VGF2'
p1762
sS'stype'
p1763
S'declarative'
p1764
sS'drel'
p1765
S'ccof:CCP'
p1766
sS'voicetype'
p1767
S'passive'
p1768
sS'vpos'
p1769
S'tam_2_3'
p1770
sS'chunktype'
p1771
S'head:VGF2'
p1772
ssbsg24
I00
sg25
I00
sg26
Nsg27
Nsg28
I8
sg29
I6
sg30
Nsg31
Nsg32
S'VM'
p1773
sg34
g1752
sg35
I00
sba(issf_api
Word
p1774
(dp1775
g6
I00
sg7
V\u0926\u093f\u092f\u093e
p1776
sg9
(issf_api
FeatureSet
p1777
(dp1778
g12
(dp1779
S'posn'
p1780
S'180'
p1781
sS'name'
p1782
S'\xe0\xa4\xa6\xe0\xa4\xbf\xe0\xa4\xaf\xe0\xa4\xbe'
p1783
sS'drel'
p1784
S'lwg__vaux:VGF2'
p1785
sS'chunktype'
p1786
S'child:VGF2'
p1787
sS'af'
p1788
S'\xe0\xa4\xa6\xe0\xa5\x87,v,m,sg,3,,\xe0\xa4\xaf\xe0\xa4\xbe,yA'
p1789
ssbsg24
I00
sg25
I00
sg26
Nsg27
Nsg28
I8
sg29
I6
sg30
Nsg31
Nsg32
S'VAUX'
p1790
sg34
g1777
sg35
I00
sba(issf_api
Word
p1791
(dp1792
g6
I00
sg7
V\u0917\u092f\u093e
p1793
sg9
(issf_api
FeatureSet
p1794
(dp1795
g12
(dp1796
S'posn'
p1797
S'190'
p1798
sS'name'
p1799
S'\xe0\xa4\x97\xe0\xa4\xaf\xe0\xa4\xbe'
p1800
sS'drel'
p1801
S'lwg__vaux:VGF2'
p1802
sS'chunktype'
p1803
S'child:VGF2'
p1804
sS'af'
p1805
S'\xe0\xa4\x9c\xe0\xa4\xbe,v,m,sg,3,,\xe0\xa4\xaf\xe0\xa4\xbe\xe0\xa5\xa7,yA1'
p1806
ssbsg24
I00
sg25
I00
sg26
Nsg27
Nsg28
I8
sg29
I6
sg30
Nsg31
Nsg32
S'VAUX'
p1807
sg34
g1794
sg35
I00
sba(issf_api
Word
p1808
(dp1809
g6
I00
sg7
V.
p1810
sg9
(issf_api
FeatureSet
p1811
(dp1812
g12
(dp1813
S'posn'
p1814
S'200'
p1815
sS'name'
p1816
g354
sS'af'
p1817
S'.,punc,,,,,,'
p1818
sS'chunkid'
p1819
S'BLK'
p1820
sS'drel'
p1821
S'rsym:VGF'
p1822
sS'chunktype'
p1823
S'head:BLK'
p1824
ssbsg24
I00
sg25
I00
sg26
Nsg27
Nsg28
I9
sg29
I6
sg30
Nsg31
Nsg32
S'SYM'
p1825
sg34
g1811
sg35
I00
sba(issf_api
Word
p1826
(dp1827
g6
I00
sg7
V\u091c\u094d\u091e\u093e\u0928\u092a\u0940\u0920
p1828
sg9
(issf_api
FeatureSet
p1829
(dp1830
g12
(dp1831
S'posn'
p1832
S'10'
p1833
sS'name'
p1834
S'\xe0\xa4\x9c\xe0\xa5\x8d\xe0\xa4\x9e\xe0\xa4\xbe\xe0\xa4\xa8\xe0\xa4\xaa\xe0\xa5\x80\xe0\xa4\xa0'
p1835
sS'drel'
p1836
S'pof__cn:NP'
p1837
sS'chunktype'
p1838
S'child:NP'
p1839
sS'af'
p1840
S'\xe0\xa4\x9c\xe0\xa5\x8d\xe0\xa4\x9e\xe0\xa4\xbe\xe0\xa4\xa8\xe0\xa4\xaa\xe0\xa5\x80\xe0\xa4\xa0,n,m,sg,3,d,0,0'
p1841
ssbsg24
I00
sg25
I00
sg26
Nsg27
Nsg28
I0
sg29
I7
sg30
Nsg31
Nsg32
S'NNPC'
p1842
sg34
g1829
sg35
I00
sba(issf_api
Word
p1843
(dp1844
g6
I00
sg7
V\u092a\u0941\u0930\u0938\u094d\u0915\u093e\u0930
p1845
sg9
(issf_api
FeatureSet
p1846
(dp1847
g12
(dp1848
S'posn'
p1849
S'20'
p1850
sS'name'
p1851
S'\xe0\xa4\xaa\xe0\xa5\x81\xe0\xa4\xb0\xe0\xa4\xb8\xe0\xa5\x8d\xe0\xa4\x95\xe0\xa4\xbe\xe0\xa4\xb0'
p1852
sS'af'
p1853
S'\xe0\xa4\xaa\xe0\xa5\x81\xe0\xa4\xb0\xe0\xa4\xb8\xe0\xa5\x8d\xe0\xa4\x95\xe0\xa4\xbe\xe0\xa4\xb0,n,m,sg,3,o,0_\xe0\xa4\xb8\xe0\xa5\x87,0'
p1854
sS'chunkid'
p1855
S'NP'
p1856
sS'drel'
p1857
S'jjmod:JJP'
p1858
sS'vpos'
p1859
S'vib_3'
p1860
sS'chunktype'
p1861
S'head:NP'
p1862
ssbsg24
I00
sg25
I00
sg26
Nsg27
Nsg28
I0
sg29
I7
sg30
Nsg31
Nsg32
S'NNP'
p1863
sg34
g1846
sg35
I00
sba(issf_api
Word
p1864
(dp1865
g6
I00
sg7
V\u0938\u0947
p1866
sg9
(issf_api
FeatureSet
p1867
(dp1868
g12
(dp1869
S'posn'
p1870
S'30'
p1871
sS'name'
p1872
S'\xe0\xa4\xb8\xe0\xa5\x87'
p1873
sS'drel'
p1874
S'lwg__psp:NP'
p1875
sS'chunktype'
p1876
S'child:NP'
p1877
sS'af'
p1878
S'\xe0\xa4\xb8\xe0\xa5\x87,psp,,,,,,s'
p1879
ssbsg24
I00
sg25
I00
sg26
Nsg27
Nsg28
I0
sg29
I7
sg30
Nsg31
Nsg32
S'PSP'
p1880
sg34
g1867
sg35
I00
sba(issf_api
Word
p1881
(dp1882
g6
I00
sg7
V\u0938\u092e\u094d\u092e\u093e\u0928\u093f\u0924
p1883
sg9
(issf_api
FeatureSet
p1884
(dp1885
g12
(dp1886
S'posn'
p1887
S'40'
p1888
sS'name'
p1889
S'\xe0\xa4\xb8\xe0\xa4\xae\xe0\xa5\x8d\xe0\xa4\xae\xe0\xa4\xbe\xe0\xa4\xa8\xe0\xa4\xbf\xe0\xa4\xa4'
p1890
sS'af'
p1891
S'\xe0\xa4\xb8\xe0\xa4\xae\xe0\xa5\x8d\xe0\xa4\xae\xe0\xa4\xbe\xe0\xa4\xa8\xe0\xa4\xbf\xe0\xa4\xa4,adj,any,any,,o,,'
p1892
sS'chunkid'
p1893
S'JJP'
p1894
sS'drel'
p1895
S'nmod:NP2'
p1896
sS'chunktype'
p1897
S'head:JJP'
p1898
ssbsg24
I00
sg25
I00
sg26
Nsg27
Nsg28
I1
sg29
I7
sg30
Nsg31
Nsg32
S'JJ'
p1899
sg34
g1884
sg35
I00
sba(issf_api
Word
p1900
(dp1901
g6
I00
sg7
V\u0905\u092e\u0943\u0924\u093e
p1902
sg9
(issf_api
FeatureSet
p1903
(dp1904
g12
(dp1905
S'posn'
p1906
S'50'
p1907
sS'name'
p1908
S'\xe0\xa4\x85\xe0\xa4\xae\xe0\xa5\x83\xe0\xa4\xa4\xe0\xa4\xbe'
p1909
sS'af'
p1910
S'\xe0\xa4\x85\xe0\xa4\xae\xe0\xa5\x83\xe0\xa4\xa4\xe0\xa4\xbe,n,f,sg,3,d,0,0'
p1911
sS'drel'
p1912
S'pof__cn:NP2'
p1913
sS'chunktype'
p1914
S'child:NP2'
p1915
sS'cref'
p1916
S'i17%0:t1'
p1917
ssbsg24
I00
sg25
I00
sg26
Nsg27
Nsg28
I2
sg29
I7
sg30
Nsg31
Nsg32
S'NNPC'
p1918
sg34
g1903
sg35
I00
sba(issf_api
Word
p1919
(dp1920
g6
I00
sg7
V\u092a\u094d\u0930\u0940\u0924\u092e
p1921
sg9
(issf_api
FeatureSet
p1922
(dp1923
g12
(dp1924
S'crefhead'
p1925
S'\xe0\xa4\xaa\xe0\xa5\x8d\xe0\xa4\xb0\xe0\xa5\x80\xe0\xa4\xa4\xe0\xa4\xae:i17'
p1926
sS'posn'
p1927
S'60'
p1928
sS'name'
p1929
S'\xe0\xa4\xaa\xe0\xa5\x8d\xe0\xa4\xb0\xe0\xa5\x80\xe0\xa4\xa4\xe0\xa4\xae'
p1930
sS'af'
p1931
S'\xe0\xa4\xaa\xe0\xa5\x8d\xe0\xa4\xb0\xe0\xa5\x80\xe0\xa4\xa4\xe0\xa4\xae,n,f,sg,3,o,0_\xe0\xa4\xa8\xe0\xa5\x87,0'
p1932
sS'chunkid'
p1933
S'NP2'
p1934
sS'creftype'
p1935
S'Coreference-Identity:i16'
p1936
sS'chunktype'
p1937
S'head:NP2'
p1938
sS'vpos'
p1939
S'vib_3'
p1940
sS'cref'
p1941
S'i17%1:t1'
p1942
sS'drel'
p1943
S'k1:VGF'
p1944
ssbsg24
I00
sg25
I00
sg26
Nsg27
Nsg28
I2
sg29
I7
sg30
Nsg31
Nsg32
S'NNP'
p1945
sg34
g1922
sg35
I00
sba(issf_api
Word
p1946
(dp1947
g6
I00
sg7
V\u0928\u0947
p1948
sg9
(issf_api
FeatureSet
p1949
(dp1950
g12
(dp1951
S'posn'
p1952
S'70'
p1953
sS'name'
p1954
S'\xe0\xa4\xa8\xe0\xa5\x87'
p1955
sS'drel'
p1956
S'lwg__psp:NP2'
p1957
sS'chunktype'
p1958
S'child:NP2'
p1959
sS'af'
p1960
S'\xe0\xa4\xa8\xe0\xa5\x87,psp,,,,,,'
p1961
ssbsg24
I00
sg25
I00
sg26
Nsg27
Nsg28
I2
sg29
I7
sg30
Nsg31
Nsg32
S'PSP'
p1962
sg34
g1949
sg35
I00
sba(issf_api
Word
p1963
(dp1964
g6
I00
sg7
V\u0938\u094c
p1965
sg9
(issf_api
FeatureSet
p1966
(dp1967
g12
(dp1968
S'posn'
p1969
S'80'
p1970
sS'name'
p1971
S'\xe0\xa4\xb8\xe0\xa5\x8c'
p1972
sS'af'
p1973
S'\xe0\xa4\xb8\xe0\xa5\x8c,num,any,any,,o,0_\xe0\xa4\xb8\xe0\xa5\x87,'
p1974
sS'chunkid'
p1975
S'NP3'
p1976
sS'drel'
p1977
S'jjmod:JJP2'
p1978
sS'vpos'
p1979
S'2'
p1980
sS'chunktype'
p1981
S'head:NP3'
p1982
ssbsg24
I00
sg25
I00
sg26
Nsg27
Nsg28
I3
sg29
I7
sg30
Nsg31
Nsg32
S'QC'
p1983
sg34
g1966
sg35
I00
sba(issf_api
Word
p1984
(dp1985
g6
I00
sg7
V\u0938\u0947
p1986
sg9
(issf_api
FeatureSet
p1987
(dp1988
g12
(dp1989
S'posn'
p1990
S'90'
p1991
sS'name'
p1992
S'\xe0\xa4\xb8\xe0\xa5\x872'
p1993
sS'drel'
p1994
S'lwg__psp:NP3'
p1995
sS'chunktype'
p1996
S'child:NP3'
p1997
sS'af'
p1998
S'\xe0\xa4\xb8\xe0\xa5\x87,psp,,,,,,'
p1999
ssbsg24
I00
sg25
I00
sg26
Nsg27
Nsg28
I3
sg29
I7
sg30
Nsg31
Nsg32
S'PSP'
p2000
sg34
g1987
sg35
I00
sba(issf_api
Word
p2001
(dp2002
g6
I00
sg7
V\u091c\u094d\u092f\u093e\u0926\u093e
p2003
sg9
(issf_api
FeatureSet
p2004
(dp2005
g12
(dp2006
S'posn'
p2007
S'100'
p2008
sS'name'
p2009
S'\xe0\xa4\x9c\xe0\xa5\x8d\xe0\xa4\xaf\xe0\xa4\xbe\xe0\xa4\xa6\xe0\xa4\xbe'
p2010
sS'af'
p2011
S'\xe0\xa4\x9c\xe0\xa5\x8d\xe0\xa4\xaf\xe0\xa4\xbe\xe0\xa4\xa6\xe0\xa4\xbe,avy,,,,,,'
p2012
sS'chunkid'
p2013
S'JJP2'
p2014
sS'drel'
p2015
S'nmod:NP4'
p2016
sS'chunktype'
p2017
S'head:JJP2'
p2018
ssbsg24
I00
sg25
I00
sg26
Nsg27
Nsg28
I4
sg29
I7
sg30
Nsg31
Nsg32
S'QF'
p2019
sg34
g2004
sg35
I00
sba(issf_api
Word
p2020
(dp2021
g6
I00
sg7
V\u092a\u0941\u0938\u094d\u0924\u0915\u0947\u0902
p2022
sg9
(issf_api
FeatureSet
p2023
(dp2024
g12
(dp2025
S'posn'
p2026
S'110'
p2027
sS'name'
p2028
S'\xe0\xa4\xaa\xe0\xa5\x81\xe0\xa4\xb8\xe0\xa5\x8d\xe0\xa4\xa4\xe0\xa4\x95\xe0\xa5\x87\xe0\xa4\x82'
p2029
sS'af'
p2030
S'\xe0\xa4\xaa\xe0\xa5\x81\xe0\xa4\xb8\xe0\xa5\x8d\xe0\xa4\xa4\xe0\xa4\x95,n,f,pl,3,d,0,0'
p2031
sS'chunkid'
p2032
S'NP4'
p2033
sS'drel'
p2034
S'k2:VGF'
p2035
sS'chunktype'
p2036
S'head:NP4'
p2037
ssbsg24
I00
sg25
I00
sg26
Nsg27
Nsg28
I5
sg29
I7
sg30
Nsg31
Nsg32
S'NN'
p2038
sg34
g2023
sg35
I00
sba(issf_api
Word
p2039
(dp2040
g6
I00
sg7
V\u0932\u093f\u0916\u0940
p2041
sg9
(issf_api
FeatureSet
p2042
(dp2043
g12
(dp2044
S'posn'
p2045
S'120'
p2046
sS'name'
p2047
S'\xe0\xa4\xb2\xe0\xa4\xbf\xe0\xa4\x96\xe0\xa5\x80'
p2048
sS'af'
p2049
S'\xe0\xa4\xb2\xe0\xa4\xbf\xe0\xa4\x96,v,f,pl,3,,\xe0\xa4\xaf\xe0\xa4\xbe_\xe0\xa4\xb9\xe0\xa5\x88,yA'
p2050
sS'chunkid'
p2051
S'VGF'
p2052
sS'stype'
p2053
S'declarative'
p2054
sS'drel'
p2055
S'ccof:CCP'
p2056
sS'voicetype'
p2057
S'active'
p2058
sS'vpos'
p2059
S'tam_2'
p2060
sS'chunktype'
p2061
S'head:VGF'
p2062
ssbsg24
I00
sg25
I00
sg26
Nsg27
Nsg28
I6
sg29
I7
sg30
Nsg31
Nsg32
S'VM'
p2063
sg34
g2042
sg35
I00
sba(issf_api
Word
p2064
(dp2065
g6
I00
sg7
V\u0939\u0948\u0902
p2066
sg9
(issf_api
FeatureSet
p2067
(dp2068
g12
(dp2069
S'posn'
p2070
S'130'
p2071
sS'name'
p2072
S'\xe0\xa4\xb9\xe0\xa5\x88\xe0\xa4\x82'
p2073
sS'drel'
p2074
S'lwg__vaux:VGF'
p2075
sS'chunktype'
p2076
S'child:VGF'
p2077
sS'af'
p2078
S'\xe0\xa4\xb9\xe0\xa5\x88,v,any,pl,3,,\xe0\xa4\xb9\xe0\xa5\x88,hE'
p2079
ssbsg24
I00
sg25
I00
sg26
Nsg27
Nsg28
I6
sg29
I7
sg30
Nsg31
Nsg32
S'VAUX'
p2080
sg34
g2067
sg35
I00
sba(issf_api
Word
p2081
(dp2082
g6
I00
sg7
V\u0914\u0930
p2083
sg9
(issf_api
FeatureSet
p2084
(dp2085
g12
(dp2086
S'posn'
p2087
S'140'
p2088
sS'chunkid'
p2089
S'CCP'
p2090
sS'name'
p2091
S'\xe0\xa4\x94\xe0\xa4\xb0'
p2092
sS'chunktype'
p2093
S'head:CCP'
p2094
sS'af'
p2095
S'\xe0\xa4\x94\xe0\xa4\xb0,avy,,,,,,'
p2096
ssbsg24
I00
sg25
I00
sg26
Nsg27
Nsg28
I7
sg29
I7
sg30
Nsg31
Nsg32
S'CC'
p2097
sg34
g2084
sg35
I00
sba(issf_api
Word
p2098
(dp2099
g6
I00
sg7
V\u0909\u0928\u094d\u0939\u0947\u0902
p2100
sg9
(issf_api
FeatureSet
p2101
(dp2102
g12
(dp2103
S'crefhead'
p2104
S'\xe0\xa4\x89\xe0\xa4\xa8\xe0\xa5\x8d\xe0\xa4\xb9\xe0\xa5\x87\xe0\xa4\x82:i18'
p2105
sS'posn'
p2106
S'150'
p2107
sS'name'
p2108
S'\xe0\xa4\x89\xe0\xa4\xa8\xe0\xa5\x8d\xe0\xa4\xb9\xe0\xa5\x87\xe0\xa4\x82'
p2109
sS'af'
p2110
S'\xe0\xa4\xb5\xe0\xa4\xb9,pn,any,sg,3h,o,\xe0\xa4\x95\xe0\xa5\x8b,ko'
p2111
sS'chunkid'
p2112
S'NP5'
p2113
sS'creftype'
p2114
S'Anaphora-C:i17'
p2115
sS'chunktype'
p2116
S'head:NP5'
p2117
sS'cref'
p2118
S'i18%1:t1'
p2119
sS'drel'
p2120
S'k4:VGF2'
p2121
ssbsg24
I00
sg25
I00
sg26
Nsg27
Nsg28
I8
sg29
I7
sg30
Nsg31
Nsg32
S'PRP'
p2122
sg34
g2101
sg35
I00
sba(issf_api
Word
p2123
(dp2124
g6
I00
sg7
V\u0905\u092a\u0928\u0947
p2125
sg9
(issf_api
FeatureSet
p2126
(dp2127
g12
(dp2128
S'crefhead'
p2129
S'\xe0\xa4\x85\xe0\xa4\xaa\xe0\xa4\xa8\xe0\xa5\x87:i19'
p2130
sS'posn'
p2131
S'160'
p2132
sS'name'
p2133
S'\xe0\xa4\x85\xe0\xa4\xaa\xe0\xa4\xa8\xe0\xa5\x87'
p2134
sS'af'
p2135
S'\xe0\xa4\x85\xe0\xa4\xaa\xe0\xa4\xa8\xe0\xa4\xbe,pn,m,any,any,o,0,0'
p2136
sS'chunkid'
p2137
S'NP6'
p2138
sS'creftype'
p2139
S'Anaphora-C:i18'
p2140
sS'chunktype'
p2141
S'head:NP6'
p2142
sS'cref'
p2143
S'i19%1:t1'
p2144
sS'drel'
p2145
S'r6:NP7'
p2146
ssbsg24
I00
sg25
I00
sg26
Nsg27
Nsg28
I9
sg29
I7
sg30
Nsg31
Nsg32
S'PRP'
p2147
sg34
g2126
sg35
I00
sba(issf_api
Word
p2148
(dp2149
g6
I00
sg7
V\u092a\u094d\u0930\u0924\u093f\u092c\u0926\u094d\u0927
p2150
sg9
(issf_api
FeatureSet
p2151
(dp2152
g12
(dp2153
S'posn'
p2154
S'170'
p2155
sS'name'
p2156
S'\xe0\xa4\xaa\xe0\xa5\x8d\xe0\xa4\xb0\xe0\xa4\xa4\xe0\xa4\xbf\xe0\xa4\xac\xe0\xa4\xa6\xe0\xa5\x8d\xe0\xa4\xa7'
p2157
sS'drel'
p2158
S'nmod__adj:NP7'
p2159
sS'chunktype'
p2160
S'child:NP7'
p2161
sS'af'
p2162
S'\xe0\xa4\xaa\xe0\xa5\x8d\xe0\xa4\xb0\xe0\xa4\xa4\xe0\xa4\xbf\xe0\xa4\xac\xe0\xa4\xa6\xe0\xa5\x8d\xe0\xa4\xa7,adj,any,any,,o,,'
p2163
ssbsg24
I00
sg25
I00
sg26
Nsg27
Nsg28
I10
sg29
I7
sg30
Nsg31
Nsg32
S'JJ'
p2164
sg34
g2151
sg35
I00
sba(issf_api
Word
p2165
(dp2166
g6
I00
sg7
V\u0932\u0947\u0916\u0928
p2167
sg9
(issf_api
FeatureSet
p2168
(dp2169
g12
(dp2170
S'posn'
p2171
S'180'
p2172
sS'name'
p2173
S'\xe0\xa4\xb2\xe0\xa5\x87\xe0\xa4\x96\xe0\xa4\xa8'
p2174
sS'af'
p2175
S'\xe0\xa4\xb2\xe0\xa5\x87\xe0\xa4\x96\xe0\xa4\xa8,n,m,sg,3,o,0_\xe0\xa4\x95\xe0\xa5\x87_\xe0\xa4\xb2\xe0\xa4\xbf\xe0\xa4\x8f,0'
p2176
sS'chunkid'
p2177
S'NP7'
p2178
sS'drel'
p2179
S'rt:VGF2'
p2180
sS'vpos'
p2181
S'vib_3_4'
p2182
sS'chunktype'
p2183
S'head:NP7'
p2184
ssbsg24
I00
sg25
I00
sg26
Nsg27
Nsg28
I10
sg29
I7
sg30
Nsg31
Nsg32
S'NN'
p2185
sg34
g2168
sg35
I00
sba(issf_api
Word
p2186
(dp2187
g6
I00
sg7
V\u0915\u0947
p2188
sg9
(issf_api
FeatureSet
p2189
(dp2190
g12
(dp2191
S'posn'
p2192
S'190'
p2193
sS'name'
p2194
S'\xe0\xa4\x95\xe0\xa5\x87'
p2195
sS'drel'
p2196
S'lwg__psp:NP7'
p2197
sS'chunktype'
p2198
S'child:NP7'
p2199
sS'af'
p2200
S'\xe0\xa4\x95\xe0\xa5\x87,psp,,,,,,'
p2201
ssbsg24
I00
sg25
I00
sg26
Nsg27
Nsg28
I10
sg29
I7
sg30
Nsg31
Nsg32
S'PSP'
p2202
sg34
g2189
sg35
I00
sba(issf_api
Word
p2203
(dp2204
g6
I00
sg7
V\u0932\u093f\u090f
p2205
sg9
(issf_api
FeatureSet
p2206
(dp2207
g12
(dp2208
S'posn'
p2209
S'200'
p2210
sS'name'
p2211
S'\xe0\xa4\xb2\xe0\xa4\xbf\xe0\xa4\x8f'
p2212
sS'drel'
p2213
S'lwg__psp:NP7'
p2214
sS'chunktype'
p2215
S'child:NP7'
p2216
sS'af'
p2217
S'\xe0\xa4\xb2\xe0\xa4\xbf\xe0\xa4\x8f,psp,,,,,,'
p2218
ssbsg24
I00
sg25
I00
sg26
Nsg27
Nsg28
I10
sg29
I7
sg30
Nsg31
Nsg32
S'PSP'
p2219
sg34
g2206
sg35
I00
sba(issf_api
Word
p2220
(dp2221
g6
I00
sg7
V\u0905\u0902\u0924\u0930\u0930\u093e\u0937\u094d\u091f\u094d\u0930\u0940\u092f
p2222
sg9
(issf_api
FeatureSet
p2223
(dp2224
g12
(dp2225
S'posn'
p2226
S'210'
p2227
sS'name'
p2228
S'\xe0\xa4\x85\xe0\xa4\x82\xe0\xa4\xa4\xe0\xa4\xb0\xe0\xa4\xb0\xe0\xa4\xbe\xe0\xa4\xb7\xe0\xa5\x8d\xe0\xa4\x9f\xe0\xa5\x8d\xe0\xa4\xb0\xe0\xa5\x80\xe0\xa4\xaf'
p2229
sS'drel'
p2230
S'nmod__adj:NP8'
p2231
sS'chunktype'
p2232
S'child:NP8'
p2233
sS'af'
p2234
S'\xe0\xa4\x85\xe0\xa4\x82\xe0\xa4\xa4\xe0\xa4\xb0\xe0\xa4\xb0\xe0\xa4\xbe\xe0\xa4\xb7\xe0\xa5\x8d\xe0\xa4\x9f\xe0\xa5\x8d\xe0\xa4\xb0\xe0\xa5\x80\xe0\xa4\xaf,adj,any,any,,d,,'
p2235
ssbsg24
I00
sg25
I00
sg26
Nsg27
Nsg28
I11
sg29
I7
sg30
Nsg31
Nsg32
S'JJ'
p2236
sg34
g2223
sg35
I00
sba(issf_api
Word
p2237
(dp2238
g6
I00
sg7
V\u092a\u0939\u091a\u093e\u0928
p2239
sg9
(issf_api
FeatureSet
p2240
(dp2241
g12
(dp2242
S'posn'
p2243
S'220'
p2244
sS'name'
p2245
S'\xe0\xa4\xaa\xe0\xa4\xb9\xe0\xa4\x9a\xe0\xa4\xbe\xe0\xa4\xa8'
p2246
sS'af'
p2247
S'\xe0\xa4\xaa\xe0\xa4\xb9\xe0\xa4\x9a\xe0\xa4\xbe\xe0\xa4\xa8,n,f,sg,3,d,0,0'
p2248
sS'chunkid'
p2249
S'NP8'
p2250
sS'drel'
p2251
S'pof:VGF2'
p2252
sS'chunktype'
p2253
S'head:NP8'
p2254
ssbsg24
I00
sg25
I00
sg26
Nsg27
Nsg28
I11
sg29
I7
sg30
Nsg31
Nsg32
S'NN'
p2255
sg34
g2240
sg35
I00
sba(issf_api
Word
p2256
(dp2257
g6
I00
sg7
V\u092e\u093f\u0932\u0940
p2258
sg9
(issf_api
FeatureSet
p2259
(dp2260
g12
(dp2261
S'posn'
p2262
S'230'
p2263
sS'name'
p2264
S'\xe0\xa4\xae\xe0\xa4\xbf\xe0\xa4\xb2\xe0\xa5\x80'
p2265
sS'af'
p2266
S'\xe0\xa4\xae\xe0\xa4\xbf\xe0\xa4\xb2,v,f,sg,3,,\xe0\xa4\xaf\xe0\xa4\xbe_\xe0\xa4\xb9\xe0\xa5\x8b+\xe0\xa4\xaf\xe0\xa4\xbe_\xe0\xa4\xb9\xe0\xa5\x88,yA'
p2267
sS'chunkid'
p2268
S'VGF2'
p2269
sS'stype'
p2270
S'declarative'
p2271
sS'drel'
p2272
S'ccof:CCP'
p2273
sS'voicetype'
p2274
S'active'
p2275
sS'vpos'
p2276
S'tam_2_3'
p2277
sS'chunktype'
p2278
S'head:VGF2'
p2279
ssbsg24
I00
sg25
I00
sg26
Nsg27
Nsg28
I12
sg29
I7
sg30
Nsg31
Nsg32
S'VM'
p2280
sg34
g2259
sg35
I00
sba(issf_api
Word
p2281
(dp2282
g6
I00
sg7
V\u0939\u0941\u0908
p2283
sg9
(issf_api
FeatureSet
p2284
(dp2285
g12
(dp2286
S'posn'
p2287
S'240'
p2288
sS'name'
p2289
S'\xe0\xa4\xb9\xe0\xa5\x81\xe0\xa4\x88'
p2290
sS'drel'
p2291
S'lwg__vaux:VGF2'
p2292
sS'chunktype'
p2293
S'child:VGF2'
p2294
sS'af'
p2295
S'\xe0\xa4\xb9\xe0\xa5\x8b,v,f,sg,3,,\xe0\xa4\xaf\xe0\xa4\xbe,yA'
p2296
ssbsg24
I00
sg25
I00
sg26
Nsg27
Nsg28
I12
sg29
I7
sg30
Nsg31
Nsg32
S'VAUX'
p2297
sg34
g2284
sg35
I00
sba(issf_api
Word
p2298
(dp2299
g6
I00
sg7
V\u0939\u0948
p2300
sg9
(issf_api
FeatureSet
p2301
(dp2302
g12
(dp2303
S'posn'
p2304
S'250'
p2305
sS'name'
p2306
S'\xe0\xa4\xb9\xe0\xa5\x88'
p2307
sS'drel'
p2308
S'lwg__vaux:VGF2'
p2309
sS'chunktype'
p2310
S'child:VGF2'
p2311
sS'af'
p2312
S'\xe0\xa4\xb9\xe0\xa5\x88,v,any,sg,3,,\xe0\xa4\xb9\xe0\xa5\x88,hE'
p2313
ssbsg24
I00
sg25
I00
sg26
Nsg27
Nsg28
I12
sg29
I7
sg30
Nsg31
Nsg32
S'VAUX'
p2314
sg34
g2301
sg35
I00
sba(issf_api
Word
p2315
(dp2316
g6
I00
sg7
V.
p2317
sg9
(issf_api
FeatureSet
p2318
(dp2319
g12
(dp2320
S'posn'
p2321
S'260'
p2322
sS'name'
p2323
g354
sS'af'
p2324
S'.,punc,,,,,,'
p2325
sS'chunkid'
p2326
S'BLK'
p2327
sS'drel'
p2328
S'rsym:CCP'
p2329
sS'chunktype'
p2330
S'head:BLK'
p2331
ssbsg24
I00
sg25
I00
sg26
Nsg27
Nsg28
I13
sg29
I7
sg30
Nsg31
Nsg32
S'SYM'
p2332
sg34
g2318
sg35
I00
sba(issf_api
Word
p2333
(dp2334
g6
I00
sg7
V\u0915\u0908
p2335
sg9
(issf_api
FeatureSet
p2336
(dp2337
g12
(dp2338
S'posn'
p2339
S'10'
p2340
sS'name'
p2341
S'\xe0\xa4\x95\xe0\xa4\x88'
p2342
sS'drel'
p2343
S'nmod__adj:NP'
p2344
sS'chunktype'
p2345
S'child:NP'
p2346
sS'af'
p2347
S'\xe0\xa4\x95\xe0\xa4\x88,avy,,,,,,'
p2348
ssbsg24
I00
sg25
I00
sg26
Nsg27
Nsg28
I0
sg29
I8
sg30
Nsg31
Nsg32
S'QF'
p2349
sg34
g2336
sg35
I00
sba(issf_api
Word
p2350
(dp2351
g6
I00
sg7
V\u0935\u093f\u0926\u0947\u0936\u0940
p2352
sg9
(issf_api
FeatureSet
p2353
(dp2354
g12
(dp2355
S'posn'
p2356
S'20'
p2357
sS'name'
p2358
S'\xe0\xa4\xb5\xe0\xa4\xbf\xe0\xa4\xa6\xe0\xa5\x87\xe0\xa4\xb6\xe0\xa5\x80'
p2359
sS'drel'
p2360
S'nmod__adj:NP'
p2361
sS'chunktype'
p2362
S'child:NP'
p2363
sS'af'
p2364
S'\xe0\xa4\xb5\xe0\xa4\xbf\xe0\xa4\xa6\xe0\xa5\x87\xe0\xa4\xb6\xe0\xa5\x80,adj,any,any,,o,,'
p2365
ssbsg24
I00
sg25
I00
sg26
Nsg27
Nsg28
I0
sg29
I8
sg30
Nsg31
Nsg32
S'JJ'
p2366
sg34
g2353
sg35
I00
sba(issf_api
Word
p2367
(dp2368
g6
I00
sg7
V\u092d\u093e\u0937\u093e\u0913\u0902
p2369
sg9
(issf_api
FeatureSet
p2370
(dp2371
g12
(dp2372
S'posn'
p2373
S'30'
p2374
sS'name'
p2375
S'\xe0\xa4\xad\xe0\xa4\xbe\xe0\xa4\xb7\xe0\xa4\xbe\xe0\xa4\x93\xe0\xa4\x82'
p2376
sS'af'
p2377
S'\xe0\xa4\xad\xe0\xa4\xbe\xe0\xa4\xb7\xe0\xa4\xbe,n,f,pl,3,o,0_\xe0\xa4\xae\xe0\xa5\x87\xe0\xa4\x82,0'
p2378
sS'chunkid'
p2379
S'NP'
p2380
sS'drel'
p2381
S'k7:VGF'
p2382
sS'vpos'
p2383
S'vib_4'
p2384
sS'chunktype'
p2385
S'head:NP'
p2386
ssbsg24
I00
sg25
I00
sg26
Nsg27
Nsg28
I0
sg29
I8
sg30
Nsg31
Nsg32
S'NN'
p2387
sg34
g2370
sg35
I00
sba(issf_api
Word
p2388
(dp2389
g6
I00
sg7
V\u092e\u0947\u0902
p2390
sg9
(issf_api
FeatureSet
p2391
(dp2392
g12
(dp2393
S'posn'
p2394
S'40'
p2395
sS'name'
p2396
S'\xe0\xa4\xae\xe0\xa5\x87\xe0\xa4\x82'
p2397
sS'drel'
p2398
S'lwg__psp:NP'
p2399
sS'chunktype'
p2400
S'child:NP'
p2401
sS'af'
p2402
S'\xe0\xa4\xae\xe0\xa5\x87\xe0\xa4\x82,psp,,,,,,'
p2403
ssbsg24
I00
sg25
I00
sg26
Nsg27
Nsg28
I0
sg29
I8
sg30
Nsg31
Nsg32
S'PSP'
p2404
sg34
g2391
sg35
I00
sba(issf_api
Word
p2405
(dp2406
g6
I00
sg7
V\u0909\u0928\u0915\u0940
p2407
sg9
(issf_api
FeatureSet
p2408
(dp2409
g12
(dp2410
S'crefhead'
p2411
S'\xe0\xa4\x89\xe0\xa4\xa8\xe0\xa4\x95\xe0\xa5\x80:i20'
p2412
sS'posn'
p2413
S'50'
p2414
sS'name'
p2415
S'\xe0\xa4\x89\xe0\xa4\xa8\xe0\xa4\x95\xe0\xa5\x80'
p2416
sS'af'
p2417
S'\xe0\xa4\xb5\xe0\xa4\xb9,pn,f,sg,3h,o,\xe0\xa4\x95\xe0\xa4\xbe,kA'
p2418
sS'chunkid'
p2419
S'NP2'
p2420
sS'creftype'
p2421
S'Anaphora-C:i19'
p2422
sS'chunktype'
p2423
S'head:NP2'
p2424
sS'cref'
p2425
S'i20%1:t1'
p2426
sS'drel'
p2427
S'r6:NP3'
p2428
ssbsg24
I00
sg25
I00
sg26
Nsg27
Nsg28
I1
sg29
I8
sg30
Nsg31
Nsg32
S'PRP'
p2429
sg34
g2408
sg35
I00
sba(issf_api
Word
p2430
(dp2431
g6
I00
sg7
V\u092a\u0941\u0938\u094d\u0924\u0915\u094b\u0902
p2432
sg9
(issf_api
FeatureSet
p2433
(dp2434
g12
(dp2435
S'posn'
p2436
S'60'
p2437
sS'name'
p2438
S'\xe0\xa4\xaa\xe0\xa5\x81\xe0\xa4\xb8\xe0\xa5\x8d\xe0\xa4\xa4\xe0\xa4\x95\xe0\xa5\x8b\xe0\xa4\x82'
p2439
sS'af'
p2440
S'\xe0\xa4\xaa\xe0\xa5\x81\xe0\xa4\xb8\xe0\xa5\x8d\xe0\xa4\xa4\xe0\xa4\x95,n,f,pl,3,o,0_\xe0\xa4\x95\xe0\xa5\x87,0'
p2441
sS'chunkid'
p2442
S'NP3'
p2443
sS'drel'
p2444
S'r6-k1:NP4'
p2445
sS'vpos'
p2446
S'vib_2'
p2447
sS'chunktype'
p2448
S'head:NP3'
p2449
ssbsg24
I00
sg25
I00
sg26
Nsg27
Nsg28
I2
sg29
I8
sg30
Nsg31
Nsg32
S'NN'
p2450
sg34
g2433
sg35
I00
sba(issf_api
Word
p2451
(dp2452
g6
I00
sg7
V\u0915\u0947
p2453
sg9
(issf_api
FeatureSet
p2454
(dp2455
g12
(dp2456
S'posn'
p2457
S'70'
p2458
sS'name'
p2459
S'\xe0\xa4\x95\xe0\xa5\x87'
p2460
sS'drel'
p2461
S'lwg__psp:NP3'
p2462
sS'chunktype'
p2463
S'child:NP3'
p2464
sS'af'
p2465
S'\xe0\xa4\x95\xe0\xa5\x87,psp,m,pl,,d,,'
p2466
ssbsg24
I00
sg25
I00
sg26
Nsg27
Nsg28
I2
sg29
I8
sg30
Nsg31
Nsg32
S'PSP'
p2467
sg34
g2454
sg35
I00
sba(issf_api
Word
p2468
(dp2469
g6
I00
sg7
V\u0905\u0928\u0941\u0935\u093e\u0926
p2470
sg9
(issf_api
FeatureSet
p2471
(dp2472
g12
(dp2473
S'posn'
p2474
S'80'
p2475
sS'name'
p2476
S'\xe0\xa4\x85\xe0\xa4\xa8\xe0\xa5\x81\xe0\xa4\xb5\xe0\xa4\xbe\xe0\xa4\xa6'
p2477
sS'af'
p2478
S'\xe0\xa4\x85\xe0\xa4\xa8\xe0\xa5\x81\xe0\xa4\xb5\xe0\xa4\xbe\xe0\xa4\xa6,n,m,pl,3,d,0,0'
p2479
sS'chunkid'
p2480
S'NP4'
p2481
sS'drel'
p2482
S'pof:VGF'
p2483
sS'chunktype'
p2484
S'head:NP4'
p2485
ssbsg24
I00
sg25
I00
sg26
Nsg27
Nsg28
I3
sg29
I8
sg30
Nsg31
Nsg32
S'NN'
p2486
sg34
g2471
sg35
I00
sba(issf_api
Word
p2487
(dp2488
g6
I00
sg7
V\u0939\u094b
p2489
sg9
(issf_api
FeatureSet
p2490
(dp2491
g12
(dp2492
S'posn'
p2493
S'90'
p2494
sS'name'
p2495
S'\xe0\xa4\xb9\xe0\xa5\x8b'
p2496
sS'af'
p2497
S'\xe0\xa4\xb9\xe0\xa5\x8b,v,m,pl,3,,0_\xe0\xa4\x9a\xe0\xa5\x81\xe0\xa4\x95+\xe0\xa4\xaf\xe0\xa4\xbe_\xe0\xa4\xb9\xe0\xa5\x88,0'
p2498
sS'chunkid'
p2499
S'VGF'
p2500
sS'chunktype'
p2501
S'head:VGF'
p2502
sS'voicetype'
p2503
S'active'
p2504
sS'vpos'
p2505
S'tam_2_3'
p2506
sS'stype'
p2507
S'declarative'
p2508
ssbsg24
I00
sg25
I00
sg26
Nsg27
Nsg28
I4
sg29
I8
sg30
Nsg31
Nsg32
S'VM'
p2509
sg34
g2490
sg35
I00
sba(issf_api
Word
p2510
(dp2511
g6
I00
sg7
V\u091a\u0941\u0915\u0947
p2512
sg9
(issf_api
FeatureSet
p2513
(dp2514
g12
(dp2515
S'posn'
p2516
S'100'
p2517
sS'name'
p2518
S'\xe0\xa4\x9a\xe0\xa5\x81\xe0\xa4\x95\xe0\xa5\x87'
p2519
sS'drel'
p2520
S'lwg__vaux:VGF'
p2521
sS'chunktype'
p2522
S'child:VGF'
p2523
sS'af'
p2524
S'\xe0\xa4\x9a\xe0\xa5\x81\xe0\xa4\x95,v,m,pl,any,,\xe0\xa4\xaf\xe0\xa4\xbe,yA'
p2525
ssbsg24
I00
sg25
I00
sg26
Nsg27
Nsg28
I4
sg29
I8
sg30
Nsg31
Nsg32
S'VAUX'
p2526
sg34
g2513
sg35
I00
sba(issf_api
Word
p2527
(dp2528
g6
I00
sg7
V\u0939\u0948\u0902
p2529
sg9
(issf_api
FeatureSet
p2530
(dp2531
g12
(dp2532
S'posn'
p2533
S'110'
p2534
sS'name'
p2535
S'\xe0\xa4\xb9\xe0\xa5\x88\xe0\xa4\x82'
p2536
sS'drel'
p2537
S'lwg__vaux:VGF'
p2538
sS'chunktype'
p2539
S'child:VGF'
p2540
sS'af'
p2541
S'\xe0\xa4\xb9\xe0\xa5\x88,v,any,pl,3,,\xe0\xa4\xb9\xe0\xa5\x88,hE'
p2542
ssbsg24
I00
sg25
I00
sg26
Nsg27
Nsg28
I4
sg29
I8
sg30
Nsg31
Nsg32
S'VAUX'
p2543
sg34
g2530
sg35
I00
sba(issf_api
Word
p2544
(dp2545
g6
I00
sg7
V.
p2546
sg9
(issf_api
FeatureSet
p2547
(dp2548
g12
(dp2549
S'posn'
p2550
S'120'
p2551
sS'name'
p2552
g354
sS'af'
p2553
S'.,punc,,,,,,'
p2554
sS'chunkid'
p2555
S'BLK'
p2556
sS'drel'
p2557
S'rsym:VGF'
p2558
sS'chunktype'
p2559
S'head:BLK'
p2560
ssbsg24
I00
sg25
I00
sg26
Nsg27
Nsg28
I5
sg29
I8
sg30
Nsg31
Nsg32
S'SYM'
p2561
sg34
g2547
sg35
I00
sba(issf_api
Word
p2562
(dp2563
g6
I00
sg7
V\u092a\u0936\u094d\u091a\u093f\u092e\u0940
p2564
sg9
(issf_api
FeatureSet
p2565
(dp2566
g12
(dp2567
S'posn'
p2568
S'10'
p2569
sS'name'
p2570
S'\xe0\xa4\xaa\xe0\xa4\xb6\xe0\xa5\x8d\xe0\xa4\x9a\xe0\xa4\xbf\xe0\xa4\xae\xe0\xa5\x80'
p2571
sS'drel'
p2572
S'nmod__adj:NP'
p2573
sS'chunktype'
p2574
S'child:NP'
p2575
sS'af'
p2576
S'\xe0\xa4\xaa\xe0\xa4\xb6\xe0\xa5\x8d\xe0\xa4\x9a\xe0\xa4\xbf\xe0\xa4\xae\xe0\xa5\x80,adj,any,any,,o,,'
p2577
ssbsg24
I00
sg25
I00
sg26
Nsg27
Nsg28
I0
sg29
I9
sg30
Nsg31
Nsg32
S'JJ'
p2578
sg34
g2565
sg35
I00
sba(issf_api
Word
p2579
(dp2580
g6
I00
sg7
V\u092a\u0902\u091c\u093e\u092c
p2581
sg9
(issf_api
FeatureSet
p2582
(dp2583
g12
(dp2584
S'posn'
p2585
S'20'
p2586
sS'name'
p2587
S'\xe0\xa4\xaa\xe0\xa4\x82\xe0\xa4\x9c\xe0\xa4\xbe\xe0\xa4\xac'
p2588
sS'af'
p2589
S'\xe0\xa4\xaa\xe0\xa4\x82\xe0\xa4\x9c\xe0\xa4\xbe\xe0\xa4\xac,n,m,sg,3,o,0_\xe0\xa4\xae\xe0\xa5\x87\xe0\xa4\x82,0'
p2590
sS'chunkid'
p2591
S'NP'
p2592
sS'creftype'
p2593
S','
p2594
sS'drel'
p2595
S'k7p:VGNF'
p2596
sS'vpos'
p2597
S'vib_3'
p2598
sS'chunktype'
p2599
S'head:NP'
p2600
ssbsg24
I00
sg25
I00
sg26
Nsg27
Nsg28
I0
sg29
I9
sg30
Nsg31
Nsg32
S'NNP'
p2601
sg34
g2582
sg35
I00
sba(issf_api
Word
p2602
(dp2603
g6
I00
sg7
V\u092e\u0947\u0902
p2604
sg9
(issf_api
FeatureSet
p2605
(dp2606
g12
(dp2607
S'posn'
p2608
S'30'
p2609
sS'name'
p2610
S'\xe0\xa4\xae\xe0\xa5\x87\xe0\xa4\x82'
p2611
sS'drel'
p2612
S'lwg__psp:NP'
p2613
sS'chunktype'
p2614
S'child:NP'
p2615
sS'af'
p2616
S'\xe0\xa4\xae\xe0\xa5\x87\xe0\xa4\x82,psp,,,,,,'
p2617
ssbsg24
I00
sg25
I00
sg26
Nsg27
Nsg28
I0
sg29
I9
sg30
Nsg31
Nsg32
S'PSP'
p2618
sg34
g2605
sg35
I00
sba(issf_api
Word
p2619
(dp2620
g6
I00
sg7
V\u0969\u0967
p2621
sg9
(issf_api
FeatureSet
p2622
(dp2623
g12
(dp2624
S'posn'
p2625
S'40'
p2626
sS'name'
p2627
S'\xe0\xa5\xa9\xe0\xa5\xa7'
p2628
sS'drel'
p2629
S'pof__cn:NP2'
p2630
sS'chunktype'
p2631
S'child:NP2'
p2632
sS'af'
p2633
S'\xe0\xa5\xa9\xe0\xa5\xa7,n,any,sg,3,d,0,0'
p2634
ssbsg24
I00
sg25
I00
sg26
Nsg27
Nsg28
I1
sg29
I9
sg30
Nsg31
Nsg32
S'NNPC'
p2635
sg34
g2622
sg35
I00
sba(issf_api
Word
p2636
(dp2637
g6
I00
sg7
V\u0905\u0917\u0938\u094d\u0924
p2638
sg9
(issf_api
FeatureSet
p2639
(dp2640
g12
(dp2641
S'posn'
p2642
S'50'
p2643
sS'name'
p2644
S'\xe0\xa4\x85\xe0\xa4\x97\xe0\xa4\xb8\xe0\xa5\x8d\xe0\xa4\xa4'
p2645
sS'drel'
p2646
S'pof__cn:NP2'
p2647
sS'chunktype'
p2648
S'child:NP2'
p2649
sS'af'
p2650
S'\xe0\xa4\x85\xe0\xa4\x97\xe0\xa4\xb8\xe0\xa5\x8d\xe0\xa4\xa4,n,m,sg,3,d,0,0'
p2651
ssbsg24
I00
sg25
I00
sg26
Nsg27
Nsg28
I1
sg29
I9
sg30
Nsg31
Nsg32
S'NNPC'
p2652
sg34
g2639
sg35
I00
sba(issf_api
Word
p2653
(dp2654
g6
I00
sg7
V\u0967\u096f\u0967\u096f
p2655
sg9
(issf_api
FeatureSet
p2656
(dp2657
g12
(dp2658
S'posn'
p2659
S'60'
p2660
sS'name'
p2661
S'\xe0\xa5\xa7\xe0\xa5\xaf\xe0\xa5\xa7\xe0\xa5\xaf'
p2662
sS'af'
p2663
S'\xe0\xa5\xa7\xe0\xa5\xaf\xe0\xa5\xa7\xe0\xa5\xaf,n,any,sg,3,o,0_\xe0\xa4\x95\xe0\xa5\x8b,0'
p2664
sS'chunkid'
p2665
S'NP2'
p2666
sS'drel'
p2667
S'k7t:VGNF'
p2668
sS'vpos'
p2669
S'vib_4'
p2670
sS'chunktype'
p2671
S'head:NP2'
p2672
ssbsg24
I00
sg25
I00
sg26
Nsg27
Nsg28
I1
sg29
I9
sg30
Nsg31
Nsg32
S'NNP'
p2673
sg34
g2656
sg35
I00
sba(issf_api
Word
p2674
(dp2675
g6
I00
sg7
V\u0915\u094b
p2676
sg9
(issf_api
FeatureSet
p2677
(dp2678
g12
(dp2679
S'posn'
p2680
S'70'
p2681
sS'name'
p2682
S'\xe0\xa4\x95\xe0\xa5\x8b'
p2683
sS'drel'
p2684
S'lwg__psp:NP2'
p2685
sS'chunktype'
p2686
S'child:NP2'
p2687
sS'af'
p2688
S'\xe0\xa4\x95\xe0\xa5\x8b,psp,,,,,,'
p2689
ssbsg24
I00
sg25
I00
sg26
Nsg27
Nsg28
I1
sg29
I9
sg30
Nsg31
Nsg32
S'PSP'
p2690
sg34
g2677
sg35
I00
sba(issf_api
Word
p2691
(dp2692
g6
I00
sg7
V\u092a\u0948\u0926\u093e
p2693
sg9
(issf_api
FeatureSet
p2694
(dp2695
g12
(dp2696
S'posn'
p2697
S'80'
p2698
sS'name'
p2699
S'\xe0\xa4\xaa\xe0\xa5\x88\xe0\xa4\xa6\xe0\xa4\xbe'
p2700
sS'af'
p2701
S'\xe0\xa4\xaa\xe0\xa5\x88\xe0\xa4\xa6\xe0\xa4\xbe,adj,any,any,,,,'
p2702
sS'chunkid'
p2703
S'JJP'
p2704
sS'drel'
p2705
S'pof:VGNF'
p2706
sS'chunktype'
p2707
S'head:JJP'
p2708
ssbsg24
I00
sg25
I00
sg26
Nsg27
Nsg28
I2
sg29
I9
sg30
Nsg31
Nsg32
S'JJ'
p2709
sg34
g2694
sg35
I00
sba(issf_api
Word
p2710
(dp2711
g6
I00
sg7
V\u0939\u0941\u0908
p2712
sg9
(issf_api
FeatureSet
p2713
(dp2714
g12
(dp2715
S'posn'
p2716
S'90'
p2717
sS'name'
p2718
S'\xe0\xa4\xb9\xe0\xa5\x81\xe0\xa4\x88'
p2719
sS'af'
p2720
S'\xe0\xa4\xb9\xe0\xa5\x8b,v,f,sg,3,,\xe0\xa4\xaf\xe0\xa4\xbe,yA'
p2721
sS'chunkid'
p2722
S'VGNF'
p2723
sS'drel'
p2724
S'nmod:NP3'
p2725
sS'chunktype'
p2726
S'head:VGNF'
p2727
ssbsg24
I00
sg25
I00
sg26
Nsg27
Nsg28
I3
sg29
I9
sg30
Nsg31
Nsg32
S'VM'
p2728
sg34
g2713
sg35
I00
sba(issf_api
Word
p2729
(dp2730
g6
I00
sg7
V\u0905\u092e\u0943\u0924\u093e
p2731
sg9
(issf_api
FeatureSet
p2732
(dp2733
g12
(dp2734
S'posn'
p2735
S'100'
p2736
sS'name'
p2737
S'\xe0\xa4\x85\xe0\xa4\xae\xe0\xa5\x83\xe0\xa4\xa4\xe0\xa4\xbe'
p2738
sS'af'
p2739
S'\xe0\xa4\x85\xe0\xa4\xae\xe0\xa5\x83\xe0\xa4\xa4\xe0\xa4\xbe,n,f,sg,3,d,0,0'
p2740
sS'drel'
p2741
S'pof__cn:NP3'
p2742
sS'chunktype'
p2743
S'child:NP3'
p2744
sS'cref'
p2745
S'i21%0:t1'
p2746
ssbsg24
I00
sg25
I00
sg26
Nsg27
Nsg28
I4
sg29
I9
sg30
Nsg31
Nsg32
S'NNPC'
p2747
sg34
g2732
sg35
I00
sba(issf_api
Word
p2748
(dp2749
g6
I00
sg7
V\u092a\u094d\u0930\u0940\u0924\u092e
p2750
sg9
(issf_api
FeatureSet
p2751
(dp2752
g12
(dp2753
S'crefhead'
p2754
S'\xe0\xa4\xaa\xe0\xa5\x8d\xe0\xa4\xb0\xe0\xa5\x80\xe0\xa4\xa4\xe0\xa4\xae:i21'
p2755
sS'posn'
p2756
S'110'
p2757
sS'name'
p2758
S'\xe0\xa4\xaa\xe0\xa5\x8d\xe0\xa4\xb0\xe0\xa5\x80\xe0\xa4\xa4\xe0\xa4\xae'
p2759
sS'af'
p2760
S'\xe0\xa4\xaa\xe0\xa5\x8d\xe0\xa4\xb0\xe0\xa5\x80\xe0\xa4\xa4\xe0\xa4\xae,n,f,sg,3,o,0_\xe0\xa4\x95\xe0\xa5\x8b,0'
p2761
sS'chunkid'
p2762
S'NP3'
p2763
sS'creftype'
p2764
S'Coreference-Identity:i20'
p2765
sS'chunktype'
p2766
S'head:NP3'
p2767
sS'vpos'
p2768
S'vib_3'
p2769
sS'cref'
p2770
S'i21%1:t1'
p2771
sS'drel'
p2772
S'k4:VGF'
p2773
ssbsg24
I00
sg25
I00
sg26
Nsg27
Nsg28
I4
sg29
I9
sg30
Nsg31
Nsg32
S'NNP'
p2774
sg34
g2751
sg35
I00
sba(issf_api
Word
p2775
(dp2776
g6
I00
sg7
V\u0915\u094b
p2777
sg9
(issf_api
FeatureSet
p2778
(dp2779
g12
(dp2780
S'posn'
p2781
S'120'
p2782
sS'name'
p2783
S'\xe0\xa4\x95\xe0\xa5\x8b2'
p2784
sS'drel'
p2785
S'lwg__psp:NP3'
p2786
sS'chunktype'
p2787
S'child:NP3'
p2788
sS'af'
p2789
S'\xe0\xa4\x95\xe0\xa5\x8b,psp,,,,,,'
p2790
ssbsg24
I00
sg25
I00
sg26
Nsg27
Nsg28
I4
sg29
I9
sg30
Nsg31
Nsg32
S'PSP'
p2791
sg34
g2778
sg35
I00
sba(issf_api
Word
p2792
(dp2793
g6
I00
sg7
V\u0938\u093e\u0939\u093f\u0924\u094d\u092f
p2794
sg9
(issf_api
FeatureSet
p2795
(dp2796
g12
(dp2797
S'posn'
p2798
S'130'
p2799
sS'name'
p2800
S'\xe0\xa4\xb8\xe0\xa4\xbe\xe0\xa4\xb9\xe0\xa4\xbf\xe0\xa4\xa4\xe0\xa5\x8d\xe0\xa4\xaf'
p2801
sS'drel'
p2802
S'pof__cn:NP4'
p2803
sS'chunktype'
p2804
S'child:NP4'
p2805
sS'af'
p2806
S'\xe0\xa4\xb8\xe0\xa4\xbe\xe0\xa4\xb9\xe0\xa4\xbf\xe0\xa4\xa4\xe0\xa5\x8d\xe0\xa4\xaf,n,m,sg,3,d,0,0'
p2807
ssbsg24
I00
sg25
I00
sg26
Nsg27
Nsg28
I5
sg29
I9
sg30
Nsg31
Nsg32
S'NNPC'
p2808
sg34
g2795
sg35
I00
sba(issf_api
Word
p2809
(dp2810
g6
I00
sg7
V\u0905\u0915\u093e\u0926\u092e\u0940
p2811
sg9
(issf_api
FeatureSet
p2812
(dp2813
g12
(dp2814
S'posn'
p2815
S'140'
p2816
sS'name'
p2817
S'\xe0\xa4\x85\xe0\xa4\x95\xe0\xa4\xbe\xe0\xa4\xa6\xe0\xa4\xae\xe0\xa5\x80'
p2818
sS'drel'
p2819
S'pof__cn:NP4'
p2820
sS'chunktype'
p2821
S'child:NP4'
p2822
sS'af'
p2823
S'\xe0\xa4\x85\xe0\xa4\x95\xe0\xa4\xbe\xe0\xa4\xa6\xe0\xa4\xae\xe0\xa5\x80,n,f,sg,3,d,0,0'
p2824
ssbsg24
I00
sg25
I00
sg26
Nsg27
Nsg28
I5
sg29
I9
sg30
Nsg31
Nsg32
S'NNPC'
p2825
sg34
g2812
sg35
I00
sba(issf_api
Word
p2826
(dp2827
g6
I00
sg7
V\u092a\u0941\u0930\u0938\u094d\u0915\u093e\u0930
p2828
sg9
(issf_api
FeatureSet
p2829
(dp2830
g12
(dp2831
S'posn'
p2832
S'150'
p2833
sS'name'
p2834
S'\xe0\xa4\xaa\xe0\xa5\x81\xe0\xa4\xb0\xe0\xa4\xb8\xe0\xa5\x8d\xe0\xa4\x95\xe0\xa4\xbe\xe0\xa4\xb0'
p2835
sS'af'
p2836
S'\xe0\xa4\xaa\xe0\xa5\x81\xe0\xa4\xb0\xe0\xa4\xb8\xe0\xa5\x8d\xe0\xa4\x95\xe0\xa4\xbe\xe0\xa4\xb0,n,m,sg,3,d,0,0'
p2837
sS'chunkid'
p2838
S'NP4'
p2839
sS'drel'
p2840
S'k1:VGF'
p2841
sS'chunktype'
p2842
S'head:NP4'
p2843
ssbsg24
I00
sg25
I00
sg26
Nsg27
Nsg28
I5
sg29
I9
sg30
Nsg31
Nsg32
S'NNP'
p2844
sg34
g2829
sg35
I00
sba(issf_api
Word
p2845
(dp2846
g6
I00
sg7
V\u092d\u0940
p2847
sg9
(issf_api
FeatureSet
p2848
(dp2849
g12
(dp2850
S'posn'
p2851
S'160'
p2852
sS'name'
p2853
S'\xe0\xa4\xad\xe0\xa5\x80'
p2854
sS'drel'
p2855
S'lwg__rp:NP4'
p2856
sS'chunktype'
p2857
S'child:NP4'
p2858
sS'af'
p2859
S'\xe0\xa4\xad\xe0\xa5\x80,avy,,,,,,'
p2860
ssbsg24
I00
sg25
I00
sg26
Nsg27
Nsg28
I5
sg29
I9
sg30
Nsg31
Nsg32
S'RP'
p2861
sg34
g2848
sg35
I00
sba(issf_api
Word
p2862
(dp2863
g6
I00
sg7
V\u092e\u093f\u0932
p2864
sg9
(issf_api
FeatureSet
p2865
(dp2866
g12
(dp2867
S'posn'
p2868
S'170'
p2869
sS'name'
p2870
S'\xe0\xa4\xae\xe0\xa4\xbf\xe0\xa4\xb2'
p2871
sS'af'
p2872
S'\xe0\xa4\xae\xe0\xa4\xbf\xe0\xa4\xb2,v,m,sg,3,,0_\xe0\xa4\x9a\xe0\xa5\x81\xe0\xa4\x95+\xe0\xa4\xaf\xe0\xa4\xbe_\xe0\xa4\xb9\xe0\xa5\x88,0'
p2873
sS'chunkid'
p2874
S'VGF'
p2875
sS'chunktype'
p2876
S'head:VGF'
p2877
sS'voicetype'
p2878
S'passive'
p2879
sS'vpos'
p2880
S'tam_2_3'
p2881
sS'stype'
p2882
S'declarative'
p2883
ssbsg24
I00
sg25
I00
sg26
Nsg27
Nsg28
I6
sg29
I9
sg30
Nsg31
Nsg32
S'VM'
p2884
sg34
g2865
sg35
I00
sba(issf_api
Word
p2885
(dp2886
g6
I00
sg7
V\u091a\u0941\u0915\u093e
p2887
sg9
(issf_api
FeatureSet
p2888
(dp2889
g12
(dp2890
S'posn'
p2891
S'180'
p2892
sS'name'
p2893
S'\xe0\xa4\x9a\xe0\xa5\x81\xe0\xa4\x95\xe0\xa4\xbe'
p2894
sS'drel'
p2895
S'lwg__vaux:VGF'
p2896
sS'chunktype'
p2897
S'child:VGF'
p2898
sS'af'
p2899
S'\xe0\xa4\x9a\xe0\xa5\x81\xe0\xa4\x95,v,m,sg,3,,\xe0\xa4\xaf\xe0\xa4\xbe,yA'
p2900
ssbsg24
I00
sg25
I00
sg26
Nsg27
Nsg28
I6
sg29
I9
sg30
Nsg31
Nsg32
S'VAUX'
p2901
sg34
g2888
sg35
I00
sba(issf_api
Word
p2902
(dp2903
g6
I00
sg7
V\u0939\u0948
p2904
sg9
(issf_api
FeatureSet
p2905
(dp2906
g12
(dp2907
S'posn'
p2908
S'190'
p2909
sS'name'
p2910
S'\xe0\xa4\xb9\xe0\xa5\x88'
p2911
sS'drel'
p2912
S'lwg__vaux:VGF'
p2913
sS'chunktype'
p2914
S'child:VGF'
p2915
sS'af'
p2916
S'\xe0\xa4\xb9\xe0\xa5\x88,v,any,sg,3,,\xe0\xa4\xb9\xe0\xa5\x88,hE'
p2917
ssbsg24
I00
sg25
I00
sg26
Nsg27
Nsg28
I6
sg29
I9
sg30
Nsg31
Nsg32
S'VAUX'
p2918
sg34
g2905
sg35
I00
sba(issf_api
Word
p2919
(dp2920
g6
I00
sg7
V.
p2921
sg9
(issf_api
FeatureSet
p2922
(dp2923
g12
(dp2924
S'posn'
p2925
S'200'
p2926
sS'name'
p2927
g354
sS'af'
p2928
S'.,punc,,,,,,'
p2929
sS'chunkid'
p2930
S'BLK'
p2931
sS'drel'
p2932
S'rsym:VGF'
p2933
sS'chunktype'
p2934
S'head:BLK'
p2935
ssbsg24
I00
sg25
I00
sg26
Nsg27
Nsg28
I7
sg29
I9
sg30
Nsg31
Nsg32
S'SYM'
p2936
sg34
g2922
sg35
I00
sba(issf_api
Word
p2937
(dp2938
g6
I00
sg7
V\u0909\u0928\u0915\u0940
p2939
sg9
(issf_api
FeatureSet
p2940
(dp2941
g12
(dp2942
S'crefhead'
p2943
S'\xe0\xa4\x89\xe0\xa4\xa8\xe0\xa4\x95\xe0\xa5\x80:i22'
p2944
sS'posn'
p2945
S'10'
p2946
sS'name'
p2947
S'\xe0\xa4\x89\xe0\xa4\xa8\xe0\xa4\x95\xe0\xa5\x80'
p2948
sS'af'
p2949
S'\xe0\xa4\xb5\xe0\xa4\xb9,pn,f,sg,3h,o,\xe0\xa4\x95\xe0\xa4\xbe,kA'
p2950
sS'acrefmodhead'
p2951
S'\xe0\xa4\x89\xe0\xa4\xa8\xe0\xa4\x95\xe0\xa5\x80:m2,\xe0\xa4\x89\xe0\xa4\xa8\xe0\xa4\x95\xe0\xa5\x80:m3,\xe0\xa4\x89\xe0\xa4\xa8\xe0\xa4\x95\xe0\xa5\x80:m4'
p2952
sS'chunkid'
p2953
S'NP'
p2954
sS'acrefmod'
p2955
S'm2%1:i23,m3%1:i24,m4%1:i25'
p2956
sS'creftype'
p2957
S'Anaphora-C:i21'
p2958
sS'chunktype'
p2959
S'head:NP'
p2960
sS'cref'
p2961
S'i22%1:t1'
p2962
sS'drel'
p2963
S'r6:NP2'
p2964
ssbsg24
I00
sg25
I00
sg26
Nsg27
Nsg28
I0
sg29
I10
sg30
Nsg31
Nsg32
S'PRP'
p2965
sg34
g2940
sg35
I00
sba(issf_api
Word
p2966
(dp2967
g6
I00
sg7
V\u092e\u0936\u0939\u0942\u0930
p2968
sg9
(issf_api
FeatureSet
p2969
(dp2970
g12
(dp2971
S'posn'
p2972
S'20'
p2973
sS'name'
p2974
S'\xe0\xa4\xae\xe0\xa4\xb6\xe0\xa4\xb9\xe0\xa5\x82\xe0\xa4\xb0'
p2975
sS'af'
p2976
S'\xe0\xa4\xae\xe0\xa4\xb6\xe0\xa4\xb9\xe0\xa5\x82\xe0\xa4\xb0,adj,any,any,,o,,'
p2977
sS'drel'
p2978
S'nmod__adj:NP2'
p2979
sS'chunktype'
p2980
S'child:NP2'
p2981
sS'cref'
p2982
S'i23%0:t5,i24%0:t6,i25%0:t7'
p2983
ssbsg24
I00
sg25
I00
sg26
Nsg27
Nsg28
I1
sg29
I10
sg30
Nsg31
Nsg32
S'JJ'
p2984
sg34
g2969
sg35
I00
sba(issf_api
Word
p2985
(dp2986
g6
I00
sg7
V\u0915\u0943\u0924\u093f\u092f\u094b\u0902
p2987
sg9
(issf_api
FeatureSet
p2988
(dp2989
g12
(dp2990
S'crefhead'
p2991
S'\xe0\xa4\x95\xe0\xa5\x83\xe0\xa4\xa4\xe0\xa4\xbf\xe0\xa4\xaf\xe0\xa5\x8b\xe0\xa4\x82:i23,\xe0\xa4\x95\xe0\xa5\x83\xe0\xa4\xa4\xe0\xa4\xbf\xe0\xa4\xaf\xe0\xa5\x8b\xe0\xa4\x82:i24,\xe0\xa4\x95\xe0\xa5\x83\xe0\xa4\xa4\xe0\xa4\xbf\xe0\xa4\xaf\xe0\xa5\x8b\xe0\xa4\x82:i25'
p2992
sS'posn'
p2993
S'30'
p2994
sS'name'
p2995
S'\xe0\xa4\x95\xe0\xa5\x83\xe0\xa4\xa4\xe0\xa4\xbf\xe0\xa4\xaf\xe0\xa5\x8b\xe0\xa4\x82'
p2996
sS'af'
p2997
S'\xe0\xa4\x95\xe0\xa5\x83\xe0\xa4\xa4\xe0\xa4\xbf,n,f,pl,3,o,0_\xe0\xa4\xae\xe0\xa5\x87\xe0\xa4\x82,0'
p2998
sS'chunkid'
p2999
S'NP2'
p3000
sS'crefmod'
p3001
S'm2:i23,m3:i24,m4:i25'
p3002
sS'chunktype'
p3003
S'head:NP2'
p3004
sS'vpos'
p3005
S'vib_3'
p3006
sS'cref'
p3007
S'i23%1:t5,i24%1:t6,i25%1:t7'
p3008
sS'drel'
p3009
S'k7:VGF'
p3010
ssbsg24
I00
sg25
I00
sg26
Nsg27
Nsg28
I1
sg29
I10
sg30
Nsg31
Nsg32
S'NN'
p3011
sg34
g2988
sg35
I00
sba(issf_api
Word
p3012
(dp3013
g6
I00
sg7
V\u092e\u0947\u0902
p3014
sg9
(issf_api
FeatureSet
p3015
(dp3016
g12
(dp3017
S'posn'
p3018
S'40'
p3019
sS'name'
p3020
S'\xe0\xa4\xae\xe0\xa5\x87\xe0\xa4\x82'
p3021
sS'drel'
p3022
S'lwg__psp:NP2'
p3023
sS'chunktype'
p3024
S'child:NP2'
p3025
sS'af'
p3026
S'\xe0\xa4\xae\xe0\xa5\x87\xe0\xa4\x82,psp,,,,,,'
p3027
ssbsg24
I00
sg25
I00
sg26
Nsg27
Nsg28
I1
sg29
I10
sg30
Nsg31
Nsg32
S'PSP'
p3028
sg34
g3015
sg35
I00
sba(issf_api
Word
p3029
(dp3030
g6
I00
sg7
V\u0930\u0938\u0940\u0926\u0940
p3031
sg9
(issf_api
FeatureSet
p3032
(dp3033
g12
(dp3034
S'posn'
p3035
S'60'
p3036
sS'name'
p3037
S'\xe0\xa4\xb0\xe0\xa4\xb8\xe0\xa5\x80\xe0\xa4\xa6\xe0\xa5\x80'
p3038
sS'af'
p3039
S'\xe0\xa4\xb0\xe0\xa4\xb8\xe0\xa5\x80\xe0\xa4\xa6\xe0\xa5\x80,n,m,sg,3,d,0,0'
p3040
sS'drel'
p3041
S'pof__cn:NP3'
p3042
sS'chunktype'
p3043
S'child:NP3'
p3044
sS'cref'
p3045
S'i26%0:t7'
p3046
ssbsg24
I00
sg25
I00
sg26
Nsg27
Nsg28
I2
sg29
I10
sg30
Nsg31
Nsg32
S'NNPC'
p3047
sg34
g3032
sg35
I00
sba(issf_api
Word
p3048
(dp3049
g6
I00
sg7
V\u091f\u093f\u0915\u091f
p3050
sg9
(issf_api
FeatureSet
p3051
(dp3052
g12
(dp3053
S'crefhead'
p3054
S'\xe0\xa4\x9f\xe0\xa4\xbf\xe0\xa4\x95\xe0\xa4\x9f:i26'
p3055
sS'posn'
p3056
S'60'
p3057
sS'name'
p3058
S'\xe0\xa4\x9f\xe0\xa4\xbf\xe0\xa4\x95\xe0\xa4\x9f'
p3059
sS'af'
p3060
S'\xe0\xa4\x9f\xe0\xa4\xbf\xe0\xa4\x95\xe0\xa4\x9f,n,m,sg,3,d,0,0'
p3061
sS'chunkid'
p3062
S'NP3'
p3063
sS'creftype'
p3064
S'Coreference-PartOf:i25'
p3065
sS'chunktype'
p3066
S'head:NP3'
p3067
sS'crefchainhead'
p3068
S'i26:t7'
p3069
sS'cref'
p3070
S'i26%1:t7'
p3071
sS'drel'
p3072
S'ccof:NULL__CCP'
p3073
ssbsg24
I00
sg25
I00
sg26
Nsg27
Nsg28
I2
sg29
I10
sg30
Nsg31
Nsg32
S'NNP'
p3074
sg34
g3051
sg35
I00
sba(issf_api
Word
p3075
(dp3076
g6
I00
sg7
V,
p3077
sg9
(issf_api
FeatureSet
p3078
(dp3079
g12
(dp3080
S'posn'
p3081
S'70'
p3082
sS'name'
p3083
g2594
sS'drel'
p3084
S'rsym:NP3'
p3085
sS'chunktype'
p3086
S'child:NP3'
p3087
sS'af'
p3088
S'COMMA,punc,,,,,,'
p3089
ssbsg24
I00
sg25
I00
sg26
Nsg27
Nsg28
I2
sg29
I10
sg30
Nsg31
Nsg32
S'SYM'
p3090
sg34
g3078
sg35
I00
sba(issf_api
Word
p3091
(dp3092
g6
I00
sg7
V\u0915\u093e\u0917\u091c
p3093
sg9
(issf_api
FeatureSet
p3094
(dp3095
g12
(dp3096
S'posn'
p3097
S'80'
p3098
sS'name'
p3099
S'\xe0\xa4\x95\xe0\xa4\xbe\xe0\xa4\x97\xe0\xa4\x9c'
p3100
sS'af'
p3101
S'\xe0\xa4\x95\xe0\xa4\xbe\xe0\xa4\x97\xe0\xa4\x9c,n,m,sg,3,d,0,0'
p3102
sS'drel'
p3103
S'pof__cn:NP4'
p3104
sS'chunktype'
p3105
S'child:NP4'
p3106
sS'cref'
p3107
S'i27%0:t5'
p3108
ssbsg24
I00
sg25
I00
sg26
Nsg27
Nsg28
I3
sg29
I10
sg30
Nsg31
Nsg32
S'NNPC'
p3109
sg34
g3094
sg35
I00
sba(issf_api
Word
p3110
(dp3111
g6
I00
sg7
V\u0914\u0930
p3112
sg9
(issf_api
FeatureSet
p3113
(dp3114
g12
(dp3115
S'posn'
p3116
S'90'
p3117
sS'name'
p3118
S'\xe0\xa4\x94\xe0\xa4\xb0'
p3119
sS'af'
p3120
S'\xe0\xa4\x94\xe0\xa4\xb0,avy,,,,,,'
p3121
sS'drel'
p3122
S'pof__cn:NP4'
p3123
sS'chunktype'
p3124
S'child:NP4'
p3125
sS'cref'
p3126
S'i27%0:t5'
p3127
ssbsg24
I00
sg25
I00
sg26
Nsg27
Nsg28
I3
sg29
I10
sg30
Nsg31
Nsg32
S'NNPC'
p3128
sg34
g3113
sg35
I00
sba(issf_api
Word
p3129
(dp3130
g6
I00
sg7
V\u0915\u0948\u0928\u0935\u0938
p3131
sg9
(issf_api
FeatureSet
p3132
(dp3133
g12
(dp3134
S'crefhead'
p3135
S'\xe0\xa4\x95\xe0\xa5\x88\xe0\xa4\xa8\xe0\xa4\xb5\xe0\xa4\xb8:i27'
p3136
sS'posn'
p3137
S'100'
p3138
sS'name'
p3139
S'\xe0\xa4\x95\xe0\xa5\x88\xe0\xa4\xa8\xe0\xa4\xb5\xe0\xa4\xb8'
p3140
sS'af'
p3141
S'\xe0\xa4\x95\xe0\xa5\x88\xe0\xa4\xa8\xe0\xa4\xb5\xe0\xa4\xb8,n,m,sg,3,d,0,0'
p3142
sS'chunkid'
p3143
S'NP4'
p3144
sS'creftype'
p3145
S'Coreference-PartOf:i23'
p3146
sS'chunktype'
p3147
S'head:NP4'
p3148
sS'crefchainhead'
p3149
S'i27:t5'
p3150
sS'cref'
p3151
S'i27%1:t5'
p3152
sS'drel'
p3153
S'ccof:NULL__CCP'
p3154
ssbsg24
I00
sg25
I00
sg26
Nsg27
Nsg28
I3
sg29
I10
sg30
Nsg31
Nsg32
S'NNP'
p3155
sg34
g3132
sg35
I00
sba(issf_api
Word
p3156
(dp3157
g6
I00
sg7
V,
p3158
sg9
(issf_api
FeatureSet
p3159
(dp3160
g12
(dp3161
S'posn'
p3162
S'110'
p3163
sS'name'
p3164
S',2'
p3165
sS'drel'
p3166
S'rsym:NP4'
p3167
sS'chunktype'
p3168
S'child:NP4'
p3169
sS'af'
p3170
S'COMMA,punc,,,,,,'
p3171
ssbsg24
I00
sg25
I00
sg26
Nsg27
Nsg28
I3
sg29
I10
sg30
Nsg31
Nsg32
S'SYM'
p3172
sg34
g3159
sg35
I00
sba(issf_api
Word
p3173
(dp3174
g6
I00
sg7
V\u092e\u0947\u0930\u093e
p3175
sg9
(issf_api
FeatureSet
p3176
(dp3177
g12
(dp3178
S'posn'
p3179
S'60'
p3180
sS'name'
p3181
S'\xe0\xa4\xae\xe0\xa5\x87\xe0\xa4\xb0\xe0\xa4\xbe'
p3182
sS'af'
p3183
S'\xe0\xa4\xae\xe0\xa5\x88\xe0\xa4\x82,n,m,sg,3,d,0,0'
p3184
sS'drel'
p3185
S'pof__cn:NP5'
p3186
sS'chunktype'
p3187
S'child:NP5'
p3188
sS'cref'
p3189
S'i28%0:t6'
p3190
ssbsg24
I00
sg25
I00
sg26
Nsg27
Nsg28
I4
sg29
I10
sg30
Nsg31
Nsg32
S'NNPC'
p3191
sg34
g3176
sg35
I00
sba(issf_api
Word
p3192
(dp3193
g6
I00
sg7
V\u0915\u092e\u0930\u093e
p3194
sg9
(issf_api
FeatureSet
p3195
(dp3196
g12
(dp3197
S'posn'
p3198
S'130'
p3199
sS'name'
p3200
S'\xe0\xa4\x95\xe0\xa4\xae\xe0\xa4\xb0\xe0\xa4\xbe'
p3201
sS'af'
p3202
S'\xe0\xa4\x95\xe0\xa4\xae\xe0\xa4\xb0\xe0\xa4\xbe,n,m,sg,3,d,0,0'
p3203
sS'drel'
p3204
S'pof__cn:NP5'
p3205
sS'chunktype'
p3206
S'child:NP5'
p3207
sS'cref'
p3208
S'i28%0:t6'
p3209
ssbsg24
I00
sg25
I00
sg26
Nsg27
Nsg28
I4
sg29
I10
sg30
Nsg31
Nsg32
S'NNPC'
p3210
sg34
g3195
sg35
I00
sba(issf_api
Word
p3211
(dp3212
g6
I00
sg7
V\u0914\u0930
p3213
sg9
(issf_api
FeatureSet
p3214
(dp3215
g12
(dp3216
S'posn'
p3217
S'140'
p3218
sS'name'
p3219
S'\xe0\xa4\x94\xe0\xa4\xb02'
p3220
sS'af'
p3221
S'\xe0\xa4\x94\xe0\xa4\xb0,avy,,,,,,'
p3222
sS'drel'
p3223
S'pof__cn:NP5'
p3224
sS'chunktype'
p3225
S'child:NP5'
p3226
sS'cref'
p3227
S'i28%0:t6'
p3228
ssbsg24
I00
sg25
I00
sg26
Nsg27
Nsg28
I4
sg29
I10
sg30
Nsg31
Nsg32
S'NNPC'
p3229
sg34
g3214
sg35
I00
sba(issf_api
Word
p3230
(dp3231
g6
I00
sg7
V\u0938\u0902\u0926\u0947\u0939
p3232
sg9
(issf_api
FeatureSet
p3233
(dp3234
g12
(dp3235
S'crefhead'
p3236
S'\xe0\xa4\xb8\xe0\xa4\x82\xe0\xa4\xa6\xe0\xa5\x87\xe0\xa4\xb9:i28'
p3237
sS'posn'
p3238
S'150'
p3239
sS'name'
p3240
S'\xe0\xa4\xb8\xe0\xa4\x82\xe0\xa4\xa6\xe0\xa5\x87\xe0\xa4\xb9'
p3241
sS'af'
p3242
S'\xe0\xa4\xb8\xe0\xa4\x82\xe0\xa4\xa6\xe0\xa5\x87\xe0\xa4\xb9,n,m,sg,3,d,0,0'
p3243
sS'chunkid'
p3244
S'NP5'
p3245
sS'creftype'
p3246
S'Coreference-PartOf:i24'
p3247
sS'chunktype'
p3248
S'head:NP5'
p3249
sS'crefchainhead'
p3250
S'i28:t6'
p3251
sS'cref'
p3252
S'i28%1:t6'
p3253
sS'drel'
p3254
S'ccof:NULL__CCP'
p3255
ssbsg24
I00
sg25
I00
sg26
Nsg27
Nsg28
I4
sg29
I10
sg30
Nsg31
Nsg32
S'NNP'
p3256
sg34
g3233
sg35
I00
sba(issf_api
Word
p3257
(dp3258
g6
I00
sg7
V\u0939\u0948\u0902
p3259
sg9
(issf_api
FeatureSet
p3260
(dp3261
g12
(dp3262
S'posn'
p3263
S'160'
p3264
sS'name'
p3265
S'\xe0\xa4\xb9\xe0\xa5\x88\xe0\xa4\x82'
p3266
sS'af'
p3267
S'\xe0\xa4\xb9\xe0\xa5\x88,v,any,pl,3,,\xe0\xa4\xb9\xe0\xa5\x88,hE'
p3268
sS'chunkid'
p3269
S'VGF'
p3270
sS'chunktype'
p3271
S'head:VGF'
p3272
sS'voicetype'
p3273
S'active'
p3274
sS'stype'
p3275
S'declarative'
p3276
ssbsg24
I00
sg25
I00
sg26
Nsg27
Nsg28
I5
sg29
I10
sg30
Nsg31
Nsg32
S'VM'
p3277
sg34
g3260
sg35
I00
sba(issf_api
Word
p3278
(dp3279
g6
I00
sg7
V.
p3280
sg9
(issf_api
FeatureSet
p3281
(dp3282
g12
(dp3283
S'posn'
p3284
S'170'
p3285
sS'name'
p3286
g354
sS'af'
p3287
S'.,punc,,,,,,'
p3288
sS'chunkid'
p3289
S'BLK'
p3290
sS'drel'
p3291
S'rsym:VGF'
p3292
sS'chunktype'
p3293
S'head:BLK'
p3294
ssbsg24
I00
sg25
I00
sg26
Nsg27
Nsg28
I6
sg29
I10
sg30
Nsg31
Nsg32
S'SYM'
p3295
sg34
g3281
sg35
I00
sba(issf_api
Word
p3296
(dp3297
g6
I00
sg7
V\u0926\u0930\u0905\u0938\u0932
p3298
sg9
(issf_api
FeatureSet
p3299
(dp3300
g12
(dp3301
S'posn'
p3302
S'10'
p3303
sS'name'
p3304
S'\xe0\xa4\xa6\xe0\xa4\xb0\xe0\xa4\x85\xe0\xa4\xb8\xe0\xa4\xb2'
p3305
sS'af'
p3306
S'\xe0\xa4\xa6\xe0\xa4\xb0\xe0\xa4\x85\xe0\xa4\xb8\xe0\xa4\xb2,adv,,,,,,'
p3307
sS'chunkid'
p3308
S'RBP'
p3309
sS'drel'
p3310
S'sent-adv:VGF'
p3311
sS'chunktype'
p3312
S'head:RBP'
p3313
ssbsg24
I00
sg25
I00
sg26
Nsg27
Nsg28
I0
sg29
I11
sg30
Nsg31
Nsg32
S'RB'
p3314
sg34
g3299
sg35
I00
sba(issf_api
Word
p3315
(dp3316
g6
I00
sg7
V,
p3317
sg9
(issf_api
FeatureSet
p3318
(dp3319
g12
(dp3320
S'posn'
p3321
S'20'
p3322
sS'name'
p3323
g2594
sS'drel'
p3324
S'rsym:RBP'
p3325
sS'chunktype'
p3326
S'child:RBP'
p3327
sS'af'
p3328
S'COMMA,punc,,,,,,'
p3329
ssbsg24
I00
sg25
I00
sg26
Nsg27
Nsg28
I0
sg29
I11
sg30
Nsg31
Nsg32
S'SYM'
p3330
sg34
g3318
sg35
I00
sba(issf_api
Word
p3331
(dp3332
g6
I00
sg7
V\u0930\u0938\u0940\u0926\u0940
p3333
sg9
(issf_api
FeatureSet
p3334
(dp3335
g12
(dp3336
S'posn'
p3337
S'60'
p3338
sS'name'
p3339
S'\xe0\xa4\xb0\xe0\xa4\xb8\xe0\xa5\x80\xe0\xa4\xa6\xe0\xa5\x80'
p3340
sS'af'
p3341
S'\xe0\xa4\xb0\xe0\xa4\xb8\xe0\xa5\x80\xe0\xa4\xa6\xe0\xa5\x80,n,m,sg,3,d,0,0'
p3342
sS'drel'
p3343
S'pof__cn:NP'
p3344
sS'chunktype'
p3345
S'child:NP'
p3346
sS'cref'
p3347
S'i29%0:t7'
p3348
ssbsg24
I00
sg25
I00
sg26
Nsg27
Nsg28
I1
sg29
I11
sg30
Nsg31
Nsg32
S'NNPC'
p3349
sg34
g3334
sg35
I00
sba(issf_api
Word
p3350
(dp3351
g6
I00
sg7
V\u091f\u093f\u0915\u091f
p3352
sg9
(issf_api
FeatureSet
p3353
(dp3354
g12
(dp3355
S'crefhead'
p3356
S'\xe0\xa4\x9f\xe0\xa4\xbf\xe0\xa4\x95\xe0\xa4\x9f:i29'
p3357
sS'posn'
p3358
S'40'
p3359
sS'name'
p3360
S'\xe0\xa4\x9f\xe0\xa4\xbf\xe0\xa4\x95\xe0\xa4\x9f'
p3361
sS'af'
p3362
S'\xe0\xa4\x9f\xe0\xa4\xbf\xe0\xa4\x95\xe0\xa4\x9f,n,m,sg,3,d,0,0'
p3363
sS'chunkid'
p3364
S'NP'
p3365
sS'creftype'
p3366
S'Coreference-Identity:i26'
p3367
sS'chunktype'
p3368
S'head:NP'
p3369
sS'cref'
p3370
S'i29%1:t7'
p3371
sS'drel'
p3372
S'k1:VGF'
p3373
ssbsg24
I00
sg25
I00
sg26
Nsg27
Nsg28
I1
sg29
I11
sg30
Nsg31
Nsg32
S'NNP'
p3374
sg34
g3353
sg35
I00
sba(issf_api
Word
p3375
(dp3376
g6
I00
sg7
V\u0909\u0928\u0915\u093e
p3377
sg9
(issf_api
FeatureSet
p3378
(dp3379
g12
(dp3380
S'crefhead'
p3381
S'\xe0\xa4\x89\xe0\xa4\xa8\xe0\xa4\x95\xe0\xa4\xbe:i30'
p3382
sS'posn'
p3383
S'50'
p3384
sS'name'
p3385
S'\xe0\xa4\x89\xe0\xa4\xa8\xe0\xa4\x95\xe0\xa4\xbe'
p3386
sS'af'
p3387
S'\xe0\xa4\xb5\xe0\xa4\xb9,pn,m,sg,3h,o,\xe0\xa4\x95\xe0\xa4\xbe,kA'
p3388
sS'acrefmodhead'
p3389
S'\xe0\xa4\x89\xe0\xa4\xa8\xe0\xa4\x95\xe0\xa4\xbe:m5'
p3390
sS'chunkid'
p3391
S'NP2'
p3392
sS'acrefmod'
p3393
S'm5%1:i31'
p3394
sS'creftype'
p3395
S'Anaphora-C:i22'
p3396
sS'chunktype'
p3397
S'head:NP2'
p3398
sS'cref'
p3399
S'i30%1:t1'
p3400
sS'drel'
p3401
S'r6:NP3'
p3402
ssbsg24
I00
sg25
I00
sg26
Nsg27
Nsg28
I2
sg29
I11
sg30
Nsg31
Nsg32
S'PRP'
p3403
sg34
g3378
sg35
I00
sba(issf_api
Word
p3404
(dp3405
g6
I00
sg7
V\u091c\u0940\u0935\u0928
p3406
sg9
(issf_api
FeatureSet
p3407
(dp3408
g12
(dp3409
S'posn'
p3410
S'60'
p3411
sS'name'
p3412
S'\xe0\xa4\x9c\xe0\xa5\x80\xe0\xa4\xb5\xe0\xa4\xa8'
p3413
sS'af'
p3414
S'\xe0\xa4\x9c\xe0\xa5\x80\xe0\xa4\xb5\xe0\xa4\xa8,n,m,sg,3,d,0,0'
p3415
sS'drel'
p3416
S'pof__cn:NP3'
p3417
sS'chunktype'
p3418
S'child:NP3'
p3419
sS'cref'
p3420
S'i31%0:t7'
p3421
ssbsg24
I00
sg25
I00
sg26
Nsg27
Nsg28
I3
sg29
I11
sg30
Nsg31
Nsg32
S'NNC'
p3422
sg34
g3407
sg35
I00
sba(issf_api
Word
p3423
(dp3424
g6
I00
sg7
V\u0935\u0943\u0924\u094d\u0924\u093e\u0902\u0924
p3425
sg9
(issf_api
FeatureSet
p3426
(dp3427
g12
(dp3428
S'crefhead'
p3429
S'\xe0\xa4\xb5\xe0\xa5\x83\xe0\xa4\xa4\xe0\xa5\x8d\xe0\xa4\xa4\xe0\xa4\xbe\xe0\xa4\x82\xe0\xa4\xa4:i31'
p3430
sS'posn'
p3431
S'70'
p3432
sS'name'
p3433
S'\xe0\xa4\xb5\xe0\xa5\x83\xe0\xa4\xa4\xe0\xa5\x8d\xe0\xa4\xa4\xe0\xa4\xbe\xe0\xa4\x82\xe0\xa4\xa4'
p3434
sS'af'
p3435
S'\xe0\xa4\xb5\xe0\xa5\x83\xe0\xa4\xa4\xe0\xa5\x8d\xe0\xa4\xa4\xe0\xa4\xbe\xe0\xa4\xa8\xe0\xa5\x8d\xe0\xa4\xa4,n,m,sg,3,d,0,0'
p3436
sS'chunkid'
p3437
S'NP3'
p3438
sS'crefmod'
p3439
S'm5:i31'
p3440
sS'creftype'
p3441
S'Coreference-Noun-Noun:i29'
p3442
sS'chunktype'
p3443
S'head:NP3'
p3444
sS'cref'
p3445
S'i31%1:t7'
p3446
sS'drel'
p3447
S'k1s:VGF'
p3448
ssbsg24
I00
sg25
I00
sg26
Nsg27
Nsg28
I3
sg29
I11
sg30
Nsg31
Nsg32
S'NN'
p3449
sg34
g3426
sg35
I00
sba(issf_api
Word
p3450
(dp3451
g6
I00
sg7
V\u0939\u0948
p3452
sg9
(issf_api
FeatureSet
p3453
(dp3454
g12
(dp3455
S'posn'
p3456
S'80'
p3457
sS'name'
p3458
S'\xe0\xa4\xb9\xe0\xa5\x88'
p3459
sS'af'
p3460
S'\xe0\xa4\xb9\xe0\xa5\x88,v,any,sg,3,,\xe0\xa4\xb9\xe0\xa5\x88,hE'
p3461
sS'chunkid'
p3462
S'VGF'
p3463
sS'chunktype'
p3464
S'head:VGF'
p3465
sS'voicetype'
p3466
S'active'
p3467
sS'stype'
p3468
S'declarative'
p3469
ssbsg24
I00
sg25
I00
sg26
Nsg27
Nsg28
I4
sg29
I11
sg30
Nsg31
Nsg32
S'VM'
p3470
sg34
g3453
sg35
I00
sba(issf_api
Word
p3471
(dp3472
g6
I00
sg7
V.
p3473
sg9
(issf_api
FeatureSet
p3474
(dp3475
g12
(dp3476
S'posn'
p3477
S'90'
p3478
sS'name'
p3479
g354
sS'af'
p3480
S'.,punc,,,,,,'
p3481
sS'chunkid'
p3482
S'BLK'
p3483
sS'drel'
p3484
S'rsym:VGF'
p3485
sS'chunktype'
p3486
S'head:BLK'
p3487
ssbsg24
I00
sg25
I00
sg26
Nsg27
Nsg28
I5
sg29
I11
sg30
Nsg31
Nsg32
S'SYM'
p3488
sg34
g3474
sg35
I00
sbasS'sentenceList'
p3489
(lp3490
(issf_api
Sentence
p3491
(dp3492
S'rootNode'
p3493
(lp3494
sg29
I0
sS'wordNumList'
p3495
(lp3496
I0
aI1
aI2
aI3
aI4
aI5
aI6
aI7
aI8
aI9
aI10
aI11
aI12
aI13
aI14
aI15
aI16
asS'nodeDict'
p3497
(dp3498
S'VGF'
p3499
(issf_api
Node
p3500
(dp3501
S'nodeRelation'
p3502
S'None'
p3503
sS'nodeName'
p3504
g3499
sS'nodeParent'
p3505
g3503
sS'nodeLevel'
p3506
I-1
sg28
I6
sS'childList'
p3507
(lp3508
S'NP5'
p3509
aS'BLK'
p3510
aS'NP'
p3511
aS'NP6'
p3512
asbsg3509
(issf_api
Node
p3513
(dp3514
g3502
S'k7t'
p3515
sg3504
g3509
sg3505
S'VGF'
p3516
sg3506
I-1
sg28
I4
sg3507
(lp3517
sbsg3510
(issf_api
Node
p3518
(dp3519
g3502
S'rsym'
p3520
sg3504
g3510
sg3505
S'VGF'
p3521
sg3506
I-1
sg28
I7
sg3507
(lp3522
sbsg3511
(issf_api
Node
p3523
(dp3524
g3502
S'k7t'
p3525
sg3504
g3511
sg3505
S'VGF'
p3526
sg3506
I-1
sg28
I0
sg3507
(lp3527
sbsS'NP4'
p3528
(issf_api
Node
p3529
(dp3530
g3502
S'r6-k1'
p3531
sg3504
g3528
sg3505
S'NP6'
p3532
sg3506
I-1
sg28
I3
sg3507
(lp3533
S'NP3'
p3534
asbsg3512
(issf_api
Node
p3535
(dp3536
g3502
S'pof'
p3537
sg3504
g3512
sg3505
S'VGF'
p3538
sg3506
I-1
sg28
I5
sg3507
(lp3539
g3528
asbsg3534
(issf_api
Node
p3540
(dp3541
g3502
S'nmod'
p3542
sg3504
g3534
sg3505
S'NP4'
p3543
sg3506
I-1
sg28
I2
sg3507
(lp3544
S'NP2'
p3545
asbsg3545
(issf_api
Node
p3546
(dp3547
g3502
S'r6'
p3548
sg3504
g3545
sg3505
S'NP3'
p3549
sg3506
I-1
sg28
I1
sg3507
(lp3550
sbssS'chunkList'
p3551
(lp3552
(issf_api
Chunk
p3553
(dp3554
g3504
g49
sg28
I0
sS'chunkTag'
p3555
g56
sg29
I0
sg3495
(lp3556
I0
aI1
aI2
aI3
asg34
(issf_api
FeatureSet
p3557
(dp3558
g12
(dp3559
S'name'
p3560
g3511
sS'drel'
p3561
S'k7t:VGF'
p3562
ssbsba(issf_api
Chunk
p3563
(dp3564
g3504
g106
sg28
I1
sg3555
g115
sg29
I0
sg3495
(lp3565
I4
aI5
asg34
(issf_api
FeatureSet
p3566
(dp3567
g12
(dp3568
S'name'
p3569
g3545
sS'drel'
p3570
S'r6:NP3'
p3571
ssbsba(issf_api
Chunk
p3572
(dp3573
g3504
g167
sg28
I2
sg3555
g176
sg29
I0
sg3495
(lp3574
I6
aI7
asg34
(issf_api
FeatureSet
p3575
(dp3576
g12
(dp3577
S'name'
p3578
g3534
sS'drel'
p3579
S'nmod:NP4'
p3580
ssbsba(issf_api
Chunk
p3581
(dp3582
g3504
g211
sg28
I3
sg3555
g224
sg29
I0
sg3495
(lp3583
I8
aI9
aI10
asg34
(issf_api
FeatureSet
p3584
(dp3585
g12
(dp3586
S'name'
p3587
g3528
sS'drel'
p3588
S'r6-k1:NP6'
p3589
ssbsba(issf_api
Chunk
p3590
(dp3591
g3504
g257
sg28
I4
sg3555
g268
sg29
I0
sg3495
(lp3592
I11
aI12
asg34
(issf_api
FeatureSet
p3593
(dp3594
g12
(dp3595
S'name'
p3596
g3509
sS'drel'
p3597
S'k7t:VGF'
p3598
ssbsba(issf_api
Chunk
p3599
(dp3600
g3504
g299
sg28
I5
sg3555
g304
sg29
I0
sg3495
(lp3601
I13
asg34
(issf_api
FeatureSet
p3602
(dp3603
g12
(dp3604
S'name'
p3605
g3512
sS'drel'
p3606
S'pof:VGF'
p3607
ssbsba(issf_api
Chunk
p3608
(dp3609
g3504
g318
sg28
I6
sg3555
g327
sg29
I0
sg3495
(lp3610
I14
aI15
asg34
(issf_api
FeatureSet
p3611
(dp3612
g12
(dp3613
S'name'
p3614
g3499
ssbsba(issf_api
Chunk
p3615
(dp3616
g3504
g358
sg28
I7
sg3555
g363
sg29
I0
sg3495
(lp3617
I16
asg34
(issf_api
FeatureSet
p3618
(dp3619
g12
(dp3620
S'name'
p3621
g3510
sS'drel'
p3622
S'rsym:VGF'
p3623
ssbsbasba(issf_api
Sentence
p3624
(dp3625
g3493
(lp3626
sg29
I1
sg3495
(lp3627
I17
aI18
aI19
aI20
aI21
aI22
asg3497
(dp3628
S'NP'
p3629
(issf_api
Node
p3630
(dp3631
g3502
S'k1'
p3632
sg3504
g3629
sg3505
S'VGF'
p3633
sg3506
I-1
sg28
I0
sg3507
(lp3634
sbsS'VGF'
p3635
(issf_api
Node
p3636
(dp3637
g3502
g3503
sg3504
g3635
sg3505
g3503
sg3506
I-1
sg28
I2
sg3507
(lp3638
g3629
aS'NULL__NP'
p3639
aS'BLK'
p3640
asbsg3639
(issf_api
Node
p3641
(dp3642
g3502
S'k1s'
p3643
sg3504
g3639
sg3505
S'VGF'
p3644
sg3506
I-1
sg28
I-1
sg3507
(lp3645
S'NP2'
p3646
asbsg3640
(issf_api
Node
p3647
(dp3648
g3502
S'rsym'
p3649
sg3504
g3640
sg3505
S'VGF'
p3650
sg3506
I-1
sg28
I3
sg3507
(lp3651
sbsg3646
(issf_api
Node
p3652
(dp3653
g3502
S'r6'
p3654
sg3504
g3646
sg3505
S'NULL__NP'
p3655
sg3506
I-1
sg28
I1
sg3507
(lp3656
sbssg3551
(lp3657
(issf_api
Chunk
p3658
(dp3659
g3504
g379
sg28
I0
sg3555
g388
sg29
I1
sg3495
(lp3660
I17
asg34
(issf_api
FeatureSet
p3661
(dp3662
g12
(dp3663
S'name'
p3664
g3629
sS'drel'
p3665
S'k1:VGF'
p3666
ssbsba(issf_api
Chunk
p3667
(dp3668
g3504
g419
sg28
I1
sg3555
g426
sg29
I1
sg3495
(lp3669
I18
aI19
aI20
asg34
(issf_api
FeatureSet
p3670
(dp3671
g12
(dp3672
S'name'
p3673
g3646
sS'drel'
p3674
S'r6:NULL__NP'
p3675
ssbsba(issf_api
Chunk
p3676
(dp3677
g3504
g457
sg28
I2
sg3555
g464
sg29
I1
sg3495
(lp3678
I21
asg34
(issf_api
FeatureSet
p3679
(dp3680
g12
(dp3681
S'name'
p3682
g3635
ssbsba(issf_api
Chunk
p3683
(dp3684
g3504
g477
sg28
I3
sg3555
g482
sg29
I1
sg3495
(lp3685
I22
asg34
(issf_api
FeatureSet
p3686
(dp3687
g12
(dp3688
S'name'
p3689
g3640
sS'drel'
p3690
S'rsym:VGF'
p3691
ssbsbasba(issf_api
Sentence
p3692
(dp3693
g3493
(lp3694
sg29
I2
sg3495
(lp3695
I23
aI24
aI25
aI26
aI27
aI28
aI29
aI30
aI31
aI32
aI33
aI34
aI35
aI36
aI37
aI38
aI39
asg3497
(dp3696
S'VGF'
p3697
(issf_api
Node
p3698
(dp3699
g3502
g3503
sg3504
g3697
sg3505
g3503
sg3506
I-1
sg28
I8
sg3507
(lp3700
S'NP5'
p3701
aS'BLK'
p3702
aS'NP'
p3703
aS'NP4'
p3704
aS'NP7'
p3705
aS'NP6'
p3706
asbsS'JJP'
p3707
(issf_api
Node
p3708
(dp3709
g3502
S'nmod'
p3710
sg3504
g3707
sg3505
S'NP4'
p3711
sg3506
I-1
sg28
I3
sg3507
(lp3712
S'NP3'
p3713
asbsg3701
(issf_api
Node
p3714
(dp3715
g3502
S'k7t'
p3716
sg3504
g3701
sg3505
S'VGF'
p3717
sg3506
I-1
sg28
I5
sg3507
(lp3718
sbsg3702
(issf_api
Node
p3719
(dp3720
g3502
S'rsym'
p3721
sg3504
g3702
sg3505
S'VGF'
p3722
sg3506
I-1
sg28
I9
sg3507
(lp3723
sbsg3703
(issf_api
Node
p3724
(dp3725
g3502
S'k1'
p3726
sg3504
g3703
sg3505
S'VGF'
p3727
sg3506
I-1
sg28
I0
sg3507
(lp3728
sbsg3704
(issf_api
Node
p3729
(dp3730
g3502
S'k7p'
p3731
sg3504
g3704
sg3505
S'VGF'
p3732
sg3506
I-1
sg28
I4
sg3507
(lp3733
g3707
asbsg3705
(issf_api
Node
p3734
(dp3735
g3502
S'pof'
p3736
sg3504
g3705
sg3505
S'VGF'
p3737
sg3506
I-1
sg28
I7
sg3507
(lp3738
sbsg3706
(issf_api
Node
p3739
(dp3740
g3502
S'k7t'
p3741
sg3504
g3706
sg3505
S'VGF'
p3742
sg3506
I-1
sg28
I6
sg3507
(lp3743
sbsg3713
(issf_api
Node
p3744
(dp3745
g3502
S'jjmod'
p3746
sg3504
g3713
sg3505
S'JJP'
p3747
sg3506
I-1
sg28
I2
sg3507
(lp3748
S'NP2'
p3749
asbsg3749
(issf_api
Node
p3750
(dp3751
g3502
S'r6'
p3752
sg3504
g3749
sg3505
S'NP3'
p3753
sg3506
I-1
sg28
I1
sg3507
(lp3754
sbssg3551
(lp3755
(issf_api
Chunk
p3756
(dp3757
g3504
g498
sg28
I0
sg3555
g507
sg29
I2
sg3495
(lp3758
I23
asg34
(issf_api
FeatureSet
p3759
(dp3760
g12
(dp3761
S'name'
p3762
g3703
sS'drel'
p3763
S'k1:VGF'
p3764
ssbsba(issf_api
Chunk
p3765
(dp3766
g3504
g542
sg28
I1
sg3555
g553
sg29
I2
sg3495
(lp3767
I24
aI25
aI26
asg34
(issf_api
FeatureSet
p3768
(dp3769
g12
(dp3770
S'name'
p3771
g3749
sS'drel'
p3772
S'r6:NP3'
p3773
ssbsba(issf_api
Chunk
p3774
(dp3775
g3504
g584
sg28
I2
sg3555
g589
sg29
I2
sg3495
(lp3776
I27
asg34
(issf_api
FeatureSet
p3777
(dp3778
g12
(dp3779
S'name'
p3780
g3713
sS'drel'
p3781
S'jjmod:JJP'
p3782
ssbsba(issf_api
Chunk
p3783
(dp3784
g3504
g603
sg28
I3
sg3555
g608
sg29
I2
sg3495
(lp3785
I28
asg34
(issf_api
FeatureSet
p3786
(dp3787
g12
(dp3788
S'name'
p3789
g3707
sS'drel'
p3790
S'nmod:NP4'
p3791
ssbsba(issf_api
Chunk
p3792
(dp3793
g3504
g622
sg28
I4
sg3555
g629
sg29
I2
sg3495
(lp3794
I29
aI30
asg34
(issf_api
FeatureSet
p3795
(dp3796
g12
(dp3797
S'name'
p3798
g3704
sS'drel'
p3799
S'k7p:VGF'
p3800
ssbsba(issf_api
Chunk
p3801
(dp3802
g3504
g660
sg28
I5
sg3555
g667
sg29
I2
sg3495
(lp3803
I31
aI32
asg34
(issf_api
FeatureSet
p3804
(dp3805
g12
(dp3806
S'name'
p3807
g3701
sS'drel'
p3808
S'k7t:VGF'
p3809
ssbsba(issf_api
Chunk
p3810
(dp3811
g3504
g732
sg28
I6
sg3555
g737
sg29
I2
sg3495
(lp3812
I33
aI34
aI35
asg34
(issf_api
FeatureSet
p3813
(dp3814
g12
(dp3815
S'name'
p3816
g3706
sS'drel'
p3817
S'k7t:VGF'
p3818
ssbsba(issf_api
Chunk
p3819
(dp3820
g3504
g768
sg28
I7
sg3555
g773
sg29
I2
sg3495
(lp3821
I36
aI37
asg34
(issf_api
FeatureSet
p3822
(dp3823
g12
(dp3824
S'name'
p3825
g3705
sS'drel'
p3826
S'pof:VGF'
p3827
ssbsba(issf_api
Chunk
p3828
(dp3829
g3504
g787
sg28
I8
sg3555
g794
sg29
I2
sg3495
(lp3830
I38
asg34
(issf_api
FeatureSet
p3831
(dp3832
g12
(dp3833
S'name'
p3834
g3697
ssbsba(issf_api
Chunk
p3835
(dp3836
g3504
g807
sg28
I9
sg3555
g812
sg29
I2
sg3495
(lp3837
I39
asg34
(issf_api
FeatureSet
p3838
(dp3839
g12
(dp3840
S'name'
p3841
g3702
sS'drel'
p3842
S'rsym:VGF'
p3843
ssbsbasba(issf_api
Sentence
p3844
(dp3845
g3493
(lp3846
sg29
I3
sg3495
(lp3847
I40
aI41
aI42
aI43
aI44
aI45
aI46
aI47
aI48
aI49
aI50
aI51
aI52
aI53
aI54
asg3497
(dp3848
S'VGNF'
p3849
(issf_api
Node
p3850
(dp3851
g3502
S'nmod__k1inv'
p3852
sg3504
g3849
sg3505
S'NP3'
p3853
sg3506
I-1
sg28
I2
sg3507
(lp3854
S'NP'
p3855
aS'NP2'
p3856
asbsS'VGF'
p3857
(issf_api
Node
p3858
(dp3859
g3502
g3503
sg3504
g3857
sg3505
g3503
sg3506
I-1
sg28
I6
sg3507
(lp3860
S'NP5'
p3861
aS'BLK'
p3862
aS'NP4'
p3863
aS'NP3'
p3864
asbsg3861
(issf_api
Node
p3865
(dp3866
g3502
S'k7p'
p3867
sg3504
g3861
sg3505
S'VGF'
p3868
sg3506
I-1
sg28
I5
sg3507
(lp3869
sbsg3862
(issf_api
Node
p3870
(dp3871
g3502
S'rsym'
p3872
sg3504
g3862
sg3505
S'VGF'
p3873
sg3506
I-1
sg28
I7
sg3507
(lp3874
sbsg3855
(issf_api
Node
p3875
(dp3876
g3502
S'k7t'
p3877
sg3504
g3855
sg3505
S'VGNF'
p3878
sg3506
I-1
sg28
I0
sg3507
(lp3879
sbsg3863
(issf_api
Node
p3880
(dp3881
g3502
S'k7t'
p3882
sg3504
g3863
sg3505
S'VGF'
p3883
sg3506
I-1
sg28
I4
sg3507
(lp3884
sbsg3864
(issf_api
Node
p3885
(dp3886
g3502
S'k1'
p3887
sg3504
g3864
sg3505
S'VGF'
p3888
sg3506
I-1
sg28
I3
sg3507
(lp3889
g3849
asbsg3856
(issf_api
Node
p3890
(dp3891
g3502
S'ras-k1'
p3892
sg3504
g3856
sg3505
S'VGNF'
p3893
sg3506
I-1
sg28
I1
sg3507
(lp3894
sbssg3551
(lp3895
(issf_api
Chunk
p3896
(dp3897
g3504
g826
sg28
I0
sg3555
g833
sg29
I3
sg3495
(lp3898
I40
aI41
asg34
(issf_api
FeatureSet
p3899
(dp3900
g12
(dp3901
S'name'
p3902
g3855
sS'drel'
p3903
S'k7t:VGNF'
p3904
ssbsba(issf_api
Chunk
p3905
(dp3906
g3504
g866
sg28
I1
sg3555
g877
sg29
I3
sg3495
(lp3907
I42
aI43
asg34
(issf_api
FeatureSet
p3908
(dp3909
g12
(dp3910
S'name'
p3911
g3856
sS'drel'
p3912
S'ras-k1:VGNF'
p3913
ssbsba(issf_api
Chunk
p3914
(dp3915
g3504
g908
sg28
I2
sg3555
g919
sg29
I3
sg3495
(lp3916
I44
aI45
asg34
(issf_api
FeatureSet
p3917
(dp3918
g12
(dp3919
S'name'
p3920
g3849
sS'drel'
p3921
S'nmod__k1inv:NP3'
p3922
ssbsba(issf_api
Chunk
p3923
(dp3924
g3504
g952
sg28
I3
sg3555
g961
sg29
I3
sg3495
(lp3925
I46
asg34
(issf_api
FeatureSet
p3926
(dp3927
g12
(dp3928
S'name'
p3929
g3864
sS'drel'
p3930
S'k1:VGF'
p3931
ssbsba(issf_api
Chunk
p3932
(dp3933
g3504
g992
sg28
I4
sg3555
g997
sg29
I3
sg3495
(lp3934
I47
aI48
aI49
asg34
(issf_api
FeatureSet
p3935
(dp3936
g12
(dp3937
S'name'
p3938
g3863
sS'drel'
p3939
S'k7t:VGF'
p3940
ssbsba(issf_api
Chunk
p3941
(dp3942
g3504
g1030
sg28
I5
sg3555
g1041
sg29
I3
sg3495
(lp3943
I50
aI51
aI52
asg34
(issf_api
FeatureSet
p3944
(dp3945
g12
(dp3946
S'name'
p3947
g3861
sS'drel'
p3948
S'k7p:VGF'
p3949
ssbsba(issf_api
Chunk
p3950
(dp3951
g3504
g1089
sg28
I6
sg3555
g1096
sg29
I3
sg3495
(lp3952
I53
asg34
(issf_api
FeatureSet
p3953
(dp3954
g12
(dp3955
S'name'
p3956
g3857
ssbsba(issf_api
Chunk
p3957
(dp3958
g3504
g1109
sg28
I7
sg3555
g1114
sg29
I3
sg3495
(lp3959
I54
asg34
(issf_api
FeatureSet
p3960
(dp3961
g12
(dp3962
S'name'
p3963
g3862
sS'drel'
p3964
S'rsym:VGF'
p3965
ssbsbasba(issf_api
Sentence
p3966
(dp3967
g3493
(lp3968
sg29
I4
sg3495
(lp3969
I55
aI56
aI57
aI58
aI59
aI60
asg3497
(dp3970
S'NP'
p3971
(issf_api
Node
p3972
(dp3973
g3502
S'k1'
p3974
sg3504
g3971
sg3505
S'VGF'
p3975
sg3506
I-1
sg28
I0
sg3507
(lp3976
S'NP2'
p3977
asbsS'VGF'
p3978
(issf_api
Node
p3979
(dp3980
g3502
g3503
sg3504
g3978
sg3505
g3503
sg3506
I-1
sg28
I3
sg3507
(lp3981
g3971
aS'BLK'
p3982
aS'NP3'
p3983
asbsg3982
(issf_api
Node
p3984
(dp3985
g3502
S'rsym'
p3986
sg3504
g3982
sg3505
S'VGF'
p3987
sg3506
I-1
sg28
I4
sg3507
(lp3988
sbsg3983
(issf_api
Node
p3989
(dp3990
g3502
S'k1s'
p3991
sg3504
g3983
sg3505
S'VGF'
p3992
sg3506
I-1
sg28
I2
sg3507
(lp3993
sbsg3977
(issf_api
Node
p3994
(dp3995
g3502
S'nmod__emph'
p3996
sg3504
g3977
sg3505
S'NP'
p3997
sg3506
I-1
sg28
I1
sg3507
(lp3998
sbssg3551
(lp3999
(issf_api
Chunk
p4000
(dp4001
g3504
g1130
sg28
I0
sg3555
g1139
sg29
I4
sg3495
(lp4002
I55
asg34
(issf_api
FeatureSet
p4003
(dp4004
g12
(dp4005
S'name'
p4006
g3971
sS'drel'
p4007
S'k1:VGF'
p4008
ssbsba(issf_api
Chunk
p4009
(dp4010
g3504
g1155
sg28
I1
sg3555
g1164
sg29
I4
sg3495
(lp4011
I56
aI57
asg34
(issf_api
FeatureSet
p4012
(dp4013
g12
(dp4014
S'name'
p4015
g3977
sS'drel'
p4016
S'nmod__emph:NP'
p4017
ssbsba(issf_api
Chunk
p4018
(dp4019
g3504
g1195
sg28
I2
sg3555
g1200
sg29
I4
sg3495
(lp4020
I58
asg34
(issf_api
FeatureSet
p4021
(dp4022
g12
(dp4023
S'name'
p4024
g3983
sS'drel'
p4025
S'k1s:VGF'
p4026
ssbsba(issf_api
Chunk
p4027
(dp4028
g3504
g1214
sg28
I3
sg3555
g1221
sg29
I4
sg3495
(lp4029
I59
asg34
(issf_api
FeatureSet
p4030
(dp4031
g12
(dp4032
S'name'
p4033
g3978
ssbsba(issf_api
Chunk
p4034
(dp4035
g3504
g1234
sg28
I4
sg3555
g1239
sg29
I4
sg3495
(lp4036
I60
asg34
(issf_api
FeatureSet
p4037
(dp4038
g12
(dp4039
S'name'
p4040
g3982
sS'drel'
p4041
S'rsym:VGF'
p4042
ssbsbasba(issf_api
Sentence
p4043
(dp4044
g3493
(lp4045
sg29
I5
sg3495
(lp4046
I61
aI62
aI63
aI64
aI65
aI66
aI67
aI68
aI69
aI70
asg3497
(dp4047
S'NP'
p4048
(issf_api
Node
p4049
(dp4050
g3502
S'r6'
p4051
sg3504
g4048
sg3505
S'NP2'
p4052
sg3506
I-1
sg28
I0
sg3507
(lp4053
sbsS'VGF'
p4054
(issf_api
Node
p4055
(dp4056
g3502
g3503
sg3504
g4054
sg3505
g3503
sg3506
I-1
sg28
I3
sg3507
(lp4057
S'BLK'
p4058
aS'NP3'
p4059
aS'NP2'
p4060
asbsg4058
(issf_api
Node
p4061
(dp4062
g3502
S'rsym'
p4063
sg3504
g4058
sg3505
S'VGF'
p4064
sg3506
I-1
sg28
I4
sg3507
(lp4065
sbsg4059
(issf_api
Node
p4066
(dp4067
g3502
S'k1'
p4068
sg3504
g4059
sg3505
S'VGF'
p4069
sg3506
I-1
sg28
I2
sg3507
(lp4070
sbsg4060
(issf_api
Node
p4071
(dp4072
g3502
S'k7'
p4073
sg3504
g4060
sg3505
S'VGF'
p4074
sg3506
I-1
sg28
I1
sg3507
(lp4075
g4048
asbssg3551
(lp4076
(issf_api
Chunk
p4077
(dp4078
g3504
g1274
sg28
I0
sg3555
g1285
sg29
I5
sg3495
(lp4079
I61
aI62
aI63
asg34
(issf_api
FeatureSet
p4080
(dp4081
g12
(dp4082
S'name'
p4083
g4048
sS'drel'
p4084
S'r6:NP2'
p4085
ssbsba(issf_api
Chunk
p4086
(dp4087
g3504
g1316
sg28
I1
sg3555
g1323
sg29
I5
sg3495
(lp4088
I64
aI65
asg34
(issf_api
FeatureSet
p4089
(dp4090
g12
(dp4091
S'name'
p4092
g4060
sS'drel'
p4093
S'k7:VGF'
p4094
ssbsba(issf_api
Chunk
p4095
(dp4096
g3504
g1371
sg28
I2
sg3555
g1376
sg29
I5
sg3495
(lp4097
I66
aI67
aI68
asg34
(issf_api
FeatureSet
p4098
(dp4099
g12
(dp4100
S'name'
p4101
g4059
sS'drel'
p4102
S'k1:VGF'
p4103
ssbsba(issf_api
Chunk
p4104
(dp4105
g3504
g1407
sg28
I3
sg3555
g1414
sg29
I5
sg3495
(lp4106
I69
asg34
(issf_api
FeatureSet
p4107
(dp4108
g12
(dp4109
S'name'
p4110
g4054
ssbsba(issf_api
Chunk
p4111
(dp4112
g3504
g1427
sg28
I4
sg3555
g1432
sg29
I5
sg3495
(lp4113
I70
asg34
(issf_api
FeatureSet
p4114
(dp4115
g12
(dp4116
S'name'
p4117
g4058
sS'drel'
p4118
S'rsym:VGF'
p4119
ssbsbasba(issf_api
Sentence
p4120
(dp4121
g3493
(lp4122
sg29
I6
sg3495
(lp4123
I71
aI72
aI73
aI74
aI75
aI76
aI77
aI78
aI79
aI80
aI81
aI82
aI83
aI84
aI85
aI86
aI87
aI88
aI89
aI90
asg3497
(dp4124
S'VGF'
p4125
(issf_api
Node
p4126
(dp4127
g3502
g3503
sg3504
g4125
sg3505
g3503
sg3506
I-1
sg28
I1
sg3507
(lp4128
S'CCP'
p4129
aS'BLK'
p4130
aS'NP'
p4131
asbsg4129
(issf_api
Node
p4132
(dp4133
g3502
S'k2'
p4134
sg3504
g4129
sg3505
S'VGF'
p4135
sg3506
I-1
sg28
I2
sg3507
(lp4136
S'VGF2'
p4137
asbsg4137
(issf_api
Node
p4138
(dp4139
g3502
S'ccof'
p4140
sg3504
g4137
sg3505
S'CCP'
p4141
sg3506
I-1
sg28
I8
sg3507
(lp4142
S'NP4'
p4143
aS'NP6'
p4144
aS'NP3'
p4145
aS'NP2'
p4146
asbsS'NP5'
p4147
(issf_api
Node
p4148
(dp4149
g3502
S'r6-k2'
p4150
sg3504
g4147
sg3505
S'NP6'
p4151
sg3506
I-1
sg28
I6
sg3507
(lp4152
sbsg4130
(issf_api
Node
p4153
(dp4154
g3502
S'rsym'
p4155
sg3504
g4130
sg3505
S'VGF'
p4156
sg3506
I-1
sg28
I9
sg3507
(lp4157
sbsg4131
(issf_api
Node
p4158
(dp4159
g3502
S'k1'
p4160
sg3504
g4131
sg3505
S'VGF'
p4161
sg3506
I-1
sg28
I0
sg3507
(lp4162
sbsg4143
(issf_api
Node
p4163
(dp4164
g3502
S'k7t'
p4165
sg3504
g4143
sg3505
S'VGF2'
p4166
sg3506
I-1
sg28
I5
sg3507
(lp4167
sbsg4144
(issf_api
Node
p4168
(dp4169
g3502
S'pof'
p4170
sg3504
g4144
sg3505
S'VGF2'
p4171
sg3506
I-1
sg28
I7
sg3507
(lp4172
g4147
asbsg4145
(issf_api
Node
p4173
(dp4174
g3502
S'k7t'
p4175
sg3504
g4145
sg3505
S'VGF2'
p4176
sg3506
I-1
sg28
I4
sg3507
(lp4177
sbsg4146
(issf_api
Node
p4178
(dp4179
g3502
S'k7p'
p4180
sg3504
g4146
sg3505
S'VGF2'
p4181
sg3506
I-1
sg28
I3
sg3507
(lp4182
sbssg3551
(lp4183
(issf_api
Chunk
p4184
(dp4185
g3504
g1463
sg28
I0
sg3555
g1470
sg29
I6
sg3495
(lp4186
I71
aI72
aI73
asg34
(issf_api
FeatureSet
p4187
(dp4188
g12
(dp4189
S'name'
p4190
g4131
sS'drel'
p4191
S'k1:VGF'
p4192
ssbsba(issf_api
Chunk
p4193
(dp4194
g3504
g1501
sg28
I1
sg3555
g1508
sg29
I6
sg3495
(lp4195
I74
asg34
(issf_api
FeatureSet
p4196
(dp4197
g12
(dp4198
S'name'
p4199
g4125
ssbsba(issf_api
Chunk
p4200
(dp4201
g3504
g1522
sg28
I2
sg3555
g1527
sg29
I6
sg3495
(lp4202
I75
asg34
(issf_api
FeatureSet
p4203
(dp4204
g12
(dp4205
S'name'
p4206
g4129
sS'drel'
p4207
S'k2:VGF'
p4208
ssbsba(issf_api
Chunk
p4209
(dp4210
g3504
g1562
sg28
I3
sg3555
g1573
sg29
I6
sg3495
(lp4211
I76
aI77
aI78
asg34
(issf_api
FeatureSet
p4212
(dp4213
g12
(dp4214
S'name'
p4215
g4146
sS'drel'
p4216
S'k7p:VGF2'
p4217
ssbsba(issf_api
Chunk
p4218
(dp4219
g3504
g1606
sg28
I4
sg3555
g1617
sg29
I6
sg3495
(lp4220
I79
aI80
aI81
asg34
(issf_api
FeatureSet
p4221
(dp4222
g12
(dp4223
S'name'
p4224
g4145
sS'drel'
p4225
S'k7t:VGF2'
p4226
ssbsba(issf_api
Chunk
p4227
(dp4228
g3504
g1665
sg28
I5
sg3555
g1670
sg29
I6
sg3495
(lp4229
I82
asg34
(issf_api
FeatureSet
p4230
(dp4231
g12
(dp4232
S'name'
p4233
g4143
sS'drel'
p4234
S'k7t:VGF2'
p4235
ssbsba(issf_api
Chunk
p4236
(dp4237
g3504
g1686
sg28
I6
sg3555
g1695
sg29
I6
sg3495
(lp4238
I83
asg34
(issf_api
FeatureSet
p4239
(dp4240
g12
(dp4241
S'name'
p4242
g4147
sS'drel'
p4243
S'r6-k2:NP6'
p4244
ssbsba(issf_api
Chunk
p4245
(dp4246
g3504
g1726
sg28
I7
sg3555
g1731
sg29
I6
sg3495
(lp4247
I84
aI85
aI86
asg34
(issf_api
FeatureSet
p4248
(dp4249
g12
(dp4250
S'name'
p4251
g4144
sS'drel'
p4252
S'pof:VGF2'
p4253
ssbsba(issf_api
Chunk
p4254
(dp4255
g3504
g1762
sg28
I8
sg3555
g1773
sg29
I6
sg3495
(lp4256
I87
aI88
aI89
asg34
(issf_api
FeatureSet
p4257
(dp4258
g12
(dp4259
S'name'
p4260
g4137
sS'drel'
p4261
S'ccof:CCP'
p4262
ssbsba(issf_api
Chunk
p4263
(dp4264
g3504
g1820
sg28
I9
sg3555
g1825
sg29
I6
sg3495
(lp4265
I90
asg34
(issf_api
FeatureSet
p4266
(dp4267
g12
(dp4268
S'name'
p4269
g4130
sS'drel'
p4270
S'rsym:VGF'
p4271
ssbsbasba(issf_api
Sentence
p4272
(dp4273
g3493
(lp4274
sg29
I7
sg3495
(lp4275
I91
aI92
aI93
aI94
aI95
aI96
aI97
aI98
aI99
aI100
aI101
aI102
aI103
aI104
aI105
aI106
aI107
aI108
aI109
aI110
aI111
aI112
aI113
aI114
aI115
aI116
asg3497
(dp4276
S'VGF2'
p4277
(issf_api
Node
p4278
(dp4279
g3502
S'ccof'
p4280
sg3504
g4277
sg3505
S'CCP'
p4281
sg3506
I-1
sg28
I12
sg3507
(lp4282
S'NP5'
p4283
aS'NP8'
p4284
aS'NP7'
p4285
asbsS'VGF'
p4286
(issf_api
Node
p4287
(dp4288
g3502
S'ccof'
p4289
sg3504
g4286
sg3505
S'CCP'
p4290
sg3506
I-1
sg28
I6
sg3507
(lp4291
S'NP4'
p4292
aS'NP2'
p4293
asbsS'CCP'
p4294
(issf_api
Node
p4295
(dp4296
g3502
g3503
sg3504
g4294
sg3505
g3503
sg3506
I-1
sg28
I7
sg3507
(lp4297
g4277
ag4286
aS'BLK'
p4298
asbsS'JJP'
p4299
(issf_api
Node
p4300
(dp4301
g3502
S'nmod'
p4302
sg3504
g4299
sg3505
S'NP2'
p4303
sg3506
I-1
sg28
I1
sg3507
(lp4304
S'NP'
p4305
asbsg4283
(issf_api
Node
p4306
(dp4307
g3502
S'k4'
p4308
sg3504
g4283
sg3505
S'VGF2'
p4309
sg3506
I-1
sg28
I8
sg3507
(lp4310
sbsS'JJP2'
p4311
(issf_api
Node
p4312
(dp4313
g3502
S'nmod'
p4314
sg3504
g4311
sg3505
S'NP4'
p4315
sg3506
I-1
sg28
I4
sg3507
(lp4316
S'NP3'
p4317
asbsg4284
(issf_api
Node
p4318
(dp4319
g3502
S'pof'
p4320
sg3504
g4284
sg3505
S'VGF2'
p4321
sg3506
I-1
sg28
I11
sg3507
(lp4322
sbsg4298
(issf_api
Node
p4323
(dp4324
g3502
S'rsym'
p4325
sg3504
g4298
sg3505
S'CCP'
p4326
sg3506
I-1
sg28
I13
sg3507
(lp4327
sbsg4305
(issf_api
Node
p4328
(dp4329
g3502
S'jjmod'
p4330
sg3504
g4305
sg3505
S'JJP'
p4331
sg3506
I-1
sg28
I0
sg3507
(lp4332
sbsg4292
(issf_api
Node
p4333
(dp4334
g3502
S'k2'
p4335
sg3504
g4292
sg3505
S'VGF'
p4336
sg3506
I-1
sg28
I5
sg3507
(lp4337
g4311
asbsg4285
(issf_api
Node
p4338
(dp4339
g3502
S'rt'
p4340
sg3504
g4285
sg3505
S'VGF2'
p4341
sg3506
I-1
sg28
I10
sg3507
(lp4342
S'NP6'
p4343
asbsg4343
(issf_api
Node
p4344
(dp4345
g3502
S'r6'
p4346
sg3504
g4343
sg3505
S'NP7'
p4347
sg3506
I-1
sg28
I9
sg3507
(lp4348
sbsg4317
(issf_api
Node
p4349
(dp4350
g3502
S'jjmod'
p4351
sg3504
g4317
sg3505
S'JJP2'
p4352
sg3506
I-1
sg28
I3
sg3507
(lp4353
sbsg4293
(issf_api
Node
p4354
(dp4355
g3502
S'k1'
p4356
sg3504
g4293
sg3505
S'VGF'
p4357
sg3506
I-1
sg28
I2
sg3507
(lp4358
g4299
asbssg3551
(lp4359
(issf_api
Chunk
p4360
(dp4361
g3504
g1856
sg28
I0
sg3555
g1863
sg29
I7
sg3495
(lp4362
I91
aI92
aI93
asg34
(issf_api
FeatureSet
p4363
(dp4364
g12
(dp4365
S'name'
p4366
g4305
sS'drel'
p4367
S'jjmod:JJP'
p4368
ssbsba(issf_api
Chunk
p4369
(dp4370
g3504
g1894
sg28
I1
sg3555
g1899
sg29
I7
sg3495
(lp4371
I94
asg34
(issf_api
FeatureSet
p4372
(dp4373
g12
(dp4374
S'name'
p4375
g4299
sS'drel'
p4376
S'nmod:NP2'
p4377
ssbsba(issf_api
Chunk
p4378
(dp4379
g3504
g1934
sg28
I2
sg3555
g1945
sg29
I7
sg3495
(lp4380
I95
aI96
aI97
asg34
(issf_api
FeatureSet
p4381
(dp4382
g12
(dp4383
S'name'
p4384
g4293
sS'drel'
p4385
S'k1:VGF'
p4386
ssbsba(issf_api
Chunk
p4387
(dp4388
g3504
g1976
sg28
I3
sg3555
g1983
sg29
I7
sg3495
(lp4389
I98
aI99
asg34
(issf_api
FeatureSet
p4390
(dp4391
g12
(dp4392
S'name'
p4393
g4317
sS'drel'
p4394
S'jjmod:JJP2'
p4395
ssbsba(issf_api
Chunk
p4396
(dp4397
g3504
g2014
sg28
I4
sg3555
g2019
sg29
I7
sg3495
(lp4398
I100
asg34
(issf_api
FeatureSet
p4399
(dp4400
g12
(dp4401
S'name'
p4402
g4311
sS'drel'
p4403
S'nmod:NP4'
p4404
ssbsba(issf_api
Chunk
p4405
(dp4406
g3504
g2033
sg28
I5
sg3555
g2038
sg29
I7
sg3495
(lp4407
I101
asg34
(issf_api
FeatureSet
p4408
(dp4409
g12
(dp4410
S'name'
p4411
g4292
sS'drel'
p4412
S'k2:VGF'
p4413
ssbsba(issf_api
Chunk
p4414
(dp4415
g3504
g2052
sg28
I6
sg3555
g2063
sg29
I7
sg3495
(lp4416
I102
aI103
asg34
(issf_api
FeatureSet
p4417
(dp4418
g12
(dp4419
S'name'
p4420
g4286
sS'drel'
p4421
S'ccof:CCP'
p4422
ssbsba(issf_api
Chunk
p4423
(dp4424
g3504
g2090
sg28
I7
sg3555
g2097
sg29
I7
sg3495
(lp4425
I104
asg34
(issf_api
FeatureSet
p4426
(dp4427
g12
(dp4428
S'name'
p4429
g4294
ssbsba(issf_api
Chunk
p4430
(dp4431
g3504
g2113
sg28
I8
sg3555
g2122
sg29
I7
sg3495
(lp4432
I105
asg34
(issf_api
FeatureSet
p4433
(dp4434
g12
(dp4435
S'name'
p4436
g4283
sS'drel'
p4437
S'k4:VGF2'
p4438
ssbsba(issf_api
Chunk
p4439
(dp4440
g3504
g2138
sg28
I9
sg3555
g2147
sg29
I7
sg3495
(lp4441
I106
asg34
(issf_api
FeatureSet
p4442
(dp4443
g12
(dp4444
S'name'
p4445
g4343
sS'drel'
p4446
S'r6:NP7'
p4447
ssbsba(issf_api
Chunk
p4448
(dp4449
g3504
g2178
sg28
I10
sg3555
g2185
sg29
I7
sg3495
(lp4450
I107
aI108
aI109
aI110
asg34
(issf_api
FeatureSet
p4451
(dp4452
g12
(dp4453
S'name'
p4454
g4285
sS'drel'
p4455
S'rt:VGF2'
p4456
ssbsba(issf_api
Chunk
p4457
(dp4458
g3504
g2250
sg28
I11
sg3555
g2255
sg29
I7
sg3495
(lp4459
I111
aI112
asg34
(issf_api
FeatureSet
p4460
(dp4461
g12
(dp4462
S'name'
p4463
g4284
sS'drel'
p4464
S'pof:VGF2'
p4465
ssbsba(issf_api
Chunk
p4466
(dp4467
g3504
g2269
sg28
I12
sg3555
g2280
sg29
I7
sg3495
(lp4468
I113
aI114
aI115
asg34
(issf_api
FeatureSet
p4469
(dp4470
g12
(dp4471
S'name'
p4472
g4277
sS'drel'
p4473
S'ccof:CCP'
p4474
ssbsba(issf_api
Chunk
p4475
(dp4476
g3504
g2327
sg28
I13
sg3555
g2332
sg29
I7
sg3495
(lp4477
I116
asg34
(issf_api
FeatureSet
p4478
(dp4479
g12
(dp4480
S'name'
p4481
g4298
sS'drel'
p4482
S'rsym:CCP'
p4483
ssbsbasba(issf_api
Sentence
p4484
(dp4485
g3493
(lp4486
sg29
I8
sg3495
(lp4487
I117
aI118
aI119
aI120
aI121
aI122
aI123
aI124
aI125
aI126
aI127
aI128
asg3497
(dp4488
S'VGF'
p4489
(issf_api
Node
p4490
(dp4491
g3502
g3503
sg3504
g4489
sg3505
g3503
sg3506
I-1
sg28
I4
sg3507
(lp4492
S'BLK'
p4493
aS'NP'
p4494
aS'NP4'
p4495
asbsg4493
(issf_api
Node
p4496
(dp4497
g3502
S'rsym'
p4498
sg3504
g4493
sg3505
S'VGF'
p4499
sg3506
I-1
sg28
I5
sg3507
(lp4500
sbsg4494
(issf_api
Node
p4501
(dp4502
g3502
S'k7'
p4503
sg3504
g4494
sg3505
S'VGF'
p4504
sg3506
I-1
sg28
I0
sg3507
(lp4505
sbsg4495
(issf_api
Node
p4506
(dp4507
g3502
S'pof'
p4508
sg3504
g4495
sg3505
S'VGF'
p4509
sg3506
I-1
sg28
I3
sg3507
(lp4510
S'NP3'
p4511
asbsg4511
(issf_api
Node
p4512
(dp4513
g3502
S'r6-k1'
p4514
sg3504
g4511
sg3505
S'NP4'
p4515
sg3506
I-1
sg28
I2
sg3507
(lp4516
S'NP2'
p4517
asbsg4517
(issf_api
Node
p4518
(dp4519
g3502
S'r6'
p4520
sg3504
g4517
sg3505
S'NP3'
p4521
sg3506
I-1
sg28
I1
sg3507
(lp4522
sbssg3551
(lp4523
(issf_api
Chunk
p4524
(dp4525
g3504
g2380
sg28
I0
sg3555
g2387
sg29
I8
sg3495
(lp4526
I117
aI118
aI119
aI120
asg34
(issf_api
FeatureSet
p4527
(dp4528
g12
(dp4529
S'name'
p4530
g4494
sS'drel'
p4531
S'k7:VGF'
p4532
ssbsba(issf_api
Chunk
p4533
(dp4534
g3504
g2420
sg28
I1
sg3555
g2429
sg29
I8
sg3495
(lp4535
I121
asg34
(issf_api
FeatureSet
p4536
(dp4537
g12
(dp4538
S'name'
p4539
g4517
sS'drel'
p4540
S'r6:NP3'
p4541
ssbsba(issf_api
Chunk
p4542
(dp4543
g3504
g2443
sg28
I2
sg3555
g2450
sg29
I8
sg3495
(lp4544
I122
aI123
asg34
(issf_api
FeatureSet
p4545
(dp4546
g12
(dp4547
S'name'
p4548
g4511
sS'drel'
p4549
S'r6-k1:NP4'
p4550
ssbsba(issf_api
Chunk
p4551
(dp4552
g3504
g2481
sg28
I3
sg3555
g2486
sg29
I8
sg3495
(lp4553
I124
asg34
(issf_api
FeatureSet
p4554
(dp4555
g12
(dp4556
S'name'
p4557
g4495
sS'drel'
p4558
S'pof:VGF'
p4559
ssbsba(issf_api
Chunk
p4560
(dp4561
g3504
g2500
sg28
I4
sg3555
g2509
sg29
I8
sg3495
(lp4562
I125
aI126
aI127
asg34
(issf_api
FeatureSet
p4563
(dp4564
g12
(dp4565
S'name'
p4566
g4489
ssbsba(issf_api
Chunk
p4567
(dp4568
g3504
g2556
sg28
I5
sg3555
g2561
sg29
I8
sg3495
(lp4569
I128
asg34
(issf_api
FeatureSet
p4570
(dp4571
g12
(dp4572
S'name'
p4573
g4493
sS'drel'
p4574
S'rsym:VGF'
p4575
ssbsbasba(issf_api
Sentence
p4576
(dp4577
g3493
(lp4578
sg29
I9
sg3495
(lp4579
I129
aI130
aI131
aI132
aI133
aI134
aI135
aI136
aI137
aI138
aI139
aI140
aI141
aI142
aI143
aI144
aI145
aI146
aI147
aI148
asg3497
(dp4580
S'VGNF'
p4581
(issf_api
Node
p4582
(dp4583
g3502
S'nmod'
p4584
sg3504
g4581
sg3505
S'NP3'
p4585
sg3506
I-1
sg28
I3
sg3507
(lp4586
S'JJP'
p4587
aS'NP'
p4588
aS'NP2'
p4589
asbsS'VGF'
p4590
(issf_api
Node
p4591
(dp4592
g3502
g3503
sg3504
g4590
sg3505
g3503
sg3506
I-1
sg28
I6
sg3507
(lp4593
S'BLK'
p4594
aS'NP4'
p4595
aS'NP3'
p4596
asbsg4587
(issf_api
Node
p4597
(dp4598
g3502
S'pof'
p4599
sg3504
g4587
sg3505
S'VGNF'
p4600
sg3506
I-1
sg28
I2
sg3507
(lp4601
sbsg4594
(issf_api
Node
p4602
(dp4603
g3502
S'rsym'
p4604
sg3504
g4594
sg3505
S'VGF'
p4605
sg3506
I-1
sg28
I7
sg3507
(lp4606
sbsg4588
(issf_api
Node
p4607
(dp4608
g3502
S'k7p'
p4609
sg3504
g4588
sg3505
S'VGNF'
p4610
sg3506
I-1
sg28
I0
sg3507
(lp4611
sbsg4595
(issf_api
Node
p4612
(dp4613
g3502
S'k1'
p4614
sg3504
g4595
sg3505
S'VGF'
p4615
sg3506
I-1
sg28
I5
sg3507
(lp4616
sbsg4596
(issf_api
Node
p4617
(dp4618
g3502
S'k4'
p4619
sg3504
g4596
sg3505
S'VGF'
p4620
sg3506
I-1
sg28
I4
sg3507
(lp4621
g4581
asbsg4589
(issf_api
Node
p4622
(dp4623
g3502
S'k7t'
p4624
sg3504
g4589
sg3505
S'VGNF'
p4625
sg3506
I-1
sg28
I1
sg3507
(lp4626
sbssg3551
(lp4627
(issf_api
Chunk
p4628
(dp4629
g3504
g2592
sg28
I0
sg3555
g2601
sg29
I9
sg3495
(lp4630
I129
aI130
aI131
asg34
(issf_api
FeatureSet
p4631
(dp4632
g12
(dp4633
S'name'
p4634
g4588
sS'drel'
p4635
S'k7p:VGNF'
p4636
ssbsba(issf_api
Chunk
p4637
(dp4638
g3504
g2666
sg28
I1
sg3555
g2673
sg29
I9
sg3495
(lp4639
I132
aI133
aI134
aI135
asg34
(issf_api
FeatureSet
p4640
(dp4641
g12
(dp4642
S'name'
p4643
g4589
sS'drel'
p4644
S'k7t:VGNF'
p4645
ssbsba(issf_api
Chunk
p4646
(dp4647
g3504
g2704
sg28
I2
sg3555
g2709
sg29
I9
sg3495
(lp4648
I136
asg34
(issf_api
FeatureSet
p4649
(dp4650
g12
(dp4651
S'name'
p4652
g4587
sS'drel'
p4653
S'pof:VGNF'
p4654
ssbsba(issf_api
Chunk
p4655
(dp4656
g3504
g2723
sg28
I3
sg3555
g2728
sg29
I9
sg3495
(lp4657
I137
asg34
(issf_api
FeatureSet
p4658
(dp4659
g12
(dp4660
S'name'
p4661
g4581
sS'drel'
p4662
S'nmod:NP3'
p4663
ssbsba(issf_api
Chunk
p4664
(dp4665
g3504
g2763
sg28
I4
sg3555
g2774
sg29
I9
sg3495
(lp4666
I138
aI139
aI140
asg34
(issf_api
FeatureSet
p4667
(dp4668
g12
(dp4669
S'name'
p4670
g4596
sS'drel'
p4671
S'k4:VGF'
p4672
ssbsba(issf_api
Chunk
p4673
(dp4674
g3504
g2839
sg28
I5
sg3555
g2844
sg29
I9
sg3495
(lp4675
I141
aI142
aI143
aI144
asg34
(issf_api
FeatureSet
p4676
(dp4677
g12
(dp4678
S'name'
p4679
g4595
sS'drel'
p4680
S'k1:VGF'
p4681
ssbsba(issf_api
Chunk
p4682
(dp4683
g3504
g2875
sg28
I6
sg3555
g2884
sg29
I9
sg3495
(lp4684
I145
aI146
aI147
asg34
(issf_api
FeatureSet
p4685
(dp4686
g12
(dp4687
S'name'
p4688
g4590
ssbsba(issf_api
Chunk
p4689
(dp4690
g3504
g2931
sg28
I7
sg3555
g2936
sg29
I9
sg3495
(lp4691
I148
asg34
(issf_api
FeatureSet
p4692
(dp4693
g12
(dp4694
S'name'
p4695
g4594
sS'drel'
p4696
S'rsym:VGF'
p4697
ssbsbasba(issf_api
Sentence
p4698
(dp4699
g3493
(lp4700
sg29
I10
sg3495
(lp4701
I149
aI150
aI151
aI152
aI153
aI154
aI155
aI156
aI157
aI158
aI159
aI160
aI161
aI162
aI163
aI164
aI165
asg3497
(dp4702
S'NULL__CCP'
p4703
(issf_api
Node
p4704
(dp4705
g3502
S'k1'
p4706
sg3504
g4703
sg3505
S'VGF'
p4707
sg3506
I-1
sg28
I-1
sg3507
(lp4708
S'NP5'
p4709
aS'NP4'
p4710
aS'NP3'
p4711
asbsS'VGF'
p4712
(issf_api
Node
p4713
(dp4714
g3502
g3503
sg3504
g4712
sg3505
g3503
sg3506
I-1
sg28
I5
sg3507
(lp4715
g4703
aS'BLK'
p4716
aS'NP2'
p4717
asbsg4709
(issf_api
Node
p4718
(dp4719
g3502
S'ccof'
p4720
sg3504
g4709
sg3505
S'NULL__CCP'
p4721
sg3506
I-1
sg28
I4
sg3507
(lp4722
sbsg4716
(issf_api
Node
p4723
(dp4724
g3502
S'rsym'
p4725
sg3504
g4716
sg3505
S'VGF'
p4726
sg3506
I-1
sg28
I6
sg3507
(lp4727
sbsS'NP'
p4728
(issf_api
Node
p4729
(dp4730
g3502
S'r6'
p4731
sg3504
g4728
sg3505
S'NP2'
p4732
sg3506
I-1
sg28
I0
sg3507
(lp4733
sbsg4710
(issf_api
Node
p4734
(dp4735
g3502
S'ccof'
p4736
sg3504
g4710
sg3505
S'NULL__CCP'
p4737
sg3506
I-1
sg28
I3
sg3507
(lp4738
sbsg4711
(issf_api
Node
p4739
(dp4740
g3502
S'ccof'
p4741
sg3504
g4711
sg3505
S'NULL__CCP'
p4742
sg3506
I-1
sg28
I2
sg3507
(lp4743
sbsg4717
(issf_api
Node
p4744
(dp4745
g3502
S'k7'
p4746
sg3504
g4717
sg3505
S'VGF'
p4747
sg3506
I-1
sg28
I1
sg3507
(lp4748
g4728
asbssg3551
(lp4749
(issf_api
Chunk
p4750
(dp4751
g3504
g2954
sg28
I0
sg3555
g2965
sg29
I10
sg3495
(lp4752
I149
asg34
(issf_api
FeatureSet
p4753
(dp4754
g12
(dp4755
S'name'
p4756
g4728
sS'drel'
p4757
S'r6:NP2'
p4758
ssbsba(issf_api
Chunk
p4759
(dp4760
g3504
g3000
sg28
I1
sg3555
g3011
sg29
I10
sg3495
(lp4761
I150
aI151
aI152
asg34
(issf_api
FeatureSet
p4762
(dp4763
g12
(dp4764
S'name'
p4765
g4717
sS'drel'
p4766
S'k7:VGF'
p4767
ssbsba(issf_api
Chunk
p4768
(dp4769
g3504
g3063
sg28
I2
sg3555
g3074
sg29
I10
sg3495
(lp4770
I153
aI154
aI155
asg34
(issf_api
FeatureSet
p4771
(dp4772
g12
(dp4773
S'name'
p4774
g4711
sS'drel'
p4775
S'ccof:NULL__CCP'
p4776
ssbsba(issf_api
Chunk
p4777
(dp4778
g3504
g3144
sg28
I3
sg3555
g3155
sg29
I10
sg3495
(lp4779
I156
aI157
aI158
aI159
asg34
(issf_api
FeatureSet
p4780
(dp4781
g12
(dp4782
S'name'
p4783
g4710
sS'drel'
p4784
S'ccof:NULL__CCP'
p4785
ssbsba(issf_api
Chunk
p4786
(dp4787
g3504
g3245
sg28
I4
sg3555
g3256
sg29
I10
sg3495
(lp4788
I160
aI161
aI162
aI163
asg34
(issf_api
FeatureSet
p4789
(dp4790
g12
(dp4791
S'name'
p4792
g4709
sS'drel'
p4793
S'ccof:NULL__CCP'
p4794
ssbsba(issf_api
Chunk
p4795
(dp4796
g3504
g3270
sg28
I5
sg3555
g3277
sg29
I10
sg3495
(lp4797
I164
asg34
(issf_api
FeatureSet
p4798
(dp4799
g12
(dp4800
S'name'
p4801
g4712
ssbsba(issf_api
Chunk
p4802
(dp4803
g3504
g3290
sg28
I6
sg3555
g3295
sg29
I10
sg3495
(lp4804
I165
asg34
(issf_api
FeatureSet
p4805
(dp4806
g12
(dp4807
S'name'
p4808
g4716
sS'drel'
p4809
S'rsym:VGF'
p4810
ssbsbasba(issf_api
Sentence
p4811
(dp4812
g3493
(lp4813
sg29
I11
sg3495
(lp4814
I166
aI167
aI168
aI169
aI170
aI171
aI172
aI173
aI174
asg3497
(dp4815
S'VGF'
p4816
(issf_api
Node
p4817
(dp4818
g3502
g3503
sg3504
g4816
sg3505
g3503
sg3506
I-1
sg28
I4
sg3507
(lp4819
S'RBP'
p4820
aS'BLK'
p4821
aS'NP'
p4822
aS'NP3'
p4823
asbsg4820
(issf_api
Node
p4824
(dp4825
g3502
S'sent-adv'
p4826
sg3504
g4820
sg3505
S'VGF'
p4827
sg3506
I-1
sg28
I0
sg3507
(lp4828
sbsg4821
(issf_api
Node
p4829
(dp4830
g3502
S'rsym'
p4831
sg3504
g4821
sg3505
S'VGF'
p4832
sg3506
I-1
sg28
I5
sg3507
(lp4833
sbsg4822
(issf_api
Node
p4834
(dp4835
g3502
S'k1'
p4836
sg3504
g4822
sg3505
S'VGF'
p4837
sg3506
I-1
sg28
I1
sg3507
(lp4838
sbsg4823
(issf_api
Node
p4839
(dp4840
g3502
S'k1s'
p4841
sg3504
g4823
sg3505
S'VGF'
p4842
sg3506
I-1
sg28
I3
sg3507
(lp4843
S'NP2'
p4844
asbsg4844
(issf_api
Node
p4845
(dp4846
g3502
S'r6'
p4847
sg3504
g4844
sg3505
S'NP3'
p4848
sg3506
I-1
sg28
I2
sg3507
(lp4849
sbssg3551
(lp4850
(issf_api
Chunk
p4851
(dp4852
g3504
g3309
sg28
I0
sg3555
g3314
sg29
I11
sg3495
(lp4853
I166
aI167
asg34
(issf_api
FeatureSet
p4854
(dp4855
g12
(dp4856
S'name'
p4857
g4820
sS'drel'
p4858
S'sent-adv:VGF'
p4859
ssbsba(issf_api
Chunk
p4860
(dp4861
g3504
g3365
sg28
I1
sg3555
g3374
sg29
I11
sg3495
(lp4862
I168
aI169
asg34
(issf_api
FeatureSet
p4863
(dp4864
g12
(dp4865
S'name'
p4866
g4822
sS'drel'
p4867
S'k1:VGF'
p4868
ssbsba(issf_api
Chunk
p4869
(dp4870
g3504
g3392
sg28
I2
sg3555
g3403
sg29
I11
sg3495
(lp4871
I170
asg34
(issf_api
FeatureSet
p4872
(dp4873
g12
(dp4874
S'name'
p4875
g4844
sS'drel'
p4876
S'r6:NP3'
p4877
ssbsba(issf_api
Chunk
p4878
(dp4879
g3504
g3438
sg28
I3
sg3555
g3449
sg29
I11
sg3495
(lp4880
I171
aI172
asg34
(issf_api
FeatureSet
p4881
(dp4882
g12
(dp4883
S'name'
p4884
g4823
sS'drel'
p4885
S'k1s:VGF'
p4886
ssbsba(issf_api
Chunk
p4887
(dp4888
g3504
g3463
sg28
I4
sg3555
g3470
sg29
I11
sg3495
(lp4889
I173
asg34
(issf_api
FeatureSet
p4890
(dp4891
g12
(dp4892
S'name'
p4893
g4816
ssbsba(issf_api
Chunk
p4894
(dp4895
g3504
g3483
sg28
I5
sg3555
g3488
sg29
I11
sg3495
(lp4896
I174
asg34
(issf_api
FeatureSet
p4897
(dp4898
g12
(dp4899
S'name'
p4900
g4821
sS'drel'
p4901
S'rsym:VGF'
p4902
ssbsbasbasb.