(issf_api
SSFInfo
p0
(dp1
S'globalWordList'
p2
(lp3
(issf_api
Word
p4
(dp5
S'splitConn'
p6
I00
sS'word'
p7
V\u092a\u0947\u091f\u094d\u0930\u094b\u0932\u093f\u092f\u092e
p8
sS'extraFeatureSet'
p9
(issf_api
FeatureSet
p10
(dp11
S'featureDict'
p12
(dp13
S'posn'
p14
S'10'
p15
sS'name'
p16
S'\xe0\xa4\xaa\xe0\xa5\x87\xe0\xa4\x9f\xe0\xa5\x8d\xe0\xa4\xb0\xe0\xa5\x8b\xe0\xa4\xb2\xe0\xa4\xbf\xe0\xa4\xaf\xe0\xa4\xae'
p17
sS'af'
p18
S'\xe0\xa4\xaa\xe0\xa5\x87\xe0\xa4\x9f\xe0\xa5\x8d\xe0\xa4\xb0\xe0\xa5\x8b\xe0\xa4\xb2\xe0\xa4\xbf\xe0\xa4\xaf\xe0\xa4\xae,n,m,sg,3,d,0,0'
p19
sS'drel'
p20
S'pof__cn:NP'
p21
sS'chunktype'
p22
S'child:NP'
p23
sS'cref'
p24
S'i1%0:t1'
p25
ssbsS'arg1'
p26
I00
sS'arg2'
p27
I00
sS'sense'
p28
NsS'arg1Span'
p29
NsS'chunkNum'
p30
I0
sS'sentenceNum'
p31
I0
sS'relationNum'
p32
NsS'arg2Span'
p33
NsS'wordTag'
p34
S'NNPC'
p35
sS'featureSet'
p36
g10
sS'conn'
p37
I00
sba(issf_api
Word
p38
(dp39
g6
I00
sg7
V\u092e\u0902\u0924\u094d\u0930\u0940
p40
sg9
(issf_api
FeatureSet
p41
(dp42
g12
(dp43
S'crefhead'
p44
S'\xe0\xa4\xae\xe0\xa4\x82\xe0\xa4\xa4\xe0\xa5\x8d\xe0\xa4\xb0\xe0\xa5\x80:i1'
p45
sS'posn'
p46
S'20'
p47
sS'name'
p48
S'\xe0\xa4\xae\xe0\xa4\x82\xe0\xa4\xa4\xe0\xa5\x8d\xe0\xa4\xb0\xe0\xa5\x80'
p49
sS'af'
p50
S'\xe0\xa4\xae\xe0\xa4\x82\xe0\xa4\xa4\xe0\xa5\x8d\xe0\xa4\xb0\xe0\xa5\x80,n,m,sg,3,d,0,0'
p51
sS'drel'
p52
S'nmod__adj:NP'
p53
sS'chunktype'
p54
S'child:NP'
p55
sS'cref'
p56
S'i1%1:t1'
p57
ssbsg26
I00
sg27
I00
sg28
Nsg29
Nsg30
I0
sg31
I0
sg32
Nsg33
Nsg34
S'NNP'
p58
sg36
g41
sg37
I00
sba(issf_api
Word
p59
(dp60
g6
I00
sg7
V\u092e\u0923\u093f\u0936\u0902\u0915\u0930
p61
sg9
(issf_api
FeatureSet
p62
(dp63
g12
(dp64
S'posn'
p65
S'30'
p66
sS'name'
p67
S'\xe0\xa4\xae\xe0\xa4\xa3\xe0\xa4\xbf\xe0\xa4\xb6\xe0\xa4\x82\xe0\xa4\x95\xe0\xa4\xb0'
p68
sS'af'
p69
S'\xe0\xa4\xae\xe0\xa4\xa3\xe0\xa4\xbf\xe0\xa4\xb6\xe0\xa4\x82\xe0\xa4\x95\xe0\xa4\xb0,n,m,sg,3,d,0,0'
p70
sS'drel'
p71
S'pof__cn:NP'
p72
sS'chunktype'
p73
S'child:NP'
p74
sS'cref'
p75
S'i2%0:t1'
p76
ssbsg26
I00
sg27
I00
sg28
Nsg29
Nsg30
I0
sg31
I0
sg32
Nsg33
Nsg34
S'NNPC'
p77
sg36
g62
sg37
I00
sba(issf_api
Word
p78
(dp79
g6
I00
sg7
V\u0905\u092f\u094d\u092f\u0930
p80
sg9
(issf_api
FeatureSet
p81
(dp82
g12
(dp83
S'crefhead'
p84
S'\xe0\xa4\x85\xe0\xa4\xaf\xe0\xa5\x8d\xe0\xa4\xaf\xe0\xa4\xb0:i2'
p85
sS'posn'
p86
S'40'
p87
sS'name'
p88
S'\xe0\xa4\x85\xe0\xa4\xaf\xe0\xa5\x8d\xe0\xa4\xaf\xe0\xa4\xb0'
p89
sS'af'
p90
S'\xe0\xa4\x85\xe0\xa4\xaf\xe0\xa5\x8d\xe0\xa4\xaf\xe0\xa4\xb0,n,any,sg,3,o,0_\xe0\xa4\xa8\xe0\xa5\x87,0'
p91
sS'chunkid'
p92
S'NP'
p93
sS'creftype'
p94
S'Coreference-NounComplement:i1'
p95
sS'chunktype'
p96
S'head:NP'
p97
sS'crefchainhead'
p98
S'i2:t1'
p99
sS'vpos'
p100
S'vib_vib_5'
p101
sS'cref'
p102
S'i2%1:t1'
p103
sS'drel'
p104
S'k1:VGF'
p105
ssbsg26
I00
sg27
I00
sg28
Nsg29
Nsg30
I0
sg31
I0
sg32
Nsg33
Nsg34
S'NNP'
p106
sg36
g81
sg37
I00
sba(issf_api
Word
p107
(dp108
g6
I00
sg7
V\u0928\u0947
p109
sg9
(issf_api
FeatureSet
p110
(dp111
g12
(dp112
S'posn'
p113
S'50'
p114
sS'name'
p115
S'\xe0\xa4\xa8\xe0\xa5\x87'
p116
sS'drel'
p117
S'lwg__psp:NP'
p118
sS'chunktype'
p119
S'child:NP'
p120
sS'af'
p121
S'\xe0\xa4\xa8\xe0\xa5\x87,psp,,,,,,'
p122
ssbsg26
I00
sg27
I00
sg28
Nsg29
Nsg30
I0
sg31
I0
sg32
Nsg33
Nsg34
S'PSP'
p123
sg36
g110
sg37
I00
sba(issf_api
Word
p124
(dp125
g6
I00
sg7
V\u0906\u0924\u0902\u0915\u0940
p126
sg9
(issf_api
FeatureSet
p127
(dp128
g12
(dp129
S'posn'
p130
S'60'
p131
sS'name'
p132
S'\xe0\xa4\x86\xe0\xa4\xa4\xe0\xa4\x82\xe0\xa4\x95\xe0\xa5\x80'
p133
sS'drel'
p134
S'nmod__adj:NP2'
p135
sS'chunktype'
p136
S'child:NP2'
p137
sS'af'
p138
S'\xe0\xa4\x86\xe0\xa4\xa4\xe0\xa4\x82\xe0\xa4\x95\xe0\xa5\x80,adj,any,any,,o,,'
p139
ssbsg26
I00
sg27
I00
sg28
Nsg29
Nsg30
I1
sg31
I0
sg32
Nsg33
Nsg34
S'JJ'
p140
sg36
g127
sg37
I00
sba(issf_api
Word
p141
(dp142
g6
I00
sg7
V\u0939\u092e\u0932\u0947
p143
sg9
(issf_api
FeatureSet
p144
(dp145
g12
(dp146
S'posn'
p147
S'70'
p148
sS'name'
p149
S'\xe0\xa4\xb9\xe0\xa4\xae\xe0\xa4\xb2\xe0\xa5\x87'
p150
sS'af'
p151
S'\xe0\xa4\xb9\xe0\xa4\xae\xe0\xa4\xb2\xe0\xa4\xbe,n,m,sg,3,o,0_\xe0\xa4\x95\xe0\xa4\xbe,0'
p152
sS'chunkid'
p153
S'NP2'
p154
sS'drel'
p155
S'r6:NP3'
p156
sS'vpos'
p157
S'vib_3'
p158
sS'chunktype'
p159
S'head:NP2'
p160
ssbsg26
I00
sg27
I00
sg28
Nsg29
Nsg30
I1
sg31
I0
sg32
Nsg33
Nsg34
S'NN'
p161
sg36
g144
sg37
I00
sba(issf_api
Word
p162
(dp163
g6
I00
sg7
V\u0915\u0947
p164
sg9
(issf_api
FeatureSet
p165
(dp166
g12
(dp167
S'posn'
p168
S'80'
p169
sS'name'
p170
S'\xe0\xa4\x95\xe0\xa5\x87'
p171
sS'drel'
p172
S'lwg__psp:NP2'
p173
sS'chunktype'
p174
S'child:NP2'
p175
sS'af'
p176
S'\xe0\xa4\x95\xe0\xa4\xbe,psp,m,sg,,o,,'
p177
ssbsg26
I00
sg27
I00
sg28
Nsg29
Nsg30
I1
sg31
I0
sg32
Nsg33
Nsg34
S'PSP'
p178
sg36
g165
sg37
I00
sba(issf_api
Word
p179
(dp180
g6
I00
sg7
V\u091c\u094b\u0916\u093f\u092e
p181
sg9
(issf_api
FeatureSet
p182
(dp183
g12
(dp184
S'posn'
p185
S'90'
p186
sS'name'
p187
S'\xe0\xa4\x9c\xe0\xa5\x8b\xe0\xa4\x96\xe0\xa4\xbf\xe0\xa4\xae'
p188
sS'af'
p189
S'\xe0\xa4\x9c\xe0\xa5\x8b\xe0\xa4\x96\xe0\xa4\xbf\xe0\xa4\xae,n,m,sg,3,o,0_\xe0\xa4\x95\xe0\xa5\x8b,0'
p190
sS'chunkid'
p191
S'NP3'
p192
sS'drel'
p193
S'k2:VGNN'
p194
sS'vpos'
p195
S'vib_2'
p196
sS'chunktype'
p197
S'head:NP3'
p198
ssbsg26
I00
sg27
I00
sg28
Nsg29
Nsg30
I2
sg31
I0
sg32
Nsg33
Nsg34
S'NN'
p199
sg36
g182
sg37
I00
sba(issf_api
Word
p200
(dp201
g6
I00
sg7
V\u0915\u094b
p202
sg9
(issf_api
FeatureSet
p203
(dp204
g12
(dp205
S'posn'
p206
S'100'
p207
sS'name'
p208
S'\xe0\xa4\x95\xe0\xa5\x8b'
p209
sS'drel'
p210
S'lwg__psp:NP3'
p211
sS'chunktype'
p212
S'child:NP3'
p213
sS'af'
p214
S'\xe0\xa4\x95\xe0\xa5\x8b,psp,,,,,,'
p215
ssbsg26
I00
sg27
I00
sg28
Nsg29
Nsg30
I2
sg31
I0
sg32
Nsg33
Nsg34
S'PSP'
p216
sg36
g203
sg37
I00
sba(issf_api
Word
p217
(dp218
g6
I00
sg7
V\u0915\u092e
p219
sg9
(issf_api
FeatureSet
p220
(dp221
g12
(dp222
S'posn'
p223
S'110'
p224
sS'name'
p225
S'\xe0\xa4\x95\xe0\xa4\xae'
p226
sS'af'
p227
S'\xe0\xa4\x95\xe0\xa4\xae,avy,,,,,,'
p228
sS'chunkid'
p229
S'JJP'
p230
sS'drel'
p231
S'pof:VGNN'
p232
sS'chunktype'
p233
S'head:JJP'
p234
ssbsg26
I00
sg27
I00
sg28
Nsg29
Nsg30
I3
sg31
I0
sg32
Nsg33
Nsg34
S'QF'
p235
sg36
g220
sg37
I00
sba(issf_api
Word
p236
(dp237
g6
I00
sg7
V\u0915\u0930\u0928\u0947
p238
sg9
(issf_api
FeatureSet
p239
(dp240
g12
(dp241
S'posn'
p242
S'120'
p243
sS'name'
p244
S'\xe0\xa4\x95\xe0\xa4\xb0\xe0\xa4\xa8\xe0\xa5\x87'
p245
sS'af'
p246
S'\xe0\xa4\x95\xe0\xa4\xb0,v,any,any,any,o,\xe0\xa4\xa8\xe0\xa4\xbe_\xe0\xa4\x95\xe0\xa5\x87_\xe0\xa4\xb2\xe0\xa4\xbf\xe0\xa4\x8f,nA'
p247
sS'chunkid'
p248
S'VGNN'
p249
sS'drel'
p250
S'rt:VGF'
p251
sS'vpos'
p252
S'tam_2_3'
p253
sS'chunktype'
p254
S'head:VGNN'
p255
ssbsg26
I00
sg27
I00
sg28
Nsg29
Nsg30
I4
sg31
I0
sg32
Nsg33
Nsg34
S'VM'
p256
sg36
g239
sg37
I00
sba(issf_api
Word
p257
(dp258
g6
I00
sg7
V\u0915\u0947
p259
sg9
(issf_api
FeatureSet
p260
(dp261
g12
(dp262
S'posn'
p263
S'130'
p264
sS'name'
p265
S'\xe0\xa4\x95\xe0\xa5\x872'
p266
sS'drel'
p267
S'lwg__psp:VGNN'
p268
sS'chunktype'
p269
S'child:VGNN'
p270
sS'af'
p271
S'\xe0\xa4\x95\xe0\xa5\x87,psp,,,,,,'
p272
ssbsg26
I00
sg27
I00
sg28
Nsg29
Nsg30
I4
sg31
I0
sg32
Nsg33
Nsg34
S'PSP'
p273
sg36
g260
sg37
I00
sba(issf_api
Word
p274
(dp275
g6
I00
sg7
V\u0932\u093f\u090f
p276
sg9
(issf_api
FeatureSet
p277
(dp278
g12
(dp279
S'posn'
p280
S'140'
p281
sS'name'
p282
S'\xe0\xa4\xb2\xe0\xa4\xbf\xe0\xa4\x8f'
p283
sS'drel'
p284
S'lwg__psp:VGNN'
p285
sS'chunktype'
p286
S'child:VGNN'
p287
sS'af'
p288
S'\xe0\xa4\xb2\xe0\xa4\xbf\xe0\xa4\x8f,psp,,,,,,'
p289
ssbsg26
I00
sg27
I00
sg28
Nsg29
Nsg30
I4
sg31
I0
sg32
Nsg33
Nsg34
S'PSP'
p290
sg36
g277
sg37
I00
sba(issf_api
Word
p291
(dp292
g6
I00
sg7
V\u096a.\u0967\u096c
p293
sg9
(issf_api
FeatureSet
p294
(dp295
g12
(dp296
S'posn'
p297
S'150'
p298
sS'name'
p299
S'\xe0\xa5\xaa.\xe0\xa5\xa7\xe0\xa5\xac'
p300
sS'drel'
p301
S'mod:NP4'
p302
sS'chunktype'
p303
S'child:NP4'
p304
sS'af'
p305
S'\xe0\xa5\xaa.\xe0\xa5\xa7\xe0\xa5\xac,num,any,any,,any,,'
p306
ssbsg26
I00
sg27
I00
sg28
Nsg29
Nsg30
I5
sg31
I0
sg32
Nsg33
Nsg34
S'QCC'
p307
sg36
g294
sg37
I00
sba(issf_api
Word
p308
(dp309
g6
I00
sg7
V\u0905\u0930\u092c
p310
sg9
(issf_api
FeatureSet
p311
(dp312
g12
(dp313
S'posn'
p314
S'160'
p315
sS'name'
p316
S'\xe0\xa4\x85\xe0\xa4\xb0\xe0\xa4\xac'
p317
sS'drel'
p318
S'nmod__adj:NP4'
p319
sS'chunktype'
p320
S'child:NP4'
p321
sS'af'
p322
S'\xe0\xa4\x85\xe0\xa4\xb0\xe0\xa4\xac,num,any,any,,any,,'
p323
ssbsg26
I00
sg27
I00
sg28
Nsg29
Nsg30
I5
sg31
I0
sg32
Nsg33
Nsg34
S'QC'
p324
sg36
g311
sg37
I00
sba(issf_api
Word
p325
(dp326
g6
I00
sg7
V\u0921\u0949\u0932\u0930
p327
sg9
(issf_api
FeatureSet
p328
(dp329
g12
(dp330
S'posn'
p331
S'170'
p332
sS'name'
p333
S'\xe0\xa4\xa1\xe0\xa5\x89\xe0\xa4\xb2\xe0\xa4\xb0'
p334
sS'af'
p335
S'\xe0\xa4\xa1\xe0\xa5\x89\xe0\xa4\xb2\xe0\xa4\xb0,n,m,sg,3,o,0_\xe0\xa4\xb5\xe0\xa4\xbe\xe0\xa4\xb2\xe0\xa4\xbe,0'
p336
sS'chunkid'
p337
S'NP4'
p338
sS'drel'
p339
S'nmod:NP5'
p340
sS'vpos'
p341
S'vib_4'
p342
sS'chunktype'
p343
S'head:NP4'
p344
ssbsg26
I00
sg27
I00
sg28
Nsg29
Nsg30
I5
sg31
I0
sg32
Nsg33
Nsg34
S'NN'
p345
sg36
g328
sg37
I00
sba(issf_api
Word
p346
(dp347
g6
I00
sg7
V\u0935\u093e\u0932\u0947
p348
sg9
(issf_api
FeatureSet
p349
(dp350
g12
(dp351
S'posn'
p352
S'180'
p353
sS'name'
p354
S'\xe0\xa4\xb5\xe0\xa4\xbe\xe0\xa4\xb2\xe0\xa5\x87'
p355
sS'drel'
p356
S'lwg__psp:NP4'
p357
sS'chunktype'
p358
S'child:NP4'
p359
sS'af'
p360
S'\xe0\xa4\xb5\xe0\xa4\xbe\xe0\xa4\xb2\xe0\xa4\xbe,psp,m,sg,,o,,'
p361
ssbsg26
I00
sg27
I00
sg28
Nsg29
Nsg30
I5
sg31
I0
sg32
Nsg33
Nsg34
S'PSP'
p362
sg36
g349
sg37
I00
sba(issf_api
Word
p363
(dp364
g6
I00
sg7
V\u0908\u0930\u093e\u0928
p365
sg9
(issf_api
FeatureSet
p366
(dp367
g12
(dp368
S'crefhead'
p369
S'\xe0\xa4\x88\xe0\xa4\xb0\xe0\xa4\xbe\xe0\xa4\xa8:i3'
p370
sS'posn'
p371
S'190'
p372
sS'name'
p373
S'\xe0\xa4\x88\xe0\xa4\xb0\xe0\xa4\xbe\xe0\xa4\xa8'
p374
sS'af'
p375
S'\xe0\xa4\x88\xe0\xa4\xb0\xe0\xa4\xbe\xe0\xa4\xa8,n,m,sg,3,d,0,0'
p376
sS'drel'
p377
S'nmod__adj:NP5'
p378
sS'crefchainhead'
p379
S'i3:t2'
p380
sS'chunktype'
p381
S'child:NP5'
p382
sS'cref'
p383
S'i3%1:t2,i4%0:t3'
p384
ssbsg26
I00
sg27
I00
sg28
Nsg29
Nsg30
I6
sg31
I0
sg32
Nsg33
Nsg34
S'NNP'
p385
sg36
g366
sg37
I00
sba(issf_api
Word
p386
(dp387
g6
I00
sg7
V-
p388
sg9
(issf_api
FeatureSet
p389
(dp390
g12
(dp391
S'posn'
p392
S'200'
p393
sS'name'
p394
S'-'
p395
sS'af'
p396
S'-,punc,,,,,,'
p397
sS'drel'
p398
S'rsym:NP5'
p399
sS'chunktype'
p400
S'child:NP5'
p401
sS'cref'
p402
S'i4%0:t3'
p403
ssbsg26
I00
sg27
I00
sg28
Nsg29
Nsg30
I6
sg31
I0
sg32
Nsg33
Nsg34
S'SYM'
p404
sg36
g389
sg37
I00
sba(issf_api
Word
p405
(dp406
g6
I00
sg7
V\u092d\u093e\u0930\u0924
p407
sg9
(issf_api
FeatureSet
p408
(dp409
g12
(dp410
S'crefhead'
p411
S'\xe0\xa4\xad\xe0\xa4\xbe\xe0\xa4\xb0\xe0\xa4\xa4:i5'
p412
sS'posn'
p413
S'210'
p414
sS'name'
p415
S'\xe0\xa4\xad\xe0\xa4\xbe\xe0\xa4\xb0\xe0\xa4\xa4'
p416
sS'af'
p417
S'\xe0\xa4\xad\xe0\xa4\xbe\xe0\xa4\xb0\xe0\xa4\xa4,n,m,sg,3,d,0,0'
p418
sS'drel'
p419
S'nmod__adj:NP5'
p420
sS'crefchainhead'
p421
S'i5:t4'
p422
sS'chunktype'
p423
S'child:NP5'
p424
sS'cref'
p425
S'i5%1:t4,i4%0:t3'
p426
ssbsg26
I00
sg27
I00
sg28
Nsg29
Nsg30
I6
sg31
I0
sg32
Nsg33
Nsg34
S'NNP'
p427
sg36
g408
sg37
I00
sba(issf_api
Word
p428
(dp429
g6
I00
sg7
V\u0917\u0948\u0938
p430
sg9
(issf_api
FeatureSet
p431
(dp432
g12
(dp433
S'crefhead'
p434
S'\xe0\xa4\x97\xe0\xa5\x88\xe0\xa4\xb8:i6'
p435
sS'posn'
p436
S'220'
p437
sS'name'
p438
S'\xe0\xa4\x97\xe0\xa5\x88\xe0\xa4\xb8'
p439
sS'af'
p440
S'\xe0\xa4\x97\xe0\xa5\x88\xe0\xa4\xb8,n,f,sg,3,d,0,0'
p441
sS'drel'
p442
S'pof__cn:NP5'
p443
sS'crefchainhead'
p444
S'i6:t5'
p445
sS'chunktype'
p446
S'child:NP5'
p447
sS'cref'
p448
S'i4%0:t3,i6%1:t5'
p449
ssbsg26
I00
sg27
I00
sg28
Nsg29
Nsg30
I6
sg31
I0
sg32
Nsg33
Nsg34
S'NNC'
p450
sg36
g431
sg37
I00
sba(issf_api
Word
p451
(dp452
g6
I00
sg7
V\u092a\u093e\u0907\u092a\u0932\u093e\u0907\u0928
p453
sg9
(issf_api
FeatureSet
p454
(dp455
g12
(dp456
S'crefhead'
p457
S'\xe0\xa4\xaa\xe0\xa4\xbe\xe0\xa4\x87\xe0\xa4\xaa\xe0\xa4\xb2\xe0\xa4\xbe\xe0\xa4\x87\xe0\xa4\xa8:i4'
p458
sS'posn'
p459
S'230'
p460
sS'name'
p461
S'\xe0\xa4\xaa\xe0\xa4\xbe\xe0\xa4\x87\xe0\xa4\xaa\xe0\xa4\xb2\xe0\xa4\xbe\xe0\xa4\x87\xe0\xa4\xa8'
p462
sS'af'
p463
S'\xe0\xa4\xaa\xe0\xa4\xbe\xe0\xa4\x87\xe0\xa4\xaa\xe0\xa4\xb2\xe0\xa4\xbe\xe0\xa4\x87\xe0\xa4\xa8,n,f,sg,3,o,0_\xe0\xa4\x95\xe0\xa5\x8b,0'
p464
sS'chunkid'
p465
S'NP5'
p466
sS'chunktype'
p467
S'head:NP5'
p468
sS'crefchainhead'
p469
S'i4:t3'
p470
sS'vpos'
p471
S'vib_vib_vib_6'
p472
sS'cref'
p473
S'i4%1:t3'
p474
sS'drel'
p475
S'k2:VGNN2'
p476
ssbsg26
I00
sg27
I00
sg28
Nsg29
Nsg30
I6
sg31
I0
sg32
Nsg33
Nsg34
S'NN'
p477
sg36
g454
sg37
I00
sba(issf_api
Word
p478
(dp479
g6
I00
sg7
V\u0915\u094b
p480
sg9
(issf_api
FeatureSet
p481
(dp482
g12
(dp483
S'posn'
p484
S'240'
p485
sS'name'
p486
S'\xe0\xa4\x95\xe0\xa5\x8b2'
p487
sS'drel'
p488
S'lwg__psp:NP5'
p489
sS'chunktype'
p490
S'child:NP5'
p491
sS'af'
p492
S'\xe0\xa4\x95\xe0\xa5\x8b,psp,,,,,,'
p493
ssbsg26
I00
sg27
I00
sg28
Nsg29
Nsg30
I6
sg31
I0
sg32
Nsg33
Nsg34
S'PSP'
p494
sg36
g481
sg37
I00
sba(issf_api
Word
p495
(dp496
g6
I00
sg7
V\u092a\u093e\u0915\u093f\u0938\u094d\u0924\u093e\u0928
p497
sg9
(issf_api
FeatureSet
p498
(dp499
g12
(dp500
S'crefhead'
p501
S'\xe0\xa4\xaa\xe0\xa4\xbe\xe0\xa4\x95\xe0\xa4\xbf\xe0\xa4\xb8\xe0\xa5\x8d\xe0\xa4\xa4\xe0\xa4\xbe\xe0\xa4\xa8:i7'
p502
sS'posn'
p503
S'250'
p504
sS'name'
p505
S'\xe0\xa4\xaa\xe0\xa4\xbe\xe0\xa4\x95\xe0\xa4\xbf\xe0\xa4\xb8\xe0\xa5\x8d\xe0\xa4\xa4\xe0\xa4\xbe\xe0\xa4\xa8'
p506
sS'af'
p507
S'\xe0\xa4\xaa\xe0\xa4\xbe\xe0\xa4\x95\xe0\xa4\xbf\xe0\xa4\xb8\xe0\xa5\x8d\xe0\xa4\xa4\xe0\xa4\xbe\xe0\xa4\xa8,n,m,sg,3,o,0_\xe0\xa4\x95\xe0\xa4\xbe,0'
p508
sS'chunkid'
p509
S'NP6'
p510
sS'chunktype'
p511
S'head:NP6'
p512
sS'crefchainhead'
p513
S'i7:t6'
p514
sS'vpos'
p515
S'vib_2'
p516
sS'cref'
p517
S'i7%1:t6'
p518
sS'drel'
p519
S'r6:NP7'
p520
ssbsg26
I00
sg27
I00
sg28
Nsg29
Nsg30
I7
sg31
I0
sg32
Nsg33
Nsg34
S'NNP'
p521
sg36
g498
sg37
I00
sba(issf_api
Word
p522
(dp523
g6
I00
sg7
V\u0915\u0940
p524
sg9
(issf_api
FeatureSet
p525
(dp526
g12
(dp527
S'posn'
p528
S'260'
p529
sS'name'
p530
S'\xe0\xa4\x95\xe0\xa5\x80'
p531
sS'drel'
p532
S'lwg__psp:NP6'
p533
sS'chunktype'
p534
S'child:NP6'
p535
sS'af'
p536
S'\xe0\xa4\x95\xe0\xa4\xbe,psp,f,pl,,o,,'
p537
ssbsg26
I00
sg27
I00
sg28
Nsg29
Nsg30
I7
sg31
I0
sg32
Nsg33
Nsg34
S'PSP'
p538
sg36
g525
sg37
I00
sba(issf_api
Word
p539
(dp540
g6
I00
sg7
V\u0918\u0928\u0940
p541
sg9
(issf_api
FeatureSet
p542
(dp543
g12
(dp544
S'posn'
p545
S'270'
p546
sS'name'
p547
S'\xe0\xa4\x98\xe0\xa4\xa8\xe0\xa5\x80'
p548
sS'drel'
p549
S'nmod__adj:NP7'
p550
sS'chunktype'
p551
S'child:NP7'
p552
sS'af'
p553
S'\xe0\xa4\x98\xe0\xa4\xa8\xe0\xa4\xbe,adj,f,sg,,o,,'
p554
ssbsg26
I00
sg27
I00
sg28
Nsg29
Nsg30
I8
sg31
I0
sg32
Nsg33
Nsg34
S'JJ'
p555
sg36
g542
sg37
I00
sba(issf_api
Word
p556
(dp557
g6
I00
sg7
V\u0906\u092c\u093e\u0926\u0940
p558
sg9
(issf_api
FeatureSet
p559
(dp560
g12
(dp561
S'posn'
p562
S'280'
p563
sS'name'
p564
S'\xe0\xa4\x86\xe0\xa4\xac\xe0\xa4\xbe\xe0\xa4\xa6\xe0\xa5\x80'
p565
sS'af'
p566
S'\xe0\xa4\x86\xe0\xa4\xac\xe0\xa4\xbe\xe0\xa4\xa6\xe0\xa5\x80,n,f,sg,3,o,0_\xe0\xa4\xb5\xe0\xa4\xbe\xe0\xa4\xb2\xe0\xa4\xbe,0'
p567
sS'chunkid'
p568
S'NP7'
p569
sS'drel'
p570
S'nmod:NP8'
p571
sS'vpos'
p572
S'vib_3'
p573
sS'chunktype'
p574
S'head:NP7'
p575
ssbsg26
I00
sg27
I00
sg28
Nsg29
Nsg30
I8
sg31
I0
sg32
Nsg33
Nsg34
S'NN'
p576
sg36
g559
sg37
I00
sba(issf_api
Word
p577
(dp578
g6
I00
sg7
V\u0935\u093e\u0932\u0947
p579
sg9
(issf_api
FeatureSet
p580
(dp581
g12
(dp582
S'posn'
p583
S'290'
p584
sS'name'
p585
S'\xe0\xa4\xb5\xe0\xa4\xbe\xe0\xa4\xb2\xe0\xa5\x872'
p586
sS'drel'
p587
S'lwg__psp:NP7'
p588
sS'chunktype'
p589
S'child:NP7'
p590
sS'af'
p591
S'\xe0\xa4\xb5\xe0\xa4\xbe\xe0\xa4\xb2\xe0\xa4\xbe,psp,m,pl,,o,,'
p592
ssbsg26
I00
sg27
I00
sg28
Nsg29
Nsg30
I8
sg31
I0
sg32
Nsg33
Nsg34
S'PSP'
p593
sg36
g580
sg37
I00
sba(issf_api
Word
p594
(dp595
g6
I00
sg7
V\u0907\u0932\u093e\u0915\u094b\u0902
p596
sg9
(issf_api
FeatureSet
p597
(dp598
g12
(dp599
S'posn'
p600
S'300'
p601
sS'name'
p602
S'\xe0\xa4\x87\xe0\xa4\xb2\xe0\xa4\xbe\xe0\xa4\x95\xe0\xa5\x8b\xe0\xa4\x82'
p603
sS'af'
p604
S'\xe0\xa4\x87\xe0\xa4\xb2\xe0\xa4\xbe\xe0\xa4\x95\xe0\xa4\xbe,n,m,pl,3,o,0_\xe0\xa4\xb8\xe0\xa5\x87,0'
p605
sS'chunkid'
p606
S'NP8'
p607
sS'drel'
p608
S'k5:VGNN2'
p609
sS'vpos'
p610
S'vib_2'
p611
sS'chunktype'
p612
S'head:NP8'
p613
ssbsg26
I00
sg27
I00
sg28
Nsg29
Nsg30
I9
sg31
I0
sg32
Nsg33
Nsg34
S'NN'
p614
sg36
g597
sg37
I00
sba(issf_api
Word
p615
(dp616
g6
I00
sg7
V\u0938\u0947
p617
sg9
(issf_api
FeatureSet
p618
(dp619
g12
(dp620
S'posn'
p621
S'310'
p622
sS'name'
p623
S'\xe0\xa4\xb8\xe0\xa5\x87'
p624
sS'drel'
p625
S'lwg__psp:NP8'
p626
sS'chunktype'
p627
S'child:NP8'
p628
sS'af'
p629
S'\xe0\xa4\xb8\xe0\xa5\x87,psp,,,,,,'
p630
ssbsg26
I00
sg27
I00
sg28
Nsg29
Nsg30
I9
sg31
I0
sg32
Nsg33
Nsg34
S'PSP'
p631
sg36
g618
sg37
I00
sba(issf_api
Word
p632
(dp633
g6
I00
sg7
V\u0932\u0947
p634
sg9
(issf_api
FeatureSet
p635
(dp636
g12
(dp637
S'posn'
p638
S'320'
p639
sS'name'
p640
S'\xe0\xa4\xb2\xe0\xa5\x87'
p641
sS'af'
p642
S'\xe0\xa4\xb2\xe0\xa5\x87,v,any,sg,any,,0_\xe0\xa4\x9c\xe0\xa4\xbe+\xe0\xa4\xa8\xe0\xa4\xbe_\xe0\xa4\x95\xe0\xa4\xbe,0'
p643
sS'chunkid'
p644
S'VGNN2'
p645
sS'drel'
p646
S'r6:NP9'
p647
sS'vpos'
p648
S'tam_2_3'
p649
sS'chunktype'
p650
S'head:VGNN2'
p651
ssbsg26
I00
sg27
I00
sg28
Nsg29
Nsg30
I10
sg31
I0
sg32
Nsg33
Nsg34
S'VM'
p652
sg36
g635
sg37
I00
sba(issf_api
Word
p653
(dp654
g6
I00
sg7
V\u091c\u093e\u0928\u0947
p655
sg9
(issf_api
FeatureSet
p656
(dp657
g12
(dp658
S'posn'
p659
S'330'
p660
sS'name'
p661
S'\xe0\xa4\x9c\xe0\xa4\xbe\xe0\xa4\xa8\xe0\xa5\x87'
p662
sS'drel'
p663
S'lwg__vaux:VGNN2'
p664
sS'chunktype'
p665
S'child:VGNN2'
p666
sS'af'
p667
S'\xe0\xa4\x9c\xe0\xa4\xbe,v,any,any,any,o,\xe0\xa4\xa8\xe0\xa4\xbe,nA'
p668
ssbsg26
I00
sg27
I00
sg28
Nsg29
Nsg30
I10
sg31
I0
sg32
Nsg33
Nsg34
S'VAUX'
p669
sg36
g656
sg37
I00
sba(issf_api
Word
p670
(dp671
g6
I00
sg7
V\u0915\u093e
p672
sg9
(issf_api
FeatureSet
p673
(dp674
g12
(dp675
S'posn'
p676
S'340'
p677
sS'name'
p678
S'\xe0\xa4\x95\xe0\xa4\xbe'
p679
sS'drel'
p680
S'lwg__psp:VGNN2'
p681
sS'chunktype'
p682
S'child:VGNN2'
p683
sS'af'
p684
S'\xe0\xa4\x95\xe0\xa4\xbe,psp,m,sg,,d,,'
p685
ssbsg26
I00
sg27
I00
sg28
Nsg29
Nsg30
I10
sg31
I0
sg32
Nsg33
Nsg34
S'PSP'
p686
sg36
g673
sg37
I00
sba(issf_api
Word
p687
(dp688
g6
I00
sg7
V\u0938\u0941\u091d\u093e\u0935
p689
sg9
(issf_api
FeatureSet
p690
(dp691
g12
(dp692
S'posn'
p693
S'350'
p694
sS'name'
p695
S'\xe0\xa4\xb8\xe0\xa5\x81\xe0\xa4\x9d\xe0\xa4\xbe\xe0\xa4\xb5'
p696
sS'af'
p697
S'\xe0\xa4\xb8\xe0\xa5\x81\xe0\xa4\x9d\xe0\xa4\xbe\xe0\xa4\xb5,n,m,sg,3,d,0,0'
p698
sS'chunkid'
p699
S'NP9'
p700
sS'drel'
p701
S'k2:VGF'
p702
sS'chunktype'
p703
S'head:NP9'
p704
ssbsg26
I00
sg27
I00
sg28
Nsg29
Nsg30
I11
sg31
I0
sg32
Nsg33
Nsg34
S'NN'
p705
sg36
g690
sg37
I00
sba(issf_api
Word
p706
(dp707
g6
I00
sg7
V\u0926\u093f\u092f\u093e
p708
sg9
(issf_api
FeatureSet
p709
(dp710
g12
(dp711
S'posn'
p712
S'360'
p713
sS'name'
p714
S'\xe0\xa4\xa6\xe0\xa4\xbf\xe0\xa4\xaf\xe0\xa4\xbe'
p715
sS'af'
p716
S'\xe0\xa4\xa6\xe0\xa5\x87,v,m,sg,3,,\xe0\xa4\xaf\xe0\xa4\xbe_\xe0\xa4\xb9\xe0\xa5\x88,yA'
p717
sS'chunkid'
p718
S'VGF'
p719
sS'chunktype'
p720
S'head:VGF'
p721
sS'voicetype'
p722
S'active'
p723
sS'vpos'
p724
S'tam_2'
p725
sS'stype'
p726
S'declarative'
p727
ssbsg26
I00
sg27
I00
sg28
Nsg29
Nsg30
I12
sg31
I0
sg32
Nsg33
Nsg34
S'VM'
p728
sg36
g709
sg37
I00
sba(issf_api
Word
p729
(dp730
g6
I00
sg7
V\u0939\u0948
p731
sg9
(issf_api
FeatureSet
p732
(dp733
g12
(dp734
S'posn'
p735
S'370'
p736
sS'name'
p737
S'\xe0\xa4\xb9\xe0\xa5\x88'
p738
sS'drel'
p739
S'lwg__vaux:VGF'
p740
sS'chunktype'
p741
S'child:VGF'
p742
sS'af'
p743
S'\xe0\xa4\xb9\xe0\xa5\x88,v,any,sg,3,,\xe0\xa4\xb9\xe0\xa5\x88,hE'
p744
ssbsg26
I00
sg27
I00
sg28
Nsg29
Nsg30
I12
sg31
I0
sg32
Nsg33
Nsg34
S'VAUX'
p745
sg36
g732
sg37
I00
sba(issf_api
Word
p746
(dp747
g6
I00
sg7
V\u0964
p748
sg9
(issf_api
FeatureSet
p749
(dp750
g12
(dp751
S'posn'
p752
S'380'
p753
sS'name'
p754
S'\xe0\xa5\xa4'
p755
sS'af'
p756
S'\xe0\xa5\xa4,punc,,,,,,'
p757
sS'chunkid'
p758
S'BLK'
p759
sS'drel'
p760
S'rsym:VGF'
p761
sS'chunktype'
p762
S'head:BLK'
p763
ssbsg26
I00
sg27
I00
sg28
Nsg29
Nsg30
I13
sg31
I0
sg32
Nsg33
Nsg34
S'SYM'
p764
sg36
g749
sg37
I00
sba(issf_api
Word
p765
(dp766
g6
I00
sg7
V\u0905\u092f\u094d\u092f\u0930
p767
sg9
(issf_api
FeatureSet
p768
(dp769
g12
(dp770
S'crefhead'
p771
S'\xe0\xa4\x85\xe0\xa4\xaf\xe0\xa5\x8d\xe0\xa4\xaf\xe0\xa4\xb0:i8'
p772
sS'posn'
p773
S'10'
p774
sS'name'
p775
S'\xe0\xa4\x85\xe0\xa4\xaf\xe0\xa5\x8d\xe0\xa4\xaf\xe0\xa4\xb0'
p776
sS'af'
p777
S'\xe0\xa4\x85\xe0\xa4\xaf\xe0\xa5\x8d\xe0\xa4\xaf\xe0\xa4\xb0,n,any,sg,3,o,0_\xe0\xa4\xa8\xe0\xa5\x87,0'
p778
sS'chunkid'
p779
S'NP'
p780
sS'creftype'
p781
S'Coreference-Identity:i2'
p782
sS'chunktype'
p783
S'head:NP'
p784
sS'vpos'
p785
S'vib_2'
p786
sS'cref'
p787
S'i8%1:t1'
p788
sS'drel'
p789
S'k1:VGF'
p790
ssbsg26
I00
sg27
I00
sg28
Nsg29
Nsg30
I0
sg31
I1
sg32
Nsg33
Nsg34
S'NNP'
p791
sg36
g768
sg37
I00
sba(issf_api
Word
p792
(dp793
g6
I00
sg7
V\u0928\u0947
p794
sg9
(issf_api
FeatureSet
p795
(dp796
g12
(dp797
S'posn'
p798
S'20'
p799
sS'name'
p800
S'\xe0\xa4\xa8\xe0\xa5\x87'
p801
sS'drel'
p802
S'lwg__psp:NP'
p803
sS'chunktype'
p804
S'child:NP'
p805
sS'af'
p806
S'\xe0\xa4\xa8\xe0\xa5\x87,psp,,,,,,'
p807
ssbsg26
I00
sg27
I00
sg28
Nsg29
Nsg30
I0
sg31
I1
sg32
Nsg33
Nsg34
S'PSP'
p808
sg36
g795
sg37
I00
sba(issf_api
Word
p809
(dp810
g6
I00
sg7
V\u0915\u0939\u093e
p811
sg9
(issf_api
FeatureSet
p812
(dp813
g12
(dp814
S'posn'
p815
S'30'
p816
sS'name'
p817
S'\xe0\xa4\x95\xe0\xa4\xb9\xe0\xa4\xbe'
p818
sS'af'
p819
S'\xe0\xa4\x95\xe0\xa4\xb9,v,m,sg,any,,\xe0\xa4\xaf\xe0\xa4\xbe,yA'
p820
sS'chunkid'
p821
S'VGF'
p822
sS'chunktype'
p823
S'head:VGF'
p824
sS'voicetype'
p825
S'active'
p826
sS'stype'
p827
S'declarative'
p828
ssbsg26
I00
sg27
I00
sg28
Nsg29
Nsg30
I1
sg31
I1
sg32
Nsg33
Nsg34
S'VM'
p829
sg36
g812
sg37
I00
sba(issf_api
Word
p830
(dp831
g6
I00
sg7
V\u0915\u093f
p832
sg9
(issf_api
FeatureSet
p833
(dp834
g12
(dp835
S'posn'
p836
S'40'
p837
sS'name'
p838
S'\xe0\xa4\x95\xe0\xa4\xbf'
p839
sS'af'
p840
S'\xe0\xa4\x95\xe0\xa4\xbf,avy,,,,,,'
p841
sS'chunkid'
p842
S'CCP'
p843
sS'drel'
p844
S'k2:VGF'
p845
sS'chunktype'
p846
S'head:CCP'
p847
ssbsg26
I00
sg27
I00
sg28
Nsg29
Nsg30
I2
sg31
I1
sg32
Nsg33
Nsg34
S'CC'
p848
sg36
g833
sg37
I00
sba(issf_api
Word
p849
(dp850
g6
I00
sg7
V\u0917\u0948\u0938
p851
sg9
(issf_api
FeatureSet
p852
(dp853
g12
(dp854
S'crefhead'
p855
S'\xe0\xa4\x97\xe0\xa5\x88\xe0\xa4\xb8:i10'
p856
sS'posn'
p857
S'50'
p858
sS'name'
p859
S'\xe0\xa4\x97\xe0\xa5\x88\xe0\xa4\xb8'
p860
sS'af'
p861
S'\xe0\xa4\x97\xe0\xa5\x88\xe0\xa4\xb8,n,f,sg,3,d,0,0'
p862
sS'creftype'
p863
S'Coreference-Identity:i6'
p864
sS'drel'
p865
S'pof__cn:NP2'
p866
sS'chunktype'
p867
S'child:NP2'
p868
sS'cref'
p869
S'i9%0:t3,i10%1:t5'
p870
ssbsg26
I00
sg27
I00
sg28
Nsg29
Nsg30
I3
sg31
I1
sg32
Nsg33
Nsg34
S'NNC'
p871
sg36
g852
sg37
I00
sba(issf_api
Word
p872
(dp873
g6
I00
sg7
V\u092a\u093e\u0907\u092a\u0932\u093e\u0907\u0928
p874
sg9
(issf_api
FeatureSet
p875
(dp876
g12
(dp877
S'crefhead'
p878
S'\xe0\xa4\xaa\xe0\xa4\xbe\xe0\xa4\x87\xe0\xa4\xaa\xe0\xa4\xb2\xe0\xa4\xbe\xe0\xa4\x87\xe0\xa4\xa8:i9'
p879
sS'posn'
p880
S'60'
p881
sS'name'
p882
S'\xe0\xa4\xaa\xe0\xa4\xbe\xe0\xa4\x87\xe0\xa4\xaa\xe0\xa4\xb2\xe0\xa4\xbe\xe0\xa4\x87\xe0\xa4\xa8'
p883
sS'af'
p884
S'\xe0\xa4\xaa\xe0\xa4\xbe\xe0\xa4\x87\xe0\xa4\xaa\xe0\xa4\xb2\xe0\xa4\xbe\xe0\xa4\x87\xe0\xa4\xa8,n,f,sg,3,o,0_\xe0\xa4\x95\xe0\xa5\x8b,0'
p885
sS'chunkid'
p886
S'NP2'
p887
sS'creftype'
p888
S'Coreference-Identity:i4'
p889
sS'chunktype'
p890
S'head:NP2'
p891
sS'vpos'
p892
S'vib_3'
p893
sS'cref'
p894
S'i9%1:t3'
p895
sS'drel'
p896
S'k2:NULL__VGF'
p897
ssbsg26
I00
sg27
I00
sg28
Nsg29
Nsg30
I3
sg31
I1
sg32
Nsg33
Nsg34
S'NN'
p898
sg36
g875
sg37
I00
sba(issf_api
Word
p899
(dp900
g6
I00
sg7
V\u0915\u094b
p901
sg9
(issf_api
FeatureSet
p902
(dp903
g12
(dp904
S'posn'
p905
S'70'
p906
sS'name'
p907
S'\xe0\xa4\x95\xe0\xa5\x8b'
p908
sS'drel'
p909
S'lwg__psp:NP2'
p910
sS'chunktype'
p911
S'child:NP2'
p912
sS'af'
p913
S'\xe0\xa4\x95\xe0\xa5\x8b,psp,,,,,,'
p914
ssbsg26
I00
sg27
I00
sg28
Nsg29
Nsg30
I3
sg31
I1
sg32
Nsg33
Nsg34
S'PSP'
p915
sg36
g902
sg37
I00
sba(issf_api
Word
p916
(dp917
g6
I00
sg7
V\u092e\u0915\u0930\u093e\u0928
p918
sg9
(issf_api
FeatureSet
p919
(dp920
g12
(dp921
S'posn'
p922
S'80'
p923
sS'name'
p924
S'\xe0\xa4\xae\xe0\xa4\x95\xe0\xa4\xb0\xe0\xa4\xbe\xe0\xa4\xa8'
p925
sS'drel'
p926
S'nmod__adj:NP3'
p927
sS'chunktype'
p928
S'child:NP3'
p929
sS'af'
p930
S'\xe0\xa4\xae\xe0\xa4\x95\xe0\xa4\xb0\xe0\xa4\xbe\xe0\xa4\xa8,n,m,sg,3,d,0,0'
p931
ssbsg26
I00
sg27
I00
sg28
Nsg29
Nsg30
I4
sg31
I1
sg32
Nsg33
Nsg34
S'NNP'
p932
sg36
g919
sg37
I00
sba(issf_api
Word
p933
(dp934
g6
I00
sg7
V\u0924\u091f
p935
sg9
(issf_api
FeatureSet
p936
(dp937
g12
(dp938
S'posn'
p939
S'90'
p940
sS'name'
p941
S'\xe0\xa4\xa4\xe0\xa4\x9f'
p942
sS'af'
p943
S'\xe0\xa4\xa4\xe0\xa4\x9f,n,m,sg,3,o,0_\xe0\xa4\x95\xe0\xa4\xbe,0'
p944
sS'chunkid'
p945
S'NP3'
p946
sS'drel'
p947
S'r6:NP4'
p948
sS'vpos'
p949
S'vib_vib_3'
p950
sS'chunktype'
p951
S'head:NP3'
p952
ssbsg26
I00
sg27
I00
sg28
Nsg29
Nsg30
I4
sg31
I1
sg32
Nsg33
Nsg34
S'NN'
p953
sg36
g936
sg37
I00
sba(issf_api
Word
p954
(dp955
g6
I00
sg7
V\u0915\u0947
p956
sg9
(issf_api
FeatureSet
p957
(dp958
g12
(dp959
S'posn'
p960
S'100'
p961
sS'name'
p962
S'\xe0\xa4\x95\xe0\xa5\x87'
p963
sS'drel'
p964
S'lwg__psp:NP3'
p965
sS'chunktype'
p966
S'child:NP3'
p967
sS'af'
p968
S'\xe0\xa4\x95\xe0\xa4\xbe,psp,m,sg,,o,,'
p969
ssbsg26
I00
sg27
I00
sg28
Nsg29
Nsg30
I4
sg31
I1
sg32
Nsg33
Nsg34
S'PSP'
p970
sg36
g957
sg37
I00
sba(issf_api
Word
p971
(dp972
g6
I00
sg7
V\u0915\u093f\u0928\u093e\u0930\u0947
p973
sg9
(issf_api
FeatureSet
p974
(dp975
g12
(dp976
S'posn'
p977
S'110'
p978
sS'name'
p979
S'\xe0\xa4\x95\xe0\xa4\xbf\xe0\xa4\xa8\xe0\xa4\xbe\xe0\xa4\xb0\xe0\xa5\x87'
p980
sS'af'
p981
S'\xe0\xa4\x95\xe0\xa4\xbf\xe0\xa4\xa8\xe0\xa4\xbe\xe0\xa4\xb0\xe0\xa4\xbe,n,m,sg,3,d,0,0'
p982
sS'chunkid'
p983
S'NP4'
p984
sS'drel'
p985
S'k7p:VGNF'
p986
sS'chunktype'
p987
S'head:NP4'
p988
ssbsg26
I00
sg27
I00
sg28
Nsg29
Nsg30
I5
sg31
I1
sg32
Nsg33
Nsg34
S'NN'
p989
sg36
g974
sg37
I00
sba(issf_api
Word
p990
(dp991
g6
I00
sg7
V-
p992
sg9
(issf_api
FeatureSet
p993
(dp994
g12
(dp995
S'posn'
p996
S'120'
p997
sS'name'
p998
g395
sS'drel'
p999
S'rsym:NP4'
p1000
sS'chunktype'
p1001
S'child:NP4'
p1002
sS'af'
p1003
S'-,punc,,,,,,'
p1004
ssbsg26
I00
sg27
I00
sg28
Nsg29
Nsg30
I5
sg31
I1
sg32
Nsg33
Nsg34
S'SYM'
p1005
sg36
g993
sg37
I00
sba(issf_api
Word
p1006
(dp1007
g6
I00
sg7
V\u0915\u093f\u0928\u093e\u0930\u0947
p1008
sg9
(issf_api
FeatureSet
p1009
(dp1010
g12
(dp1011
S'posn'
p1012
S'130'
p1013
sS'name'
p1014
S'\xe0\xa4\x95\xe0\xa4\xbf\xe0\xa4\xa8\xe0\xa4\xbe\xe0\xa4\xb0\xe0\xa5\x872'
p1015
sS'drel'
p1016
S'pof__redup:NP4'
p1017
sS'chunktype'
p1018
S'child:NP4'
p1019
sS'af'
p1020
S'\xe0\xa4\x95\xe0\xa4\xbf\xe0\xa4\xa8\xe0\xa4\xbe\xe0\xa4\xb0\xe0\xa4\xbe,n,m,sg,3,d,0,0'
p1021
ssbsg26
I00
sg27
I00
sg28
Nsg29
Nsg30
I5
sg31
I1
sg32
Nsg33
Nsg34
S'RDP'
p1022
sg36
g1009
sg37
I00
sba(issf_api
Word
p1023
(dp1024
g6
I00
sg7
V\u0939\u092c
p1025
sg9
(issf_api
FeatureSet
p1026
(dp1027
g12
(dp1028
S'posn'
p1029
S'140'
p1030
sS'name'
p1031
S'\xe0\xa4\xb9\xe0\xa4\xac'
p1032
sS'drel'
p1033
S'nmod__adj:NP5'
p1034
sS'chunktype'
p1035
S'child:NP5'
p1036
sS'af'
p1037
S'\xe0\xa4\xb9\xe0\xa4\xac,n,m,sg,3,d,0,0'
p1038
ssbsg26
I00
sg27
I00
sg28
Nsg29
Nsg30
I6
sg31
I1
sg32
Nsg33
Nsg34
S'NNP'
p1039
sg36
g1026
sg37
I00
sba(issf_api
Word
p1040
(dp1041
g6
I00
sg7
V\u091a\u094c\u0915
p1042
sg9
(issf_api
FeatureSet
p1043
(dp1044
g12
(dp1045
S'posn'
p1046
S'150'
p1047
sS'name'
p1048
S'\xe0\xa4\x9a\xe0\xa5\x8c\xe0\xa4\x95'
p1049
sS'af'
p1050
S'\xe0\xa4\x9a\xe0\xa5\x8c\xe0\xa4\x95,n,m,sg,3,d,0,0'
p1051
sS'chunkid'
p1052
S'NP5'
p1053
sS'drel'
p1054
S'k7p:VGNF'
p1055
sS'chunktype'
p1056
S'head:NP5'
p1057
ssbsg26
I00
sg27
I00
sg28
Nsg29
Nsg30
I6
sg31
I1
sg32
Nsg33
Nsg34
S'NN'
p1058
sg36
g1043
sg37
I00
sba(issf_api
Word
p1059
(dp1060
g6
I00
sg7
V\u0939\u094b\u0924\u0947
p1061
sg9
(issf_api
FeatureSet
p1062
(dp1063
g12
(dp1064
S'posn'
p1065
S'160'
p1066
sS'name'
p1067
S'\xe0\xa4\xb9\xe0\xa5\x8b\xe0\xa4\xa4\xe0\xa5\x87'
p1068
sS'af'
p1069
S'\xe0\xa4\xb9\xe0\xa5\x8b,v,m,sg,any,,\xe0\xa4\xa4\xe0\xa4\xbe_\xe0\xa4\xb9\xe0\xa5\x8b+\xe0\xa4\xaf\xe0\xa4\xbe,wA'
p1070
sS'chunkid'
p1071
S'VGNF'
p1072
sS'drel'
p1073
S'vmod:NULL__VGF'
p1074
sS'vpos'
p1075
S'tam_2'
p1076
sS'chunktype'
p1077
S'head:VGNF'
p1078
ssbsg26
I00
sg27
I00
sg28
Nsg29
Nsg30
I7
sg31
I1
sg32
Nsg33
Nsg34
S'VM'
p1079
sg36
g1062
sg37
I00
sba(issf_api
Word
p1080
(dp1081
g6
I00
sg7
V\u0939\u0941\u090f
p1082
sg9
(issf_api
FeatureSet
p1083
(dp1084
g12
(dp1085
S'posn'
p1086
S'170'
p1087
sS'name'
p1088
S'\xe0\xa4\xb9\xe0\xa5\x81\xe0\xa4\x8f'
p1089
sS'drel'
p1090
S'lwg__vaux:VGNF'
p1091
sS'chunktype'
p1092
S'child:VGNF'
p1093
sS'af'
p1094
S'\xe0\xa4\xb9\xe0\xa5\x8b,v,m,sg,any,,\xe0\xa4\xaf\xe0\xa4\xbe,yA'
p1095
ssbsg26
I00
sg27
I00
sg28
Nsg29
Nsg30
I7
sg31
I1
sg32
Nsg33
Nsg34
S'VAUX'
p1096
sg36
g1083
sg37
I00
sba(issf_api
Word
p1097
(dp1098
g6
I00
sg7
V\u0917\u094d\u0935\u093e\u0926\u0930
p1099
sg9
(issf_api
FeatureSet
p1100
(dp1101
g12
(dp1102
S'posn'
p1103
S'180'
p1104
sS'name'
p1105
S'\xe0\xa4\x97\xe0\xa5\x8d\xe0\xa4\xb5\xe0\xa4\xbe\xe0\xa4\xa6\xe0\xa4\xb0'
p1106
sS'af'
p1107
S'\xe0\xa4\x97\xe0\xa5\x8d\xe0\xa4\xb5\xe0\xa4\xbe\xe0\xa4\xa6\xe0\xa4\xb0,n,m,sg,3,o,0_\xe0\xa4\xb8\xe0\xa5\x87_\xe0\xa4\x86\xe0\xa4\x97\xe0\xa5\x87,0'
p1108
sS'chunkid'
p1109
S'NP6'
p1110
sS'drel'
p1111
S'k7p:NULL__VGF'
p1112
sS'vpos'
p1113
S'vib_2_3'
p1114
sS'chunktype'
p1115
S'head:NP6'
p1116
ssbsg26
I00
sg27
I00
sg28
Nsg29
Nsg30
I8
sg31
I1
sg32
Nsg33
Nsg34
S'NNP'
p1117
sg36
g1100
sg37
I00
sba(issf_api
Word
p1118
(dp1119
g6
I00
sg7
V\u0938\u0947
p1120
sg9
(issf_api
FeatureSet
p1121
(dp1122
g12
(dp1123
S'posn'
p1124
S'190'
p1125
sS'name'
p1126
S'\xe0\xa4\xb8\xe0\xa5\x87'
p1127
sS'drel'
p1128
S'lwg__psp:NP6'
p1129
sS'chunktype'
p1130
S'child:NP6'
p1131
sS'af'
p1132
S'\xe0\xa4\xb8\xe0\xa5\x87,psp,,,,,,'
p1133
ssbsg26
I00
sg27
I00
sg28
Nsg29
Nsg30
I8
sg31
I1
sg32
Nsg33
Nsg34
S'PSP'
p1134
sg36
g1121
sg37
I00
sba(issf_api
Word
p1135
(dp1136
g6
I00
sg7
V\u0906\u0917\u0947
p1137
sg9
(issf_api
FeatureSet
p1138
(dp1139
g12
(dp1140
S'posn'
p1141
S'200'
p1142
sS'name'
p1143
S'\xe0\xa4\x86\xe0\xa4\x97\xe0\xa5\x87'
p1144
sS'drel'
p1145
S'lwg__psp:NP6'
p1146
sS'chunktype'
p1147
S'child:NP6'
p1148
sS'af'
p1149
S'\xe0\xa4\x86\xe0\xa4\x97\xe0\xa5\x87,nst,m,sg,3,d,,'
p1150
ssbsg26
I00
sg27
I00
sg28
Nsg29
Nsg30
I8
sg31
I1
sg32
Nsg33
Nsg34
S'NST'
p1151
sg36
g1138
sg37
I00
sba(issf_api
Word
p1152
(dp1153
g6
I00
sg7
V\u0915\u0930\u093e\u0902\u091a\u0940
p1154
sg9
(issf_api
FeatureSet
p1155
(dp1156
g12
(dp1157
S'posn'
p1158
S'210'
p1159
sS'name'
p1160
S'\xe0\xa4\x95\xe0\xa4\xb0\xe0\xa4\xbe\xe0\xa4\x82\xe0\xa4\x9a\xe0\xa5\x80'
p1161
sS'af'
p1162
S'\xe0\xa4\x95\xe0\xa4\xb0\xe0\xa4\xbe\xe0\xa4\x82\xe0\xa4\x9a\xe0\xa5\x80,n,m,sg,3,d,0,0'
p1163
sS'chunkid'
p1164
S'NP7'
p1165
sS'drel'
p1166
S'k7p:NULL__VGF'
p1167
sS'chunktype'
p1168
S'head:NP7'
p1169
ssbsg26
I00
sg27
I00
sg28
Nsg29
Nsg30
I9
sg31
I1
sg32
Nsg33
Nsg34
S'NNP'
p1170
sg36
g1155
sg37
I00
sba(issf_api
Word
p1171
(dp1172
g6
I00
sg7
V,
p1173
sg9
(issf_api
FeatureSet
p1174
(dp1175
g12
(dp1176
S'name'
p1177
S','
p1178
sS'dmrel'
p1179
S'ccof:CCP2'
p1180
sS'chunkid'
p1181
S'NULL__VGF'
p1182
sS'mtype'
p1183
S'gap'
p1184
sS'troot'
p1185
S'\xe0\xa4\xb2\xe0\xa4\xbe'
p1186
sS'chunktype'
p1187
S'head:NULL__VGF'
p1188
sS'voicetype'
p1189
S'active'
p1190
sS'stype'
p1191
S'declarative'
p1192
ssbsg26
I00
sg27
I00
sg28
Nsg29
Nsg30
I10
sg31
I1
sg32
Nsg33
Nsg34
S'SYM'
p1193
sg36
g1174
sg37
I00
sba(issf_api
Word
p1194
(dp1195
g6
I00
sg7
V\u092b\u093f\u0930
p1196
sg9
(issf_api
FeatureSet
p1197
(dp1198
g12
(dp1199
S'posn'
p1200
S'230'
p1201
sS'name'
p1202
S'\xe0\xa4\xab\xe0\xa4\xbf\xe0\xa4\xb0'
p1203
sS'af'
p1204
S'\xe0\xa4\xab\xe0\xa4\xbf\xe0\xa4\xb0,adv,,,,,,'
p1205
sS'chunkid'
p1206
S'RBP'
p1207
sS'drel'
p1208
S'adv:NULL__VGF2'
p1209
sS'chunktype'
p1210
S'head:RBP'
p1211
ssbsg26
I00
sg27
I00
sg28
Nsg29
Nsg30
I11
sg31
I1
sg32
Nsg33
Nsg34
S'RB'
p1212
sg36
g1197
sg37
I00
sba(issf_api
Word
p1213
(dp1214
g6
I00
sg7
V\u0909\u092e\u0930\u0915\u094b\u091f
p1215
sg9
(issf_api
FeatureSet
p1216
(dp1217
g12
(dp1218
S'crefhead'
p1219
S'\xe0\xa4\x89\xe0\xa4\xae\xe0\xa4\xb0\xe0\xa4\x95\xe0\xa5\x8b\xe0\xa4\x9f:i11'
p1220
sS'posn'
p1221
S'240'
p1222
sS'name'
p1223
S'\xe0\xa4\x89\xe0\xa4\xae\xe0\xa4\xb0\xe0\xa4\x95\xe0\xa5\x8b\xe0\xa4\x9f'
p1224
sS'af'
p1225
S'\xe0\xa4\x89\xe0\xa4\xae\xe0\xa4\xb0\xe0\xa4\x95\xe0\xa5\x8b\xe0\xa4\x9f,n,m,sg,3,d,0,0'
p1226
sS'chunkid'
p1227
S'NP8'
p1228
sS'chunktype'
p1229
S'head:NP8'
p1230
sS'crefchainhead'
p1231
S'i11:t7'
p1232
sS'cref'
p1233
S'i11%0:t7'
p1234
sS'drel'
p1235
S'k7p:NULL__VGF2'
p1236
ssbsg26
I00
sg27
I00
sg28
Nsg29
Nsg30
I12
sg31
I1
sg32
Nsg33
Nsg34
S'NNP'
p1237
sg36
g1216
sg37
I00
sba(issf_api
Word
p1238
(dp1239
g6
I00
sg7
V\u0914\u0930
p1240
sg9
(issf_api
FeatureSet
p1241
(dp1242
g12
(dp1243
S'posn'
p1244
S'250'
p1245
sS'name'
p1246
S'\xe0\xa4\x94\xe0\xa4\xb0'
p1247
sS'af'
p1248
S'\xe0\xa4\x94\xe0\xa4\xb0,avy,,,,,,'
p1249
sS'chunkid'
p1250
S'CCP2'
p1251
sS'drel'
p1252
S'ccof:CCP'
p1253
sS'chunktype'
p1254
S'head:CCP2'
p1255
ssbsg26
I00
sg27
I00
sg28
Nsg29
Nsg30
I13
sg31
I1
sg32
Nsg33
Nsg34
S'CC'
p1256
sg36
g1241
sg37
I00
sba(issf_api
Word
p1257
(dp1258
g6
I00
sg7
V\u092f\u0939\u093e\u0902
p1259
sg9
(issf_api
FeatureSet
p1260
(dp1261
g12
(dp1262
S'crefhead'
p1263
S'\xe0\xa4\xaf\xe0\xa4\xb9\xe0\xa4\xbe\xe0\xa4\x82:i12'
p1264
sS'posn'
p1265
S'260'
p1266
sS'name'
p1267
S'\xe0\xa4\xaf\xe0\xa4\xb9\xe0\xa4\xbe\xe0\xa4\x82'
p1268
sS'af'
p1269
S'\xe0\xa4\xaf\xe0\xa4\xb9\xe0\xa4\xbe\xe0\xa4\x81,pn,,,,o,0_\xe0\xa4\xb8\xe0\xa5\x87,'
p1270
sS'chunkid'
p1271
S'NP9'
p1272
sS'creftype'
p1273
S'Anaphora-C:i11'
p1274
sS'chunktype'
p1275
S'head:NP9'
p1276
sS'vpos'
p1277
S'vib_2'
p1278
sS'cref'
p1279
S'i12%1:t7'
p1280
sS'drel'
p1281
S'k7p:VGF2'
p1282
ssbsg26
I00
sg27
I00
sg28
Nsg29
Nsg30
I14
sg31
I1
sg32
Nsg33
Nsg34
S'PRP'
p1283
sg36
g1260
sg37
I00
sba(issf_api
Word
p1284
(dp1285
g6
I00
sg7
V\u0938\u0947
p1286
sg9
(issf_api
FeatureSet
p1287
(dp1288
g12
(dp1289
S'posn'
p1290
S'270'
p1291
sS'name'
p1292
S'\xe0\xa4\xb8\xe0\xa5\x872'
p1293
sS'drel'
p1294
S'lwg__psp:NP9'
p1295
sS'chunktype'
p1296
S'child:NP9'
p1297
sS'af'
p1298
S'\xe0\xa4\xb8\xe0\xa5\x87,psp,,,,,,'
p1299
ssbsg26
I00
sg27
I00
sg28
Nsg29
Nsg30
I14
sg31
I1
sg32
Nsg33
Nsg34
S'PSP'
p1300
sg36
g1287
sg37
I00
sba(issf_api
Word
p1301
(dp1302
g6
I00
sg7
V\u092e\u0941\u0928\u093e\u092c\u093e\u0913
p1303
sg9
(issf_api
FeatureSet
p1304
(dp1305
g12
(dp1306
S'posn'
p1307
S'280'
p1308
sS'name'
p1309
S'\xe0\xa4\xae\xe0\xa5\x81\xe0\xa4\xa8\xe0\xa4\xbe\xe0\xa4\xac\xe0\xa4\xbe\xe0\xa4\x93'
p1310
sS'drel'
p1311
S'nmod__adj:NP10'
p1312
sS'chunktype'
p1313
S'child:NP10'
p1314
sS'af'
p1315
S'\xe0\xa4\xae\xe0\xa5\x81\xe0\xa4\xa8\xe0\xa4\xbe\xe0\xa4\xac\xe0\xa4\xbe\xe0\xa4\x93,n,m,sg,3,d,0,0'
p1316
ssbsg26
I00
sg27
I00
sg28
Nsg29
Nsg30
I15
sg31
I1
sg32
Nsg33
Nsg34
S'NNP'
p1317
sg36
g1304
sg37
I00
sba(issf_api
Word
p1318
(dp1319
g6
I00
sg7
V-
p1320
sg9
(issf_api
FeatureSet
p1321
(dp1322
g12
(dp1323
S'posn'
p1324
S'290'
p1325
sS'name'
p1326
S'-2'
p1327
sS'drel'
p1328
S'rsym:NP10'
p1329
sS'chunktype'
p1330
S'child:NP10'
p1331
sS'af'
p1332
S'-,punc,,,,,,'
p1333
ssbsg26
I00
sg27
I00
sg28
Nsg29
Nsg30
I15
sg31
I1
sg32
Nsg33
Nsg34
S'SYM'
p1334
sg36
g1321
sg37
I00
sba(issf_api
Word
p1335
(dp1336
g6
I00
sg7
V\u0916\u094b\u0916\u0930\u093e\u092c\u093e\u0926
p1337
sg9
(issf_api
FeatureSet
p1338
(dp1339
g12
(dp1340
S'posn'
p1341
S'300'
p1342
sS'name'
p1343
S'\xe0\xa4\x96\xe0\xa5\x8b\xe0\xa4\x96\xe0\xa4\xb0\xe0\xa4\xbe\xe0\xa4\xac\xe0\xa4\xbe\xe0\xa4\xa6'
p1344
sS'drel'
p1345
S'nmod__adj:NP10'
p1346
sS'chunktype'
p1347
S'child:NP10'
p1348
sS'af'
p1349
S'\xe0\xa4\x96\xe0\xa5\x8b\xe0\xa4\x96\xe0\xa4\xb0\xe0\xa4\xbe\xe0\xa4\xac\xe0\xa4\xbe\xe0\xa4\xa6,n,m,sg,3,d,0,0'
p1350
ssbsg26
I00
sg27
I00
sg28
Nsg29
Nsg30
I15
sg31
I1
sg32
Nsg33
Nsg34
S'NNP'
p1351
sg36
g1338
sg37
I00
sba(issf_api
Word
p1352
(dp1353
g6
I00
sg7
V\u0915\u094d\u0930\u0949\u0938\u093f\u0902\u0917
p1354
sg9
(issf_api
FeatureSet
p1355
(dp1356
g12
(dp1357
S'posn'
p1358
S'310'
p1359
sS'name'
p1360
S'\xe0\xa4\x95\xe0\xa5\x8d\xe0\xa4\xb0\xe0\xa5\x89\xe0\xa4\xb8\xe0\xa4\xbf\xe0\xa4\x82\xe0\xa4\x97'
p1361
sS'af'
p1362
S'\xe0\xa4\x95\xe0\xa5\x8d\xe0\xa4\xb0\xe0\xa5\x89\xe0\xa4\xb8\xe0\xa4\xbf\xe0\xa4\x82\xe0\xa4\x97,n,f,sg,3,o,0_\xe0\xa4\xa4\xe0\xa4\x95,0'
p1363
sS'chunkid'
p1364
S'NP10'
p1365
sS'drel'
p1366
S'k7p:VGF2'
p1367
sS'vpos'
p1368
S'vib_vib_vib_5'
p1369
sS'chunktype'
p1370
S'head:NP10'
p1371
ssbsg26
I00
sg27
I00
sg28
Nsg29
Nsg30
I15
sg31
I1
sg32
Nsg33
Nsg34
S'NN'
p1372
sg36
g1355
sg37
I00
sba(issf_api
Word
p1373
(dp1374
g6
I00
sg7
V\u0924\u0915
p1375
sg9
(issf_api
FeatureSet
p1376
(dp1377
g12
(dp1378
S'posn'
p1379
S'320'
p1380
sS'name'
p1381
S'\xe0\xa4\xa4\xe0\xa4\x95'
p1382
sS'drel'
p1383
S'lwg__psp:NP10'
p1384
sS'chunktype'
p1385
S'child:NP10'
p1386
sS'af'
p1387
S'\xe0\xa4\xa4\xe0\xa4\x95,psp,,,,,,'
p1388
ssbsg26
I00
sg27
I00
sg28
Nsg29
Nsg30
I15
sg31
I1
sg32
Nsg33
Nsg34
S'PSP'
p1389
sg36
g1376
sg37
I00
sba(issf_api
Word
p1390
(dp1391
g6
I00
sg7
V\u0932\u093e\u092f\u093e
p1392
sg9
(issf_api
FeatureSet
p1393
(dp1394
g12
(dp1395
S'posn'
p1396
S'330'
p1397
sS'name'
p1398
S'\xe0\xa4\xb2\xe0\xa4\xbe\xe0\xa4\xaf\xe0\xa4\xbe'
p1399
sS'af'
p1400
S'\xe0\xa4\xb2\xe0\xa4\xbe,v,m,any,any,,\xe0\xa4\xaf\xe0\xa4\xbe_\xe0\xa4\x9c\xe0\xa4\xbe+\xe0\xa4\xa8\xe0\xa4\xbe_\xe0\xa4\x9a\xe0\xa4\xbe\xe0\xa4\xb9\xe0\xa4\xbf\xe0\xa4\x8f,yA'
p1401
sS'chunkid'
p1402
S'VGF2'
p1403
sS'stype'
p1404
S'declarative'
p1405
sS'drel'
p1406
S'ccof:CCP2'
p1407
sS'voicetype'
p1408
S'passive'
p1409
sS'vpos'
p1410
S'tam_2_3'
p1411
sS'chunktype'
p1412
S'head:VGF2'
p1413
ssbsg26
I00
sg27
I00
sg28
Nsg29
Nsg30
I16
sg31
I1
sg32
Nsg33
Nsg34
S'VM'
p1414
sg36
g1393
sg37
I00
sba(issf_api
Word
p1415
(dp1416
g6
I00
sg7
V\u091c\u093e\u0928\u093e
p1417
sg9
(issf_api
FeatureSet
p1418
(dp1419
g12
(dp1420
S'posn'
p1421
S'340'
p1422
sS'name'
p1423
S'\xe0\xa4\x9c\xe0\xa4\xbe\xe0\xa4\xa8\xe0\xa4\xbe'
p1424
sS'drel'
p1425
S'lwg__vaux:VGF2'
p1426
sS'chunktype'
p1427
S'child:VGF2'
p1428
sS'af'
p1429
S'\xe0\xa4\x9c\xe0\xa4\xbe,v,m,sg,any,,\xe0\xa4\xa8\xe0\xa4\xbe,nA'
p1430
ssbsg26
I00
sg27
I00
sg28
Nsg29
Nsg30
I16
sg31
I1
sg32
Nsg33
Nsg34
S'VAUX'
p1431
sg36
g1418
sg37
I00
sba(issf_api
Word
p1432
(dp1433
g6
I00
sg7
V\u091a\u093e\u0939\u093f\u090f
p1434
sg9
(issf_api
FeatureSet
p1435
(dp1436
g12
(dp1437
S'posn'
p1438
S'350'
p1439
sS'name'
p1440
S'\xe0\xa4\x9a\xe0\xa4\xbe\xe0\xa4\xb9\xe0\xa4\xbf\xe0\xa4\x8f'
p1441
sS'drel'
p1442
S'lwg__vaux:VGF2'
p1443
sS'chunktype'
p1444
S'child:VGF2'
p1445
sS'af'
p1446
S'\xe0\xa4\x9a\xe0\xa4\xbe\xe0\xa4\xb9\xe0\xa4\xbf\xe0\xa4\x8f,v,any,any,any,,0,0'
p1447
ssbsg26
I00
sg27
I00
sg28
Nsg29
Nsg30
I16
sg31
I1
sg32
Nsg33
Nsg34
S'VAUX'
p1448
sg36
g1435
sg37
I00
sba(issf_api
Word
p1449
(dp1450
g6
I00
sg7
V\u0964
p1451
sg9
(issf_api
FeatureSet
p1452
(dp1453
g12
(dp1454
S'posn'
p1455
S'360'
p1456
sS'name'
p1457
S'\xe0\xa5\xa4'
p1458
sS'af'
p1459
S'\xe0\xa5\xa4,punc,,,,,,'
p1460
sS'chunkid'
p1461
S'BLK'
p1462
sS'drel'
p1463
S'rsym:VGF'
p1464
sS'chunktype'
p1465
S'head:BLK'
p1466
ssbsg26
I00
sg27
I00
sg28
Nsg29
Nsg30
I17
sg31
I1
sg32
Nsg33
Nsg34
S'SYM'
p1467
sg36
g1452
sg37
I00
sba(issf_api
Word
p1468
(dp1469
g6
I00
sg7
V\u092a\u0947\u091f\u094d\u0930\u094b\u0932\u093f\u092f\u092e
p1470
sg9
(issf_api
FeatureSet
p1471
(dp1472
g12
(dp1473
S'posn'
p1474
S'10'
p1475
sS'name'
p1476
S'\xe0\xa4\xaa\xe0\xa5\x87\xe0\xa4\x9f\xe0\xa5\x8d\xe0\xa4\xb0\xe0\xa5\x8b\xe0\xa4\xb2\xe0\xa4\xbf\xe0\xa4\xaf\xe0\xa4\xae'
p1477
sS'af'
p1478
S'\xe0\xa4\xaa\xe0\xa5\x87\xe0\xa4\x9f\xe0\xa5\x8d\xe0\xa4\xb0\xe0\xa5\x8b\xe0\xa4\xb2\xe0\xa4\xbf\xe0\xa4\xaf\xe0\xa4\xae,n,m,sg,3,d,0,0'
p1479
sS'acrefmod'
p1480
S'm1%0:i13'
p1481
sS'drel'
p1482
S'pof__cn:NP'
p1483
sS'chunktype'
p1484
S'child:NP'
p1485
ssbsg26
I00
sg27
I00
sg28
Nsg29
Nsg30
I0
sg31
I2
sg32
Nsg33
Nsg34
S'NNPC'
p1486
sg36
g1471
sg37
I00
sba(issf_api
Word
p1487
(dp1488
g6
I00
sg7
V\u092e\u0902\u0924\u094d\u0930\u093e\u0932\u092f
p1489
sg9
(issf_api
FeatureSet
p1490
(dp1491
g12
(dp1492
S'posn'
p1493
S'20'
p1494
sS'name'
p1495
S'\xe0\xa4\xae\xe0\xa4\x82\xe0\xa4\xa4\xe0\xa5\x8d\xe0\xa4\xb0\xe0\xa4\xbe\xe0\xa4\xb2\xe0\xa4\xaf'
p1496
sS'af'
p1497
S'\xe0\xa4\xae\xe0\xa4\x82\xe0\xa4\xa4\xe0\xa5\x8d\xe0\xa4\xb0\xe0\xa4\xbe\xe0\xa4\xb2\xe0\xa4\xaf,n,m,sg,3,o,0_\xe0\xa4\x95\xe0\xa4\xbe,0'
p1498
sS'acrefmodhead'
p1499
S'\xe0\xa4\xae\xe0\xa4\x82\xe0\xa4\xa4\xe0\xa5\x8d\xe0\xa4\xb0\xe0\xa4\xbe\xe0\xa4\xb2\xe0\xa4\xaf:m1'
p1500
sS'chunkid'
p1501
S'NP'
p1502
sS'acrefmod'
p1503
S'm1%1:i13'
p1504
sS'drel'
p1505
S'r6:NP2'
p1506
sS'vpos'
p1507
S'vib_3'
p1508
sS'chunktype'
p1509
S'head:NP'
p1510
ssbsg26
I00
sg27
I00
sg28
Nsg29
Nsg30
I0
sg31
I2
sg32
Nsg33
Nsg34
S'NNP'
p1511
sg36
g1490
sg37
I00
sba(issf_api
Word
p1512
(dp1513
g6
I00
sg7
V\u0915\u0947
p1514
sg9
(issf_api
FeatureSet
p1515
(dp1516
g12
(dp1517
S'posn'
p1518
S'30'
p1519
sS'name'
p1520
S'\xe0\xa4\x95\xe0\xa5\x87'
p1521
sS'drel'
p1522
S'lwg__psp:NP'
p1523
sS'chunktype'
p1524
S'child:NP'
p1525
sS'af'
p1526
S'\xe0\xa4\x95\xe0\xa4\xbe,psp,m,sg,,o,,'
p1527
ssbsg26
I00
sg27
I00
sg28
Nsg29
Nsg30
I0
sg31
I2
sg32
Nsg33
Nsg34
S'PSP'
p1528
sg36
g1515
sg37
I00
sba(issf_api
Word
p1529
(dp1530
g6
I00
sg7
V\u0905\u0927\u093f\u0915\u093e\u0930\u093f\u092f\u094b\u0902
p1531
sg9
(issf_api
FeatureSet
p1532
(dp1533
g12
(dp1534
S'crefhead'
p1535
S'\xe0\xa4\x85\xe0\xa4\xa7\xe0\xa4\xbf\xe0\xa4\x95\xe0\xa4\xbe\xe0\xa4\xb0\xe0\xa4\xbf\xe0\xa4\xaf\xe0\xa5\x8b\xe0\xa4\x82:i13'
p1536
sS'posn'
p1537
S'40'
p1538
sS'name'
p1539
S'\xe0\xa4\x85\xe0\xa4\xa7\xe0\xa4\xbf\xe0\xa4\x95\xe0\xa4\xbe\xe0\xa4\xb0\xe0\xa4\xbf\xe0\xa4\xaf\xe0\xa5\x8b\xe0\xa4\x82'
p1540
sS'af'
p1541
S'\xe0\xa4\x85\xe0\xa4\xa7\xe0\xa4\xbf\xe0\xa4\x95\xe0\xa4\xbe\xe0\xa4\xb0\xe0\xa5\x80,n,m,pl,3,o,0_\xe0\xa4\xa8\xe0\xa5\x87,0'
p1542
sS'chunkid'
p1543
S'NP2'
p1544
sS'crefmod'
p1545
S'm1:i13'
p1546
sS'chunktype'
p1547
S'head:NP2'
p1548
sS'crefchainhead'
p1549
S'i13:t8'
p1550
sS'vpos'
p1551
S'vib_2'
p1552
sS'cref'
p1553
S'i13%1:t8'
p1554
sS'drel'
p1555
S'k1:VGF'
p1556
ssbsg26
I00
sg27
I00
sg28
Nsg29
Nsg30
I1
sg31
I2
sg32
Nsg33
Nsg34
S'NN'
p1557
sg36
g1532
sg37
I00
sba(issf_api
Word
p1558
(dp1559
g6
I00
sg7
V\u0928\u0947
p1560
sg9
(issf_api
FeatureSet
p1561
(dp1562
g12
(dp1563
S'posn'
p1564
S'50'
p1565
sS'name'
p1566
S'\xe0\xa4\xa8\xe0\xa5\x87'
p1567
sS'drel'
p1568
S'lwg__psp:NP2'
p1569
sS'chunktype'
p1570
S'child:NP2'
p1571
sS'af'
p1572
S'\xe0\xa4\xa8\xe0\xa5\x87,psp,,,,,,'
p1573
ssbsg26
I00
sg27
I00
sg28
Nsg29
Nsg30
I1
sg31
I2
sg32
Nsg33
Nsg34
S'PSP'
p1574
sg36
g1561
sg37
I00
sba(issf_api
Word
p1575
(dp1576
g6
I00
sg7
V\u092c\u0924\u093e\u092f\u093e
p1577
sg9
(issf_api
FeatureSet
p1578
(dp1579
g12
(dp1580
S'posn'
p1581
S'60'
p1582
sS'name'
p1583
S'\xe0\xa4\xac\xe0\xa4\xa4\xe0\xa4\xbe\xe0\xa4\xaf\xe0\xa4\xbe'
p1584
sS'af'
p1585
S'\xe0\xa4\xac\xe0\xa4\xa4\xe0\xa4\xbe,v,m,sg,any,,\xe0\xa4\xaf\xe0\xa4\xbe,yA'
p1586
sS'chunkid'
p1587
S'VGF'
p1588
sS'chunktype'
p1589
S'head:VGF'
p1590
sS'voicetype'
p1591
S'active'
p1592
sS'stype'
p1593
S'declarative'
p1594
ssbsg26
I00
sg27
I00
sg28
Nsg29
Nsg30
I2
sg31
I2
sg32
Nsg33
Nsg34
S'VM'
p1595
sg36
g1578
sg37
I00
sba(issf_api
Word
p1596
(dp1597
g6
I00
sg7
V\u0915\u093f
p1598
sg9
(issf_api
FeatureSet
p1599
(dp1600
g12
(dp1601
S'posn'
p1602
S'70'
p1603
sS'name'
p1604
S'\xe0\xa4\x95\xe0\xa4\xbf'
p1605
sS'af'
p1606
S'\xe0\xa4\x95\xe0\xa4\xbf,avy,,,,,,'
p1607
sS'chunkid'
p1608
S'CCP'
p1609
sS'drel'
p1610
S'k2:VGF'
p1611
sS'chunktype'
p1612
S'head:CCP'
p1613
ssbsg26
I00
sg27
I00
sg28
Nsg29
Nsg30
I3
sg31
I2
sg32
Nsg33
Nsg34
S'CC'
p1614
sg36
g1599
sg37
I00
sba(issf_api
Word
p1615
(dp1616
g6
I00
sg7
V\u092d\u093e\u0930\u0924\u0940\u092f
p1617
sg9
(issf_api
FeatureSet
p1618
(dp1619
g12
(dp1620
S'posn'
p1621
S'80'
p1622
sS'name'
p1623
S'\xe0\xa4\xad\xe0\xa4\xbe\xe0\xa4\xb0\xe0\xa4\xa4\xe0\xa5\x80\xe0\xa4\xaf'
p1624
sS'drel'
p1625
S'nmod__adj:NP3'
p1626
sS'chunktype'
p1627
S'child:NP3'
p1628
sS'af'
p1629
S'\xe0\xa4\xad\xe0\xa4\xbe\xe0\xa4\xb0\xe0\xa4\xa4\xe0\xa5\x80\xe0\xa4\xaf,adj,any,any,,o,,'
p1630
ssbsg26
I00
sg27
I00
sg28
Nsg29
Nsg30
I4
sg31
I2
sg32
Nsg33
Nsg34
S'JJ'
p1631
sg36
g1618
sg37
I00
sba(issf_api
Word
p1632
(dp1633
g6
I00
sg7
V\u0938\u0940\u092e\u093e
p1634
sg9
(issf_api
FeatureSet
p1635
(dp1636
g12
(dp1637
S'posn'
p1638
S'90'
p1639
sS'name'
p1640
S'\xe0\xa4\xb8\xe0\xa5\x80\xe0\xa4\xae\xe0\xa4\xbe'
p1641
sS'af'
p1642
S'\xe0\xa4\xb8\xe0\xa5\x80\xe0\xa4\xae\xe0\xa4\xbe,n,f,sg,3,o,0_\xe0\xa4\xaa\xe0\xa4\xb0,0'
p1643
sS'chunkid'
p1644
S'NP3'
p1645
sS'drel'
p1646
S'k7p:VGF2'
p1647
sS'vpos'
p1648
S'vib_3'
p1649
sS'chunktype'
p1650
S'head:NP3'
p1651
ssbsg26
I00
sg27
I00
sg28
Nsg29
Nsg30
I4
sg31
I2
sg32
Nsg33
Nsg34
S'NN'
p1652
sg36
g1635
sg37
I00
sba(issf_api
Word
p1653
(dp1654
g6
I00
sg7
V\u092a\u0930
p1655
sg9
(issf_api
FeatureSet
p1656
(dp1657
g12
(dp1658
S'posn'
p1659
S'100'
p1660
sS'name'
p1661
S'\xe0\xa4\xaa\xe0\xa4\xb0'
p1662
sS'drel'
p1663
S'lwg__psp:NP3'
p1664
sS'chunktype'
p1665
S'child:NP3'
p1666
sS'af'
p1667
S'\xe0\xa4\xaa\xe0\xa4\xb0,psp,,,,,,'
p1668
ssbsg26
I00
sg27
I00
sg28
Nsg29
Nsg30
I4
sg31
I2
sg32
Nsg33
Nsg34
S'PSP'
p1669
sg36
g1656
sg37
I00
sba(issf_api
Word
p1670
(dp1671
g6
I00
sg7
V\u0917\u0948\u0938
p1672
sg9
(issf_api
FeatureSet
p1673
(dp1674
g12
(dp1675
S'crefhead'
p1676
S'\xe0\xa4\x97\xe0\xa5\x88\xe0\xa4\xb8:i14'
p1677
sS'posn'
p1678
S'110'
p1679
sS'name'
p1680
S'\xe0\xa4\x97\xe0\xa5\x88\xe0\xa4\xb8'
p1681
sS'af'
p1682
S'\xe0\xa4\x97\xe0\xa5\x88\xe0\xa4\xb8,n,f,sg,3,o,0_\xe0\xa4\x95\xe0\xa4\xbe,0'
p1683
sS'chunkid'
p1684
S'NP4'
p1685
sS'creftype'
p1686
S'Coreference-Identity:i10'
p1687
sS'chunktype'
p1688
S'head:NP4'
p1689
sS'vpos'
p1690
S'vib_2'
p1691
sS'cref'
p1692
S'i14%1:t5'
p1693
sS'drel'
p1694
S'r6:NP5'
p1695
ssbsg26
I00
sg27
I00
sg28
Nsg29
Nsg30
I5
sg31
I2
sg32
Nsg33
Nsg34
S'NN'
p1696
sg36
g1673
sg37
I00
sba(issf_api
Word
p1697
(dp1698
g6
I00
sg7
V\u0915\u0940
p1699
sg9
(issf_api
FeatureSet
p1700
(dp1701
g12
(dp1702
S'posn'
p1703
S'120'
p1704
sS'name'
p1705
S'\xe0\xa4\x95\xe0\xa5\x80'
p1706
sS'drel'
p1707
S'lwg__psp:NP4'
p1708
sS'chunktype'
p1709
S'child:NP4'
p1710
sS'af'
p1711
S'\xe0\xa4\x95\xe0\xa4\xbe,psp,f,sg,,o,,'
p1712
ssbsg26
I00
sg27
I00
sg28
Nsg29
Nsg30
I5
sg31
I2
sg32
Nsg33
Nsg34
S'PSP'
p1713
sg36
g1700
sg37
I00
sba(issf_api
Word
p1714
(dp1715
g6
I00
sg7
V\u0921\u093f\u0932\u0940\u0935\u0930\u0940
p1716
sg9
(issf_api
FeatureSet
p1717
(dp1718
g12
(dp1719
S'posn'
p1720
S'130'
p1721
sS'name'
p1722
S'\xe0\xa4\xa1\xe0\xa4\xbf\xe0\xa4\xb2\xe0\xa5\x80\xe0\xa4\xb5\xe0\xa4\xb0\xe0\xa5\x80'
p1723
sS'af'
p1724
S'\xe0\xa4\xa1\xe0\xa4\xbf\xe0\xa4\xb2\xe0\xa5\x80\xe0\xa4\xb5\xe0\xa4\xb0\xe0\xa5\x80,n,f,sg,3,o,0_\xe0\xa4\x95\xe0\xa5\x87_\xe0\xa4\xb2\xe0\xa4\xbf\xe0\xa4\x8f,0'
p1725
sS'chunkid'
p1726
S'NP5'
p1727
sS'drel'
p1728
S'rt:VGF2'
p1729
sS'vpos'
p1730
S'vib_2_3'
p1731
sS'chunktype'
p1732
S'head:NP5'
p1733
ssbsg26
I00
sg27
I00
sg28
Nsg29
Nsg30
I6
sg31
I2
sg32
Nsg33
Nsg34
S'NN'
p1734
sg36
g1717
sg37
I00
sba(issf_api
Word
p1735
(dp1736
g6
I00
sg7
V\u0915\u0947
p1737
sg9
(issf_api
FeatureSet
p1738
(dp1739
g12
(dp1740
S'posn'
p1741
S'140'
p1742
sS'name'
p1743
S'\xe0\xa4\x95\xe0\xa5\x872'
p1744
sS'drel'
p1745
S'lwg__psp:NP5'
p1746
sS'chunktype'
p1747
S'child:NP5'
p1748
sS'af'
p1749
S'\xe0\xa4\x95\xe0\xa5\x87,psp,,,,,,'
p1750
ssbsg26
I00
sg27
I00
sg28
Nsg29
Nsg30
I6
sg31
I2
sg32
Nsg33
Nsg34
S'PSP'
p1751
sg36
g1738
sg37
I00
sba(issf_api
Word
p1752
(dp1753
g6
I00
sg7
V\u0932\u093f\u090f
p1754
sg9
(issf_api
FeatureSet
p1755
(dp1756
g12
(dp1757
S'posn'
p1758
S'150'
p1759
sS'name'
p1760
S'\xe0\xa4\xb2\xe0\xa4\xbf\xe0\xa4\x8f'
p1761
sS'drel'
p1762
S'lwg__psp:NP5'
p1763
sS'chunktype'
p1764
S'child:NP5'
p1765
sS'af'
p1766
S'\xe0\xa4\xb2\xe0\xa4\xbf\xe0\xa4\x8f,psp,,,,,,'
p1767
ssbsg26
I00
sg27
I00
sg28
Nsg29
Nsg30
I6
sg31
I2
sg32
Nsg33
Nsg34
S'PSP'
p1768
sg36
g1755
sg37
I00
sba(issf_api
Word
p1769
(dp1770
g6
I00
sg7
V\u0908\u0930\u093e\u0928
p1771
sg9
(issf_api
FeatureSet
p1772
(dp1773
g12
(dp1774
S'crefhead'
p1775
S'\xe0\xa4\x88\xe0\xa4\xb0\xe0\xa4\xbe\xe0\xa4\xa8:i15'
p1776
sS'posn'
p1777
S'160'
p1778
sS'name'
p1779
S'\xe0\xa4\x88\xe0\xa4\xb0\xe0\xa4\xbe\xe0\xa4\xa8'
p1780
sS'af'
p1781
S'\xe0\xa4\x88\xe0\xa4\xb0\xe0\xa4\xbe\xe0\xa4\xa8,n,m,sg,3,o,0_\xe0\xa4\x95\xe0\xa5\x87_\xe0\xa4\xb8\xe0\xa4\xbe\xe0\xa4\xa5,0'
p1782
sS'chunkid'
p1783
S'NP6'
p1784
sS'creftype'
p1785
S'Coreference-Identity:i3'
p1786
sS'chunktype'
p1787
S'head:NP6'
p1788
sS'vpos'
p1789
S'vib_2_3'
p1790
sS'cref'
p1791
S'i15%1:t2'
p1792
sS'drel'
p1793
S'ras-k1:VGF2'
p1794
ssbsg26
I00
sg27
I00
sg28
Nsg29
Nsg30
I7
sg31
I2
sg32
Nsg33
Nsg34
S'NNP'
p1795
sg36
g1772
sg37
I00
sba(issf_api
Word
p1796
(dp1797
g6
I00
sg7
V\u0915\u0947
p1798
sg9
(issf_api
FeatureSet
p1799
(dp1800
g12
(dp1801
S'posn'
p1802
S'170'
p1803
sS'name'
p1804
S'\xe0\xa4\x95\xe0\xa5\x873'
p1805
sS'drel'
p1806
S'lwg__psp:NP6'
p1807
sS'chunktype'
p1808
S'child:NP6'
p1809
sS'af'
p1810
S'\xe0\xa4\x95\xe0\xa5\x87,psp,,,,,,'
p1811
ssbsg26
I00
sg27
I00
sg28
Nsg29
Nsg30
I7
sg31
I2
sg32
Nsg33
Nsg34
S'PSP'
p1812
sg36
g1799
sg37
I00
sba(issf_api
Word
p1813
(dp1814
g6
I00
sg7
V\u0938\u093e\u0925
p1815
sg9
(issf_api
FeatureSet
p1816
(dp1817
g12
(dp1818
S'posn'
p1819
S'180'
p1820
sS'name'
p1821
S'\xe0\xa4\xb8\xe0\xa4\xbe\xe0\xa4\xa5'
p1822
sS'drel'
p1823
S'lwg__psp:NP6'
p1824
sS'chunktype'
p1825
S'child:NP6'
p1826
sS'af'
p1827
S'\xe0\xa4\xb8\xe0\xa4\xbe\xe0\xa4\xa5,nst,m,sg,3,d,,'
p1828
ssbsg26
I00
sg27
I00
sg28
Nsg29
Nsg30
I7
sg31
I2
sg32
Nsg33
Nsg34
S'NST'
p1829
sg36
g1816
sg37
I00
sba(issf_api
Word
p1830
(dp1831
g6
I00
sg7
V\u0915\u0930\u093e\u0930
p1832
sg9
(issf_api
FeatureSet
p1833
(dp1834
g12
(dp1835
S'posn'
p1836
S'190'
p1837
sS'name'
p1838
S'\xe0\xa4\x95\xe0\xa4\xb0\xe0\xa4\xbe\xe0\xa4\xb0'
p1839
sS'af'
p1840
S'\xe0\xa4\x95\xe0\xa4\xb0\xe0\xa4\xbe\xe0\xa4\xb0,n,m,sg,3,d,0,0'
p1841
sS'chunkid'
p1842
S'NP7'
p1843
sS'drel'
p1844
S'k1:VGF2'
p1845
sS'chunktype'
p1846
S'head:NP7'
p1847
ssbsg26
I00
sg27
I00
sg28
Nsg29
Nsg30
I8
sg31
I2
sg32
Nsg33
Nsg34
S'NN'
p1848
sg36
g1833
sg37
I00
sba(issf_api
Word
p1849
(dp1850
g6
I00
sg7
V\u091c\u0942\u0928
p1851
sg9
(issf_api
FeatureSet
p1852
(dp1853
g12
(dp1854
S'posn'
p1855
S'200'
p1856
sS'name'
p1857
S'\xe0\xa4\x9c\xe0\xa5\x82\xe0\xa4\xa8'
p1858
sS'af'
p1859
S'\xe0\xa4\x9c\xe0\xa5\x82\xe0\xa4\xa8,n,m,sg,3,o,0_\xe0\xa4\xae\xe0\xa5\x87\xe0\xa4\x82,0'
p1860
sS'chunkid'
p1861
S'NP8'
p1862
sS'drel'
p1863
S'k7t:VGF2'
p1864
sS'vpos'
p1865
S'vib_2'
p1866
sS'chunktype'
p1867
S'head:NP8'
p1868
ssbsg26
I00
sg27
I00
sg28
Nsg29
Nsg30
I9
sg31
I2
sg32
Nsg33
Nsg34
S'NNP'
p1869
sg36
g1852
sg37
I00
sba(issf_api
Word
p1870
(dp1871
g6
I00
sg7
V\u092e\u0947\u0902
p1872
sg9
(issf_api
FeatureSet
p1873
(dp1874
g12
(dp1875
S'posn'
p1876
S'210'
p1877
sS'name'
p1878
S'\xe0\xa4\xae\xe0\xa5\x87\xe0\xa4\x82'
p1879
sS'drel'
p1880
S'lwg__psp:NP8'
p1881
sS'chunktype'
p1882
S'child:NP8'
p1883
sS'af'
p1884
S'\xe0\xa4\xae\xe0\xa5\x87\xe0\xa4\x82,psp,,,,,,'
p1885
ssbsg26
I00
sg27
I00
sg28
Nsg29
Nsg30
I9
sg31
I2
sg32
Nsg33
Nsg34
S'PSP'
p1886
sg36
g1873
sg37
I00
sba(issf_api
Word
p1887
(dp1888
g6
I00
sg7
V\u0905\u092f\u094d\u092f\u0930
p1889
sg9
(issf_api
FeatureSet
p1890
(dp1891
g12
(dp1892
S'crefhead'
p1893
S'\xe0\xa4\x85\xe0\xa4\xaf\xe0\xa5\x8d\xe0\xa4\xaf\xe0\xa4\xb0:i16'
p1894
sS'posn'
p1895
S'220'
p1896
sS'name'
p1897
S'\xe0\xa4\x85\xe0\xa4\xaf\xe0\xa5\x8d\xe0\xa4\xaf\xe0\xa4\xb0'
p1898
sS'af'
p1899
S'\xe0\xa4\x85\xe0\xa4\xaf\xe0\xa5\x8d\xe0\xa4\xaf\xe0\xa4\xb0,n,any,sg,3,o,0_\xe0\xa4\x95\xe0\xa4\xbe,0'
p1900
sS'chunkid'
p1901
S'NP9'
p1902
sS'creftype'
p1903
S'Coreference-Identity:i8'
p1904
sS'chunktype'
p1905
S'head:NP9'
p1906
sS'vpos'
p1907
S'vib_2'
p1908
sS'cref'
p1909
S'i16%1:t1'
p1910
sS'drel'
p1911
S'r6:NP10'
p1912
ssbsg26
I00
sg27
I00
sg28
Nsg29
Nsg30
I10
sg31
I2
sg32
Nsg33
Nsg34
S'NNP'
p1913
sg36
g1890
sg37
I00
sba(issf_api
Word
p1914
(dp1915
g6
I00
sg7
V\u0915\u0947
p1916
sg9
(issf_api
FeatureSet
p1917
(dp1918
g12
(dp1919
S'posn'
p1920
S'230'
p1921
sS'name'
p1922
S'\xe0\xa4\x95\xe0\xa5\x874'
p1923
sS'drel'
p1924
S'lwg__psp:NP9'
p1925
sS'chunktype'
p1926
S'child:NP9'
p1927
sS'af'
p1928
S'\xe0\xa4\x95\xe0\xa4\xbe,psp,m,sg,,o,,'
p1929
ssbsg26
I00
sg27
I00
sg28
Nsg29
Nsg30
I10
sg31
I2
sg32
Nsg33
Nsg34
S'PSP'
p1930
sg36
g1917
sg37
I00
sba(issf_api
Word
p1931
(dp1932
g6
I00
sg7
V\u0926\u094c\u0930\u0947
p1933
sg9
(issf_api
FeatureSet
p1934
(dp1935
g12
(dp1936
S'posn'
p1937
S'240'
p1938
sS'name'
p1939
S'\xe0\xa4\xa6\xe0\xa5\x8c\xe0\xa4\xb0\xe0\xa5\x87'
p1940
sS'af'
p1941
S'\xe0\xa4\xa6\xe0\xa5\x8c\xe0\xa4\xb0\xe0\xa4\xbe,n,m,sg,3,o,0_\xe0\xa4\x95\xe0\xa5\x87_\xe0\xa4\xb5\xe0\xa4\x95\xe0\xa5\x8d\xe0\xa4\xa4,0'
p1942
sS'chunkid'
p1943
S'NP10'
p1944
sS'drel'
p1945
S'k7t:VGF2'
p1946
sS'vpos'
p1947
S'vib_2_3'
p1948
sS'chunktype'
p1949
S'head:NP10'
p1950
ssbsg26
I00
sg27
I00
sg28
Nsg29
Nsg30
I11
sg31
I2
sg32
Nsg33
Nsg34
S'NN'
p1951
sg36
g1934
sg37
I00
sba(issf_api
Word
p1952
(dp1953
g6
I00
sg7
V\u0915\u0947
p1954
sg9
(issf_api
FeatureSet
p1955
(dp1956
g12
(dp1957
S'posn'
p1958
S'250'
p1959
sS'name'
p1960
S'\xe0\xa4\x95\xe0\xa5\x875'
p1961
sS'drel'
p1962
S'lwg__psp:NP10'
p1963
sS'chunktype'
p1964
S'child:NP10'
p1965
sS'af'
p1966
S'\xe0\xa4\x95\xe0\xa5\x87,psp,m,,,o,,'
p1967
ssbsg26
I00
sg27
I00
sg28
Nsg29
Nsg30
I11
sg31
I2
sg32
Nsg33
Nsg34
S'PSP'
p1968
sg36
g1955
sg37
I00
sba(issf_api
Word
p1969
(dp1970
g6
I00
sg7
V\u0935\u0915\u094d\u0924
p1971
sg9
(issf_api
FeatureSet
p1972
(dp1973
g12
(dp1974
S'posn'
p1975
S'260'
p1976
sS'name'
p1977
S'\xe0\xa4\xb5\xe0\xa4\x95\xe0\xa5\x8d\xe0\xa4\xa4'
p1978
sS'drel'
p1979
S'lwg__psp:NP10'
p1980
sS'chunktype'
p1981
S'child:NP10'
p1982
sS'af'
p1983
S'\xe0\xa4\xb5\xe0\xa4\x95\xe0\xa5\x8d\xe0\xa4\xa4,n,m,,,o,,'
p1984
ssbsg26
I00
sg27
I00
sg28
Nsg29
Nsg30
I11
sg31
I2
sg32
Nsg33
Nsg34
S'PSP'
p1985
sg36
g1972
sg37
I00
sba(issf_api
Word
p1986
(dp1987
g6
I00
sg7
V\u0939\u094b\u0917\u093e
p1988
sg9
(issf_api
FeatureSet
p1989
(dp1990
g12
(dp1991
S'posn'
p1992
S'270'
p1993
sS'name'
p1994
S'\xe0\xa4\xb9\xe0\xa5\x8b\xe0\xa4\x97\xe0\xa4\xbe'
p1995
sS'af'
p1996
S'\xe0\xa4\xb9\xe0\xa5\x8b,v,m,sg,3,,\xe0\xa4\x97\xe0\xa4\xbe,gA'
p1997
sS'chunkid'
p1998
S'VGF2'
p1999
sS'stype'
p2000
S'declarative'
p2001
sS'drel'
p2002
S'ccof:CCP'
p2003
sS'voicetype'
p2004
S'active'
p2005
sS'chunktype'
p2006
S'head:VGF2'
p2007
ssbsg26
I00
sg27
I00
sg28
Nsg29
Nsg30
I12
sg31
I2
sg32
Nsg33
Nsg34
S'VM'
p2008
sg36
g1989
sg37
I00
sba(issf_api
Word
p2009
(dp2010
g6
I00
sg7
V\u0964
p2011
sg9
(issf_api
FeatureSet
p2012
(dp2013
g12
(dp2014
S'posn'
p2015
S'280'
p2016
sS'name'
p2017
S'\xe0\xa5\xa4'
p2018
sS'af'
p2019
S'\xe0\xa5\xa4,punc,,,,,,'
p2020
sS'chunkid'
p2021
S'BLK'
p2022
sS'drel'
p2023
S'rsym:VGF'
p2024
sS'chunktype'
p2025
S'head:BLK'
p2026
ssbsg26
I00
sg27
I00
sg28
Nsg29
Nsg30
I13
sg31
I2
sg32
Nsg33
Nsg34
S'SYM'
p2027
sg36
g2012
sg37
I00
sba(issf_api
Word
p2028
(dp2029
g6
I00
sg7
V\u092a\u093e\u0915\u093f\u0938\u094d\u0924\u093e\u0928
p2030
sg9
(issf_api
FeatureSet
p2031
(dp2032
g12
(dp2033
S'crefhead'
p2034
S'\xe0\xa4\xaa\xe0\xa4\xbe\xe0\xa4\x95\xe0\xa4\xbf\xe0\xa4\xb8\xe0\xa5\x8d\xe0\xa4\xa4\xe0\xa4\xbe\xe0\xa4\xa8:i17'
p2035
sS'posn'
p2036
S'10'
p2037
sS'name'
p2038
S'\xe0\xa4\xaa\xe0\xa4\xbe\xe0\xa4\x95\xe0\xa4\xbf\xe0\xa4\xb8\xe0\xa5\x8d\xe0\xa4\xa4\xe0\xa4\xbe\xe0\xa4\xa8'
p2039
sS'af'
p2040
S'\xe0\xa4\xaa\xe0\xa4\xbe\xe0\xa4\x95\xe0\xa4\xbf\xe0\xa4\xb8\xe0\xa5\x8d\xe0\xa4\xa4\xe0\xa4\xbe\xe0\xa4\xa8,n,m,sg,3,o,0_\xe0\xa4\xb8\xe0\xa5\x87,0'
p2041
sS'chunkid'
p2042
S'NP'
p2043
sS'creftype'
p2044
S'Coreference-Identity:i7'
p2045
sS'chunktype'
p2046
S'head:NP'
p2047
sS'vpos'
p2048
S'vib_2'
p2049
sS'cref'
p2050
S'i17%1:t6'
p2051
sS'drel'
p2052
S'k5:VGNN'
p2053
ssbsg26
I00
sg27
I00
sg28
Nsg29
Nsg30
I0
sg31
I3
sg32
Nsg33
Nsg34
S'NNP'
p2054
sg36
g2031
sg37
I00
sba(issf_api
Word
p2055
(dp2056
g6
I00
sg7
V\u0938\u0947
p2057
sg9
(issf_api
FeatureSet
p2058
(dp2059
g12
(dp2060
S'posn'
p2061
S'20'
p2062
sS'name'
p2063
S'\xe0\xa4\xb8\xe0\xa5\x87'
p2064
sS'drel'
p2065
S'lwg__psp:NP'
p2066
sS'chunktype'
p2067
S'child:NP'
p2068
sS'af'
p2069
S'\xe0\xa4\xb8\xe0\xa5\x87,psp,,,,,,'
p2070
ssbsg26
I00
sg27
I00
sg28
Nsg29
Nsg30
I0
sg31
I3
sg32
Nsg33
Nsg34
S'PSP'
p2071
sg36
g2058
sg37
I00
sba(issf_api
Word
p2072
(dp2073
g6
I00
sg7
V\u0917\u0941\u091c\u0930\u0928\u0947
p2074
sg9
(issf_api
FeatureSet
p2075
(dp2076
g12
(dp2077
S'posn'
p2078
S'30'
p2079
sS'name'
p2080
S'\xe0\xa4\x97\xe0\xa5\x81\xe0\xa4\x9c\xe0\xa4\xb0\xe0\xa4\xa8\xe0\xa5\x87'
p2081
sS'af'
p2082
S'\xe0\xa4\x97\xe0\xa5\x81\xe0\xa4\x9c\xe0\xa4\xb0,v,any,sg,any,o,\xe0\xa4\xa8\xe0\xa4\xbe_\xe0\xa4\xb5\xe0\xa4\xbe\xe0\xa4\xb2\xe0\xa4\xbe,nA'
p2083
sS'chunkid'
p2084
S'VGNN'
p2085
sS'drel'
p2086
S'nmod:NP2'
p2087
sS'vpos'
p2088
S'tam_2'
p2089
sS'chunktype'
p2090
S'head:VGNN'
p2091
ssbsg26
I00
sg27
I00
sg28
Nsg29
Nsg30
I1
sg31
I3
sg32
Nsg33
Nsg34
S'VM'
p2092
sg36
g2075
sg37
I00
sba(issf_api
Word
p2093
(dp2094
g6
I00
sg7
V\u0935\u093e\u0932\u0940
p2095
sg9
(issf_api
FeatureSet
p2096
(dp2097
g12
(dp2098
S'posn'
p2099
S'40'
p2100
sS'name'
p2101
S'\xe0\xa4\xb5\xe0\xa4\xbe\xe0\xa4\xb2\xe0\xa5\x80'
p2102
sS'drel'
p2103
S'lwg__psp:VGNN'
p2104
sS'chunktype'
p2105
S'child:VGNN'
p2106
sS'af'
p2107
S'\xe0\xa4\xb5\xe0\xa4\xbe\xe0\xa4\xb2\xe0\xa4\xbe,psp,f,sg,,o,,'
p2108
ssbsg26
I00
sg27
I00
sg28
Nsg29
Nsg30
I1
sg31
I3
sg32
Nsg33
Nsg34
S'PSP'
p2109
sg36
g2096
sg37
I00
sba(issf_api
Word
p2110
(dp2111
g6
I00
sg7
V\u096d\u096c\u0966
p2112
sg9
(issf_api
FeatureSet
p2113
(dp2114
g12
(dp2115
S'posn'
p2116
S'50'
p2117
sS'name'
p2118
S'\xe0\xa5\xad\xe0\xa5\xac\xe0\xa5\xa6'
p2119
sS'drel'
p2120
S'nmod__adj:NP2'
p2121
sS'chunktype'
p2122
S'child:NP2'
p2123
sS'af'
p2124
S'\xe0\xa5\xad\xe0\xa5\xac\xe0\xa5\xa6,num,any,any,,any,,'
p2125
ssbsg26
I00
sg27
I00
sg28
Nsg29
Nsg30
I2
sg31
I3
sg32
Nsg33
Nsg34
S'QC'
p2126
sg36
g2113
sg37
I00
sba(issf_api
Word
p2127
(dp2128
g6
I00
sg7
V\u0915\u093f\u092e\u0940
p2129
sg9
(issf_api
FeatureSet
p2130
(dp2131
g12
(dp2132
S'posn'
p2133
S'60'
p2134
sS'name'
p2135
S'\xe0\xa4\x95\xe0\xa4\xbf\xe0\xa4\xae\xe0\xa5\x80'
p2136
sS'af'
p2137
S'\xe0\xa4\x95\xe0\xa4\xbf\xe0\xa4\xae\xe0\xa5\x80,n,m,sg,3,d,0,0'
p2138
sS'chunkid'
p2139
S'NP2'
p2140
sS'drel'
p2141
S'jjmod:JJP'
p2142
sS'chunktype'
p2143
S'head:NP2'
p2144
ssbsg26
I00
sg27
I00
sg28
Nsg29
Nsg30
I2
sg31
I3
sg32
Nsg33
Nsg34
S'NN'
p2145
sg36
g2130
sg37
I00
sba(issf_api
Word
p2146
(dp2147
g6
I00
sg7
V\u0932\u0902\u092c\u0940
p2148
sg9
(issf_api
FeatureSet
p2149
(dp2150
g12
(dp2151
S'posn'
p2152
S'70'
p2153
sS'name'
p2154
S'\xe0\xa4\xb2\xe0\xa4\x82\xe0\xa4\xac\xe0\xa5\x80'
p2155
sS'af'
p2156
S'\xe0\xa4\xb2\xe0\xa4\x82\xe0\xa4\xac\xe0\xa4\xbe,adj,f,sg,,o,,'
p2157
sS'chunkid'
p2158
S'JJP'
p2159
sS'drel'
p2160
S'nmod:NP3'
p2161
sS'chunktype'
p2162
S'head:JJP'
p2163
ssbsg26
I00
sg27
I00
sg28
Nsg29
Nsg30
I3
sg31
I3
sg32
Nsg33
Nsg34
S'JJ'
p2164
sg36
g2149
sg37
I00
sba(issf_api
Word
p2165
(dp2166
g6
I00
sg7
V\u091f\u094d\u0930\u093e\u0902\u091c\u093f\u091f
p2167
sg9
(issf_api
FeatureSet
p2168
(dp2169
g12
(dp2170
S'posn'
p2171
S'80'
p2172
sS'name'
p2173
S'\xe0\xa4\x9f\xe0\xa5\x8d\xe0\xa4\xb0\xe0\xa4\xbe\xe0\xa4\x82\xe0\xa4\x9c\xe0\xa4\xbf\xe0\xa4\x9f'
p2174
sS'drel'
p2175
S'pof__cn:NP3'
p2176
sS'chunktype'
p2177
S'child:NP3'
p2178
sS'af'
p2179
S'\xe0\xa4\x9f\xe0\xa5\x8d\xe0\xa4\xb0\xe0\xa4\xbe\xe0\xa4\x82\xe0\xa4\x9c\xe0\xa4\xbf\xe0\xa4\x9f,n,m,sg,3,d,0,0'
p2180
ssbsg26
I00
sg27
I00
sg28
Nsg29
Nsg30
I4
sg31
I3
sg32
Nsg33
Nsg34
S'NNC'
p2181
sg36
g2168
sg37
I00
sba(issf_api
Word
p2182
(dp2183
g6
I00
sg7
V\u092a\u093e\u0907\u092a\u0932\u093e\u0907\u0928
p2184
sg9
(issf_api
FeatureSet
p2185
(dp2186
g12
(dp2187
S'posn'
p2188
S'90'
p2189
sS'name'
p2190
S'\xe0\xa4\xaa\xe0\xa4\xbe\xe0\xa4\x87\xe0\xa4\xaa\xe0\xa4\xb2\xe0\xa4\xbe\xe0\xa4\x87\xe0\xa4\xa8'
p2191
sS'af'
p2192
S'\xe0\xa4\xaa\xe0\xa4\xbe\xe0\xa4\x87\xe0\xa4\xaa\xe0\xa4\xb2\xe0\xa4\xbe\xe0\xa4\x87\xe0\xa4\xa8,n,f,sg,3,o,0_\xe0\xa4\x95\xe0\xa5\x87_\xe0\xa4\xb2\xe0\xa4\xbf\xe0\xa4\x8f,0'
p2193
sS'chunkid'
p2194
S'NP3'
p2195
sS'drel'
p2196
S'rt:VGF'
p2197
sS'vpos'
p2198
S'vib_3_4'
p2199
sS'chunktype'
p2200
S'head:NP3'
p2201
ssbsg26
I00
sg27
I00
sg28
Nsg29
Nsg30
I4
sg31
I3
sg32
Nsg33
Nsg34
S'NN'
p2202
sg36
g2185
sg37
I00
sba(issf_api
Word
p2203
(dp2204
g6
I00
sg7
V\u0915\u0947
p2205
sg9
(issf_api
FeatureSet
p2206
(dp2207
g12
(dp2208
S'posn'
p2209
S'100'
p2210
sS'name'
p2211
S'\xe0\xa4\x95\xe0\xa5\x87'
p2212
sS'drel'
p2213
S'lwg__psp:NP3'
p2214
sS'chunktype'
p2215
S'child:NP3'
p2216
sS'af'
p2217
S'\xe0\xa4\x95\xe0\xa5\x87,psp,,,,,,'
p2218
ssbsg26
I00
sg27
I00
sg28
Nsg29
Nsg30
I4
sg31
I3
sg32
Nsg33
Nsg34
S'PSP'
p2219
sg36
g2206
sg37
I00
sba(issf_api
Word
p2220
(dp2221
g6
I00
sg7
V\u0932\u093f\u090f
p2222
sg9
(issf_api
FeatureSet
p2223
(dp2224
g12
(dp2225
S'posn'
p2226
S'110'
p2227
sS'name'
p2228
S'\xe0\xa4\xb2\xe0\xa4\xbf\xe0\xa4\x8f'
p2229
sS'drel'
p2230
S'lwg__psp:NP3'
p2231
sS'chunktype'
p2232
S'child:NP3'
p2233
sS'af'
p2234
S'\xe0\xa4\xb2\xe0\xa4\xbf\xe0\xa4\x8f,psp,,,,,,'
p2235
ssbsg26
I00
sg27
I00
sg28
Nsg29
Nsg30
I4
sg31
I3
sg32
Nsg33
Nsg34
S'PSP'
p2236
sg36
g2223
sg37
I00
sba(issf_api
Word
p2237
(dp2238
g6
I00
sg7
V\u0908\u0930\u093e\u0928
p2239
sg9
(issf_api
FeatureSet
p2240
(dp2241
g12
(dp2242
S'crefhead'
p2243
S'\xe0\xa4\x88\xe0\xa4\xb0\xe0\xa4\xbe\xe0\xa4\xa8:i18'
p2244
sS'posn'
p2245
S'120'
p2246
sS'name'
p2247
S'\xe0\xa4\x88\xe0\xa4\xb0\xe0\xa4\xbe\xe0\xa4\xa8'
p2248
sS'af'
p2249
S'\xe0\xa4\x88\xe0\xa4\xb0\xe0\xa4\xbe\xe0\xa4\xa8,n,m,sg,3,d,0,0'
p2250
sS'chunkid'
p2251
S'NP4'
p2252
sS'creftype'
p2253
S'Coreference-Identity:i15'
p2254
sS'chunktype'
p2255
S'head:NP4'
p2256
sS'cref'
p2257
S'i18%1:t2'
p2258
sS'drel'
p2259
S'k1:VGF'
p2260
ssbsg26
I00
sg27
I00
sg28
Nsg29
Nsg30
I5
sg31
I3
sg32
Nsg33
Nsg34
S'NNP'
p2261
sg36
g2240
sg37
I00
sba(issf_api
Word
p2262
(dp2263
g6
I00
sg7
V\u092a\u093e\u0915
p2264
sg9
(issf_api
FeatureSet
p2265
(dp2266
g12
(dp2267
S'crefhead'
p2268
S'\xe0\xa4\xaa\xe0\xa4\xbe\xe0\xa4\x95:i19'
p2269
sS'posn'
p2270
S'130'
p2271
sS'name'
p2272
S'\xe0\xa4\xaa\xe0\xa4\xbe\xe0\xa4\x95'
p2273
sS'af'
p2274
S'\xe0\xa4\xaa\xe0\xa4\xbe\xe0\xa4\x95,n,m,sg,3,d,0,0'
p2275
sS'creftype'
p2276
S'Coreference-Noun-Noun:i17'
p2277
sS'drel'
p2278
S'pof__cn:NP5'
p2279
sS'chunktype'
p2280
S'child:NP5'
p2281
sS'cref'
p2282
S'i19%1:t6'
p2283
ssbsg26
I00
sg27
I00
sg28
Nsg29
Nsg30
I6
sg31
I3
sg32
Nsg33
Nsg34
S'NNPC'
p2284
sg36
g2265
sg37
I00
sba(issf_api
Word
p2285
(dp2286
g6
I00
sg7
V\u0938\u0930\u0915\u093e\u0930
p2287
sg9
(issf_api
FeatureSet
p2288
(dp2289
g12
(dp2290
S'posn'
p2291
S'140'
p2292
sS'name'
p2293
S'\xe0\xa4\xb8\xe0\xa4\xb0\xe0\xa4\x95\xe0\xa4\xbe\xe0\xa4\xb0'
p2294
sS'af'
p2295
S'\xe0\xa4\xb8\xe0\xa4\xb0\xe0\xa4\x95\xe0\xa4\xbe\xe0\xa4\xb0,n,f,sg,3,o,0_\xe0\xa4\xb8\xe0\xa5\x87,0'
p2296
sS'chunkid'
p2297
S'NP5'
p2298
sS'drel'
p2299
S'k2:VGF'
p2300
sS'vpos'
p2301
S'vib_3'
p2302
sS'chunktype'
p2303
S'head:NP5'
p2304
ssbsg26
I00
sg27
I00
sg28
Nsg29
Nsg30
I6
sg31
I3
sg32
Nsg33
Nsg34
S'NNP'
p2305
sg36
g2288
sg37
I00
sba(issf_api
Word
p2306
(dp2307
g6
I00
sg7
V\u0938\u0947
p2308
sg9
(issf_api
FeatureSet
p2309
(dp2310
g12
(dp2311
S'posn'
p2312
S'150'
p2313
sS'name'
p2314
S'\xe0\xa4\xb8\xe0\xa5\x872'
p2315
sS'drel'
p2316
S'lwg__psp:NP5'
p2317
sS'chunktype'
p2318
S'child:NP5'
p2319
sS'af'
p2320
S'\xe0\xa4\xb8\xe0\xa5\x87,psp,,,,,,'
p2321
ssbsg26
I00
sg27
I00
sg28
Nsg29
Nsg30
I6
sg31
I3
sg32
Nsg33
Nsg34
S'PSP'
p2322
sg36
g2309
sg37
I00
sba(issf_api
Word
p2323
(dp2324
g6
I00
sg7
V\u0905\u0932\u0917
p2325
sg9
(issf_api
FeatureSet
p2326
(dp2327
g12
(dp2328
S'posn'
p2329
S'160'
p2330
sS'name'
p2331
S'\xe0\xa4\x85\xe0\xa4\xb2\xe0\xa4\x97'
p2332
sS'af'
p2333
S'\xe0\xa4\x85\xe0\xa4\xb2\xe0\xa4\x97,adv,,,,,,'
p2334
sS'chunkid'
p2335
S'RBP'
p2336
sS'drel'
p2337
S'adv:VGF'
p2338
sS'chunktype'
p2339
S'head:RBP'
p2340
ssbsg26
I00
sg27
I00
sg28
Nsg29
Nsg30
I7
sg31
I3
sg32
Nsg33
Nsg34
S'RB'
p2341
sg36
g2326
sg37
I00
sba(issf_api
Word
p2342
(dp2343
g6
I00
sg7
V\u0938\u0947
p2344
sg9
(issf_api
FeatureSet
p2345
(dp2346
g12
(dp2347
S'posn'
p2348
S'170'
p2349
sS'name'
p2350
S'\xe0\xa4\xb8\xe0\xa5\x873'
p2351
sS'drel'
p2352
S'lwg__rp:RBP'
p2353
sS'chunktype'
p2354
S'child:RBP'
p2355
sS'af'
p2356
S'\xe0\xa4\xb8\xe0\xa5\x87,avy,,,,,,'
p2357
ssbsg26
I00
sg27
I00
sg28
Nsg29
Nsg30
I7
sg31
I3
sg32
Nsg33
Nsg34
S'RP'
p2358
sg36
g2345
sg37
I00
sba(issf_api
Word
p2359
(dp2360
g6
I00
sg7
V\u0915\u0930\u093e\u0930
p2361
sg9
(issf_api
FeatureSet
p2362
(dp2363
g12
(dp2364
S'posn'
p2365
S'180'
p2366
sS'name'
p2367
S'\xe0\xa4\x95\xe0\xa4\xb0\xe0\xa4\xbe\xe0\xa4\xb0'
p2368
sS'af'
p2369
S'\xe0\xa4\x95\xe0\xa4\xb0\xe0\xa4\xbe\xe0\xa4\xb0,n,m,sg,3,d,0,0'
p2370
sS'chunkid'
p2371
S'NP6'
p2372
sS'drel'
p2373
S'pof:VGF'
p2374
sS'chunktype'
p2375
S'head:NP6'
p2376
ssbsg26
I00
sg27
I00
sg28
Nsg29
Nsg30
I8
sg31
I3
sg32
Nsg33
Nsg34
S'NN'
p2377
sg36
g2362
sg37
I00
sba(issf_api
Word
p2378
(dp2379
g6
I00
sg7
V\u0915\u0930\u0947\u0917\u093e
p2380
sg9
(issf_api
FeatureSet
p2381
(dp2382
g12
(dp2383
S'posn'
p2384
S'190'
p2385
sS'name'
p2386
S'\xe0\xa4\x95\xe0\xa4\xb0\xe0\xa5\x87\xe0\xa4\x97\xe0\xa4\xbe'
p2387
sS'af'
p2388
S'\xe0\xa4\x95\xe0\xa4\xb0,v,m,sg,3,,\xe0\xa4\x97\xe0\xa4\xbe,gA'
p2389
sS'chunkid'
p2390
S'VGF'
p2391
sS'chunktype'
p2392
S'head:VGF'
p2393
sS'voicetype'
p2394
S'active'
p2395
sS'stype'
p2396
S'declarative'
p2397
ssbsg26
I00
sg27
I00
sg28
Nsg29
Nsg30
I9
sg31
I3
sg32
Nsg33
Nsg34
S'VM'
p2398
sg36
g2381
sg37
I00
sba(issf_api
Word
p2399
(dp2400
g6
I00
sg7
V\u0964
p2401
sg9
(issf_api
FeatureSet
p2402
(dp2403
g12
(dp2404
S'posn'
p2405
S'200'
p2406
sS'name'
p2407
S'\xe0\xa5\xa4'
p2408
sS'af'
p2409
S'\xe0\xa5\xa4,punc,,,,,,'
p2410
sS'chunkid'
p2411
S'BLK'
p2412
sS'drel'
p2413
S'rsym:VGF'
p2414
sS'chunktype'
p2415
S'head:BLK'
p2416
ssbsg26
I00
sg27
I00
sg28
Nsg29
Nsg30
I10
sg31
I3
sg32
Nsg33
Nsg34
S'SYM'
p2417
sg36
g2402
sg37
I00
sba(issf_api
Word
p2418
(dp2419
g6
I00
sg7
V\u092a\u0930\u093f\u092f\u094b\u091c\u0928\u093e
p2420
sg9
(issf_api
FeatureSet
p2421
(dp2422
g12
(dp2423
S'posn'
p2424
S'10'
p2425
sS'name'
p2426
S'\xe0\xa4\xaa\xe0\xa4\xb0\xe0\xa4\xbf\xe0\xa4\xaf\xe0\xa5\x8b\xe0\xa4\x9c\xe0\xa4\xa8\xe0\xa4\xbe'
p2427
sS'af'
p2428
S'\xe0\xa4\xaa\xe0\xa4\xb0\xe0\xa4\xbf\xe0\xa4\xaf\xe0\xa5\x8b\xe0\xa4\x9c\xe0\xa4\xa8\xe0\xa4\xbe,n,f,sg,3,d,0,0'
p2429
sS'drel'
p2430
S'pof__cn:NP'
p2431
sS'chunktype'
p2432
S'child:NP'
p2433
sS'cref'
p2434
S'i20%0:t9'
p2435
ssbsg26
I00
sg27
I00
sg28
Nsg29
Nsg30
I0
sg31
I4
sg32
Nsg33
Nsg34
S'NNC'
p2436
sg36
g2421
sg37
I00
sba(issf_api
Word
p2437
(dp2438
g6
I00
sg7
V\u0938\u0932\u093e\u0939\u0915\u093e\u0930
p2439
sg9
(issf_api
FeatureSet
p2440
(dp2441
g12
(dp2442
S'crefhead'
p2443
S'\xe0\xa4\xb8\xe0\xa4\xb2\xe0\xa4\xbe\xe0\xa4\xb9\xe0\xa4\x95\xe0\xa4\xbe\xe0\xa4\xb0:i20'
p2444
sS'posn'
p2445
S'20'
p2446
sS'name'
p2447
S'\xe0\xa4\xb8\xe0\xa4\xb2\xe0\xa4\xbe\xe0\xa4\xb9\xe0\xa4\x95\xe0\xa4\xbe\xe0\xa4\xb0'
p2448
sS'af'
p2449
S'\xe0\xa4\xb8\xe0\xa4\xb2\xe0\xa4\xbe\xe0\xa4\xb9\xe0\xa4\x95\xe0\xa4\xbe\xe0\xa4\xb0,n,m,sg,3,o,0,0'
p2450
sS'chunkid'
p2451
S'NP'
p2452
sS'drel'
p2453
S'nmod:NP2'
p2454
sS'chunktype'
p2455
S'head:NP'
p2456
sS'cref'
p2457
S'i20%1:t9'
p2458
ssbsg26
I00
sg27
I00
sg28
Nsg29
Nsg30
I0
sg31
I4
sg32
Nsg33
Nsg34
S'NN'
p2459
sg36
g2440
sg37
I00
sba(issf_api
Word
p2460
(dp2461
g6
I00
sg7
V\u092c\u0940\u090f\u091a\u092a\u0940
p2462
sg9
(issf_api
FeatureSet
p2463
(dp2464
g12
(dp2465
S'posn'
p2466
S'30'
p2467
sS'name'
p2468
S'\xe0\xa4\xac\xe0\xa5\x80\xe0\xa4\x8f\xe0\xa4\x9a\xe0\xa4\xaa\xe0\xa5\x80'
p2469
sS'af'
p2470
S'\xe0\xa4\xac\xe0\xa5\x80\xe0\xa4\x8f\xe0\xa4\x9a\xe0\xa4\xaa\xe0\xa5\x80,n,m,sg,3,d,0,0'
p2471
sS'drel'
p2472
S'pof__cn:NP2'
p2473
sS'chunktype'
p2474
S'child:NP2'
p2475
sS'cref'
p2476
S'i21%0:t9'
p2477
ssbsg26
I00
sg27
I00
sg28
Nsg29
Nsg30
I1
sg31
I4
sg32
Nsg33
Nsg34
S'NNPC'
p2478
sg36
g2463
sg37
I00
sba(issf_api
Word
p2479
(dp2480
g6
I00
sg7
V\u092c\u093f\u0932\u093f\u091f\u0928
p2481
sg9
(issf_api
FeatureSet
p2482
(dp2483
g12
(dp2484
S'crefhead'
p2485
S'\xe0\xa4\xac\xe0\xa4\xbf\xe0\xa4\xb2\xe0\xa4\xbf\xe0\xa4\x9f\xe0\xa4\xa8:i21'
p2486
sS'posn'
p2487
S'40'
p2488
sS'name'
p2489
S'\xe0\xa4\xac\xe0\xa4\xbf\xe0\xa4\xb2\xe0\xa4\xbf\xe0\xa4\x9f\xe0\xa4\xa8'
p2490
sS'af'
p2491
S'\xe0\xa4\xac\xe0\xa4\xbf\xe0\xa4\xb2\xe0\xa4\xbf\xe0\xa4\x9f\xe0\xa4\xa8,n,m,sg,3,o,0_\xe0\xa4\xa8\xe0\xa5\x87,0'
p2492
sS'chunkid'
p2493
S'NP2'
p2494
sS'creftype'
p2495
S'Coreference-NounComplement:i20'
p2496
sS'chunktype'
p2497
S'head:NP2'
p2498
sS'crefchainhead'
p2499
S'i21:t9'
p2500
sS'vpos'
p2501
S'vib_3'
p2502
sS'cref'
p2503
S'i21%1:t9'
p2504
sS'drel'
p2505
S'k1:VGF'
p2506
ssbsg26
I00
sg27
I00
sg28
Nsg29
Nsg30
I1
sg31
I4
sg32
Nsg33
Nsg34
S'NNP'
p2507
sg36
g2482
sg37
I00
sba(issf_api
Word
p2508
(dp2509
g6
I00
sg7
V\u0928\u0947
p2510
sg9
(issf_api
FeatureSet
p2511
(dp2512
g12
(dp2513
S'posn'
p2514
S'50'
p2515
sS'name'
p2516
S'\xe0\xa4\xa8\xe0\xa5\x87'
p2517
sS'drel'
p2518
S'lwg__psp:NP2'
p2519
sS'chunktype'
p2520
S'child:NP2'
p2521
sS'af'
p2522
S'\xe0\xa4\xa8\xe0\xa5\x87,psp,,,,,,'
p2523
ssbsg26
I00
sg27
I00
sg28
Nsg29
Nsg30
I1
sg31
I4
sg32
Nsg33
Nsg34
S'PSP'
p2524
sg36
g2511
sg37
I00
sba(issf_api
Word
p2525
(dp2526
g6
I00
sg7
V\u092a\u0939\u0932\u0947
p2527
sg9
(issf_api
FeatureSet
p2528
(dp2529
g12
(dp2530
S'posn'
p2531
S'60'
p2532
sS'name'
p2533
S'\xe0\xa4\xaa\xe0\xa4\xb9\xe0\xa4\xb2\xe0\xa5\x87'
p2534
sS'af'
p2535
S'\xe0\xa4\xaa\xe0\xa4\xb9\xe0\xa4\xb2\xe0\xa5\x87,nst,m,sg,3,d,,'
p2536
sS'chunkid'
p2537
S'NP3'
p2538
sS'drel'
p2539
S'k7t:VGF'
p2540
sS'chunktype'
p2541
S'head:NP3'
p2542
ssbsg26
I00
sg27
I00
sg28
Nsg29
Nsg30
I2
sg31
I4
sg32
Nsg33
Nsg34
S'NST'
p2543
sg36
g2528
sg37
I00
sba(issf_api
Word
p2544
(dp2545
g6
I00
sg7
V\u0917\u0948\u0938
p2546
sg9
(issf_api
FeatureSet
p2547
(dp2548
g12
(dp2549
S'crefhead'
p2550
S'\xe0\xa4\x97\xe0\xa5\x88\xe0\xa4\xb8:i22'
p2551
sS'posn'
p2552
S'70'
p2553
sS'name'
p2554
S'\xe0\xa4\x97\xe0\xa5\x88\xe0\xa4\xb8'
p2555
sS'af'
p2556
S'\xe0\xa4\x97\xe0\xa5\x88\xe0\xa4\xb8,n,f,sg,3,o,0_\xe0\xa4\x95\xe0\xa5\x8b,0'
p2557
sS'chunkid'
p2558
S'NP4'
p2559
sS'creftype'
p2560
S'Coreference-Identity:i14'
p2561
sS'chunktype'
p2562
S'head:NP4'
p2563
sS'vpos'
p2564
S'vib_2'
p2565
sS'cref'
p2566
S'i22%1:t5'
p2567
sS'drel'
p2568
S'k2:VGNN'
p2569
ssbsg26
I00
sg27
I00
sg28
Nsg29
Nsg30
I3
sg31
I4
sg32
Nsg33
Nsg34
S'NN'
p2570
sg36
g2547
sg37
I00
sba(issf_api
Word
p2571
(dp2572
g6
I00
sg7
V\u0915\u094b
p2573
sg9
(issf_api
FeatureSet
p2574
(dp2575
g12
(dp2576
S'posn'
p2577
S'80'
p2578
sS'name'
p2579
S'\xe0\xa4\x95\xe0\xa5\x8b'
p2580
sS'drel'
p2581
S'lwg__psp:NP4'
p2582
sS'chunktype'
p2583
S'child:NP4'
p2584
sS'af'
p2585
S'\xe0\xa4\x95\xe0\xa5\x8b,psp,,,,,,'
p2586
ssbsg26
I00
sg27
I00
sg28
Nsg29
Nsg30
I3
sg31
I4
sg32
Nsg33
Nsg34
S'PSP'
p2587
sg36
g2574
sg37
I00
sba(issf_api
Word
p2588
(dp2589
g6
I00
sg7
V\u092e\u0941\u0932\u094d\u0924\u093e\u0928
p2590
sg9
(issf_api
FeatureSet
p2591
(dp2592
g12
(dp2593
S'posn'
p2594
S'90'
p2595
sS'name'
p2596
S'\xe0\xa4\xae\xe0\xa5\x81\xe0\xa4\xb2\xe0\xa5\x8d\xe0\xa4\xa4\xe0\xa4\xbe\xe0\xa4\xa8'
p2597
sS'af'
p2598
S'\xe0\xa4\xae\xe0\xa5\x81\xe0\xa4\xb2\xe0\xa5\x8d\xe0\xa4\xa4\xe0\xa4\xbe\xe0\xa4\xa8,n,m,sg,3,o,0_\xe0\xa4\xb8\xe0\xa5\x87,0'
p2599
sS'chunkid'
p2600
S'NP5'
p2601
sS'drel'
p2602
S'k5:VGNN'
p2603
sS'vpos'
p2604
S'vib_2'
p2605
sS'chunktype'
p2606
S'head:NP5'
p2607
ssbsg26
I00
sg27
I00
sg28
Nsg29
Nsg30
I4
sg31
I4
sg32
Nsg33
Nsg34
S'NNP'
p2608
sg36
g2591
sg37
I00
sba(issf_api
Word
p2609
(dp2610
g6
I00
sg7
V\u0938\u0947
p2611
sg9
(issf_api
FeatureSet
p2612
(dp2613
g12
(dp2614
S'posn'
p2615
S'100'
p2616
sS'name'
p2617
S'\xe0\xa4\xb8\xe0\xa5\x87'
p2618
sS'drel'
p2619
S'lwg__psp:NP5'
p2620
sS'chunktype'
p2621
S'child:NP5'
p2622
sS'af'
p2623
S'\xe0\xa4\xb8\xe0\xa5\x87,psp,,,,,,'
p2624
ssbsg26
I00
sg27
I00
sg28
Nsg29
Nsg30
I4
sg31
I4
sg32
Nsg33
Nsg34
S'PSP'
p2625
sg36
g2612
sg37
I00
sba(issf_api
Word
p2626
(dp2627
g6
I00
sg7
V\u091c\u0948\u0938\u0932\u092e\u0947\u0930
p2628
sg9
(issf_api
FeatureSet
p2629
(dp2630
g12
(dp2631
S'posn'
p2632
S'110'
p2633
sS'name'
p2634
S'\xe0\xa4\x9c\xe0\xa5\x88\xe0\xa4\xb8\xe0\xa4\xb2\xe0\xa4\xae\xe0\xa5\x87\xe0\xa4\xb0'
p2635
sS'af'
p2636
S'\xe0\xa4\x9c\xe0\xa5\x88\xe0\xa4\xb8\xe0\xa4\xb2\xe0\xa4\xae\xe0\xa5\x87\xe0\xa4\xb0,n,m,sg,3,o,0_\xe0\xa4\x95\xe0\xa5\x87_\xe0\xa4\xa8\xe0\xa4\xbf\xe0\xa4\x95\xe0\xa4\x9f,0'
p2637
sS'chunkid'
p2638
S'NP6'
p2639
sS'drel'
p2640
S'k7:VGNN'
p2641
sS'vpos'
p2642
S'vib_2_3'
p2643
sS'chunktype'
p2644
S'head:NP6'
p2645
ssbsg26
I00
sg27
I00
sg28
Nsg29
Nsg30
I5
sg31
I4
sg32
Nsg33
Nsg34
S'NNP'
p2646
sg36
g2629
sg37
I00
sba(issf_api
Word
p2647
(dp2648
g6
I00
sg7
V\u0915\u0947
p2649
sg9
(issf_api
FeatureSet
p2650
(dp2651
g12
(dp2652
S'posn'
p2653
S'120'
p2654
sS'name'
p2655
S'\xe0\xa4\x95\xe0\xa5\x87'
p2656
sS'drel'
p2657
S'lwg__psp:NP6'
p2658
sS'chunktype'
p2659
S'child:NP6'
p2660
sS'af'
p2661
S'\xe0\xa4\x95\xe0\xa5\x87,psp,,,,,,'
p2662
ssbsg26
I00
sg27
I00
sg28
Nsg29
Nsg30
I5
sg31
I4
sg32
Nsg33
Nsg34
S'PSP'
p2663
sg36
g2650
sg37
I00
sba(issf_api
Word
p2664
(dp2665
g6
I00
sg7
V\u0928\u093f\u0915\u091f
p2666
sg9
(issf_api
FeatureSet
p2667
(dp2668
g12
(dp2669
S'posn'
p2670
S'130'
p2671
sS'name'
p2672
S'\xe0\xa4\xa8\xe0\xa4\xbf\xe0\xa4\x95\xe0\xa4\x9f'
p2673
sS'drel'
p2674
S'lwg__psp:NP6'
p2675
sS'chunktype'
p2676
S'child:NP6'
p2677
sS'af'
p2678
S'\xe0\xa4\xa8\xe0\xa4\xbf\xe0\xa4\x95\xe0\xa4\x9f,nst,m,sg,3,d,,'
p2679
ssbsg26
I00
sg27
I00
sg28
Nsg29
Nsg30
I5
sg31
I4
sg32
Nsg33
Nsg34
S'NST'
p2680
sg36
g2667
sg37
I00
sba(issf_api
Word
p2681
(dp2682
g6
I00
sg7
V\u0915\u093f\u0938\u0940
p2683
sg9
(issf_api
FeatureSet
p2684
(dp2685
g12
(dp2686
S'crefhead'
p2687
S'\xe0\xa4\x95\xe0\xa4\xbf\xe0\xa4\xb8\xe0\xa5\x80:i23'
p2688
sS'posn'
p2689
S'140'
p2690
sS'name'
p2691
S'\xe0\xa4\x95\xe0\xa4\xbf\xe0\xa4\xb8\xe0\xa5\x80'
p2692
sS'af'
p2693
S'\xe0\xa4\x95\xe0\xa5\x8b\xe0\xa4\x88,pn,any,sg,3,o,0,0'
p2694
sS'creftype'
p2695
S'anaphora-?:i23'
p2696
sS'chunktype'
p2697
S'child:NP7'
p2698
sS'crefchainhead'
p2699
S'i23:t10'
p2700
sS'cref'
p2701
S'i23%1:t10'
p2702
sS'drel'
p2703
S'nmod__adj:NP7'
p2704
ssbsg26
I00
sg27
I00
sg28
Nsg29
Nsg30
I6
sg31
I4
sg32
Nsg33
Nsg34
S'PRP'
p2705
sg36
g2684
sg37
I00
sba(issf_api
Word
p2706
(dp2707
g6
I00
sg7
V\u0938\u094d\u0925\u093e\u0928
p2708
sg9
(issf_api
FeatureSet
p2709
(dp2710
g12
(dp2711
S'posn'
p2712
S'150'
p2713
sS'name'
p2714
S'\xe0\xa4\xb8\xe0\xa5\x8d\xe0\xa4\xa5\xe0\xa4\xbe\xe0\xa4\xa8'
p2715
sS'af'
p2716
S'\xe0\xa4\xb8\xe0\xa5\x8d\xe0\xa4\xa5\xe0\xa4\xbe\xe0\xa4\xa8,n,m,sg,3,o,0_\xe0\xa4\xaa\xe0\xa4\xb0,0'
p2717
sS'chunkid'
p2718
S'NP7'
p2719
sS'drel'
p2720
S'k7:VGF'
p2721
sS'vpos'
p2722
S'vib_vib_3'
p2723
sS'chunktype'
p2724
S'head:NP7'
p2725
ssbsg26
I00
sg27
I00
sg28
Nsg29
Nsg30
I6
sg31
I4
sg32
Nsg33
Nsg34
S'NN'
p2726
sg36
g2709
sg37
I00
sba(issf_api
Word
p2727
(dp2728
g6
I00
sg7
V\u092a\u0930
p2729
sg9
(issf_api
FeatureSet
p2730
(dp2731
g12
(dp2732
S'posn'
p2733
S'160'
p2734
sS'name'
p2735
S'\xe0\xa4\xaa\xe0\xa4\xb0'
p2736
sS'drel'
p2737
S'lwg__psp:NP7'
p2738
sS'chunktype'
p2739
S'child:NP7'
p2740
sS'af'
p2741
S'\xe0\xa4\xaa\xe0\xa4\xb0,psp,,,,,,'
p2742
ssbsg26
I00
sg27
I00
sg28
Nsg29
Nsg30
I6
sg31
I4
sg32
Nsg33
Nsg34
S'PSP'
p2743
sg36
g2730
sg37
I00
sba(issf_api
Word
p2744
(dp2745
g6
I00
sg7
V\u0932\u093e\u0928\u0947
p2746
sg9
(issf_api
FeatureSet
p2747
(dp2748
g12
(dp2749
S'posn'
p2750
S'170'
p2751
sS'name'
p2752
S'\xe0\xa4\xb2\xe0\xa4\xbe\xe0\xa4\xa8\xe0\xa5\x87'
p2753
sS'af'
p2754
S'\xe0\xa4\xb2\xe0\xa4\xbe,v,any,sg,any,o,\xe0\xa4\xa8\xe0\xa4\xbe_\xe0\xa4\x95\xe0\xa4\xbe,nA'
p2755
sS'chunkid'
p2756
S'VGNN'
p2757
sS'drel'
p2758
S'r6:NP8'
p2759
sS'vpos'
p2760
S'tam_2'
p2761
sS'chunktype'
p2762
S'head:VGNN'
p2763
ssbsg26
I00
sg27
I00
sg28
Nsg29
Nsg30
I7
sg31
I4
sg32
Nsg33
Nsg34
S'VM'
p2764
sg36
g2747
sg37
I00
sba(issf_api
Word
p2765
(dp2766
g6
I00
sg7
V\u0915\u093e
p2767
sg9
(issf_api
FeatureSet
p2768
(dp2769
g12
(dp2770
S'posn'
p2771
S'180'
p2772
sS'name'
p2773
S'\xe0\xa4\x95\xe0\xa4\xbe'
p2774
sS'drel'
p2775
S'lwg__psp:VGNN'
p2776
sS'chunktype'
p2777
S'child:VGNN'
p2778
sS'af'
p2779
S'\xe0\xa4\x95\xe0\xa4\xbe,psp,m,sg,,d,,'
p2780
ssbsg26
I00
sg27
I00
sg28
Nsg29
Nsg30
I7
sg31
I4
sg32
Nsg33
Nsg34
S'PSP'
p2781
sg36
g2768
sg37
I00
sba(issf_api
Word
p2782
(dp2783
g6
I00
sg7
V\u0938\u0941\u091d\u093e\u0935
p2784
sg9
(issf_api
FeatureSet
p2785
(dp2786
g12
(dp2787
S'posn'
p2788
S'190'
p2789
sS'name'
p2790
S'\xe0\xa4\xb8\xe0\xa5\x81\xe0\xa4\x9d\xe0\xa4\xbe\xe0\xa4\xb5'
p2791
sS'af'
p2792
S'\xe0\xa4\xb8\xe0\xa5\x81\xe0\xa4\x9d\xe0\xa4\xbe\xe0\xa4\xb5,n,m,sg,3,d,0,0'
p2793
sS'chunkid'
p2794
S'NP8'
p2795
sS'drel'
p2796
S'k2:VGF'
p2797
sS'chunktype'
p2798
S'head:NP8'
p2799
ssbsg26
I00
sg27
I00
sg28
Nsg29
Nsg30
I8
sg31
I4
sg32
Nsg33
Nsg34
S'NN'
p2800
sg36
g2785
sg37
I00
sba(issf_api
Word
p2801
(dp2802
g6
I00
sg7
V\u0926\u093f\u092f\u093e
p2803
sg9
(issf_api
FeatureSet
p2804
(dp2805
g12
(dp2806
S'posn'
p2807
S'200'
p2808
sS'name'
p2809
S'\xe0\xa4\xa6\xe0\xa4\xbf\xe0\xa4\xaf\xe0\xa4\xbe'
p2810
sS'af'
p2811
S'\xe0\xa4\xa6\xe0\xa5\x87,v,m,sg,any,,\xe0\xa4\xaf\xe0\xa4\xbe_\xe0\xa4\xa5\xe0\xa4\xbe,yA'
p2812
sS'chunkid'
p2813
S'VGF'
p2814
sS'chunktype'
p2815
S'head:VGF'
p2816
sS'voicetype'
p2817
S'active'
p2818
sS'vpos'
p2819
S'tam_2'
p2820
sS'stype'
p2821
S'declarative'
p2822
ssbsg26
I00
sg27
I00
sg28
Nsg29
Nsg30
I9
sg31
I4
sg32
Nsg33
Nsg34
S'VM'
p2823
sg36
g2804
sg37
I00
sba(issf_api
Word
p2824
(dp2825
g6
I00
sg7
V\u0925\u093e
p2826
sg9
(issf_api
FeatureSet
p2827
(dp2828
g12
(dp2829
S'posn'
p2830
S'210'
p2831
sS'name'
p2832
S'\xe0\xa4\xa5\xe0\xa4\xbe'
p2833
sS'drel'
p2834
S'lwg__vaux:VGF'
p2835
sS'chunktype'
p2836
S'child:VGF'
p2837
sS'af'
p2838
S'\xe0\xa4\xa5\xe0\xa4\xbe,v,m,sg,any,,\xe0\xa4\xa5\xe0\xa4\xbe,WA'
p2839
ssbsg26
I00
sg27
I00
sg28
Nsg29
Nsg30
I9
sg31
I4
sg32
Nsg33
Nsg34
S'VAUX'
p2840
sg36
g2827
sg37
I00
sba(issf_api
Word
p2841
(dp2842
g6
I00
sg7
V\u0964
p2843
sg9
(issf_api
FeatureSet
p2844
(dp2845
g12
(dp2846
S'posn'
p2847
S'220'
p2848
sS'name'
p2849
S'\xe0\xa5\xa4'
p2850
sS'af'
p2851
S'\xe0\xa5\xa4,punc,,,,,,'
p2852
sS'chunkid'
p2853
S'BLK'
p2854
sS'drel'
p2855
S'rsym:VGF'
p2856
sS'chunktype'
p2857
S'head:BLK'
p2858
ssbsg26
I00
sg27
I00
sg28
Nsg29
Nsg30
I10
sg31
I4
sg32
Nsg33
Nsg34
S'SYM'
p2859
sg36
g2844
sg37
I00
sba(issf_api
Word
p2860
(dp2861
g6
I00
sg7
V\u0932\u0947\u0915\u093f\u0928
p2862
sg9
(issf_api
FeatureSet
p2863
(dp2864
g12
(dp2865
S'posn'
p2866
S'10'
p2867
sS'chunkid'
p2868
S'CCP'
p2869
sS'name'
p2870
S'\xe0\xa4\xb2\xe0\xa5\x87\xe0\xa4\x95\xe0\xa4\xbf\xe0\xa4\xa8'
p2871
sS'chunktype'
p2872
S'head:CCP'
p2873
sS'af'
p2874
S'\xe0\xa4\xb2\xe0\xa5\x87\xe0\xa4\x95\xe0\xa4\xbf\xe0\xa4\xa8,avy,,,,,,'
p2875
ssbsg26
I00
sg27
I00
sg28
Nsg29
Nsg30
I0
sg31
I5
sg32
Nsg33
Nsg34
S'CC'
p2876
sg36
g2863
sg37
I00
sba(issf_api
Word
p2877
(dp2878
g6
I00
sg7
V,
p2879
sg9
(issf_api
FeatureSet
p2880
(dp2881
g12
(dp2882
S'posn'
p2883
S'20'
p2884
sS'name'
p2885
g1178
sS'drel'
p2886
S'rsym:CCP'
p2887
sS'chunktype'
p2888
S'child:CCP'
p2889
sS'af'
p2890
S'COMMA,punc,,,,,,'
p2891
ssbsg26
I00
sg27
I00
sg28
Nsg29
Nsg30
I0
sg31
I5
sg32
Nsg33
Nsg34
S'SYM'
p2892
sg36
g2880
sg37
I00
sba(issf_api
Word
p2893
(dp2894
g6
I00
sg7
V\u0905\u092f\u094d\u092f\u0930
p2895
sg9
(issf_api
FeatureSet
p2896
(dp2897
g12
(dp2898
S'crefhead'
p2899
S'\xe0\xa4\x85\xe0\xa4\xaf\xe0\xa5\x8d\xe0\xa4\xaf\xe0\xa4\xb0:i24'
p2900
sS'posn'
p2901
S'30'
p2902
sS'name'
p2903
S'\xe0\xa4\x85\xe0\xa4\xaf\xe0\xa5\x8d\xe0\xa4\xaf\xe0\xa4\xb0'
p2904
sS'af'
p2905
S'\xe0\xa4\x85\xe0\xa4\xaf\xe0\xa5\x8d\xe0\xa4\xaf\xe0\xa4\xb0,n,any,sg,3,o,0_\xe0\xa4\xa8\xe0\xa5\x87,0'
p2906
sS'chunkid'
p2907
S'NP'
p2908
sS'creftype'
p2909
S'Coreference-Identity:i16'
p2910
sS'chunktype'
p2911
S'head:NP'
p2912
sS'vpos'
p2913
S'vib_2'
p2914
sS'cref'
p2915
S'i24%1:t1'
p2916
sS'drel'
p2917
S'k1:VGF'
p2918
ssbsg26
I00
sg27
I00
sg28
Nsg29
Nsg30
I1
sg31
I5
sg32
Nsg33
Nsg34
S'NNP'
p2919
sg36
g2896
sg37
I00
sba(issf_api
Word
p2920
(dp2921
g6
I00
sg7
V\u0928\u0947
p2922
sg9
(issf_api
FeatureSet
p2923
(dp2924
g12
(dp2925
S'posn'
p2926
S'40'
p2927
sS'name'
p2928
S'\xe0\xa4\xa8\xe0\xa5\x87'
p2929
sS'drel'
p2930
S'lwg__psp:NP'
p2931
sS'chunktype'
p2932
S'child:NP'
p2933
sS'af'
p2934
S'\xe0\xa4\xa8\xe0\xa5\x87,psp,,,,,,'
p2935
ssbsg26
I00
sg27
I00
sg28
Nsg29
Nsg30
I1
sg31
I5
sg32
Nsg33
Nsg34
S'PSP'
p2936
sg36
g2923
sg37
I00
sba(issf_api
Word
p2937
(dp2938
g6
I00
sg7
V\u0907\u0938
p2939
sg9
(issf_api
FeatureSet
p2940
(dp2941
g12
(dp2942
S'posn'
p2943
S'50'
p2944
sS'name'
p2945
S'\xe0\xa4\x87\xe0\xa4\xb8'
p2946
sS'drel'
p2947
S'nmod__adj:NP2'
p2948
sS'chunktype'
p2949
S'child:NP2'
p2950
sS'af'
p2951
S'\xe0\xa4\xaf\xe0\xa4\xb9,pn,any,sg,3,o,,'
p2952
ssbsg26
I00
sg27
I00
sg28
Nsg29
Nsg30
I2
sg31
I5
sg32
Nsg33
Nsg34
S'DEM'
p2953
sg36
g2940
sg37
I00
sba(issf_api
Word
p2954
(dp2955
g6
I00
sg7
V\u092e\u093e\u0930\u094d\u0917
p2956
sg9
(issf_api
FeatureSet
p2957
(dp2958
g12
(dp2959
S'posn'
p2960
S'60'
p2961
sS'name'
p2962
S'\xe0\xa4\xae\xe0\xa4\xbe\xe0\xa4\xb0\xe0\xa5\x8d\xe0\xa4\x97'
p2963
sS'af'
p2964
S'\xe0\xa4\xae\xe0\xa4\xbe\xe0\xa4\xb0\xe0\xa5\x8d\xe0\xa4\x97,n,m,sg,3,o,0_\xe0\xa4\xaa\xe0\xa4\xb0,0'
p2965
sS'chunkid'
p2966
S'NP2'
p2967
sS'drel'
p2968
S'k7p:VGF'
p2969
sS'vpos'
p2970
S'vib_3'
p2971
sS'chunktype'
p2972
S'head:NP2'
p2973
ssbsg26
I00
sg27
I00
sg28
Nsg29
Nsg30
I2
sg31
I5
sg32
Nsg33
Nsg34
S'NN'
p2974
sg36
g2957
sg37
I00
sba(issf_api
Word
p2975
(dp2976
g6
I00
sg7
V\u092a\u0930
p2977
sg9
(issf_api
FeatureSet
p2978
(dp2979
g12
(dp2980
S'posn'
p2981
S'70'
p2982
sS'name'
p2983
S'\xe0\xa4\xaa\xe0\xa4\xb0'
p2984
sS'drel'
p2985
S'lwg__psp:NP2'
p2986
sS'chunktype'
p2987
S'child:NP2'
p2988
sS'af'
p2989
S'\xe0\xa4\xaa\xe0\xa4\xb0,psp,,,,,,'
p2990
ssbsg26
I00
sg27
I00
sg28
Nsg29
Nsg30
I2
sg31
I5
sg32
Nsg33
Nsg34
S'PSP'
p2991
sg36
g2978
sg37
I00
sba(issf_api
Word
p2992
(dp2993
g6
I00
sg7
V\u0915\u092e
p2994
sg9
(issf_api
FeatureSet
p2995
(dp2996
g12
(dp2997
S'posn'
p2998
S'80'
p2999
sS'name'
p3000
S'\xe0\xa4\x95\xe0\xa4\xae'
p3001
sS'drel'
p3002
S'nmod__adj:NP3'
p3003
sS'chunktype'
p3004
S'child:NP3'
p3005
sS'af'
p3006
S'\xe0\xa4\x95\xe0\xa4\xae,avy,,,,,,'
p3007
ssbsg26
I00
sg27
I00
sg28
Nsg29
Nsg30
I3
sg31
I5
sg32
Nsg33
Nsg34
S'QF'
p3008
sg36
g2995
sg37
I00
sba(issf_api
Word
p3009
(dp3010
g6
I00
sg7
V\u0906\u092c\u093e\u0926\u0940
p3011
sg9
(issf_api
FeatureSet
p3012
(dp3013
g12
(dp3014
S'posn'
p3015
S'90'
p3016
sS'name'
p3017
S'\xe0\xa4\x86\xe0\xa4\xac\xe0\xa4\xbe\xe0\xa4\xa6\xe0\xa5\x80'
p3018
sS'af'
p3019
S'\xe0\xa4\x86\xe0\xa4\xac\xe0\xa4\xbe\xe0\xa4\xa6\xe0\xa5\x80,n,f,sg,3,d,0,0'
p3020
sS'chunkid'
p3021
S'NP3'
p3022
sS'drel'
p3023
S'k1:VGNN'
p3024
sS'chunktype'
p3025
S'head:NP3'
p3026
ssbsg26
I00
sg27
I00
sg28
Nsg29
Nsg30
I3
sg31
I5
sg32
Nsg33
Nsg34
S'NN'
p3027
sg36
g3012
sg37
I00
sba(issf_api
Word
p3028
(dp3029
g6
I00
sg7
V\u0939\u094b\u0928\u0947
p3030
sg9
(issf_api
FeatureSet
p3031
(dp3032
g12
(dp3033
S'posn'
p3034
S'100'
p3035
sS'name'
p3036
S'\xe0\xa4\xb9\xe0\xa5\x8b\xe0\xa4\xa8\xe0\xa5\x87'
p3037
sS'af'
p3038
S'\xe0\xa4\xb9\xe0\xa5\x8b,v,any,any,any,o,\xe0\xa4\xa8\xe0\xa4\xbe_\xe0\xa4\x95\xe0\xa5\x87_\xe0\xa4\x9a\xe0\xa4\xb2\xe0\xa4\xa4\xe0\xa5\x87,nA'
p3039
sS'chunkid'
p3040
S'VGNN'
p3041
sS'drel'
p3042
S'rh:VGF'
p3043
sS'vpos'
p3044
S'tam_2_3'
p3045
sS'chunktype'
p3046
S'head:VGNN'
p3047
ssbsg26
I00
sg27
I00
sg28
Nsg29
Nsg30
I4
sg31
I5
sg32
Nsg33
Nsg34
S'VM'
p3048
sg36
g3031
sg37
I00
sba(issf_api
Word
p3049
(dp3050
g6
I00
sg7
V\u0915\u0947
p3051
sg9
(issf_api
FeatureSet
p3052
(dp3053
g12
(dp3054
S'posn'
p3055
S'110'
p3056
sS'name'
p3057
S'\xe0\xa4\x95\xe0\xa5\x87'
p3058
sS'drel'
p3059
S'lwg__psp:VGNN'
p3060
sS'chunktype'
p3061
S'child:VGNN'
p3062
sS'af'
p3063
S'\xe0\xa4\x95\xe0\xa5\x87,psp,,,,,,'
p3064
ssbsg26
I00
sg27
I00
sg28
Nsg29
Nsg30
I4
sg31
I5
sg32
Nsg33
Nsg34
S'PSP'
p3065
sg36
g3052
sg37
I00
sba(issf_api
Word
p3066
(dp3067
g6
I00
sg7
V\u091a\u0932\u0924\u0947
p3068
sg9
(issf_api
FeatureSet
p3069
(dp3070
g12
(dp3071
S'posn'
p3072
S'120'
p3073
sS'name'
p3074
S'\xe0\xa4\x9a\xe0\xa4\xb2\xe0\xa4\xa4\xe0\xa5\x87'
p3075
sS'drel'
p3076
S'lwg__psp:VGNN'
p3077
sS'chunktype'
p3078
S'child:VGNN'
p3079
sS'af'
p3080
S'\xe0\xa4\x9a\xe0\xa4\xb2\xe0\xa4\xa4\xe0\xa5\x87,psp,,,,,,'
p3081
ssbsg26
I00
sg27
I00
sg28
Nsg29
Nsg30
I4
sg31
I5
sg32
Nsg33
Nsg34
S'PSP'
p3082
sg36
g3069
sg37
I00
sba(issf_api
Word
p3083
(dp3084
g6
I00
sg7
V\u092a\u093e\u0907\u092a\u0932\u093e\u0907\u0928
p3085
sg9
(issf_api
FeatureSet
p3086
(dp3087
g12
(dp3088
S'crefhead'
p3089
S'\xe0\xa4\xaa\xe0\xa4\xbe\xe0\xa4\x87\xe0\xa4\xaa\xe0\xa4\xb2\xe0\xa4\xbe\xe0\xa4\x87\xe0\xa4\xa8:i25'
p3090
sS'posn'
p3091
S'130'
p3092
sS'name'
p3093
S'\xe0\xa4\xaa\xe0\xa4\xbe\xe0\xa4\x87\xe0\xa4\xaa\xe0\xa4\xb2\xe0\xa4\xbe\xe0\xa4\x87\xe0\xa4\xa8'
p3094
sS'af'
p3095
S'\xe0\xa4\xaa\xe0\xa4\xbe\xe0\xa4\x87\xe0\xa4\xaa\xe0\xa4\xb2\xe0\xa4\xbe\xe0\xa4\x87\xe0\xa4\xa8,n,f,sg,3,o,0_\xe0\xa4\xaa\xe0\xa4\xb0,0'
p3096
sS'chunkid'
p3097
S'NP4'
p3098
sS'creftype'
p3099
S'Coreference-Identity:i9'
p3100
sS'chunktype'
p3101
S'head:NP4'
p3102
sS'vpos'
p3103
S'vib_2'
p3104
sS'cref'
p3105
S'i25%1:t3'
p3106
sS'drel'
p3107
S'k7p:VGF'
p3108
ssbsg26
I00
sg27
I00
sg28
Nsg29
Nsg30
I5
sg31
I5
sg32
Nsg33
Nsg34
S'NN'
p3109
sg36
g3086
sg37
I00
sba(issf_api
Word
p3110
(dp3111
g6
I00
sg7
V\u092a\u0930
p3112
sg9
(issf_api
FeatureSet
p3113
(dp3114
g12
(dp3115
S'posn'
p3116
S'140'
p3117
sS'name'
p3118
S'\xe0\xa4\xaa\xe0\xa4\xb02'
p3119
sS'drel'
p3120
S'lwg__psp:NP4'
p3121
sS'chunktype'
p3122
S'child:NP4'
p3123
sS'af'
p3124
S'\xe0\xa4\xaa\xe0\xa4\xb0,psp,,,,,,'
p3125
ssbsg26
I00
sg27
I00
sg28
Nsg29
Nsg30
I5
sg31
I5
sg32
Nsg33
Nsg34
S'PSP'
p3126
sg36
g3113
sg37
I00
sba(issf_api
Word
p3127
(dp3128
g6
I00
sg7
V\u0906\u0924\u0902\u0915\u0940
p3129
sg9
(issf_api
FeatureSet
p3130
(dp3131
g12
(dp3132
S'posn'
p3133
S'150'
p3134
sS'name'
p3135
S'\xe0\xa4\x86\xe0\xa4\xa4\xe0\xa4\x82\xe0\xa4\x95\xe0\xa5\x80'
p3136
sS'drel'
p3137
S'nmod__adj:NP5'
p3138
sS'chunktype'
p3139
S'child:NP5'
p3140
sS'af'
p3141
S'\xe0\xa4\x86\xe0\xa4\xa4\xe0\xa4\x82\xe0\xa4\x95\xe0\xa5\x80,adj,any,any,,o,,'
p3142
ssbsg26
I00
sg27
I00
sg28
Nsg29
Nsg30
I6
sg31
I5
sg32
Nsg33
Nsg34
S'JJ'
p3143
sg36
g3130
sg37
I00
sba(issf_api
Word
p3144
(dp3145
g6
I00
sg7
V\u0939\u092e\u0932\u0947
p3146
sg9
(issf_api
FeatureSet
p3147
(dp3148
g12
(dp3149
S'posn'
p3150
S'160'
p3151
sS'name'
p3152
S'\xe0\xa4\xb9\xe0\xa4\xae\xe0\xa4\xb2\xe0\xa5\x87'
p3153
sS'af'
p3154
S'\xe0\xa4\xb9\xe0\xa4\xae\xe0\xa4\xb2\xe0\xa4\xbe,n,m,sg,3,o,0_\xe0\xa4\x95\xe0\xa4\xbe,0'
p3155
sS'chunkid'
p3156
S'NP5'
p3157
sS'drel'
p3158
S'r6-k2:NP6'
p3159
sS'vpos'
p3160
S'vib_3'
p3161
sS'chunktype'
p3162
S'head:NP5'
p3163
ssbsg26
I00
sg27
I00
sg28
Nsg29
Nsg30
I6
sg31
I5
sg32
Nsg33
Nsg34
S'NN'
p3164
sg36
g3147
sg37
I00
sba(issf_api
Word
p3165
(dp3166
g6
I00
sg7
V\u0915\u0940
p3167
sg9
(issf_api
FeatureSet
p3168
(dp3169
g12
(dp3170
S'posn'
p3171
S'170'
p3172
sS'name'
p3173
S'\xe0\xa4\x95\xe0\xa5\x80'
p3174
sS'drel'
p3175
S'lwg__psp:NP5'
p3176
sS'chunktype'
p3177
S'child:NP5'
p3178
sS'af'
p3179
S'\xe0\xa4\x95\xe0\xa4\xbe,psp,f,sg,,d,,'
p3180
ssbsg26
I00
sg27
I00
sg28
Nsg29
Nsg30
I6
sg31
I5
sg32
Nsg33
Nsg34
S'PSP'
p3181
sg36
g3168
sg37
I00
sba(issf_api
Word
p3182
(dp3183
g6
I00
sg7
V\u0906\u0936\u0902\u0915\u093e
p3184
sg9
(issf_api
FeatureSet
p3185
(dp3186
g12
(dp3187
S'posn'
p3188
S'180'
p3189
sS'name'
p3190
S'\xe0\xa4\x86\xe0\xa4\xb6\xe0\xa4\x82\xe0\xa4\x95\xe0\xa4\xbe'
p3191
sS'af'
p3192
S'\xe0\xa4\x86\xe0\xa4\xb6\xe0\xa4\x82\xe0\xa4\x95\xe0\xa4\xbe,n,f,sg,3,d,0,0'
p3193
sS'chunkid'
p3194
S'NP6'
p3195
sS'drel'
p3196
S'pof:VGF'
p3197
sS'chunktype'
p3198
S'head:NP6'
p3199
ssbsg26
I00
sg27
I00
sg28
Nsg29
Nsg30
I7
sg31
I5
sg32
Nsg33
Nsg34
S'NN'
p3200
sg36
g3185
sg37
I00
sba(issf_api
Word
p3201
(dp3202
g6
I00
sg7
V\u091c\u0924\u093e\u0908
p3203
sg9
(issf_api
FeatureSet
p3204
(dp3205
g12
(dp3206
S'posn'
p3207
S'190'
p3208
sS'name'
p3209
S'\xe0\xa4\x9c\xe0\xa4\xa4\xe0\xa4\xbe\xe0\xa4\x88'
p3210
sS'af'
p3211
S'\xe0\xa4\x9c\xe0\xa4\xa4\xe0\xa4\xbe,v,f,sg,3,,\xe0\xa4\xaf\xe0\xa4\xbe_\xe0\xa4\xb9\xe0\xa5\x88,yA'
p3212
sS'chunkid'
p3213
S'VGF'
p3214
sS'stype'
p3215
S'declarative'
p3216
sS'drel'
p3217
S'ccof:CCP'
p3218
sS'voicetype'
p3219
S'active'
p3220
sS'vpos'
p3221
S'tam_2'
p3222
sS'chunktype'
p3223
S'head:VGF'
p3224
ssbsg26
I00
sg27
I00
sg28
Nsg29
Nsg30
I8
sg31
I5
sg32
Nsg33
Nsg34
S'VM'
p3225
sg36
g3204
sg37
I00
sba(issf_api
Word
p3226
(dp3227
g6
I00
sg7
V\u0939\u0948
p3228
sg9
(issf_api
FeatureSet
p3229
(dp3230
g12
(dp3231
S'posn'
p3232
S'200'
p3233
sS'name'
p3234
S'\xe0\xa4\xb9\xe0\xa5\x88'
p3235
sS'drel'
p3236
S'lwg__vaux:VGF'
p3237
sS'chunktype'
p3238
S'child:VGF'
p3239
sS'af'
p3240
S'\xe0\xa4\xb9\xe0\xa5\x88,v,any,sg,3,,\xe0\xa4\xb9\xe0\xa5\x88,hE'
p3241
ssbsg26
I00
sg27
I00
sg28
Nsg29
Nsg30
I8
sg31
I5
sg32
Nsg33
Nsg34
S'VAUX'
p3242
sg36
g3229
sg37
I00
sba(issf_api
Word
p3243
(dp3244
g6
I00
sg7
V\u0964
p3245
sg9
(issf_api
FeatureSet
p3246
(dp3247
g12
(dp3248
S'posn'
p3249
S'210'
p3250
sS'name'
p3251
S'\xe0\xa5\xa4'
p3252
sS'af'
p3253
S'\xe0\xa5\xa4,punc,,,,,,'
p3254
sS'chunkid'
p3255
S'BLK'
p3256
sS'drel'
p3257
S'rsym:CCP'
p3258
sS'chunktype'
p3259
S'head:BLK'
p3260
ssbsg26
I00
sg27
I00
sg28
Nsg29
Nsg30
I9
sg31
I5
sg32
Nsg33
Nsg34
S'SYM'
p3261
sg36
g3246
sg37
I00
sba(issf_api
Word
p3262
(dp3263
g6
I00
sg7
V\u0905\u0927\u093f\u0915\u093e\u0930\u093f\u092f\u094b\u0902
p3264
sg9
(issf_api
FeatureSet
p3265
(dp3266
g12
(dp3267
S'crefhead'
p3268
S'\xe0\xa4\x85\xe0\xa4\xa7\xe0\xa4\xbf\xe0\xa4\x95\xe0\xa4\xbe\xe0\xa4\xb0\xe0\xa4\xbf\xe0\xa4\xaf\xe0\xa5\x8b\xe0\xa4\x82:i26'
p3269
sS'posn'
p3270
S'10'
p3271
sS'name'
p3272
S'\xe0\xa4\x85\xe0\xa4\xa7\xe0\xa4\xbf\xe0\xa4\x95\xe0\xa4\xbe\xe0\xa4\xb0\xe0\xa4\xbf\xe0\xa4\xaf\xe0\xa5\x8b\xe0\xa4\x82'
p3273
sS'af'
p3274
S'\xe0\xa4\x85\xe0\xa4\xa7\xe0\xa4\xbf\xe0\xa4\x95\xe0\xa4\xbe\xe0\xa4\xb0\xe0\xa5\x80,n,m,pl,3,o,0_\xe0\xa4\xa8\xe0\xa5\x87,0'
p3275
sS'chunkid'
p3276
S'NP'
p3277
sS'creftype'
p3278
S'Coreference-Identity:i13'
p3279
sS'chunktype'
p3280
S'head:NP'
p3281
sS'vpos'
p3282
S'vib_2'
p3283
sS'cref'
p3284
S'i26%1:t8'
p3285
sS'drel'
p3286
S'k1:VGF'
p3287
ssbsg26
I00
sg27
I00
sg28
Nsg29
Nsg30
I0
sg31
I6
sg32
Nsg33
Nsg34
S'NN'
p3288
sg36
g3265
sg37
I00
sba(issf_api
Word
p3289
(dp3290
g6
I00
sg7
V\u0928\u0947
p3291
sg9
(issf_api
FeatureSet
p3292
(dp3293
g12
(dp3294
S'posn'
p3295
S'20'
p3296
sS'name'
p3297
S'\xe0\xa4\xa8\xe0\xa5\x87'
p3298
sS'drel'
p3299
S'lwg__psp:NP'
p3300
sS'chunktype'
p3301
S'child:NP'
p3302
sS'af'
p3303
S'\xe0\xa4\xa8\xe0\xa5\x87,psp,,,,,,'
p3304
ssbsg26
I00
sg27
I00
sg28
Nsg29
Nsg30
I0
sg31
I6
sg32
Nsg33
Nsg34
S'PSP'
p3305
sg36
g3292
sg37
I00
sba(issf_api
Word
p3306
(dp3307
g6
I00
sg7
V\u092c\u0924\u093e\u092f\u093e
p3308
sg9
(issf_api
FeatureSet
p3309
(dp3310
g12
(dp3311
S'posn'
p3312
S'30'
p3313
sS'name'
p3314
S'\xe0\xa4\xac\xe0\xa4\xa4\xe0\xa4\xbe\xe0\xa4\xaf\xe0\xa4\xbe'
p3315
sS'af'
p3316
S'\xe0\xa4\xac\xe0\xa4\xa4\xe0\xa4\xbe,v,m,sg,any,,\xe0\xa4\xaf\xe0\xa4\xbe,yA'
p3317
sS'chunkid'
p3318
S'VGF'
p3319
sS'chunktype'
p3320
S'head:VGF'
p3321
sS'voicetype'
p3322
S'active'
p3323
sS'stype'
p3324
S'declarative'
p3325
ssbsg26
I00
sg27
I00
sg28
Nsg29
Nsg30
I1
sg31
I6
sg32
Nsg33
Nsg34
S'VM'
p3326
sg36
g3309
sg37
I00
sba(issf_api
Word
p3327
(dp3328
g6
I00
sg7
V\u0915\u093f
p3329
sg9
(issf_api
FeatureSet
p3330
(dp3331
g12
(dp3332
S'posn'
p3333
S'40'
p3334
sS'name'
p3335
S'\xe0\xa4\x95\xe0\xa4\xbf'
p3336
sS'af'
p3337
S'\xe0\xa4\x95\xe0\xa4\xbf,avy,,,,,,'
p3338
sS'chunkid'
p3339
S'CCP'
p3340
sS'drel'
p3341
S'k2:VGF'
p3342
sS'chunktype'
p3343
S'head:CCP'
p3344
ssbsg26
I00
sg27
I00
sg28
Nsg29
Nsg30
I2
sg31
I6
sg32
Nsg33
Nsg34
S'CC'
p3345
sg36
g3330
sg37
I00
sba(issf_api
Word
p3346
(dp3347
g6
I00
sg7
V\u0968,\u096c\u0966\u0966
p3348
sg9
(issf_api
FeatureSet
p3349
(dp3350
g12
(dp3351
S'posn'
p3352
S'50'
p3353
sS'name'
p3354
S'\xe0\xa5\xa8,\xe0\xa5\xac\xe0\xa5\xa6\xe0\xa5\xa6'
p3355
sS'af'
p3356
S'\xe0\xa5\xa8\xe0\xa5\xac\xe0\xa5\xa6\xe0\xa5\xa6,num,any,any,,any,,'
p3357
sS'drel'
p3358
S'nmod__adj:NP2'
p3359
sS'chunktype'
p3360
S'child:NP2'
p3361
sS'cref'
p3362
S'i27%0:t3'
p3363
ssbsg26
I00
sg27
I00
sg28
Nsg29
Nsg30
I3
sg31
I6
sg32
Nsg33
Nsg34
S'QC'
p3364
sg36
g3349
sg37
I00
sba(issf_api
Word
p3365
(dp3366
g6
I00
sg7
V\u0915\u093f\u092e\u0940
p3367
sg9
(issf_api
FeatureSet
p3368
(dp3369
g12
(dp3370
S'posn'
p3371
S'60'
p3372
sS'name'
p3373
S'\xe0\xa4\x95\xe0\xa4\xbf\xe0\xa4\xae\xe0\xa5\x80'
p3374
sS'af'
p3375
S'\xe0\xa4\x95\xe0\xa4\xbf\xe0\xa4\xae\xe0\xa5\x80,n,m,sg,3,d,0,0'
p3376
sS'chunkid'
p3377
S'NP2'
p3378
sS'drel'
p3379
S'jjmod:JJP'
p3380
sS'chunktype'
p3381
S'head:NP2'
p3382
sS'cref'
p3383
S'i27%0:t3'
p3384
ssbsg26
I00
sg27
I00
sg28
Nsg29
Nsg30
I3
sg31
I6
sg32
Nsg33
Nsg34
S'NN'
p3385
sg36
g3368
sg37
I00
sba(issf_api
Word
p3386
(dp3387
g6
I00
sg7
V\u0932\u0902\u092c\u0940
p3388
sg9
(issf_api
FeatureSet
p3389
(dp3390
g12
(dp3391
S'posn'
p3392
S'70'
p3393
sS'name'
p3394
S'\xe0\xa4\xb2\xe0\xa4\x82\xe0\xa4\xac\xe0\xa5\x80'
p3395
sS'af'
p3396
S'\xe0\xa4\xb2\xe0\xa4\x82\xe0\xa4\xac\xe0\xa4\xbe,adj,f,sg,,o,,'
p3397
sS'chunkid'
p3398
S'JJP'
p3399
sS'drel'
p3400
S'nmod:NP3'
p3401
sS'chunktype'
p3402
S'head:JJP'
p3403
sS'cref'
p3404
S'i27%0:t3'
p3405
ssbsg26
I00
sg27
I00
sg28
Nsg29
Nsg30
I4
sg31
I6
sg32
Nsg33
Nsg34
S'JJ'
p3406
sg36
g3389
sg37
I00
sba(issf_api
Word
p3407
(dp3408
g6
I00
sg7
V\u092a\u093e\u0907\u092a\u0932\u093e\u0907\u0928
p3409
sg9
(issf_api
FeatureSet
p3410
(dp3411
g12
(dp3412
S'crefhead'
p3413
S'\xe0\xa4\xaa\xe0\xa4\xbe\xe0\xa4\x87\xe0\xa4\xaa\xe0\xa4\xb2\xe0\xa4\xbe\xe0\xa4\x87\xe0\xa4\xa8:i27'
p3414
sS'posn'
p3415
S'80'
p3416
sS'name'
p3417
S'\xe0\xa4\xaa\xe0\xa4\xbe\xe0\xa4\x87\xe0\xa4\xaa\xe0\xa4\xb2\xe0\xa4\xbe\xe0\xa4\x87\xe0\xa4\xa8'
p3418
sS'af'
p3419
S'\xe0\xa4\xaa\xe0\xa4\xbe\xe0\xa4\x87\xe0\xa4\xaa\xe0\xa4\xb2\xe0\xa4\xbe\xe0\xa4\x87\xe0\xa4\xa8,n,f,sg,3,o,0_\xe0\xa4\x95\xe0\xa5\x87_\xe0\xa4\x9c\xe0\xa4\xb0\xe0\xa4\xbf\xe0\xa4\xaf\xe0\xa5\x87,0'
p3420
sS'chunkid'
p3421
S'NP3'
p3422
sS'creftype'
p3423
S'Coreference-Identity:i25'
p3424
sS'chunktype'
p3425
S'head:NP3'
p3426
sS'vpos'
p3427
S'vib_2_3'
p3428
sS'cref'
p3429
S'i27%1:t3'
p3430
sS'drel'
p3431
S'k3:VGNN'
p3432
ssbsg26
I00
sg27
I00
sg28
Nsg29
Nsg30
I5
sg31
I6
sg32
Nsg33
Nsg34
S'NN'
p3433
sg36
g3410
sg37
I00
sba(issf_api
Word
p3434
(dp3435
g6
I00
sg7
V\u0915\u0947
p3436
sg9
(issf_api
FeatureSet
p3437
(dp3438
g12
(dp3439
S'posn'
p3440
S'90'
p3441
sS'name'
p3442
S'\xe0\xa4\x95\xe0\xa5\x87'
p3443
sS'drel'
p3444
S'lwg__psp:NP3'
p3445
sS'chunktype'
p3446
S'child:NP3'
p3447
sS'af'
p3448
S'\xe0\xa4\x95\xe0\xa5\x87,psp,,,,,,'
p3449
ssbsg26
I00
sg27
I00
sg28
Nsg29
Nsg30
I5
sg31
I6
sg32
Nsg33
Nsg34
S'PSP'
p3450
sg36
g3437
sg37
I00
sba(issf_api
Word
p3451
(dp3452
g6
I00
sg7
V\u091c\u0930\u093f\u090f
p3453
sg9
(issf_api
FeatureSet
p3454
(dp3455
g12
(dp3456
S'posn'
p3457
S'100'
p3458
sS'name'
p3459
S'\xe0\xa4\x9c\xe0\xa4\xb0\xe0\xa4\xbf\xe0\xa4\x8f'
p3460
sS'drel'
p3461
S'lwg__psp:NP3'
p3462
sS'chunktype'
p3463
S'child:NP3'
p3464
sS'af'
p3465
S'\xe0\xa4\x9c\xe0\xa4\xb0\xe0\xa4\xbf\xe0\xa4\xaf\xe0\xa5\x87,psp,,,,,,'
p3466
ssbsg26
I00
sg27
I00
sg28
Nsg29
Nsg30
I5
sg31
I6
sg32
Nsg33
Nsg34
S'PSP'
p3467
sg36
g3454
sg37
I00
sba(issf_api
Word
p3468
(dp3469
g6
I00
sg7
V\u0917\u0948\u0938
p3470
sg9
(issf_api
FeatureSet
p3471
(dp3472
g12
(dp3473
S'crefhead'
p3474
S'\xe0\xa4\x97\xe0\xa5\x88\xe0\xa4\xb8:i28'
p3475
sS'posn'
p3476
S'110'
p3477
sS'name'
p3478
S'\xe0\xa4\x97\xe0\xa5\x88\xe0\xa4\xb8'
p3479
sS'af'
p3480
S'\xe0\xa4\x97\xe0\xa5\x88\xe0\xa4\xb8,n,f,sg,3,o,0_\xe0\xa4\x95\xe0\xa4\xbe,0'
p3481
sS'acrefmodhead'
p3482
S'\xe0\xa4\x97\xe0\xa5\x88\xe0\xa4\xb8:m2'
p3483
sS'chunkid'
p3484
S'NP4'
p3485
sS'acrefmod'
p3486
S'm2%1:i29'
p3487
sS'creftype'
p3488
S'Coreference-Identity:i22'
p3489
sS'chunktype'
p3490
S'head:NP4'
p3491
sS'vpos'
p3492
S'vib_2'
p3493
sS'cref'
p3494
S'i28%1:t5'
p3495
sS'drel'
p3496
S'r6:NP8'
p3497
ssbsg26
I00
sg27
I00
sg28
Nsg29
Nsg30
I6
sg31
I6
sg32
Nsg33
Nsg34
S'NN'
p3498
sg36
g3471
sg37
I00
sba(issf_api
Word
p3499
(dp3500
g6
I00
sg7
V\u0915\u0940
p3501
sg9
(issf_api
FeatureSet
p3502
(dp3503
g12
(dp3504
S'posn'
p3505
S'120'
p3506
sS'name'
p3507
S'\xe0\xa4\x95\xe0\xa5\x80'
p3508
sS'drel'
p3509
S'lwg__psp:NP4'
p3510
sS'chunktype'
p3511
S'child:NP4'
p3512
sS'af'
p3513
S'\xe0\xa4\x95\xe0\xa4\xbe,psp,f,sg,,d,,'
p3514
ssbsg26
I00
sg27
I00
sg28
Nsg29
Nsg30
I6
sg31
I6
sg32
Nsg33
Nsg34
S'PSP'
p3515
sg36
g3502
sg37
I00
sba(issf_api
Word
p3516
(dp3517
g6
I00
sg7
V\u0906\u092a\u0942\u0930\u094d\u0924\u093f
p3518
sg9
(issf_api
FeatureSet
p3519
(dp3520
g12
(dp3521
S'crefhead'
p3522
S'\xe0\xa4\x86\xe0\xa4\xaa\xe0\xa5\x82\xe0\xa4\xb0\xe0\xa5\x8d\xe0\xa4\xa4\xe0\xa4\xbf:i29'
p3523
sS'posn'
p3524
S'130'
p3525
sS'name'
p3526
S'\xe0\xa4\x86\xe0\xa4\xaa\xe0\xa5\x82\xe0\xa4\xb0\xe0\xa5\x8d\xe0\xa4\xa4\xe0\xa4\xbf'
p3527
sS'af'
p3528
S'\xe0\xa4\x86\xe0\xa4\xaa\xe0\xa5\x82\xe0\xa4\xb0\xe0\xa5\x8d\xe0\xa4\xa4\xe0\xa4\xbf,n,f,sg,3,d,0,0'
p3529
sS'chunkid'
p3530
S'NP5'
p3531
sS'crefmod'
p3532
S'm2:i29'
p3533
sS'chunktype'
p3534
S'head:NP5'
p3535
sS'crefchainhead'
p3536
S'i29:t11'
p3537
sS'cref'
p3538
S'i29%1:t11'
p3539
sS'drel'
p3540
S'k2:VGNN'
p3541
ssbsg26
I00
sg27
I00
sg28
Nsg29
Nsg30
I7
sg31
I6
sg32
Nsg33
Nsg34
S'NN'
p3542
sg36
g3519
sg37
I00
sba(issf_api
Word
p3543
(dp3544
g6
I00
sg7
V\u0935\u0930\u094d\u0937
p3545
sg9
(issf_api
FeatureSet
p3546
(dp3547
g12
(dp3548
S'posn'
p3549
S'140'
p3550
sS'name'
p3551
S'\xe0\xa4\xb5\xe0\xa4\xb0\xe0\xa5\x8d\xe0\xa4\xb7'
p3552
sS'drel'
p3553
S'nmod:NP6'
p3554
sS'chunktype'
p3555
S'child:NP6'
p3556
sS'af'
p3557
S'\xe0\xa4\xb5\xe0\xa4\xb0\xe0\xa5\x8d\xe0\xa4\xb7,n,m,sg,3,d,0,0'
p3558
ssbsg26
I00
sg27
I00
sg28
Nsg29
Nsg30
I8
sg31
I6
sg32
Nsg33
Nsg34
S'NN'
p3559
sg36
g3546
sg37
I00
sba(issf_api
Word
p3560
(dp3561
g6
I00
sg7
V\u0968\u0966\u0967\u0966
p3562
sg9
(issf_api
FeatureSet
p3563
(dp3564
g12
(dp3565
S'posn'
p3566
S'150'
p3567
sS'name'
p3568
S'\xe0\xa5\xa8\xe0\xa5\xa6\xe0\xa5\xa7\xe0\xa5\xa6'
p3569
sS'af'
p3570
S'\xe0\xa5\xa8\xe0\xa5\xa6\xe0\xa5\xa7\xe0\xa5\xa6,n,any,sg,3,o,0_\xe0\xa4\xa4\xe0\xa4\x95,0'
p3571
sS'chunkid'
p3572
S'NP6'
p3573
sS'drel'
p3574
S'k7t:VGF2'
p3575
sS'vpos'
p3576
S'vib_vib_3'
p3577
sS'chunktype'
p3578
S'head:NP6'
p3579
ssbsg26
I00
sg27
I00
sg28
Nsg29
Nsg30
I8
sg31
I6
sg32
Nsg33
Nsg34
S'NNP'
p3580
sg36
g3563
sg37
I00
sba(issf_api
Word
p3581
(dp3582
g6
I00
sg7
V\u0924\u0915
p3583
sg9
(issf_api
FeatureSet
p3584
(dp3585
g12
(dp3586
S'posn'
p3587
S'160'
p3588
sS'name'
p3589
S'\xe0\xa4\xa4\xe0\xa4\x95'
p3590
sS'drel'
p3591
S'lwg__psp:NP6'
p3592
sS'chunktype'
p3593
S'child:NP6'
p3594
sS'af'
p3595
S'\xe0\xa4\xa4\xe0\xa4\x95,psp,,,,,,'
p3596
ssbsg26
I00
sg27
I00
sg28
Nsg29
Nsg30
I8
sg31
I6
sg32
Nsg33
Nsg34
S'PSP'
p3597
sg36
g3584
sg37
I00
sba(issf_api
Word
p3598
(dp3599
g6
I00
sg7
V\u0936\u0941\u0930\u0942
p3600
sg9
(issf_api
FeatureSet
p3601
(dp3602
g12
(dp3603
S'posn'
p3604
S'170'
p3605
sS'name'
p3606
S'\xe0\xa4\xb6\xe0\xa5\x81\xe0\xa4\xb0\xe0\xa5\x82'
p3607
sS'af'
p3608
S'\xe0\xa4\xb6\xe0\xa5\x81\xe0\xa4\xb0\xe0\xa5\x82,n,m,sg,3,d,0,0'
p3609
sS'chunkid'
p3610
S'NP7'
p3611
sS'drel'
p3612
S'pof:VGNN'
p3613
sS'chunktype'
p3614
S'head:NP7'
p3615
ssbsg26
I00
sg27
I00
sg28
Nsg29
Nsg30
I9
sg31
I6
sg32
Nsg33
Nsg34
S'NN'
p3616
sg36
g3601
sg37
I00
sba(issf_api
Word
p3617
(dp3618
g6
I00
sg7
V\u0915\u0930\u0928\u0947
p3619
sg9
(issf_api
FeatureSet
p3620
(dp3621
g12
(dp3622
S'posn'
p3623
S'180'
p3624
sS'name'
p3625
S'\xe0\xa4\x95\xe0\xa4\xb0\xe0\xa4\xa8\xe0\xa5\x87'
p3626
sS'af'
p3627
S'\xe0\xa4\x95\xe0\xa4\xb0,v,any,sg,any,o,\xe0\xa4\xa8\xe0\xa4\xbe_\xe0\xa4\x95\xe0\xa4\xbe,nA'
p3628
sS'chunkid'
p3629
S'VGNN'
p3630
sS'drel'
p3631
S'r6:NP8'
p3632
sS'vpos'
p3633
S'tam_2'
p3634
sS'chunktype'
p3635
S'head:VGNN'
p3636
ssbsg26
I00
sg27
I00
sg28
Nsg29
Nsg30
I10
sg31
I6
sg32
Nsg33
Nsg34
S'VM'
p3637
sg36
g3620
sg37
I00
sba(issf_api
Word
p3638
(dp3639
g6
I00
sg7
V\u0915\u093e
p3640
sg9
(issf_api
FeatureSet
p3641
(dp3642
g12
(dp3643
S'posn'
p3644
S'190'
p3645
sS'name'
p3646
S'\xe0\xa4\x95\xe0\xa4\xbe'
p3647
sS'drel'
p3648
S'lwg__psp:VGNN'
p3649
sS'chunktype'
p3650
S'child:VGNN'
p3651
sS'af'
p3652
S'\xe0\xa4\x95\xe0\xa4\xbe,psp,m,sg,,d,,'
p3653
ssbsg26
I00
sg27
I00
sg28
Nsg29
Nsg30
I10
sg31
I6
sg32
Nsg33
Nsg34
S'PSP'
p3654
sg36
g3641
sg37
I00
sba(issf_api
Word
p3655
(dp3656
g6
I00
sg7
V\u0932\u0915\u094d\u0937\u094d\u092f
p3657
sg9
(issf_api
FeatureSet
p3658
(dp3659
g12
(dp3660
S'posn'
p3661
S'200'
p3662
sS'name'
p3663
S'\xe0\xa4\xb2\xe0\xa4\x95\xe0\xa5\x8d\xe0\xa4\xb7\xe0\xa5\x8d\xe0\xa4\xaf'
p3664
sS'af'
p3665
S'\xe0\xa4\xb2\xe0\xa4\x95\xe0\xa5\x8d\xe0\xa4\xb7\xe0\xa5\x8d\xe0\xa4\xaf,n,m,sg,3,d,0,0'
p3666
sS'chunkid'
p3667
S'NP8'
p3668
sS'drel'
p3669
S'k2:VGF2'
p3670
sS'chunktype'
p3671
S'head:NP8'
p3672
ssbsg26
I00
sg27
I00
sg28
Nsg29
Nsg30
I11
sg31
I6
sg32
Nsg33
Nsg34
S'NN'
p3673
sg36
g3658
sg37
I00
sba(issf_api
Word
p3674
(dp3675
g6
I00
sg7
V\u0928\u093f\u0930\u094d\u0927\u093e\u0930\u093f\u0924
p3676
sg9
(issf_api
FeatureSet
p3677
(dp3678
g12
(dp3679
S'posn'
p3680
S'210'
p3681
sS'name'
p3682
S'\xe0\xa4\xa8\xe0\xa4\xbf\xe0\xa4\xb0\xe0\xa5\x8d\xe0\xa4\xa7\xe0\xa4\xbe\xe0\xa4\xb0\xe0\xa4\xbf\xe0\xa4\xa4'
p3683
sS'af'
p3684
S'\xe0\xa4\xa8\xe0\xa4\xbf\xe0\xa4\xb0\xe0\xa5\x8d\xe0\xa4\xa7\xe0\xa4\xbe\xe0\xa4\xb0\xe0\xa4\xbf\xe0\xa4\xa4,adj,any,any,,,,'
p3685
sS'chunkid'
p3686
S'JJP2'
p3687
sS'drel'
p3688
S'pof:VGF2'
p3689
sS'chunktype'
p3690
S'head:JJP2'
p3691
ssbsg26
I00
sg27
I00
sg28
Nsg29
Nsg30
I12
sg31
I6
sg32
Nsg33
Nsg34
S'JJ'
p3692
sg36
g3677
sg37
I00
sba(issf_api
Word
p3693
(dp3694
g6
I00
sg7
V\u0915\u093f\u092f\u093e
p3695
sg9
(issf_api
FeatureSet
p3696
(dp3697
g12
(dp3698
S'posn'
p3699
S'220'
p3700
sS'name'
p3701
S'\xe0\xa4\x95\xe0\xa4\xbf\xe0\xa4\xaf\xe0\xa4\xbe'
p3702
sS'af'
p3703
S'\xe0\xa4\x95\xe0\xa4\xb0,v,m,sg,3,,\xe0\xa4\xaf\xe0\xa4\xbe_\xe0\xa4\x9c\xe0\xa4\xbe+\xe0\xa4\xaf\xe0\xa4\xbe\xe0\xa5\xa7_\xe0\xa4\xb9\xe0\xa5\x88,yA'
p3704
sS'chunkid'
p3705
S'VGF2'
p3706
sS'stype'
p3707
S'declarative'
p3708
sS'drel'
p3709
S'ccof:CCP'
p3710
sS'voicetype'
p3711
S'passive'
p3712
sS'vpos'
p3713
S'tam_2_3'
p3714
sS'chunktype'
p3715
S'head:VGF2'
p3716
ssbsg26
I00
sg27
I00
sg28
Nsg29
Nsg30
I13
sg31
I6
sg32
Nsg33
Nsg34
S'VM'
p3717
sg36
g3696
sg37
I00
sba(issf_api
Word
p3718
(dp3719
g6
I00
sg7
V\u0917\u092f\u093e
p3720
sg9
(issf_api
FeatureSet
p3721
(dp3722
g12
(dp3723
S'posn'
p3724
S'230'
p3725
sS'name'
p3726
S'\xe0\xa4\x97\xe0\xa4\xaf\xe0\xa4\xbe'
p3727
sS'drel'
p3728
S'lwg__vaux:VGF2'
p3729
sS'chunktype'
p3730
S'child:VGF2'
p3731
sS'af'
p3732
S'\xe0\xa4\x9c\xe0\xa4\xbe,v,m,sg,any,,\xe0\xa4\xaf\xe0\xa4\xbe\xe0\xa5\xa7,yA1'
p3733
ssbsg26
I00
sg27
I00
sg28
Nsg29
Nsg30
I13
sg31
I6
sg32
Nsg33
Nsg34
S'VAUX'
p3734
sg36
g3721
sg37
I00
sba(issf_api
Word
p3735
(dp3736
g6
I00
sg7
V\u0939\u0948
p3737
sg9
(issf_api
FeatureSet
p3738
(dp3739
g12
(dp3740
S'posn'
p3741
S'240'
p3742
sS'name'
p3743
S'\xe0\xa4\xb9\xe0\xa5\x88'
p3744
sS'drel'
p3745
S'lwg__vaux:VGF2'
p3746
sS'chunktype'
p3747
S'child:VGF2'
p3748
sS'af'
p3749
S'\xe0\xa4\xb9\xe0\xa5\x88,v,any,sg,3,,\xe0\xa4\xb9\xe0\xa5\x88,hE'
p3750
ssbsg26
I00
sg27
I00
sg28
Nsg29
Nsg30
I13
sg31
I6
sg32
Nsg33
Nsg34
S'VAUX'
p3751
sg36
g3738
sg37
I00
sba(issf_api
Word
p3752
(dp3753
g6
I00
sg7
V\u0964
p3754
sg9
(issf_api
FeatureSet
p3755
(dp3756
g12
(dp3757
S'posn'
p3758
S'250'
p3759
sS'name'
p3760
S'\xe0\xa5\xa4'
p3761
sS'af'
p3762
S'\xe0\xa5\xa4,punc,,,,,,'
p3763
sS'chunkid'
p3764
S'BLK'
p3765
sS'drel'
p3766
S'rsym:VGF'
p3767
sS'chunktype'
p3768
S'head:BLK'
p3769
ssbsg26
I00
sg27
I00
sg28
Nsg29
Nsg30
I14
sg31
I6
sg32
Nsg33
Nsg34
S'SYM'
p3770
sg36
g3755
sg37
I00
sba(issf_api
Word
p3771
(dp3772
g6
I00
sg7
V\u092d\u093e\u0930\u0924
p3773
sg9
(issf_api
FeatureSet
p3774
(dp3775
g12
(dp3776
S'crefhead'
p3777
S'\xe0\xa4\xad\xe0\xa4\xbe\xe0\xa4\xb0\xe0\xa4\xa4:i30'
p3778
sS'posn'
p3779
S'10'
p3780
sS'name'
p3781
S'\xe0\xa4\xad\xe0\xa4\xbe\xe0\xa4\xb0\xe0\xa4\xa4'
p3782
sS'af'
p3783
S'\xe0\xa4\xad\xe0\xa4\xbe\xe0\xa4\xb0\xe0\xa4\xa4,n,m,sg,3,o,0_\xe0\xa4\x95\xe0\xa5\x8b,0'
p3784
sS'chunkid'
p3785
S'NP'
p3786
sS'creftype'
p3787
S'Coreference-Identity:i5'
p3788
sS'chunktype'
p3789
S'head:NP'
p3790
sS'vpos'
p3791
S'vib_2'
p3792
sS'cref'
p3793
S'i30%1:t4'
p3794
sS'drel'
p3795
S'k4:VGNN'
p3796
ssbsg26
I00
sg27
I00
sg28
Nsg29
Nsg30
I0
sg31
I7
sg32
Nsg33
Nsg34
S'NNP'
p3797
sg36
g3774
sg37
I00
sba(issf_api
Word
p3798
(dp3799
g6
I00
sg7
V\u0915\u094b
p3800
sg9
(issf_api
FeatureSet
p3801
(dp3802
g12
(dp3803
S'posn'
p3804
S'20'
p3805
sS'name'
p3806
S'\xe0\xa4\x95\xe0\xa5\x8b'
p3807
sS'drel'
p3808
S'lwg__psp:NP'
p3809
sS'chunktype'
p3810
S'child:NP'
p3811
sS'af'
p3812
S'\xe0\xa4\x95\xe0\xa5\x8b,psp,,,,,,'
p3813
ssbsg26
I00
sg27
I00
sg28
Nsg29
Nsg30
I0
sg31
I7
sg32
Nsg33
Nsg34
S'PSP'
p3814
sg36
g3801
sg37
I00
sba(issf_api
Word
p3815
(dp3816
g6
I00
sg7
V\u0906\u092a\u0942\u0930\u094d\u0924\u093f
p3817
sg9
(issf_api
FeatureSet
p3818
(dp3819
g12
(dp3820
S'crefhead'
p3821
S'\xe0\xa4\x86\xe0\xa4\xaa\xe0\xa5\x82\xe0\xa4\xb0\xe0\xa5\x8d\xe0\xa4\xa4\xe0\xa4\xbf:i31'
p3822
sS'posn'
p3823
S'30'
p3824
sS'name'
p3825
S'\xe0\xa4\x86\xe0\xa4\xaa\xe0\xa5\x82\xe0\xa4\xb0\xe0\xa5\x8d\xe0\xa4\xa4\xe0\xa4\xbf'
p3826
sS'af'
p3827
S'\xe0\xa4\x86\xe0\xa4\xaa\xe0\xa5\x82\xe0\xa4\xb0\xe0\xa5\x8d\xe0\xa4\xa4\xe0\xa4\xbf,n,f,sg,3,d,0,0'
p3828
sS'chunkid'
p3829
S'NP2'
p3830
sS'creftype'
p3831
S'Coreference-Identity:i29'
p3832
sS'chunktype'
p3833
S'head:NP2'
p3834
sS'cref'
p3835
S'i31%1:t11'
p3836
sS'drel'
p3837
S'pof:VGNN'
p3838
ssbsg26
I00
sg27
I00
sg28
Nsg29
Nsg30
I1
sg31
I7
sg32
Nsg33
Nsg34
S'NN'
p3839
sg36
g3818
sg37
I00
sba(issf_api
Word
p3840
(dp3841
g6
I00
sg7
V\u0939\u094b\u0928\u0947
p3842
sg9
(issf_api
FeatureSet
p3843
(dp3844
g12
(dp3845
S'posn'
p3846
S'40'
p3847
sS'name'
p3848
S'\xe0\xa4\xb9\xe0\xa5\x8b\xe0\xa4\xa8\xe0\xa5\x87'
p3849
sS'af'
p3850
S'\xe0\xa4\xb9\xe0\xa5\x8b,v,m,any,any,o,\xe0\xa4\xa8\xe0\xa4\xbe_\xe0\xa4\xb8\xe0\xa5\x87_\xe0\xa4\xaa\xe0\xa4\xb9\xe0\xa4\xb2\xe0\xa5\x87_\xe0\xa4\xa4\xe0\xa4\x95,nA'
p3851
sS'chunkid'
p3852
S'VGNN'
p3853
sS'drel'
p3854
S'k7t:VGF'
p3855
sS'vpos'
p3856
S'tam_2_3_4'
p3857
sS'chunktype'
p3858
S'head:VGNN'
p3859
ssbsg26
I00
sg27
I00
sg28
Nsg29
Nsg30
I2
sg31
I7
sg32
Nsg33
Nsg34
S'VM'
p3860
sg36
g3843
sg37
I00
sba(issf_api
Word
p3861
(dp3862
g6
I00
sg7
V\u0938\u0947
p3863
sg9
(issf_api
FeatureSet
p3864
(dp3865
g12
(dp3866
S'posn'
p3867
S'50'
p3868
sS'name'
p3869
S'\xe0\xa4\xb8\xe0\xa5\x87'
p3870
sS'drel'
p3871
S'lwg__psp:VGNN'
p3872
sS'chunktype'
p3873
S'child:VGNN'
p3874
sS'af'
p3875
S'\xe0\xa4\xb8\xe0\xa5\x87,psp,,,,,,'
p3876
ssbsg26
I00
sg27
I00
sg28
Nsg29
Nsg30
I2
sg31
I7
sg32
Nsg33
Nsg34
S'PSP'
p3877
sg36
g3864
sg37
I00
sba(issf_api
Word
p3878
(dp3879
g6
I00
sg7
V\u092a\u0939\u0932\u0947
p3880
sg9
(issf_api
FeatureSet
p3881
(dp3882
g12
(dp3883
S'posn'
p3884
S'60'
p3885
sS'name'
p3886
S'\xe0\xa4\xaa\xe0\xa4\xb9\xe0\xa4\xb2\xe0\xa5\x87'
p3887
sS'drel'
p3888
S'lwg__nst:VGNN'
p3889
sS'chunktype'
p3890
S'child:VGNN'
p3891
sS'af'
p3892
S'\xe0\xa4\xaa\xe0\xa4\xb9\xe0\xa4\xb2\xe0\xa5\x87,nst,m,sg,3,o,,'
p3893
ssbsg26
I00
sg27
I00
sg28
Nsg29
Nsg30
I2
sg31
I7
sg32
Nsg33
Nsg34
S'NST'
p3894
sg36
g3881
sg37
I00
sba(issf_api
Word
p3895
(dp3896
g6
I00
sg7
V\u0924\u0915
p3897
sg9
(issf_api
FeatureSet
p3898
(dp3899
g12
(dp3900
S'posn'
p3901
S'70'
p3902
sS'name'
p3903
S'\xe0\xa4\xa4\xe0\xa4\x95'
p3904
sS'drel'
p3905
S'lwg__psp:VGNN'
p3906
sS'chunktype'
p3907
S'child:VGNN'
p3908
sS'af'
p3909
S'\xe0\xa4\xa4\xe0\xa4\x95,psp,,,,,,'
p3910
ssbsg26
I00
sg27
I00
sg28
Nsg29
Nsg30
I2
sg31
I7
sg32
Nsg33
Nsg34
S'PSP'
p3911
sg36
g3898
sg37
I00
sba(issf_api
Word
p3912
(dp3913
g6
I00
sg7
V\u0917\u0948\u0938
p3914
sg9
(issf_api
FeatureSet
p3915
(dp3916
g12
(dp3917
S'crefhead'
p3918
S'\xe0\xa4\x97\xe0\xa5\x88\xe0\xa4\xb8:i32'
p3919
sS'posn'
p3920
S'80'
p3921
sS'name'
p3922
S'\xe0\xa4\x97\xe0\xa5\x88\xe0\xa4\xb8'
p3923
sS'af'
p3924
S'\xe0\xa4\x97\xe0\xa5\x88\xe0\xa4\xb8,n,f,sg,3,o,0_\xe0\xa4\x95\xe0\xa4\xbe,0'
p3925
sS'chunkid'
p3926
S'NP3'
p3927
sS'creftype'
p3928
S'Coreference-Identity:i28'
p3929
sS'chunktype'
p3930
S'head:NP3'
p3931
sS'vpos'
p3932
S'vib_2'
p3933
sS'cref'
p3934
S'i32%1:t5'
p3935
sS'drel'
p3936
S'r6:NP4'
p3937
ssbsg26
I00
sg27
I00
sg28
Nsg29
Nsg30
I3
sg31
I7
sg32
Nsg33
Nsg34
S'NN'
p3938
sg36
g3915
sg37
I00
sba(issf_api
Word
p3939
(dp3940
g6
I00
sg7
V\u0915\u093e
p3941
sg9
(issf_api
FeatureSet
p3942
(dp3943
g12
(dp3944
S'posn'
p3945
S'90'
p3946
sS'name'
p3947
S'\xe0\xa4\x95\xe0\xa4\xbe'
p3948
sS'drel'
p3949
S'lwg__psp:NP3'
p3950
sS'chunktype'
p3951
S'child:NP3'
p3952
sS'af'
p3953
S'\xe0\xa4\x95\xe0\xa4\xbe,psp,m,sg,,d,,'
p3954
ssbsg26
I00
sg27
I00
sg28
Nsg29
Nsg30
I3
sg31
I7
sg32
Nsg33
Nsg34
S'PSP'
p3955
sg36
g3942
sg37
I00
sba(issf_api
Word
p3956
(dp3957
g6
I00
sg7
V\u0938\u094d\u0935\u093e\u092e\u093f\u0924\u094d\u0935
p3958
sg9
(issf_api
FeatureSet
p3959
(dp3960
g12
(dp3961
S'posn'
p3962
S'100'
p3963
sS'name'
p3964
S'\xe0\xa4\xb8\xe0\xa5\x8d\xe0\xa4\xb5\xe0\xa4\xbe\xe0\xa4\xae\xe0\xa4\xbf\xe0\xa4\xa4\xe0\xa5\x8d\xe0\xa4\xb5'
p3965
sS'af'
p3966
S'\xe0\xa4\xb8\xe0\xa5\x8d\xe0\xa4\xb5\xe0\xa4\xbe\xe0\xa4\xae\xe0\xa4\xbf\xe0\xa4\xa4\xe0\xa5\x8d\xe0\xa4\xb5,n,m,sg,3,d,0,0'
p3967
sS'chunkid'
p3968
S'NP4'
p3969
sS'drel'
p3970
S'k1:VGF'
p3971
sS'chunktype'
p3972
S'head:NP4'
p3973
ssbsg26
I00
sg27
I00
sg28
Nsg29
Nsg30
I4
sg31
I7
sg32
Nsg33
Nsg34
S'NN'
p3974
sg36
g3959
sg37
I00
sba(issf_api
Word
p3975
(dp3976
g6
I00
sg7
V\u0928\u0947\u0936\u0928\u0932
p3977
sg9
(issf_api
FeatureSet
p3978
(dp3979
g12
(dp3980
S'posn'
p3981
S'110'
p3982
sS'name'
p3983
S'\xe0\xa4\xa8\xe0\xa5\x87\xe0\xa4\xb6\xe0\xa4\xa8\xe0\xa4\xb2'
p3984
sS'af'
p3985
S'\xe0\xa4\xa8\xe0\xa5\x87\xe0\xa4\xb6\xe0\xa4\xa8\xe0\xa4\xb2,adj,any,any,,o,,'
p3986
sS'drel'
p3987
S'pof__cn:NP5'
p3988
sS'chunktype'
p3989
S'child:NP5'
p3990
sS'cref'
p3991
S'i33%0:t12'
p3992
ssbsg26
I00
sg27
I00
sg28
Nsg29
Nsg30
I5
sg31
I7
sg32
Nsg33
Nsg34
S'NNPC'
p3993
sg36
g3978
sg37
I00
sba(issf_api
Word
p3994
(dp3995
g6
I00
sg7
V\u0908\u0930\u093e\u0928\u093f\u092f\u0928
p3996
sg9
(issf_api
FeatureSet
p3997
(dp3998
g12
(dp3999
S'posn'
p4000
S'120'
p4001
sS'name'
p4002
S'\xe0\xa4\x88\xe0\xa4\xb0\xe0\xa4\xbe\xe0\xa4\xa8\xe0\xa4\xbf\xe0\xa4\xaf\xe0\xa4\xa8'
p4003
sS'af'
p4004
S'\xe0\xa4\x88\xe0\xa4\xb0\xe0\xa4\xbe\xe0\xa4\xa8\xe0\xa4\xbf\xe0\xa4\xaf\xe0\xa4\xa8,adj,any,any,,o,,'
p4005
sS'drel'
p4006
S'pof__cn:NP5'
p4007
sS'chunktype'
p4008
S'child:NP5'
p4009
sS'cref'
p4010
S'i33%0:t12'
p4011
ssbsg26
I00
sg27
I00
sg28
Nsg29
Nsg30
I5
sg31
I7
sg32
Nsg33
Nsg34
S'NNPC'
p4012
sg36
g3997
sg37
I00
sba(issf_api
Word
p4013
(dp4014
g6
I00
sg7
V\u0917\u0948\u0938
p4015
sg9
(issf_api
FeatureSet
p4016
(dp4017
g12
(dp4018
S'crefhead'
p4019
S'\xe0\xa4\x97\xe0\xa5\x88\xe0\xa4\xb8:i34'
p4020
sS'posn'
p4021
S'130'
p4022
sS'name'
p4023
S'\xe0\xa4\x97\xe0\xa5\x88\xe0\xa4\xb82'
p4024
sS'af'
p4025
S'\xe0\xa4\x97\xe0\xa5\x88\xe0\xa4\xb8,n,f,sg,3,d,0,0'
p4026
sS'creftype'
p4027
S'Coreference-Identity:i32'
p4028
sS'drel'
p4029
S'pof__cn:NP5'
p4030
sS'chunktype'
p4031
S'child:NP5'
p4032
sS'cref'
p4033
S'i33%0:t12,i34%1:t5'
p4034
ssbsg26
I00
sg27
I00
sg28
Nsg29
Nsg30
I5
sg31
I7
sg32
Nsg33
Nsg34
S'NNPC'
p4035
sg36
g4016
sg37
I00
sba(issf_api
Word
p4036
(dp4037
g6
I00
sg7
V\u090f\u0915\u094d\u0938\u092a\u094b\u0930\u094d\u091f
p4038
sg9
(issf_api
FeatureSet
p4039
(dp4040
g12
(dp4041
S'posn'
p4042
S'140'
p4043
sS'name'
p4044
S'\xe0\xa4\x8f\xe0\xa4\x95\xe0\xa5\x8d\xe0\xa4\xb8\xe0\xa4\xaa\xe0\xa5\x8b\xe0\xa4\xb0\xe0\xa5\x8d\xe0\xa4\x9f'
p4045
sS'af'
p4046
S'\xe0\xa4\x8f\xe0\xa4\x95\xe0\xa5\x8d\xe0\xa4\xb8\xe0\xa4\xaa\xe0\xa5\x8b\xe0\xa4\xb0\xe0\xa5\x8d\xe0\xa4\x9f,n,m,sg,3,d,0,0'
p4047
sS'drel'
p4048
S'pof__cn:NP5'
p4049
sS'chunktype'
p4050
S'child:NP5'
p4051
sS'cref'
p4052
S'i33%0:t12'
p4053
ssbsg26
I00
sg27
I00
sg28
Nsg29
Nsg30
I5
sg31
I7
sg32
Nsg33
Nsg34
S'NNPC'
p4054
sg36
g4039
sg37
I00
sba(issf_api
Word
p4055
(dp4056
g6
I00
sg7
V\u0915\u0902\u092a\u0928\u0940
p4057
sg9
(issf_api
FeatureSet
p4058
(dp4059
g12
(dp4060
S'crefhead'
p4061
S'\xe0\xa4\x95\xe0\xa4\x82\xe0\xa4\xaa\xe0\xa4\xa8\xe0\xa5\x80:i33'
p4062
sS'posn'
p4063
S'150'
p4064
sS'name'
p4065
S'\xe0\xa4\x95\xe0\xa4\x82\xe0\xa4\xaa\xe0\xa4\xa8\xe0\xa5\x80'
p4066
sS'af'
p4067
S'\xe0\xa4\x95\xe0\xa4\x82\xe0\xa4\xaa\xe0\xa4\xa8\xe0\xa5\x80,n,f,sg,3,o,0,0'
p4068
sS'chunkid'
p4069
S'NP5'
p4070
sS'chunktype'
p4071
S'head:NP5'
p4072
sS'crefchainhead'
p4073
S'i33:t12'
p4074
sS'cref'
p4075
S'i33%1:t12'
p4076
sS'drel'
p4077
S'k7:VGF'
p4078
ssbsg26
I00
sg27
I00
sg28
Nsg29
Nsg30
I5
sg31
I7
sg32
Nsg33
Nsg34
S'NNP'
p4079
sg36
g4058
sg37
I00
sba(issf_api
Word
p4080
(dp4081
g6
I00
sg7
V(
p4082
sg9
(issf_api
FeatureSet
p4083
(dp4084
g12
(dp4085
S'posn'
p4086
S'160'
p4087
sS'name'
p4088
S'('
p4089
sS'drel'
p4090
S'rsym:NP6'
p4091
sS'chunktype'
p4092
S'child:NP6'
p4093
sS'af'
p4094
S'(,punc,,,,,,'
p4095
ssbsg26
I00
sg27
I00
sg28
Nsg29
Nsg30
I6
sg31
I7
sg32
Nsg33
Nsg34
S'SYM'
p4096
sg36
g4083
sg37
I00
sba(issf_api
Word
p4097
(dp4098
g6
I00
sg7
V\u090f\u0928\u0906\u0908\u091c\u0940\u0908\u0938\u0940
p4099
sg9
(issf_api
FeatureSet
p4100
(dp4101
g12
(dp4102
S'crefhead'
p4103
S'\xe0\xa4\x8f\xe0\xa4\xa8\xe0\xa4\x86\xe0\xa4\x88\xe0\xa4\x9c\xe0\xa5\x80\xe0\xa4\x88\xe0\xa4\xb8\xe0\xa5\x80:i35'
p4104
sS'posn'
p4105
S'170'
p4106
sS'name'
p4107
S'\xe0\xa4\x8f\xe0\xa4\xa8\xe0\xa4\x86\xe0\xa4\x88\xe0\xa4\x9c\xe0\xa5\x80\xe0\xa4\x88\xe0\xa4\xb8\xe0\xa5\x80'
p4108
sS'af'
p4109
S'\xe0\xa4\x8f\xe0\xa4\xa8\xe0\xa4\x86\xe0\xa4\x88\xe0\xa4\x9c\xe0\xa5\x80\xe0\xa4\x88\xe0\xa4\xb8\xe0\xa5\x80,n,f,sg,3,o,0,0'
p4110
sS'chunkid'
p4111
S'NP6'
p4112
sS'creftype'
p4113
S'Coreference-Abbreviation:i33'
p4114
sS'chunktype'
p4115
S'head:NP6'
p4116
sS'cref'
p4117
S'i35%1:t12'
p4118
sS'drel'
p4119
S'nmod:NP5'
p4120
ssbsg26
I00
sg27
I00
sg28
Nsg29
Nsg30
I6
sg31
I7
sg32
Nsg33
Nsg34
S'NNP'
p4121
sg36
g4100
sg37
I00
sba(issf_api
Word
p4122
(dp4123
g6
I00
sg7
V)
p4124
sg9
(issf_api
FeatureSet
p4125
(dp4126
g12
(dp4127
S'posn'
p4128
S'180'
p4129
sS'name'
p4130
S')'
p4131
sS'drel'
p4132
S'rsym:NP6'
p4133
sS'chunktype'
p4134
S'child:NP6'
p4135
sS'af'
p4136
S'),punc,,,,,,'
p4137
ssbsg26
I00
sg27
I00
sg28
Nsg29
Nsg30
I6
sg31
I7
sg32
Nsg33
Nsg34
S'SYM'
p4138
sg36
g4125
sg37
I00
sba(issf_api
Word
p4139
(dp4140
g6
I00
sg7
V\u0915\u0947
p4141
sg9
(issf_api
FeatureSet
p4142
(dp4143
g12
(dp4144
S'posn'
p4145
S'190'
p4146
sS'name'
p4147
S'\xe0\xa4\x95\xe0\xa5\x87'
p4148
sS'drel'
p4149
S'mod:FRAGP'
p4150
sS'chunktype'
p4151
S'child:FRAGP'
p4152
sS'af'
p4153
S'\xe0\xa4\x95\xe0\xa5\x87,psp,,,,,,'
p4154
ssbsg26
I00
sg27
I00
sg28
Nsg29
Nsg30
I7
sg31
I7
sg32
Nsg33
Nsg34
S'PSP'
p4155
sg36
g4142
sg37
I00
sba(issf_api
Word
p4156
(dp4157
g6
I00
sg7
V\u092a\u093e\u0938
p4158
sg9
(issf_api
FeatureSet
p4159
(dp4160
g12
(dp4161
S'posn'
p4162
S'200'
p4163
sS'name'
p4164
S'\xe0\xa4\xaa\xe0\xa4\xbe\xe0\xa4\xb8'
p4165
sS'drel'
p4166
S'lwg__psp:FRAGP'
p4167
sS'chunktype'
p4168
S'child:FRAGP'
p4169
sS'af'
p4170
S'\xe0\xa4\xaa\xe0\xa4\xbe\xe0\xa4\xb8,nst,m,sg,3,d,,'
p4171
ssbsg26
I00
sg27
I00
sg28
Nsg29
Nsg30
I7
sg31
I7
sg32
Nsg33
Nsg34
S'NST'
p4172
sg36
g4159
sg37
I00
sba(issf_api
Word
p4173
(dp4174
g6
I00
sg7
V\u0939\u0940
p4175
sg9
(issf_api
FeatureSet
p4176
(dp4177
g12
(dp4178
S'name'
p4179
S'\xe0\xa4\xb9\xe0\xa5\x80'
p4180
sS'drel'
p4181
S'fragof:NP5'
p4182
sS'chunktype'
p4183
S'head:FRAGP'
p4184
sS'chunkid'
p4185
S'FRAGP'
p4186
ssbsg26
I00
sg27
I00
sg28
Nsg29
Nsg30
I7
sg31
I7
sg32
Nsg33
Nsg34
S'RP'
p4187
sg36
g4176
sg37
I00
sba(issf_api
Word
p4188
(dp4189
g6
I00
sg7
V\u0930\u0939\u0947\u0917\u093e
p4190
sg9
(issf_api
FeatureSet
p4191
(dp4192
g12
(dp4193
S'posn'
p4194
S'220'
p4195
sS'name'
p4196
S'\xe0\xa4\xb0\xe0\xa4\xb9\xe0\xa5\x87\xe0\xa4\x97\xe0\xa4\xbe'
p4197
sS'af'
p4198
S'\xe0\xa4\xb0\xe0\xa4\xb9,v,m,sg,3,,\xe0\xa4\x97\xe0\xa4\xbe,gA'
p4199
sS'chunkid'
p4200
S'VGF'
p4201
sS'chunktype'
p4202
S'head:VGF'
p4203
sS'voicetype'
p4204
S'active'
p4205
sS'stype'
p4206
S'declarative'
p4207
ssbsg26
I00
sg27
I00
sg28
Nsg29
Nsg30
I8
sg31
I7
sg32
Nsg33
Nsg34
S'VM'
p4208
sg36
g4191
sg37
I00
sba(issf_api
Word
p4209
(dp4210
g6
I00
sg7
V\u0964
p4211
sg9
(issf_api
FeatureSet
p4212
(dp4213
g12
(dp4214
S'posn'
p4215
S'230'
p4216
sS'name'
p4217
S'\xe0\xa5\xa4'
p4218
sS'af'
p4219
S'\xe0\xa5\xa4,punc,,,,,,'
p4220
sS'chunkid'
p4221
S'BLK'
p4222
sS'drel'
p4223
S'rsym:VGF'
p4224
sS'chunktype'
p4225
S'head:BLK'
p4226
ssbsg26
I00
sg27
I00
sg28
Nsg29
Nsg30
I9
sg31
I7
sg32
Nsg33
Nsg34
S'SYM'
p4227
sg36
g4212
sg37
I00
sba(issf_api
Word
p4228
(dp4229
g6
I00
sg7
V\u0905\u092f\u094d\u092f\u0930
p4230
sg9
(issf_api
FeatureSet
p4231
(dp4232
g12
(dp4233
S'crefhead'
p4234
S'\xe0\xa4\x85\xe0\xa4\xaf\xe0\xa5\x8d\xe0\xa4\xaf\xe0\xa4\xb0:i36'
p4235
sS'posn'
p4236
S'10'
p4237
sS'name'
p4238
S'\xe0\xa4\x85\xe0\xa4\xaf\xe0\xa5\x8d\xe0\xa4\xaf\xe0\xa4\xb0'
p4239
sS'af'
p4240
S'\xe0\xa4\x85\xe0\xa4\xaf\xe0\xa5\x8d\xe0\xa4\xaf\xe0\xa4\xb0,n,any,sg,3,d,0,0'
p4241
sS'chunkid'
p4242
S'NP'
p4243
sS'creftype'
p4244
S'Coreference-Identity:i24'
p4245
sS'chunktype'
p4246
S'head:NP'
p4247
sS'cref'
p4248
S'i36%1:t1'
p4249
sS'drel'
p4250
S'k1:VGF'
p4251
ssbsg26
I00
sg27
I00
sg28
Nsg29
Nsg30
I0
sg31
I8
sg32
Nsg33
Nsg34
S'NNP'
p4252
sg36
g4231
sg37
I00
sba(issf_api
Word
p4253
(dp4254
g6
I00
sg7
V\u0917\u0948\u0938
p4255
sg9
(issf_api
FeatureSet
p4256
(dp4257
g12
(dp4258
S'crefhead'
p4259
S'\xe0\xa4\x97\xe0\xa5\x88\xe0\xa4\xb8:i37'
p4260
sS'posn'
p4261
S'20'
p4262
sS'name'
p4263
S'\xe0\xa4\x97\xe0\xa5\x88\xe0\xa4\xb8'
p4264
sS'af'
p4265
S'\xe0\xa4\x97\xe0\xa5\x88\xe0\xa4\xb8,n,f,sg,3,o,0_\xe0\xa4\x95\xe0\xa4\xbe,0'
p4266
sS'acrefmodhead'
p4267
S'\xe0\xa4\x97\xe0\xa5\x88\xe0\xa4\xb8:m3'
p4268
sS'chunkid'
p4269
S'NP2'
p4270
sS'acrefmod'
p4271
S'm3%1:i38'
p4272
sS'creftype'
p4273
S'Coreference-Identity:i34'
p4274
sS'chunktype'
p4275
S'head:NP2'
p4276
sS'vpos'
p4277
S'vib_2'
p4278
sS'cref'
p4279
S'i37%1:t5'
p4280
sS'drel'
p4281
S'r6:NP3'
p4282
ssbsg26
I00
sg27
I00
sg28
Nsg29
Nsg30
I1
sg31
I8
sg32
Nsg33
Nsg34
S'NN'
p4283
sg36
g4256
sg37
I00
sba(issf_api
Word
p4284
(dp4285
g6
I00
sg7
V\u0915\u0940
p4286
sg9
(issf_api
FeatureSet
p4287
(dp4288
g12
(dp4289
S'posn'
p4290
S'30'
p4291
sS'name'
p4292
S'\xe0\xa4\x95\xe0\xa5\x80'
p4293
sS'drel'
p4294
S'lwg__psp:NP2'
p4295
sS'chunktype'
p4296
S'child:NP2'
p4297
sS'af'
p4298
S'\xe0\xa4\x95\xe0\xa4\xbe,psp,f,sg,,o,,'
p4299
ssbsg26
I00
sg27
I00
sg28
Nsg29
Nsg30
I1
sg31
I8
sg32
Nsg33
Nsg34
S'PSP'
p4300
sg36
g4287
sg37
I00
sba(issf_api
Word
p4301
(dp4302
g6
I00
sg7
V\u0906\u092a\u0942\u0930\u094d\u0924\u093f
p4303
sg9
(issf_api
FeatureSet
p4304
(dp4305
g12
(dp4306
S'crefhead'
p4307
S'\xe0\xa4\x86\xe0\xa4\xaa\xe0\xa5\x82\xe0\xa4\xb0\xe0\xa5\x8d\xe0\xa4\xa4\xe0\xa4\xbf:i38'
p4308
sS'posn'
p4309
S'40'
p4310
sS'name'
p4311
S'\xe0\xa4\x86\xe0\xa4\xaa\xe0\xa5\x82\xe0\xa4\xb0\xe0\xa5\x8d\xe0\xa4\xa4\xe0\xa4\xbf'
p4312
sS'af'
p4313
S'\xe0\xa4\x86\xe0\xa4\xaa\xe0\xa5\x82\xe0\xa4\xb0\xe0\xa5\x8d\xe0\xa4\xa4\xe0\xa4\xbf,n,f,sg,3,o,0_\xe0\xa4\x95\xe0\xa5\x87_\xe0\xa4\xb2\xe0\xa4\xbf\xe0\xa4\x8f,0'
p4314
sS'chunkid'
p4315
S'NP3'
p4316
sS'crefmod'
p4317
S'm3:i38'
p4318
sS'creftype'
p4319
S'Coreference-Identity:i31'
p4320
sS'chunktype'
p4321
S'head:NP3'
p4322
sS'vpos'
p4323
S'vib_2_3'
p4324
sS'cref'
p4325
S'i38%1:t11'
p4326
sS'drel'
p4327
S'rt:VGF'
p4328
ssbsg26
I00
sg27
I00
sg28
Nsg29
Nsg30
I2
sg31
I8
sg32
Nsg33
Nsg34
S'NN'
p4329
sg36
g4304
sg37
I00
sba(issf_api
Word
p4330
(dp4331
g6
I00
sg7
V\u0915\u0947
p4332
sg9
(issf_api
FeatureSet
p4333
(dp4334
g12
(dp4335
S'posn'
p4336
S'50'
p4337
sS'name'
p4338
S'\xe0\xa4\x95\xe0\xa5\x87'
p4339
sS'drel'
p4340
S'lwg__psp:NP3'
p4341
sS'chunktype'
p4342
S'child:NP3'
p4343
sS'af'
p4344
S'\xe0\xa4\x95\xe0\xa5\x87,psp,,,,,,'
p4345
ssbsg26
I00
sg27
I00
sg28
Nsg29
Nsg30
I2
sg31
I8
sg32
Nsg33
Nsg34
S'PSP'
p4346
sg36
g4333
sg37
I00
sba(issf_api
Word
p4347
(dp4348
g6
I00
sg7
V\u0932\u093f\u090f
p4349
sg9
(issf_api
FeatureSet
p4350
(dp4351
g12
(dp4352
S'posn'
p4353
S'60'
p4354
sS'name'
p4355
S'\xe0\xa4\xb2\xe0\xa4\xbf\xe0\xa4\x8f'
p4356
sS'drel'
p4357
S'lwg__psp:NP3'
p4358
sS'chunktype'
p4359
S'child:NP3'
p4360
sS'af'
p4361
S'\xe0\xa4\xb2\xe0\xa4\xbf\xe0\xa4\x8f,psp,,,,,,'
p4362
ssbsg26
I00
sg27
I00
sg28
Nsg29
Nsg30
I2
sg31
I8
sg32
Nsg33
Nsg34
S'PSP'
p4363
sg36
g4350
sg37
I00
sba(issf_api
Word
p4364
(dp4365
g6
I00
sg7
V\u092d\u0942\u092e\u093f
p4366
sg9
(issf_api
FeatureSet
p4367
(dp4368
g12
(dp4369
S'posn'
p4370
S'70'
p4371
sS'name'
p4372
S'\xe0\xa4\xad\xe0\xa5\x82\xe0\xa4\xae\xe0\xa4\xbf'
p4373
sS'af'
p4374
S'\xe0\xa4\xad\xe0\xa5\x82\xe0\xa4\xae\xe0\xa4\xbf,n,f,sg,3,o,0_\xe0\xa4\x95\xe0\xa4\xbe,0'
p4375
sS'chunkid'
p4376
S'NP4'
p4377
sS'drel'
p4378
S'r6:NP5'
p4379
sS'vpos'
p4380
S'vib_2'
p4381
sS'chunktype'
p4382
S'head:NP4'
p4383
ssbsg26
I00
sg27
I00
sg28
Nsg29
Nsg30
I3
sg31
I8
sg32
Nsg33
Nsg34
S'NN'
p4384
sg36
g4367
sg37
I00
sba(issf_api
Word
p4385
(dp4386
g6
I00
sg7
V\u0915\u0947
p4387
sg9
(issf_api
FeatureSet
p4388
(dp4389
g12
(dp4390
S'posn'
p4391
S'80'
p4392
sS'name'
p4393
S'\xe0\xa4\x95\xe0\xa5\x872'
p4394
sS'drel'
p4395
S'lwg__psp:NP4'
p4396
sS'chunktype'
p4397
S'child:NP4'
p4398
sS'af'
p4399
S'\xe0\xa4\x95\xe0\xa4\xbe,psp,m,sg,,o,,'
p4400
ssbsg26
I00
sg27
I00
sg28
Nsg29
Nsg30
I3
sg31
I8
sg32
Nsg33
Nsg34
S'PSP'
p4401
sg36
g4388
sg37
I00
sba(issf_api
Word
p4402
(dp4403
g6
I00
sg7
V\u0907\u0938\u094d\u0924\u0947\u092e\u093e\u0932
p4404
sg9
(issf_api
FeatureSet
p4405
(dp4406
g12
(dp4407
S'posn'
p4408
S'90'
p4409
sS'name'
p4410
S'\xe0\xa4\x87\xe0\xa4\xb8\xe0\xa5\x8d\xe0\xa4\xa4\xe0\xa5\x87\xe0\xa4\xae\xe0\xa4\xbe\xe0\xa4\xb2'
p4411
sS'af'
p4412
S'\xe0\xa4\x87\xe0\xa4\xb8\xe0\xa5\x8d\xe0\xa4\xa4\xe0\xa5\x87\xe0\xa4\xae\xe0\xa4\xbe\xe0\xa4\xb2,n,m,sg,3,o,0_\xe0\xa4\xaa\xe0\xa4\xb0,0'
p4413
sS'chunkid'
p4414
S'NP5'
p4415
sS'drel'
p4416
S'k7:VGF'
p4417
sS'vpos'
p4418
S'vib_2'
p4419
sS'chunktype'
p4420
S'head:NP5'
p4421
ssbsg26
I00
sg27
I00
sg28
Nsg29
Nsg30
I4
sg31
I8
sg32
Nsg33
Nsg34
S'NN'
p4422
sg36
g4405
sg37
I00
sba(issf_api
Word
p4423
(dp4424
g6
I00
sg7
V\u092a\u0930
p4425
sg9
(issf_api
FeatureSet
p4426
(dp4427
g12
(dp4428
S'posn'
p4429
S'100'
p4430
sS'name'
p4431
S'\xe0\xa4\xaa\xe0\xa4\xb0'
p4432
sS'drel'
p4433
S'lwg__psp:NP5'
p4434
sS'chunktype'
p4435
S'child:NP5'
p4436
sS'af'
p4437
S'\xe0\xa4\xaa\xe0\xa4\xb0,psp,,,,,,'
p4438
ssbsg26
I00
sg27
I00
sg28
Nsg29
Nsg30
I4
sg31
I8
sg32
Nsg33
Nsg34
S'PSP'
p4439
sg36
g4426
sg37
I00
sba(issf_api
Word
p4440
(dp4441
g6
I00
sg7
V\u092a\u093e\u0915\u093f\u0938\u094d\u0924\u093e\u0928
p4442
sg9
(issf_api
FeatureSet
p4443
(dp4444
g12
(dp4445
S'crefhead'
p4446
S'\xe0\xa4\xaa\xe0\xa4\xbe\xe0\xa4\x95\xe0\xa4\xbf\xe0\xa4\xb8\xe0\xa5\x8d\xe0\xa4\xa4\xe0\xa4\xbe\xe0\xa4\xa8:i39'
p4447
sS'posn'
p4448
S'110'
p4449
sS'name'
p4450
S'\xe0\xa4\xaa\xe0\xa4\xbe\xe0\xa4\x95\xe0\xa4\xbf\xe0\xa4\xb8\xe0\xa5\x8d\xe0\xa4\xa4\xe0\xa4\xbe\xe0\xa4\xa8'
p4451
sS'af'
p4452
S'\xe0\xa4\xaa\xe0\xa4\xbe\xe0\xa4\x95\xe0\xa4\xbf\xe0\xa4\xb8\xe0\xa5\x8d\xe0\xa4\xa4\xe0\xa4\xbe\xe0\xa4\xa8,n,m,sg,3,o,0_\xe0\xa4\x95\xe0\xa5\x8b,0'
p4453
sS'chunkid'
p4454
S'NP6'
p4455
sS'creftype'
p4456
S'Coreference-Noun-Noun:i19'
p4457
sS'chunktype'
p4458
S'head:NP6'
p4459
sS'vpos'
p4460
S'vib_2'
p4461
sS'cref'
p4462
S'i39%1:t6'
p4463
sS'drel'
p4464
S'k4:VGNN'
p4465
ssbsg26
I00
sg27
I00
sg28
Nsg29
Nsg30
I5
sg31
I8
sg32
Nsg33
Nsg34
S'NNP'
p4466
sg36
g4443
sg37
I00
sba(issf_api
Word
p4467
(dp4468
g6
I00
sg7
V\u0915\u094b
p4469
sg9
(issf_api
FeatureSet
p4470
(dp4471
g12
(dp4472
S'posn'
p4473
S'120'
p4474
sS'name'
p4475
S'\xe0\xa4\x95\xe0\xa5\x8b'
p4476
sS'drel'
p4477
S'lwg__psp:NP6'
p4478
sS'chunktype'
p4479
S'child:NP6'
p4480
sS'af'
p4481
S'\xe0\xa4\x95\xe0\xa5\x8b,psp,,,,,,'
p4482
ssbsg26
I00
sg27
I00
sg28
Nsg29
Nsg30
I5
sg31
I8
sg32
Nsg33
Nsg34
S'PSP'
p4483
sg36
g4470
sg37
I00
sba(issf_api
Word
p4484
(dp4485
g6
I00
sg7
V\u0926\u093f\u090f
p4486
sg9
(issf_api
FeatureSet
p4487
(dp4488
g12
(dp4489
S'posn'
p4490
S'130'
p4491
sS'name'
p4492
S'\xe0\xa4\xa6\xe0\xa4\xbf\xe0\xa4\x8f'
p4493
sS'af'
p4494
S'\xe0\xa4\xa6\xe0\xa5\x87,v,any,sg,any,,\xe0\xa4\xaf\xe0\xa4\xbe_\xe0\xa4\x9c\xe0\xa4\xbe+\xe0\xa4\xa8\xe0\xa4\xbe_\xe0\xa4\xb5\xe0\xa4\xbe\xe0\xa4\xb2\xe0\xa4\xbe,yA'
p4495
sS'chunkid'
p4496
S'VGNN'
p4497
sS'drel'
p4498
S'nmod:NP7'
p4499
sS'vpos'
p4500
S'tam_2_3'
p4501
sS'chunktype'
p4502
S'head:VGNN'
p4503
ssbsg26
I00
sg27
I00
sg28
Nsg29
Nsg30
I6
sg31
I8
sg32
Nsg33
Nsg34
S'VM'
p4504
sg36
g4487
sg37
I00
sba(issf_api
Word
p4505
(dp4506
g6
I00
sg7
V\u091c\u093e\u0928\u0947
p4507
sg9
(issf_api
FeatureSet
p4508
(dp4509
g12
(dp4510
S'posn'
p4511
S'140'
p4512
sS'name'
p4513
S'\xe0\xa4\x9c\xe0\xa4\xbe\xe0\xa4\xa8\xe0\xa5\x87'
p4514
sS'drel'
p4515
S'lwg__vaux:VGNN'
p4516
sS'chunktype'
p4517
S'child:VGNN'
p4518
sS'af'
p4519
S'\xe0\xa4\x9c\xe0\xa4\xbe,v,any,any,any,o,\xe0\xa4\xa8\xe0\xa4\xbe,nA'
p4520
ssbsg26
I00
sg27
I00
sg28
Nsg29
Nsg30
I6
sg31
I8
sg32
Nsg33
Nsg34
S'VAUX'
p4521
sg36
g4508
sg37
I00
sba(issf_api
Word
p4522
(dp4523
g6
I00
sg7
V\u0935\u093e\u0932\u0947
p4524
sg9
(issf_api
FeatureSet
p4525
(dp4526
g12
(dp4527
S'posn'
p4528
S'150'
p4529
sS'name'
p4530
S'\xe0\xa4\xb5\xe0\xa4\xbe\xe0\xa4\xb2\xe0\xa5\x87'
p4531
sS'drel'
p4532
S'lwg__psp:VGNN'
p4533
sS'chunktype'
p4534
S'child:VGNN'
p4535
sS'af'
p4536
S'\xe0\xa4\xb5\xe0\xa4\xbe\xe0\xa4\xb2\xe0\xa4\xbe,psp,m,sg,,o,,'
p4537
ssbsg26
I00
sg27
I00
sg28
Nsg29
Nsg30
I6
sg31
I8
sg32
Nsg33
Nsg34
S'PSP'
p4538
sg36
g4525
sg37
I00
sba(issf_api
Word
p4539
(dp4540
g6
I00
sg7
V\u091f\u094d\u0930\u093e\u0902\u091c\u093f\u091f
p4541
sg9
(issf_api
FeatureSet
p4542
(dp4543
g12
(dp4544
S'posn'
p4545
S'160'
p4546
sS'name'
p4547
S'\xe0\xa4\x9f\xe0\xa5\x8d\xe0\xa4\xb0\xe0\xa4\xbe\xe0\xa4\x82\xe0\xa4\x9c\xe0\xa4\xbf\xe0\xa4\x9f'
p4548
sS'drel'
p4549
S'pof__cn:NP7'
p4550
sS'chunktype'
p4551
S'child:NP7'
p4552
sS'af'
p4553
S'\xe0\xa4\x9f\xe0\xa5\x8d\xe0\xa4\xb0\xe0\xa4\xbe\xe0\xa4\x82\xe0\xa4\x9c\xe0\xa4\xbf\xe0\xa4\x9f,n,m,sg,3,d,0,0'
p4554
ssbsg26
I00
sg27
I00
sg28
Nsg29
Nsg30
I7
sg31
I8
sg32
Nsg33
Nsg34
S'NNC'
p4555
sg36
g4542
sg37
I00
sba(issf_api
Word
p4556
(dp4557
g6
I00
sg7
V\u0936\u0941\u0932\u094d\u0915
p4558
sg9
(issf_api
FeatureSet
p4559
(dp4560
g12
(dp4561
S'posn'
p4562
S'170'
p4563
sS'name'
p4564
S'\xe0\xa4\xb6\xe0\xa5\x81\xe0\xa4\xb2\xe0\xa5\x8d\xe0\xa4\x95'
p4565
sS'af'
p4566
S'\xe0\xa4\xb6\xe0\xa5\x81\xe0\xa4\xb2\xe0\xa5\x8d\xe0\xa4\x95,n,m,sg,3,o,0_\xe0\xa4\xb8\xe0\xa4\xb9\xe0\xa4\xbf\xe0\xa4\xa4,0'
p4567
sS'chunkid'
p4568
S'NP7'
p4569
sS'drel'
p4570
S'ras-k1:VGF'
p4571
sS'vpos'
p4572
S'vib_3'
p4573
sS'chunktype'
p4574
S'head:NP7'
p4575
ssbsg26
I00
sg27
I00
sg28
Nsg29
Nsg30
I7
sg31
I8
sg32
Nsg33
Nsg34
S'NN'
p4576
sg36
g4559
sg37
I00
sba(issf_api
Word
p4577
(dp4578
g6
I00
sg7
V\u0938\u0939\u093f\u0924
p4579
sg9
(issf_api
FeatureSet
p4580
(dp4581
g12
(dp4582
S'posn'
p4583
S'180'
p4584
sS'name'
p4585
S'\xe0\xa4\xb8\xe0\xa4\xb9\xe0\xa4\xbf\xe0\xa4\xa4'
p4586
sS'drel'
p4587
S'lwg__psp:NP7'
p4588
sS'chunktype'
p4589
S'child:NP7'
p4590
sS'af'
p4591
S'\xe0\xa4\xb8\xe0\xa4\xb9\xe0\xa4\xbf\xe0\xa4\xa4,psp,,,,,,'
p4592
ssbsg26
I00
sg27
I00
sg28
Nsg29
Nsg30
I7
sg31
I8
sg32
Nsg33
Nsg34
S'PSP'
p4593
sg36
g4580
sg37
I00
sba(issf_api
Word
p4594
(dp4595
g6
I00
sg7
V\u091f\u094d\u0930\u093e\u0902\u091c\u093f\u091f
p4596
sg9
(issf_api
FeatureSet
p4597
(dp4598
g12
(dp4599
S'posn'
p4600
S'190'
p4601
sS'name'
p4602
S'\xe0\xa4\x9f\xe0\xa5\x8d\xe0\xa4\xb0\xe0\xa4\xbe\xe0\xa4\x82\xe0\xa4\x9c\xe0\xa4\xbf\xe0\xa4\x9f2'
p4603
sS'drel'
p4604
S'pof__cn:NP8'
p4605
sS'chunktype'
p4606
S'child:NP8'
p4607
sS'af'
p4608
S'\xe0\xa4\x9f\xe0\xa5\x8d\xe0\xa4\xb0\xe0\xa4\xbe\xe0\xa4\x82\xe0\xa4\x9c\xe0\xa4\xbf\xe0\xa4\x9f,n,m,sg,3,d,0,0'
p4609
ssbsg26
I00
sg27
I00
sg28
Nsg29
Nsg30
I8
sg31
I8
sg32
Nsg33
Nsg34
S'NNC'
p4610
sg36
g4597
sg37
I00
sba(issf_api
Word
p4611
(dp4612
g6
I00
sg7
V\u0935\u094d\u092f\u0935\u0938\u094d\u0925\u093e
p4613
sg9
(issf_api
FeatureSet
p4614
(dp4615
g12
(dp4616
S'posn'
p4617
S'200'
p4618
sS'name'
p4619
S'\xe0\xa4\xb5\xe0\xa5\x8d\xe0\xa4\xaf\xe0\xa4\xb5\xe0\xa4\xb8\xe0\xa5\x8d\xe0\xa4\xa5\xe0\xa4\xbe'
p4620
sS'af'
p4621
S'\xe0\xa4\xb5\xe0\xa5\x8d\xe0\xa4\xaf\xe0\xa4\xb5\xe0\xa4\xb8\xe0\xa5\x8d\xe0\xa4\xa5\xe0\xa4\xbe,n,f,sg,3,o,0_\xe0\xa4\x95\xe0\xa4\xbe,0'
p4622
sS'chunkid'
p4623
S'NP8'
p4624
sS'drel'
p4625
S'r6:NP9'
p4626
sS'vpos'
p4627
S'vib_3'
p4628
sS'chunktype'
p4629
S'head:NP8'
p4630
ssbsg26
I00
sg27
I00
sg28
Nsg29
Nsg30
I8
sg31
I8
sg32
Nsg33
Nsg34
S'NN'
p4631
sg36
g4614
sg37
I00
sba(issf_api
Word
p4632
(dp4633
g6
I00
sg7
V\u0915\u0940
p4634
sg9
(issf_api
FeatureSet
p4635
(dp4636
g12
(dp4637
S'posn'
p4638
S'210'
p4639
sS'name'
p4640
S'\xe0\xa4\x95\xe0\xa5\x802'
p4641
sS'drel'
p4642
S'lwg__psp:NP8'
p4643
sS'chunktype'
p4644
S'child:NP8'
p4645
sS'af'
p4646
S'\xe0\xa4\x95\xe0\xa4\xbe,psp,f,sg,,d,,'
p4647
ssbsg26
I00
sg27
I00
sg28
Nsg29
Nsg30
I8
sg31
I8
sg32
Nsg33
Nsg34
S'PSP'
p4648
sg36
g4635
sg37
I00
sba(issf_api
Word
p4649
(dp4650
g6
I00
sg7
V\u0930\u0942\u092a\u0930\u0947\u0916\u093e
p4651
sg9
(issf_api
FeatureSet
p4652
(dp4653
g12
(dp4654
S'posn'
p4655
S'220'
p4656
sS'name'
p4657
S'\xe0\xa4\xb0\xe0\xa5\x82\xe0\xa4\xaa\xe0\xa4\xb0\xe0\xa5\x87\xe0\xa4\x96\xe0\xa4\xbe'
p4658
sS'af'
p4659
S'\xe0\xa4\xb0\xe0\xa5\x82\xe0\xa4\xaa\xe0\xa4\xb0\xe0\xa5\x87\xe0\xa4\x96\xe0\xa4\xbe,n,f,sg,3,d,0,0'
p4660
sS'chunkid'
p4661
S'NP9'
p4662
sS'drel'
p4663
S'k2:VGNN2'
p4664
sS'chunktype'
p4665
S'head:NP9'
p4666
ssbsg26
I00
sg27
I00
sg28
Nsg29
Nsg30
I9
sg31
I8
sg32
Nsg33
Nsg34
S'NN'
p4667
sg36
g4652
sg37
I00
sba(issf_api
Word
p4668
(dp4669
g6
I00
sg7
V\u0924\u0948\u092f\u093e\u0930
p4670
sg9
(issf_api
FeatureSet
p4671
(dp4672
g12
(dp4673
S'posn'
p4674
S'230'
p4675
sS'name'
p4676
S'\xe0\xa4\xa4\xe0\xa5\x88\xe0\xa4\xaf\xe0\xa4\xbe\xe0\xa4\xb0'
p4677
sS'af'
p4678
S'\xe0\xa4\xa4\xe0\xa5\x88\xe0\xa4\xaf\xe0\xa4\xbe\xe0\xa4\xb0,adj,any,any,,,,'
p4679
sS'chunkid'
p4680
S'JJP'
p4681
sS'drel'
p4682
S'pof:VGNN2'
p4683
sS'chunktype'
p4684
S'head:JJP'
p4685
ssbsg26
I00
sg27
I00
sg28
Nsg29
Nsg30
I10
sg31
I8
sg32
Nsg33
Nsg34
S'JJ'
p4686
sg36
g4671
sg37
I00
sba(issf_api
Word
p4687
(dp4688
g6
I00
sg7
V\u0915\u0930\u0928\u0947
p4689
sg9
(issf_api
FeatureSet
p4690
(dp4691
g12
(dp4692
S'posn'
p4693
S'240'
p4694
sS'name'
p4695
S'\xe0\xa4\x95\xe0\xa4\xb0\xe0\xa4\xa8\xe0\xa5\x87'
p4696
sS'af'
p4697
S'\xe0\xa4\x95\xe0\xa4\xb0,v,any,any,any,o,\xe0\xa4\xa8\xe0\xa4\xbe_\xe0\xa4\x95\xe0\xa5\x87_\xe0\xa4\xb2\xe0\xa4\xbf\xe0\xa4\x8f,nA'
p4698
sS'chunkid'
p4699
S'VGNN2'
p4700
sS'drel'
p4701
S'rt:VGF'
p4702
sS'vpos'
p4703
S'tam_2_3'
p4704
sS'chunktype'
p4705
S'head:VGNN2'
p4706
ssbsg26
I00
sg27
I00
sg28
Nsg29
Nsg30
I11
sg31
I8
sg32
Nsg33
Nsg34
S'VM'
p4707
sg36
g4690
sg37
I00
sba(issf_api
Word
p4708
(dp4709
g6
I00
sg7
V\u0915\u0947
p4710
sg9
(issf_api
FeatureSet
p4711
(dp4712
g12
(dp4713
S'posn'
p4714
S'250'
p4715
sS'name'
p4716
S'\xe0\xa4\x95\xe0\xa5\x873'
p4717
sS'drel'
p4718
S'lwg__psp:VGNN2'
p4719
sS'chunktype'
p4720
S'child:VGNN2'
p4721
sS'af'
p4722
S'\xe0\xa4\x95\xe0\xa5\x87,psp,,,,,,'
p4723
ssbsg26
I00
sg27
I00
sg28
Nsg29
Nsg30
I11
sg31
I8
sg32
Nsg33
Nsg34
S'PSP'
p4724
sg36
g4711
sg37
I00
sba(issf_api
Word
p4725
(dp4726
g6
I00
sg7
V\u0932\u093f\u090f
p4727
sg9
(issf_api
FeatureSet
p4728
(dp4729
g12
(dp4730
S'posn'
p4731
S'260'
p4732
sS'name'
p4733
S'\xe0\xa4\xb2\xe0\xa4\xbf\xe0\xa4\x8f2'
p4734
sS'drel'
p4735
S'lwg__psp:VGNN2'
p4736
sS'chunktype'
p4737
S'child:VGNN2'
p4738
sS'af'
p4739
S'\xe0\xa4\xb2\xe0\xa4\xbf\xe0\xa4\x8f,psp,,,,,,'
p4740
ssbsg26
I00
sg27
I00
sg28
Nsg29
Nsg30
I11
sg31
I8
sg32
Nsg33
Nsg34
S'PSP'
p4741
sg36
g4728
sg37
I00
sba(issf_api
Word
p4742
(dp4743
g6
I00
sg7
V\u092e\u0908
p4744
sg9
(issf_api
FeatureSet
p4745
(dp4746
g12
(dp4747
S'posn'
p4748
S'270'
p4749
sS'name'
p4750
S'\xe0\xa4\xae\xe0\xa4\x88'
p4751
sS'af'
p4752
S'\xe0\xa4\xae\xe0\xa4\x88,n,f,sg,3,o,0_\xe0\xa4\x95\xe0\xa4\xbe,0'
p4753
sS'chunkid'
p4754
S'NP10'
p4755
sS'drel'
p4756
S'r6:NP11'
p4757
sS'vpos'
p4758
S'vib_2'
p4759
sS'chunktype'
p4760
S'head:NP10'
p4761
ssbsg26
I00
sg27
I00
sg28
Nsg29
Nsg30
I12
sg31
I8
sg32
Nsg33
Nsg34
S'NNP'
p4762
sg36
g4745
sg37
I00
sba(issf_api
Word
p4763
(dp4764
g6
I00
sg7
V\u0915\u0947
p4765
sg9
(issf_api
FeatureSet
p4766
(dp4767
g12
(dp4768
S'posn'
p4769
S'280'
p4770
sS'name'
p4771
S'\xe0\xa4\x95\xe0\xa5\x874'
p4772
sS'drel'
p4773
S'lwg__psp:NP10'
p4774
sS'chunktype'
p4775
S'child:NP10'
p4776
sS'af'
p4777
S'\xe0\xa4\x95\xe0\xa4\xbe,psp,m,sg,,o,,'
p4778
ssbsg26
I00
sg27
I00
sg28
Nsg29
Nsg30
I12
sg31
I8
sg32
Nsg33
Nsg34
S'PSP'
p4779
sg36
g4766
sg37
I00
sba(issf_api
Word
p4780
(dp4781
g6
I00
sg7
V\u0926\u0942\u0938\u0930\u0947
p4782
sg9
(issf_api
FeatureSet
p4783
(dp4784
g12
(dp4785
S'posn'
p4786
S'290'
p4787
sS'name'
p4788
S'\xe0\xa4\xa6\xe0\xa5\x82\xe0\xa4\xb8\xe0\xa4\xb0\xe0\xa5\x87'
p4789
sS'drel'
p4790
S'nmod__adj:NP11'
p4791
sS'chunktype'
p4792
S'child:NP11'
p4793
sS'af'
p4794
S'\xe0\xa4\xa6\xe0\xa5\x82\xe0\xa4\xb8\xe0\xa4\xb0\xe0\xa4\xbe,num,m,sg,,o,,'
p4795
ssbsg26
I00
sg27
I00
sg28
Nsg29
Nsg30
I13
sg31
I8
sg32
Nsg33
Nsg34
S'QO'
p4796
sg36
g4783
sg37
I00
sba(issf_api
Word
p4797
(dp4798
g6
I00
sg7
V\u092a\u0916\u0935\u093e\u0921\u093c\u0947
p4799
sg9
(issf_api
FeatureSet
p4800
(dp4801
g12
(dp4802
S'posn'
p4803
S'300'
p4804
sS'name'
p4805
S'\xe0\xa4\xaa\xe0\xa4\x96\xe0\xa4\xb5\xe0\xa4\xbe\xe0\xa4\xa1\xe0\xa4\xbc\xe0\xa5\x87'
p4806
sS'af'
p4807
S'\xe0\xa4\xaa\xe0\xa4\x96\xe0\xa4\xb5\xe0\xa4\xbe\xe0\xa4\xa1\xe0\xa4\xbc\xe0\xa4\xbe,n,m,sg,3,o,0_\xe0\xa4\xae\xe0\xa5\x87\xe0\xa4\x82,0'
p4808
sS'chunkid'
p4809
S'NP11'
p4810
sS'drel'
p4811
S'k7t:VGF'
p4812
sS'vpos'
p4813
S'vib_3'
p4814
sS'chunktype'
p4815
S'head:NP11'
p4816
ssbsg26
I00
sg27
I00
sg28
Nsg29
Nsg30
I13
sg31
I8
sg32
Nsg33
Nsg34
S'NN'
p4817
sg36
g4800
sg37
I00
sba(issf_api
Word
p4818
(dp4819
g6
I00
sg7
V\u092e\u0947\u0902
p4820
sg9
(issf_api
FeatureSet
p4821
(dp4822
g12
(dp4823
S'posn'
p4824
S'310'
p4825
sS'name'
p4826
S'\xe0\xa4\xae\xe0\xa5\x87\xe0\xa4\x82'
p4827
sS'drel'
p4828
S'lwg__psp:NP11'
p4829
sS'chunktype'
p4830
S'child:NP11'
p4831
sS'af'
p4832
S'\xe0\xa4\xae\xe0\xa5\x87\xe0\xa4\x82,psp,,,,,,'
p4833
ssbsg26
I00
sg27
I00
sg28
Nsg29
Nsg30
I13
sg31
I8
sg32
Nsg33
Nsg34
S'PSP'
p4834
sg36
g4821
sg37
I00
sba(issf_api
Word
p4835
(dp4836
g6
I00
sg7
V\u092a\u093e\u0915\u093f\u0938\u094d\u0924\u093e\u0928
p4837
sg9
(issf_api
FeatureSet
p4838
(dp4839
g12
(dp4840
S'crefhead'
p4841
S'\xe0\xa4\xaa\xe0\xa4\xbe\xe0\xa4\x95\xe0\xa4\xbf\xe0\xa4\xb8\xe0\xa5\x8d\xe0\xa4\xa4\xe0\xa4\xbe\xe0\xa4\xa8:i40'
p4842
sS'posn'
p4843
S'320'
p4844
sS'name'
p4845
S'\xe0\xa4\xaa\xe0\xa4\xbe\xe0\xa4\x95\xe0\xa4\xbf\xe0\xa4\xb8\xe0\xa5\x8d\xe0\xa4\xa4\xe0\xa4\xbe\xe0\xa4\xa82'
p4846
sS'af'
p4847
S'\xe0\xa4\xaa\xe0\xa4\xbe\xe0\xa4\x95\xe0\xa4\xbf\xe0\xa4\xb8\xe0\xa5\x8d\xe0\xa4\xa4\xe0\xa4\xbe\xe0\xa4\xa8,n,m,sg,3,o,0_\xe0\xa4\x95\xe0\xa4\xbe,0'
p4848
sS'chunkid'
p4849
S'NP12'
p4850
sS'creftype'
p4851
S'Coreference-Identity:i39'
p4852
sS'chunktype'
p4853
S'head:NP12'
p4854
sS'vpos'
p4855
S'vib_2'
p4856
sS'cref'
p4857
S'i40%1:t6'
p4858
sS'drel'
p4859
S'r6-k2:NP13'
p4860
ssbsg26
I00
sg27
I00
sg28
Nsg29
Nsg30
I14
sg31
I8
sg32
Nsg33
Nsg34
S'NNP'
p4861
sg36
g4838
sg37
I00
sba(issf_api
Word
p4862
(dp4863
g6
I00
sg7
V\u0915\u093e
p4864
sg9
(issf_api
FeatureSet
p4865
(dp4866
g12
(dp4867
S'posn'
p4868
S'330'
p4869
sS'name'
p4870
S'\xe0\xa4\x95\xe0\xa4\xbe'
p4871
sS'drel'
p4872
S'lwg__psp:NP12'
p4873
sS'chunktype'
p4874
S'child:NP12'
p4875
sS'af'
p4876
S'\xe0\xa4\x95\xe0\xa4\xbe,psp,m,sg,,d,,'
p4877
ssbsg26
I00
sg27
I00
sg28
Nsg29
Nsg30
I14
sg31
I8
sg32
Nsg33
Nsg34
S'PSP'
p4878
sg36
g4865
sg37
I00
sba(issf_api
Word
p4879
(dp4880
g6
I00
sg7
V\u0926\u094c\u0930\u093e
p4881
sg9
(issf_api
FeatureSet
p4882
(dp4883
g12
(dp4884
S'posn'
p4885
S'340'
p4886
sS'name'
p4887
S'\xe0\xa4\xa6\xe0\xa5\x8c\xe0\xa4\xb0\xe0\xa4\xbe'
p4888
sS'af'
p4889
S'\xe0\xa4\xa6\xe0\xa5\x8c\xe0\xa4\xb0\xe0\xa4\xbe,n,m,sg,3,d,0,0'
p4890
sS'chunkid'
p4891
S'NP13'
p4892
sS'drel'
p4893
S'pof:VGF'
p4894
sS'chunktype'
p4895
S'head:NP13'
p4896
ssbsg26
I00
sg27
I00
sg28
Nsg29
Nsg30
I15
sg31
I8
sg32
Nsg33
Nsg34
S'NN'
p4897
sg36
g4882
sg37
I00
sba(issf_api
Word
p4898
(dp4899
g6
I00
sg7
V\u0915\u0930\u0947\u0902\u0917\u0947
p4900
sg9
(issf_api
FeatureSet
p4901
(dp4902
g12
(dp4903
S'posn'
p4904
S'350'
p4905
sS'name'
p4906
S'\xe0\xa4\x95\xe0\xa4\xb0\xe0\xa5\x87\xe0\xa4\x82\xe0\xa4\x97\xe0\xa5\x87'
p4907
sS'af'
p4908
S'\xe0\xa4\x95\xe0\xa4\xb0,v,m,sg,3h,,\xe0\xa4\x97\xe0\xa4\xbe,gA'
p4909
sS'chunkid'
p4910
S'VGF'
p4911
sS'chunktype'
p4912
S'head:VGF'
p4913
sS'voicetype'
p4914
S'active'
p4915
sS'stype'
p4916
S'declarative'
p4917
ssbsg26
I00
sg27
I00
sg28
Nsg29
Nsg30
I16
sg31
I8
sg32
Nsg33
Nsg34
S'VM'
p4918
sg36
g4901
sg37
I00
sba(issf_api
Word
p4919
(dp4920
g6
I00
sg7
V\u0964
p4921
sg9
(issf_api
FeatureSet
p4922
(dp4923
g12
(dp4924
S'posn'
p4925
S'360'
p4926
sS'name'
p4927
S'\xe0\xa5\xa4'
p4928
sS'af'
p4929
S'\xe0\xa5\xa4,punc,,,,,,'
p4930
sS'chunkid'
p4931
S'BLK'
p4932
sS'drel'
p4933
S'rsym:VGF'
p4934
sS'chunktype'
p4935
S'head:BLK'
p4936
ssbsg26
I00
sg27
I00
sg28
Nsg29
Nsg30
I17
sg31
I8
sg32
Nsg33
Nsg34
S'SYM'
p4937
sg36
g4922
sg37
I00
sbasS'sentenceList'
p4938
(lp4939
(issf_api
Sentence
p4940
(dp4941
S'rootNode'
p4942
(lp4943
sg31
I0
sS'wordNumList'
p4944
(lp4945
I0
aI1
aI2
aI3
aI4
aI5
aI6
aI7
aI8
aI9
aI10
aI11
aI12
aI13
aI14
aI15
aI16
aI17
aI18
aI19
aI20
aI21
aI22
aI23
aI24
aI25
aI26
aI27
aI28
aI29
aI30
aI31
aI32
aI33
aI34
aI35
aI36
aI37
asS'nodeDict'
p4946
(dp4947
S'VGNN'
p4948
(issf_api
Node
p4949
(dp4950
S'nodeRelation'
p4951
S'rt'
p4952
sS'nodeName'
p4953
g4948
sS'nodeParent'
p4954
S'VGF'
p4955
sS'nodeLevel'
p4956
I-1
sg30
I4
sS'childList'
p4957
(lp4958
S'JJP'
p4959
aS'NP3'
p4960
asbsS'VGF'
p4961
(issf_api
Node
p4962
(dp4963
g4951
S'None'
p4964
sg4953
g4961
sg4954
g4964
sg4956
I-1
sg30
I12
sg4957
(lp4965
g4948
aS'NP9'
p4966
aS'BLK'
p4967
aS'NP'
p4968
asbsg4959
(issf_api
Node
p4969
(dp4970
g4951
S'pof'
p4971
sg4953
g4959
sg4954
S'VGNN'
p4972
sg4956
I-1
sg30
I3
sg4957
(lp4973
sbsS'VGNN2'
p4974
(issf_api
Node
p4975
(dp4976
g4951
S'r6'
p4977
sg4953
g4974
sg4954
S'NP9'
p4978
sg4956
I-1
sg30
I10
sg4957
(lp4979
S'NP5'
p4980
aS'NP8'
p4981
asbsg4980
(issf_api
Node
p4982
(dp4983
g4951
S'k2'
p4984
sg4953
g4980
sg4954
S'VGNN2'
p4985
sg4956
I-1
sg30
I6
sg4957
(lp4986
S'NP4'
p4987
asbsg4966
(issf_api
Node
p4988
(dp4989
g4951
S'k2'
p4990
sg4953
g4966
sg4954
S'VGF'
p4991
sg4956
I-1
sg30
I11
sg4957
(lp4992
g4974
asbsg4981
(issf_api
Node
p4993
(dp4994
g4951
S'k5'
p4995
sg4953
g4981
sg4954
S'VGNN2'
p4996
sg4956
I-1
sg30
I9
sg4957
(lp4997
S'NP7'
p4998
asbsg4967
(issf_api
Node
p4999
(dp5000
g4951
S'rsym'
p5001
sg4953
g4967
sg4954
S'VGF'
p5002
sg4956
I-1
sg30
I13
sg4957
(lp5003
sbsg4968
(issf_api
Node
p5004
(dp5005
g4951
S'k1'
p5006
sg4953
g4968
sg4954
S'VGF'
p5007
sg4956
I-1
sg30
I0
sg4957
(lp5008
sbsg4987
(issf_api
Node
p5009
(dp5010
g4951
S'nmod'
p5011
sg4953
g4987
sg4954
S'NP5'
p5012
sg4956
I-1
sg30
I5
sg4957
(lp5013
sbsg4998
(issf_api
Node
p5014
(dp5015
g4951
S'nmod'
p5016
sg4953
g4998
sg4954
S'NP8'
p5017
sg4956
I-1
sg30
I8
sg4957
(lp5018
S'NP6'
p5019
asbsg5019
(issf_api
Node
p5020
(dp5021
g4951
S'r6'
p5022
sg4953
g5019
sg4954
S'NP7'
p5023
sg4956
I-1
sg30
I7
sg4957
(lp5024
sbsg4960
(issf_api
Node
p5025
(dp5026
g4951
S'k2'
p5027
sg4953
g4960
sg4954
S'VGNN'
p5028
sg4956
I-1
sg30
I2
sg4957
(lp5029
S'NP2'
p5030
asbsg5030
(issf_api
Node
p5031
(dp5032
g4951
S'r6'
p5033
sg4953
g5030
sg4954
S'NP3'
p5034
sg4956
I-1
sg30
I1
sg4957
(lp5035
sbssS'chunkList'
p5036
(lp5037
(issf_api
Chunk
p5038
(dp5039
g4953
g93
sg30
I0
sS'chunkTag'
p5040
g106
sg31
I0
sg4944
(lp5041
I0
aI1
aI2
aI3
aI4
asg36
(issf_api
FeatureSet
p5042
(dp5043
g12
(dp5044
S'name'
p5045
g4968
sS'drel'
p5046
S'k1:VGF'
p5047
ssbsba(issf_api
Chunk
p5048
(dp5049
g4953
g154
sg30
I1
sg5040
g161
sg31
I0
sg4944
(lp5050
I5
aI6
aI7
asg36
(issf_api
FeatureSet
p5051
(dp5052
g12
(dp5053
S'name'
p5054
g5030
sS'drel'
p5055
S'r6:NP3'
p5056
ssbsba(issf_api
Chunk
p5057
(dp5058
g4953
g192
sg30
I2
sg5040
g199
sg31
I0
sg4944
(lp5059
I8
aI9
asg36
(issf_api
FeatureSet
p5060
(dp5061
g12
(dp5062
S'name'
p5063
g4960
sS'drel'
p5064
S'k2:VGNN'
p5065
ssbsba(issf_api
Chunk
p5066
(dp5067
g4953
g230
sg30
I3
sg5040
g235
sg31
I0
sg4944
(lp5068
I10
asg36
(issf_api
FeatureSet
p5069
(dp5070
g12
(dp5071
S'name'
p5072
g4959
sS'drel'
p5073
S'pof:VGNN'
p5074
ssbsba(issf_api
Chunk
p5075
(dp5076
g4953
g249
sg30
I4
sg5040
g256
sg31
I0
sg4944
(lp5077
I11
aI12
aI13
asg36
(issf_api
FeatureSet
p5078
(dp5079
g12
(dp5080
S'name'
p5081
g4948
sS'drel'
p5082
S'rt:VGF'
p5083
ssbsba(issf_api
Chunk
p5084
(dp5085
g4953
g338
sg30
I5
sg5040
g345
sg31
I0
sg4944
(lp5086
I14
aI15
aI16
aI17
asg36
(issf_api
FeatureSet
p5087
(dp5088
g12
(dp5089
S'name'
p5090
g4987
sS'drel'
p5091
S'nmod:NP5'
p5092
ssbsba(issf_api
Chunk
p5093
(dp5094
g4953
g466
sg30
I6
sg5040
g477
sg31
I0
sg4944
(lp5095
I18
aI19
aI20
aI21
aI22
aI23
asg36
(issf_api
FeatureSet
p5096
(dp5097
g12
(dp5098
S'name'
p5099
g4980
sS'drel'
p5100
S'k2:VGNN2'
p5101
ssbsba(issf_api
Chunk
p5102
(dp5103
g4953
g510
sg30
I7
sg5040
g521
sg31
I0
sg4944
(lp5104
I24
aI25
asg36
(issf_api
FeatureSet
p5105
(dp5106
g12
(dp5107
S'name'
p5108
g5019
sS'drel'
p5109
S'r6:NP7'
p5110
ssbsba(issf_api
Chunk
p5111
(dp5112
g4953
g569
sg30
I8
sg5040
g576
sg31
I0
sg4944
(lp5113
I26
aI27
aI28
asg36
(issf_api
FeatureSet
p5114
(dp5115
g12
(dp5116
S'name'
p5117
g4998
sS'drel'
p5118
S'nmod:NP8'
p5119
ssbsba(issf_api
Chunk
p5120
(dp5121
g4953
g607
sg30
I9
sg5040
g614
sg31
I0
sg4944
(lp5122
I29
aI30
asg36
(issf_api
FeatureSet
p5123
(dp5124
g12
(dp5125
S'name'
p5126
g4981
sS'drel'
p5127
S'k5:VGNN2'
p5128
ssbsba(issf_api
Chunk
p5129
(dp5130
g4953
g645
sg30
I10
sg5040
g652
sg31
I0
sg4944
(lp5131
I31
aI32
aI33
asg36
(issf_api
FeatureSet
p5132
(dp5133
g12
(dp5134
S'name'
p5135
g4974
sS'drel'
p5136
S'r6:NP9'
p5137
ssbsba(issf_api
Chunk
p5138
(dp5139
g4953
g700
sg30
I11
sg5040
g705
sg31
I0
sg4944
(lp5140
I34
asg36
(issf_api
FeatureSet
p5141
(dp5142
g12
(dp5143
S'name'
p5144
g4966
sS'drel'
p5145
S'k2:VGF'
p5146
ssbsba(issf_api
Chunk
p5147
(dp5148
g4953
g719
sg30
I12
sg5040
g728
sg31
I0
sg4944
(lp5149
I35
aI36
asg36
(issf_api
FeatureSet
p5150
(dp5151
g12
(dp5152
S'name'
p5153
g4961
ssbsba(issf_api
Chunk
p5154
(dp5155
g4953
g759
sg30
I13
sg5040
g764
sg31
I0
sg4944
(lp5156
I37
asg36
(issf_api
FeatureSet
p5157
(dp5158
g12
(dp5159
S'name'
p5160
g4967
sS'drel'
p5161
S'rsym:VGF'
p5162
ssbsbasba(issf_api
Sentence
p5163
(dp5164
g4942
(lp5165
sg31
I1
sg4944
(lp5166
I38
aI39
aI40
aI41
aI42
aI43
aI44
aI45
aI46
aI47
aI48
aI49
aI50
aI51
aI52
aI53
aI54
aI55
aI56
aI57
aI58
aI59
aI60
aI61
aI62
aI63
aI64
aI65
aI66
aI67
aI68
aI69
aI70
aI71
aI72
aI73
asg4946
(dp5167
S'VGNF'
p5168
(issf_api
Node
p5169
(dp5170
g4951
S'vmod'
p5171
sg4953
g5168
sg4954
S'NULL__VGF'
p5172
sg4956
I-1
sg30
I7
sg4957
(lp5173
S'NP5'
p5174
aS'NP4'
p5175
asbsS'NULL__VGF'
p5176
(issf_api
Node
p5177
(dp5178
g4951
S'ccof'
p5179
sg4953
g5176
sg4954
S'CCP2'
p5180
sg4956
I-1
sg30
I10
sg4957
(lp5181
g5168
aS'NP7'
p5182
aS'NP6'
p5183
aS'NP2'
p5184
asbsS'NP10'
p5185
(issf_api
Node
p5186
(dp5187
g4951
S'k7p'
p5188
sg4953
g5185
sg4954
S'VGF2'
p5189
sg4956
I-1
sg30
I15
sg4957
(lp5190
sbsS'VGF'
p5191
(issf_api
Node
p5192
(dp5193
g4951
g4964
sg4953
g5191
sg4954
g4964
sg4956
I-1
sg30
I1
sg4957
(lp5194
S'CCP'
p5195
aS'BLK'
p5196
aS'NP'
p5197
asbsg5195
(issf_api
Node
p5198
(dp5199
g4951
S'k2'
p5200
sg4953
g5195
sg4954
S'VGF'
p5201
sg4956
I-1
sg30
I2
sg4957
(lp5202
S'CCP2'
p5203
asbsS'RBP'
p5204
(issf_api
Node
p5205
(dp5206
g4951
S'adv'
p5207
sg4953
g5204
sg4954
S'NULL__VGF2'
p5208
sg4956
I-1
sg30
I11
sg4957
(lp5209
sbsS'VGF2'
p5210
(issf_api
Node
p5211
(dp5212
g4951
S'ccof'
p5213
sg4953
g5210
sg4954
S'CCP2'
p5214
sg4956
I-1
sg30
I16
sg4957
(lp5215
g5185
aS'NP9'
p5216
asbsg5174
(issf_api
Node
p5217
(dp5218
g4951
S'k7p'
p5219
sg4953
g5174
sg4954
S'VGNF'
p5220
sg4956
I-1
sg30
I6
sg4957
(lp5221
sbsg5216
(issf_api
Node
p5222
(dp5223
g4951
S'k7p'
p5224
sg4953
g5216
sg4954
S'VGF2'
p5225
sg4956
I-1
sg30
I14
sg4957
(lp5226
sbsS'NP8'
p5227
(issf_api
Node
p5228
(dp5229
g4951
S'k7p'
p5230
sg4953
g5227
sg4954
S'NULL__VGF2'
p5231
sg4956
I-1
sg30
I12
sg4957
(lp5232
sbsg5196
(issf_api
Node
p5233
(dp5234
g4951
S'rsym'
p5235
sg4953
g5196
sg4954
S'VGF'
p5236
sg4956
I-1
sg30
I17
sg4957
(lp5237
sbsg5197
(issf_api
Node
p5238
(dp5239
g4951
S'k1'
p5240
sg4953
g5197
sg4954
S'VGF'
p5241
sg4956
I-1
sg30
I0
sg4957
(lp5242
sbsg5175
(issf_api
Node
p5243
(dp5244
g4951
S'k7p'
p5245
sg4953
g5175
sg4954
S'VGNF'
p5246
sg4956
I-1
sg30
I5
sg4957
(lp5247
S'NP3'
p5248
asbsg5182
(issf_api
Node
p5249
(dp5250
g4951
S'k7p'
p5251
sg4953
g5182
sg4954
S'NULL__VGF'
p5252
sg4956
I-1
sg30
I9
sg4957
(lp5253
sbsg5183
(issf_api
Node
p5254
(dp5255
g4951
S'k7p'
p5256
sg4953
g5183
sg4954
S'NULL__VGF'
p5257
sg4956
I-1
sg30
I8
sg4957
(lp5258
sbsg5203
(issf_api
Node
p5259
(dp5260
g4951
S'ccof'
p5261
sg4953
g5203
sg4954
S'CCP'
p5262
sg4956
I-1
sg30
I13
sg4957
(lp5263
g5176
ag5210
aS'NULL__VGF2'
p5264
asbsg5264
(issf_api
Node
p5265
(dp5266
g4951
S'ccof'
p5267
sg4953
g5264
sg4954
S'CCP2'
p5268
sg4956
I-1
sg30
I-1
sg4957
(lp5269
g5204
ag5227
asbsg5248
(issf_api
Node
p5270
(dp5271
g4951
S'r6'
p5272
sg4953
g5248
sg4954
S'NP4'
p5273
sg4956
I-1
sg30
I4
sg4957
(lp5274
sbsg5184
(issf_api
Node
p5275
(dp5276
g4951
S'k2'
p5277
sg4953
g5184
sg4954
S'NULL__VGF'
p5278
sg4956
I-1
sg30
I3
sg4957
(lp5279
sbssg5036
(lp5280
(issf_api
Chunk
p5281
(dp5282
g4953
g780
sg30
I0
sg5040
g791
sg31
I1
sg4944
(lp5283
I38
aI39
asg36
(issf_api
FeatureSet
p5284
(dp5285
g12
(dp5286
S'name'
p5287
g5197
sS'drel'
p5288
S'k1:VGF'
p5289
ssbsba(issf_api
Chunk
p5290
(dp5291
g4953
g822
sg30
I1
sg5040
g829
sg31
I1
sg4944
(lp5292
I40
asg36
(issf_api
FeatureSet
p5293
(dp5294
g12
(dp5295
S'name'
p5296
g5191
ssbsba(issf_api
Chunk
p5297
(dp5298
g4953
g843
sg30
I2
sg5040
g848
sg31
I1
sg4944
(lp5299
I41
asg36
(issf_api
FeatureSet
p5300
(dp5301
g12
(dp5302
S'name'
p5303
g5195
sS'drel'
p5304
S'k2:VGF'
p5305
ssbsba(issf_api
Chunk
p5306
(dp5307
g4953
g887
sg30
I3
sg5040
g898
sg31
I1
sg4944
(lp5308
I42
aI43
aI44
asg36
(issf_api
FeatureSet
p5309
(dp5310
g12
(dp5311
S'name'
p5312
g5184
sS'drel'
p5313
S'k2:NULL__VGF'
p5314
ssbsba(issf_api
Chunk
p5315
(dp5316
g4953
g946
sg30
I4
sg5040
g953
sg31
I1
sg4944
(lp5317
I45
aI46
aI47
asg36
(issf_api
FeatureSet
p5318
(dp5319
g12
(dp5320
S'name'
p5321
g5248
sS'drel'
p5322
S'r6:NP4'
p5323
ssbsba(issf_api
Chunk
p5324
(dp5325
g4953
g984
sg30
I5
sg5040
g989
sg31
I1
sg4944
(lp5326
I48
aI49
aI50
asg36
(issf_api
FeatureSet
p5327
(dp5328
g12
(dp5329
S'name'
p5330
g5175
sS'drel'
p5331
S'k7p:VGNF'
p5332
ssbsba(issf_api
Chunk
p5333
(dp5334
g4953
g1053
sg30
I6
sg5040
g1058
sg31
I1
sg4944
(lp5335
I51
aI52
asg36
(issf_api
FeatureSet
p5336
(dp5337
g12
(dp5338
S'name'
p5339
g5174
sS'drel'
p5340
S'k7p:VGNF'
p5341
ssbsba(issf_api
Chunk
p5342
(dp5343
g4953
g1072
sg30
I7
sg5040
g1079
sg31
I1
sg4944
(lp5344
I53
aI54
asg36
(issf_api
FeatureSet
p5345
(dp5346
g12
(dp5347
S'name'
p5348
g5168
sS'drel'
p5349
S'vmod:NULL__VGF'
p5350
ssbsba(issf_api
Chunk
p5351
(dp5352
g4953
g1110
sg30
I8
sg5040
g1117
sg31
I1
sg4944
(lp5353
I55
aI56
aI57
asg36
(issf_api
FeatureSet
p5354
(dp5355
g12
(dp5356
S'name'
p5357
g5183
sS'drel'
p5358
S'k7p:NULL__VGF'
p5359
ssbsba(issf_api
Chunk
p5360
(dp5361
g4953
g1165
sg30
I9
sg5040
g1170
sg31
I1
sg4944
(lp5362
I58
asg36
(issf_api
FeatureSet
p5363
(dp5364
g12
(dp5365
S'name'
p5366
g5182
sS'drel'
p5367
S'k7p:NULL__VGF'
p5368
ssbsba(issf_api
Chunk
p5369
(dp5370
g4953
g1182
sg30
I10
sg5040
g1193
sg31
I1
sg4944
(lp5371
I59
asg36
(issf_api
FeatureSet
p5372
(dp5373
g12
(dp5374
S'dmrel'
p5375
S'ccof:CCP2'
p5376
sS'name'
p5377
g5176
ssbsba(issf_api
Chunk
p5378
(dp5379
g4953
g1207
sg30
I11
sg5040
g1212
sg31
I1
sg4944
(lp5380
I60
asg36
(issf_api
FeatureSet
p5381
(dp5382
g12
(dp5383
S'name'
p5384
g5204
sS'drel'
p5385
S'adv:NULL__VGF2'
p5386
ssbsba(issf_api
Chunk
p5387
(dp5388
g4953
g1228
sg30
I12
sg5040
g1237
sg31
I1
sg4944
(lp5389
I61
asg36
(issf_api
FeatureSet
p5390
(dp5391
g12
(dp5392
S'name'
p5393
g5227
sS'drel'
p5394
S'k7p:NULL__VGF2'
p5395
ssbsba(issf_api
Chunk
p5396
(dp5397
g4953
g1251
sg30
I13
sg5040
g1256
sg31
I1
sg4944
(lp5398
I62
asg36
(issf_api
FeatureSet
p5399
(dp5400
g12
(dp5401
S'name'
p5402
g5203
sS'drel'
p5403
S'ccof:CCP'
p5404
ssbsba(issf_api
Chunk
p5405
(dp5406
g4953
g1272
sg30
I14
sg5040
g1283
sg31
I1
sg4944
(lp5407
I63
aI64
asg36
(issf_api
FeatureSet
p5408
(dp5409
g12
(dp5410
S'name'
p5411
g5216
sS'drel'
p5412
S'k7p:VGF2'
p5413
ssbsba(issf_api
Chunk
p5414
(dp5415
g4953
g1365
sg30
I15
sg5040
g1372
sg31
I1
sg4944
(lp5416
I65
aI66
aI67
aI68
aI69
asg36
(issf_api
FeatureSet
p5417
(dp5418
g12
(dp5419
S'name'
p5420
g5185
sS'drel'
p5421
S'k7p:VGF2'
p5422
ssbsba(issf_api
Chunk
p5423
(dp5424
g4953
g1403
sg30
I16
sg5040
g1414
sg31
I1
sg4944
(lp5425
I70
aI71
aI72
asg36
(issf_api
FeatureSet
p5426
(dp5427
g12
(dp5428
S'name'
p5429
g5210
sS'drel'
p5430
S'ccof:CCP2'
p5431
ssbsba(issf_api
Chunk
p5432
(dp5433
g4953
g1462
sg30
I17
sg5040
g1467
sg31
I1
sg4944
(lp5434
I73
asg36
(issf_api
FeatureSet
p5435
(dp5436
g12
(dp5437
S'name'
p5438
g5196
sS'drel'
p5439
S'rsym:VGF'
p5440
ssbsbasba(issf_api
Sentence
p5441
(dp5442
g4942
(lp5443
sg31
I2
sg4944
(lp5444
I74
aI75
aI76
aI77
aI78
aI79
aI80
aI81
aI82
aI83
aI84
aI85
aI86
aI87
aI88
aI89
aI90
aI91
aI92
aI93
aI94
aI95
aI96
aI97
aI98
aI99
aI100
aI101
asg4946
(dp5445
S'NP10'
p5446
(issf_api
Node
p5447
(dp5448
g4951
S'k7t'
p5449
sg4953
g5446
sg4954
S'VGF2'
p5450
sg4956
I-1
sg30
I11
sg4957
(lp5451
S'NP9'
p5452
asbsS'VGF'
p5453
(issf_api
Node
p5454
(dp5455
g4951
g4964
sg4953
g5453
sg4954
g4964
sg4956
I-1
sg30
I2
sg4957
(lp5456
S'CCP'
p5457
aS'BLK'
p5458
aS'NP2'
p5459
asbsg5457
(issf_api
Node
p5460
(dp5461
g4951
S'k2'
p5462
sg4953
g5457
sg4954
S'VGF'
p5463
sg4956
I-1
sg30
I3
sg4957
(lp5464
S'VGF2'
p5465
asbsg5465
(issf_api
Node
p5466
(dp5467
g4951
S'ccof'
p5468
sg4953
g5465
sg4954
S'CCP'
p5469
sg4956
I-1
sg30
I12
sg4957
(lp5470
g5446
aS'NP5'
p5471
aS'NP8'
p5472
aS'NP7'
p5473
aS'NP6'
p5474
aS'NP3'
p5475
asbsg5471
(issf_api
Node
p5476
(dp5477
g4951
S'rt'
p5478
sg4953
g5471
sg4954
S'VGF2'
p5479
sg4956
I-1
sg30
I6
sg4957
(lp5480
S'NP4'
p5481
asbsg5452
(issf_api
Node
p5482
(dp5483
g4951
S'r6'
p5484
sg4953
g5452
sg4954
S'NP10'
p5485
sg4956
I-1
sg30
I10
sg4957
(lp5486
sbsg5472
(issf_api
Node
p5487
(dp5488
g4951
S'k7t'
p5489
sg4953
g5472
sg4954
S'VGF2'
p5490
sg4956
I-1
sg30
I9
sg4957
(lp5491
sbsg5458
(issf_api
Node
p5492
(dp5493
g4951
S'rsym'
p5494
sg4953
g5458
sg4954
S'VGF'
p5495
sg4956
I-1
sg30
I13
sg4957
(lp5496
sbsS'NP'
p5497
(issf_api
Node
p5498
(dp5499
g4951
S'r6'
p5500
sg4953
g5497
sg4954
S'NP2'
p5501
sg4956
I-1
sg30
I0
sg4957
(lp5502
sbsg5481
(issf_api
Node
p5503
(dp5504
g4951
S'r6'
p5505
sg4953
g5481
sg4954
S'NP5'
p5506
sg4956
I-1
sg30
I5
sg4957
(lp5507
sbsg5473
(issf_api
Node
p5508
(dp5509
g4951
S'k1'
p5510
sg4953
g5473
sg4954
S'VGF2'
p5511
sg4956
I-1
sg30
I8
sg4957
(lp5512
sbsg5474
(issf_api
Node
p5513
(dp5514
g4951
S'ras-k1'
p5515
sg4953
g5474
sg4954
S'VGF2'
p5516
sg4956
I-1
sg30
I7
sg4957
(lp5517
sbsg5475
(issf_api
Node
p5518
(dp5519
g4951
S'k7p'
p5520
sg4953
g5475
sg4954
S'VGF2'
p5521
sg4956
I-1
sg30
I4
sg4957
(lp5522
sbsg5459
(issf_api
Node
p5523
(dp5524
g4951
S'k1'
p5525
sg4953
g5459
sg4954
S'VGF'
p5526
sg4956
I-1
sg30
I1
sg4957
(lp5527
g5497
asbssg5036
(lp5528
(issf_api
Chunk
p5529
(dp5530
g4953
g1502
sg30
I0
sg5040
g1511
sg31
I2
sg4944
(lp5531
I74
aI75
aI76
asg36
(issf_api
FeatureSet
p5532
(dp5533
g12
(dp5534
S'name'
p5535
g5497
sS'drel'
p5536
S'r6:NP2'
p5537
ssbsba(issf_api
Chunk
p5538
(dp5539
g4953
g1544
sg30
I1
sg5040
g1557
sg31
I2
sg4944
(lp5540
I77
aI78
asg36
(issf_api
FeatureSet
p5541
(dp5542
g12
(dp5543
S'name'
p5544
g5459
sS'drel'
p5545
S'k1:VGF'
p5546
ssbsba(issf_api
Chunk
p5547
(dp5548
g4953
g1588
sg30
I2
sg5040
g1595
sg31
I2
sg4944
(lp5549
I79
asg36
(issf_api
FeatureSet
p5550
(dp5551
g12
(dp5552
S'name'
p5553
g5453
ssbsba(issf_api
Chunk
p5554
(dp5555
g4953
g1609
sg30
I3
sg5040
g1614
sg31
I2
sg4944
(lp5556
I80
asg36
(issf_api
FeatureSet
p5557
(dp5558
g12
(dp5559
S'name'
p5560
g5457
sS'drel'
p5561
S'k2:VGF'
p5562
ssbsba(issf_api
Chunk
p5563
(dp5564
g4953
g1645
sg30
I4
sg5040
g1652
sg31
I2
sg4944
(lp5565
I81
aI82
aI83
asg36
(issf_api
FeatureSet
p5566
(dp5567
g12
(dp5568
S'name'
p5569
g5475
sS'drel'
p5570
S'k7p:VGF2'
p5571
ssbsba(issf_api
Chunk
p5572
(dp5573
g4953
g1685
sg30
I5
sg5040
g1696
sg31
I2
sg4944
(lp5574
I84
aI85
asg36
(issf_api
FeatureSet
p5575
(dp5576
g12
(dp5577
S'name'
p5578
g5481
sS'drel'
p5579
S'r6:NP5'
p5580
ssbsba(issf_api
Chunk
p5581
(dp5582
g4953
g1727
sg30
I6
sg5040
g1734
sg31
I2
sg4944
(lp5583
I86
aI87
aI88
asg36
(issf_api
FeatureSet
p5584
(dp5585
g12
(dp5586
S'name'
p5587
g5471
sS'drel'
p5588
S'rt:VGF2'
p5589
ssbsba(issf_api
Chunk
p5590
(dp5591
g4953
g1784
sg30
I7
sg5040
g1795
sg31
I2
sg4944
(lp5592
I89
aI90
aI91
asg36
(issf_api
FeatureSet
p5593
(dp5594
g12
(dp5595
S'name'
p5596
g5474
sS'drel'
p5597
S'ras-k1:VGF2'
p5598
ssbsba(issf_api
Chunk
p5599
(dp5600
g4953
g1843
sg30
I8
sg5040
g1848
sg31
I2
sg4944
(lp5601
I92
asg36
(issf_api
FeatureSet
p5602
(dp5603
g12
(dp5604
S'name'
p5605
g5473
sS'drel'
p5606
S'k1:VGF2'
p5607
ssbsba(issf_api
Chunk
p5608
(dp5609
g4953
g1862
sg30
I9
sg5040
g1869
sg31
I2
sg4944
(lp5610
I93
aI94
asg36
(issf_api
FeatureSet
p5611
(dp5612
g12
(dp5613
S'name'
p5614
g5472
sS'drel'
p5615
S'k7t:VGF2'
p5616
ssbsba(issf_api
Chunk
p5617
(dp5618
g4953
g1902
sg30
I10
sg5040
g1913
sg31
I2
sg4944
(lp5619
I95
aI96
asg36
(issf_api
FeatureSet
p5620
(dp5621
g12
(dp5622
S'name'
p5623
g5452
sS'drel'
p5624
S'r6:NP10'
p5625
ssbsba(issf_api
Chunk
p5626
(dp5627
g4953
g1944
sg30
I11
sg5040
g1951
sg31
I2
sg4944
(lp5628
I97
aI98
aI99
asg36
(issf_api
FeatureSet
p5629
(dp5630
g12
(dp5631
S'name'
p5632
g5446
sS'drel'
p5633
S'k7t:VGF2'
p5634
ssbsba(issf_api
Chunk
p5635
(dp5636
g4953
g1999
sg30
I12
sg5040
g2008
sg31
I2
sg4944
(lp5637
I100
asg36
(issf_api
FeatureSet
p5638
(dp5639
g12
(dp5640
S'name'
p5641
g5465
sS'drel'
p5642
S'ccof:CCP'
p5643
ssbsba(issf_api
Chunk
p5644
(dp5645
g4953
g2022
sg30
I13
sg5040
g2027
sg31
I2
sg4944
(lp5646
I101
asg36
(issf_api
FeatureSet
p5647
(dp5648
g12
(dp5649
S'name'
p5650
g5458
sS'drel'
p5651
S'rsym:VGF'
p5652
ssbsbasba(issf_api
Sentence
p5653
(dp5654
g4942
(lp5655
sg31
I3
sg4944
(lp5656
I102
aI103
aI104
aI105
aI106
aI107
aI108
aI109
aI110
aI111
aI112
aI113
aI114
aI115
aI116
aI117
aI118
aI119
aI120
aI121
asg4946
(dp5657
S'NP6'
p5658
(issf_api
Node
p5659
(dp5660
g4951
S'pof'
p5661
sg4953
g5658
sg4954
S'VGF'
p5662
sg4956
I-1
sg30
I8
sg4957
(lp5663
sbsS'VGNN'
p5664
(issf_api
Node
p5665
(dp5666
g4951
S'nmod'
p5667
sg4953
g5664
sg4954
S'NP2'
p5668
sg4956
I-1
sg30
I1
sg4957
(lp5669
S'NP'
p5670
asbsS'VGF'
p5671
(issf_api
Node
p5672
(dp5673
g4951
g4964
sg4953
g5671
sg4954
g4964
sg4956
I-1
sg30
I9
sg4957
(lp5674
g5658
aS'NP5'
p5675
aS'BLK'
p5676
aS'NP4'
p5677
aS'RBP'
p5678
aS'NP3'
p5679
asbsS'JJP'
p5680
(issf_api
Node
p5681
(dp5682
g4951
S'nmod'
p5683
sg4953
g5680
sg4954
S'NP3'
p5684
sg4956
I-1
sg30
I3
sg4957
(lp5685
S'NP2'
p5686
asbsg5675
(issf_api
Node
p5687
(dp5688
g4951
S'k2'
p5689
sg4953
g5675
sg4954
S'VGF'
p5690
sg4956
I-1
sg30
I6
sg4957
(lp5691
sbsg5676
(issf_api
Node
p5692
(dp5693
g4951
S'rsym'
p5694
sg4953
g5676
sg4954
S'VGF'
p5695
sg4956
I-1
sg30
I10
sg4957
(lp5696
sbsg5670
(issf_api
Node
p5697
(dp5698
g4951
S'k5'
p5699
sg4953
g5670
sg4954
S'VGNN'
p5700
sg4956
I-1
sg30
I0
sg4957
(lp5701
sbsg5677
(issf_api
Node
p5702
(dp5703
g4951
S'k1'
p5704
sg4953
g5677
sg4954
S'VGF'
p5705
sg4956
I-1
sg30
I5
sg4957
(lp5706
sbsg5678
(issf_api
Node
p5707
(dp5708
g4951
S'adv'
p5709
sg4953
g5678
sg4954
S'VGF'
p5710
sg4956
I-1
sg30
I7
sg4957
(lp5711
sbsg5679
(issf_api
Node
p5712
(dp5713
g4951
S'rt'
p5714
sg4953
g5679
sg4954
S'VGF'
p5715
sg4956
I-1
sg30
I4
sg4957
(lp5716
g5680
asbsg5686
(issf_api
Node
p5717
(dp5718
g4951
S'jjmod'
p5719
sg4953
g5686
sg4954
S'JJP'
p5720
sg4956
I-1
sg30
I2
sg4957
(lp5721
g5664
asbssg5036
(lp5722
(issf_api
Chunk
p5723
(dp5724
g4953
g2043
sg30
I0
sg5040
g2054
sg31
I3
sg4944
(lp5725
I102
aI103
asg36
(issf_api
FeatureSet
p5726
(dp5727
g12
(dp5728
S'name'
p5729
g5670
sS'drel'
p5730
S'k5:VGNN'
p5731
ssbsba(issf_api
Chunk
p5732
(dp5733
g4953
g2085
sg30
I1
sg5040
g2092
sg31
I3
sg4944
(lp5734
I104
aI105
asg36
(issf_api
FeatureSet
p5735
(dp5736
g12
(dp5737
S'name'
p5738
g5664
sS'drel'
p5739
S'nmod:NP2'
p5740
ssbsba(issf_api
Chunk
p5741
(dp5742
g4953
g2140
sg30
I2
sg5040
g2145
sg31
I3
sg4944
(lp5743
I106
aI107
asg36
(issf_api
FeatureSet
p5744
(dp5745
g12
(dp5746
S'name'
p5747
g5686
sS'drel'
p5748
S'jjmod:JJP'
p5749
ssbsba(issf_api
Chunk
p5750
(dp5751
g4953
g2159
sg30
I3
sg5040
g2164
sg31
I3
sg4944
(lp5752
I108
asg36
(issf_api
FeatureSet
p5753
(dp5754
g12
(dp5755
S'name'
p5756
g5680
sS'drel'
p5757
S'nmod:NP3'
p5758
ssbsba(issf_api
Chunk
p5759
(dp5760
g4953
g2195
sg30
I4
sg5040
g2202
sg31
I3
sg4944
(lp5761
I109
aI110
aI111
aI112
asg36
(issf_api
FeatureSet
p5762
(dp5763
g12
(dp5764
S'name'
p5765
g5679
sS'drel'
p5766
S'rt:VGF'
p5767
ssbsba(issf_api
Chunk
p5768
(dp5769
g4953
g2252
sg30
I5
sg5040
g2261
sg31
I3
sg4944
(lp5770
I113
asg36
(issf_api
FeatureSet
p5771
(dp5772
g12
(dp5773
S'name'
p5774
g5677
sS'drel'
p5775
S'k1:VGF'
p5776
ssbsba(issf_api
Chunk
p5777
(dp5778
g4953
g2298
sg30
I6
sg5040
g2305
sg31
I3
sg4944
(lp5779
I114
aI115
aI116
asg36
(issf_api
FeatureSet
p5780
(dp5781
g12
(dp5782
S'name'
p5783
g5675
sS'drel'
p5784
S'k2:VGF'
p5785
ssbsba(issf_api
Chunk
p5786
(dp5787
g4953
g2336
sg30
I7
sg5040
g2341
sg31
I3
sg4944
(lp5788
I117
aI118
asg36
(issf_api
FeatureSet
p5789
(dp5790
g12
(dp5791
S'name'
p5792
g5678
sS'drel'
p5793
S'adv:VGF'
p5794
ssbsba(issf_api
Chunk
p5795
(dp5796
g4953
g2372
sg30
I8
sg5040
g2377
sg31
I3
sg4944
(lp5797
I119
asg36
(issf_api
FeatureSet
p5798
(dp5799
g12
(dp5800
S'name'
p5801
g5658
sS'drel'
p5802
S'pof:VGF'
p5803
ssbsba(issf_api
Chunk
p5804
(dp5805
g4953
g2391
sg30
I9
sg5040
g2398
sg31
I3
sg4944
(lp5806
I120
asg36
(issf_api
FeatureSet
p5807
(dp5808
g12
(dp5809
S'name'
p5810
g5671
ssbsba(issf_api
Chunk
p5811
(dp5812
g4953
g2412
sg30
I10
sg5040
g2417
sg31
I3
sg4944
(lp5813
I121
asg36
(issf_api
FeatureSet
p5814
(dp5815
g12
(dp5816
S'name'
p5817
g5676
sS'drel'
p5818
S'rsym:VGF'
p5819
ssbsbasba(issf_api
Sentence
p5820
(dp5821
g4942
(lp5822
sg31
I4
sg4944
(lp5823
I122
aI123
aI124
aI125
aI126
aI127
aI128
aI129
aI130
aI131
aI132
aI133
aI134
aI135
aI136
aI137
aI138
aI139
aI140
aI141
aI142
aI143
asg4946
(dp5824
S'VGNN'
p5825
(issf_api
Node
p5826
(dp5827
g4951
S'r6'
p5828
sg4953
g5825
sg4954
S'NP8'
p5829
sg4956
I-1
sg30
I7
sg4957
(lp5830
S'NP5'
p5831
aS'NP4'
p5832
aS'NP6'
p5833
asbsS'VGF'
p5834
(issf_api
Node
p5835
(dp5836
g4951
g4964
sg4953
g5834
sg4954
g4964
sg4956
I-1
sg30
I9
sg4957
(lp5837
S'NP8'
p5838
aS'BLK'
p5839
aS'NP7'
p5840
aS'NP3'
p5841
aS'NP2'
p5842
asbsg5831
(issf_api
Node
p5843
(dp5844
g4951
S'k5'
p5845
sg4953
g5831
sg4954
S'VGNN'
p5846
sg4956
I-1
sg30
I4
sg4957
(lp5847
sbsg5838
(issf_api
Node
p5848
(dp5849
g4951
S'k2'
p5850
sg4953
g5838
sg4954
S'VGF'
p5851
sg4956
I-1
sg30
I8
sg4957
(lp5852
g5825
asbsg5839
(issf_api
Node
p5853
(dp5854
g4951
S'rsym'
p5855
sg4953
g5839
sg4954
S'VGF'
p5856
sg4956
I-1
sg30
I10
sg4957
(lp5857
sbsS'NP'
p5858
(issf_api
Node
p5859
(dp5860
g4951
S'nmod'
p5861
sg4953
g5858
sg4954
S'NP2'
p5862
sg4956
I-1
sg30
I0
sg4957
(lp5863
sbsg5832
(issf_api
Node
p5864
(dp5865
g4951
S'k2'
p5866
sg4953
g5832
sg4954
S'VGNN'
p5867
sg4956
I-1
sg30
I3
sg4957
(lp5868
sbsg5840
(issf_api
Node
p5869
(dp5870
g4951
S'k7'
p5871
sg4953
g5840
sg4954
S'VGF'
p5872
sg4956
I-1
sg30
I6
sg4957
(lp5873
sbsg5833
(issf_api
Node
p5874
(dp5875
g4951
S'k7'
p5876
sg4953
g5833
sg4954
S'VGNN'
p5877
sg4956
I-1
sg30
I5
sg4957
(lp5878
sbsg5841
(issf_api
Node
p5879
(dp5880
g4951
S'k7t'
p5881
sg4953
g5841
sg4954
S'VGF'
p5882
sg4956
I-1
sg30
I2
sg4957
(lp5883
sbsg5842
(issf_api
Node
p5884
(dp5885
g4951
S'k1'
p5886
sg4953
g5842
sg4954
S'VGF'
p5887
sg4956
I-1
sg30
I1
sg4957
(lp5888
g5858
asbssg5036
(lp5889
(issf_api
Chunk
p5890
(dp5891
g4953
g2452
sg30
I0
sg5040
g2459
sg31
I4
sg4944
(lp5892
I122
aI123
asg36
(issf_api
FeatureSet
p5893
(dp5894
g12
(dp5895
S'name'
p5896
g5858
sS'drel'
p5897
S'nmod:NP2'
p5898
ssbsba(issf_api
Chunk
p5899
(dp5900
g4953
g2494
sg30
I1
sg5040
g2507
sg31
I4
sg4944
(lp5901
I124
aI125
aI126
asg36
(issf_api
FeatureSet
p5902
(dp5903
g12
(dp5904
S'name'
p5905
g5842
sS'drel'
p5906
S'k1:VGF'
p5907
ssbsba(issf_api
Chunk
p5908
(dp5909
g4953
g2538
sg30
I2
sg5040
g2543
sg31
I4
sg4944
(lp5910
I127
asg36
(issf_api
FeatureSet
p5911
(dp5912
g12
(dp5913
S'name'
p5914
g5841
sS'drel'
p5915
S'k7t:VGF'
p5916
ssbsba(issf_api
Chunk
p5917
(dp5918
g4953
g2559
sg30
I3
sg5040
g2570
sg31
I4
sg4944
(lp5919
I128
aI129
asg36
(issf_api
FeatureSet
p5920
(dp5921
g12
(dp5922
S'name'
p5923
g5832
sS'drel'
p5924
S'k2:VGNN'
p5925
ssbsba(issf_api
Chunk
p5926
(dp5927
g4953
g2601
sg30
I4
sg5040
g2608
sg31
I4
sg4944
(lp5928
I130
aI131
asg36
(issf_api
FeatureSet
p5929
(dp5930
g12
(dp5931
S'name'
p5932
g5831
sS'drel'
p5933
S'k5:VGNN'
p5934
ssbsba(issf_api
Chunk
p5935
(dp5936
g4953
g2639
sg30
I5
sg5040
g2646
sg31
I4
sg4944
(lp5937
I132
aI133
aI134
asg36
(issf_api
FeatureSet
p5938
(dp5939
g12
(dp5940
S'name'
p5941
g5833
sS'drel'
p5942
S'k7:VGNN'
p5943
ssbsba(issf_api
Chunk
p5944
(dp5945
g4953
g2719
sg30
I6
sg5040
g2726
sg31
I4
sg4944
(lp5946
I135
aI136
aI137
asg36
(issf_api
FeatureSet
p5947
(dp5948
g12
(dp5949
S'name'
p5950
g5840
sS'drel'
p5951
S'k7:VGF'
p5952
ssbsba(issf_api
Chunk
p5953
(dp5954
g4953
g2757
sg30
I7
sg5040
g2764
sg31
I4
sg4944
(lp5955
I138
aI139
asg36
(issf_api
FeatureSet
p5956
(dp5957
g12
(dp5958
S'name'
p5959
g5825
sS'drel'
p5960
S'r6:NP8'
p5961
ssbsba(issf_api
Chunk
p5962
(dp5963
g4953
g2795
sg30
I8
sg5040
g2800
sg31
I4
sg4944
(lp5964
I140
asg36
(issf_api
FeatureSet
p5965
(dp5966
g12
(dp5967
S'name'
p5968
g5838
sS'drel'
p5969
S'k2:VGF'
p5970
ssbsba(issf_api
Chunk
p5971
(dp5972
g4953
g2814
sg30
I9
sg5040
g2823
sg31
I4
sg4944
(lp5973
I141
aI142
asg36
(issf_api
FeatureSet
p5974
(dp5975
g12
(dp5976
S'name'
p5977
g5834
ssbsba(issf_api
Chunk
p5978
(dp5979
g4953
g2854
sg30
I10
sg5040
g2859
sg31
I4
sg4944
(lp5980
I143
asg36
(issf_api
FeatureSet
p5981
(dp5982
g12
(dp5983
S'name'
p5984
g5839
sS'drel'
p5985
S'rsym:VGF'
p5986
ssbsbasba(issf_api
Sentence
p5987
(dp5988
g4942
(lp5989
sg31
I5
sg4944
(lp5990
I144
aI145
aI146
aI147
aI148
aI149
aI150
aI151
aI152
aI153
aI154
aI155
aI156
aI157
aI158
aI159
aI160
aI161
aI162
aI163
aI164
asg4946
(dp5991
S'VGNN'
p5992
(issf_api
Node
p5993
(dp5994
g4951
S'rh'
p5995
sg4953
g5992
sg4954
S'VGF'
p5996
sg4956
I-1
sg30
I4
sg4957
(lp5997
S'NP3'
p5998
asbsS'VGF'
p5999
(issf_api
Node
p6000
(dp6001
g4951
S'ccof'
p6002
sg4953
g5999
sg4954
S'CCP'
p6003
sg4956
I-1
sg30
I8
sg4957
(lp6004
g5992
aS'NP'
p6005
aS'NP4'
p6006
aS'NP6'
p6007
aS'NP2'
p6008
asbsS'CCP'
p6009
(issf_api
Node
p6010
(dp6011
g4951
g4964
sg4953
g6009
sg4954
g4964
sg4956
I-1
sg30
I0
sg4957
(lp6012
g5999
aS'BLK'
p6013
asbsS'NP5'
p6014
(issf_api
Node
p6015
(dp6016
g4951
S'r6-k2'
p6017
sg4953
g6014
sg4954
S'NP6'
p6018
sg4956
I-1
sg30
I6
sg4957
(lp6019
sbsg6013
(issf_api
Node
p6020
(dp6021
g4951
S'rsym'
p6022
sg4953
g6013
sg4954
S'CCP'
p6023
sg4956
I-1
sg30
I9
sg4957
(lp6024
sbsg6005
(issf_api
Node
p6025
(dp6026
g4951
S'k1'
p6027
sg4953
g6005
sg4954
S'VGF'
p6028
sg4956
I-1
sg30
I1
sg4957
(lp6029
sbsg6006
(issf_api
Node
p6030
(dp6031
g4951
S'k7p'
p6032
sg4953
g6006
sg4954
S'VGF'
p6033
sg4956
I-1
sg30
I5
sg4957
(lp6034
sbsg6007
(issf_api
Node
p6035
(dp6036
g4951
S'pof'
p6037
sg4953
g6007
sg4954
S'VGF'
p6038
sg4956
I-1
sg30
I7
sg4957
(lp6039
g6014
asbsg5998
(issf_api
Node
p6040
(dp6041
g4951
S'k1'
p6042
sg4953
g5998
sg4954
S'VGNN'
p6043
sg4956
I-1
sg30
I3
sg4957
(lp6044
sbsg6008
(issf_api
Node
p6045
(dp6046
g4951
S'k7p'
p6047
sg4953
g6008
sg4954
S'VGF'
p6048
sg4956
I-1
sg30
I2
sg4957
(lp6049
sbssg5036
(lp6050
(issf_api
Chunk
p6051
(dp6052
g4953
g2869
sg30
I0
sg5040
g2876
sg31
I5
sg4944
(lp6053
I144
aI145
asg36
(issf_api
FeatureSet
p6054
(dp6055
g12
(dp6056
S'name'
p6057
g6009
ssbsba(issf_api
Chunk
p6058
(dp6059
g4953
g2908
sg30
I1
sg5040
g2919
sg31
I5
sg4944
(lp6060
I146
aI147
asg36
(issf_api
FeatureSet
p6061
(dp6062
g12
(dp6063
S'name'
p6064
g6005
sS'drel'
p6065
S'k1:VGF'
p6066
ssbsba(issf_api
Chunk
p6067
(dp6068
g4953
g2967
sg30
I2
sg5040
g2974
sg31
I5
sg4944
(lp6069
I148
aI149
aI150
asg36
(issf_api
FeatureSet
p6070
(dp6071
g12
(dp6072
S'name'
p6073
g6008
sS'drel'
p6074
S'k7p:VGF'
p6075
ssbsba(issf_api
Chunk
p6076
(dp6077
g4953
g3022
sg30
I3
sg5040
g3027
sg31
I5
sg4944
(lp6078
I151
aI152
asg36
(issf_api
FeatureSet
p6079
(dp6080
g12
(dp6081
S'name'
p6082
g5998
sS'drel'
p6083
S'k1:VGNN'
p6084
ssbsba(issf_api
Chunk
p6085
(dp6086
g4953
g3041
sg30
I4
sg5040
g3048
sg31
I5
sg4944
(lp6087
I153
aI154
aI155
asg36
(issf_api
FeatureSet
p6088
(dp6089
g12
(dp6090
S'name'
p6091
g5992
sS'drel'
p6092
S'rh:VGF'
p6093
ssbsba(issf_api
Chunk
p6094
(dp6095
g4953
g3098
sg30
I5
sg5040
g3109
sg31
I5
sg4944
(lp6096
I156
aI157
asg36
(issf_api
FeatureSet
p6097
(dp6098
g12
(dp6099
S'name'
p6100
g6006
sS'drel'
p6101
S'k7p:VGF'
p6102
ssbsba(issf_api
Chunk
p6103
(dp6104
g4953
g3157
sg30
I6
sg5040
g3164
sg31
I5
sg4944
(lp6105
I158
aI159
aI160
asg36
(issf_api
FeatureSet
p6106
(dp6107
g12
(dp6108
S'name'
p6109
g6014
sS'drel'
p6110
S'r6-k2:NP6'
p6111
ssbsba(issf_api
Chunk
p6112
(dp6113
g4953
g3195
sg30
I7
sg5040
g3200
sg31
I5
sg4944
(lp6114
I161
asg36
(issf_api
FeatureSet
p6115
(dp6116
g12
(dp6117
S'name'
p6118
g6007
sS'drel'
p6119
S'pof:VGF'
p6120
ssbsba(issf_api
Chunk
p6121
(dp6122
g4953
g3214
sg30
I8
sg5040
g3225
sg31
I5
sg4944
(lp6123
I162
aI163
asg36
(issf_api
FeatureSet
p6124
(dp6125
g12
(dp6126
S'name'
p6127
g5999
sS'drel'
p6128
S'ccof:CCP'
p6129
ssbsba(issf_api
Chunk
p6130
(dp6131
g4953
g3256
sg30
I9
sg5040
g3261
sg31
I5
sg4944
(lp6132
I164
asg36
(issf_api
FeatureSet
p6133
(dp6134
g12
(dp6135
S'name'
p6136
g6013
sS'drel'
p6137
S'rsym:CCP'
p6138
ssbsbasba(issf_api
Sentence
p6139
(dp6140
g4942
(lp6141
sg31
I6
sg4944
(lp6142
I165
aI166
aI167
aI168
aI169
aI170
aI171
aI172
aI173
aI174
aI175
aI176
aI177
aI178
aI179
aI180
aI181
aI182
aI183
aI184
aI185
aI186
aI187
aI188
aI189
asg4946
(dp6143
S'VGF2'
p6144
(issf_api
Node
p6145
(dp6146
g4951
S'ccof'
p6147
sg4953
g6144
sg4954
S'CCP'
p6148
sg4956
I-1
sg30
I13
sg4957
(lp6149
S'JJP2'
p6150
aS'NP8'
p6151
aS'NP6'
p6152
asbsS'VGNN'
p6153
(issf_api
Node
p6154
(dp6155
g4951
S'r6'
p6156
sg4953
g6153
sg4954
S'NP8'
p6157
sg4956
I-1
sg30
I10
sg4957
(lp6158
S'NP5'
p6159
aS'NP7'
p6160
aS'NP3'
p6161
asbsS'VGF'
p6162
(issf_api
Node
p6163
(dp6164
g4951
g4964
sg4953
g6162
sg4954
g4964
sg4956
I-1
sg30
I1
sg4957
(lp6165
S'CCP'
p6166
aS'BLK'
p6167
aS'NP'
p6168
asbsg6166
(issf_api
Node
p6169
(dp6170
g4951
S'k2'
p6171
sg4953
g6166
sg4954
S'VGF'
p6172
sg4956
I-1
sg30
I2
sg4957
(lp6173
g6144
asbsS'JJP'
p6174
(issf_api
Node
p6175
(dp6176
g4951
S'nmod'
p6177
sg4953
g6174
sg4954
S'NP3'
p6178
sg4956
I-1
sg30
I4
sg4957
(lp6179
S'NP2'
p6180
asbsg6159
(issf_api
Node
p6181
(dp6182
g4951
S'k2'
p6183
sg4953
g6159
sg4954
S'VGNN'
p6184
sg4956
I-1
sg30
I7
sg4957
(lp6185
sbsg6150
(issf_api
Node
p6186
(dp6187
g4951
S'pof'
p6188
sg4953
g6150
sg4954
S'VGF2'
p6189
sg4956
I-1
sg30
I12
sg4957
(lp6190
sbsg6151
(issf_api
Node
p6191
(dp6192
g4951
S'k2'
p6193
sg4953
g6151
sg4954
S'VGF2'
p6194
sg4956
I-1
sg30
I11
sg4957
(lp6195
g6153
aS'NP4'
p6196
asbsg6167
(issf_api
Node
p6197
(dp6198
g4951
S'rsym'
p6199
sg4953
g6167
sg4954
S'VGF'
p6200
sg4956
I-1
sg30
I14
sg4957
(lp6201
sbsg6168
(issf_api
Node
p6202
(dp6203
g4951
S'k1'
p6204
sg4953
g6168
sg4954
S'VGF'
p6205
sg4956
I-1
sg30
I0
sg4957
(lp6206
sbsg6196
(issf_api
Node
p6207
(dp6208
g4951
S'r6'
p6209
sg4953
g6196
sg4954
S'NP8'
p6210
sg4956
I-1
sg30
I6
sg4957
(lp6211
sbsg6160
(issf_api
Node
p6212
(dp6213
g4951
S'pof'
p6214
sg4953
g6160
sg4954
S'VGNN'
p6215
sg4956
I-1
sg30
I9
sg4957
(lp6216
sbsg6152
(issf_api
Node
p6217
(dp6218
g4951
S'k7t'
p6219
sg4953
g6152
sg4954
S'VGF2'
p6220
sg4956
I-1
sg30
I8
sg4957
(lp6221
sbsg6161
(issf_api
Node
p6222
(dp6223
g4951
S'k3'
p6224
sg4953
g6161
sg4954
S'VGNN'
p6225
sg4956
I-1
sg30
I5
sg4957
(lp6226
g6174
asbsg6180
(issf_api
Node
p6227
(dp6228
g4951
S'jjmod'
p6229
sg4953
g6180
sg4954
S'JJP'
p6230
sg4956
I-1
sg30
I3
sg4957
(lp6231
sbssg5036
(lp6232
(issf_api
Chunk
p6233
(dp6234
g4953
g3277
sg30
I0
sg5040
g3288
sg31
I6
sg4944
(lp6235
I165
aI166
asg36
(issf_api
FeatureSet
p6236
(dp6237
g12
(dp6238
S'name'
p6239
g6168
sS'drel'
p6240
S'k1:VGF'
p6241
ssbsba(issf_api
Chunk
p6242
(dp6243
g4953
g3319
sg30
I1
sg5040
g3326
sg31
I6
sg4944
(lp6244
I167
asg36
(issf_api
FeatureSet
p6245
(dp6246
g12
(dp6247
S'name'
p6248
g6162
ssbsba(issf_api
Chunk
p6249
(dp6250
g4953
g3340
sg30
I2
sg5040
g3345
sg31
I6
sg4944
(lp6251
I168
asg36
(issf_api
FeatureSet
p6252
(dp6253
g12
(dp6254
S'name'
p6255
g6166
sS'drel'
p6256
S'k2:VGF'
p6257
ssbsba(issf_api
Chunk
p6258
(dp6259
g4953
g3378
sg30
I3
sg5040
g3385
sg31
I6
sg4944
(lp6260
I169
aI170
asg36
(issf_api
FeatureSet
p6261
(dp6262
g12
(dp6263
S'name'
p6264
g6180
sS'drel'
p6265
S'jjmod:JJP'
p6266
ssbsba(issf_api
Chunk
p6267
(dp6268
g4953
g3399
sg30
I4
sg5040
g3406
sg31
I6
sg4944
(lp6269
I171
asg36
(issf_api
FeatureSet
p6270
(dp6271
g12
(dp6272
S'name'
p6273
g6174
sS'drel'
p6274
S'nmod:NP3'
p6275
ssbsba(issf_api
Chunk
p6276
(dp6277
g4953
g3422
sg30
I5
sg5040
g3433
sg31
I6
sg4944
(lp6278
I172
aI173
aI174
asg36
(issf_api
FeatureSet
p6279
(dp6280
g12
(dp6281
S'name'
p6282
g6161
sS'drel'
p6283
S'k3:VGNN'
p6284
ssbsba(issf_api
Chunk
p6285
(dp6286
g4953
g3485
sg30
I6
sg5040
g3498
sg31
I6
sg4944
(lp6287
I175
aI176
asg36
(issf_api
FeatureSet
p6288
(dp6289
g12
(dp6290
S'name'
p6291
g6196
sS'drel'
p6292
S'r6:NP8'
p6293
ssbsba(issf_api
Chunk
p6294
(dp6295
g4953
g3531
sg30
I7
sg5040
g3542
sg31
I6
sg4944
(lp6296
I177
asg36
(issf_api
FeatureSet
p6297
(dp6298
g12
(dp6299
S'name'
p6300
g6159
sS'drel'
p6301
S'k2:VGNN'
p6302
ssbsba(issf_api
Chunk
p6303
(dp6304
g4953
g3573
sg30
I8
sg5040
g3580
sg31
I6
sg4944
(lp6305
I178
aI179
aI180
asg36
(issf_api
FeatureSet
p6306
(dp6307
g12
(dp6308
S'name'
p6309
g6152
sS'drel'
p6310
S'k7t:VGF2'
p6311
ssbsba(issf_api
Chunk
p6312
(dp6313
g4953
g3611
sg30
I9
sg5040
g3616
sg31
I6
sg4944
(lp6314
I181
asg36
(issf_api
FeatureSet
p6315
(dp6316
g12
(dp6317
S'name'
p6318
g6160
sS'drel'
p6319
S'pof:VGNN'
p6320
ssbsba(issf_api
Chunk
p6321
(dp6322
g4953
g3630
sg30
I10
sg5040
g3637
sg31
I6
sg4944
(lp6323
I182
aI183
asg36
(issf_api
FeatureSet
p6324
(dp6325
g12
(dp6326
S'name'
p6327
g6153
sS'drel'
p6328
S'r6:NP8'
p6329
ssbsba(issf_api
Chunk
p6330
(dp6331
g4953
g3668
sg30
I11
sg5040
g3673
sg31
I6
sg4944
(lp6332
I184
asg36
(issf_api
FeatureSet
p6333
(dp6334
g12
(dp6335
S'name'
p6336
g6151
sS'drel'
p6337
S'k2:VGF2'
p6338
ssbsba(issf_api
Chunk
p6339
(dp6340
g4953
g3687
sg30
I12
sg5040
g3692
sg31
I6
sg4944
(lp6341
I185
asg36
(issf_api
FeatureSet
p6342
(dp6343
g12
(dp6344
S'name'
p6345
g6150
sS'drel'
p6346
S'pof:VGF2'
p6347
ssbsba(issf_api
Chunk
p6348
(dp6349
g4953
g3706
sg30
I13
sg5040
g3717
sg31
I6
sg4944
(lp6350
I186
aI187
aI188
asg36
(issf_api
FeatureSet
p6351
(dp6352
g12
(dp6353
S'name'
p6354
g6144
sS'drel'
p6355
S'ccof:CCP'
p6356
ssbsba(issf_api
Chunk
p6357
(dp6358
g4953
g3765
sg30
I14
sg5040
g3770
sg31
I6
sg4944
(lp6359
I189
asg36
(issf_api
FeatureSet
p6360
(dp6361
g12
(dp6362
S'name'
p6363
g6167
sS'drel'
p6364
S'rsym:VGF'
p6365
ssbsbasba(issf_api
Sentence
p6366
(dp6367
g4942
(lp6368
sg31
I7
sg4944
(lp6369
I190
aI191
aI192
aI193
aI194
aI195
aI196
aI197
aI198
aI199
aI200
aI201
aI202
aI203
aI204
aI205
aI206
aI207
aI208
aI209
aI210
aI211
aI212
asg4946
(dp6370
S'VGNN'
p6371
(issf_api
Node
p6372
(dp6373
g4951
S'k7t'
p6374
sg4953
g6371
sg4954
S'VGF'
p6375
sg4956
I-1
sg30
I2
sg4957
(lp6376
S'NP'
p6377
aS'NP2'
p6378
asbsS'VGF'
p6379
(issf_api
Node
p6380
(dp6381
g4951
g4964
sg4953
g6379
sg4954
g4964
sg4956
I-1
sg30
I8
sg4957
(lp6382
g6371
aS'NP5'
p6383
aS'BLK'
p6384
aS'NP4'
p6385
asbsg6383
(issf_api
Node
p6386
(dp6387
g4951
S'k7'
p6388
sg4953
g6383
sg4954
S'VGF'
p6389
sg4956
I-1
sg30
I5
sg4957
(lp6390
S'FRAGP'
p6391
aS'NP6'
p6392
asbsg6384
(issf_api
Node
p6393
(dp6394
g4951
S'rsym'
p6395
sg4953
g6384
sg4954
S'VGF'
p6396
sg4956
I-1
sg30
I9
sg4957
(lp6397
sbsg6391
(issf_api
Node
p6398
(dp6399
g4951
S'fragof'
p6400
sg4953
g6391
sg4954
S'NP5'
p6401
sg4956
I-1
sg30
I7
sg4957
(lp6402
sbsg6377
(issf_api
Node
p6403
(dp6404
g4951
S'k4'
p6405
sg4953
g6377
sg4954
S'VGNN'
p6406
sg4956
I-1
sg30
I0
sg4957
(lp6407
sbsg6385
(issf_api
Node
p6408
(dp6409
g4951
S'k1'
p6410
sg4953
g6385
sg4954
S'VGF'
p6411
sg4956
I-1
sg30
I4
sg4957
(lp6412
S'NP3'
p6413
asbsg6392
(issf_api
Node
p6414
(dp6415
g4951
S'nmod'
p6416
sg4953
g6392
sg4954
S'NP5'
p6417
sg4956
I-1
sg30
I6
sg4957
(lp6418
sbsg6413
(issf_api
Node
p6419
(dp6420
g4951
S'r6'
p6421
sg4953
g6413
sg4954
S'NP4'
p6422
sg4956
I-1
sg30
I3
sg4957
(lp6423
sbsg6378
(issf_api
Node
p6424
(dp6425
g4951
S'pof'
p6426
sg4953
g6378
sg4954
S'VGNN'
p6427
sg4956
I-1
sg30
I1
sg4957
(lp6428
sbssg5036
(lp6429
(issf_api
Chunk
p6430
(dp6431
g4953
g3786
sg30
I0
sg5040
g3797
sg31
I7
sg4944
(lp6432
I190
aI191
asg36
(issf_api
FeatureSet
p6433
(dp6434
g12
(dp6435
S'name'
p6436
g6377
sS'drel'
p6437
S'k4:VGNN'
p6438
ssbsba(issf_api
Chunk
p6439
(dp6440
g4953
g3830
sg30
I1
sg5040
g3839
sg31
I7
sg4944
(lp6441
I192
asg36
(issf_api
FeatureSet
p6442
(dp6443
g12
(dp6444
S'name'
p6445
g6378
sS'drel'
p6446
S'pof:VGNN'
p6447
ssbsba(issf_api
Chunk
p6448
(dp6449
g4953
g3853
sg30
I2
sg5040
g3860
sg31
I7
sg4944
(lp6450
I193
aI194
aI195
aI196
asg36
(issf_api
FeatureSet
p6451
(dp6452
g12
(dp6453
S'name'
p6454
g6371
sS'drel'
p6455
S'k7t:VGF'
p6456
ssbsba(issf_api
Chunk
p6457
(dp6458
g4953
g3927
sg30
I3
sg5040
g3938
sg31
I7
sg4944
(lp6459
I197
aI198
asg36
(issf_api
FeatureSet
p6460
(dp6461
g12
(dp6462
S'name'
p6463
g6413
sS'drel'
p6464
S'r6:NP4'
p6465
ssbsba(issf_api
Chunk
p6466
(dp6467
g4953
g3969
sg30
I4
sg5040
g3974
sg31
I7
sg4944
(lp6468
I199
asg36
(issf_api
FeatureSet
p6469
(dp6470
g12
(dp6471
S'name'
p6472
g6385
sS'drel'
p6473
S'k1:VGF'
p6474
ssbsba(issf_api
Chunk
p6475
(dp6476
g4953
g4070
sg30
I5
sg5040
g4079
sg31
I7
sg4944
(lp6477
I200
aI201
aI202
aI203
aI204
asg36
(issf_api
FeatureSet
p6478
(dp6479
g12
(dp6480
S'name'
p6481
g6383
sS'drel'
p6482
S'k7:VGF'
p6483
ssbsba(issf_api
Chunk
p6484
(dp6485
g4953
g4112
sg30
I6
sg5040
g4121
sg31
I7
sg4944
(lp6486
I205
aI206
aI207
asg36
(issf_api
FeatureSet
p6487
(dp6488
g12
(dp6489
S'name'
p6490
g6392
sS'drel'
p6491
S'nmod:NP5'
p6492
ssbsba(issf_api
Chunk
p6493
(dp6494
g4953
g4186
sg30
I7
sg5040
g4187
sg31
I7
sg4944
(lp6495
I208
aI209
aI210
asg36
(issf_api
FeatureSet
p6496
(dp6497
g12
(dp6498
S'name'
p6499
g6391
sS'drel'
p6500
S'fragof:NP5'
p6501
ssbsba(issf_api
Chunk
p6502
(dp6503
g4953
g4201
sg30
I8
sg5040
g4208
sg31
I7
sg4944
(lp6504
I211
asg36
(issf_api
FeatureSet
p6505
(dp6506
g12
(dp6507
S'name'
p6508
g6379
ssbsba(issf_api
Chunk
p6509
(dp6510
g4953
g4222
sg30
I9
sg5040
g4227
sg31
I7
sg4944
(lp6511
I212
asg36
(issf_api
FeatureSet
p6512
(dp6513
g12
(dp6514
S'name'
p6515
g6384
sS'drel'
p6516
S'rsym:VGF'
p6517
ssbsbasba(issf_api
Sentence
p6518
(dp6519
g4942
(lp6520
sg31
I8
sg4944
(lp6521
I213
aI214
aI215
aI216
aI217
aI218
aI219
aI220
aI221
aI222
aI223
aI224
aI225
aI226
aI227
aI228
aI229
aI230
aI231
aI232
aI233
aI234
aI235
aI236
aI237
aI238
aI239
aI240
aI241
aI242
aI243
aI244
aI245
aI246
aI247
aI248
asg4946
(dp6522
S'NP11'
p6523
(issf_api
Node
p6524
(dp6525
g4951
S'k7t'
p6526
sg4953
g6523
sg4954
S'VGF'
p6527
sg4956
I-1
sg30
I13
sg4957
(lp6528
S'NP10'
p6529
asbsS'VGNN'
p6530
(issf_api
Node
p6531
(dp6532
g4951
S'nmod'
p6533
sg4953
g6530
sg4954
S'NP7'
p6534
sg4956
I-1
sg30
I6
sg4957
(lp6535
S'NP6'
p6536
asbsS'NP13'
p6537
(issf_api
Node
p6538
(dp6539
g4951
S'pof'
p6540
sg4953
g6537
sg4954
S'VGF'
p6541
sg4956
I-1
sg30
I15
sg4957
(lp6542
S'NP12'
p6543
asbsg6543
(issf_api
Node
p6544
(dp6545
g4951
S'r6-k2'
p6546
sg4953
g6543
sg4954
S'NP13'
p6547
sg4956
I-1
sg30
I14
sg4957
(lp6548
sbsS'JJP'
p6549
(issf_api
Node
p6550
(dp6551
g4951
S'pof'
p6552
sg4953
g6549
sg4954
S'VGNN2'
p6553
sg4956
I-1
sg30
I10
sg4957
(lp6554
sbsS'VGNN2'
p6555
(issf_api
Node
p6556
(dp6557
g4951
S'rt'
p6558
sg4953
g6555
sg4954
S'VGF'
p6559
sg4956
I-1
sg30
I11
sg4957
(lp6560
g6549
aS'NP9'
p6561
asbsS'NP5'
p6562
(issf_api
Node
p6563
(dp6564
g4951
S'k7'
p6565
sg4953
g6562
sg4954
S'VGF'
p6566
sg4956
I-1
sg30
I4
sg4957
(lp6567
S'NP4'
p6568
asbsg6561
(issf_api
Node
p6569
(dp6570
g4951
S'k2'
p6571
sg4953
g6561
sg4954
S'VGNN2'
p6572
sg4956
I-1
sg30
I9
sg4957
(lp6573
S'NP8'
p6574
asbsg6574
(issf_api
Node
p6575
(dp6576
g4951
S'r6'
p6577
sg4953
g6574
sg4954
S'NP9'
p6578
sg4956
I-1
sg30
I8
sg4957
(lp6579
sbsS'BLK'
p6580
(issf_api
Node
p6581
(dp6582
g4951
S'rsym'
p6583
sg4953
g6580
sg4954
S'VGF'
p6584
sg4956
I-1
sg30
I17
sg4957
(lp6585
sbsg6529
(issf_api
Node
p6586
(dp6587
g4951
S'r6'
p6588
sg4953
g6529
sg4954
S'NP11'
p6589
sg4956
I-1
sg30
I12
sg4957
(lp6590
sbsS'NP'
p6591
(issf_api
Node
p6592
(dp6593
g4951
S'k1'
p6594
sg4953
g6591
sg4954
S'VGF'
p6595
sg4956
I-1
sg30
I0
sg4957
(lp6596
sbsg6568
(issf_api
Node
p6597
(dp6598
g4951
S'r6'
p6599
sg4953
g6568
sg4954
S'NP5'
p6600
sg4956
I-1
sg30
I3
sg4957
(lp6601
sbsS'NP7'
p6602
(issf_api
Node
p6603
(dp6604
g4951
S'ras-k1'
p6605
sg4953
g6602
sg4954
S'VGF'
p6606
sg4956
I-1
sg30
I7
sg4957
(lp6607
g6530
asbsg6536
(issf_api
Node
p6608
(dp6609
g4951
S'k4'
p6610
sg4953
g6536
sg4954
S'VGNN'
p6611
sg4956
I-1
sg30
I5
sg4957
(lp6612
sbsS'VGF'
p6613
(issf_api
Node
p6614
(dp6615
g4951
g4964
sg4953
g6613
sg4954
g4964
sg4956
I-1
sg30
I16
sg4957
(lp6616
g6523
ag6537
ag6555
ag6562
ag6580
ag6591
ag6602
aS'NP3'
p6617
asbsg6617
(issf_api
Node
p6618
(dp6619
g4951
S'rt'
p6620
sg4953
g6617
sg4954
S'VGF'
p6621
sg4956
I-1
sg30
I2
sg4957
(lp6622
S'NP2'
p6623
asbsg6623
(issf_api
Node
p6624
(dp6625
g4951
S'r6'
p6626
sg4953
g6623
sg4954
S'NP3'
p6627
sg4956
I-1
sg30
I1
sg4957
(lp6628
sbssg5036
(lp6629
(issf_api
Chunk
p6630
(dp6631
g4953
g4243
sg30
I0
sg5040
g4252
sg31
I8
sg4944
(lp6632
I213
asg36
(issf_api
FeatureSet
p6633
(dp6634
g12
(dp6635
S'name'
p6636
g6591
sS'drel'
p6637
S'k1:VGF'
p6638
ssbsba(issf_api
Chunk
p6639
(dp6640
g4953
g4270
sg30
I1
sg5040
g4283
sg31
I8
sg4944
(lp6641
I214
aI215
asg36
(issf_api
FeatureSet
p6642
(dp6643
g12
(dp6644
S'name'
p6645
g6623
sS'drel'
p6646
S'r6:NP3'
p6647
ssbsba(issf_api
Chunk
p6648
(dp6649
g4953
g4316
sg30
I2
sg5040
g4329
sg31
I8
sg4944
(lp6650
I216
aI217
aI218
asg36
(issf_api
FeatureSet
p6651
(dp6652
g12
(dp6653
S'name'
p6654
g6617
sS'drel'
p6655
S'rt:VGF'
p6656
ssbsba(issf_api
Chunk
p6657
(dp6658
g4953
g4377
sg30
I3
sg5040
g4384
sg31
I8
sg4944
(lp6659
I219
aI220
asg36
(issf_api
FeatureSet
p6660
(dp6661
g12
(dp6662
S'name'
p6663
g6568
sS'drel'
p6664
S'r6:NP5'
p6665
ssbsba(issf_api
Chunk
p6666
(dp6667
g4953
g4415
sg30
I4
sg5040
g4422
sg31
I8
sg4944
(lp6668
I221
aI222
asg36
(issf_api
FeatureSet
p6669
(dp6670
g12
(dp6671
S'name'
p6672
g6562
sS'drel'
p6673
S'k7:VGF'
p6674
ssbsba(issf_api
Chunk
p6675
(dp6676
g4953
g4455
sg30
I5
sg5040
g4466
sg31
I8
sg4944
(lp6677
I223
aI224
asg36
(issf_api
FeatureSet
p6678
(dp6679
g12
(dp6680
S'name'
p6681
g6536
sS'drel'
p6682
S'k4:VGNN'
p6683
ssbsba(issf_api
Chunk
p6684
(dp6685
g4953
g4497
sg30
I6
sg5040
g4504
sg31
I8
sg4944
(lp6686
I225
aI226
aI227
asg36
(issf_api
FeatureSet
p6687
(dp6688
g12
(dp6689
S'name'
p6690
g6530
sS'drel'
p6691
S'nmod:NP7'
p6692
ssbsba(issf_api
Chunk
p6693
(dp6694
g4953
g4569
sg30
I7
sg5040
g4576
sg31
I8
sg4944
(lp6695
I228
aI229
aI230
asg36
(issf_api
FeatureSet
p6696
(dp6697
g12
(dp6698
S'name'
p6699
g6602
sS'drel'
p6700
S'ras-k1:VGF'
p6701
ssbsba(issf_api
Chunk
p6702
(dp6703
g4953
g4624
sg30
I8
sg5040
g4631
sg31
I8
sg4944
(lp6704
I231
aI232
aI233
asg36
(issf_api
FeatureSet
p6705
(dp6706
g12
(dp6707
S'name'
p6708
g6574
sS'drel'
p6709
S'r6:NP9'
p6710
ssbsba(issf_api
Chunk
p6711
(dp6712
g4953
g4662
sg30
I9
sg5040
g4667
sg31
I8
sg4944
(lp6713
I234
asg36
(issf_api
FeatureSet
p6714
(dp6715
g12
(dp6716
S'name'
p6717
g6561
sS'drel'
p6718
S'k2:VGNN2'
p6719
ssbsba(issf_api
Chunk
p6720
(dp6721
g4953
g4681
sg30
I10
sg5040
g4686
sg31
I8
sg4944
(lp6722
I235
asg36
(issf_api
FeatureSet
p6723
(dp6724
g12
(dp6725
S'name'
p6726
g6549
sS'drel'
p6727
S'pof:VGNN2'
p6728
ssbsba(issf_api
Chunk
p6729
(dp6730
g4953
g4700
sg30
I11
sg5040
g4707
sg31
I8
sg4944
(lp6731
I236
aI237
aI238
asg36
(issf_api
FeatureSet
p6732
(dp6733
g12
(dp6734
S'name'
p6735
g6555
sS'drel'
p6736
S'rt:VGF'
p6737
ssbsba(issf_api
Chunk
p6738
(dp6739
g4953
g4755
sg30
I12
sg5040
g4762
sg31
I8
sg4944
(lp6740
I239
aI240
asg36
(issf_api
FeatureSet
p6741
(dp6742
g12
(dp6743
S'name'
p6744
g6529
sS'drel'
p6745
S'r6:NP11'
p6746
ssbsba(issf_api
Chunk
p6747
(dp6748
g4953
g4810
sg30
I13
sg5040
g4817
sg31
I8
sg4944
(lp6749
I241
aI242
aI243
asg36
(issf_api
FeatureSet
p6750
(dp6751
g12
(dp6752
S'name'
p6753
g6523
sS'drel'
p6754
S'k7t:VGF'
p6755
ssbsba(issf_api
Chunk
p6756
(dp6757
g4953
g4850
sg30
I14
sg5040
g4861
sg31
I8
sg4944
(lp6758
I244
aI245
asg36
(issf_api
FeatureSet
p6759
(dp6760
g12
(dp6761
S'name'
p6762
g6543
sS'drel'
p6763
S'r6-k2:NP13'
p6764
ssbsba(issf_api
Chunk
p6765
(dp6766
g4953
g4892
sg30
I15
sg5040
g4897
sg31
I8
sg4944
(lp6767
I246
asg36
(issf_api
FeatureSet
p6768
(dp6769
g12
(dp6770
S'name'
p6771
g6537
sS'drel'
p6772
S'pof:VGF'
p6773
ssbsba(issf_api
Chunk
p6774
(dp6775
g4953
g4911
sg30
I16
sg5040
g4918
sg31
I8
sg4944
(lp6776
I247
asg36
(issf_api
FeatureSet
p6777
(dp6778
g12
(dp6779
S'name'
p6780
g6613
ssbsba(issf_api
Chunk
p6781
(dp6782
g4953
g4932
sg30
I17
sg5040
g4937
sg31
I8
sg4944
(lp6783
I248
asg36
(issf_api
FeatureSet
p6784
(dp6785
g12
(dp6786
S'name'
p6787
g6580
sS'drel'
p6788
S'rsym:VGF'
p6789
ssbsbasbasb.