(issf_api
SSFInfo
p0
(dp1
S'globalWordList'
p2
(lp3
(issf_api
Word
p4
(dp5
S'splitConn'
p6
I00
sS'word'
p7
V\u092a\u0942\u0930\u094d\u0935
p8
sS'extraFeatureSet'
p9
(issf_api
FeatureSet
p10
(dp11
S'featureDict'
p12
(dp13
S'posn'
p14
S'10'
p15
sS'name'
p16
S'\xe0\xa4\xaa\xe0\xa5\x82\xe0\xa4\xb0\xe0\xa5\x8d\xe0\xa4\xb5'
p17
sS'af'
p18
S'\xe0\xa4\xaa\xe0\xa5\x82\xe0\xa4\xb0\xe0\xa5\x8d\xe0\xa4\xb5,adj,any,any,,o,,'
p19
sS'drel'
p20
S'nmod__adj:NP'
p21
sS'chunktype'
p22
S'child:NP'
p23
sS'cref'
p24
S'i1%0:t1'
p25
ssbsS'arg1'
p26
I00
sS'arg2'
p27
I00
sS'sense'
p28
NsS'arg1Span'
p29
NsS'chunkNum'
p30
I0
sS'sentenceNum'
p31
I0
sS'relationNum'
p32
NsS'arg2Span'
p33
NsS'wordTag'
p34
S'JJ'
p35
sS'featureSet'
p36
g10
sS'conn'
p37
I00
sba(issf_api
Word
p38
(dp39
g6
I00
sg7
V\u0935\u093f\u0926\u0947\u0936
p40
sg9
(issf_api
FeatureSet
p41
(dp42
g12
(dp43
S'posn'
p44
S'20'
p45
sS'name'
p46
S'\xe0\xa4\xb5\xe0\xa4\xbf\xe0\xa4\xa6\xe0\xa5\x87\xe0\xa4\xb6'
p47
sS'af'
p48
S'\xe0\xa4\xb5\xe0\xa4\xbf\xe0\xa4\xa6\xe0\xa5\x87\xe0\xa4\xb6,n,m,sg,3,d,0,0'
p49
sS'drel'
p50
S'pof__cn:NP'
p51
sS'chunktype'
p52
S'child:NP'
p53
sS'cref'
p54
S'i1%0:t1'
p55
ssbsg26
I00
sg27
I00
sg28
Nsg29
Nsg30
I0
sg31
I0
sg32
Nsg33
Nsg34
S'NNPC'
p56
sg36
g41
sg37
I00
sba(issf_api
Word
p57
(dp58
g6
I00
sg7
V\u092e\u0902\u0924\u094d\u0930\u0940
p59
sg9
(issf_api
FeatureSet
p60
(dp61
g12
(dp62
S'crefhead'
p63
S'\xe0\xa4\xae\xe0\xa4\x82\xe0\xa4\xa4\xe0\xa5\x8d\xe0\xa4\xb0\xe0\xa5\x80:i1'
p64
sS'posn'
p65
S'30'
p66
sS'name'
p67
S'\xe0\xa4\xae\xe0\xa4\x82\xe0\xa4\xa4\xe0\xa5\x8d\xe0\xa4\xb0\xe0\xa5\x80'
p68
sS'af'
p69
S'\xe0\xa4\xae\xe0\xa4\x82\xe0\xa4\xa4\xe0\xa5\x8d\xe0\xa4\xb0\xe0\xa5\x80,n,m,sg,3,o,0,0'
p70
sS'chunkid'
p71
S'NP'
p72
sS'drel'
p73
S'ccof:CCP'
p74
sS'chunktype'
p75
S'head:NP'
p76
sS'cref'
p77
S'i1%1:t1'
p78
ssbsg26
I00
sg27
I00
sg28
Nsg29
Nsg30
I0
sg31
I0
sg32
Nsg33
Nsg34
S'NNP'
p79
sg36
g60
sg37
I00
sba(issf_api
Word
p80
(dp81
g6
I00
sg7
V\u0914\u0930
p82
sg9
(issf_api
FeatureSet
p83
(dp84
g12
(dp85
S'posn'
p86
S'40'
p87
sS'name'
p88
S'\xe0\xa4\x94\xe0\xa4\xb0'
p89
sS'af'
p90
S'\xe0\xa4\x94\xe0\xa4\xb0,avy,,,,,,'
p91
sS'chunkid'
p92
S'CCP'
p93
sS'drel'
p94
S'nmod:NP4'
p95
sS'chunktype'
p96
S'head:CCP'
p97
ssbsg26
I00
sg27
I00
sg28
Nsg29
Nsg30
I1
sg31
I0
sg32
Nsg33
Nsg34
S'CC'
p98
sg36
g83
sg37
I00
sba(issf_api
Word
p99
(dp100
g6
I00
sg7
V\u092d\u093e\u091c\u092a\u093e
p101
sg9
(issf_api
FeatureSet
p102
(dp103
g12
(dp104
S'crefhead'
p105
S'\xe0\xa4\xad\xe0\xa4\xbe\xe0\xa4\x9c\xe0\xa4\xaa\xe0\xa4\xbe:i2'
p106
sS'posn'
p107
S'50'
p108
sS'name'
p109
S'\xe0\xa4\xad\xe0\xa4\xbe\xe0\xa4\x9c\xe0\xa4\xaa\xe0\xa4\xbe'
p110
sS'af'
p111
S'\xe0\xa4\xad\xe0\xa4\xbe\xe0\xa4\x9c\xe0\xa4\xaa\xe0\xa4\xbe,n,f,sg,3,o,0_\xe0\xa4\x95\xe0\xa4\xbe,0'
p112
sS'acrefmodhead'
p113
S'\xe0\xa4\xad\xe0\xa4\xbe\xe0\xa4\x9c\xe0\xa4\xaa\xe0\xa4\xbe:m1'
p114
sS'chunkid'
p115
S'NP2'
p116
sS'acrefmod'
p117
S'm1%1:i3'
p118
sS'chunktype'
p119
S'head:NP2'
p120
sS'crefchainhead'
p121
S'i2:t2'
p122
sS'vpos'
p123
S'vib_2'
p124
sS'cref'
p125
S'i2%1:t2'
p126
sS'drel'
p127
S'r6:NP3'
p128
ssbsg26
I00
sg27
I00
sg28
Nsg29
Nsg30
I2
sg31
I0
sg32
Nsg33
Nsg34
S'NNP'
p129
sg36
g102
sg37
I00
sba(issf_api
Word
p130
(dp131
g6
I00
sg7
V\u0915\u0947
p132
sg9
(issf_api
FeatureSet
p133
(dp134
g12
(dp135
S'posn'
p136
S'60'
p137
sS'name'
p138
S'\xe0\xa4\x95\xe0\xa5\x87'
p139
sS'drel'
p140
S'lwg__psp:NP2'
p141
sS'chunktype'
p142
S'child:NP2'
p143
sS'af'
p144
S'\xe0\xa4\x95\xe0\xa4\xbe,psp,m,sg,,o,,'
p145
ssbsg26
I00
sg27
I00
sg28
Nsg29
Nsg30
I2
sg31
I0
sg32
Nsg33
Nsg34
S'PSP'
p146
sg36
g133
sg37
I00
sba(issf_api
Word
p147
(dp148
g6
I00
sg7
V\u0935\u0930\u093f\u0937\u094d\u0920
p149
sg9
(issf_api
FeatureSet
p150
(dp151
g12
(dp152
S'posn'
p153
S'70'
p154
sS'name'
p155
S'\xe0\xa4\xb5\xe0\xa4\xb0\xe0\xa4\xbf\xe0\xa4\xb7\xe0\xa5\x8d\xe0\xa4\xa0'
p156
sS'af'
p157
S'\xe0\xa4\xb5\xe0\xa4\xb0\xe0\xa4\xbf\xe0\xa4\xb7\xe0\xa5\x8d\xe0\xa4\xa0,adj,any,any,,o,,'
p158
sS'drel'
p159
S'nmod__adj:NP3'
p160
sS'chunktype'
p161
S'child:NP3'
p162
sS'cref'
p163
S'i3%0:t1'
p164
ssbsg26
I00
sg27
I00
sg28
Nsg29
Nsg30
I3
sg31
I0
sg32
Nsg33
Nsg34
S'JJ'
p165
sg36
g150
sg37
I00
sba(issf_api
Word
p166
(dp167
g6
I00
sg7
V\u0928\u0947\u0924\u093e
p168
sg9
(issf_api
FeatureSet
p169
(dp170
g12
(dp171
S'crefhead'
p172
S'\xe0\xa4\xa8\xe0\xa5\x87\xe0\xa4\xa4\xe0\xa4\xbe:i3'
p173
sS'posn'
p174
S'80'
p175
sS'name'
p176
S'\xe0\xa4\xa8\xe0\xa5\x87\xe0\xa4\xa4\xe0\xa4\xbe'
p177
sS'af'
p178
S'\xe0\xa4\xa8\xe0\xa5\x87\xe0\xa4\xa4\xe0\xa4\xbe,n,m,sg,3,o,0,0'
p179
sS'chunkid'
p180
S'NP3'
p181
sS'crefmod'
p182
S'm1:i3'
p183
sS'creftype'
p184
S'Coreference-Noun-Noun:i1'
p185
sS'chunktype'
p186
S'head:NP3'
p187
sS'cref'
p188
S'i3%1:t1'
p189
sS'drel'
p190
S'ccof:CCP'
p191
ssbsg26
I00
sg27
I00
sg28
Nsg29
Nsg30
I3
sg31
I0
sg32
Nsg33
Nsg34
S'NN'
p192
sg36
g169
sg37
I00
sba(issf_api
Word
p193
(dp194
g6
I00
sg7
V\u092f\u0936\u0902\u0935\u0924
p195
sg9
(issf_api
FeatureSet
p196
(dp197
g12
(dp198
S'posn'
p199
S'90'
p200
sS'name'
p201
S'\xe0\xa4\xaf\xe0\xa4\xb6\xe0\xa4\x82\xe0\xa4\xb5\xe0\xa4\xa4'
p202
sS'af'
p203
S'\xe0\xa4\xaf\xe0\xa4\xb6\xe0\xa4\x82\xe0\xa4\xb5\xe0\xa4\xa4,n,m,sg,3,d,0,0'
p204
sS'drel'
p205
S'pof__cn:NP4'
p206
sS'chunktype'
p207
S'child:NP4'
p208
sS'cref'
p209
S'i4%0:t1'
p210
ssbsg26
I00
sg27
I00
sg28
Nsg29
Nsg30
I4
sg31
I0
sg32
Nsg33
Nsg34
S'NNPC'
p211
sg36
g196
sg37
I00
sba(issf_api
Word
p212
(dp213
g6
I00
sg7
V\u0938\u093f\u0928\u094d\u0939\u093e
p214
sg9
(issf_api
FeatureSet
p215
(dp216
g12
(dp217
S'crefhead'
p218
S'\xe0\xa4\xb8\xe0\xa4\xbf\xe0\xa4\xa8\xe0\xa5\x8d\xe0\xa4\xb9\xe0\xa4\xbe:i4'
p219
sS'posn'
p220
S'100'
p221
sS'name'
p222
S'\xe0\xa4\xb8\xe0\xa4\xbf\xe0\xa4\xa8\xe0\xa5\x8d\xe0\xa4\xb9\xe0\xa4\xbe'
p223
sS'af'
p224
S'\xe0\xa4\xb8\xe0\xa4\xbf\xe0\xa4\xa8\xe0\xa5\x8d\xe0\xa4\xb9\xe0\xa4\xbe,n,m,sg,3,o,0_\xe0\xa4\x95\xe0\xa5\x8b,0'
p225
sS'chunkid'
p226
S'NP4'
p227
sS'creftype'
p228
S'Coreference-NounComplement:i3'
p229
sS'chunktype'
p230
S'head:NP4'
p231
sS'crefchainhead'
p232
S'i4:t1'
p233
sS'vpos'
p234
S'vib_3'
p235
sS'cref'
p236
S'i4%1:t1'
p237
sS'drel'
p238
S'k2:VGF'
p239
ssbsg26
I00
sg27
I00
sg28
Nsg29
Nsg30
I4
sg31
I0
sg32
Nsg33
Nsg34
S'NNP'
p240
sg36
g215
sg37
I00
sba(issf_api
Word
p241
(dp242
g6
I00
sg7
V\u0915\u094b
p243
sg9
(issf_api
FeatureSet
p244
(dp245
g12
(dp246
S'posn'
p247
S'110'
p248
sS'name'
p249
S'\xe0\xa4\x95\xe0\xa5\x8b'
p250
sS'drel'
p251
S'lwg__psp:NP4'
p252
sS'chunktype'
p253
S'child:NP4'
p254
sS'af'
p255
S'\xe0\xa4\x95\xe0\xa5\x8b,psp,,,,,,'
p256
ssbsg26
I00
sg27
I00
sg28
Nsg29
Nsg30
I4
sg31
I0
sg32
Nsg33
Nsg34
S'PSP'
p257
sg36
g244
sg37
I00
sba(issf_api
Word
p258
(dp259
g6
I00
sg7
V\u0928\u094d\u092f\u093e\u092f\u093e\u092f\u093f\u0915
p260
sg9
(issf_api
FeatureSet
p261
(dp262
g12
(dp263
S'posn'
p264
S'120'
p265
sS'name'
p266
S'\xe0\xa4\xa8\xe0\xa5\x8d\xe0\xa4\xaf\xe0\xa4\xbe\xe0\xa4\xaf\xe0\xa4\xbe\xe0\xa4\xaf\xe0\xa4\xbf\xe0\xa4\x95'
p267
sS'af'
p268
S'\xe0\xa4\xa8\xe0\xa5\x8d\xe0\xa4\xaf\xe0\xa4\xbe\xe0\xa4\xaf\xe0\xa4\xbe\xe0\xa4\xaf\xe0\xa4\xbf\xe0\xa4\x95,adj,any,any,,o,,'
p269
sS'drel'
p270
S'nmod__adj:NP5'
p271
sS'chunktype'
p272
S'child:NP5'
p273
sS'cref'
p274
S'i5%0:t3'
p275
ssbsg26
I00
sg27
I00
sg28
Nsg29
Nsg30
I5
sg31
I0
sg32
Nsg33
Nsg34
S'JJ'
p276
sg36
g261
sg37
I00
sba(issf_api
Word
p277
(dp278
g6
I00
sg7
V\u0939\u093f\u0930\u093e\u0938\u0924
p279
sg9
(issf_api
FeatureSet
p280
(dp281
g12
(dp282
S'crefhead'
p283
S'\xe0\xa4\xb9\xe0\xa4\xbf\xe0\xa4\xb0\xe0\xa4\xbe\xe0\xa4\xb8\xe0\xa4\xa4:i5'
p284
sS'posn'
p285
S'130'
p286
sS'name'
p287
S'\xe0\xa4\xb9\xe0\xa4\xbf\xe0\xa4\xb0\xe0\xa4\xbe\xe0\xa4\xb8\xe0\xa4\xa4'
p288
sS'af'
p289
S'\xe0\xa4\xb9\xe0\xa4\xbf\xe0\xa4\xb0\xe0\xa4\xbe\xe0\xa4\xb8\xe0\xa4\xa4,n,f,sg,3,o,0_\xe0\xa4\xb8\xe0\xa5\x87,0'
p290
sS'chunkid'
p291
S'NP5'
p292
sS'chunktype'
p293
S'head:NP5'
p294
sS'crefchainhead'
p295
S'i5:t3'
p296
sS'vpos'
p297
S'vib_3'
p298
sS'cref'
p299
S'i5%1:t3'
p300
sS'drel'
p301
S'k5:VGF'
p302
ssbsg26
I00
sg27
I00
sg28
Nsg29
Nsg30
I5
sg31
I0
sg32
Nsg33
Nsg34
S'NN'
p303
sg36
g280
sg37
I00
sba(issf_api
Word
p304
(dp305
g6
I00
sg7
V\u0938\u0947
p306
sg9
(issf_api
FeatureSet
p307
(dp308
g12
(dp309
S'posn'
p310
S'140'
p311
sS'name'
p312
S'\xe0\xa4\xb8\xe0\xa5\x87'
p313
sS'drel'
p314
S'lwg__psp:NP5'
p315
sS'chunktype'
p316
S'child:NP5'
p317
sS'af'
p318
S'\xe0\xa4\xb8\xe0\xa5\x87,psp,,,,,,'
p319
ssbsg26
I00
sg27
I00
sg28
Nsg29
Nsg30
I5
sg31
I0
sg32
Nsg33
Nsg34
S'PSP'
p320
sg36
g307
sg37
I00
sba(issf_api
Word
p321
(dp322
g6
I00
sg7
V\u0930\u093f\u0939\u093e
p323
sg9
(issf_api
FeatureSet
p324
(dp325
g12
(dp326
S'posn'
p327
S'150'
p328
sS'name'
p329
S'\xe0\xa4\xb0\xe0\xa4\xbf\xe0\xa4\xb9\xe0\xa4\xbe'
p330
sS'af'
p331
S'\xe0\xa4\xb0\xe0\xa4\xbf\xe0\xa4\xb9\xe0\xa4\xbe,adj,any,any,,,,'
p332
sS'chunkid'
p333
S'JJP'
p334
sS'drel'
p335
S'pof:VGF'
p336
sS'chunktype'
p337
S'head:JJP'
p338
ssbsg26
I00
sg27
I00
sg28
Nsg29
Nsg30
I6
sg31
I0
sg32
Nsg33
Nsg34
S'JJ'
p339
sg36
g324
sg37
I00
sba(issf_api
Word
p340
(dp341
g6
I00
sg7
V\u0915\u0930
p342
sg9
(issf_api
FeatureSet
p343
(dp344
g12
(dp345
S'posn'
p346
S'160'
p347
sS'name'
p348
S'\xe0\xa4\x95\xe0\xa4\xb0'
p349
sS'af'
p350
S'\xe0\xa4\x95\xe0\xa4\xb0,v,m,sg,3,,0_\xe0\xa4\xa6\xe0\xa5\x87+\xe0\xa4\xaf\xe0\xa4\xbe_\xe0\xa4\x9c\xe0\xa4\xbe+\xe0\xa4\xaf\xe0\xa4\xbe\xe0\xa5\xa7_\xe0\xa4\xb9\xe0\xa5\x88,0'
p351
sS'chunkid'
p352
S'VGF'
p353
sS'chunktype'
p354
S'head:VGF'
p355
sS'voicetype'
p356
S'passive'
p357
sS'vpos'
p358
S'tam_2_3_4'
p359
sS'stype'
p360
S'declarative'
p361
ssbsg26
I00
sg27
I00
sg28
Nsg29
Nsg30
I7
sg31
I0
sg32
Nsg33
Nsg34
S'VM'
p362
sg36
g343
sg37
I00
sba(issf_api
Word
p363
(dp364
g6
I00
sg7
V\u0926\u093f\u092f\u093e
p365
sg9
(issf_api
FeatureSet
p366
(dp367
g12
(dp368
S'posn'
p369
S'170'
p370
sS'name'
p371
S'\xe0\xa4\xa6\xe0\xa4\xbf\xe0\xa4\xaf\xe0\xa4\xbe'
p372
sS'drel'
p373
S'lwg__vaux:VGF'
p374
sS'chunktype'
p375
S'child:VGF'
p376
sS'af'
p377
S'\xe0\xa4\xa6\xe0\xa5\x87,v,m,sg,any,,\xe0\xa4\xaf\xe0\xa4\xbe,yA'
p378
ssbsg26
I00
sg27
I00
sg28
Nsg29
Nsg30
I7
sg31
I0
sg32
Nsg33
Nsg34
S'VAUX'
p379
sg36
g366
sg37
I00
sba(issf_api
Word
p380
(dp381
g6
I00
sg7
V\u0917\u092f\u093e
p382
sg9
(issf_api
FeatureSet
p383
(dp384
g12
(dp385
S'posn'
p386
S'180'
p387
sS'name'
p388
S'\xe0\xa4\x97\xe0\xa4\xaf\xe0\xa4\xbe'
p389
sS'drel'
p390
S'lwg__vaux:VGF'
p391
sS'chunktype'
p392
S'child:VGF'
p393
sS'af'
p394
S'\xe0\xa4\x9c\xe0\xa4\xbe,v,m,sg,any,,\xe0\xa4\xaf\xe0\xa4\xbe\xe0\xa5\xa7,yA1'
p395
ssbsg26
I00
sg27
I00
sg28
Nsg29
Nsg30
I7
sg31
I0
sg32
Nsg33
Nsg34
S'VAUX'
p396
sg36
g383
sg37
I00
sba(issf_api
Word
p397
(dp398
g6
I00
sg7
V\u0939\u0948
p399
sg9
(issf_api
FeatureSet
p400
(dp401
g12
(dp402
S'posn'
p403
S'190'
p404
sS'name'
p405
S'\xe0\xa4\xb9\xe0\xa5\x88'
p406
sS'drel'
p407
S'lwg__vaux:VGF'
p408
sS'chunktype'
p409
S'child:VGF'
p410
sS'af'
p411
S'\xe0\xa4\xb9\xe0\xa5\x88,v,any,sg,3,,\xe0\xa4\xb9\xe0\xa5\x88,hE'
p412
ssbsg26
I00
sg27
I00
sg28
Nsg29
Nsg30
I7
sg31
I0
sg32
Nsg33
Nsg34
S'VAUX'
p413
sg36
g400
sg37
I00
sba(issf_api
Word
p414
(dp415
g6
I00
sg7
V\u0964
p416
sg9
(issf_api
FeatureSet
p417
(dp418
g12
(dp419
S'posn'
p420
S'200'
p421
sS'name'
p422
S'\xe0\xa5\xa4'
p423
sS'af'
p424
S'\xe0\xa5\xa4,punc,,,,,,'
p425
sS'chunkid'
p426
S'BLK'
p427
sS'drel'
p428
S'rsym:VGF'
p429
sS'chunktype'
p430
S'head:BLK'
p431
ssbsg26
I00
sg27
I00
sg28
Nsg29
Nsg30
I8
sg31
I0
sg32
Nsg33
Nsg34
S'SYM'
p432
sg36
g417
sg37
I00
sba(issf_api
Word
p433
(dp434
g6
I00
sg7
V\u091d\u093e\u0930\u0916\u0902\u0921
p435
sg9
(issf_api
FeatureSet
p436
(dp437
g12
(dp438
S'posn'
p439
S'10'
p440
sS'name'
p441
S'\xe0\xa4\x9d\xe0\xa4\xbe\xe0\xa4\xb0\xe0\xa4\x96\xe0\xa4\x82\xe0\xa4\xa1'
p442
sS'drel'
p443
S'nmod__adj:NP'
p444
sS'chunktype'
p445
S'child:NP'
p446
sS'af'
p447
S'\xe0\xa4\x9d\xe0\xa4\xbe\xe0\xa4\xb0\xe0\xa4\x96\xe0\xa4\x82\xe0\xa4\xa1,n,m,sg,3,d,0,0'
p448
ssbsg26
I00
sg27
I00
sg28
Nsg29
Nsg30
I0
sg31
I1
sg32
Nsg33
Nsg34
S'NNP'
p449
sg36
g436
sg37
I00
sba(issf_api
Word
p450
(dp451
g6
I00
sg7
V\u0938\u0930\u0915\u093e\u0930
p452
sg9
(issf_api
FeatureSet
p453
(dp454
g12
(dp455
S'posn'
p456
S'20'
p457
sS'name'
p458
S'\xe0\xa4\xb8\xe0\xa4\xb0\xe0\xa4\x95\xe0\xa4\xbe\xe0\xa4\xb0'
p459
sS'af'
p460
S'\xe0\xa4\xb8\xe0\xa4\xb0\xe0\xa4\x95\xe0\xa4\xbe\xe0\xa4\xb0,n,f,sg,3,o,0_\xe0\xa4\xa6\xe0\xa5\x8d\xe0\xa4\xb5\xe0\xa4\xbe\xe0\xa4\xb0\xe0\xa4\xbe,0'
p461
sS'chunkid'
p462
S'NP'
p463
sS'drel'
p464
S'k1:VGNN'
p465
sS'vpos'
p466
S'vib_vib_3'
p467
sS'chunktype'
p468
S'head:NP'
p469
ssbsg26
I00
sg27
I00
sg28
Nsg29
Nsg30
I0
sg31
I1
sg32
Nsg33
Nsg34
S'NN'
p470
sg36
g453
sg37
I00
sba(issf_api
Word
p471
(dp472
g6
I00
sg7
V\u0926\u094d\u0935\u093e\u0930\u093e
p473
sg9
(issf_api
FeatureSet
p474
(dp475
g12
(dp476
S'posn'
p477
S'30'
p478
sS'name'
p479
S'\xe0\xa4\xa6\xe0\xa5\x8d\xe0\xa4\xb5\xe0\xa4\xbe\xe0\xa4\xb0\xe0\xa4\xbe'
p480
sS'drel'
p481
S'lwg__psp:NP'
p482
sS'chunktype'
p483
S'child:NP'
p484
sS'af'
p485
S'\xe0\xa4\xa6\xe0\xa5\x8d\xe0\xa4\xb5\xe0\xa4\xbe\xe0\xa4\xb0\xe0\xa4\xbe,psp,,,,,,'
p486
ssbsg26
I00
sg27
I00
sg28
Nsg29
Nsg30
I0
sg31
I1
sg32
Nsg33
Nsg34
S'PSP'
p487
sg36
g474
sg37
I00
sba(issf_api
Word
p488
(dp489
g6
I00
sg7
V\u0909\u0928\u0915\u0947
p490
sg9
(issf_api
FeatureSet
p491
(dp492
g12
(dp493
S'crefhead'
p494
S'\xe0\xa4\x89\xe0\xa4\xa8\xe0\xa4\x95\xe0\xa5\x87:i6'
p495
sS'posn'
p496
S'40'
p497
sS'name'
p498
S'\xe0\xa4\x89\xe0\xa4\xa8\xe0\xa4\x95\xe0\xa5\x87'
p499
sS'af'
p500
S'\xe0\xa4\xb5\xe0\xa4\xb9,pn,any,sg,3h,o,0_\xe0\xa4\x96\xe0\xa4\xbf\xe0\xa4\xb2\xe0\xa4\xbe\xe0\xa4\xab,ke'
p501
sS'chunkid'
p502
S'NP2'
p503
sS'creftype'
p504
S'Anaphora-C:i4'
p505
sS'chunktype'
p506
S'head:NP2'
p507
sS'vpos'
p508
S'vib_2'
p509
sS'cref'
p510
S'i6%1:t1'
p511
sS'drel'
p512
S'jjmod:JJP'
p513
ssbsg26
I00
sg27
I00
sg28
Nsg29
Nsg30
I1
sg31
I1
sg32
Nsg33
Nsg34
S'PRP'
p514
sg36
g491
sg37
I00
sba(issf_api
Word
p515
(dp516
g6
I00
sg7
V\u0916\u093f\u0932\u093e\u092b
p517
sg9
(issf_api
FeatureSet
p518
(dp519
g12
(dp520
S'posn'
p521
S'50'
p522
sS'name'
p523
S'\xe0\xa4\x96\xe0\xa4\xbf\xe0\xa4\xb2\xe0\xa4\xbe\xe0\xa4\xab'
p524
sS'drel'
p525
S'lwg__psp:NP2'
p526
sS'chunktype'
p527
S'child:NP2'
p528
sS'af'
p529
S'\xe0\xa4\x96\xe0\xa4\xbf\xe0\xa4\xb2\xe0\xa4\xbe\xe0\xa4\xab,adj,,,,,,'
p530
ssbsg26
I00
sg27
I00
sg28
Nsg29
Nsg30
I1
sg31
I1
sg32
Nsg33
Nsg34
S'PSP'
p531
sg36
g518
sg37
I00
sba(issf_api
Word
p532
(dp533
g6
I00
sg7
V\u0926\u0930\u094d\u091c
p534
sg9
(issf_api
FeatureSet
p535
(dp536
g12
(dp537
S'posn'
p538
S'60'
p539
sS'name'
p540
S'\xe0\xa4\xa6\xe0\xa4\xb0\xe0\xa5\x8d\xe0\xa4\x9c'
p541
sS'af'
p542
S'\xe0\xa4\xa6\xe0\xa4\xb0\xe0\xa5\x8d\xe0\xa4\x9c,adj,any,any,,d,,'
p543
sS'chunkid'
p544
S'JJP'
p545
sS'drel'
p546
S'nmod:NP3'
p547
sS'chunktype'
p548
S'head:JJP'
p549
sS'cref'
p550
S'i7%0:t4'
p551
ssbsg26
I00
sg27
I00
sg28
Nsg29
Nsg30
I2
sg31
I1
sg32
Nsg33
Nsg34
S'JJ'
p552
sg36
g535
sg37
I00
sba(issf_api
Word
p553
(dp554
g6
I00
sg7
V\u092e\u093e\u092e\u0932\u093e
p555
sg9
(issf_api
FeatureSet
p556
(dp557
g12
(dp558
S'crefhead'
p559
S'\xe0\xa4\xae\xe0\xa4\xbe\xe0\xa4\xae\xe0\xa4\xb2\xe0\xa4\xbe:i7'
p560
sS'posn'
p561
S'70'
p562
sS'name'
p563
S'\xe0\xa4\xae\xe0\xa4\xbe\xe0\xa4\xae\xe0\xa4\xb2\xe0\xa4\xbe'
p564
sS'af'
p565
S'\xe0\xa4\xae\xe0\xa4\xbe\xe0\xa4\xae\xe0\xa4\xb2\xe0\xa4\xbe,n,m,sg,3,d,0,0'
p566
sS'chunkid'
p567
S'NP3'
p568
sS'chunktype'
p569
S'head:NP3'
p570
sS'crefchainhead'
p571
S'i7:t4'
p572
sS'cref'
p573
S'i7%1:t4'
p574
sS'drel'
p575
S'k2:VGNN'
p576
ssbsg26
I00
sg27
I00
sg28
Nsg29
Nsg30
I3
sg31
I1
sg32
Nsg33
Nsg34
S'NNP'
p577
sg36
g556
sg37
I00
sba(issf_api
Word
p578
(dp579
g6
I00
sg7
V\u0935\u093e\u092a\u0938
p580
sg9
(issf_api
FeatureSet
p581
(dp582
g12
(dp583
S'posn'
p584
S'80'
p585
sS'name'
p586
S'\xe0\xa4\xb5\xe0\xa4\xbe\xe0\xa4\xaa\xe0\xa4\xb8'
p587
sS'af'
p588
S'\xe0\xa4\xb5\xe0\xa4\xbe\xe0\xa4\xaa\xe0\xa4\xb8,adj,any,any,,,,'
p589
sS'chunkid'
p590
S'JJP2'
p591
sS'drel'
p592
S'pof:VGNN'
p593
sS'chunktype'
p594
S'head:JJP2'
p595
ssbsg26
I00
sg27
I00
sg28
Nsg29
Nsg30
I4
sg31
I1
sg32
Nsg33
Nsg34
S'JJ'
p596
sg36
g581
sg37
I00
sba(issf_api
Word
p597
(dp598
g6
I00
sg7
V\u0932\u093f\u090f
p599
sg9
(issf_api
FeatureSet
p600
(dp601
g12
(dp602
S'posn'
p603
S'90'
p604
sS'name'
p605
S'\xe0\xa4\xb2\xe0\xa4\xbf\xe0\xa4\x8f'
p606
sS'af'
p607
S'\xe0\xa4\xb2\xe0\xa5\x87,v,m,sg,3,o,\xe0\xa4\xaf\xe0\xa4\xbe_\xe0\xa4\x9c\xe0\xa4\xbe\xe0\xa4\xa8+\xe0\xa4\xa8\xe0\xa4\xbe_\xe0\xa4\x95\xe0\xa5\x87_\xe0\xa4\xac\xe0\xa4\xbe\xe0\xa4\xa6,yA'
p608
sS'chunkid'
p609
S'VGNN'
p610
sS'drel'
p611
S'k7t:VGF'
p612
sS'vpos'
p613
S'tam_2_3_4'
p614
sS'chunktype'
p615
S'head:VGNN'
p616
ssbsg26
I00
sg27
I00
sg28
Nsg29
Nsg30
I5
sg31
I1
sg32
Nsg33
Nsg34
S'VM'
p617
sg36
g600
sg37
I00
sba(issf_api
Word
p618
(dp619
g6
I00
sg7
V\u091c\u093e\u0928\u0947
p620
sg9
(issf_api
FeatureSet
p621
(dp622
g12
(dp623
S'posn'
p624
S'100'
p625
sS'name'
p626
S'\xe0\xa4\x9c\xe0\xa4\xbe\xe0\xa4\xa8\xe0\xa5\x87'
p627
sS'drel'
p628
S'lwg__vaux:VGNN'
p629
sS'chunktype'
p630
S'child:VGNN'
p631
sS'af'
p632
S'\xe0\xa4\x9c\xe0\xa4\xbe\xe0\xa4\xa8,v,any,any,any,o,\xe0\xa4\xa8\xe0\xa4\xbe,nA'
p633
ssbsg26
I00
sg27
I00
sg28
Nsg29
Nsg30
I5
sg31
I1
sg32
Nsg33
Nsg34
S'VAUX'
p634
sg36
g621
sg37
I00
sba(issf_api
Word
p635
(dp636
g6
I00
sg7
V\u0915\u0947
p637
sg9
(issf_api
FeatureSet
p638
(dp639
g12
(dp640
S'posn'
p641
S'110'
p642
sS'name'
p643
S'\xe0\xa4\x95\xe0\xa5\x87'
p644
sS'drel'
p645
S'lwg__psp:VGNN'
p646
sS'chunktype'
p647
S'child:VGNN'
p648
sS'af'
p649
S'\xe0\xa4\x95\xe0\xa5\x87,psp,,,,,,'
p650
ssbsg26
I00
sg27
I00
sg28
Nsg29
Nsg30
I5
sg31
I1
sg32
Nsg33
Nsg34
S'PSP'
p651
sg36
g638
sg37
I00
sba(issf_api
Word
p652
(dp653
g6
I00
sg7
V\u092c\u093e\u0926
p654
sg9
(issf_api
FeatureSet
p655
(dp656
g12
(dp657
S'posn'
p658
S'120'
p659
sS'name'
p660
S'\xe0\xa4\xac\xe0\xa4\xbe\xe0\xa4\xa6'
p661
sS'drel'
p662
S'lwg__nst:VGNN'
p663
sS'chunktype'
p664
S'child:VGNN'
p665
sS'af'
p666
S'\xe0\xa4\xac\xe0\xa4\xbe\xe0\xa4\xa6,nst,m,sg,3,d,,'
p667
ssbsg26
I00
sg27
I00
sg28
Nsg29
Nsg30
I5
sg31
I1
sg32
Nsg33
Nsg34
S'NST'
p668
sg36
g655
sg37
I00
sba(issf_api
Word
p669
(dp670
g6
I00
sg7
V\u0909\u0928\u094d\u0939\u0947\u0902
p671
sg9
(issf_api
FeatureSet
p672
(dp673
g12
(dp674
S'crefhead'
p675
S'\xe0\xa4\x89\xe0\xa4\xa8\xe0\xa5\x8d\xe0\xa4\xb9\xe0\xa5\x87\xe0\xa4\x82:i8'
p676
sS'posn'
p677
S'130'
p678
sS'name'
p679
S'\xe0\xa4\x89\xe0\xa4\xa8\xe0\xa5\x8d\xe0\xa4\xb9\xe0\xa5\x87\xe0\xa4\x82'
p680
sS'af'
p681
S'\xe0\xa4\xb5\xe0\xa4\xb9,pn,any,sg,3h,o,\xe0\xa4\x95\xe0\xa5\x8b,ko'
p682
sS'chunkid'
p683
S'NP4'
p684
sS'creftype'
p685
S'Anaphora-C:i6'
p686
sS'chunktype'
p687
S'head:NP4'
p688
sS'cref'
p689
S'i8%1:t1'
p690
sS'drel'
p691
S'k2:VGF'
p692
ssbsg26
I00
sg27
I00
sg28
Nsg29
Nsg30
I6
sg31
I1
sg32
Nsg33
Nsg34
S'PRP'
p693
sg36
g672
sg37
I00
sba(issf_api
Word
p694
(dp695
g6
I00
sg7
V\u0930\u093f\u0939\u093e
p696
sg9
(issf_api
FeatureSet
p697
(dp698
g12
(dp699
S'posn'
p700
S'140'
p701
sS'name'
p702
S'\xe0\xa4\xb0\xe0\xa4\xbf\xe0\xa4\xb9\xe0\xa4\xbe'
p703
sS'af'
p704
S'\xe0\xa4\xb0\xe0\xa4\xbf\xe0\xa4\xb9\xe0\xa4\xbe,adj,any,any,,,,'
p705
sS'chunkid'
p706
S'JJP3'
p707
sS'drel'
p708
S'pof:VGF'
p709
sS'chunktype'
p710
S'head:JJP3'
p711
ssbsg26
I00
sg27
I00
sg28
Nsg29
Nsg30
I7
sg31
I1
sg32
Nsg33
Nsg34
S'JJ'
p712
sg36
g697
sg37
I00
sba(issf_api
Word
p713
(dp714
g6
I00
sg7
V\u0915\u093f\u092f\u093e
p715
sg9
(issf_api
FeatureSet
p716
(dp717
g12
(dp718
S'posn'
p719
S'150'
p720
sS'name'
p721
S'\xe0\xa4\x95\xe0\xa4\xbf\xe0\xa4\xaf\xe0\xa4\xbe'
p722
sS'af'
p723
S'\xe0\xa4\x95\xe0\xa4\xb0,v,m,sg,3,,\xe0\xa4\xaf\xe0\xa4\xbe_\xe0\xa4\x9c\xe0\xa4\xbe+\xe0\xa4\xaf\xe0\xa4\xbe\xe0\xa5\xa7_\xe0\xa4\xb9\xe0\xa5\x88,yA'
p724
sS'chunkid'
p725
S'VGF'
p726
sS'chunktype'
p727
S'head:VGF'
p728
sS'voicetype'
p729
S'passive'
p730
sS'vpos'
p731
S'tam_2_3'
p732
sS'stype'
p733
S'declarative'
p734
ssbsg26
I00
sg27
I00
sg28
Nsg29
Nsg30
I8
sg31
I1
sg32
Nsg33
Nsg34
S'VM'
p735
sg36
g716
sg37
I00
sba(issf_api
Word
p736
(dp737
g6
I00
sg7
V\u0917\u092f\u093e
p738
sg9
(issf_api
FeatureSet
p739
(dp740
g12
(dp741
S'posn'
p742
S'160'
p743
sS'name'
p744
S'\xe0\xa4\x97\xe0\xa4\xaf\xe0\xa4\xbe'
p745
sS'drel'
p746
S'lwg__vaux:VGF'
p747
sS'chunktype'
p748
S'child:VGF'
p749
sS'af'
p750
S'\xe0\xa4\x9c\xe0\xa4\xbe,v,m,sg,any,,\xe0\xa4\xaf\xe0\xa4\xbe\xe0\xa5\xa7,yA1'
p751
ssbsg26
I00
sg27
I00
sg28
Nsg29
Nsg30
I8
sg31
I1
sg32
Nsg33
Nsg34
S'VAUX'
p752
sg36
g739
sg37
I00
sba(issf_api
Word
p753
(dp754
g6
I00
sg7
V\u0939\u0948
p755
sg9
(issf_api
FeatureSet
p756
(dp757
g12
(dp758
S'posn'
p759
S'170'
p760
sS'name'
p761
S'\xe0\xa4\xb9\xe0\xa5\x88'
p762
sS'drel'
p763
S'lwg__vaux:VGF'
p764
sS'chunktype'
p765
S'child:VGF'
p766
sS'af'
p767
S'\xe0\xa4\xb9\xe0\xa5\x88,v,any,sg,3,,\xe0\xa4\xb9\xe0\xa5\x88,hE'
p768
ssbsg26
I00
sg27
I00
sg28
Nsg29
Nsg30
I8
sg31
I1
sg32
Nsg33
Nsg34
S'VAUX'
p769
sg36
g756
sg37
I00
sba(issf_api
Word
p770
(dp771
g6
I00
sg7
V\u0964
p772
sg9
(issf_api
FeatureSet
p773
(dp774
g12
(dp775
S'posn'
p776
S'180'
p777
sS'name'
p778
S'\xe0\xa5\xa4'
p779
sS'af'
p780
S'\xe0\xa5\xa4,punc,,,,,,'
p781
sS'chunkid'
p782
S'BLK'
p783
sS'drel'
p784
S'rsym:VGF'
p785
sS'chunktype'
p786
S'head:BLK'
p787
ssbsg26
I00
sg27
I00
sg28
Nsg29
Nsg30
I9
sg31
I1
sg32
Nsg33
Nsg34
S'SYM'
p788
sg36
g773
sg37
I00
sba(issf_api
Word
p789
(dp790
g6
I00
sg7
V\u0917\u094c\u0930\u0924\u0932\u092c
p791
sg9
(issf_api
FeatureSet
p792
(dp793
g12
(dp794
S'posn'
p795
S'10'
p796
sS'name'
p797
S'\xe0\xa4\x97\xe0\xa5\x8c\xe0\xa4\xb0\xe0\xa4\xa4\xe0\xa4\xb2\xe0\xa4\xac'
p798
sS'af'
p799
S'\xe0\xa4\x97\xe0\xa5\x8c\xe0\xa4\xb0\xe0\xa4\xa4\xe0\xa4\xb2\xe0\xa4\xac,adj,any,any,,,,'
p800
sS'chunkid'
p801
S'JJP'
p802
sS'drel'
p803
S'k1s:VGF'
p804
sS'chunktype'
p805
S'head:JJP'
p806
ssbsg26
I00
sg27
I00
sg28
Nsg29
Nsg30
I0
sg31
I2
sg32
Nsg33
Nsg34
S'JJ'
p807
sg36
g792
sg37
I00
sba(issf_api
Word
p808
(dp809
g6
I00
sg7
V\u0939\u0948
p810
sg9
(issf_api
FeatureSet
p811
(dp812
g12
(dp813
S'posn'
p814
S'20'
p815
sS'name'
p816
S'\xe0\xa4\xb9\xe0\xa5\x88'
p817
sS'af'
p818
S'\xe0\xa4\xb9\xe0\xa5\x88,v,any,sg,3,,\xe0\xa4\xb9\xe0\xa5\x88,hE'
p819
sS'chunkid'
p820
S'VGF'
p821
sS'chunktype'
p822
S'head:VGF'
p823
sS'voicetype'
p824
S'active'
p825
sS'stype'
p826
S'declarative'
p827
ssbsg26
I00
sg27
I00
sg28
Nsg29
Nsg30
I1
sg31
I2
sg32
Nsg33
Nsg34
S'VM'
p828
sg36
g811
sg37
I00
sba(issf_api
Word
p829
(dp830
g6
I00
sg7
V\u0915\u093f
p831
sg9
(issf_api
FeatureSet
p832
(dp833
g12
(dp834
S'posn'
p835
S'30'
p836
sS'name'
p837
S'\xe0\xa4\x95\xe0\xa4\xbf'
p838
sS'af'
p839
S'\xe0\xa4\x95\xe0\xa4\xbf,avy,,,,,,'
p840
sS'chunkid'
p841
S'CCP'
p842
sS'drel'
p843
S'rs:NULL__NP'
p844
sS'chunktype'
p845
S'head:CCP'
p846
ssbsg26
I00
sg27
I00
sg28
Nsg29
Nsg30
I2
sg31
I2
sg32
Nsg33
Nsg34
S'CC'
p847
sg36
g832
sg37
I00
sba(issf_api
Word
p848
(dp849
g6
I00
sg7
V\u0967\u096c
p850
sg9
(issf_api
FeatureSet
p851
(dp852
g12
(dp853
S'posn'
p854
S'40'
p855
sS'name'
p856
S'\xe0\xa5\xa7\xe0\xa5\xac'
p857
sS'drel'
p858
S'pof__cn:NP'
p859
sS'chunktype'
p860
S'child:NP'
p861
sS'af'
p862
S'\xe0\xa5\xa7\xe0\xa5\xac,n,any,sg,3,d,0,0'
p863
ssbsg26
I00
sg27
I00
sg28
Nsg29
Nsg30
I3
sg31
I2
sg32
Nsg33
Nsg34
S'NNPC'
p864
sg36
g851
sg37
I00
sba(issf_api
Word
p865
(dp866
g6
I00
sg7
V\u092b\u0930\u0935\u0930\u0940
p867
sg9
(issf_api
FeatureSet
p868
(dp869
g12
(dp870
S'posn'
p871
S'50'
p872
sS'name'
p873
S'\xe0\xa4\xab\xe0\xa4\xb0\xe0\xa4\xb5\xe0\xa4\xb0\xe0\xa5\x80'
p874
sS'af'
p875
S'\xe0\xa4\xab\xe0\xa4\xb0\xe0\xa4\xb5\xe0\xa4\xb0\xe0\xa5\x80,n,f,sg,3,o,0_\xe0\xa4\x95\xe0\xa5\x8b,0'
p876
sS'chunkid'
p877
S'NP'
p878
sS'drel'
p879
S'k7t:VGF2'
p880
sS'vpos'
p881
S'vib_3'
p882
sS'chunktype'
p883
S'head:NP'
p884
ssbsg26
I00
sg27
I00
sg28
Nsg29
Nsg30
I3
sg31
I2
sg32
Nsg33
Nsg34
S'NNP'
p885
sg36
g868
sg37
I00
sba(issf_api
Word
p886
(dp887
g6
I00
sg7
V\u0915\u094b
p888
sg9
(issf_api
FeatureSet
p889
(dp890
g12
(dp891
S'posn'
p892
S'60'
p893
sS'name'
p894
S'\xe0\xa4\x95\xe0\xa5\x8b'
p895
sS'drel'
p896
S'lwg__psp:NP'
p897
sS'chunktype'
p898
S'child:NP'
p899
sS'af'
p900
S'\xe0\xa4\x95\xe0\xa5\x8b,psp,,,,,,'
p901
ssbsg26
I00
sg27
I00
sg28
Nsg29
Nsg30
I3
sg31
I2
sg32
Nsg33
Nsg34
S'PSP'
p902
sg36
g889
sg37
I00
sba(issf_api
Word
p903
(dp904
g6
I00
sg7
V\u090f\u0915
p905
sg9
(issf_api
FeatureSet
p906
(dp907
g12
(dp908
S'posn'
p909
S'70'
p910
sS'name'
p911
S'\xe0\xa4\x8f\xe0\xa4\x95'
p912
sS'drel'
p913
S'nmod__adj:NP2'
p914
sS'chunktype'
p915
S'child:NP2'
p916
sS'af'
p917
S'\xe0\xa4\x8f\xe0\xa4\x95,num,any,any,,any,,'
p918
ssbsg26
I00
sg27
I00
sg28
Nsg29
Nsg30
I4
sg31
I2
sg32
Nsg33
Nsg34
S'QC'
p919
sg36
g906
sg37
I00
sba(issf_api
Word
p920
(dp921
g6
I00
sg7
V\u0935\u093f\u0930\u094b\u0927
p922
sg9
(issf_api
FeatureSet
p923
(dp924
g12
(dp925
S'posn'
p926
S'80'
p927
sS'name'
p928
S'\xe0\xa4\xb5\xe0\xa4\xbf\xe0\xa4\xb0\xe0\xa5\x8b\xe0\xa4\xa7'
p929
sS'drel'
p930
S'pof__cn:NP2'
p931
sS'chunktype'
p932
S'child:NP2'
p933
sS'af'
p934
S'\xe0\xa4\xb5\xe0\xa4\xbf\xe0\xa4\xb0\xe0\xa5\x8b\xe0\xa4\xa7,n,m,sg,3,d,0,0'
p935
ssbsg26
I00
sg27
I00
sg28
Nsg29
Nsg30
I4
sg31
I2
sg32
Nsg33
Nsg34
S'NNC'
p936
sg36
g923
sg37
I00
sba(issf_api
Word
p937
(dp938
g6
I00
sg7
V\u092a\u094d\u0930\u0926\u0930\u094d\u0936\u0928
p939
sg9
(issf_api
FeatureSet
p940
(dp941
g12
(dp942
S'posn'
p943
S'90'
p944
sS'name'
p945
S'\xe0\xa4\xaa\xe0\xa5\x8d\xe0\xa4\xb0\xe0\xa4\xa6\xe0\xa4\xb0\xe0\xa5\x8d\xe0\xa4\xb6\xe0\xa4\xa8'
p946
sS'af'
p947
S'\xe0\xa4\xaa\xe0\xa5\x8d\xe0\xa4\xb0\xe0\xa4\xa6\xe0\xa4\xb0\xe0\xa5\x8d\xe0\xa4\xb6\xe0\xa4\xa8,n,m,sg,3,o,0_\xe0\xa4\x95\xe0\xa4\xbe,0'
p948
sS'chunkid'
p949
S'NP2'
p950
sS'drel'
p951
S'r6:NP3'
p952
sS'vpos'
p953
S'vib_4'
p954
sS'chunktype'
p955
S'head:NP2'
p956
ssbsg26
I00
sg27
I00
sg28
Nsg29
Nsg30
I4
sg31
I2
sg32
Nsg33
Nsg34
S'NN'
p957
sg36
g940
sg37
I00
sba(issf_api
Word
p958
(dp959
g6
I00
sg7
V\u0915\u0947
p960
sg9
(issf_api
FeatureSet
p961
(dp962
g12
(dp963
S'posn'
p964
S'100'
p965
sS'name'
p966
S'\xe0\xa4\x95\xe0\xa5\x87'
p967
sS'drel'
p968
S'lwg__psp:NP2'
p969
sS'chunktype'
p970
S'child:NP2'
p971
sS'af'
p972
S'\xe0\xa4\x95\xe0\xa4\xbe,psp,m,sg,,o,,'
p973
ssbsg26
I00
sg27
I00
sg28
Nsg29
Nsg30
I4
sg31
I2
sg32
Nsg33
Nsg34
S'PSP'
p974
sg36
g961
sg37
I00
sba(issf_api
Word
p975
(dp976
g6
I00
sg7
V\u0926\u094c\u0930
p977
sg9
(issf_api
FeatureSet
p978
(dp979
g12
(dp980
S'posn'
p981
S'110'
p982
sS'name'
p983
S'\xe0\xa4\xa6\xe0\xa5\x8c\xe0\xa4\xb0'
p984
sS'af'
p985
S'\xe0\xa4\xa6\xe0\xa5\x8c\xe0\xa4\xb0,n,m,sg,3,o,0_\xe0\xa4\xae\xe0\xa5\x87\xe0\xa4\x82,0'
p986
sS'chunkid'
p987
S'NP3'
p988
sS'drel'
p989
S'k7t:VGF2'
p990
sS'vpos'
p991
S'vib_2'
p992
sS'chunktype'
p993
S'head:NP3'
p994
ssbsg26
I00
sg27
I00
sg28
Nsg29
Nsg30
I5
sg31
I2
sg32
Nsg33
Nsg34
S'NN'
p995
sg36
g978
sg37
I00
sba(issf_api
Word
p996
(dp997
g6
I00
sg7
V\u092e\u0947\u0902
p998
sg9
(issf_api
FeatureSet
p999
(dp1000
g12
(dp1001
S'posn'
p1002
S'120'
p1003
sS'name'
p1004
S'\xe0\xa4\xae\xe0\xa5\x87\xe0\xa4\x82'
p1005
sS'drel'
p1006
S'lwg__psp:NP3'
p1007
sS'chunktype'
p1008
S'child:NP3'
p1009
sS'af'
p1010
S'\xe0\xa4\xae\xe0\xa5\x87\xe0\xa4\x82,psp,,,,,,'
p1011
ssbsg26
I00
sg27
I00
sg28
Nsg29
Nsg30
I5
sg31
I2
sg32
Nsg33
Nsg34
S'PSP'
p1012
sg36
g999
sg37
I00
sba(issf_api
Word
p1013
(dp1014
g6
I00
sg7
V\u0938\u093f\u0928\u094d\u0939\u093e
p1015
sg9
(issf_api
FeatureSet
p1016
(dp1017
g12
(dp1018
S'crefhead'
p1019
S'\xe0\xa4\xb8\xe0\xa4\xbf\xe0\xa4\xa8\xe0\xa5\x8d\xe0\xa4\xb9\xe0\xa4\xbe:i9'
p1020
sS'posn'
p1021
S'130'
p1022
sS'name'
p1023
S'\xe0\xa4\xb8\xe0\xa4\xbf\xe0\xa4\xa8\xe0\xa5\x8d\xe0\xa4\xb9\xe0\xa4\xbe'
p1024
sS'af'
p1025
S'\xe0\xa4\xb8\xe0\xa4\xbf\xe0\xa4\xa8\xe0\xa5\x8d\xe0\xa4\xb9\xe0\xa4\xbe,n,m,sg,3,o,0_\xe0\xa4\xb8\xe0\xa4\xb9\xe0\xa4\xbf\xe0\xa4\xa4,0'
p1026
sS'chunkid'
p1027
S'NP4'
p1028
sS'creftype'
p1029
S'Coreference-Identity:i8'
p1030
sS'chunktype'
p1031
S'head:NP4'
p1032
sS'vpos'
p1033
S'vib_2'
p1034
sS'cref'
p1035
S'i9%1:t1'
p1036
sS'drel'
p1037
S'ras-k1:VGF2'
p1038
ssbsg26
I00
sg27
I00
sg28
Nsg29
Nsg30
I6
sg31
I2
sg32
Nsg33
Nsg34
S'NNP'
p1039
sg36
g1016
sg37
I00
sba(issf_api
Word
p1040
(dp1041
g6
I00
sg7
V\u0938\u0939\u093f\u0924
p1042
sg9
(issf_api
FeatureSet
p1043
(dp1044
g12
(dp1045
S'posn'
p1046
S'140'
p1047
sS'name'
p1048
S'\xe0\xa4\xb8\xe0\xa4\xb9\xe0\xa4\xbf\xe0\xa4\xa4'
p1049
sS'drel'
p1050
S'lwg__psp:NP4'
p1051
sS'chunktype'
p1052
S'child:NP4'
p1053
sS'af'
p1054
S'\xe0\xa4\xb8\xe0\xa4\xb9\xe0\xa4\xbf\xe0\xa4\xa4,psp,,,,,,'
p1055
ssbsg26
I00
sg27
I00
sg28
Nsg29
Nsg30
I6
sg31
I2
sg32
Nsg33
Nsg34
S'PSP'
p1056
sg36
g1043
sg37
I00
sba(issf_api
Word
p1057
(dp1058
g6
I00
sg7
V\u092d\u093e\u091c\u092a\u093e
p1059
sg9
(issf_api
FeatureSet
p1060
(dp1061
g12
(dp1062
S'crefhead'
p1063
S'\xe0\xa4\xad\xe0\xa4\xbe\xe0\xa4\x9c\xe0\xa4\xaa\xe0\xa4\xbe:i10'
p1064
sS'posn'
p1065
S'150'
p1066
sS'name'
p1067
S'\xe0\xa4\xad\xe0\xa4\xbe\xe0\xa4\x9c\xe0\xa4\xaa\xe0\xa4\xbe'
p1068
sS'af'
p1069
S'\xe0\xa4\xad\xe0\xa4\xbe\xe0\xa4\x9c\xe0\xa4\xaa\xe0\xa4\xbe,n,f,sg,3,o,0_\xe0\xa4\x95\xe0\xa4\xbe,0'
p1070
sS'chunkid'
p1071
S'NP5'
p1072
sS'creftype'
p1073
S'Coreference-Identity:i2'
p1074
sS'chunktype'
p1075
S'head:NP5'
p1076
sS'vpos'
p1077
S'vib_2'
p1078
sS'cref'
p1079
S'i10%1:t2'
p1080
sS'drel'
p1081
S'r6:NP6'
p1082
ssbsg26
I00
sg27
I00
sg28
Nsg29
Nsg30
I7
sg31
I2
sg32
Nsg33
Nsg34
S'NNP'
p1083
sg36
g1060
sg37
I00
sba(issf_api
Word
p1084
(dp1085
g6
I00
sg7
V\u0915\u0947
p1086
sg9
(issf_api
FeatureSet
p1087
(dp1088
g12
(dp1089
S'posn'
p1090
S'160'
p1091
sS'name'
p1092
S'\xe0\xa4\x95\xe0\xa5\x872'
p1093
sS'drel'
p1094
S'lwg__psp:NP5'
p1095
sS'chunktype'
p1096
S'child:NP5'
p1097
sS'af'
p1098
S'\xe0\xa4\x95\xe0\xa4\xbe,psp,m,pl,,o,,'
p1099
ssbsg26
I00
sg27
I00
sg28
Nsg29
Nsg30
I7
sg31
I2
sg32
Nsg33
Nsg34
S'PSP'
p1100
sg36
g1087
sg37
I00
sba(issf_api
Word
p1101
(dp1102
g6
I00
sg7
V\u0967\u096b\u0966
p1103
sg9
(issf_api
FeatureSet
p1104
(dp1105
g12
(dp1106
S'posn'
p1107
S'170'
p1108
sS'name'
p1109
S'\xe0\xa5\xa7\xe0\xa5\xab\xe0\xa5\xa6'
p1110
sS'drel'
p1111
S'nmod__adj:NP6'
p1112
sS'chunktype'
p1113
S'child:NP6'
p1114
sS'af'
p1115
S'\xe0\xa5\xa7\xe0\xa5\xab\xe0\xa5\xa6,num,any,any,,any,,'
p1116
ssbsg26
I00
sg27
I00
sg28
Nsg29
Nsg30
I8
sg31
I2
sg32
Nsg33
Nsg34
S'QC'
p1117
sg36
g1104
sg37
I00
sba(issf_api
Word
p1118
(dp1119
g6
I00
sg7
V\u0915\u093e\u0930\u094d\u092f\u0915\u0930\u094d\u0924\u093e\u0913\u0902
p1120
sg9
(issf_api
FeatureSet
p1121
(dp1122
g12
(dp1123
S'posn'
p1124
S'180'
p1125
sS'name'
p1126
S'\xe0\xa4\x95\xe0\xa4\xbe\xe0\xa4\xb0\xe0\xa5\x8d\xe0\xa4\xaf\xe0\xa4\x95\xe0\xa4\xb0\xe0\xa5\x8d\xe0\xa4\xa4\xe0\xa4\xbe\xe0\xa4\x93\xe0\xa4\x82'
p1127
sS'af'
p1128
S'\xe0\xa4\x95\xe0\xa4\xbe\xe0\xa4\xb0\xe0\xa5\x8d\xe0\xa4\xaf\xe0\xa4\x95\xe0\xa4\xb0\xe0\xa5\x8d\xe0\xa4\xa4\xe0\xa4\xbe,n,m,pl,3,o,0_\xe0\xa4\xa8\xe0\xa5\x87,0'
p1129
sS'chunkid'
p1130
S'NP6'
p1131
sS'drel'
p1132
S'k1:VGF2'
p1133
sS'vpos'
p1134
S'vib_3'
p1135
sS'chunktype'
p1136
S'head:NP6'
p1137
ssbsg26
I00
sg27
I00
sg28
Nsg29
Nsg30
I8
sg31
I2
sg32
Nsg33
Nsg34
S'NN'
p1138
sg36
g1121
sg37
I00
sba(issf_api
Word
p1139
(dp1140
g6
I00
sg7
V\u0928\u0947
p1141
sg9
(issf_api
FeatureSet
p1142
(dp1143
g12
(dp1144
S'posn'
p1145
S'190'
p1146
sS'name'
p1147
S'\xe0\xa4\xa8\xe0\xa5\x87'
p1148
sS'drel'
p1149
S'lwg__psp:NP6'
p1150
sS'chunktype'
p1151
S'child:NP6'
p1152
sS'af'
p1153
S'\xe0\xa4\xa8\xe0\xa5\x87,psp,,,,,,'
p1154
ssbsg26
I00
sg27
I00
sg28
Nsg29
Nsg30
I8
sg31
I2
sg32
Nsg33
Nsg34
S'PSP'
p1155
sg36
g1142
sg37
I00
sba(issf_api
Word
p1156
(dp1157
g6
I00
sg7
V\u0915\u0947\u0902\u0926\u094d\u0930
p1158
sg9
(issf_api
FeatureSet
p1159
(dp1160
g12
(dp1161
S'posn'
p1162
S'200'
p1163
sS'name'
p1164
S'\xe0\xa4\x95\xe0\xa5\x87\xe0\xa4\x82\xe0\xa4\xa6\xe0\xa5\x8d\xe0\xa4\xb0'
p1165
sS'af'
p1166
S'\xe0\xa4\x95\xe0\xa5\x87\xe0\xa4\x82\xe0\xa4\xa6\xe0\xa5\x8d\xe0\xa4\xb0,n,m,sg,3,d,0,0'
p1167
sS'drel'
p1168
S'pof__cn:NP7'
p1169
sS'chunktype'
p1170
S'child:NP7'
p1171
sS'cref'
p1172
S'i11%0:t5'
p1173
ssbsg26
I00
sg27
I00
sg28
Nsg29
Nsg30
I9
sg31
I2
sg32
Nsg33
Nsg34
S'NNPC'
p1174
sg36
g1159
sg37
I00
sba(issf_api
Word
p1175
(dp1176
g6
I00
sg7
V\u0938\u0930\u0915\u093e\u0930
p1177
sg9
(issf_api
FeatureSet
p1178
(dp1179
g12
(dp1180
S'posn'
p1181
S'210'
p1182
sS'name'
p1183
S'\xe0\xa4\xb8\xe0\xa4\xb0\xe0\xa4\x95\xe0\xa4\xbe\xe0\xa4\xb0'
p1184
sS'af'
p1185
S'\xe0\xa4\xb8\xe0\xa4\xb0\xe0\xa4\x95\xe0\xa4\xbe\xe0\xa4\xb0,n,f,sg,3,o,0_\xe0\xa4\x95\xe0\xa4\xbe,0'
p1186
sS'chunkid'
p1187
S'NP7'
p1188
sS'drel'
p1189
S'r6:NP8'
p1190
sS'chunktype'
p1191
S'head:NP7'
p1192
sS'vpos'
p1193
S'vib_3'
p1194
sS'cref'
p1195
S'i11%0:t5'
p1196
ssbsg26
I00
sg27
I00
sg28
Nsg29
Nsg30
I9
sg31
I2
sg32
Nsg33
Nsg34
S'NNP'
p1197
sg36
g1178
sg37
I00
sba(issf_api
Word
p1198
(dp1199
g6
I00
sg7
V\u0915\u0947
p1200
sg9
(issf_api
FeatureSet
p1201
(dp1202
g12
(dp1203
S'posn'
p1204
S'220'
p1205
sS'name'
p1206
S'\xe0\xa4\x95\xe0\xa5\x873'
p1207
sS'af'
p1208
S'\xe0\xa4\x95\xe0\xa4\xbe,psp,m,pl,,o,,'
p1209
sS'drel'
p1210
S'lwg__psp:NP7'
p1211
sS'chunktype'
p1212
S'child:NP7'
p1213
sS'cref'
p1214
S'i11%0:t5'
p1215
ssbsg26
I00
sg27
I00
sg28
Nsg29
Nsg30
I9
sg31
I2
sg32
Nsg33
Nsg34
S'PSP'
p1216
sg36
g1201
sg37
I00
sba(issf_api
Word
p1217
(dp1218
g6
I00
sg7
V\u0915\u093e\u0930\u094d\u092f\u093e\u0932\u092f\u094b\u0902
p1219
sg9
(issf_api
FeatureSet
p1220
(dp1221
g12
(dp1222
S'posn'
p1223
S'230'
p1224
sS'name'
p1225
S'\xe0\xa4\x95\xe0\xa4\xbe\xe0\xa4\xb0\xe0\xa5\x8d\xe0\xa4\xaf\xe0\xa4\xbe\xe0\xa4\xb2\xe0\xa4\xaf\xe0\xa5\x8b\xe0\xa4\x82'
p1226
sS'af'
p1227
S'\xe0\xa4\x95\xe0\xa4\xbe\xe0\xa4\xb0\xe0\xa5\x8d\xe0\xa4\xaf\xe0\xa4\xbe\xe0\xa4\xb2\xe0\xa4\xaf,n,m,pl,3,o,0_\xe0\xa4\xaa\xe0\xa4\xb0,0'
p1228
sS'chunkid'
p1229
S'NP8'
p1230
sS'drel'
p1231
S'k7p:VGF2'
p1232
sS'chunktype'
p1233
S'head:NP8'
p1234
sS'vpos'
p1235
S'vib_2'
p1236
sS'cref'
p1237
S'i11%0:t5'
p1238
ssbsg26
I00
sg27
I00
sg28
Nsg29
Nsg30
I10
sg31
I2
sg32
Nsg33
Nsg34
S'NN'
p1239
sg36
g1220
sg37
I00
sba(issf_api
Word
p1240
(dp1241
g6
I00
sg7
V\u092a\u0930
p1242
sg9
(issf_api
FeatureSet
p1243
(dp1244
g12
(dp1245
S'posn'
p1246
S'240'
p1247
sS'name'
p1248
S'\xe0\xa4\xaa\xe0\xa4\xb0'
p1249
sS'af'
p1250
S'\xe0\xa4\xaa\xe0\xa4\xb0,psp,,,,,,'
p1251
sS'drel'
p1252
S'lwg__psp:NP8'
p1253
sS'chunktype'
p1254
S'child:NP8'
p1255
sS'cref'
p1256
S'i11%0:t5'
p1257
ssbsg26
I00
sg27
I00
sg28
Nsg29
Nsg30
I10
sg31
I2
sg32
Nsg33
Nsg34
S'PSP'
p1258
sg36
g1243
sg37
I00
sba(issf_api
Word
p1259
(dp1260
g6
I00
sg7
V\u0924\u093e\u0932\u093e
p1261
sg9
(issf_api
FeatureSet
p1262
(dp1263
g12
(dp1264
S'posn'
p1265
S'250'
p1266
sS'name'
p1267
S'\xe0\xa4\xa4\xe0\xa4\xbe\xe0\xa4\xb2\xe0\xa4\xbe'
p1268
sS'af'
p1269
S'\xe0\xa4\xa4\xe0\xa4\xbe\xe0\xa4\xb2\xe0\xa4\xbe,n,m,sg,3,d,0,0'
p1270
sS'chunkid'
p1271
S'NP9'
p1272
sS'drel'
p1273
S'k2:VGF2'
p1274
sS'chunktype'
p1275
S'head:NP9'
p1276
sS'cref'
p1277
S'i11%0:t5'
p1278
ssbsg26
I00
sg27
I00
sg28
Nsg29
Nsg30
I11
sg31
I2
sg32
Nsg33
Nsg34
S'NN'
p1279
sg36
g1262
sg37
I00
sba(issf_api
Word
p1280
(dp1281
g6
I00
sg7
V\u0932\u0917\u093e
p1282
sg9
(issf_api
FeatureSet
p1283
(dp1284
g12
(dp1285
S'crefhead'
p1286
S'\xe0\xa4\xb2\xe0\xa4\x97\xe0\xa4\xbe:i11'
p1287
sS'posn'
p1288
S'260'
p1289
sS'name'
p1290
S'\xe0\xa4\xb2\xe0\xa4\x97\xe0\xa4\xbe'
p1291
sS'af'
p1292
S'\xe0\xa4\xb2\xe0\xa4\x97\xe0\xa4\xbe,v,m,sg,any,,0_\xe0\xa4\xa6\xe0\xa5\x87+\xe0\xa4\xaf\xe0\xa4\xbe_\xe0\xa4\xa5\xe0\xa4\xbe,0'
p1293
sS'chunkid'
p1294
S'VGF2'
p1295
sS'stype'
p1296
S'declarative'
p1297
sS'chunktype'
p1298
S'head:VGF2'
p1299
sS'crefchainhead'
p1300
S'i11:t5'
p1301
sS'voicetype'
p1302
S'active'
p1303
sS'vpos'
p1304
S'tam_2_3'
p1305
sS'cref'
p1306
S'i11%0:t5'
p1307
sS'drel'
p1308
S'ccof:CCP'
p1309
ssbsg26
I00
sg27
I00
sg28
Nsg29
Nsg30
I12
sg31
I2
sg32
Nsg33
Nsg34
S'VM'
p1310
sg36
g1283
sg37
I00
sba(issf_api
Word
p1311
(dp1312
g6
I00
sg7
V\u0926\u093f\u092f\u093e
p1313
sg9
(issf_api
FeatureSet
p1314
(dp1315
g12
(dp1316
S'posn'
p1317
S'270'
p1318
sS'name'
p1319
S'\xe0\xa4\xa6\xe0\xa4\xbf\xe0\xa4\xaf\xe0\xa4\xbe'
p1320
sS'af'
p1321
S'\xe0\xa4\xa6\xe0\xa5\x87,v,m,sg,any,,\xe0\xa4\xaf\xe0\xa4\xbe,yA'
p1322
sS'drel'
p1323
S'lwg__vaux:VGF2'
p1324
sS'chunktype'
p1325
S'child:VGF2'
p1326
sS'cref'
p1327
S'i11%0:t5'
p1328
ssbsg26
I00
sg27
I00
sg28
Nsg29
Nsg30
I12
sg31
I2
sg32
Nsg33
Nsg34
S'VAUX'
p1329
sg36
g1314
sg37
I00
sba(issf_api
Word
p1330
(dp1331
g6
I00
sg7
V\u0925\u093e
p1332
sg9
(issf_api
FeatureSet
p1333
(dp1334
g12
(dp1335
S'posn'
p1336
S'280'
p1337
sS'name'
p1338
S'\xe0\xa4\xa5\xe0\xa4\xbe'
p1339
sS'af'
p1340
S'\xe0\xa4\xa5\xe0\xa4\xbe,v,m,sg,any,,\xe0\xa4\xa5\xe0\xa4\xbe,WA'
p1341
sS'drel'
p1342
S'lwg__vaux:VGF2'
p1343
sS'chunktype'
p1344
S'child:VGF2'
p1345
sS'cref'
p1346
S'i11%1:t5'
p1347
ssbsg26
I00
sg27
I00
sg28
Nsg29
Nsg30
I12
sg31
I2
sg32
Nsg33
Nsg34
S'VAUX'
p1348
sg36
g1333
sg37
I00
sba(issf_api
Word
p1349
(dp1350
g6
I00
sg7
V\u0964
p1351
sg9
(issf_api
FeatureSet
p1352
(dp1353
g12
(dp1354
S'posn'
p1355
S'290'
p1356
sS'name'
p1357
S'\xe0\xa5\xa4'
p1358
sS'af'
p1359
S'\xe0\xa5\xa4,punc,,,,,,'
p1360
sS'chunkid'
p1361
S'BLK'
p1362
sS'drel'
p1363
S'rsym:VGF'
p1364
sS'chunktype'
p1365
S'head:BLK'
p1366
ssbsg26
I00
sg27
I00
sg28
Nsg29
Nsg30
I13
sg31
I2
sg32
Nsg33
Nsg34
S'SYM'
p1367
sg36
g1352
sg37
I00
sba(issf_api
Word
p1368
(dp1369
g6
I00
sg7
V\u0907\u0938
p1370
sg9
(issf_api
FeatureSet
p1371
(dp1372
g12
(dp1373
S'crefhead'
p1374
S'\xe0\xa4\x87\xe0\xa4\xb8:i12'
p1375
sS'posn'
p1376
S'10'
p1377
sS'name'
p1378
S'\xe0\xa4\x87\xe0\xa4\xb8'
p1379
sS'af'
p1380
S'\xe0\xa4\xaf\xe0\xa4\xb9,pn,any,sg,3,o,0_\xe0\xa4\xaa\xe0\xa4\xb0,0'
p1381
sS'chunkid'
p1382
S'NP'
p1383
sS'creftype'
p1384
S'Anaphora-E:i11'
p1385
sS'chunktype'
p1386
S'head:NP'
p1387
sS'vpos'
p1388
S'vib_2'
p1389
sS'cref'
p1390
S'i12%1:t5'
p1391
sS'drel'
p1392
S'k7:VGF'
p1393
ssbsg26
I00
sg27
I00
sg28
Nsg29
Nsg30
I0
sg31
I3
sg32
Nsg33
Nsg34
S'PRP'
p1394
sg36
g1371
sg37
I00
sba(issf_api
Word
p1395
(dp1396
g6
I00
sg7
V\u092a\u0930
p1397
sg9
(issf_api
FeatureSet
p1398
(dp1399
g12
(dp1400
S'posn'
p1401
S'20'
p1402
sS'name'
p1403
S'\xe0\xa4\xaa\xe0\xa4\xb0'
p1404
sS'drel'
p1405
S'lwg__psp:NP'
p1406
sS'chunktype'
p1407
S'child:NP'
p1408
sS'af'
p1409
S'\xe0\xa4\xaa\xe0\xa4\xb0,psp,,,,,,'
p1410
ssbsg26
I00
sg27
I00
sg28
Nsg29
Nsg30
I0
sg31
I3
sg32
Nsg33
Nsg34
S'PSP'
p1411
sg36
g1398
sg37
I00
sba(issf_api
Word
p1412
(dp1413
g6
I00
sg7
V\u0938\u093f\u0928\u094d\u0939\u093e
p1414
sg9
(issf_api
FeatureSet
p1415
(dp1416
g12
(dp1417
S'crefhead'
p1418
S'\xe0\xa4\xb8\xe0\xa4\xbf\xe0\xa4\xa8\xe0\xa5\x8d\xe0\xa4\xb9\xe0\xa4\xbe:i13'
p1419
sS'posn'
p1420
S'30'
p1421
sS'name'
p1422
S'\xe0\xa4\xb8\xe0\xa4\xbf\xe0\xa4\xa8\xe0\xa5\x8d\xe0\xa4\xb9\xe0\xa4\xbe'
p1423
sS'af'
p1424
S'\xe0\xa4\xb8\xe0\xa4\xbf\xe0\xa4\xa8\xe0\xa5\x8d\xe0\xa4\xb9\xe0\xa4\xbe,n,m,sg,3,o,0_\xe0\xa4\x95\xe0\xa5\x8b,0'
p1425
sS'chunkid'
p1426
S'NP2'
p1427
sS'creftype'
p1428
S'Coreference-Identity:i9'
p1429
sS'chunktype'
p1430
S'head:NP2'
p1431
sS'vpos'
p1432
S'vib_2'
p1433
sS'cref'
p1434
S'i13%1:t1'
p1435
sS'drel'
p1436
S'k2:VGF'
p1437
ssbsg26
I00
sg27
I00
sg28
Nsg29
Nsg30
I1
sg31
I3
sg32
Nsg33
Nsg34
S'NNP'
p1438
sg36
g1415
sg37
I00
sba(issf_api
Word
p1439
(dp1440
g6
I00
sg7
V\u0915\u094b
p1441
sg9
(issf_api
FeatureSet
p1442
(dp1443
g12
(dp1444
S'posn'
p1445
S'40'
p1446
sS'name'
p1447
S'\xe0\xa4\x95\xe0\xa5\x8b'
p1448
sS'drel'
p1449
S'lwg__psp:NP2'
p1450
sS'chunktype'
p1451
S'child:NP2'
p1452
sS'af'
p1453
S'\xe0\xa4\x95\xe0\xa5\x8b,psp,,,,,,'
p1454
ssbsg26
I00
sg27
I00
sg28
Nsg29
Nsg30
I1
sg31
I3
sg32
Nsg33
Nsg34
S'PSP'
p1455
sg36
g1442
sg37
I00
sba(issf_api
Word
p1456
(dp1457
g6
I00
sg7
V\u0938\u0940\u0906\u0930\u092a\u0940\u0938\u0940
p1458
sg9
(issf_api
FeatureSet
p1459
(dp1460
g12
(dp1461
S'posn'
p1462
S'50'
p1463
sS'name'
p1464
S'\xe0\xa4\xb8\xe0\xa5\x80\xe0\xa4\x86\xe0\xa4\xb0\xe0\xa4\xaa\xe0\xa5\x80\xe0\xa4\xb8\xe0\xa5\x80'
p1465
sS'af'
p1466
S'\xe0\xa4\xb8\xe0\xa5\x80\xe0\xa4\x86\xe0\xa4\xb0\xe0\xa4\xaa\xe0\xa5\x80\xe0\xa4\xb8\xe0\xa5\x80,n,m,sg,3,o,0_\xe0\xa4\x95\xe0\xa4\xbe,0'
p1467
sS'chunkid'
p1468
S'NP3'
p1469
sS'drel'
p1470
S'r6:NP4'
p1471
sS'vpos'
p1472
S'vib_2'
p1473
sS'chunktype'
p1474
S'head:NP3'
p1475
ssbsg26
I00
sg27
I00
sg28
Nsg29
Nsg30
I2
sg31
I3
sg32
Nsg33
Nsg34
S'NNP'
p1476
sg36
g1459
sg37
I00
sba(issf_api
Word
p1477
(dp1478
g6
I00
sg7
V\u0915\u0940
p1479
sg9
(issf_api
FeatureSet
p1480
(dp1481
g12
(dp1482
S'posn'
p1483
S'60'
p1484
sS'name'
p1485
S'\xe0\xa4\x95\xe0\xa5\x80'
p1486
sS'drel'
p1487
S'lwg__psp:NP3'
p1488
sS'chunktype'
p1489
S'child:NP3'
p1490
sS'af'
p1491
S'\xe0\xa4\x95\xe0\xa4\xbe,psp,f,sg,,o,,'
p1492
ssbsg26
I00
sg27
I00
sg28
Nsg29
Nsg30
I2
sg31
I3
sg32
Nsg33
Nsg34
S'PSP'
p1493
sg36
g1480
sg37
I00
sba(issf_api
Word
p1494
(dp1495
g6
I00
sg7
V\u0927\u093e\u0930\u093e
p1496
sg9
(issf_api
FeatureSet
p1497
(dp1498
g12
(dp1499
S'posn'
p1500
S'70'
p1501
sS'name'
p1502
S'\xe0\xa4\xa7\xe0\xa4\xbe\xe0\xa4\xb0\xe0\xa4\xbe'
p1503
sS'drel'
p1504
S'pof__cn:NP4'
p1505
sS'chunktype'
p1506
S'child:NP4'
p1507
sS'af'
p1508
S'\xe0\xa4\xa7\xe0\xa4\xbe\xe0\xa4\xb0\xe0\xa4\xbe,n,f,sg,3,d,0,0'
p1509
ssbsg26
I00
sg27
I00
sg28
Nsg29
Nsg30
I3
sg31
I3
sg32
Nsg33
Nsg34
S'NNPC'
p1510
sg36
g1497
sg37
I00
sba(issf_api
Word
p1511
(dp1512
g6
I00
sg7
V\u0967\u096b\u0967
p1513
sg9
(issf_api
FeatureSet
p1514
(dp1515
g12
(dp1516
S'posn'
p1517
S'80'
p1518
sS'name'
p1519
S'\xe0\xa5\xa7\xe0\xa5\xab\xe0\xa5\xa7'
p1520
sS'af'
p1521
S'\xe0\xa5\xa7\xe0\xa5\xab\xe0\xa5\xa7,num,any,any,,any,0_\xe0\xa4\x95\xe0\xa5\x87_\xe0\xa4\xa4\xe0\xa4\xb9\xe0\xa4\xa4,'
p1522
sS'chunkid'
p1523
S'NP4'
p1524
sS'drel'
p1525
S'k7a:VGF'
p1526
sS'vpos'
p1527
S'vib_3_4'
p1528
sS'chunktype'
p1529
S'head:NP4'
p1530
ssbsg26
I00
sg27
I00
sg28
Nsg29
Nsg30
I3
sg31
I3
sg32
Nsg33
Nsg34
S'NNP'
p1531
sg36
g1514
sg37
I00
sba(issf_api
Word
p1532
(dp1533
g6
I00
sg7
V\u0915\u0947
p1534
sg9
(issf_api
FeatureSet
p1535
(dp1536
g12
(dp1537
S'posn'
p1538
S'90'
p1539
sS'name'
p1540
S'\xe0\xa4\x95\xe0\xa5\x87'
p1541
sS'drel'
p1542
S'lwg__psp:NP4'
p1543
sS'chunktype'
p1544
S'child:NP4'
p1545
sS'af'
p1546
S'\xe0\xa4\x95\xe0\xa5\x87,psp,,,,,,'
p1547
ssbsg26
I00
sg27
I00
sg28
Nsg29
Nsg30
I3
sg31
I3
sg32
Nsg33
Nsg34
S'PSP'
p1548
sg36
g1535
sg37
I00
sba(issf_api
Word
p1549
(dp1550
g6
I00
sg7
V\u0924\u0939\u0924
p1551
sg9
(issf_api
FeatureSet
p1552
(dp1553
g12
(dp1554
S'posn'
p1555
S'100'
p1556
sS'name'
p1557
S'\xe0\xa4\xa4\xe0\xa4\xb9\xe0\xa4\xa4'
p1558
sS'drel'
p1559
S'lwg__psp:NP4'
p1560
sS'chunktype'
p1561
S'child:NP4'
p1562
sS'af'
p1563
S'\xe0\xa4\xa4\xe0\xa4\xb9\xe0\xa4\xa4,psp,,,,,,'
p1564
ssbsg26
I00
sg27
I00
sg28
Nsg29
Nsg30
I3
sg31
I3
sg32
Nsg33
Nsg34
S'PSP'
p1565
sg36
g1552
sg37
I00
sba(issf_api
Word
p1566
(dp1567
g6
I00
sg7
V\u0917\u093f\u0930\u092b\u094d\u0924\u093e\u0930
p1568
sg9
(issf_api
FeatureSet
p1569
(dp1570
g12
(dp1571
S'posn'
p1572
S'110'
p1573
sS'name'
p1574
S'\xe0\xa4\x97\xe0\xa4\xbf\xe0\xa4\xb0\xe0\xa4\xab\xe0\xa5\x8d\xe0\xa4\xa4\xe0\xa4\xbe\xe0\xa4\xb0'
p1575
sS'af'
p1576
S'\xe0\xa4\x97\xe0\xa4\xbf\xe0\xa4\xb0\xe0\xa4\xab\xe0\xa5\x8d\xe0\xa4\xa4\xe0\xa4\xbe\xe0\xa4\xb0,adj,any,any,,,,'
p1577
sS'chunkid'
p1578
S'JJP'
p1579
sS'drel'
p1580
S'pof:VGF'
p1581
sS'chunktype'
p1582
S'head:JJP'
p1583
ssbsg26
I00
sg27
I00
sg28
Nsg29
Nsg30
I4
sg31
I3
sg32
Nsg33
Nsg34
S'JJ'
p1584
sg36
g1569
sg37
I00
sba(issf_api
Word
p1585
(dp1586
g6
I00
sg7
V\u0915\u093f\u092f\u093e
p1587
sg9
(issf_api
FeatureSet
p1588
(dp1589
g12
(dp1590
S'posn'
p1591
S'120'
p1592
sS'name'
p1593
S'\xe0\xa4\x95\xe0\xa4\xbf\xe0\xa4\xaf\xe0\xa4\xbe'
p1594
sS'af'
p1595
S'\xe0\xa4\x95\xe0\xa4\xb0,v,m,sg,any,,\xe0\xa4\xaf\xe0\xa4\xbe_\xe0\xa4\x9c\xe0\xa4\xbe+\xe0\xa4\xaf\xe0\xa4\xbe\xe0\xa5\xa7_\xe0\xa4\xa5\xe0\xa4\xbe,yA'
p1596
sS'chunkid'
p1597
S'VGF'
p1598
sS'chunktype'
p1599
S'head:VGF'
p1600
sS'voicetype'
p1601
S'passive'
p1602
sS'vpos'
p1603
S'tam_2_3'
p1604
sS'stype'
p1605
S'declarative'
p1606
ssbsg26
I00
sg27
I00
sg28
Nsg29
Nsg30
I5
sg31
I3
sg32
Nsg33
Nsg34
S'VM'
p1607
sg36
g1588
sg37
I00
sba(issf_api
Word
p1608
(dp1609
g6
I00
sg7
V\u0917\u092f\u093e
p1610
sg9
(issf_api
FeatureSet
p1611
(dp1612
g12
(dp1613
S'posn'
p1614
S'130'
p1615
sS'name'
p1616
S'\xe0\xa4\x97\xe0\xa4\xaf\xe0\xa4\xbe'
p1617
sS'drel'
p1618
S'lwg__vaux:VGF'
p1619
sS'chunktype'
p1620
S'child:VGF'
p1621
sS'af'
p1622
S'\xe0\xa4\x9c\xe0\xa4\xbe,v,m,sg,any,,\xe0\xa4\xaf\xe0\xa4\xbe\xe0\xa5\xa7,yA1'
p1623
ssbsg26
I00
sg27
I00
sg28
Nsg29
Nsg30
I5
sg31
I3
sg32
Nsg33
Nsg34
S'VAUX'
p1624
sg36
g1611
sg37
I00
sba(issf_api
Word
p1625
(dp1626
g6
I00
sg7
V\u0925\u093e
p1627
sg9
(issf_api
FeatureSet
p1628
(dp1629
g12
(dp1630
S'posn'
p1631
S'140'
p1632
sS'name'
p1633
S'\xe0\xa4\xa5\xe0\xa4\xbe'
p1634
sS'drel'
p1635
S'lwg__vaux:VGF'
p1636
sS'chunktype'
p1637
S'child:VGF'
p1638
sS'af'
p1639
S'\xe0\xa4\xa5\xe0\xa4\xbe,v,m,sg,any,,\xe0\xa4\xa5\xe0\xa4\xbe,WA'
p1640
ssbsg26
I00
sg27
I00
sg28
Nsg29
Nsg30
I5
sg31
I3
sg32
Nsg33
Nsg34
S'VAUX'
p1641
sg36
g1628
sg37
I00
sba(issf_api
Word
p1642
(dp1643
g6
I00
sg7
V\u0964
p1644
sg9
(issf_api
FeatureSet
p1645
(dp1646
g12
(dp1647
S'posn'
p1648
S'150'
p1649
sS'name'
p1650
S'\xe0\xa5\xa4'
p1651
sS'af'
p1652
S'\xe0\xa5\xa4,punc,,,,,,'
p1653
sS'chunkid'
p1654
S'BLK'
p1655
sS'drel'
p1656
S'rsym:VGF'
p1657
sS'chunktype'
p1658
S'head:BLK'
p1659
ssbsg26
I00
sg27
I00
sg28
Nsg29
Nsg30
I6
sg31
I3
sg32
Nsg33
Nsg34
S'SYM'
p1660
sg36
g1645
sg37
I00
sba(issf_api
Word
p1661
(dp1662
g6
I00
sg7
V\u092c\u093e\u0926
p1663
sg9
(issf_api
FeatureSet
p1664
(dp1665
g12
(dp1666
S'posn'
p1667
S'10'
p1668
sS'name'
p1669
S'\xe0\xa4\xac\xe0\xa4\xbe\xe0\xa4\xa6'
p1670
sS'af'
p1671
S'\xe0\xa4\xac\xe0\xa4\xbe\xe0\xa4\xa6,nst,m,sg,3,o,0_\xe0\xa4\xae\xe0\xa5\x87\xe0\xa4\x82,'
p1672
sS'chunkid'
p1673
S'NP'
p1674
sS'drel'
p1675
S'k7t:VGF'
p1676
sS'vpos'
p1677
S'2'
p1678
sS'chunktype'
p1679
S'head:NP'
p1680
ssbsg26
I00
sg27
I00
sg28
Nsg29
Nsg30
I0
sg31
I4
sg32
Nsg33
Nsg34
S'NST'
p1681
sg36
g1664
sg37
I00
sba(issf_api
Word
p1682
(dp1683
g6
I00
sg7
V\u092e\u0947\u0902
p1684
sg9
(issf_api
FeatureSet
p1685
(dp1686
g12
(dp1687
S'posn'
p1688
S'20'
p1689
sS'name'
p1690
S'\xe0\xa4\xae\xe0\xa5\x87\xe0\xa4\x82'
p1691
sS'drel'
p1692
S'lwg__psp:NP'
p1693
sS'chunktype'
p1694
S'child:NP'
p1695
sS'af'
p1696
S'\xe0\xa4\xae\xe0\xa5\x87\xe0\xa4\x82,psp,,,,,,'
p1697
ssbsg26
I00
sg27
I00
sg28
Nsg29
Nsg30
I0
sg31
I4
sg32
Nsg33
Nsg34
S'PSP'
p1698
sg36
g1685
sg37
I00
sba(issf_api
Word
p1699
(dp1700
g6
I00
sg7
V\u0939\u091c\u093e\u0930\u0940\u092c\u093e\u0917
p1701
sg9
(issf_api
FeatureSet
p1702
(dp1703
g12
(dp1704
S'posn'
p1705
S'30'
p1706
sS'name'
p1707
S'\xe0\xa4\xb9\xe0\xa4\x9c\xe0\xa4\xbe\xe0\xa4\xb0\xe0\xa5\x80\xe0\xa4\xac\xe0\xa4\xbe\xe0\xa4\x97'
p1708
sS'af'
p1709
S'\xe0\xa4\xb9\xe0\xa4\x9c\xe0\xa4\xbe\xe0\xa4\xb0\xe0\xa5\x80\xe0\xa4\xac\xe0\xa4\xbe\xe0\xa4\x97,n,m,sg,3,o,0_\xe0\xa4\x95\xe0\xa4\xbe,0'
p1710
sS'chunkid'
p1711
S'NP2'
p1712
sS'drel'
p1713
S'r6:NP3'
p1714
sS'vpos'
p1715
S'vib_2'
p1716
sS'chunktype'
p1717
S'head:NP2'
p1718
ssbsg26
I00
sg27
I00
sg28
Nsg29
Nsg30
I1
sg31
I4
sg32
Nsg33
Nsg34
S'NNP'
p1719
sg36
g1702
sg37
I00
sba(issf_api
Word
p1720
(dp1721
g6
I00
sg7
V\u0915\u0947
p1722
sg9
(issf_api
FeatureSet
p1723
(dp1724
g12
(dp1725
S'posn'
p1726
S'40'
p1727
sS'name'
p1728
S'\xe0\xa4\x95\xe0\xa5\x87'
p1729
sS'drel'
p1730
S'lwg__psp:NP2'
p1731
sS'chunktype'
p1732
S'child:NP2'
p1733
sS'af'
p1734
S'\xe0\xa4\x95\xe0\xa4\xbe,psp,m,sg,,o,,'
p1735
ssbsg26
I00
sg27
I00
sg28
Nsg29
Nsg30
I1
sg31
I4
sg32
Nsg33
Nsg34
S'PSP'
p1736
sg36
g1723
sg37
I00
sba(issf_api
Word
p1737
(dp1738
g6
I00
sg7
V\u092e\u0941\u0916\u094d\u092f
p1739
sg9
(issf_api
FeatureSet
p1740
(dp1741
g12
(dp1742
S'posn'
p1743
S'50'
p1744
sS'name'
p1745
S'\xe0\xa4\xae\xe0\xa5\x81\xe0\xa4\x96\xe0\xa5\x8d\xe0\xa4\xaf'
p1746
sS'drel'
p1747
S'nmod__adj:NP3'
p1748
sS'chunktype'
p1749
S'child:NP3'
p1750
sS'af'
p1751
S'\xe0\xa4\xae\xe0\xa5\x81\xe0\xa4\x96\xe0\xa5\x8d\xe0\xa4\xaf,adj,any,any,,any,,'
p1752
ssbsg26
I00
sg27
I00
sg28
Nsg29
Nsg30
I2
sg31
I4
sg32
Nsg33
Nsg34
S'JJ'
p1753
sg36
g1740
sg37
I00
sba(issf_api
Word
p1754
(dp1755
g6
I00
sg7
V\u0928\u094d\u092f\u093e\u092f\u093e\u092f\u093f\u0915
p1756
sg9
(issf_api
FeatureSet
p1757
(dp1758
g12
(dp1759
S'posn'
p1760
S'60'
p1761
sS'name'
p1762
S'\xe0\xa4\xa8\xe0\xa5\x8d\xe0\xa4\xaf\xe0\xa4\xbe\xe0\xa4\xaf\xe0\xa4\xbe\xe0\xa4\xaf\xe0\xa4\xbf\xe0\xa4\x95'
p1763
sS'drel'
p1764
S'nmod__adj:NP3'
p1765
sS'chunktype'
p1766
S'child:NP3'
p1767
sS'af'
p1768
S'\xe0\xa4\xa8\xe0\xa5\x8d\xe0\xa4\xaf\xe0\xa4\xbe\xe0\xa4\xaf\xe0\xa4\xbe\xe0\xa4\xaf\xe0\xa4\xbf\xe0\xa4\x95,adj,any,any,,o,,'
p1769
ssbsg26
I00
sg27
I00
sg28
Nsg29
Nsg30
I2
sg31
I4
sg32
Nsg33
Nsg34
S'JJ'
p1770
sg36
g1757
sg37
I00
sba(issf_api
Word
p1771
(dp1772
g6
I00
sg7
V\u092e\u091c\u093f\u0938\u094d\u091f\u094d\u0930\u0947\u091f
p1773
sg9
(issf_api
FeatureSet
p1774
(dp1775
g12
(dp1776
S'posn'
p1777
S'70'
p1778
sS'name'
p1779
S'\xe0\xa4\xae\xe0\xa4\x9c\xe0\xa4\xbf\xe0\xa4\xb8\xe0\xa5\x8d\xe0\xa4\x9f\xe0\xa5\x8d\xe0\xa4\xb0\xe0\xa5\x87\xe0\xa4\x9f'
p1780
sS'af'
p1781
S'\xe0\xa4\xae\xe0\xa4\x9c\xe0\xa4\xbf\xe0\xa4\xb8\xe0\xa5\x8d\xe0\xa4\x9f\xe0\xa5\x8d\xe0\xa4\xb0\xe0\xa5\x87\xe0\xa4\x9f,n,m,sg,3,o,0_\xe0\xa4\xa8\xe0\xa5\x87,0'
p1782
sS'chunkid'
p1783
S'NP3'
p1784
sS'drel'
p1785
S'k1:VGF'
p1786
sS'vpos'
p1787
S'vib_4'
p1788
sS'chunktype'
p1789
S'head:NP3'
p1790
ssbsg26
I00
sg27
I00
sg28
Nsg29
Nsg30
I2
sg31
I4
sg32
Nsg33
Nsg34
S'NN'
p1791
sg36
g1774
sg37
I00
sba(issf_api
Word
p1792
(dp1793
g6
I00
sg7
V\u0928\u0947
p1794
sg9
(issf_api
FeatureSet
p1795
(dp1796
g12
(dp1797
S'posn'
p1798
S'80'
p1799
sS'name'
p1800
S'\xe0\xa4\xa8\xe0\xa5\x87'
p1801
sS'drel'
p1802
S'lwg__psp:NP3'
p1803
sS'chunktype'
p1804
S'child:NP3'
p1805
sS'af'
p1806
S'\xe0\xa4\xa8\xe0\xa5\x87,psp,,,,,,'
p1807
ssbsg26
I00
sg27
I00
sg28
Nsg29
Nsg30
I2
sg31
I4
sg32
Nsg33
Nsg34
S'PSP'
p1808
sg36
g1795
sg37
I00
sba(issf_api
Word
p1809
(dp1810
g6
I00
sg7
V\u0909\u0928\u094d\u0939\u0947\u0902
p1811
sg9
(issf_api
FeatureSet
p1812
(dp1813
g12
(dp1814
S'crefhead'
p1815
S'\xe0\xa4\x89\xe0\xa4\xa8\xe0\xa5\x8d\xe0\xa4\xb9\xe0\xa5\x87\xe0\xa4\x82:i14'
p1816
sS'posn'
p1817
S'90'
p1818
sS'name'
p1819
S'\xe0\xa4\x89\xe0\xa4\xa8\xe0\xa5\x8d\xe0\xa4\xb9\xe0\xa5\x87\xe0\xa4\x82'
p1820
sS'af'
p1821
S'\xe0\xa4\xb5\xe0\xa4\xb9,pn,any,sg,3h,o,\xe0\xa4\x95\xe0\xa5\x8b,ko'
p1822
sS'chunkid'
p1823
S'NP4'
p1824
sS'creftype'
p1825
S'Anaphora-C:i13'
p1826
sS'chunktype'
p1827
S'head:NP4'
p1828
sS'cref'
p1829
S'i14%1:t1'
p1830
sS'drel'
p1831
S'k4:VGF'
p1832
ssbsg26
I00
sg27
I00
sg28
Nsg29
Nsg30
I3
sg31
I4
sg32
Nsg33
Nsg34
S'PRP'
p1833
sg36
g1812
sg37
I00
sba(issf_api
Word
p1834
(dp1835
g6
I00
sg7
V\u0928\u094d\u092f\u093e\u092f\u093e\u092f\u093f\u0915
p1836
sg9
(issf_api
FeatureSet
p1837
(dp1838
g12
(dp1839
S'posn'
p1840
S'100'
p1841
sS'name'
p1842
S'\xe0\xa4\xa8\xe0\xa5\x8d\xe0\xa4\xaf\xe0\xa4\xbe\xe0\xa4\xaf\xe0\xa4\xbe\xe0\xa4\xaf\xe0\xa4\xbf\xe0\xa4\x952'
p1843
sS'af'
p1844
S'\xe0\xa4\xa8\xe0\xa5\x8d\xe0\xa4\xaf\xe0\xa4\xbe\xe0\xa4\xaf\xe0\xa4\xbe\xe0\xa4\xaf\xe0\xa4\xbf\xe0\xa4\x95,adj,any,any,,o,,'
p1845
sS'drel'
p1846
S'nmod__adj:NP5'
p1847
sS'chunktype'
p1848
S'child:NP5'
p1849
sS'cref'
p1850
S'i15%0:t3'
p1851
ssbsg26
I00
sg27
I00
sg28
Nsg29
Nsg30
I4
sg31
I4
sg32
Nsg33
Nsg34
S'JJ'
p1852
sg36
g1837
sg37
I00
sba(issf_api
Word
p1853
(dp1854
g6
I00
sg7
V\u0939\u093f\u0930\u093e\u0938\u0924
p1855
sg9
(issf_api
FeatureSet
p1856
(dp1857
g12
(dp1858
S'crefhead'
p1859
S'\xe0\xa4\xb9\xe0\xa4\xbf\xe0\xa4\xb0\xe0\xa4\xbe\xe0\xa4\xb8\xe0\xa4\xa4:i15'
p1860
sS'posn'
p1861
S'110'
p1862
sS'name'
p1863
S'\xe0\xa4\xb9\xe0\xa4\xbf\xe0\xa4\xb0\xe0\xa4\xbe\xe0\xa4\xb8\xe0\xa4\xa4'
p1864
sS'af'
p1865
S'\xe0\xa4\xb9\xe0\xa4\xbf\xe0\xa4\xb0\xe0\xa4\xbe\xe0\xa4\xb8\xe0\xa4\xa4,n,f,sg,3,o,0_\xe0\xa4\xae\xe0\xa5\x87\xe0\xa4\x82,0'
p1866
sS'chunkid'
p1867
S'NP5'
p1868
sS'creftype'
p1869
S'Coreference-Identity:i5'
p1870
sS'chunktype'
p1871
S'head:NP5'
p1872
sS'vpos'
p1873
S'vib_3'
p1874
sS'cref'
p1875
S'i15%1:t3'
p1876
sS'drel'
p1877
S'k7:VGF'
p1878
ssbsg26
I00
sg27
I00
sg28
Nsg29
Nsg30
I4
sg31
I4
sg32
Nsg33
Nsg34
S'NN'
p1879
sg36
g1856
sg37
I00
sba(issf_api
Word
p1880
(dp1881
g6
I00
sg7
V\u092e\u0947\u0902
p1882
sg9
(issf_api
FeatureSet
p1883
(dp1884
g12
(dp1885
S'posn'
p1886
S'120'
p1887
sS'name'
p1888
S'\xe0\xa4\xae\xe0\xa5\x87\xe0\xa4\x822'
p1889
sS'drel'
p1890
S'lwg__psp:NP5'
p1891
sS'chunktype'
p1892
S'child:NP5'
p1893
sS'af'
p1894
S'\xe0\xa4\xae\xe0\xa5\x87\xe0\xa4\x82,psp,,,,,,'
p1895
ssbsg26
I00
sg27
I00
sg28
Nsg29
Nsg30
I4
sg31
I4
sg32
Nsg33
Nsg34
S'PSP'
p1896
sg36
g1883
sg37
I00
sba(issf_api
Word
p1897
(dp1898
g6
I00
sg7
V\u092d\u0947\u091c
p1899
sg9
(issf_api
FeatureSet
p1900
(dp1901
g12
(dp1902
S'posn'
p1903
S'130'
p1904
sS'name'
p1905
S'\xe0\xa4\xad\xe0\xa5\x87\xe0\xa4\x9c'
p1906
sS'af'
p1907
S'\xe0\xa4\xad\xe0\xa5\x87\xe0\xa4\x9c,v,m,sg,any,,0_\xe0\xa4\xa6\xe0\xa5\x87+\xe0\xa4\xaf\xe0\xa4\xbe_\xe0\xa4\xa5\xe0\xa4\xbe,0'
p1908
sS'chunkid'
p1909
S'VGF'
p1910
sS'chunktype'
p1911
S'head:VGF'
p1912
sS'voicetype'
p1913
S'active'
p1914
sS'vpos'
p1915
S'tam_2_3'
p1916
sS'stype'
p1917
S'declarative'
p1918
ssbsg26
I00
sg27
I00
sg28
Nsg29
Nsg30
I5
sg31
I4
sg32
Nsg33
Nsg34
S'VM'
p1919
sg36
g1900
sg37
I00
sba(issf_api
Word
p1920
(dp1921
g6
I00
sg7
V\u0926\u093f\u092f\u093e
p1922
sg9
(issf_api
FeatureSet
p1923
(dp1924
g12
(dp1925
S'posn'
p1926
S'140'
p1927
sS'name'
p1928
S'\xe0\xa4\xa6\xe0\xa4\xbf\xe0\xa4\xaf\xe0\xa4\xbe'
p1929
sS'drel'
p1930
S'lwg__vaux:VGF'
p1931
sS'chunktype'
p1932
S'child:VGF'
p1933
sS'af'
p1934
S'\xe0\xa4\xa6\xe0\xa5\x87,v,m,sg,any,,\xe0\xa4\xaf\xe0\xa4\xbe,yA'
p1935
ssbsg26
I00
sg27
I00
sg28
Nsg29
Nsg30
I5
sg31
I4
sg32
Nsg33
Nsg34
S'VAUX'
p1936
sg36
g1923
sg37
I00
sba(issf_api
Word
p1937
(dp1938
g6
I00
sg7
V\u0925\u093e
p1939
sg9
(issf_api
FeatureSet
p1940
(dp1941
g12
(dp1942
S'posn'
p1943
S'150'
p1944
sS'name'
p1945
S'\xe0\xa4\xa5\xe0\xa4\xbe'
p1946
sS'drel'
p1947
S'lwg__vaux:VGF'
p1948
sS'chunktype'
p1949
S'child:VGF'
p1950
sS'af'
p1951
S'\xe0\xa4\xa5\xe0\xa4\xbe,v,m,sg,any,,\xe0\xa4\xa5\xe0\xa4\xbe,WA'
p1952
ssbsg26
I00
sg27
I00
sg28
Nsg29
Nsg30
I5
sg31
I4
sg32
Nsg33
Nsg34
S'VAUX'
p1953
sg36
g1940
sg37
I00
sba(issf_api
Word
p1954
(dp1955
g6
I00
sg7
V\u0964
p1956
sg9
(issf_api
FeatureSet
p1957
(dp1958
g12
(dp1959
S'posn'
p1960
S'160'
p1961
sS'name'
p1962
S'\xe0\xa5\xa4'
p1963
sS'af'
p1964
S'\xe0\xa5\xa4,punc,,,,,,'
p1965
sS'chunkid'
p1966
S'BLK'
p1967
sS'drel'
p1968
S'rsym:VGF'
p1969
sS'chunktype'
p1970
S'head:BLK'
p1971
ssbsg26
I00
sg27
I00
sg28
Nsg29
Nsg30
I6
sg31
I4
sg32
Nsg33
Nsg34
S'SYM'
p1972
sg36
g1957
sg37
I00
sba(issf_api
Word
p1973
(dp1974
g6
I00
sg7
V\u0928\u0908
p1975
sg9
(issf_api
FeatureSet
p1976
(dp1977
g12
(dp1978
S'posn'
p1979
S'10'
p1980
sS'name'
p1981
S'\xe0\xa4\xa8\xe0\xa4\x88'
p1982
sS'drel'
p1983
S'pof__cn:NP'
p1984
sS'chunktype'
p1985
S'child:NP'
p1986
sS'af'
p1987
S'\xe0\xa4\xa8\xe0\xa4\xaf\xe0\xa4\xbe,n,f,sg,3,d,0,0'
p1988
ssbsg26
I00
sg27
I00
sg28
Nsg29
Nsg30
I0
sg31
I5
sg32
Nsg33
Nsg34
S'NNPC'
p1989
sg36
g1976
sg37
I00
sba(issf_api
Word
p1990
(dp1991
g6
I00
sg7
V\u0926\u093f\u0932\u094d\u0932\u0940
p1992
sg9
(issf_api
FeatureSet
p1993
(dp1994
g12
(dp1995
S'posn'
p1996
S'20'
p1997
sS'name'
p1998
S'\xe0\xa4\xa6\xe0\xa4\xbf\xe0\xa4\xb2\xe0\xa5\x8d\xe0\xa4\xb2\xe0\xa5\x80'
p1999
sS'af'
p2000
S'\xe0\xa4\xa6\xe0\xa4\xbf\xe0\xa4\xb2\xe0\xa5\x8d\xe0\xa4\xb2\xe0\xa5\x80,n,f,sg,3,o,0_\xe0\xa4\xae\xe0\xa5\x87\xe0\xa4\x82,0'
p2001
sS'chunkid'
p2002
S'NP'
p2003
sS'drel'
p2004
S'k7p:VGF'
p2005
sS'vpos'
p2006
S'vib_3'
p2007
sS'chunktype'
p2008
S'head:NP'
p2009
ssbsg26
I00
sg27
I00
sg28
Nsg29
Nsg30
I0
sg31
I5
sg32
Nsg33
Nsg34
S'NNP'
p2010
sg36
g1993
sg37
I00
sba(issf_api
Word
p2011
(dp2012
g6
I00
sg7
V\u092e\u0947\u0902
p2013
sg9
(issf_api
FeatureSet
p2014
(dp2015
g12
(dp2016
S'posn'
p2017
S'30'
p2018
sS'name'
p2019
S'\xe0\xa4\xae\xe0\xa5\x87\xe0\xa4\x82'
p2020
sS'drel'
p2021
S'lwg__psp:NP'
p2022
sS'chunktype'
p2023
S'child:NP'
p2024
sS'af'
p2025
S'\xe0\xa4\xae\xe0\xa5\x87\xe0\xa4\x82,psp,,,,,,'
p2026
ssbsg26
I00
sg27
I00
sg28
Nsg29
Nsg30
I0
sg31
I5
sg32
Nsg33
Nsg34
S'PSP'
p2027
sg36
g2014
sg37
I00
sba(issf_api
Word
p2028
(dp2029
g6
I00
sg7
V\u092a\u094d\u0930\u0927\u093e\u0928\u092e\u0902\u0924\u094d\u0930\u0940
p2030
sg9
(issf_api
FeatureSet
p2031
(dp2032
g12
(dp2033
S'crefhead'
p2034
S'\xe0\xa4\xaa\xe0\xa5\x8d\xe0\xa4\xb0\xe0\xa4\xa7\xe0\xa4\xbe\xe0\xa4\xa8\xe0\xa4\xae\xe0\xa4\x82\xe0\xa4\xa4\xe0\xa5\x8d\xe0\xa4\xb0\xe0\xa5\x80:i16'
p2035
sS'posn'
p2036
S'40'
p2037
sS'name'
p2038
S'\xe0\xa4\xaa\xe0\xa5\x8d\xe0\xa4\xb0\xe0\xa4\xa7\xe0\xa4\xbe\xe0\xa4\xa8\xe0\xa4\xae\xe0\xa4\x82\xe0\xa4\xa4\xe0\xa5\x8d\xe0\xa4\xb0\xe0\xa5\x80'
p2039
sS'af'
p2040
S'\xe0\xa4\xaa\xe0\xa5\x8d\xe0\xa4\xb0\xe0\xa4\xa7\xe0\xa4\xbe\xe0\xa4\xa8\xe0\xa4\xae\xe0\xa4\x82\xe0\xa4\xa4\xe0\xa5\x8d\xe0\xa4\xb0\xe0\xa5\x80,n,m,sg,3,d,0,0'
p2041
sS'drel'
p2042
S'nmod__adj:NP2'
p2043
sS'chunktype'
p2044
S'child:NP2'
p2045
sS'cref'
p2046
S'i16%1:t6'
p2047
ssbsg26
I00
sg27
I00
sg28
Nsg29
Nsg30
I1
sg31
I5
sg32
Nsg33
Nsg34
S'NNP'
p2048
sg36
g2031
sg37
I00
sba(issf_api
Word
p2049
(dp2050
g6
I00
sg7
V\u092e\u0928\u092e\u094b\u0939\u0928
p2051
sg9
(issf_api
FeatureSet
p2052
(dp2053
g12
(dp2054
S'posn'
p2055
S'50'
p2056
sS'name'
p2057
S'\xe0\xa4\xae\xe0\xa4\xa8\xe0\xa4\xae\xe0\xa5\x8b\xe0\xa4\xb9\xe0\xa4\xa8'
p2058
sS'af'
p2059
S'\xe0\xa4\xae\xe0\xa4\xa8\xe0\xa4\xae\xe0\xa5\x8b\xe0\xa4\xb9\xe0\xa4\xa8,n,m,sg,3,d,0,0'
p2060
sS'drel'
p2061
S'pof__cn:NP2'
p2062
sS'chunktype'
p2063
S'child:NP2'
p2064
sS'cref'
p2065
S'i17%0:t6'
p2066
ssbsg26
I00
sg27
I00
sg28
Nsg29
Nsg30
I1
sg31
I5
sg32
Nsg33
Nsg34
S'NNPC'
p2067
sg36
g2052
sg37
I00
sba(issf_api
Word
p2068
(dp2069
g6
I00
sg7
V\u0938\u093f\u0902\u0939
p2070
sg9
(issf_api
FeatureSet
p2071
(dp2072
g12
(dp2073
S'crefhead'
p2074
S'\xe0\xa4\xb8\xe0\xa4\xbf\xe0\xa4\x82\xe0\xa4\xb9:i17'
p2075
sS'posn'
p2076
S'60'
p2077
sS'name'
p2078
S'\xe0\xa4\xb8\xe0\xa4\xbf\xe0\xa4\x82\xe0\xa4\xb9'
p2079
sS'af'
p2080
S'\xe0\xa4\xb8\xe0\xa4\xbf\xe0\xa4\x82\xe0\xa4\xb9,n,m,sg,3,o,0_\xe0\xa4\x95\xe0\xa5\x87_\xe0\xa4\xb8\xe0\xa4\xbe\xe0\xa4\xa5,0'
p2081
sS'chunkid'
p2082
S'NP2'
p2083
sS'creftype'
p2084
S'Coreference-NounComplement:i16'
p2085
sS'chunktype'
p2086
S'head:NP2'
p2087
sS'crefchainhead'
p2088
S'i17:t6'
p2089
sS'vpos'
p2090
S'vib_vib_4_5'
p2091
sS'cref'
p2092
S'i17%1:t6'
p2093
sS'drel'
p2094
S'ras-k1:VGF'
p2095
ssbsg26
I00
sg27
I00
sg28
Nsg29
Nsg30
I1
sg31
I5
sg32
Nsg33
Nsg34
S'NNP'
p2096
sg36
g2071
sg37
I00
sba(issf_api
Word
p2097
(dp2098
g6
I00
sg7
V\u0915\u0947
p2099
sg9
(issf_api
FeatureSet
p2100
(dp2101
g12
(dp2102
S'posn'
p2103
S'70'
p2104
sS'name'
p2105
S'\xe0\xa4\x95\xe0\xa5\x87'
p2106
sS'drel'
p2107
S'lwg__psp:NP2'
p2108
sS'chunktype'
p2109
S'child:NP2'
p2110
sS'af'
p2111
S'\xe0\xa4\x95\xe0\xa5\x87,psp,,,,,,'
p2112
ssbsg26
I00
sg27
I00
sg28
Nsg29
Nsg30
I1
sg31
I5
sg32
Nsg33
Nsg34
S'PSP'
p2113
sg36
g2100
sg37
I00
sba(issf_api
Word
p2114
(dp2115
g6
I00
sg7
V\u0938\u093e\u0925
p2116
sg9
(issf_api
FeatureSet
p2117
(dp2118
g12
(dp2119
S'posn'
p2120
S'80'
p2121
sS'name'
p2122
S'\xe0\xa4\xb8\xe0\xa4\xbe\xe0\xa4\xa5'
p2123
sS'drel'
p2124
S'lwg__psp:NP2'
p2125
sS'chunktype'
p2126
S'child:NP2'
p2127
sS'af'
p2128
S'\xe0\xa4\xb8\xe0\xa4\xbe\xe0\xa4\xa5,nst,m,sg,3,d,,'
p2129
ssbsg26
I00
sg27
I00
sg28
Nsg29
Nsg30
I1
sg31
I5
sg32
Nsg33
Nsg34
S'NST'
p2130
sg36
g2117
sg37
I00
sba(issf_api
Word
p2131
(dp2132
g6
I00
sg7
V\u092d\u093e\u091c\u092a\u093e
p2133
sg9
(issf_api
FeatureSet
p2134
(dp2135
g12
(dp2136
S'crefhead'
p2137
S'\xe0\xa4\xad\xe0\xa4\xbe\xe0\xa4\x9c\xe0\xa4\xaa\xe0\xa4\xbe:i18'
p2138
sS'posn'
p2139
S'90'
p2140
sS'name'
p2141
S'\xe0\xa4\xad\xe0\xa4\xbe\xe0\xa4\x9c\xe0\xa4\xaa\xe0\xa4\xbe'
p2142
sS'af'
p2143
S'\xe0\xa4\xad\xe0\xa4\xbe\xe0\xa4\x9c\xe0\xa4\xaa\xe0\xa4\xbe,n,f,sg,3,d,0,0'
p2144
sS'creftype'
p2145
S'Coreference-Identity:i10'
p2146
sS'drel'
p2147
S'nmod__adj:NP3'
p2148
sS'chunktype'
p2149
S'child:NP3'
p2150
sS'cref'
p2151
S'i18%1:t2,i19%0:t7'
p2152
ssbsg26
I00
sg27
I00
sg28
Nsg29
Nsg30
I2
sg31
I5
sg32
Nsg33
Nsg34
S'NNP'
p2153
sg36
g2134
sg37
I00
sba(issf_api
Word
p2154
(dp2155
g6
I00
sg7
V\u0905\u0927\u094d\u092f\u0915\u094d\u0937
p2156
sg9
(issf_api
FeatureSet
p2157
(dp2158
g12
(dp2159
S'crefhead'
p2160
S'\xe0\xa4\x85\xe0\xa4\xa7\xe0\xa5\x8d\xe0\xa4\xaf\xe0\xa4\x95\xe0\xa5\x8d\xe0\xa4\xb7:i19'
p2161
sS'posn'
p2162
S'100'
p2163
sS'name'
p2164
S'\xe0\xa4\x85\xe0\xa4\xa7\xe0\xa5\x8d\xe0\xa4\xaf\xe0\xa4\x95\xe0\xa5\x8d\xe0\xa4\xb7'
p2165
sS'af'
p2166
S'\xe0\xa4\x85\xe0\xa4\xa7\xe0\xa5\x8d\xe0\xa4\xaf\xe0\xa4\x95\xe0\xa5\x8d\xe0\xa4\xb7,n,m,sg,3,d,0,0'
p2167
sS'drel'
p2168
S'nmod:NP3'
p2169
sS'chunktype'
p2170
S'child:NP3'
p2171
sS'cref'
p2172
S'i19%1:t7'
p2173
ssbsg26
I00
sg27
I00
sg28
Nsg29
Nsg30
I2
sg31
I5
sg32
Nsg33
Nsg34
S'NN'
p2174
sg36
g2157
sg37
I00
sba(issf_api
Word
p2175
(dp2176
g6
I00
sg7
V\u0930\u093e\u091c\u0928\u093e\u0925
p2177
sg9
(issf_api
FeatureSet
p2178
(dp2179
g12
(dp2180
S'posn'
p2181
S'110'
p2182
sS'name'
p2183
S'\xe0\xa4\xb0\xe0\xa4\xbe\xe0\xa4\x9c\xe0\xa4\xa8\xe0\xa4\xbe\xe0\xa4\xa5'
p2184
sS'af'
p2185
S'\xe0\xa4\xb0\xe0\xa4\xbe\xe0\xa4\x9c\xe0\xa4\xa8\xe0\xa4\xbe\xe0\xa4\xa5,n,m,sg,3,d,0,0'
p2186
sS'drel'
p2187
S'pof__cn:NP3'
p2188
sS'chunktype'
p2189
S'child:NP3'
p2190
sS'cref'
p2191
S'i20%0:t7'
p2192
ssbsg26
I00
sg27
I00
sg28
Nsg29
Nsg30
I2
sg31
I5
sg32
Nsg33
Nsg34
S'NNPC'
p2193
sg36
g2178
sg37
I00
sba(issf_api
Word
p2194
(dp2195
g6
I00
sg7
V\u0938\u093f\u0902\u0939
p2196
sg9
(issf_api
FeatureSet
p2197
(dp2198
g12
(dp2199
S'crefhead'
p2200
S'\xe0\xa4\xb8\xe0\xa4\xbf\xe0\xa4\x82\xe0\xa4\xb9:i20'
p2201
sS'posn'
p2202
S'120'
p2203
sS'name'
p2204
S'\xe0\xa4\xb8\xe0\xa4\xbf\xe0\xa4\x82\xe0\xa4\xb92'
p2205
sS'af'
p2206
S'\xe0\xa4\xb8\xe0\xa4\xbf\xe0\xa4\x82\xe0\xa4\xb9,n,m,sg,3,o,0_\xe0\xa4\x95\xe0\xa4\xbe,0'
p2207
sS'chunkid'
p2208
S'NP3'
p2209
sS'creftype'
p2210
S'Coreference-NounComplement:i19'
p2211
sS'chunktype'
p2212
S'head:NP3'
p2213
sS'crefchainhead'
p2214
S'i20:t7'
p2215
sS'vpos'
p2216
S'vib_vib_vib_5'
p2217
sS'cref'
p2218
S'i20%1:t7'
p2219
sS'drel'
p2220
S'r6:NP4'
p2221
ssbsg26
I00
sg27
I00
sg28
Nsg29
Nsg30
I2
sg31
I5
sg32
Nsg33
Nsg34
S'NNP'
p2222
sg36
g2197
sg37
I00
sba(issf_api
Word
p2223
(dp2224
g6
I00
sg7
V\u0915\u0940
p2225
sg9
(issf_api
FeatureSet
p2226
(dp2227
g12
(dp2228
S'posn'
p2229
S'130'
p2230
sS'name'
p2231
S'\xe0\xa4\x95\xe0\xa5\x80'
p2232
sS'drel'
p2233
S'lwg__psp:NP3'
p2234
sS'chunktype'
p2235
S'child:NP3'
p2236
sS'af'
p2237
S'\xe0\xa4\x95\xe0\xa4\xbe,psp,f,sg,,o,,'
p2238
ssbsg26
I00
sg27
I00
sg28
Nsg29
Nsg30
I2
sg31
I5
sg32
Nsg33
Nsg34
S'PSP'
p2239
sg36
g2226
sg37
I00
sba(issf_api
Word
p2240
(dp2241
g6
I00
sg7
V\u092e\u0941\u0932\u093e\u0915\u093e\u0924
p2242
sg9
(issf_api
FeatureSet
p2243
(dp2244
g12
(dp2245
S'posn'
p2246
S'140'
p2247
sS'name'
p2248
S'\xe0\xa4\xae\xe0\xa5\x81\xe0\xa4\xb2\xe0\xa4\xbe\xe0\xa4\x95\xe0\xa4\xbe\xe0\xa4\xa4'
p2249
sS'af'
p2250
S'\xe0\xa4\xae\xe0\xa5\x81\xe0\xa4\xb2\xe0\xa4\xbe\xe0\xa4\x95\xe0\xa4\xbe\xe0\xa4\xa4,n,f,sg,3,o,0_\xe0\xa4\x95\xe0\xa5\x87_\xe0\xa4\xac\xe0\xa4\xbe\xe0\xa4\xa6,0'
p2251
sS'chunkid'
p2252
S'NP4'
p2253
sS'drel'
p2254
S'k7t:VGF'
p2255
sS'vpos'
p2256
S'vib_2_3'
p2257
sS'chunktype'
p2258
S'head:NP4'
p2259
ssbsg26
I00
sg27
I00
sg28
Nsg29
Nsg30
I3
sg31
I5
sg32
Nsg33
Nsg34
S'NN'
p2260
sg36
g2243
sg37
I00
sba(issf_api
Word
p2261
(dp2262
g6
I00
sg7
V\u0915\u0947
p2263
sg9
(issf_api
FeatureSet
p2264
(dp2265
g12
(dp2266
S'posn'
p2267
S'150'
p2268
sS'name'
p2269
S'\xe0\xa4\x95\xe0\xa5\x872'
p2270
sS'drel'
p2271
S'lwg__psp:NP4'
p2272
sS'chunktype'
p2273
S'child:NP4'
p2274
sS'af'
p2275
S'\xe0\xa4\x95\xe0\xa5\x87,psp,,,,,,'
p2276
ssbsg26
I00
sg27
I00
sg28
Nsg29
Nsg30
I3
sg31
I5
sg32
Nsg33
Nsg34
S'PSP'
p2277
sg36
g2264
sg37
I00
sba(issf_api
Word
p2278
(dp2279
g6
I00
sg7
V\u092c\u093e\u0926
p2280
sg9
(issf_api
FeatureSet
p2281
(dp2282
g12
(dp2283
S'posn'
p2284
S'160'
p2285
sS'name'
p2286
S'\xe0\xa4\xac\xe0\xa4\xbe\xe0\xa4\xa6'
p2287
sS'drel'
p2288
S'lwg__psp:NP4'
p2289
sS'chunktype'
p2290
S'child:NP4'
p2291
sS'af'
p2292
S'\xe0\xa4\xac\xe0\xa4\xbe\xe0\xa4\xa6,nst,m,sg,3,d,,'
p2293
ssbsg26
I00
sg27
I00
sg28
Nsg29
Nsg30
I3
sg31
I5
sg32
Nsg33
Nsg34
S'NST'
p2294
sg36
g2281
sg37
I00
sba(issf_api
Word
p2295
(dp2296
g6
I00
sg7
V\u092c\u0941\u0927\u0935\u093e\u0930
p2297
sg9
(issf_api
FeatureSet
p2298
(dp2299
g12
(dp2300
S'crefhead'
p2301
S'\xe0\xa4\xac\xe0\xa5\x81\xe0\xa4\xa7\xe0\xa4\xb5\xe0\xa4\xbe\xe0\xa4\xb0:i22'
p2302
sS'posn'
p2303
S'170'
p2304
sS'name'
p2305
S'\xe0\xa4\xac\xe0\xa5\x81\xe0\xa4\xa7\xe0\xa4\xb5\xe0\xa4\xbe\xe0\xa4\xb0'
p2306
sS'af'
p2307
S'\xe0\xa4\xac\xe0\xa5\x81\xe0\xa4\xa7\xe0\xa4\xb5\xe0\xa4\xbe\xe0\xa4\xb0,n,m,sg,3,d,0,0'
p2308
sS'drel'
p2309
S'nmod__adj:NP5'
p2310
sS'crefchainhead'
p2311
S'i22:t9'
p2312
sS'chunktype'
p2313
S'child:NP5'
p2314
sS'cref'
p2315
S'i21%0:t8,i22%1:t9'
p2316
ssbsg26
I00
sg27
I00
sg28
Nsg29
Nsg30
I4
sg31
I5
sg32
Nsg33
Nsg34
S'NNP'
p2317
sg36
g2298
sg37
I00
sba(issf_api
Word
p2318
(dp2319
g6
I00
sg7
V\u0930\u093e\u0924
p2320
sg9
(issf_api
FeatureSet
p2321
(dp2322
g12
(dp2323
S'crefhead'
p2324
S'\xe0\xa4\xb0\xe0\xa4\xbe\xe0\xa4\xa4:i21'
p2325
sS'posn'
p2326
S'180'
p2327
sS'name'
p2328
S'\xe0\xa4\xb0\xe0\xa4\xbe\xe0\xa4\xa4'
p2329
sS'af'
p2330
S'\xe0\xa4\xb0\xe0\xa4\xbe\xe0\xa4\xa4,n,f,sg,3,d,0,0'
p2331
sS'chunkid'
p2332
S'NP5'
p2333
sS'chunktype'
p2334
S'head:NP5'
p2335
sS'crefchainhead'
p2336
S'i21:t8'
p2337
sS'cref'
p2338
S'i21%1:t8'
p2339
sS'drel'
p2340
S'k7t:VGF'
p2341
ssbsg26
I00
sg27
I00
sg28
Nsg29
Nsg30
I4
sg31
I5
sg32
Nsg33
Nsg34
S'NN'
p2342
sg36
g2321
sg37
I00
sba(issf_api
Word
p2343
(dp2344
g6
I00
sg7
V\u0938\u093f\u0928\u094d\u0939\u093e
p2345
sg9
(issf_api
FeatureSet
p2346
(dp2347
g12
(dp2348
S'crefhead'
p2349
S'\xe0\xa4\xb8\xe0\xa4\xbf\xe0\xa4\xa8\xe0\xa5\x8d\xe0\xa4\xb9\xe0\xa4\xbe:i23'
p2350
sS'posn'
p2351
S'190'
p2352
sS'name'
p2353
S'\xe0\xa4\xb8\xe0\xa4\xbf\xe0\xa4\xa8\xe0\xa5\x8d\xe0\xa4\xb9\xe0\xa4\xbe'
p2354
sS'af'
p2355
S'\xe0\xa4\xb8\xe0\xa4\xbf\xe0\xa4\xa8\xe0\xa5\x8d\xe0\xa4\xb9\xe0\xa4\xbe,n,m,sg,3,o,0_\xe0\xa4\x95\xe0\xa5\x87_\xe0\xa4\x96\xe0\xa4\xbf\xe0\xa4\xb2\xe0\xa4\xbe\xe0\xa4\xab,0'
p2356
sS'chunkid'
p2357
S'NP6'
p2358
sS'creftype'
p2359
S'Coreference-Identity:i14'
p2360
sS'chunktype'
p2361
S'head:NP6'
p2362
sS'vpos'
p2363
S'vib_2_3'
p2364
sS'cref'
p2365
S'i23%1:t1'
p2366
sS'drel'
p2367
S'vmod:VGNN'
p2368
ssbsg26
I00
sg27
I00
sg28
Nsg29
Nsg30
I5
sg31
I5
sg32
Nsg33
Nsg34
S'NNP'
p2369
sg36
g2346
sg37
I00
sba(issf_api
Word
p2370
(dp2371
g6
I00
sg7
V\u0915\u0947
p2372
sg9
(issf_api
FeatureSet
p2373
(dp2374
g12
(dp2375
S'posn'
p2376
S'200'
p2377
sS'name'
p2378
S'\xe0\xa4\x95\xe0\xa5\x873'
p2379
sS'drel'
p2380
S'lwg__psp:NP6'
p2381
sS'chunktype'
p2382
S'child:NP6'
p2383
sS'af'
p2384
S'\xe0\xa4\x95\xe0\xa5\x87,psp,,,,,,'
p2385
ssbsg26
I00
sg27
I00
sg28
Nsg29
Nsg30
I5
sg31
I5
sg32
Nsg33
Nsg34
S'PSP'
p2386
sg36
g2373
sg37
I00
sba(issf_api
Word
p2387
(dp2388
g6
I00
sg7
V\u0916\u093f\u0932\u093e\u092b
p2389
sg9
(issf_api
FeatureSet
p2390
(dp2391
g12
(dp2392
S'posn'
p2393
S'210'
p2394
sS'name'
p2395
S'\xe0\xa4\x96\xe0\xa4\xbf\xe0\xa4\xb2\xe0\xa4\xbe\xe0\xa4\xab'
p2396
sS'drel'
p2397
S'lwg__psp:NP6'
p2398
sS'chunktype'
p2399
S'child:NP6'
p2400
sS'af'
p2401
S'\xe0\xa4\x96\xe0\xa4\xbf\xe0\xa4\xb2\xe0\xa4\xbe\xe0\xa4\xab,adj,,,,,,'
p2402
ssbsg26
I00
sg27
I00
sg28
Nsg29
Nsg30
I5
sg31
I5
sg32
Nsg33
Nsg34
S'PSP'
p2403
sg36
g2390
sg37
I00
sba(issf_api
Word
p2404
(dp2405
g6
I00
sg7
V\u092e\u093e\u092e\u0932\u093e
p2406
sg9
(issf_api
FeatureSet
p2407
(dp2408
g12
(dp2409
S'crefhead'
p2410
S'\xe0\xa4\xae\xe0\xa4\xbe\xe0\xa4\xae\xe0\xa4\xb2\xe0\xa4\xbe:i24'
p2411
sS'posn'
p2412
S'220'
p2413
sS'name'
p2414
S'\xe0\xa4\xae\xe0\xa4\xbe\xe0\xa4\xae\xe0\xa4\xb2\xe0\xa4\xbe'
p2415
sS'af'
p2416
S'\xe0\xa4\xae\xe0\xa4\xbe\xe0\xa4\xae\xe0\xa4\xb2\xe0\xa4\xbe,n,m,sg,3,d,0,0'
p2417
sS'chunkid'
p2418
S'NP7'
p2419
sS'creftype'
p2420
S'Coreference-Identity:i7'
p2421
sS'chunktype'
p2422
S'head:NP7'
p2423
sS'cref'
p2424
S'i24%1:t4'
p2425
sS'drel'
p2426
S'k2:VGNN'
p2427
ssbsg26
I00
sg27
I00
sg28
Nsg29
Nsg30
I6
sg31
I5
sg32
Nsg33
Nsg34
S'NN'
p2428
sg36
g2407
sg37
I00
sba(issf_api
Word
p2429
(dp2430
g6
I00
sg7
V\u0935\u093e\u092a\u0938
p2431
sg9
(issf_api
FeatureSet
p2432
(dp2433
g12
(dp2434
S'posn'
p2435
S'230'
p2436
sS'name'
p2437
S'\xe0\xa4\xb5\xe0\xa4\xbe\xe0\xa4\xaa\xe0\xa4\xb8'
p2438
sS'af'
p2439
S'\xe0\xa4\xb5\xe0\xa4\xbe\xe0\xa4\xaa\xe0\xa4\xb8,adj,any,any,,,,'
p2440
sS'chunkid'
p2441
S'JJP'
p2442
sS'drel'
p2443
S'pof:VGNN'
p2444
sS'chunktype'
p2445
S'head:JJP'
p2446
ssbsg26
I00
sg27
I00
sg28
Nsg29
Nsg30
I7
sg31
I5
sg32
Nsg33
Nsg34
S'JJ'
p2447
sg36
g2432
sg37
I00
sba(issf_api
Word
p2448
(dp2449
g6
I00
sg7
V\u0932\u0947\u0928\u0947
p2450
sg9
(issf_api
FeatureSet
p2451
(dp2452
g12
(dp2453
S'posn'
p2454
S'240'
p2455
sS'name'
p2456
S'\xe0\xa4\xb2\xe0\xa5\x87\xe0\xa4\xa8\xe0\xa5\x87'
p2457
sS'af'
p2458
S'\xe0\xa4\xb2\xe0\xa5\x87,v,any,sg,any,o,\xe0\xa4\xa8\xe0\xa4\xbe_\xe0\xa4\x95\xe0\xa4\xbe,nA'
p2459
sS'chunkid'
p2460
S'VGNN'
p2461
sS'drel'
p2462
S'r6-k2:NP8'
p2463
sS'vpos'
p2464
S'tam_2'
p2465
sS'chunktype'
p2466
S'head:VGNN'
p2467
ssbsg26
I00
sg27
I00
sg28
Nsg29
Nsg30
I8
sg31
I5
sg32
Nsg33
Nsg34
S'VM'
p2468
sg36
g2451
sg37
I00
sba(issf_api
Word
p2469
(dp2470
g6
I00
sg7
V\u0915\u093e
p2471
sg9
(issf_api
FeatureSet
p2472
(dp2473
g12
(dp2474
S'posn'
p2475
S'250'
p2476
sS'name'
p2477
S'\xe0\xa4\x95\xe0\xa4\xbe'
p2478
sS'drel'
p2479
S'lwg__psp:VGNN'
p2480
sS'chunktype'
p2481
S'child:VGNN'
p2482
sS'af'
p2483
S'\xe0\xa4\x95\xe0\xa4\xbe,psp,m,sg,,d,,'
p2484
ssbsg26
I00
sg27
I00
sg28
Nsg29
Nsg30
I8
sg31
I5
sg32
Nsg33
Nsg34
S'PSP'
p2485
sg36
g2472
sg37
I00
sba(issf_api
Word
p2486
(dp2487
g6
I00
sg7
V\u0928\u093f\u0930\u094d\u0923\u092f
p2488
sg9
(issf_api
FeatureSet
p2489
(dp2490
g12
(dp2491
S'posn'
p2492
S'260'
p2493
sS'name'
p2494
S'\xe0\xa4\xa8\xe0\xa4\xbf\xe0\xa4\xb0\xe0\xa5\x8d\xe0\xa4\xa3\xe0\xa4\xaf'
p2495
sS'af'
p2496
S'\xe0\xa4\xa8\xe0\xa4\xbf\xe0\xa4\xb0\xe0\xa5\x8d\xe0\xa4\xa3\xe0\xa4\xaf,n,m,sg,3,d,0,0'
p2497
sS'chunkid'
p2498
S'NP8'
p2499
sS'drel'
p2500
S'pof:VGF'
p2501
sS'chunktype'
p2502
S'head:NP8'
p2503
ssbsg26
I00
sg27
I00
sg28
Nsg29
Nsg30
I9
sg31
I5
sg32
Nsg33
Nsg34
S'NN'
p2504
sg36
g2489
sg37
I00
sba(issf_api
Word
p2505
(dp2506
g6
I00
sg7
V\u0932\u093f\u092f\u093e
p2507
sg9
(issf_api
FeatureSet
p2508
(dp2509
g12
(dp2510
S'posn'
p2511
S'270'
p2512
sS'name'
p2513
S'\xe0\xa4\xb2\xe0\xa4\xbf\xe0\xa4\xaf\xe0\xa4\xbe'
p2514
sS'af'
p2515
S'\xe0\xa4\xb2\xe0\xa5\x87,v,m,sg,any,,\xe0\xa4\xaf\xe0\xa4\xbe_\xe0\xa4\x9c\xe0\xa4\xbe+\xe0\xa4\xaf\xe0\xa4\xbe\xe0\xa5\xa7,yA'
p2516
sS'chunkid'
p2517
S'VGF'
p2518
sS'chunktype'
p2519
S'head:VGF'
p2520
sS'voicetype'
p2521
S'active'
p2522
sS'vpos'
p2523
S'tam_2'
p2524
sS'stype'
p2525
S'declarative'
p2526
ssbsg26
I00
sg27
I00
sg28
Nsg29
Nsg30
I10
sg31
I5
sg32
Nsg33
Nsg34
S'VM'
p2527
sg36
g2508
sg37
I00
sba(issf_api
Word
p2528
(dp2529
g6
I00
sg7
V\u0917\u092f\u093e
p2530
sg9
(issf_api
FeatureSet
p2531
(dp2532
g12
(dp2533
S'posn'
p2534
S'280'
p2535
sS'name'
p2536
S'\xe0\xa4\x97\xe0\xa4\xaf\xe0\xa4\xbe'
p2537
sS'drel'
p2538
S'lwg__vaux:VGF'
p2539
sS'chunktype'
p2540
S'child:VGF'
p2541
sS'af'
p2542
S'\xe0\xa4\x9c\xe0\xa4\xbe,v,m,sg,any,,\xe0\xa4\xaf\xe0\xa4\xbe\xe0\xa5\xa7,yA1'
p2543
ssbsg26
I00
sg27
I00
sg28
Nsg29
Nsg30
I10
sg31
I5
sg32
Nsg33
Nsg34
S'VAUX'
p2544
sg36
g2531
sg37
I00
sba(issf_api
Word
p2545
(dp2546
g6
I00
sg7
V\u0964
p2547
sg9
(issf_api
FeatureSet
p2548
(dp2549
g12
(dp2550
S'posn'
p2551
S'290'
p2552
sS'name'
p2553
S'\xe0\xa5\xa4'
p2554
sS'af'
p2555
S'\xe0\xa5\xa4,punc,,,,,,'
p2556
sS'chunkid'
p2557
S'BLK'
p2558
sS'drel'
p2559
S'rsym:VGF'
p2560
sS'chunktype'
p2561
S'head:BLK'
p2562
ssbsg26
I00
sg27
I00
sg28
Nsg29
Nsg30
I11
sg31
I5
sg32
Nsg33
Nsg34
S'SYM'
p2563
sg36
g2548
sg37
I00
sba(issf_api
Word
p2564
(dp2565
g6
I00
sg7
V\u0938\u093f\u0928\u094d\u0939\u093e
p2566
sg9
(issf_api
FeatureSet
p2567
(dp2568
g12
(dp2569
S'crefhead'
p2570
S'\xe0\xa4\xb8\xe0\xa4\xbf\xe0\xa4\xa8\xe0\xa5\x8d\xe0\xa4\xb9\xe0\xa4\xbe:i25'
p2571
sS'posn'
p2572
S'10'
p2573
sS'name'
p2574
S'\xe0\xa4\xb8\xe0\xa4\xbf\xe0\xa4\xa8\xe0\xa5\x8d\xe0\xa4\xb9\xe0\xa4\xbe'
p2575
sS'af'
p2576
S'\xe0\xa4\xb8\xe0\xa4\xbf\xe0\xa4\xa8\xe0\xa5\x8d\xe0\xa4\xb9\xe0\xa4\xbe,n,m,sg,3,o,0_\xe0\xa4\xa8\xe0\xa5\x87,0'
p2577
sS'chunkid'
p2578
S'NP'
p2579
sS'creftype'
p2580
S'Coreference-Identity:i23'
p2581
sS'chunktype'
p2582
S'head:NP'
p2583
sS'vpos'
p2584
S'vib_2'
p2585
sS'cref'
p2586
S'i25%1:t1'
p2587
sS'drel'
p2588
S'k1:VGF'
p2589
ssbsg26
I00
sg27
I00
sg28
Nsg29
Nsg30
I0
sg31
I6
sg32
Nsg33
Nsg34
S'NNP'
p2590
sg36
g2567
sg37
I00
sba(issf_api
Word
p2591
(dp2592
g6
I00
sg7
V\u0928\u0947
p2593
sg9
(issf_api
FeatureSet
p2594
(dp2595
g12
(dp2596
S'posn'
p2597
S'20'
p2598
sS'name'
p2599
S'\xe0\xa4\xa8\xe0\xa5\x87'
p2600
sS'drel'
p2601
S'lwg__psp:NP'
p2602
sS'chunktype'
p2603
S'child:NP'
p2604
sS'af'
p2605
S'\xe0\xa4\xa8\xe0\xa5\x87,psp,,,,,,'
p2606
ssbsg26
I00
sg27
I00
sg28
Nsg29
Nsg30
I0
sg31
I6
sg32
Nsg33
Nsg34
S'PSP'
p2607
sg36
g2594
sg37
I00
sba(issf_api
Word
p2608
(dp2609
g6
I00
sg7
V\u0915\u0939\u093e
p2610
sg9
(issf_api
FeatureSet
p2611
(dp2612
g12
(dp2613
S'posn'
p2614
S'30'
p2615
sS'name'
p2616
S'\xe0\xa4\x95\xe0\xa4\xb9\xe0\xa4\xbe'
p2617
sS'af'
p2618
S'\xe0\xa4\x95\xe0\xa4\xb9,v,m,sg,any,,\xe0\xa4\xaf\xe0\xa4\xbe,yA'
p2619
sS'chunkid'
p2620
S'VGF'
p2621
sS'chunktype'
p2622
S'head:VGF'
p2623
sS'voicetype'
p2624
S'active'
p2625
sS'stype'
p2626
S'declarative'
p2627
ssbsg26
I00
sg27
I00
sg28
Nsg29
Nsg30
I1
sg31
I6
sg32
Nsg33
Nsg34
S'VM'
p2628
sg36
g2611
sg37
I00
sba(issf_api
Word
p2629
(dp2630
g6
I00
sg7
V\u0915\u093f
p2631
sg9
(issf_api
FeatureSet
p2632
(dp2633
g12
(dp2634
S'posn'
p2635
S'40'
p2636
sS'name'
p2637
S'\xe0\xa4\x95\xe0\xa4\xbf'
p2638
sS'af'
p2639
S'\xe0\xa4\x95\xe0\xa4\xbf,avy,,,,,,'
p2640
sS'chunkid'
p2641
S'CCP'
p2642
sS'drel'
p2643
S'k2:VGF'
p2644
sS'chunktype'
p2645
S'head:CCP'
p2646
ssbsg26
I00
sg27
I00
sg28
Nsg29
Nsg30
I2
sg31
I6
sg32
Nsg33
Nsg34
S'CC'
p2647
sg36
g2632
sg37
I00
sba(issf_api
Word
p2648
(dp2649
g6
I00
sg7
V\u092c\u0941\u0927\u0935\u093e\u0930
p2650
sg9
(issf_api
FeatureSet
p2651
(dp2652
g12
(dp2653
S'crefhead'
p2654
S'\xe0\xa4\xac\xe0\xa5\x81\xe0\xa4\xa7\xe0\xa4\xb5\xe0\xa4\xbe\xe0\xa4\xb0:i26'
p2655
sS'posn'
p2656
S'50'
p2657
sS'name'
p2658
S'\xe0\xa4\xac\xe0\xa5\x81\xe0\xa4\xa7\xe0\xa4\xb5\xe0\xa4\xbe\xe0\xa4\xb0'
p2659
sS'af'
p2660
S'\xe0\xa4\xac\xe0\xa5\x81\xe0\xa4\xa7\xe0\xa4\xb5\xe0\xa4\xbe\xe0\xa4\xb0,n,m,sg,3,o,0_\xe0\xa4\x95\xe0\xa4\xbe,0'
p2661
sS'acrefmodhead'
p2662
S'\xe0\xa4\xac\xe0\xa5\x81\xe0\xa4\xa7\xe0\xa4\xb5\xe0\xa4\xbe\xe0\xa4\xb0:m2'
p2663
sS'chunkid'
p2664
S'NP2'
p2665
sS'acrefmod'
p2666
S'm2%1:i27'
p2667
sS'creftype'
p2668
S'Coreference-Identity:i22'
p2669
sS'chunktype'
p2670
S'head:NP2'
p2671
sS'vpos'
p2672
S'vib_2'
p2673
sS'cref'
p2674
S'i26%1:t9'
p2675
sS'drel'
p2676
S'r6:NP3'
p2677
ssbsg26
I00
sg27
I00
sg28
Nsg29
Nsg30
I3
sg31
I6
sg32
Nsg33
Nsg34
S'NNP'
p2678
sg36
g2651
sg37
I00
sba(issf_api
Word
p2679
(dp2680
g6
I00
sg7
V\u0915\u0940
p2681
sg9
(issf_api
FeatureSet
p2682
(dp2683
g12
(dp2684
S'posn'
p2685
S'60'
p2686
sS'name'
p2687
S'\xe0\xa4\x95\xe0\xa5\x80'
p2688
sS'drel'
p2689
S'lwg__psp:NP2'
p2690
sS'chunktype'
p2691
S'child:NP2'
p2692
sS'af'
p2693
S'\xe0\xa4\x95\xe0\xa4\xbe,psp,f,sg,,d,,'
p2694
ssbsg26
I00
sg27
I00
sg28
Nsg29
Nsg30
I3
sg31
I6
sg32
Nsg33
Nsg34
S'PSP'
p2695
sg36
g2682
sg37
I00
sba(issf_api
Word
p2696
(dp2697
g6
I00
sg7
V\u0930\u093e\u0924
p2698
sg9
(issf_api
FeatureSet
p2699
(dp2700
g12
(dp2701
S'crefhead'
p2702
S'\xe0\xa4\xb0\xe0\xa4\xbe\xe0\xa4\xa4:i27'
p2703
sS'posn'
p2704
S'70'
p2705
sS'name'
p2706
S'\xe0\xa4\xb0\xe0\xa4\xbe\xe0\xa4\xa4'
p2707
sS'af'
p2708
S'\xe0\xa4\xb0\xe0\xa4\xbe\xe0\xa4\xa4,n,f,sg,3,d,0,0'
p2709
sS'chunkid'
p2710
S'NP3'
p2711
sS'crefmod'
p2712
S'm2:i27'
p2713
sS'creftype'
p2714
S'Coreference-Identity:i21'
p2715
sS'chunktype'
p2716
S'head:NP3'
p2717
sS'cref'
p2718
S'i27%1:t8'
p2719
sS'drel'
p2720
S'k7t:VGF2'
p2721
ssbsg26
I00
sg27
I00
sg28
Nsg29
Nsg30
I4
sg31
I6
sg32
Nsg33
Nsg34
S'NN'
p2722
sg36
g2699
sg37
I00
sba(issf_api
Word
p2723
(dp2724
g6
I00
sg7
V\u0938\u093f\u0902\u0939
p2725
sg9
(issf_api
FeatureSet
p2726
(dp2727
g12
(dp2728
S'crefhead'
p2729
S'\xe0\xa4\xb8\xe0\xa4\xbf\xe0\xa4\x82\xe0\xa4\xb9:i28'
p2730
sS'posn'
p2731
S'80'
p2732
sS'name'
p2733
S'\xe0\xa4\xb8\xe0\xa4\xbf\xe0\xa4\x82\xe0\xa4\xb9'
p2734
sS'af'
p2735
S'\xe0\xa4\xb8\xe0\xa4\xbf\xe0\xa4\x82\xe0\xa4\xb9,n,m,sg,3,o,0_\xe0\xa4\xa8\xe0\xa5\x87,0'
p2736
sS'chunkid'
p2737
S'NP4'
p2738
sS'creftype'
p2739
S'Coreference-Identity:i20'
p2740
sS'chunktype'
p2741
S'head:NP4'
p2742
sS'vpos'
p2743
S'vib_2'
p2744
sS'cref'
p2745
S'i28%1:t7'
p2746
sS'drel'
p2747
S'k1:VGF2'
p2748
ssbsg26
I00
sg27
I00
sg28
Nsg29
Nsg30
I5
sg31
I6
sg32
Nsg33
Nsg34
S'NNP'
p2749
sg36
g2726
sg37
I00
sba(issf_api
Word
p2750
(dp2751
g6
I00
sg7
V\u0928\u0947
p2752
sg9
(issf_api
FeatureSet
p2753
(dp2754
g12
(dp2755
S'posn'
p2756
S'90'
p2757
sS'name'
p2758
S'\xe0\xa4\xa8\xe0\xa5\x872'
p2759
sS'drel'
p2760
S'lwg__psp:NP4'
p2761
sS'chunktype'
p2762
S'child:NP4'
p2763
sS'af'
p2764
S'\xe0\xa4\xa8\xe0\xa5\x87,psp,,,,,,'
p2765
ssbsg26
I00
sg27
I00
sg28
Nsg29
Nsg30
I5
sg31
I6
sg32
Nsg33
Nsg34
S'PSP'
p2766
sg36
g2753
sg37
I00
sba(issf_api
Word
p2767
(dp2768
g6
I00
sg7
V\u0909\u0928\u094d\u0939\u0947\u0902
p2769
sg9
(issf_api
FeatureSet
p2770
(dp2771
g12
(dp2772
S'crefhead'
p2773
S'\xe0\xa4\x89\xe0\xa4\xa8\xe0\xa5\x8d\xe0\xa4\xb9\xe0\xa5\x87\xe0\xa4\x82:i29'
p2774
sS'posn'
p2775
S'100'
p2776
sS'name'
p2777
S'\xe0\xa4\x89\xe0\xa4\xa8\xe0\xa5\x8d\xe0\xa4\xb9\xe0\xa5\x87\xe0\xa4\x82'
p2778
sS'af'
p2779
S'\xe0\xa4\xb5\xe0\xa4\xb9,pn,any,sg,3h,o,\xe0\xa4\x95\xe0\xa5\x8b,ko'
p2780
sS'chunkid'
p2781
S'NP5'
p2782
sS'creftype'
p2783
S'Anaphora-C:i25'
p2784
sS'chunktype'
p2785
S'head:NP5'
p2786
sS'cref'
p2787
S'i29%1:t1'
p2788
sS'drel'
p2789
S'k4:VGF2'
p2790
ssbsg26
I00
sg27
I00
sg28
Nsg29
Nsg30
I6
sg31
I6
sg32
Nsg33
Nsg34
S'PRP'
p2791
sg36
g2770
sg37
I00
sba(issf_api
Word
p2792
(dp2793
g6
I00
sg7
V\u092b\u094b\u0928
p2794
sg9
(issf_api
FeatureSet
p2795
(dp2796
g12
(dp2797
S'posn'
p2798
S'110'
p2799
sS'name'
p2800
S'\xe0\xa4\xab\xe0\xa5\x8b\xe0\xa4\xa8'
p2801
sS'af'
p2802
S'\xe0\xa4\xab\xe0\xa5\x8b\xe0\xa4\xa8,n,m,sg,3,o,0_\xe0\xa4\xaa\xe0\xa4\xb0,0'
p2803
sS'chunkid'
p2804
S'NP6'
p2805
sS'drel'
p2806
S'k7:VGF2'
p2807
sS'vpos'
p2808
S'vib_2'
p2809
sS'chunktype'
p2810
S'head:NP6'
p2811
ssbsg26
I00
sg27
I00
sg28
Nsg29
Nsg30
I7
sg31
I6
sg32
Nsg33
Nsg34
S'NN'
p2812
sg36
g2795
sg37
I00
sba(issf_api
Word
p2813
(dp2814
g6
I00
sg7
V\u092a\u0930
p2815
sg9
(issf_api
FeatureSet
p2816
(dp2817
g12
(dp2818
S'posn'
p2819
S'120'
p2820
sS'name'
p2821
S'\xe0\xa4\xaa\xe0\xa4\xb0'
p2822
sS'drel'
p2823
S'lwg__psp:NP6'
p2824
sS'chunktype'
p2825
S'child:NP6'
p2826
sS'af'
p2827
S'\xe0\xa4\xaa\xe0\xa4\xb0,psp,,,,,,'
p2828
ssbsg26
I00
sg27
I00
sg28
Nsg29
Nsg30
I7
sg31
I6
sg32
Nsg33
Nsg34
S'PSP'
p2829
sg36
g2816
sg37
I00
sba(issf_api
Word
p2830
(dp2831
g6
I00
sg7
V\u092c\u0924\u093e\u092f\u093e
p2832
sg9
(issf_api
FeatureSet
p2833
(dp2834
g12
(dp2835
S'posn'
p2836
S'130'
p2837
sS'name'
p2838
S'\xe0\xa4\xac\xe0\xa4\xa4\xe0\xa4\xbe\xe0\xa4\xaf\xe0\xa4\xbe'
p2839
sS'af'
p2840
S'\xe0\xa4\xac\xe0\xa4\xa4\xe0\xa4\xbe,v,m,sg,any,,\xe0\xa4\xaf\xe0\xa4\xbe,yA'
p2841
sS'chunkid'
p2842
S'VGF2'
p2843
sS'stype'
p2844
S'declarative'
p2845
sS'drel'
p2846
S'ccof:CCP'
p2847
sS'voicetype'
p2848
S'active'
p2849
sS'chunktype'
p2850
S'head:VGF2'
p2851
ssbsg26
I00
sg27
I00
sg28
Nsg29
Nsg30
I8
sg31
I6
sg32
Nsg33
Nsg34
S'VM'
p2852
sg36
g2833
sg37
I00
sba(issf_api
Word
p2853
(dp2854
g6
I00
sg7
V\u0915\u093f
p2855
sg9
(issf_api
FeatureSet
p2856
(dp2857
g12
(dp2858
S'posn'
p2859
S'140'
p2860
sS'name'
p2861
S'\xe0\xa4\x95\xe0\xa4\xbf2'
p2862
sS'af'
p2863
S'\xe0\xa4\x95\xe0\xa4\xbf,avy,,,,,,'
p2864
sS'chunkid'
p2865
S'CCP2'
p2866
sS'drel'
p2867
S'k2:VGF2'
p2868
sS'chunktype'
p2869
S'head:CCP2'
p2870
ssbsg26
I00
sg27
I00
sg28
Nsg29
Nsg30
I9
sg31
I6
sg32
Nsg33
Nsg34
S'CC'
p2871
sg36
g2856
sg37
I00
sba(issf_api
Word
p2872
(dp2873
g6
I00
sg7
V\u092a\u094d\u0930\u0927\u093e\u0928\u092e\u0902\u0924\u094d\u0930\u0940
p2874
sg9
(issf_api
FeatureSet
p2875
(dp2876
g12
(dp2877
S'crefhead'
p2878
S'\xe0\xa4\xaa\xe0\xa5\x8d\xe0\xa4\xb0\xe0\xa4\xa7\xe0\xa4\xbe\xe0\xa4\xa8\xe0\xa4\xae\xe0\xa4\x82\xe0\xa4\xa4\xe0\xa5\x8d\xe0\xa4\xb0\xe0\xa5\x80:i30'
p2879
sS'posn'
p2880
S'150'
p2881
sS'name'
p2882
S'\xe0\xa4\xaa\xe0\xa5\x8d\xe0\xa4\xb0\xe0\xa4\xa7\xe0\xa4\xbe\xe0\xa4\xa8\xe0\xa4\xae\xe0\xa4\x82\xe0\xa4\xa4\xe0\xa5\x8d\xe0\xa4\xb0\xe0\xa5\x80'
p2883
sS'af'
p2884
S'\xe0\xa4\xaa\xe0\xa5\x8d\xe0\xa4\xb0\xe0\xa4\xa7\xe0\xa4\xbe\xe0\xa4\xa8\xe0\xa4\xae\xe0\xa4\x82\xe0\xa4\xa4\xe0\xa5\x8d\xe0\xa4\xb0\xe0\xa5\x80,n,m,sg,3,d,0,0'
p2885
sS'chunkid'
p2886
S'NP7'
p2887
sS'creftype'
p2888
S'Coreference-Noun-Noun:i17'
p2889
sS'chunktype'
p2890
S'head:NP7'
p2891
sS'cref'
p2892
S'i30%1:t6'
p2893
sS'drel'
p2894
S'k1:VGF3'
p2895
ssbsg26
I00
sg27
I00
sg28
Nsg29
Nsg30
I10
sg31
I6
sg32
Nsg33
Nsg34
S'NNP'
p2896
sg36
g2875
sg37
I00
sba(issf_api
Word
p2897
(dp2898
g6
I00
sg7
V\u0909\u0928\u0915\u0940
p2899
sg9
(issf_api
FeatureSet
p2900
(dp2901
g12
(dp2902
S'crefhead'
p2903
S'\xe0\xa4\x89\xe0\xa4\xa8\xe0\xa4\x95\xe0\xa5\x80:i31'
p2904
sS'posn'
p2905
S'160'
p2906
sS'name'
p2907
S'\xe0\xa4\x89\xe0\xa4\xa8\xe0\xa4\x95\xe0\xa5\x80'
p2908
sS'af'
p2909
S'\xe0\xa4\xb5\xe0\xa4\xb9,pn,f,sg,3h,o,\xe0\xa4\x95\xe0\xa4\xbe,kA'
p2910
sS'chunkid'
p2911
S'NP8'
p2912
sS'creftype'
p2913
S'Anaphora-C:i28'
p2914
sS'chunktype'
p2915
S'head:NP8'
p2916
sS'cref'
p2917
S'i31%1:t7'
p2918
sS'drel'
p2919
S'r6:NP9'
p2920
ssbsg26
I00
sg27
I00
sg28
Nsg29
Nsg30
I11
sg31
I6
sg32
Nsg33
Nsg34
S'PRP'
p2921
sg36
g2900
sg37
I00
sba(issf_api
Word
p2922
(dp2923
g6
I00
sg7
V\u092e\u093e\u0902\u0917
p2924
sg9
(issf_api
FeatureSet
p2925
(dp2926
g12
(dp2927
S'posn'
p2928
S'170'
p2929
sS'name'
p2930
S'\xe0\xa4\xae\xe0\xa4\xbe\xe0\xa4\x82\xe0\xa4\x97'
p2931
sS'af'
p2932
S'\xe0\xa4\xae\xe0\xa4\xbe\xe0\xa4\x82\xe0\xa4\x97,n,f,sg,3,o,0_\xe0\xa4\xaa\xe0\xa4\xb0,0'
p2933
sS'chunkid'
p2934
S'NP9'
p2935
sS'drel'
p2936
S'k7:VGNN'
p2937
sS'vpos'
p2938
S'vib_2'
p2939
sS'chunktype'
p2940
S'head:NP9'
p2941
ssbsg26
I00
sg27
I00
sg28
Nsg29
Nsg30
I12
sg31
I6
sg32
Nsg33
Nsg34
S'NN'
p2942
sg36
g2925
sg37
I00
sba(issf_api
Word
p2943
(dp2944
g6
I00
sg7
V\u092a\u0930
p2945
sg9
(issf_api
FeatureSet
p2946
(dp2947
g12
(dp2948
S'posn'
p2949
S'180'
p2950
sS'name'
p2951
S'\xe0\xa4\xaa\xe0\xa4\xb02'
p2952
sS'drel'
p2953
S'lwg__psp:NP9'
p2954
sS'chunktype'
p2955
S'child:NP9'
p2956
sS'af'
p2957
S'\xe0\xa4\xaa\xe0\xa4\xb0,psp,,,,,,'
p2958
ssbsg26
I00
sg27
I00
sg28
Nsg29
Nsg30
I12
sg31
I6
sg32
Nsg33
Nsg34
S'PSP'
p2959
sg36
g2946
sg37
I00
sba(issf_api
Word
p2960
(dp2961
g6
I00
sg7
V\u0935\u093f\u091a\u093e\u0930
p2962
sg9
(issf_api
FeatureSet
p2963
(dp2964
g12
(dp2965
S'posn'
p2966
S'190'
p2967
sS'name'
p2968
S'\xe0\xa4\xb5\xe0\xa4\xbf\xe0\xa4\x9a\xe0\xa4\xbe\xe0\xa4\xb0'
p2969
sS'af'
p2970
S'\xe0\xa4\xb5\xe0\xa4\xbf\xe0\xa4\x9a\xe0\xa4\xbe\xe0\xa4\xb0,n,m,sg,3,d,0,0'
p2971
sS'chunkid'
p2972
S'NP10'
p2973
sS'drel'
p2974
S'pof:VGNN'
p2975
sS'chunktype'
p2976
S'head:NP10'
p2977
ssbsg26
I00
sg27
I00
sg28
Nsg29
Nsg30
I13
sg31
I6
sg32
Nsg33
Nsg34
S'NN'
p2978
sg36
g2963
sg37
I00
sba(issf_api
Word
p2979
(dp2980
g6
I00
sg7
V\u0915\u0930\u0928\u0947
p2981
sg9
(issf_api
FeatureSet
p2982
(dp2983
g12
(dp2984
S'posn'
p2985
S'200'
p2986
sS'name'
p2987
S'\xe0\xa4\x95\xe0\xa4\xb0\xe0\xa4\xa8\xe0\xa5\x87'
p2988
sS'af'
p2989
S'\xe0\xa4\x95\xe0\xa4\xb0,v,any,any,any,o,\xe0\xa4\xa8\xe0\xa4\xbe_\xe0\xa4\x95\xe0\xa5\x87_\xe0\xa4\xb2\xe0\xa4\xbf\xe0\xa4\x8f,nA'
p2990
sS'chunkid'
p2991
S'VGNN'
p2992
sS'drel'
p2993
S'rt:VGF3'
p2994
sS'vpos'
p2995
S'tam_2_3'
p2996
sS'chunktype'
p2997
S'head:VGNN'
p2998
ssbsg26
I00
sg27
I00
sg28
Nsg29
Nsg30
I14
sg31
I6
sg32
Nsg33
Nsg34
S'VM'
p2999
sg36
g2982
sg37
I00
sba(issf_api
Word
p3000
(dp3001
g6
I00
sg7
V\u0915\u0947
p3002
sg9
(issf_api
FeatureSet
p3003
(dp3004
g12
(dp3005
S'posn'
p3006
S'210'
p3007
sS'name'
p3008
S'\xe0\xa4\x95\xe0\xa5\x87'
p3009
sS'drel'
p3010
S'lwg__psp:VGNN'
p3011
sS'chunktype'
p3012
S'child:VGNN'
p3013
sS'af'
p3014
S'\xe0\xa4\x95\xe0\xa5\x87,psp,,,,,,'
p3015
ssbsg26
I00
sg27
I00
sg28
Nsg29
Nsg30
I14
sg31
I6
sg32
Nsg33
Nsg34
S'PSP'
p3016
sg36
g3003
sg37
I00
sba(issf_api
Word
p3017
(dp3018
g6
I00
sg7
V\u0932\u093f\u090f
p3019
sg9
(issf_api
FeatureSet
p3020
(dp3021
g12
(dp3022
S'posn'
p3023
S'220'
p3024
sS'name'
p3025
S'\xe0\xa4\xb2\xe0\xa4\xbf\xe0\xa4\x8f'
p3026
sS'drel'
p3027
S'lwg__psp:VGNN'
p3028
sS'chunktype'
p3029
S'child:VGNN'
p3030
sS'af'
p3031
S'\xe0\xa4\xb2\xe0\xa4\xbf\xe0\xa4\x8f,psp,,,,,,'
p3032
ssbsg26
I00
sg27
I00
sg28
Nsg29
Nsg30
I14
sg31
I6
sg32
Nsg33
Nsg34
S'PSP'
p3033
sg36
g3020
sg37
I00
sba(issf_api
Word
p3034
(dp3035
g6
I00
sg7
V\u0924\u0948\u092f\u093e\u0930
p3036
sg9
(issf_api
FeatureSet
p3037
(dp3038
g12
(dp3039
S'posn'
p3040
S'230'
p3041
sS'name'
p3042
S'\xe0\xa4\xa4\xe0\xa5\x88\xe0\xa4\xaf\xe0\xa4\xbe\xe0\xa4\xb0'
p3043
sS'af'
p3044
S'\xe0\xa4\xa4\xe0\xa5\x88\xe0\xa4\xaf\xe0\xa4\xbe\xe0\xa4\xb0,adj,any,any,,,,'
p3045
sS'chunkid'
p3046
S'JJP'
p3047
sS'drel'
p3048
S'k1s:VGF3'
p3049
sS'chunktype'
p3050
S'head:JJP'
p3051
ssbsg26
I00
sg27
I00
sg28
Nsg29
Nsg30
I15
sg31
I6
sg32
Nsg33
Nsg34
S'JJ'
p3052
sg36
g3037
sg37
I00
sba(issf_api
Word
p3053
(dp3054
g6
I00
sg7
V\u0939\u0948\u0902
p3055
sg9
(issf_api
FeatureSet
p3056
(dp3057
g12
(dp3058
S'posn'
p3059
S'240'
p3060
sS'name'
p3061
S'\xe0\xa4\xb9\xe0\xa5\x88\xe0\xa4\x82'
p3062
sS'af'
p3063
S'\xe0\xa4\xb9\xe0\xa5\x88,v,any,sg,3h,,\xe0\xa4\xb9\xe0\xa5\x88,hE'
p3064
sS'chunkid'
p3065
S'VGF3'
p3066
sS'stype'
p3067
S'declarative'
p3068
sS'drel'
p3069
S'ccof:CCP2'
p3070
sS'voicetype'
p3071
S'active'
p3072
sS'chunktype'
p3073
S'head:VGF3'
p3074
ssbsg26
I00
sg27
I00
sg28
Nsg29
Nsg30
I16
sg31
I6
sg32
Nsg33
Nsg34
S'VM'
p3075
sg36
g3056
sg37
I00
sba(issf_api
Word
p3076
(dp3077
g6
I00
sg7
V\u0964
p3078
sg9
(issf_api
FeatureSet
p3079
(dp3080
g12
(dp3081
S'posn'
p3082
S'250'
p3083
sS'name'
p3084
S'\xe0\xa5\xa4'
p3085
sS'af'
p3086
S'\xe0\xa5\xa4,punc,,,,,,'
p3087
sS'chunkid'
p3088
S'BLK'
p3089
sS'drel'
p3090
S'rsym:VGF'
p3091
sS'chunktype'
p3092
S'head:BLK'
p3093
ssbsg26
I00
sg27
I00
sg28
Nsg29
Nsg30
I17
sg31
I6
sg32
Nsg33
Nsg34
S'SYM'
p3094
sg36
g3079
sg37
I00
sba(issf_api
Word
p3095
(dp3096
g6
I00
sg7
V\u0909\u0928\u094d\u0939\u094b\u0902\u0928\u0947
p3097
sg9
(issf_api
FeatureSet
p3098
(dp3099
g12
(dp3100
S'crefhead'
p3101
S'\xe0\xa4\x89\xe0\xa4\xa8\xe0\xa5\x8d\xe0\xa4\xb9\xe0\xa5\x8b\xe0\xa4\x82\xe0\xa4\xa8\xe0\xa5\x87:i32'
p3102
sS'posn'
p3103
S'10'
p3104
sS'name'
p3105
S'\xe0\xa4\x89\xe0\xa4\xa8\xe0\xa5\x8d\xe0\xa4\xb9\xe0\xa5\x8b\xe0\xa4\x82\xe0\xa4\xa8\xe0\xa5\x87'
p3106
sS'af'
p3107
S'\xe0\xa4\xb5\xe0\xa4\xb9,pn,any,sg,3h,o,\xe0\xa4\xa8\xe0\xa5\x87,ne'
p3108
sS'chunkid'
p3109
S'NP'
p3110
sS'creftype'
p3111
S'Anaphora-C:i31'
p3112
sS'chunktype'
p3113
S'head:NP'
p3114
sS'cref'
p3115
S'i32%1:t7'
p3116
sS'drel'
p3117
S'k1:VGF'
p3118
ssbsg26
I00
sg27
I00
sg28
Nsg29
Nsg30
I0
sg31
I7
sg32
Nsg33
Nsg34
S'PRP'
p3119
sg36
g3098
sg37
I00
sba(issf_api
Word
p3120
(dp3121
g6
I00
sg7
V\u0915\u0939\u093e
p3122
sg9
(issf_api
FeatureSet
p3123
(dp3124
g12
(dp3125
S'posn'
p3126
S'20'
p3127
sS'name'
p3128
S'\xe0\xa4\x95\xe0\xa4\xb9\xe0\xa4\xbe'
p3129
sS'af'
p3130
S'\xe0\xa4\x95\xe0\xa4\xb9,v,m,sg,any,,\xe0\xa4\xaf\xe0\xa4\xbe,yA'
p3131
sS'chunkid'
p3132
S'VGF'
p3133
sS'chunktype'
p3134
S'head:VGF'
p3135
sS'voicetype'
p3136
S'active'
p3137
sS'stype'
p3138
S'declarative'
p3139
ssbsg26
I00
sg27
I00
sg28
Nsg29
Nsg30
I1
sg31
I7
sg32
Nsg33
Nsg34
S'VM'
p3140
sg36
g3123
sg37
I00
sba(issf_api
Word
p3141
(dp3142
g6
I00
sg7
V\u0915\u093f
p3143
sg9
(issf_api
FeatureSet
p3144
(dp3145
g12
(dp3146
S'posn'
p3147
S'30'
p3148
sS'name'
p3149
S'\xe0\xa4\x95\xe0\xa4\xbf'
p3150
sS'af'
p3151
S'\xe0\xa4\x95\xe0\xa4\xbf,avy,,,,,,'
p3152
sS'chunkid'
p3153
S'CCP'
p3154
sS'drel'
p3155
S'k2:VGF'
p3156
sS'chunktype'
p3157
S'head:CCP'
p3158
ssbsg26
I00
sg27
I00
sg28
Nsg29
Nsg30
I2
sg31
I7
sg32
Nsg33
Nsg34
S'CC'
p3159
sg36
g3144
sg37
I00
sba(issf_api
Word
p3160
(dp3161
g6
I00
sg7
V\u0935\u093f\u0924\u094d\u0924\u092e\u0924\u094d\u0930\u0940
p3162
sg9
(issf_api
FeatureSet
p3163
(dp3164
g12
(dp3165
S'crefhead'
p3166
S'\xe0\xa4\xb5\xe0\xa4\xbf\xe0\xa4\xa4\xe0\xa5\x8d\xe0\xa4\xa4\xe0\xa4\xae\xe0\xa4\xa4\xe0\xa5\x8d\xe0\xa4\xb0\xe0\xa5\x80:i33'
p3167
sS'posn'
p3168
S'40'
p3169
sS'name'
p3170
S'\xe0\xa4\xb5\xe0\xa4\xbf\xe0\xa4\xa4\xe0\xa5\x8d\xe0\xa4\xa4\xe0\xa4\xae\xe0\xa4\xa4\xe0\xa5\x8d\xe0\xa4\xb0\xe0\xa5\x80'
p3171
sS'af'
p3172
S'\xe0\xa4\xb5\xe0\xa4\xbf\xe0\xa4\xa4\xe0\xa5\x8d\xe0\xa4\xa4\xe0\xa4\xae\xe0\xa4\xa4\xe0\xa5\x8d\xe0\xa4\xb0\xe0\xa5\x80,n,m,sg,3,d,0,0'
p3173
sS'drel'
p3174
S'nmod__adj:NP2'
p3175
sS'chunktype'
p3176
S'child:NP2'
p3177
sS'cref'
p3178
S'i33%1:t10'
p3179
ssbsg26
I00
sg27
I00
sg28
Nsg29
Nsg30
I3
sg31
I7
sg32
Nsg33
Nsg34
S'NNP'
p3180
sg36
g3163
sg37
I00
sba(issf_api
Word
p3181
(dp3182
g6
I00
sg7
V\u092a\u0940.
p3183
sg9
(issf_api
FeatureSet
p3184
(dp3185
g12
(dp3186
S'posn'
p3187
S'50'
p3188
sS'name'
p3189
S'\xe0\xa4\xaa\xe0\xa5\x80.'
p3190
sS'af'
p3191
S'\xe0\xa4\xaa\xe0\xa5\x80.,n,m,sg,3,d,0,0'
p3192
sS'drel'
p3193
S'pof__cn:NP2'
p3194
sS'chunktype'
p3195
S'child:NP2'
p3196
sS'cref'
p3197
S'i34%0:t10'
p3198
ssbsg26
I00
sg27
I00
sg28
Nsg29
Nsg30
I3
sg31
I7
sg32
Nsg33
Nsg34
S'NNPC'
p3199
sg36
g3184
sg37
I00
sba(issf_api
Word
p3200
(dp3201
g6
I00
sg7
V\u091a\u093f\u0926\u0902\u092c\u0930\u092e
p3202
sg9
(issf_api
FeatureSet
p3203
(dp3204
g12
(dp3205
S'crefhead'
p3206
S'\xe0\xa4\x9a\xe0\xa4\xbf\xe0\xa4\xa6\xe0\xa4\x82\xe0\xa4\xac\xe0\xa4\xb0\xe0\xa4\xae:i34'
p3207
sS'posn'
p3208
S'60'
p3209
sS'name'
p3210
S'\xe0\xa4\x9a\xe0\xa4\xbf\xe0\xa4\xa6\xe0\xa4\x82\xe0\xa4\xac\xe0\xa4\xb0\xe0\xa4\xae'
p3211
sS'af'
p3212
S'\xe0\xa4\x9a\xe0\xa4\xbf\xe0\xa4\xa6\xe0\xa4\x82\xe0\xa4\xac\xe0\xa4\xb0\xe0\xa4\xae,n,any,sg,3,d,0,0'
p3213
sS'chunkid'
p3214
S'NP2'
p3215
sS'creftype'
p3216
S'Coreference-NounComplement:i33'
p3217
sS'chunktype'
p3218
S'head:NP2'
p3219
sS'crefchainhead'
p3220
S'i34:t10'
p3221
sS'cref'
p3222
S'i34%1:t10'
p3223
sS'drel'
p3224
S'k1:VGF2'
p3225
ssbsg26
I00
sg27
I00
sg28
Nsg29
Nsg30
I3
sg31
I7
sg32
Nsg33
Nsg34
S'NNP'
p3226
sg36
g3203
sg37
I00
sba(issf_api
Word
p3227
(dp3228
g6
I00
sg7
V\u092d\u0940
p3229
sg9
(issf_api
FeatureSet
p3230
(dp3231
g12
(dp3232
S'posn'
p3233
S'70'
p3234
sS'name'
p3235
S'\xe0\xa4\xad\xe0\xa5\x80'
p3236
sS'drel'
p3237
S'lwg__rp:NP2'
p3238
sS'chunktype'
p3239
S'child:NP2'
p3240
sS'af'
p3241
S'\xe0\xa4\xad\xe0\xa5\x80,avy,,,,,,'
p3242
ssbsg26
I00
sg27
I00
sg28
Nsg29
Nsg30
I3
sg31
I7
sg32
Nsg33
Nsg34
S'RP'
p3243
sg36
g3230
sg37
I00
sba(issf_api
Word
p3244
(dp3245
g6
I00
sg7
V\u0909\u0928\u0915\u0940
p3246
sg9
(issf_api
FeatureSet
p3247
(dp3248
g12
(dp3249
S'crefhead'
p3250
S'\xe0\xa4\x89\xe0\xa4\xa8\xe0\xa4\x95\xe0\xa5\x80:i35'
p3251
sS'posn'
p3252
S'80'
p3253
sS'name'
p3254
S'\xe0\xa4\x89\xe0\xa4\xa8\xe0\xa4\x95\xe0\xa5\x80'
p3255
sS'af'
p3256
S'\xe0\xa4\xb5\xe0\xa4\xb9,pn,f,sg,3h,o,\xe0\xa4\x95\xe0\xa4\xbe,kA'
p3257
sS'chunkid'
p3258
S'NP3'
p3259
sS'creftype'
p3260
S'Anaphora-C:i32'
p3261
sS'chunktype'
p3262
S'head:NP3'
p3263
sS'cref'
p3264
S'i35%1:t7'
p3265
sS'drel'
p3266
S'r6:NP4'
p3267
ssbsg26
I00
sg27
I00
sg28
Nsg29
Nsg30
I4
sg31
I7
sg32
Nsg33
Nsg34
S'PRP'
p3268
sg36
g3247
sg37
I00
sba(issf_api
Word
p3269
(dp3270
g6
I00
sg7
V\u092e\u093e\u0902\u0917
p3271
sg9
(issf_api
FeatureSet
p3272
(dp3273
g12
(dp3274
S'posn'
p3275
S'90'
p3276
sS'name'
p3277
S'\xe0\xa4\xae\xe0\xa4\xbe\xe0\xa4\x82\xe0\xa4\x97'
p3278
sS'af'
p3279
S'\xe0\xa4\xae\xe0\xa4\xbe\xe0\xa4\x82\xe0\xa4\x97,n,f,sg,3,o,0_\xe0\xa4\xaa\xe0\xa4\xb0,0'
p3280
sS'chunkid'
p3281
S'NP4'
p3282
sS'drel'
p3283
S'k7:VGF2'
p3284
sS'vpos'
p3285
S'vib_2'
p3286
sS'chunktype'
p3287
S'head:NP4'
p3288
ssbsg26
I00
sg27
I00
sg28
Nsg29
Nsg30
I5
sg31
I7
sg32
Nsg33
Nsg34
S'NN'
p3289
sg36
g3272
sg37
I00
sba(issf_api
Word
p3290
(dp3291
g6
I00
sg7
V\u092a\u0930
p3292
sg9
(issf_api
FeatureSet
p3293
(dp3294
g12
(dp3295
S'posn'
p3296
S'100'
p3297
sS'name'
p3298
S'\xe0\xa4\xaa\xe0\xa4\xb0'
p3299
sS'drel'
p3300
S'lwg__psp:NP4'
p3301
sS'chunktype'
p3302
S'child:NP4'
p3303
sS'af'
p3304
S'\xe0\xa4\xaa\xe0\xa4\xb0,psp,,,,,,'
p3305
ssbsg26
I00
sg27
I00
sg28
Nsg29
Nsg30
I5
sg31
I7
sg32
Nsg33
Nsg34
S'PSP'
p3306
sg36
g3293
sg37
I00
sba(issf_api
Word
p3307
(dp3308
g6
I00
sg7
V\u091a\u0930\u094d\u091a\u093e
p3309
sg9
(issf_api
FeatureSet
p3310
(dp3311
g12
(dp3312
S'posn'
p3313
S'110'
p3314
sS'name'
p3315
S'\xe0\xa4\x9a\xe0\xa4\xb0\xe0\xa5\x8d\xe0\xa4\x9a\xe0\xa4\xbe'
p3316
sS'af'
p3317
S'\xe0\xa4\x9a\xe0\xa4\xb0\xe0\xa5\x8d\xe0\xa4\x9a\xe0\xa4\xbe,n,f,sg,3,o,0_\xe0\xa4\x95\xe0\xa5\x87_\xe0\xa4\xb2\xe0\xa4\xbf\xe0\xa4\x8f,0'
p3318
sS'chunkid'
p3319
S'NP5'
p3320
sS'drel'
p3321
S'rt:VGF2'
p3322
sS'vpos'
p3323
S'vib_2_3'
p3324
sS'chunktype'
p3325
S'head:NP5'
p3326
ssbsg26
I00
sg27
I00
sg28
Nsg29
Nsg30
I6
sg31
I7
sg32
Nsg33
Nsg34
S'NN'
p3327
sg36
g3310
sg37
I00
sba(issf_api
Word
p3328
(dp3329
g6
I00
sg7
V\u0915\u0947
p3330
sg9
(issf_api
FeatureSet
p3331
(dp3332
g12
(dp3333
S'posn'
p3334
S'120'
p3335
sS'name'
p3336
S'\xe0\xa4\x95\xe0\xa5\x87'
p3337
sS'drel'
p3338
S'lwg__psp:NP5'
p3339
sS'chunktype'
p3340
S'child:NP5'
p3341
sS'af'
p3342
S'\xe0\xa4\x95\xe0\xa5\x87,psp,,,,,,'
p3343
ssbsg26
I00
sg27
I00
sg28
Nsg29
Nsg30
I6
sg31
I7
sg32
Nsg33
Nsg34
S'PSP'
p3344
sg36
g3331
sg37
I00
sba(issf_api
Word
p3345
(dp3346
g6
I00
sg7
V\u0932\u093f\u090f
p3347
sg9
(issf_api
FeatureSet
p3348
(dp3349
g12
(dp3350
S'posn'
p3351
S'130'
p3352
sS'name'
p3353
S'\xe0\xa4\xb2\xe0\xa4\xbf\xe0\xa4\x8f'
p3354
sS'drel'
p3355
S'lwg__psp:NP5'
p3356
sS'chunktype'
p3357
S'child:NP5'
p3358
sS'af'
p3359
S'\xe0\xa4\xb2\xe0\xa4\xbf\xe0\xa4\x8f,psp,,,,,,'
p3360
ssbsg26
I00
sg27
I00
sg28
Nsg29
Nsg30
I6
sg31
I7
sg32
Nsg33
Nsg34
S'PSP'
p3361
sg36
g3348
sg37
I00
sba(issf_api
Word
p3362
(dp3363
g6
I00
sg7
V\u0924\u0948\u092f\u093e\u0930
p3364
sg9
(issf_api
FeatureSet
p3365
(dp3366
g12
(dp3367
S'posn'
p3368
S'140'
p3369
sS'name'
p3370
S'\xe0\xa4\xa4\xe0\xa5\x88\xe0\xa4\xaf\xe0\xa4\xbe\xe0\xa4\xb0'
p3371
sS'af'
p3372
S'\xe0\xa4\xa4\xe0\xa5\x88\xe0\xa4\xaf\xe0\xa4\xbe\xe0\xa4\xb0,adj,any,any,,,,'
p3373
sS'chunkid'
p3374
S'JJP'
p3375
sS'drel'
p3376
S'k1s:VGF2'
p3377
sS'chunktype'
p3378
S'head:JJP'
p3379
ssbsg26
I00
sg27
I00
sg28
Nsg29
Nsg30
I7
sg31
I7
sg32
Nsg33
Nsg34
S'JJ'
p3380
sg36
g3365
sg37
I00
sba(issf_api
Word
p3381
(dp3382
g6
I00
sg7
V\u0939\u0948\u0902
p3383
sg9
(issf_api
FeatureSet
p3384
(dp3385
g12
(dp3386
S'posn'
p3387
S'150'
p3388
sS'name'
p3389
S'\xe0\xa4\xb9\xe0\xa5\x88\xe0\xa4\x82'
p3390
sS'af'
p3391
S'\xe0\xa4\xb9\xe0\xa5\x88,v,any,sg,3h,,\xe0\xa4\xb9\xe0\xa5\x88,hE'
p3392
sS'chunkid'
p3393
S'VGF2'
p3394
sS'stype'
p3395
S'declarative'
p3396
sS'drel'
p3397
S'ccof:CCP'
p3398
sS'voicetype'
p3399
S'active'
p3400
sS'chunktype'
p3401
S'head:VGF2'
p3402
ssbsg26
I00
sg27
I00
sg28
Nsg29
Nsg30
I8
sg31
I7
sg32
Nsg33
Nsg34
S'VM'
p3403
sg36
g3384
sg37
I00
sba(issf_api
Word
p3404
(dp3405
g6
I00
sg7
V\u0964
p3406
sg9
(issf_api
FeatureSet
p3407
(dp3408
g12
(dp3409
S'posn'
p3410
S'160'
p3411
sS'name'
p3412
S'\xe0\xa5\xa4'
p3413
sS'af'
p3414
S'\xe0\xa5\xa4,punc,,,,,,'
p3415
sS'chunkid'
p3416
S'BLK'
p3417
sS'drel'
p3418
S'rsym:VGF'
p3419
sS'chunktype'
p3420
S'head:BLK'
p3421
ssbsg26
I00
sg27
I00
sg28
Nsg29
Nsg30
I9
sg31
I7
sg32
Nsg33
Nsg34
S'SYM'
p3422
sg36
g3407
sg37
I00
sba(issf_api
Word
p3423
(dp3424
g6
I00
sg7
V\u0938\u093f\u0928\u094d\u0939\u093e
p3425
sg9
(issf_api
FeatureSet
p3426
(dp3427
g12
(dp3428
S'crefhead'
p3429
S'\xe0\xa4\xb8\xe0\xa4\xbf\xe0\xa4\xa8\xe0\xa5\x8d\xe0\xa4\xb9\xe0\xa4\xbe:i36'
p3430
sS'posn'
p3431
S'10'
p3432
sS'name'
p3433
S'\xe0\xa4\xb8\xe0\xa4\xbf\xe0\xa4\xa8\xe0\xa5\x8d\xe0\xa4\xb9\xe0\xa4\xbe'
p3434
sS'af'
p3435
S'\xe0\xa4\xb8\xe0\xa4\xbf\xe0\xa4\xa8\xe0\xa5\x8d\xe0\xa4\xb9\xe0\xa4\xbe,n,m,sg,3,o,0_\xe0\xa4\xa8\xe0\xa5\x87,0'
p3436
sS'chunkid'
p3437
S'NP'
p3438
sS'creftype'
p3439
S'Coreference-Identity:i29'
p3440
sS'chunktype'
p3441
S'head:NP'
p3442
sS'vpos'
p3443
S'vib_2'
p3444
sS'cref'
p3445
S'i36%1:t1'
p3446
sS'drel'
p3447
S'k1:VGF'
p3448
ssbsg26
I00
sg27
I00
sg28
Nsg29
Nsg30
I0
sg31
I8
sg32
Nsg33
Nsg34
S'NNP'
p3449
sg36
g3426
sg37
I00
sba(issf_api
Word
p3450
(dp3451
g6
I00
sg7
V\u0928\u0947
p3452
sg9
(issf_api
FeatureSet
p3453
(dp3454
g12
(dp3455
S'posn'
p3456
S'20'
p3457
sS'name'
p3458
S'\xe0\xa4\xa8\xe0\xa5\x87'
p3459
sS'drel'
p3460
S'lwg__psp:NP'
p3461
sS'chunktype'
p3462
S'child:NP'
p3463
sS'af'
p3464
S'\xe0\xa4\xa8\xe0\xa5\x87,psp,,,,,,'
p3465
ssbsg26
I00
sg27
I00
sg28
Nsg29
Nsg30
I0
sg31
I8
sg32
Nsg33
Nsg34
S'PSP'
p3466
sg36
g3453
sg37
I00
sba(issf_api
Word
p3467
(dp3468
g6
I00
sg7
V\u0915\u0939\u093e
p3469
sg9
(issf_api
FeatureSet
p3470
(dp3471
g12
(dp3472
S'posn'
p3473
S'30'
p3474
sS'name'
p3475
S'\xe0\xa4\x95\xe0\xa4\xb9\xe0\xa4\xbe'
p3476
sS'af'
p3477
S'\xe0\xa4\x95\xe0\xa4\xb9,v,m,sg,any,,\xe0\xa4\xaf\xe0\xa4\xbe,yA'
p3478
sS'chunkid'
p3479
S'VGF'
p3480
sS'chunktype'
p3481
S'head:VGF'
p3482
sS'voicetype'
p3483
S'active'
p3484
sS'stype'
p3485
S'declarative'
p3486
ssbsg26
I00
sg27
I00
sg28
Nsg29
Nsg30
I1
sg31
I8
sg32
Nsg33
Nsg34
S'VM'
p3487
sg36
g3470
sg37
I00
sba(issf_api
Word
p3488
(dp3489
g6
I00
sg7
V\u0915\u093f
p3490
sg9
(issf_api
FeatureSet
p3491
(dp3492
g12
(dp3493
S'posn'
p3494
S'40'
p3495
sS'name'
p3496
S'\xe0\xa4\x95\xe0\xa4\xbf'
p3497
sS'af'
p3498
S'\xe0\xa4\x95\xe0\xa4\xbf,avy,,,,,,'
p3499
sS'chunkid'
p3500
S'CCP'
p3501
sS'drel'
p3502
S'k2:VGF'
p3503
sS'chunktype'
p3504
S'head:CCP'
p3505
ssbsg26
I00
sg27
I00
sg28
Nsg29
Nsg30
I2
sg31
I8
sg32
Nsg33
Nsg34
S'CC'
p3506
sg36
g3491
sg37
I00
sba(issf_api
Word
p3507
(dp3508
g6
I00
sg7
V\u0909\u0928\u094d\u0939\u094b\u0902\u0928\u0947
p3509
sg9
(issf_api
FeatureSet
p3510
(dp3511
g12
(dp3512
S'crefhead'
p3513
S'\xe0\xa4\x89\xe0\xa4\xa8\xe0\xa5\x8d\xe0\xa4\xb9\xe0\xa5\x8b\xe0\xa4\x82\xe0\xa4\xa8\xe0\xa5\x87:i37'
p3514
sS'posn'
p3515
S'50'
p3516
sS'name'
p3517
S'\xe0\xa4\x89\xe0\xa4\xa8\xe0\xa5\x8d\xe0\xa4\xb9\xe0\xa5\x8b\xe0\xa4\x82\xe0\xa4\xa8\xe0\xa5\x87'
p3518
sS'af'
p3519
S'\xe0\xa4\xb5\xe0\xa4\xb9,pn,any,sg,3h,o,\xe0\xa4\xa8\xe0\xa5\x87,ne'
p3520
sS'chunkid'
p3521
S'NP2'
p3522
sS'creftype'
p3523
S'Anaphora-C:i36'
p3524
sS'chunktype'
p3525
S'head:NP2'
p3526
sS'cref'
p3527
S'i37%1:t1'
p3528
sS'drel'
p3529
S'k1:VGF2'
p3530
ssbsg26
I00
sg27
I00
sg28
Nsg29
Nsg30
I3
sg31
I8
sg32
Nsg33
Nsg34
S'PRP'
p3531
sg36
g3510
sg37
I00
sba(issf_api
Word
p3532
(dp3533
g6
I00
sg7
V\u0906\u092f\u0915\u0930
p3534
sg9
(issf_api
FeatureSet
p3535
(dp3536
g12
(dp3537
S'posn'
p3538
S'60'
p3539
sS'name'
p3540
S'\xe0\xa4\x86\xe0\xa4\xaf\xe0\xa4\x95\xe0\xa4\xb0'
p3541
sS'drel'
p3542
S'pof__cn:NP3'
p3543
sS'chunktype'
p3544
S'child:NP3'
p3545
sS'af'
p3546
S'\xe0\xa4\x86\xe0\xa4\xaf\xe0\xa4\x95\xe0\xa4\xb0,n,m,sg,3,d,0,0'
p3547
ssbsg26
I00
sg27
I00
sg28
Nsg29
Nsg30
I4
sg31
I8
sg32
Nsg33
Nsg34
S'NNPC'
p3548
sg36
g3535
sg37
I00
sba(issf_api
Word
p3549
(dp3550
g6
I00
sg7
V\u092a\u094d\u0930\u0936\u093f\u0915\u094d\u0937\u0923
p3551
sg9
(issf_api
FeatureSet
p3552
(dp3553
g12
(dp3554
S'posn'
p3555
S'70'
p3556
sS'name'
p3557
S'\xe0\xa4\xaa\xe0\xa5\x8d\xe0\xa4\xb0\xe0\xa4\xb6\xe0\xa4\xbf\xe0\xa4\x95\xe0\xa5\x8d\xe0\xa4\xb7\xe0\xa4\xa3'
p3558
sS'drel'
p3559
S'pof__cn:NP3'
p3560
sS'chunktype'
p3561
S'child:NP3'
p3562
sS'af'
p3563
S'\xe0\xa4\xaa\xe0\xa5\x8d\xe0\xa4\xb0\xe0\xa4\xb6\xe0\xa4\xbf\xe0\xa4\x95\xe0\xa5\x8d\xe0\xa4\xb7\xe0\xa4\xa3,n,m,sg,3,d,0,0'
p3564
ssbsg26
I00
sg27
I00
sg28
Nsg29
Nsg30
I4
sg31
I8
sg32
Nsg33
Nsg34
S'NNPC'
p3565
sg36
g3552
sg37
I00
sba(issf_api
Word
p3566
(dp3567
g6
I00
sg7
V\u0938\u0902\u0938\u094d\u0925\u093e\u0928
p3568
sg9
(issf_api
FeatureSet
p3569
(dp3570
g12
(dp3571
S'posn'
p3572
S'80'
p3573
sS'name'
p3574
S'\xe0\xa4\xb8\xe0\xa4\x82\xe0\xa4\xb8\xe0\xa5\x8d\xe0\xa4\xa5\xe0\xa4\xbe\xe0\xa4\xa8'
p3575
sS'af'
p3576
S'\xe0\xa4\xb8\xe0\xa4\x82\xe0\xa4\xb8\xe0\xa5\x8d\xe0\xa4\xa5\xe0\xa4\xbe\xe0\xa4\xa8,n,m,sg,3,d,0,0'
p3577
sS'chunkid'
p3578
S'NP3'
p3579
sS'drel'
p3580
S'k2:VGNN'
p3581
sS'chunktype'
p3582
S'head:NP3'
p3583
ssbsg26
I00
sg27
I00
sg28
Nsg29
Nsg30
I4
sg31
I8
sg32
Nsg33
Nsg34
S'NNP'
p3584
sg36
g3569
sg37
I00
sba(issf_api
Word
p3585
(dp3586
g6
I00
sg7
V\u092c\u0902\u0926
p3587
sg9
(issf_api
FeatureSet
p3588
(dp3589
g12
(dp3590
S'posn'
p3591
S'90'
p3592
sS'name'
p3593
S'\xe0\xa4\xac\xe0\xa4\x82\xe0\xa4\xa6'
p3594
sS'af'
p3595
S'\xe0\xa4\xac\xe0\xa4\x82\xe0\xa4\xa6,adj,any,any,,,,'
p3596
sS'chunkid'
p3597
S'JJP'
p3598
sS'drel'
p3599
S'pof:VGNN'
p3600
sS'chunktype'
p3601
S'head:JJP'
p3602
ssbsg26
I00
sg27
I00
sg28
Nsg29
Nsg30
I5
sg31
I8
sg32
Nsg33
Nsg34
S'JJ'
p3603
sg36
g3588
sg37
I00
sba(issf_api
Word
p3604
(dp3605
g6
I00
sg7
V\u0915\u0930\u0928\u0947
p3606
sg9
(issf_api
FeatureSet
p3607
(dp3608
g12
(dp3609
S'posn'
p3610
S'100'
p3611
sS'name'
p3612
S'\xe0\xa4\x95\xe0\xa4\xb0\xe0\xa4\xa8\xe0\xa5\x87'
p3613
sS'af'
p3614
S'\xe0\xa4\x95\xe0\xa4\xb0,v,any,sg,any,o,\xe0\xa4\xa8\xe0\xa4\xbe_\xe0\xa4\x95\xe0\xa4\xbe,nA'
p3615
sS'chunkid'
p3616
S'VGNN'
p3617
sS'drel'
p3618
S'r6:NP4'
p3619
sS'vpos'
p3620
S'tam_2'
p3621
sS'chunktype'
p3622
S'head:VGNN'
p3623
ssbsg26
I00
sg27
I00
sg28
Nsg29
Nsg30
I6
sg31
I8
sg32
Nsg33
Nsg34
S'VM'
p3624
sg36
g3607
sg37
I00
sba(issf_api
Word
p3625
(dp3626
g6
I00
sg7
V\u0915\u0947
p3627
sg9
(issf_api
FeatureSet
p3628
(dp3629
g12
(dp3630
S'posn'
p3631
S'110'
p3632
sS'name'
p3633
S'\xe0\xa4\x95\xe0\xa5\x87'
p3634
sS'drel'
p3635
S'lwg__psp:VGNN'
p3636
sS'chunktype'
p3637
S'child:VGNN'
p3638
sS'af'
p3639
S'\xe0\xa4\x95\xe0\xa4\xbe,psp,m,sg,,o,,'
p3640
ssbsg26
I00
sg27
I00
sg28
Nsg29
Nsg30
I6
sg31
I8
sg32
Nsg33
Nsg34
S'PSP'
p3641
sg36
g3628
sg37
I00
sba(issf_api
Word
p3642
(dp3643
g6
I00
sg7
V\u092e\u0941\u0926\u094d\u0926\u0947
p3644
sg9
(issf_api
FeatureSet
p3645
(dp3646
g12
(dp3647
S'posn'
p3648
S'120'
p3649
sS'name'
p3650
S'\xe0\xa4\xae\xe0\xa5\x81\xe0\xa4\xa6\xe0\xa5\x8d\xe0\xa4\xa6\xe0\xa5\x87'
p3651
sS'af'
p3652
S'\xe0\xa4\xae\xe0\xa5\x81\xe0\xa4\xa6\xe0\xa5\x8d\xe0\xa4\xa6\xe0\xa4\xbe,n,m,sg,3,o,0_\xe0\xa4\xaa\xe0\xa4\xb0,0'
p3653
sS'chunkid'
p3654
S'NP4'
p3655
sS'drel'
p3656
S'k7:VGF2'
p3657
sS'vpos'
p3658
S'vib_2'
p3659
sS'chunktype'
p3660
S'head:NP4'
p3661
ssbsg26
I00
sg27
I00
sg28
Nsg29
Nsg30
I7
sg31
I8
sg32
Nsg33
Nsg34
S'NN'
p3662
sg36
g3645
sg37
I00
sba(issf_api
Word
p3663
(dp3664
g6
I00
sg7
V\u092a\u0930
p3665
sg9
(issf_api
FeatureSet
p3666
(dp3667
g12
(dp3668
S'posn'
p3669
S'130'
p3670
sS'name'
p3671
S'\xe0\xa4\xaa\xe0\xa4\xb0'
p3672
sS'drel'
p3673
S'lwg__psp:NP4'
p3674
sS'chunktype'
p3675
S'child:NP4'
p3676
sS'af'
p3677
S'\xe0\xa4\xaa\xe0\xa4\xb0,psp,,,,,,'
p3678
ssbsg26
I00
sg27
I00
sg28
Nsg29
Nsg30
I7
sg31
I8
sg32
Nsg33
Nsg34
S'PSP'
p3679
sg36
g3666
sg37
I00
sba(issf_api
Word
p3680
(dp3681
g6
I00
sg7
V\u092f\u0942\u092a\u0940\u090f
p3682
sg9
(issf_api
FeatureSet
p3683
(dp3684
g12
(dp3685
S'posn'
p3686
S'140'
p3687
sS'name'
p3688
S'\xe0\xa4\xaf\xe0\xa5\x82\xe0\xa4\xaa\xe0\xa5\x80\xe0\xa4\x8f'
p3689
sS'drel'
p3690
S'nmod__adj:NP5'
p3691
sS'chunktype'
p3692
S'child:NP5'
p3693
sS'af'
p3694
S'\xe0\xa4\xaf\xe0\xa5\x82\xe0\xa4\xaa\xe0\xa5\x80\xe0\xa4\x8f,n,m,sg,3,d,0,0'
p3695
ssbsg26
I00
sg27
I00
sg28
Nsg29
Nsg30
I8
sg31
I8
sg32
Nsg33
Nsg34
S'NNP'
p3696
sg36
g3683
sg37
I00
sba(issf_api
Word
p3697
(dp3698
g6
I00
sg7
V\u0938\u0930\u0915\u093e\u0930
p3699
sg9
(issf_api
FeatureSet
p3700
(dp3701
g12
(dp3702
S'posn'
p3703
S'150'
p3704
sS'name'
p3705
S'\xe0\xa4\xb8\xe0\xa4\xb0\xe0\xa4\x95\xe0\xa4\xbe\xe0\xa4\xb0'
p3706
sS'af'
p3707
S'\xe0\xa4\xb8\xe0\xa4\xb0\xe0\xa4\x95\xe0\xa4\xbe\xe0\xa4\xb0,n,f,sg,3,o,0_\xe0\xa4\x95\xe0\xa4\xbe,0'
p3708
sS'chunkid'
p3709
S'NP5'
p3710
sS'drel'
p3711
S'r6:NP6'
p3712
sS'vpos'
p3713
S'vib_vib_3'
p3714
sS'chunktype'
p3715
S'head:NP5'
p3716
ssbsg26
I00
sg27
I00
sg28
Nsg29
Nsg30
I8
sg31
I8
sg32
Nsg33
Nsg34
S'NN'
p3717
sg36
g3700
sg37
I00
sba(issf_api
Word
p3718
(dp3719
g6
I00
sg7
V\u0915\u0940
p3720
sg9
(issf_api
FeatureSet
p3721
(dp3722
g12
(dp3723
S'posn'
p3724
S'160'
p3725
sS'name'
p3726
S'\xe0\xa4\x95\xe0\xa5\x80'
p3727
sS'drel'
p3728
S'lwg__psp:NP5'
p3729
sS'chunktype'
p3730
S'child:NP5'
p3731
sS'af'
p3732
S'\xe0\xa4\x95\xe0\xa4\xbe,psp,f,sg,,d,,'
p3733
ssbsg26
I00
sg27
I00
sg28
Nsg29
Nsg30
I8
sg31
I8
sg32
Nsg33
Nsg34
S'PSP'
p3734
sg36
g3721
sg37
I00
sba(issf_api
Word
p3735
(dp3736
g6
I00
sg7
V\u0935\u093e\u0930\u094d\u0924\u093e
p3737
sg9
(issf_api
FeatureSet
p3738
(dp3739
g12
(dp3740
S'posn'
p3741
S'170'
p3742
sS'name'
p3743
S'\xe0\xa4\xb5\xe0\xa4\xbe\xe0\xa4\xb0\xe0\xa5\x8d\xe0\xa4\xa4\xe0\xa4\xbe'
p3744
sS'af'
p3745
S'\xe0\xa4\xb5\xe0\xa4\xbe\xe0\xa4\xb0\xe0\xa5\x8d\xe0\xa4\xa4\xe0\xa4\xbe,n,f,sg,3,o,0_\xe0\xa4\x95\xe0\xa5\x87_\xe0\xa4\xb2\xe0\xa4\xbf\xe0\xa4\x8f,0'
p3746
sS'chunkid'
p3747
S'NP6'
p3748
sS'drel'
p3749
S'r6:VGNN2'
p3750
sS'vpos'
p3751
S'vib_2_3'
p3752
sS'chunktype'
p3753
S'head:NP6'
p3754
ssbsg26
I00
sg27
I00
sg28
Nsg29
Nsg30
I9
sg31
I8
sg32
Nsg33
Nsg34
S'NN'
p3755
sg36
g3738
sg37
I00
sba(issf_api
Word
p3756
(dp3757
g6
I00
sg7
V\u0915\u0947
p3758
sg9
(issf_api
FeatureSet
p3759
(dp3760
g12
(dp3761
S'posn'
p3762
S'180'
p3763
sS'name'
p3764
S'\xe0\xa4\x95\xe0\xa5\x872'
p3765
sS'drel'
p3766
S'lwg__psp:NP6'
p3767
sS'chunktype'
p3768
S'child:NP6'
p3769
sS'af'
p3770
S'\xe0\xa4\x95\xe0\xa5\x87,psp,,,,,,'
p3771
ssbsg26
I00
sg27
I00
sg28
Nsg29
Nsg30
I9
sg31
I8
sg32
Nsg33
Nsg34
S'PSP'
p3772
sg36
g3759
sg37
I00
sba(issf_api
Word
p3773
(dp3774
g6
I00
sg7
V\u0932\u093f\u090f
p3775
sg9
(issf_api
FeatureSet
p3776
(dp3777
g12
(dp3778
S'posn'
p3779
S'190'
p3780
sS'name'
p3781
S'\xe0\xa4\xb2\xe0\xa4\xbf\xe0\xa4\x8f'
p3782
sS'drel'
p3783
S'lwg__psp:NP6'
p3784
sS'chunktype'
p3785
S'child:NP6'
p3786
sS'af'
p3787
S'\xe0\xa4\xb2\xe0\xa4\xbf\xe0\xa4\x8f,psp,,,,,,'
p3788
ssbsg26
I00
sg27
I00
sg28
Nsg29
Nsg30
I9
sg31
I8
sg32
Nsg33
Nsg34
S'PSP'
p3789
sg36
g3776
sg37
I00
sba(issf_api
Word
p3790
(dp3791
g6
I00
sg7
V\u0930\u093e\u091c\u0940
p3792
sg9
(issf_api
FeatureSet
p3793
(dp3794
g12
(dp3795
S'posn'
p3796
S'200'
p3797
sS'name'
p3798
S'\xe0\xa4\xb0\xe0\xa4\xbe\xe0\xa4\x9c\xe0\xa5\x80'
p3799
sS'af'
p3800
S'\xe0\xa4\xb0\xe0\xa4\xbe\xe0\xa4\x9c\xe0\xa5\x80,adj,any,any,,,,'
p3801
sS'chunkid'
p3802
S'JJP2'
p3803
sS'drel'
p3804
S'pof:VGNN2'
p3805
sS'chunktype'
p3806
S'head:JJP2'
p3807
ssbsg26
I00
sg27
I00
sg28
Nsg29
Nsg30
I10
sg31
I8
sg32
Nsg33
Nsg34
S'JJ'
p3808
sg36
g3793
sg37
I00
sba(issf_api
Word
p3809
(dp3810
g6
I00
sg7
V\u0939\u094b\u0928\u0947
p3811
sg9
(issf_api
FeatureSet
p3812
(dp3813
g12
(dp3814
S'posn'
p3815
S'210'
p3816
sS'name'
p3817
S'\xe0\xa4\xb9\xe0\xa5\x8b\xe0\xa4\xa8\xe0\xa5\x87'
p3818
sS'af'
p3819
S'\xe0\xa4\xb9\xe0\xa5\x8b,v,any,sg,3,o,\xe0\xa4\xa8\xe0\xa4\xbe_\xe0\xa4\x95\xe0\xa5\x87_\xe0\xa4\xac\xe0\xa4\xbe\xe0\xa4\xa6,nA'
p3820
sS'chunkid'
p3821
S'VGNN2'
p3822
sS'drel'
p3823
S'k7t:VGF2'
p3824
sS'vpos'
p3825
S'tam_2_3'
p3826
sS'chunktype'
p3827
S'head:VGNN2'
p3828
ssbsg26
I00
sg27
I00
sg28
Nsg29
Nsg30
I11
sg31
I8
sg32
Nsg33
Nsg34
S'VM'
p3829
sg36
g3812
sg37
I00
sba(issf_api
Word
p3830
(dp3831
g6
I00
sg7
V\u0915\u0947
p3832
sg9
(issf_api
FeatureSet
p3833
(dp3834
g12
(dp3835
S'posn'
p3836
S'220'
p3837
sS'name'
p3838
S'\xe0\xa4\x95\xe0\xa5\x873'
p3839
sS'drel'
p3840
S'lwg__psp:VGNN2'
p3841
sS'chunktype'
p3842
S'child:VGNN2'
p3843
sS'af'
p3844
S'\xe0\xa4\x95\xe0\xa5\x87,psp,,,,,,'
p3845
ssbsg26
I00
sg27
I00
sg28
Nsg29
Nsg30
I11
sg31
I8
sg32
Nsg33
Nsg34
S'PSP'
p3846
sg36
g3833
sg37
I00
sba(issf_api
Word
p3847
(dp3848
g6
I00
sg7
V\u092c\u093e\u0926
p3849
sg9
(issf_api
FeatureSet
p3850
(dp3851
g12
(dp3852
S'posn'
p3853
S'230'
p3854
sS'name'
p3855
S'\xe0\xa4\xac\xe0\xa4\xbe\xe0\xa4\xa6'
p3856
sS'drel'
p3857
S'lwg__nst:VGNN2'
p3858
sS'chunktype'
p3859
S'child:VGNN2'
p3860
sS'af'
p3861
S'\xe0\xa4\xac\xe0\xa4\xbe\xe0\xa4\xa6,nst,m,sg,3,d,,'
p3862
ssbsg26
I00
sg27
I00
sg28
Nsg29
Nsg30
I11
sg31
I8
sg32
Nsg33
Nsg34
S'NST'
p3863
sg36
g3850
sg37
I00
sba(issf_api
Word
p3864
(dp3865
g6
I00
sg7
V\u0967\u0969
p3866
sg9
(issf_api
FeatureSet
p3867
(dp3868
g12
(dp3869
S'posn'
p3870
S'240'
p3871
sS'name'
p3872
S'\xe0\xa5\xa7\xe0\xa5\xa9'
p3873
sS'drel'
p3874
S'pof__cn:NP7'
p3875
sS'chunktype'
p3876
S'child:NP7'
p3877
sS'af'
p3878
S'\xe0\xa5\xa7\xe0\xa5\xa9,n,any,sg,3,d,0,0'
p3879
ssbsg26
I00
sg27
I00
sg28
Nsg29
Nsg30
I12
sg31
I8
sg32
Nsg33
Nsg34
S'NNPC'
p3880
sg36
g3867
sg37
I00
sba(issf_api
Word
p3881
(dp3882
g6
I00
sg7
V\u092b\u0930\u0935\u0930\u0940
p3883
sg9
(issf_api
FeatureSet
p3884
(dp3885
g12
(dp3886
S'posn'
p3887
S'250'
p3888
sS'name'
p3889
S'\xe0\xa4\xab\xe0\xa4\xb0\xe0\xa4\xb5\xe0\xa4\xb0\xe0\xa5\x80'
p3890
sS'af'
p3891
S'\xe0\xa4\xab\xe0\xa4\xb0\xe0\xa4\xb5\xe0\xa4\xb0\xe0\xa5\x80,n,f,sg,3,o,0_\xe0\xa4\x95\xe0\xa5\x8b,0'
p3892
sS'chunkid'
p3893
S'NP7'
p3894
sS'drel'
p3895
S'k7t:VGF2'
p3896
sS'vpos'
p3897
S'vib_3_RP'
p3898
sS'chunktype'
p3899
S'head:NP7'
p3900
ssbsg26
I00
sg27
I00
sg28
Nsg29
Nsg30
I12
sg31
I8
sg32
Nsg33
Nsg34
S'NNP'
p3901
sg36
g3884
sg37
I00
sba(issf_api
Word
p3902
(dp3903
g6
I00
sg7
V\u0915\u094b
p3904
sg9
(issf_api
FeatureSet
p3905
(dp3906
g12
(dp3907
S'posn'
p3908
S'260'
p3909
sS'name'
p3910
S'\xe0\xa4\x95\xe0\xa5\x8b'
p3911
sS'drel'
p3912
S'lwg__psp:NP7'
p3913
sS'chunktype'
p3914
S'child:NP7'
p3915
sS'af'
p3916
S'\xe0\xa4\x95\xe0\xa5\x8b,psp,,,,,,'
p3917
ssbsg26
I00
sg27
I00
sg28
Nsg29
Nsg30
I12
sg31
I8
sg32
Nsg33
Nsg34
S'PSP'
p3918
sg36
g3905
sg37
I00
sba(issf_api
Word
p3919
(dp3920
g6
I00
sg7
V\u0939\u0940
p3921
sg9
(issf_api
FeatureSet
p3922
(dp3923
g12
(dp3924
S'posn'
p3925
S'270'
p3926
sS'name'
p3927
S'\xe0\xa4\xb9\xe0\xa5\x80'
p3928
sS'drel'
p3929
S'lwg__rp:NP7'
p3930
sS'chunktype'
p3931
S'child:NP7'
p3932
sS'af'
p3933
S'\xe0\xa4\xb9\xe0\xa5\x80,avy,,,,,,'
p3934
ssbsg26
I00
sg27
I00
sg28
Nsg29
Nsg30
I12
sg31
I8
sg32
Nsg33
Nsg34
S'RP'
p3935
sg36
g3922
sg37
I00
sba(issf_api
Word
p3936
(dp3937
g6
I00
sg7
V\u0905\u092a\u0928\u0947
p3938
sg9
(issf_api
FeatureSet
p3939
(dp3940
g12
(dp3941
S'crefhead'
p3942
S'\xe0\xa4\x85\xe0\xa4\xaa\xe0\xa4\xa8\xe0\xa5\x87:i38'
p3943
sS'posn'
p3944
S'280'
p3945
sS'name'
p3946
S'\xe0\xa4\x85\xe0\xa4\xaa\xe0\xa4\xa8\xe0\xa5\x87'
p3947
sS'af'
p3948
S'\xe0\xa4\x85\xe0\xa4\xaa\xe0\xa4\xa8\xe0\xa4\xbe,pn,m,any,any,d,0,0'
p3949
sS'chunkid'
p3950
S'NP8'
p3951
sS'creftype'
p3952
S'Anaphora-C:i37'
p3953
sS'chunktype'
p3954
S'head:NP8'
p3955
sS'cref'
p3956
S'i38%1:t1'
p3957
sS'drel'
p3958
S'r6:NP9'
p3959
ssbsg26
I00
sg27
I00
sg28
Nsg29
Nsg30
I13
sg31
I8
sg32
Nsg33
Nsg34
S'PRP'
p3960
sg36
g3939
sg37
I00
sba(issf_api
Word
p3961
(dp3962
g6
I00
sg7
V\u0935\u093f\u0930\u094b\u0927
p3963
sg9
(issf_api
FeatureSet
p3964
(dp3965
g12
(dp3966
S'posn'
p3967
S'290'
p3968
sS'name'
p3969
S'\xe0\xa4\xb5\xe0\xa4\xbf\xe0\xa4\xb0\xe0\xa5\x8b\xe0\xa4\xa7'
p3970
sS'drel'
p3971
S'pof__cn:NP9'
p3972
sS'chunktype'
p3973
S'child:NP9'
p3974
sS'af'
p3975
S'\xe0\xa4\xb5\xe0\xa4\xbf\xe0\xa4\xb0\xe0\xa5\x8b\xe0\xa4\xa7,n,m,sg,3,d,0,0'
p3976
ssbsg26
I00
sg27
I00
sg28
Nsg29
Nsg30
I14
sg31
I8
sg32
Nsg33
Nsg34
S'NNC'
p3977
sg36
g3964
sg37
I00
sba(issf_api
Word
p3978
(dp3979
g6
I00
sg7
V\u092a\u094d\u0930\u0926\u0930\u094d\u0936\u0928
p3980
sg9
(issf_api
FeatureSet
p3981
(dp3982
g12
(dp3983
S'posn'
p3984
S'300'
p3985
sS'name'
p3986
S'\xe0\xa4\xaa\xe0\xa5\x8d\xe0\xa4\xb0\xe0\xa4\xa6\xe0\xa4\xb0\xe0\xa5\x8d\xe0\xa4\xb6\xe0\xa4\xa8'
p3987
sS'af'
p3988
S'\xe0\xa4\xaa\xe0\xa5\x8d\xe0\xa4\xb0\xe0\xa4\xa6\xe0\xa4\xb0\xe0\xa5\x8d\xe0\xa4\xb6\xe0\xa4\xa8,n,m,pl,3,d,0,0'
p3989
sS'chunkid'
p3990
S'NP9'
p3991
sS'drel'
p3992
S'k2:VGF2'
p3993
sS'chunktype'
p3994
S'head:NP9'
p3995
ssbsg26
I00
sg27
I00
sg28
Nsg29
Nsg30
I14
sg31
I8
sg32
Nsg33
Nsg34
S'NN'
p3996
sg36
g3981
sg37
I00
sba(issf_api
Word
p3997
(dp3998
g6
I00
sg7
V\u0938\u094d\u0925\u0917\u093f\u0924
p3999
sg9
(issf_api
FeatureSet
p4000
(dp4001
g12
(dp4002
S'posn'
p4003
S'310'
p4004
sS'name'
p4005
S'\xe0\xa4\xb8\xe0\xa5\x8d\xe0\xa4\xa5\xe0\xa4\x97\xe0\xa4\xbf\xe0\xa4\xa4'
p4006
sS'af'
p4007
S'\xe0\xa4\xb8\xe0\xa5\x8d\xe0\xa4\xa5\xe0\xa4\x97\xe0\xa4\xbf\xe0\xa4\xa4,adj,any,any,,,,'
p4008
sS'chunkid'
p4009
S'JJP3'
p4010
sS'drel'
p4011
S'pof:VGF2'
p4012
sS'chunktype'
p4013
S'head:JJP3'
p4014
ssbsg26
I00
sg27
I00
sg28
Nsg29
Nsg30
I15
sg31
I8
sg32
Nsg33
Nsg34
S'JJ'
p4015
sg36
g4000
sg37
I00
sba(issf_api
Word
p4016
(dp4017
g6
I00
sg7
V\u0915\u0930
p4018
sg9
(issf_api
FeatureSet
p4019
(dp4020
g12
(dp4021
S'posn'
p4022
S'320'
p4023
sS'name'
p4024
S'\xe0\xa4\x95\xe0\xa4\xb0'
p4025
sS'af'
p4026
S'\xe0\xa4\x95\xe0\xa4\xb0,v,m,pl,3,,0_\xe0\xa4\xa6\xe0\xa5\x87+\xe0\xa4\xaf\xe0\xa4\xbe_\xe0\xa4\xa5\xe0\xa4\xbe,0'
p4027
sS'chunkid'
p4028
S'VGF2'
p4029
sS'stype'
p4030
S'declarative'
p4031
sS'drel'
p4032
S'ccof:CCP'
p4033
sS'voicetype'
p4034
S'active'
p4035
sS'vpos'
p4036
S'tam_2_3'
p4037
sS'chunktype'
p4038
S'head:VGF2'
p4039
ssbsg26
I00
sg27
I00
sg28
Nsg29
Nsg30
I16
sg31
I8
sg32
Nsg33
Nsg34
S'VM'
p4040
sg36
g4019
sg37
I00
sba(issf_api
Word
p4041
(dp4042
g6
I00
sg7
V\u0926\u093f\u090f
p4043
sg9
(issf_api
FeatureSet
p4044
(dp4045
g12
(dp4046
S'posn'
p4047
S'330'
p4048
sS'name'
p4049
S'\xe0\xa4\xa6\xe0\xa4\xbf\xe0\xa4\x8f'
p4050
sS'drel'
p4051
S'lwg__vaux:VGF2'
p4052
sS'chunktype'
p4053
S'child:VGF2'
p4054
sS'af'
p4055
S'\xe0\xa4\xa6\xe0\xa5\x87,v,m,pl,3,,\xe0\xa4\xaf\xe0\xa4\xbe,yA'
p4056
ssbsg26
I00
sg27
I00
sg28
Nsg29
Nsg30
I16
sg31
I8
sg32
Nsg33
Nsg34
S'VAUX'
p4057
sg36
g4044
sg37
I00
sba(issf_api
Word
p4058
(dp4059
g6
I00
sg7
V\u0925\u0947
p4060
sg9
(issf_api
FeatureSet
p4061
(dp4062
g12
(dp4063
S'posn'
p4064
S'340'
p4065
sS'name'
p4066
S'\xe0\xa4\xa5\xe0\xa5\x87'
p4067
sS'drel'
p4068
S'lwg__vaux:VGF2'
p4069
sS'chunktype'
p4070
S'child:VGF2'
p4071
sS'af'
p4072
S'\xe0\xa4\xa5\xe0\xa4\xbe,v,m,pl,3,,\xe0\xa4\xa5\xe0\xa4\xbe,WA'
p4073
ssbsg26
I00
sg27
I00
sg28
Nsg29
Nsg30
I16
sg31
I8
sg32
Nsg33
Nsg34
S'VAUX'
p4074
sg36
g4061
sg37
I00
sba(issf_api
Word
p4075
(dp4076
g6
I00
sg7
V\u0964
p4077
sg9
(issf_api
FeatureSet
p4078
(dp4079
g12
(dp4080
S'posn'
p4081
S'350'
p4082
sS'name'
p4083
S'\xe0\xa5\xa4'
p4084
sS'af'
p4085
S'\xe0\xa5\xa4,punc,,,,,,'
p4086
sS'chunkid'
p4087
S'BLK'
p4088
sS'drel'
p4089
S'rsym:VGF'
p4090
sS'chunktype'
p4091
S'head:BLK'
p4092
ssbsg26
I00
sg27
I00
sg28
Nsg29
Nsg30
I17
sg31
I8
sg32
Nsg33
Nsg34
S'SYM'
p4093
sg36
g4078
sg37
I00
sbasS'sentenceList'
p4094
(lp4095
(issf_api
Sentence
p4096
(dp4097
S'rootNode'
p4098
(lp4099
sg31
I0
sS'wordNumList'
p4100
(lp4101
I0
aI1
aI2
aI3
aI4
aI5
aI6
aI7
aI8
aI9
aI10
aI11
aI12
aI13
aI14
aI15
aI16
aI17
aI18
aI19
asS'nodeDict'
p4102
(dp4103
S'VGF'
p4104
(issf_api
Node
p4105
(dp4106
S'nodeRelation'
p4107
S'None'
p4108
sS'nodeName'
p4109
g4104
sS'nodeParent'
p4110
g4108
sS'nodeLevel'
p4111
I-1
sg30
I7
sS'childList'
p4112
(lp4113
S'JJP'
p4114
aS'NP5'
p4115
aS'BLK'
p4116
aS'NP4'
p4117
asbsS'CCP'
p4118
(issf_api
Node
p4119
(dp4120
g4107
S'nmod'
p4121
sg4109
g4118
sg4110
S'NP4'
p4122
sg4111
I-1
sg30
I1
sg4112
(lp4123
S'NP'
p4124
aS'NP3'
p4125
asbsg4114
(issf_api
Node
p4126
(dp4127
g4107
S'pof'
p4128
sg4109
g4114
sg4110
S'VGF'
p4129
sg4111
I-1
sg30
I6
sg4112
(lp4130
sbsg4115
(issf_api
Node
p4131
(dp4132
g4107
S'k5'
p4133
sg4109
g4115
sg4110
S'VGF'
p4134
sg4111
I-1
sg30
I5
sg4112
(lp4135
sbsg4116
(issf_api
Node
p4136
(dp4137
g4107
S'rsym'
p4138
sg4109
g4116
sg4110
S'VGF'
p4139
sg4111
I-1
sg30
I8
sg4112
(lp4140
sbsg4124
(issf_api
Node
p4141
(dp4142
g4107
S'ccof'
p4143
sg4109
g4124
sg4110
S'CCP'
p4144
sg4111
I-1
sg30
I0
sg4112
(lp4145
sbsg4117
(issf_api
Node
p4146
(dp4147
g4107
S'k2'
p4148
sg4109
g4117
sg4110
S'VGF'
p4149
sg4111
I-1
sg30
I4
sg4112
(lp4150
g4118
asbsg4125
(issf_api
Node
p4151
(dp4152
g4107
S'ccof'
p4153
sg4109
g4125
sg4110
S'CCP'
p4154
sg4111
I-1
sg30
I3
sg4112
(lp4155
S'NP2'
p4156
asbsg4156
(issf_api
Node
p4157
(dp4158
g4107
S'r6'
p4159
sg4109
g4156
sg4110
S'NP3'
p4160
sg4111
I-1
sg30
I2
sg4112
(lp4161
sbssS'chunkList'
p4162
(lp4163
(issf_api
Chunk
p4164
(dp4165
g4109
g72
sg30
I0
sS'chunkTag'
p4166
g79
sg31
I0
sg4100
(lp4167
I0
aI1
aI2
asg36
(issf_api
FeatureSet
p4168
(dp4169
g12
(dp4170
S'name'
p4171
g4124
sS'drel'
p4172
S'ccof:CCP'
p4173
ssbsba(issf_api
Chunk
p4174
(dp4175
g4109
g93
sg30
I1
sg4166
g98
sg31
I0
sg4100
(lp4176
I3
asg36
(issf_api
FeatureSet
p4177
(dp4178
g12
(dp4179
S'name'
p4180
g4118
sS'drel'
p4181
S'nmod:NP4'
p4182
ssbsba(issf_api
Chunk
p4183
(dp4184
g4109
g116
sg30
I2
sg4166
g129
sg31
I0
sg4100
(lp4185
I4
aI5
asg36
(issf_api
FeatureSet
p4186
(dp4187
g12
(dp4188
S'name'
p4189
g4156
sS'drel'
p4190
S'r6:NP3'
p4191
ssbsba(issf_api
Chunk
p4192
(dp4193
g4109
g181
sg30
I3
sg4166
g192
sg31
I0
sg4100
(lp4194
I6
aI7
asg36
(issf_api
FeatureSet
p4195
(dp4196
g12
(dp4197
S'name'
p4198
g4125
sS'drel'
p4199
S'ccof:CCP'
p4200
ssbsba(issf_api
Chunk
p4201
(dp4202
g4109
g227
sg30
I4
sg4166
g240
sg31
I0
sg4100
(lp4203
I8
aI9
aI10
asg36
(issf_api
FeatureSet
p4204
(dp4205
g12
(dp4206
S'name'
p4207
g4117
sS'drel'
p4208
S'k2:VGF'
p4209
ssbsba(issf_api
Chunk
p4210
(dp4211
g4109
g292
sg30
I5
sg4166
g303
sg31
I0
sg4100
(lp4212
I11
aI12
aI13
asg36
(issf_api
FeatureSet
p4213
(dp4214
g12
(dp4215
S'name'
p4216
g4115
sS'drel'
p4217
S'k5:VGF'
p4218
ssbsba(issf_api
Chunk
p4219
(dp4220
g4109
g334
sg30
I6
sg4166
g339
sg31
I0
sg4100
(lp4221
I14
asg36
(issf_api
FeatureSet
p4222
(dp4223
g12
(dp4224
S'name'
p4225
g4114
sS'drel'
p4226
S'pof:VGF'
p4227
ssbsba(issf_api
Chunk
p4228
(dp4229
g4109
g353
sg30
I7
sg4166
g362
sg31
I0
sg4100
(lp4230
I15
aI16
aI17
aI18
asg36
(issf_api
FeatureSet
p4231
(dp4232
g12
(dp4233
S'name'
p4234
g4104
ssbsba(issf_api
Chunk
p4235
(dp4236
g4109
g427
sg30
I8
sg4166
g432
sg31
I0
sg4100
(lp4237
I19
asg36
(issf_api
FeatureSet
p4238
(dp4239
g12
(dp4240
S'name'
p4241
g4116
sS'drel'
p4242
S'rsym:VGF'
p4243
ssbsbasba(issf_api
Sentence
p4244
(dp4245
g4098
(lp4246
sg31
I1
sg4100
(lp4247
I20
aI21
aI22
aI23
aI24
aI25
aI26
aI27
aI28
aI29
aI30
aI31
aI32
aI33
aI34
aI35
aI36
aI37
asg4102
(dp4248
S'VGNN'
p4249
(issf_api
Node
p4250
(dp4251
g4107
S'k7t'
p4252
sg4109
g4249
sg4110
S'VGF'
p4253
sg4111
I-1
sg30
I5
sg4112
(lp4254
S'JJP2'
p4255
aS'NP'
p4256
aS'NP3'
p4257
asbsS'VGF'
p4258
(issf_api
Node
p4259
(dp4260
g4107
g4108
sg4109
g4258
sg4110
g4108
sg4111
I-1
sg30
I8
sg4112
(lp4261
g4249
aS'JJP3'
p4262
aS'BLK'
p4263
aS'NP4'
p4264
asbsS'JJP'
p4265
(issf_api
Node
p4266
(dp4267
g4107
S'nmod'
p4268
sg4109
g4265
sg4110
S'NP3'
p4269
sg4111
I-1
sg30
I2
sg4112
(lp4270
S'NP2'
p4271
asbsg4255
(issf_api
Node
p4272
(dp4273
g4107
S'pof'
p4274
sg4109
g4255
sg4110
S'VGNN'
p4275
sg4111
I-1
sg30
I4
sg4112
(lp4276
sbsg4262
(issf_api
Node
p4277
(dp4278
g4107
S'pof'
p4279
sg4109
g4262
sg4110
S'VGF'
p4280
sg4111
I-1
sg30
I7
sg4112
(lp4281
sbsg4263
(issf_api
Node
p4282
(dp4283
g4107
S'rsym'
p4284
sg4109
g4263
sg4110
S'VGF'
p4285
sg4111
I-1
sg30
I9
sg4112
(lp4286
sbsg4256
(issf_api
Node
p4287
(dp4288
g4107
S'k1'
p4289
sg4109
g4256
sg4110
S'VGNN'
p4290
sg4111
I-1
sg30
I0
sg4112
(lp4291
sbsg4264
(issf_api
Node
p4292
(dp4293
g4107
S'k2'
p4294
sg4109
g4264
sg4110
S'VGF'
p4295
sg4111
I-1
sg30
I6
sg4112
(lp4296
sbsg4257
(issf_api
Node
p4297
(dp4298
g4107
S'k2'
p4299
sg4109
g4257
sg4110
S'VGNN'
p4300
sg4111
I-1
sg30
I3
sg4112
(lp4301
g4265
asbsg4271
(issf_api
Node
p4302
(dp4303
g4107
S'jjmod'
p4304
sg4109
g4271
sg4110
S'JJP'
p4305
sg4111
I-1
sg30
I1
sg4112
(lp4306
sbssg4162
(lp4307
(issf_api
Chunk
p4308
(dp4309
g4109
g463
sg30
I0
sg4166
g470
sg31
I1
sg4100
(lp4310
I20
aI21
aI22
asg36
(issf_api
FeatureSet
p4311
(dp4312
g12
(dp4313
S'name'
p4314
g4256
sS'drel'
p4315
S'k1:VGNN'
p4316
ssbsba(issf_api
Chunk
p4317
(dp4318
g4109
g503
sg30
I1
sg4166
g514
sg31
I1
sg4100
(lp4319
I23
aI24
asg36
(issf_api
FeatureSet
p4320
(dp4321
g12
(dp4322
S'name'
p4323
g4271
sS'drel'
p4324
S'jjmod:JJP'
p4325
ssbsba(issf_api
Chunk
p4326
(dp4327
g4109
g545
sg30
I2
sg4166
g552
sg31
I1
sg4100
(lp4328
I25
asg36
(issf_api
FeatureSet
p4329
(dp4330
g12
(dp4331
S'name'
p4332
g4265
sS'drel'
p4333
S'nmod:NP3'
p4334
ssbsba(issf_api
Chunk
p4335
(dp4336
g4109
g568
sg30
I3
sg4166
g577
sg31
I1
sg4100
(lp4337
I26
asg36
(issf_api
FeatureSet
p4338
(dp4339
g12
(dp4340
S'name'
p4341
g4257
sS'drel'
p4342
S'k2:VGNN'
p4343
ssbsba(issf_api
Chunk
p4344
(dp4345
g4109
g591
sg30
I4
sg4166
g596
sg31
I1
sg4100
(lp4346
I27
asg36
(issf_api
FeatureSet
p4347
(dp4348
g12
(dp4349
S'name'
p4350
g4255
sS'drel'
p4351
S'pof:VGNN'
p4352
ssbsba(issf_api
Chunk
p4353
(dp4354
g4109
g610
sg30
I5
sg4166
g617
sg31
I1
sg4100
(lp4355
I28
aI29
aI30
aI31
asg36
(issf_api
FeatureSet
p4356
(dp4357
g12
(dp4358
S'name'
p4359
g4249
sS'drel'
p4360
S'k7t:VGF'
p4361
ssbsba(issf_api
Chunk
p4362
(dp4363
g4109
g684
sg30
I6
sg4166
g693
sg31
I1
sg4100
(lp4364
I32
asg36
(issf_api
FeatureSet
p4365
(dp4366
g12
(dp4367
S'name'
p4368
g4264
sS'drel'
p4369
S'k2:VGF'
p4370
ssbsba(issf_api
Chunk
p4371
(dp4372
g4109
g707
sg30
I7
sg4166
g712
sg31
I1
sg4100
(lp4373
I33
asg36
(issf_api
FeatureSet
p4374
(dp4375
g12
(dp4376
S'name'
p4377
g4262
sS'drel'
p4378
S'pof:VGF'
p4379
ssbsba(issf_api
Chunk
p4380
(dp4381
g4109
g726
sg30
I8
sg4166
g735
sg31
I1
sg4100
(lp4382
I34
aI35
aI36
asg36
(issf_api
FeatureSet
p4383
(dp4384
g12
(dp4385
S'name'
p4386
g4258
ssbsba(issf_api
Chunk
p4387
(dp4388
g4109
g783
sg30
I9
sg4166
g788
sg31
I1
sg4100
(lp4389
I37
asg36
(issf_api
FeatureSet
p4390
(dp4391
g12
(dp4392
S'name'
p4393
g4263
sS'drel'
p4394
S'rsym:VGF'
p4395
ssbsbasba(issf_api
Sentence
p4396
(dp4397
g4098
(lp4398
sg31
I2
sg4100
(lp4399
I38
aI39
aI40
aI41
aI42
aI43
aI44
aI45
aI46
aI47
aI48
aI49
aI50
aI51
aI52
aI53
aI54
aI55
aI56
aI57
aI58
aI59
aI60
aI61
aI62
aI63
aI64
aI65
aI66
asg4102
(dp4400
S'VGF2'
p4401
(issf_api
Node
p4402
(dp4403
g4107
S'ccof'
p4404
sg4109
g4401
sg4110
S'CCP'
p4405
sg4111
I-1
sg30
I12
sg4112
(lp4406
S'NP9'
p4407
aS'NP8'
p4408
aS'NP'
p4409
aS'NP4'
p4410
aS'NP6'
p4411
aS'NP3'
p4412
asbsS'VGF'
p4413
(issf_api
Node
p4414
(dp4415
g4107
g4108
sg4109
g4413
sg4110
g4108
sg4111
I-1
sg30
I1
sg4112
(lp4416
S'JJP'
p4417
aS'BLK'
p4418
aS'NULL__NP'
p4419
asbsS'CCP'
p4420
(issf_api
Node
p4421
(dp4422
g4107
S'rs'
p4423
sg4109
g4420
sg4110
S'NULL__NP'
p4424
sg4111
I-1
sg30
I2
sg4112
(lp4425
g4401
asbsg4417
(issf_api
Node
p4426
(dp4427
g4107
S'k1s'
p4428
sg4109
g4417
sg4110
S'VGF'
p4429
sg4111
I-1
sg30
I0
sg4112
(lp4430
sbsS'NP5'
p4431
(issf_api
Node
p4432
(dp4433
g4107
S'r6'
p4434
sg4109
g4431
sg4110
S'NP6'
p4435
sg4111
I-1
sg30
I7
sg4112
(lp4436
sbsg4407
(issf_api
Node
p4437
(dp4438
g4107
S'k2'
p4439
sg4109
g4407
sg4110
S'VGF2'
p4440
sg4111
I-1
sg30
I11
sg4112
(lp4441
sbsg4408
(issf_api
Node
p4442
(dp4443
g4107
S'k7p'
p4444
sg4109
g4408
sg4110
S'VGF2'
p4445
sg4111
I-1
sg30
I10
sg4112
(lp4446
S'NP7'
p4447
asbsg4418
(issf_api
Node
p4448
(dp4449
g4107
S'rsym'
p4450
sg4109
g4418
sg4110
S'VGF'
p4451
sg4111
I-1
sg30
I13
sg4112
(lp4452
sbsg4419
(issf_api
Node
p4453
(dp4454
g4107
S'k1'
p4455
sg4109
g4419
sg4110
S'VGF'
p4456
sg4111
I-1
sg30
I-1
sg4112
(lp4457
g4420
asbsg4409
(issf_api
Node
p4458
(dp4459
g4107
S'k7t'
p4460
sg4109
g4409
sg4110
S'VGF2'
p4461
sg4111
I-1
sg30
I3
sg4112
(lp4462
sbsg4410
(issf_api
Node
p4463
(dp4464
g4107
S'ras-k1'
p4465
sg4109
g4410
sg4110
S'VGF2'
p4466
sg4111
I-1
sg30
I6
sg4112
(lp4467
sbsg4447
(issf_api
Node
p4468
(dp4469
g4107
S'r6'
p4470
sg4109
g4447
sg4110
S'NP8'
p4471
sg4111
I-1
sg30
I9
sg4112
(lp4472
sbsg4411
(issf_api
Node
p4473
(dp4474
g4107
S'k1'
p4475
sg4109
g4411
sg4110
S'VGF2'
p4476
sg4111
I-1
sg30
I8
sg4112
(lp4477
g4431
asbsg4412
(issf_api
Node
p4478
(dp4479
g4107
S'k7t'
p4480
sg4109
g4412
sg4110
S'VGF2'
p4481
sg4111
I-1
sg30
I5
sg4112
(lp4482
S'NP2'
p4483
asbsg4483
(issf_api
Node
p4484
(dp4485
g4107
S'r6'
p4486
sg4109
g4483
sg4110
S'NP3'
p4487
sg4111
I-1
sg30
I4
sg4112
(lp4488
sbssg4162
(lp4489
(issf_api
Chunk
p4490
(dp4491
g4109
g802
sg30
I0
sg4166
g807
sg31
I2
sg4100
(lp4492
I38
asg36
(issf_api
FeatureSet
p4493
(dp4494
g12
(dp4495
S'name'
p4496
g4417
sS'drel'
p4497
S'k1s:VGF'
p4498
ssbsba(issf_api
Chunk
p4499
(dp4500
g4109
g821
sg30
I1
sg4166
g828
sg31
I2
sg4100
(lp4501
I39
asg36
(issf_api
FeatureSet
p4502
(dp4503
g12
(dp4504
S'name'
p4505
g4413
ssbsba(issf_api
Chunk
p4506
(dp4507
g4109
g842
sg30
I2
sg4166
g847
sg31
I2
sg4100
(lp4508
I40
asg36
(issf_api
FeatureSet
p4509
(dp4510
g12
(dp4511
S'name'
p4512
g4420
sS'drel'
p4513
S'rs:NULL__NP'
p4514
ssbsba(issf_api
Chunk
p4515
(dp4516
g4109
g878
sg30
I3
sg4166
g885
sg31
I2
sg4100
(lp4517
I41
aI42
aI43
asg36
(issf_api
FeatureSet
p4518
(dp4519
g12
(dp4520
S'name'
p4521
g4409
sS'drel'
p4522
S'k7t:VGF2'
p4523
ssbsba(issf_api
Chunk
p4524
(dp4525
g4109
g950
sg30
I4
sg4166
g957
sg31
I2
sg4100
(lp4526
I44
aI45
aI46
aI47
asg36
(issf_api
FeatureSet
p4527
(dp4528
g12
(dp4529
S'name'
p4530
g4483
sS'drel'
p4531
S'r6:NP3'
p4532
ssbsba(issf_api
Chunk
p4533
(dp4534
g4109
g988
sg30
I5
sg4166
g995
sg31
I2
sg4100
(lp4535
I48
aI49
asg36
(issf_api
FeatureSet
p4536
(dp4537
g12
(dp4538
S'name'
p4539
g4412
sS'drel'
p4540
S'k7t:VGF2'
p4541
ssbsba(issf_api
Chunk
p4542
(dp4543
g4109
g1028
sg30
I6
sg4166
g1039
sg31
I2
sg4100
(lp4544
I50
aI51
asg36
(issf_api
FeatureSet
p4545
(dp4546
g12
(dp4547
S'name'
p4548
g4410
sS'drel'
p4549
S'ras-k1:VGF2'
p4550
ssbsba(issf_api
Chunk
p4551
(dp4552
g4109
g1072
sg30
I7
sg4166
g1083
sg31
I2
sg4100
(lp4553
I52
aI53
asg36
(issf_api
FeatureSet
p4554
(dp4555
g12
(dp4556
S'name'
p4557
g4431
sS'drel'
p4558
S'r6:NP6'
p4559
ssbsba(issf_api
Chunk
p4560
(dp4561
g4109
g1131
sg30
I8
sg4166
g1138
sg31
I2
sg4100
(lp4562
I54
aI55
aI56
asg36
(issf_api
FeatureSet
p4563
(dp4564
g12
(dp4565
S'name'
p4566
g4411
sS'drel'
p4567
S'k1:VGF2'
p4568
ssbsba(issf_api
Chunk
p4569
(dp4570
g4109
g1188
sg30
I9
sg4166
g1197
sg31
I2
sg4100
(lp4571
I57
aI58
aI59
asg36
(issf_api
FeatureSet
p4572
(dp4573
g12
(dp4574
S'name'
p4575
g4447
sS'drel'
p4576
S'r6:NP8'
p4577
ssbsba(issf_api
Chunk
p4578
(dp4579
g4109
g1230
sg30
I10
sg4166
g1239
sg31
I2
sg4100
(lp4580
I60
aI61
asg36
(issf_api
FeatureSet
p4581
(dp4582
g12
(dp4583
S'name'
p4584
g4408
sS'drel'
p4585
S'k7p:VGF2'
p4586
ssbsba(issf_api
Chunk
p4587
(dp4588
g4109
g1272
sg30
I11
sg4166
g1279
sg31
I2
sg4100
(lp4589
I62
asg36
(issf_api
FeatureSet
p4590
(dp4591
g12
(dp4592
S'name'
p4593
g4407
sS'drel'
p4594
S'k2:VGF2'
p4595
ssbsba(issf_api
Chunk
p4596
(dp4597
g4109
g1295
sg30
I12
sg4166
g1310
sg31
I2
sg4100
(lp4598
I63
aI64
aI65
asg36
(issf_api
FeatureSet
p4599
(dp4600
g12
(dp4601
S'name'
p4602
g4401
sS'drel'
p4603
S'ccof:CCP'
p4604
ssbsba(issf_api
Chunk
p4605
(dp4606
g4109
g1362
sg30
I13
sg4166
g1367
sg31
I2
sg4100
(lp4607
I66
asg36
(issf_api
FeatureSet
p4608
(dp4609
g12
(dp4610
S'name'
p4611
g4418
sS'drel'
p4612
S'rsym:VGF'
p4613
ssbsbasba(issf_api
Sentence
p4614
(dp4615
g4098
(lp4616
sg31
I3
sg4100
(lp4617
I67
aI68
aI69
aI70
aI71
aI72
aI73
aI74
aI75
aI76
aI77
aI78
aI79
aI80
aI81
asg4102
(dp4618
S'VGF'
p4619
(issf_api
Node
p4620
(dp4621
g4107
g4108
sg4109
g4619
sg4110
g4108
sg4111
I-1
sg30
I5
sg4112
(lp4622
S'JJP'
p4623
aS'BLK'
p4624
aS'NP'
p4625
aS'NP4'
p4626
aS'NP2'
p4627
asbsg4623
(issf_api
Node
p4628
(dp4629
g4107
S'pof'
p4630
sg4109
g4623
sg4110
S'VGF'
p4631
sg4111
I-1
sg30
I4
sg4112
(lp4632
sbsg4624
(issf_api
Node
p4633
(dp4634
g4107
S'rsym'
p4635
sg4109
g4624
sg4110
S'VGF'
p4636
sg4111
I-1
sg30
I6
sg4112
(lp4637
sbsg4625
(issf_api
Node
p4638
(dp4639
g4107
S'k7'
p4640
sg4109
g4625
sg4110
S'VGF'
p4641
sg4111
I-1
sg30
I0
sg4112
(lp4642
sbsg4626
(issf_api
Node
p4643
(dp4644
g4107
S'k7a'
p4645
sg4109
g4626
sg4110
S'VGF'
p4646
sg4111
I-1
sg30
I3
sg4112
(lp4647
S'NP3'
p4648
asbsg4648
(issf_api
Node
p4649
(dp4650
g4107
S'r6'
p4651
sg4109
g4648
sg4110
S'NP4'
p4652
sg4111
I-1
sg30
I2
sg4112
(lp4653
sbsg4627
(issf_api
Node
p4654
(dp4655
g4107
S'k2'
p4656
sg4109
g4627
sg4110
S'VGF'
p4657
sg4111
I-1
sg30
I1
sg4112
(lp4658
sbssg4162
(lp4659
(issf_api
Chunk
p4660
(dp4661
g4109
g1383
sg30
I0
sg4166
g1394
sg31
I3
sg4100
(lp4662
I67
aI68
asg36
(issf_api
FeatureSet
p4663
(dp4664
g12
(dp4665
S'name'
p4666
g4625
sS'drel'
p4667
S'k7:VGF'
p4668
ssbsba(issf_api
Chunk
p4669
(dp4670
g4109
g1427
sg30
I1
sg4166
g1438
sg31
I3
sg4100
(lp4671
I69
aI70
asg36
(issf_api
FeatureSet
p4672
(dp4673
g12
(dp4674
S'name'
p4675
g4627
sS'drel'
p4676
S'k2:VGF'
p4677
ssbsba(issf_api
Chunk
p4678
(dp4679
g4109
g1469
sg30
I2
sg4166
g1476
sg31
I3
sg4100
(lp4680
I71
aI72
asg36
(issf_api
FeatureSet
p4681
(dp4682
g12
(dp4683
S'name'
p4684
g4648
sS'drel'
p4685
S'r6:NP4'
p4686
ssbsba(issf_api
Chunk
p4687
(dp4688
g4109
g1524
sg30
I3
sg4166
g1531
sg31
I3
sg4100
(lp4689
I73
aI74
aI75
aI76
asg36
(issf_api
FeatureSet
p4690
(dp4691
g12
(dp4692
S'name'
p4693
g4626
sS'drel'
p4694
S'k7a:VGF'
p4695
ssbsba(issf_api
Chunk
p4696
(dp4697
g4109
g1579
sg30
I4
sg4166
g1584
sg31
I3
sg4100
(lp4698
I77
asg36
(issf_api
FeatureSet
p4699
(dp4700
g12
(dp4701
S'name'
p4702
g4623
sS'drel'
p4703
S'pof:VGF'
p4704
ssbsba(issf_api
Chunk
p4705
(dp4706
g4109
g1598
sg30
I5
sg4166
g1607
sg31
I3
sg4100
(lp4707
I78
aI79
aI80
asg36
(issf_api
FeatureSet
p4708
(dp4709
g12
(dp4710
S'name'
p4711
g4619
ssbsba(issf_api
Chunk
p4712
(dp4713
g4109
g1655
sg30
I6
sg4166
g1660
sg31
I3
sg4100
(lp4714
I81
asg36
(issf_api
FeatureSet
p4715
(dp4716
g12
(dp4717
S'name'
p4718
g4624
sS'drel'
p4719
S'rsym:VGF'
p4720
ssbsbasba(issf_api
Sentence
p4721
(dp4722
g4098
(lp4723
sg31
I4
sg4100
(lp4724
I82
aI83
aI84
aI85
aI86
aI87
aI88
aI89
aI90
aI91
aI92
aI93
aI94
aI95
aI96
aI97
asg4102
(dp4725
S'VGF'
p4726
(issf_api
Node
p4727
(dp4728
g4107
g4108
sg4109
g4726
sg4110
g4108
sg4111
I-1
sg30
I5
sg4112
(lp4729
S'NP5'
p4730
aS'BLK'
p4731
aS'NP'
p4732
aS'NP4'
p4733
aS'NP3'
p4734
asbsg4730
(issf_api
Node
p4735
(dp4736
g4107
S'k7'
p4737
sg4109
g4730
sg4110
S'VGF'
p4738
sg4111
I-1
sg30
I4
sg4112
(lp4739
sbsg4731
(issf_api
Node
p4740
(dp4741
g4107
S'rsym'
p4742
sg4109
g4731
sg4110
S'VGF'
p4743
sg4111
I-1
sg30
I6
sg4112
(lp4744
sbsg4732
(issf_api
Node
p4745
(dp4746
g4107
S'k7t'
p4747
sg4109
g4732
sg4110
S'VGF'
p4748
sg4111
I-1
sg30
I0
sg4112
(lp4749
sbsg4733
(issf_api
Node
p4750
(dp4751
g4107
S'k4'
p4752
sg4109
g4733
sg4110
S'VGF'
p4753
sg4111
I-1
sg30
I3
sg4112
(lp4754
sbsg4734
(issf_api
Node
p4755
(dp4756
g4107
S'k1'
p4757
sg4109
g4734
sg4110
S'VGF'
p4758
sg4111
I-1
sg30
I2
sg4112
(lp4759
S'NP2'
p4760
asbsg4760
(issf_api
Node
p4761
(dp4762
g4107
S'r6'
p4763
sg4109
g4760
sg4110
S'NP3'
p4764
sg4111
I-1
sg30
I1
sg4112
(lp4765
sbssg4162
(lp4766
(issf_api
Chunk
p4767
(dp4768
g4109
g1674
sg30
I0
sg4166
g1681
sg31
I4
sg4100
(lp4769
I82
aI83
asg36
(issf_api
FeatureSet
p4770
(dp4771
g12
(dp4772
S'name'
p4773
g4732
sS'drel'
p4774
S'k7t:VGF'
p4775
ssbsba(issf_api
Chunk
p4776
(dp4777
g4109
g1712
sg30
I1
sg4166
g1719
sg31
I4
sg4100
(lp4778
I84
aI85
asg36
(issf_api
FeatureSet
p4779
(dp4780
g12
(dp4781
S'name'
p4782
g4760
sS'drel'
p4783
S'r6:NP3'
p4784
ssbsba(issf_api
Chunk
p4785
(dp4786
g4109
g1784
sg30
I2
sg4166
g1791
sg31
I4
sg4100
(lp4787
I86
aI87
aI88
aI89
asg36
(issf_api
FeatureSet
p4788
(dp4789
g12
(dp4790
S'name'
p4791
g4734
sS'drel'
p4792
S'k1:VGF'
p4793
ssbsba(issf_api
Chunk
p4794
(dp4795
g4109
g1824
sg30
I3
sg4166
g1833
sg31
I4
sg4100
(lp4796
I90
asg36
(issf_api
FeatureSet
p4797
(dp4798
g12
(dp4799
S'name'
p4800
g4733
sS'drel'
p4801
S'k4:VGF'
p4802
ssbsba(issf_api
Chunk
p4803
(dp4804
g4109
g1868
sg30
I4
sg4166
g1879
sg31
I4
sg4100
(lp4805
I91
aI92
aI93
asg36
(issf_api
FeatureSet
p4806
(dp4807
g12
(dp4808
S'name'
p4809
g4730
sS'drel'
p4810
S'k7:VGF'
p4811
ssbsba(issf_api
Chunk
p4812
(dp4813
g4109
g1910
sg30
I5
sg4166
g1919
sg31
I4
sg4100
(lp4814
I94
aI95
aI96
asg36
(issf_api
FeatureSet
p4815
(dp4816
g12
(dp4817
S'name'
p4818
g4726
ssbsba(issf_api
Chunk
p4819
(dp4820
g4109
g1967
sg30
I6
sg4166
g1972
sg31
I4
sg4100
(lp4821
I97
asg36
(issf_api
FeatureSet
p4822
(dp4823
g12
(dp4824
S'name'
p4825
g4731
sS'drel'
p4826
S'rsym:VGF'
p4827
ssbsbasba(issf_api
Sentence
p4828
(dp4829
g4098
(lp4830
sg31
I5
sg4100
(lp4831
I98
aI99
aI100
aI101
aI102
aI103
aI104
aI105
aI106
aI107
aI108
aI109
aI110
aI111
aI112
aI113
aI114
aI115
aI116
aI117
aI118
aI119
aI120
aI121
aI122
aI123
aI124
aI125
aI126
asg4102
(dp4832
S'VGNN'
p4833
(issf_api
Node
p4834
(dp4835
g4107
S'r6-k2'
p4836
sg4109
g4833
sg4110
S'NP8'
p4837
sg4111
I-1
sg30
I8
sg4112
(lp4838
S'JJP'
p4839
aS'NP7'
p4840
aS'NP6'
p4841
asbsS'VGF'
p4842
(issf_api
Node
p4843
(dp4844
g4107
g4108
sg4109
g4842
sg4110
g4108
sg4111
I-1
sg30
I10
sg4112
(lp4845
S'NP5'
p4846
aS'NP8'
p4847
aS'BLK'
p4848
aS'NP'
p4849
aS'NP4'
p4850
aS'NP2'
p4851
asbsg4839
(issf_api
Node
p4852
(dp4853
g4107
S'pof'
p4854
sg4109
g4839
sg4110
S'VGNN'
p4855
sg4111
I-1
sg30
I7
sg4112
(lp4856
sbsg4846
(issf_api
Node
p4857
(dp4858
g4107
S'k7t'
p4859
sg4109
g4846
sg4110
S'VGF'
p4860
sg4111
I-1
sg30
I4
sg4112
(lp4861
sbsg4847
(issf_api
Node
p4862
(dp4863
g4107
S'pof'
p4864
sg4109
g4847
sg4110
S'VGF'
p4865
sg4111
I-1
sg30
I9
sg4112
(lp4866
g4833
asbsg4848
(issf_api
Node
p4867
(dp4868
g4107
S'rsym'
p4869
sg4109
g4848
sg4110
S'VGF'
p4870
sg4111
I-1
sg30
I11
sg4112
(lp4871
sbsg4849
(issf_api
Node
p4872
(dp4873
g4107
S'k7p'
p4874
sg4109
g4849
sg4110
S'VGF'
p4875
sg4111
I-1
sg30
I0
sg4112
(lp4876
sbsg4850
(issf_api
Node
p4877
(dp4878
g4107
S'k7t'
p4879
sg4109
g4850
sg4110
S'VGF'
p4880
sg4111
I-1
sg30
I3
sg4112
(lp4881
S'NP3'
p4882
asbsg4840
(issf_api
Node
p4883
(dp4884
g4107
S'k2'
p4885
sg4109
g4840
sg4110
S'VGNN'
p4886
sg4111
I-1
sg30
I6
sg4112
(lp4887
sbsg4841
(issf_api
Node
p4888
(dp4889
g4107
S'vmod'
p4890
sg4109
g4841
sg4110
S'VGNN'
p4891
sg4111
I-1
sg30
I5
sg4112
(lp4892
sbsg4882
(issf_api
Node
p4893
(dp4894
g4107
S'r6'
p4895
sg4109
g4882
sg4110
S'NP4'
p4896
sg4111
I-1
sg30
I2
sg4112
(lp4897
sbsg4851
(issf_api
Node
p4898
(dp4899
g4107
S'ras-k1'
p4900
sg4109
g4851
sg4110
S'VGF'
p4901
sg4111
I-1
sg30
I1
sg4112
(lp4902
sbssg4162
(lp4903
(issf_api
Chunk
p4904
(dp4905
g4109
g2003
sg30
I0
sg4166
g2010
sg31
I5
sg4100
(lp4906
I98
aI99
aI100
asg36
(issf_api
FeatureSet
p4907
(dp4908
g12
(dp4909
S'name'
p4910
g4849
sS'drel'
p4911
S'k7p:VGF'
p4912
ssbsba(issf_api
Chunk
p4913
(dp4914
g4109
g2083
sg30
I1
sg4166
g2096
sg31
I5
sg4100
(lp4915
I101
aI102
aI103
aI104
aI105
asg36
(issf_api
FeatureSet
p4916
(dp4917
g12
(dp4918
S'name'
p4919
g4851
sS'drel'
p4920
S'ras-k1:VGF'
p4921
ssbsba(issf_api
Chunk
p4922
(dp4923
g4109
g2209
sg30
I2
sg4166
g2222
sg31
I5
sg4100
(lp4924
I106
aI107
aI108
aI109
aI110
asg36
(issf_api
FeatureSet
p4925
(dp4926
g12
(dp4927
S'name'
p4928
g4882
sS'drel'
p4929
S'r6:NP4'
p4930
ssbsba(issf_api
Chunk
p4931
(dp4932
g4109
g2253
sg30
I3
sg4166
g2260
sg31
I5
sg4100
(lp4933
I111
aI112
aI113
asg36
(issf_api
FeatureSet
p4934
(dp4935
g12
(dp4936
S'name'
p4937
g4850
sS'drel'
p4938
S'k7t:VGF'
p4939
ssbsba(issf_api
Chunk
p4940
(dp4941
g4109
g2333
sg30
I4
sg4166
g2342
sg31
I5
sg4100
(lp4942
I114
aI115
asg36
(issf_api
FeatureSet
p4943
(dp4944
g12
(dp4945
S'name'
p4946
g4846
sS'drel'
p4947
S'k7t:VGF'
p4948
ssbsba(issf_api
Chunk
p4949
(dp4950
g4109
g2358
sg30
I5
sg4166
g2369
sg31
I5
sg4100
(lp4951
I116
aI117
aI118
asg36
(issf_api
FeatureSet
p4952
(dp4953
g12
(dp4954
S'name'
p4955
g4841
sS'drel'
p4956
S'vmod:VGNN'
p4957
ssbsba(issf_api
Chunk
p4958
(dp4959
g4109
g2419
sg30
I6
sg4166
g2428
sg31
I5
sg4100
(lp4960
I119
asg36
(issf_api
FeatureSet
p4961
(dp4962
g12
(dp4963
S'name'
p4964
g4840
sS'drel'
p4965
S'k2:VGNN'
p4966
ssbsba(issf_api
Chunk
p4967
(dp4968
g4109
g2442
sg30
I7
sg4166
g2447
sg31
I5
sg4100
(lp4969
I120
asg36
(issf_api
FeatureSet
p4970
(dp4971
g12
(dp4972
S'name'
p4973
g4839
sS'drel'
p4974
S'pof:VGNN'
p4975
ssbsba(issf_api
Chunk
p4976
(dp4977
g4109
g2461
sg30
I8
sg4166
g2468
sg31
I5
sg4100
(lp4978
I121
aI122
asg36
(issf_api
FeatureSet
p4979
(dp4980
g12
(dp4981
S'name'
p4982
g4833
sS'drel'
p4983
S'r6-k2:NP8'
p4984
ssbsba(issf_api
Chunk
p4985
(dp4986
g4109
g2499
sg30
I9
sg4166
g2504
sg31
I5
sg4100
(lp4987
I123
asg36
(issf_api
FeatureSet
p4988
(dp4989
g12
(dp4990
S'name'
p4991
g4847
sS'drel'
p4992
S'pof:VGF'
p4993
ssbsba(issf_api
Chunk
p4994
(dp4995
g4109
g2518
sg30
I10
sg4166
g2527
sg31
I5
sg4100
(lp4996
I124
aI125
asg36
(issf_api
FeatureSet
p4997
(dp4998
g12
(dp4999
S'name'
p5000
g4842
ssbsba(issf_api
Chunk
p5001
(dp5002
g4109
g2558
sg30
I11
sg4166
g2563
sg31
I5
sg4100
(lp5003
I126
asg36
(issf_api
FeatureSet
p5004
(dp5005
g12
(dp5006
S'name'
p5007
g4848
sS'drel'
p5008
S'rsym:VGF'
p5009
ssbsbasba(issf_api
Sentence
p5010
(dp5011
g4098
(lp5012
sg31
I6
sg4100
(lp5013
I127
aI128
aI129
aI130
aI131
aI132
aI133
aI134
aI135
aI136
aI137
aI138
aI139
aI140
aI141
aI142
aI143
aI144
aI145
aI146
aI147
aI148
aI149
aI150
aI151
asg4102
(dp5014
S'NP10'
p5015
(issf_api
Node
p5016
(dp5017
g4107
S'pof'
p5018
sg4109
g5015
sg4110
S'VGNN'
p5019
sg4111
I-1
sg30
I13
sg4112
(lp5020
sbsS'VGF'
p5021
(issf_api
Node
p5022
(dp5023
g4107
g4108
sg4109
g5021
sg4110
g4108
sg4111
I-1
sg30
I1
sg4112
(lp5024
S'CCP'
p5025
aS'BLK'
p5026
aS'NP'
p5027
asbsS'VGF3'
p5028
(issf_api
Node
p5029
(dp5030
g4107
S'ccof'
p5031
sg4109
g5028
sg4110
S'CCP2'
p5032
sg4111
I-1
sg30
I16
sg4112
(lp5033
S'JJP'
p5034
aS'VGNN'
p5035
aS'NP7'
p5036
asbsg5025
(issf_api
Node
p5037
(dp5038
g4107
S'k2'
p5039
sg4109
g5025
sg4110
S'VGF'
p5040
sg4111
I-1
sg30
I2
sg4112
(lp5041
S'VGF2'
p5042
asbsg5042
(issf_api
Node
p5043
(dp5044
g4107
S'ccof'
p5045
sg4109
g5042
sg4110
S'CCP'
p5046
sg4111
I-1
sg30
I8
sg4112
(lp5047
S'NP5'
p5048
aS'NP4'
p5049
aS'NP6'
p5050
aS'CCP2'
p5051
aS'NP3'
p5052
asbsg5048
(issf_api
Node
p5053
(dp5054
g4107
S'k4'
p5055
sg4109
g5048
sg4110
S'VGF2'
p5056
sg4111
I-1
sg30
I6
sg4112
(lp5057
sbsg5034
(issf_api
Node
p5058
(dp5059
g4107
S'k1s'
p5060
sg4109
g5034
sg4110
S'VGF3'
p5061
sg4111
I-1
sg30
I15
sg4112
(lp5062
sbsS'NP9'
p5063
(issf_api
Node
p5064
(dp5065
g4107
S'k7'
p5066
sg4109
g5063
sg4110
S'VGNN'
p5067
sg4111
I-1
sg30
I12
sg4112
(lp5068
S'NP8'
p5069
asbsg5069
(issf_api
Node
p5070
(dp5071
g4107
S'r6'
p5072
sg4109
g5069
sg4110
S'NP9'
p5073
sg4111
I-1
sg30
I11
sg4112
(lp5074
sbsg5026
(issf_api
Node
p5075
(dp5076
g4107
S'rsym'
p5077
sg4109
g5026
sg4110
S'VGF'
p5078
sg4111
I-1
sg30
I17
sg4112
(lp5079
sbsg5035
(issf_api
Node
p5080
(dp5081
g4107
S'rt'
p5082
sg4109
g5035
sg4110
S'VGF3'
p5083
sg4111
I-1
sg30
I14
sg4112
(lp5084
g5015
ag5063
asbsg5027
(issf_api
Node
p5085
(dp5086
g4107
S'k1'
p5087
sg4109
g5027
sg4110
S'VGF'
p5088
sg4111
I-1
sg30
I0
sg4112
(lp5089
sbsg5049
(issf_api
Node
p5090
(dp5091
g4107
S'k1'
p5092
sg4109
g5049
sg4110
S'VGF2'
p5093
sg4111
I-1
sg30
I5
sg4112
(lp5094
sbsg5036
(issf_api
Node
p5095
(dp5096
g4107
S'k1'
p5097
sg4109
g5036
sg4110
S'VGF3'
p5098
sg4111
I-1
sg30
I10
sg4112
(lp5099
sbsg5050
(issf_api
Node
p5100
(dp5101
g4107
S'k7'
p5102
sg4109
g5050
sg4110
S'VGF2'
p5103
sg4111
I-1
sg30
I7
sg4112
(lp5104
sbsg5051
(issf_api
Node
p5105
(dp5106
g4107
S'k2'
p5107
sg4109
g5051
sg4110
S'VGF2'
p5108
sg4111
I-1
sg30
I9
sg4112
(lp5109
g5028
asbsg5052
(issf_api
Node
p5110
(dp5111
g4107
S'k7t'
p5112
sg4109
g5052
sg4110
S'VGF2'
p5113
sg4111
I-1
sg30
I4
sg4112
(lp5114
S'NP2'
p5115
asbsg5115
(issf_api
Node
p5116
(dp5117
g4107
S'r6'
p5118
sg4109
g5115
sg4110
S'NP3'
p5119
sg4111
I-1
sg30
I3
sg4112
(lp5120
sbssg4162
(lp5121
(issf_api
Chunk
p5122
(dp5123
g4109
g2579
sg30
I0
sg4166
g2590
sg31
I6
sg4100
(lp5124
I127
aI128
asg36
(issf_api
FeatureSet
p5125
(dp5126
g12
(dp5127
S'name'
p5128
g5027
sS'drel'
p5129
S'k1:VGF'
p5130
ssbsba(issf_api
Chunk
p5131
(dp5132
g4109
g2621
sg30
I1
sg4166
g2628
sg31
I6
sg4100
(lp5133
I129
asg36
(issf_api
FeatureSet
p5134
(dp5135
g12
(dp5136
S'name'
p5137
g5021
ssbsba(issf_api
Chunk
p5138
(dp5139
g4109
g2642
sg30
I2
sg4166
g2647
sg31
I6
sg4100
(lp5140
I130
asg36
(issf_api
FeatureSet
p5141
(dp5142
g12
(dp5143
S'name'
p5144
g5025
sS'drel'
p5145
S'k2:VGF'
p5146
ssbsba(issf_api
Chunk
p5147
(dp5148
g4109
g2665
sg30
I3
sg4166
g2678
sg31
I6
sg4100
(lp5149
I131
aI132
asg36
(issf_api
FeatureSet
p5150
(dp5151
g12
(dp5152
S'name'
p5153
g5115
sS'drel'
p5154
S'r6:NP3'
p5155
ssbsba(issf_api
Chunk
p5156
(dp5157
g4109
g2711
sg30
I4
sg4166
g2722
sg31
I6
sg4100
(lp5158
I133
asg36
(issf_api
FeatureSet
p5159
(dp5160
g12
(dp5161
S'name'
p5162
g5052
sS'drel'
p5163
S'k7t:VGF2'
p5164
ssbsba(issf_api
Chunk
p5165
(dp5166
g4109
g2738
sg30
I5
sg4166
g2749
sg31
I6
sg4100
(lp5167
I134
aI135
asg36
(issf_api
FeatureSet
p5168
(dp5169
g12
(dp5170
S'name'
p5171
g5049
sS'drel'
p5172
S'k1:VGF2'
p5173
ssbsba(issf_api
Chunk
p5174
(dp5175
g4109
g2782
sg30
I6
sg4166
g2791
sg31
I6
sg4100
(lp5176
I136
asg36
(issf_api
FeatureSet
p5177
(dp5178
g12
(dp5179
S'name'
p5180
g5048
sS'drel'
p5181
S'k4:VGF2'
p5182
ssbsba(issf_api
Chunk
p5183
(dp5184
g4109
g2805
sg30
I7
sg4166
g2812
sg31
I6
sg4100
(lp5185
I137
aI138
asg36
(issf_api
FeatureSet
p5186
(dp5187
g12
(dp5188
S'name'
p5189
g5050
sS'drel'
p5190
S'k7:VGF2'
p5191
ssbsba(issf_api
Chunk
p5192
(dp5193
g4109
g2843
sg30
I8
sg4166
g2852
sg31
I6
sg4100
(lp5194
I139
asg36
(issf_api
FeatureSet
p5195
(dp5196
g12
(dp5197
S'name'
p5198
g5042
sS'drel'
p5199
S'ccof:CCP'
p5200
ssbsba(issf_api
Chunk
p5201
(dp5202
g4109
g2866
sg30
I9
sg4166
g2871
sg31
I6
sg4100
(lp5203
I140
asg36
(issf_api
FeatureSet
p5204
(dp5205
g12
(dp5206
S'name'
p5207
g5051
sS'drel'
p5208
S'k2:VGF2'
p5209
ssbsba(issf_api
Chunk
p5210
(dp5211
g4109
g2887
sg30
I10
sg4166
g2896
sg31
I6
sg4100
(lp5212
I141
asg36
(issf_api
FeatureSet
p5213
(dp5214
g12
(dp5215
S'name'
p5216
g5036
sS'drel'
p5217
S'k1:VGF3'
p5218
ssbsba(issf_api
Chunk
p5219
(dp5220
g4109
g2912
sg30
I11
sg4166
g2921
sg31
I6
sg4100
(lp5221
I142
asg36
(issf_api
FeatureSet
p5222
(dp5223
g12
(dp5224
S'name'
p5225
g5069
sS'drel'
p5226
S'r6:NP9'
p5227
ssbsba(issf_api
Chunk
p5228
(dp5229
g4109
g2935
sg30
I12
sg4166
g2942
sg31
I6
sg4100
(lp5230
I143
aI144
asg36
(issf_api
FeatureSet
p5231
(dp5232
g12
(dp5233
S'name'
p5234
g5063
sS'drel'
p5235
S'k7:VGNN'
p5236
ssbsba(issf_api
Chunk
p5237
(dp5238
g4109
g2973
sg30
I13
sg4166
g2978
sg31
I6
sg4100
(lp5239
I145
asg36
(issf_api
FeatureSet
p5240
(dp5241
g12
(dp5242
S'name'
p5243
g5015
sS'drel'
p5244
S'pof:VGNN'
p5245
ssbsba(issf_api
Chunk
p5246
(dp5247
g4109
g2992
sg30
I14
sg4166
g2999
sg31
I6
sg4100
(lp5248
I146
aI147
aI148
asg36
(issf_api
FeatureSet
p5249
(dp5250
g12
(dp5251
S'name'
p5252
g5035
sS'drel'
p5253
S'rt:VGF3'
p5254
ssbsba(issf_api
Chunk
p5255
(dp5256
g4109
g3047
sg30
I15
sg4166
g3052
sg31
I6
sg4100
(lp5257
I149
asg36
(issf_api
FeatureSet
p5258
(dp5259
g12
(dp5260
S'name'
p5261
g5034
sS'drel'
p5262
S'k1s:VGF3'
p5263
ssbsba(issf_api
Chunk
p5264
(dp5265
g4109
g3066
sg30
I16
sg4166
g3075
sg31
I6
sg4100
(lp5266
I150
asg36
(issf_api
FeatureSet
p5267
(dp5268
g12
(dp5269
S'name'
p5270
g5028
sS'drel'
p5271
S'ccof:CCP2'
p5272
ssbsba(issf_api
Chunk
p5273
(dp5274
g4109
g3089
sg30
I17
sg4166
g3094
sg31
I6
sg4100
(lp5275
I151
asg36
(issf_api
FeatureSet
p5276
(dp5277
g12
(dp5278
S'name'
p5279
g5026
sS'drel'
p5280
S'rsym:VGF'
p5281
ssbsbasba(issf_api
Sentence
p5282
(dp5283
g4098
(lp5284
sg31
I7
sg4100
(lp5285
I152
aI153
aI154
aI155
aI156
aI157
aI158
aI159
aI160
aI161
aI162
aI163
aI164
aI165
aI166
aI167
asg4102
(dp5286
S'VGF2'
p5287
(issf_api
Node
p5288
(dp5289
g4107
S'ccof'
p5290
sg4109
g5287
sg4110
S'CCP'
p5291
sg4111
I-1
sg30
I8
sg4112
(lp5292
S'JJP'
p5293
aS'NP5'
p5294
aS'NP4'
p5295
aS'NP2'
p5296
asbsS'VGF'
p5297
(issf_api
Node
p5298
(dp5299
g4107
g4108
sg4109
g5297
sg4110
g4108
sg4111
I-1
sg30
I1
sg4112
(lp5300
S'CCP'
p5301
aS'BLK'
p5302
aS'NP'
p5303
asbsg5301
(issf_api
Node
p5304
(dp5305
g4107
S'k2'
p5306
sg4109
g5301
sg4110
S'VGF'
p5307
sg4111
I-1
sg30
I2
sg4112
(lp5308
g5287
asbsg5293
(issf_api
Node
p5309
(dp5310
g4107
S'k1s'
p5311
sg4109
g5293
sg4110
S'VGF2'
p5312
sg4111
I-1
sg30
I7
sg4112
(lp5313
sbsg5294
(issf_api
Node
p5314
(dp5315
g4107
S'rt'
p5316
sg4109
g5294
sg4110
S'VGF2'
p5317
sg4111
I-1
sg30
I6
sg4112
(lp5318
sbsg5302
(issf_api
Node
p5319
(dp5320
g4107
S'rsym'
p5321
sg4109
g5302
sg4110
S'VGF'
p5322
sg4111
I-1
sg30
I9
sg4112
(lp5323
sbsg5303
(issf_api
Node
p5324
(dp5325
g4107
S'k1'
p5326
sg4109
g5303
sg4110
S'VGF'
p5327
sg4111
I-1
sg30
I0
sg4112
(lp5328
sbsg5295
(issf_api
Node
p5329
(dp5330
g4107
S'k7'
p5331
sg4109
g5295
sg4110
S'VGF2'
p5332
sg4111
I-1
sg30
I5
sg4112
(lp5333
S'NP3'
p5334
asbsg5334
(issf_api
Node
p5335
(dp5336
g4107
S'r6'
p5337
sg4109
g5334
sg4110
S'NP4'
p5338
sg4111
I-1
sg30
I4
sg4112
(lp5339
sbsg5296
(issf_api
Node
p5340
(dp5341
g4107
S'k1'
p5342
sg4109
g5296
sg4110
S'VGF2'
p5343
sg4111
I-1
sg30
I3
sg4112
(lp5344
sbssg4162
(lp5345
(issf_api
Chunk
p5346
(dp5347
g4109
g3110
sg30
I0
sg4166
g3119
sg31
I7
sg4100
(lp5348
I152
asg36
(issf_api
FeatureSet
p5349
(dp5350
g12
(dp5351
S'name'
p5352
g5303
sS'drel'
p5353
S'k1:VGF'
p5354
ssbsba(issf_api
Chunk
p5355
(dp5356
g4109
g3133
sg30
I1
sg4166
g3140
sg31
I7
sg4100
(lp5357
I153
asg36
(issf_api
FeatureSet
p5358
(dp5359
g12
(dp5360
S'name'
p5361
g5297
ssbsba(issf_api
Chunk
p5362
(dp5363
g4109
g3154
sg30
I2
sg4166
g3159
sg31
I7
sg4100
(lp5364
I154
asg36
(issf_api
FeatureSet
p5365
(dp5366
g12
(dp5367
S'name'
p5368
g5301
sS'drel'
p5369
S'k2:VGF'
p5370
ssbsba(issf_api
Chunk
p5371
(dp5372
g4109
g3215
sg30
I3
sg4166
g3226
sg31
I7
sg4100
(lp5373
I155
aI156
aI157
aI158
asg36
(issf_api
FeatureSet
p5374
(dp5375
g12
(dp5376
S'name'
p5377
g5296
sS'drel'
p5378
S'k1:VGF2'
p5379
ssbsba(issf_api
Chunk
p5380
(dp5381
g4109
g3259
sg30
I4
sg4166
g3268
sg31
I7
sg4100
(lp5382
I159
asg36
(issf_api
FeatureSet
p5383
(dp5384
g12
(dp5385
S'name'
p5386
g5334
sS'drel'
p5387
S'r6:NP4'
p5388
ssbsba(issf_api
Chunk
p5389
(dp5390
g4109
g3282
sg30
I5
sg4166
g3289
sg31
I7
sg4100
(lp5391
I160
aI161
asg36
(issf_api
FeatureSet
p5392
(dp5393
g12
(dp5394
S'name'
p5395
g5295
sS'drel'
p5396
S'k7:VGF2'
p5397
ssbsba(issf_api
Chunk
p5398
(dp5399
g4109
g3320
sg30
I6
sg4166
g3327
sg31
I7
sg4100
(lp5400
I162
aI163
aI164
asg36
(issf_api
FeatureSet
p5401
(dp5402
g12
(dp5403
S'name'
p5404
g5294
sS'drel'
p5405
S'rt:VGF2'
p5406
ssbsba(issf_api
Chunk
p5407
(dp5408
g4109
g3375
sg30
I7
sg4166
g3380
sg31
I7
sg4100
(lp5409
I165
asg36
(issf_api
FeatureSet
p5410
(dp5411
g12
(dp5412
S'name'
p5413
g5293
sS'drel'
p5414
S'k1s:VGF2'
p5415
ssbsba(issf_api
Chunk
p5416
(dp5417
g4109
g3394
sg30
I8
sg4166
g3403
sg31
I7
sg4100
(lp5418
I166
asg36
(issf_api
FeatureSet
p5419
(dp5420
g12
(dp5421
S'name'
p5422
g5287
sS'drel'
p5423
S'ccof:CCP'
p5424
ssbsba(issf_api
Chunk
p5425
(dp5426
g4109
g3417
sg30
I9
sg4166
g3422
sg31
I7
sg4100
(lp5427
I167
asg36
(issf_api
FeatureSet
p5428
(dp5429
g12
(dp5430
S'name'
p5431
g5302
sS'drel'
p5432
S'rsym:VGF'
p5433
ssbsbasba(issf_api
Sentence
p5434
(dp5435
g4098
(lp5436
sg31
I8
sg4100
(lp5437
I168
aI169
aI170
aI171
aI172
aI173
aI174
aI175
aI176
aI177
aI178
aI179
aI180
aI181
aI182
aI183
aI184
aI185
aI186
aI187
aI188
aI189
aI190
aI191
aI192
aI193
aI194
aI195
aI196
aI197
aI198
aI199
aI200
aI201
aI202
asg4102
(dp5438
S'VGF2'
p5439
(issf_api
Node
p5440
(dp5441
g4107
S'ccof'
p5442
sg4109
g5439
sg4110
S'CCP'
p5443
sg4111
I-1
sg30
I16
sg4112
(lp5444
S'VGNN2'
p5445
aS'JJP3'
p5446
aS'NP9'
p5447
aS'NP4'
p5448
aS'NP7'
p5449
aS'NP2'
p5450
asbsS'VGNN'
p5451
(issf_api
Node
p5452
(dp5453
g4107
S'r6'
p5454
sg4109
g5451
sg4110
S'NP4'
p5455
sg4111
I-1
sg30
I6
sg4112
(lp5456
S'JJP'
p5457
aS'NP3'
p5458
asbsS'VGF'
p5459
(issf_api
Node
p5460
(dp5461
g4107
g4108
sg4109
g5459
sg4110
g4108
sg4111
I-1
sg30
I1
sg4112
(lp5462
S'CCP'
p5463
aS'BLK'
p5464
aS'NP'
p5465
asbsg5463
(issf_api
Node
p5466
(dp5467
g4107
S'k2'
p5468
sg4109
g5463
sg4110
S'VGF'
p5469
sg4111
I-1
sg30
I2
sg4112
(lp5470
g5439
asbsg5457
(issf_api
Node
p5471
(dp5472
g4107
S'pof'
p5473
sg4109
g5457
sg4110
S'VGNN'
p5474
sg4111
I-1
sg30
I5
sg4112
(lp5475
sbsg5445
(issf_api
Node
p5476
(dp5477
g4107
S'k7t'
p5478
sg4109
g5445
sg4110
S'VGF2'
p5479
sg4111
I-1
sg30
I11
sg4112
(lp5480
S'JJP2'
p5481
aS'NP6'
p5482
asbsS'NP5'
p5483
(issf_api
Node
p5484
(dp5485
g4107
S'r6'
p5486
sg4109
g5483
sg4110
S'NP6'
p5487
sg4111
I-1
sg30
I8
sg4112
(lp5488
sbsg5481
(issf_api
Node
p5489
(dp5490
g4107
S'pof'
p5491
sg4109
g5481
sg4110
S'VGNN2'
p5492
sg4111
I-1
sg30
I10
sg4112
(lp5493
sbsg5446
(issf_api
Node
p5494
(dp5495
g4107
S'pof'
p5496
sg4109
g5446
sg4110
S'VGF2'
p5497
sg4111
I-1
sg30
I15
sg4112
(lp5498
sbsg5447
(issf_api
Node
p5499
(dp5500
g4107
S'k2'
p5501
sg4109
g5447
sg4110
S'VGF2'
p5502
sg4111
I-1
sg30
I14
sg4112
(lp5503
S'NP8'
p5504
asbsg5504
(issf_api
Node
p5505
(dp5506
g4107
S'r6'
p5507
sg4109
g5504
sg4110
S'NP9'
p5508
sg4111
I-1
sg30
I13
sg4112
(lp5509
sbsg5464
(issf_api
Node
p5510
(dp5511
g4107
S'rsym'
p5512
sg4109
g5464
sg4110
S'VGF'
p5513
sg4111
I-1
sg30
I17
sg4112
(lp5514
sbsg5465
(issf_api
Node
p5515
(dp5516
g4107
S'k1'
p5517
sg4109
g5465
sg4110
S'VGF'
p5518
sg4111
I-1
sg30
I0
sg4112
(lp5519
sbsg5448
(issf_api
Node
p5520
(dp5521
g4107
S'k7'
p5522
sg4109
g5448
sg4110
S'VGF2'
p5523
sg4111
I-1
sg30
I7
sg4112
(lp5524
g5451
asbsg5449
(issf_api
Node
p5525
(dp5526
g4107
S'k7t'
p5527
sg4109
g5449
sg4110
S'VGF2'
p5528
sg4111
I-1
sg30
I12
sg4112
(lp5529
sbsg5482
(issf_api
Node
p5530
(dp5531
g4107
S'r6'
p5532
sg4109
g5482
sg4110
S'VGNN2'
p5533
sg4111
I-1
sg30
I9
sg4112
(lp5534
g5483
asbsg5458
(issf_api
Node
p5535
(dp5536
g4107
S'k2'
p5537
sg4109
g5458
sg4110
S'VGNN'
p5538
sg4111
I-1
sg30
I4
sg4112
(lp5539
sbsg5450
(issf_api
Node
p5540
(dp5541
g4107
S'k1'
p5542
sg4109
g5450
sg4110
S'VGF2'
p5543
sg4111
I-1
sg30
I3
sg4112
(lp5544
sbssg4162
(lp5545
(issf_api
Chunk
p5546
(dp5547
g4109
g3438
sg30
I0
sg4166
g3449
sg31
I8
sg4100
(lp5548
I168
aI169
asg36
(issf_api
FeatureSet
p5549
(dp5550
g12
(dp5551
S'name'
p5552
g5465
sS'drel'
p5553
S'k1:VGF'
p5554
ssbsba(issf_api
Chunk
p5555
(dp5556
g4109
g3480
sg30
I1
sg4166
g3487
sg31
I8
sg4100
(lp5557
I170
asg36
(issf_api
FeatureSet
p5558
(dp5559
g12
(dp5560
S'name'
p5561
g5459
ssbsba(issf_api
Chunk
p5562
(dp5563
g4109
g3501
sg30
I2
sg4166
g3506
sg31
I8
sg4100
(lp5564
I171
asg36
(issf_api
FeatureSet
p5565
(dp5566
g12
(dp5567
S'name'
p5568
g5463
sS'drel'
p5569
S'k2:VGF'
p5570
ssbsba(issf_api
Chunk
p5571
(dp5572
g4109
g3522
sg30
I3
sg4166
g3531
sg31
I8
sg4100
(lp5573
I172
asg36
(issf_api
FeatureSet
p5574
(dp5575
g12
(dp5576
S'name'
p5577
g5450
sS'drel'
p5578
S'k1:VGF2'
p5579
ssbsba(issf_api
Chunk
p5580
(dp5581
g4109
g3579
sg30
I4
sg4166
g3584
sg31
I8
sg4100
(lp5582
I173
aI174
aI175
asg36
(issf_api
FeatureSet
p5583
(dp5584
g12
(dp5585
S'name'
p5586
g5458
sS'drel'
p5587
S'k2:VGNN'
p5588
ssbsba(issf_api
Chunk
p5589
(dp5590
g4109
g3598
sg30
I5
sg4166
g3603
sg31
I8
sg4100
(lp5591
I176
asg36
(issf_api
FeatureSet
p5592
(dp5593
g12
(dp5594
S'name'
p5595
g5457
sS'drel'
p5596
S'pof:VGNN'
p5597
ssbsba(issf_api
Chunk
p5598
(dp5599
g4109
g3617
sg30
I6
sg4166
g3624
sg31
I8
sg4100
(lp5600
I177
aI178
asg36
(issf_api
FeatureSet
p5601
(dp5602
g12
(dp5603
S'name'
p5604
g5451
sS'drel'
p5605
S'r6:NP4'
p5606
ssbsba(issf_api
Chunk
p5607
(dp5608
g4109
g3655
sg30
I7
sg4166
g3662
sg31
I8
sg4100
(lp5609
I179
aI180
asg36
(issf_api
FeatureSet
p5610
(dp5611
g12
(dp5612
S'name'
p5613
g5448
sS'drel'
p5614
S'k7:VGF2'
p5615
ssbsba(issf_api
Chunk
p5616
(dp5617
g4109
g3710
sg30
I8
sg4166
g3717
sg31
I8
sg4100
(lp5618
I181
aI182
aI183
asg36
(issf_api
FeatureSet
p5619
(dp5620
g12
(dp5621
S'name'
p5622
g5483
sS'drel'
p5623
S'r6:NP6'
p5624
ssbsba(issf_api
Chunk
p5625
(dp5626
g4109
g3748
sg30
I9
sg4166
g3755
sg31
I8
sg4100
(lp5627
I184
aI185
aI186
asg36
(issf_api
FeatureSet
p5628
(dp5629
g12
(dp5630
S'name'
p5631
g5482
sS'drel'
p5632
S'r6:VGNN2'
p5633
ssbsba(issf_api
Chunk
p5634
(dp5635
g4109
g3803
sg30
I10
sg4166
g3808
sg31
I8
sg4100
(lp5636
I187
asg36
(issf_api
FeatureSet
p5637
(dp5638
g12
(dp5639
S'name'
p5640
g5481
sS'drel'
p5641
S'pof:VGNN2'
p5642
ssbsba(issf_api
Chunk
p5643
(dp5644
g4109
g3822
sg30
I11
sg4166
g3829
sg31
I8
sg4100
(lp5645
I188
aI189
aI190
asg36
(issf_api
FeatureSet
p5646
(dp5647
g12
(dp5648
S'name'
p5649
g5445
sS'drel'
p5650
S'k7t:VGF2'
p5651
ssbsba(issf_api
Chunk
p5652
(dp5653
g4109
g3894
sg30
I12
sg4166
g3901
sg31
I8
sg4100
(lp5654
I191
aI192
aI193
aI194
asg36
(issf_api
FeatureSet
p5655
(dp5656
g12
(dp5657
S'name'
p5658
g5449
sS'drel'
p5659
S'k7t:VGF2'
p5660
ssbsba(issf_api
Chunk
p5661
(dp5662
g4109
g3951
sg30
I13
sg4166
g3960
sg31
I8
sg4100
(lp5663
I195
asg36
(issf_api
FeatureSet
p5664
(dp5665
g12
(dp5666
S'name'
p5667
g5504
sS'drel'
p5668
S'r6:NP9'
p5669
ssbsba(issf_api
Chunk
p5670
(dp5671
g4109
g3991
sg30
I14
sg4166
g3996
sg31
I8
sg4100
(lp5672
I196
aI197
asg36
(issf_api
FeatureSet
p5673
(dp5674
g12
(dp5675
S'name'
p5676
g5447
sS'drel'
p5677
S'k2:VGF2'
p5678
ssbsba(issf_api
Chunk
p5679
(dp5680
g4109
g4010
sg30
I15
sg4166
g4015
sg31
I8
sg4100
(lp5681
I198
asg36
(issf_api
FeatureSet
p5682
(dp5683
g12
(dp5684
S'name'
p5685
g5446
sS'drel'
p5686
S'pof:VGF2'
p5687
ssbsba(issf_api
Chunk
p5688
(dp5689
g4109
g4029
sg30
I16
sg4166
g4040
sg31
I8
sg4100
(lp5690
I199
aI200
aI201
asg36
(issf_api
FeatureSet
p5691
(dp5692
g12
(dp5693
S'name'
p5694
g5439
sS'drel'
p5695
S'ccof:CCP'
p5696
ssbsba(issf_api
Chunk
p5697
(dp5698
g4109
g4088
sg30
I17
sg4166
g4093
sg31
I8
sg4100
(lp5699
I202
asg36
(issf_api
FeatureSet
p5700
(dp5701
g12
(dp5702
S'name'
p5703
g5464
sS'drel'
p5704
S'rsym:VGF'
p5705
ssbsbasbasb.