(issf_api
SSFInfo
p0
(dp1
S'globalWordList'
p2
(lp3
(issf_api
Word
p4
(dp5
S'splitConn'
p6
I00
sS'word'
p7
V\u092b\u0902\u0921\u094b\u0902
p8
sS'extraFeatureSet'
p9
(issf_api
FeatureSet
p10
(dp11
S'featureDict'
p12
(dp13
S'crefhead'
p14
S'\xe0\xa4\xab\xe0\xa4\x82\xe0\xa4\xa1\xe0\xa5\x8b\xe0\xa4\x82:i1'
p15
sS'posn'
p16
S'10'
p17
sS'name'
p18
S'\xe0\xa4\xab\xe0\xa4\x82\xe0\xa4\xa1\xe0\xa5\x8b\xe0\xa4\x82'
p19
sS'af'
p20
S'\xe0\xa4\xab\xe0\xa4\x82\xe0\xa4\xa1,n,m,pl,3,o,0_\xe0\xa4\x95\xe0\xa4\xbe,0'
p21
sS'acrefmodhead'
p22
S'\xe0\xa4\xab\xe0\xa4\x82\xe0\xa4\xa1\xe0\xa5\x8b\xe0\xa4\x82:m1'
p23
sS'chunkid'
p24
S'NP'
p25
sS'acrefmod'
p26
S'm1%1:i2'
p27
sS'chunktype'
p28
S'head:NP'
p29
sS'crefchainhead'
p30
S'i1:t1'
p31
sS'vpos'
p32
S'vib_2'
p33
sS'cref'
p34
S'i1%1:t1'
p35
sS'drel'
p36
S'r6:NP2'
p37
ssbsS'arg1'
p38
I00
sS'arg2'
p39
I00
sS'sense'
p40
NsS'arg1Span'
p41
NsS'chunkNum'
p42
I0
sS'sentenceNum'
p43
I0
sS'relationNum'
p44
NsS'arg2Span'
p45
NsS'wordTag'
p46
S'NN'
p47
sS'featureSet'
p48
g10
sS'conn'
p49
I00
sba(issf_api
Word
p50
(dp51
g6
I00
sg7
V\u0915\u0940
p52
sg9
(issf_api
FeatureSet
p53
(dp54
g12
(dp55
S'posn'
p56
S'20'
p57
sS'name'
p58
S'\xe0\xa4\x95\xe0\xa5\x80'
p59
sS'drel'
p60
S'lwg__psp:NP'
p61
sS'chunktype'
p62
S'child:NP'
p63
sS'af'
p64
S'\xe0\xa4\x95\xe0\xa4\xbe,psp,f,sg,,o,,'
p65
ssbsg38
I00
sg39
I00
sg40
Nsg41
Nsg42
I0
sg43
I0
sg44
Nsg45
Nsg46
S'PSP'
p66
sg48
g53
sg49
I00
sba(issf_api
Word
p67
(dp68
g6
I00
sg7
V\u091c\u093c\u092c\u0930\u0926\u0938\u094d\u0924
p69
sg9
(issf_api
FeatureSet
p70
(dp71
g12
(dp72
S'posn'
p73
S'30'
p74
sS'name'
p75
S'\xe0\xa4\x9c\xe0\xa4\xbc\xe0\xa4\xac\xe0\xa4\xb0\xe0\xa4\xa6\xe0\xa4\xb8\xe0\xa5\x8d\xe0\xa4\xa4'
p76
sS'af'
p77
S'\xe0\xa4\x9c\xe0\xa4\xac\xe0\xa4\xb0\xe0\xa4\xa6\xe0\xa4\xb8\xe0\xa5\x8d\xe0\xa4\xa4,adj,any,any,,o,,'
p78
sS'drel'
p79
S'nmod__adj:NP2'
p80
sS'chunktype'
p81
S'child:NP2'
p82
sS'cref'
p83
S'i2%0:t2'
p84
ssbsg38
I00
sg39
I00
sg40
Nsg41
Nsg42
I1
sg43
I0
sg44
Nsg45
Nsg46
S'JJ'
p85
sg48
g70
sg49
I00
sba(issf_api
Word
p86
(dp87
g6
I00
sg7
V\u0932\u093f\u0935\u093e\u0932\u0940
p88
sg9
(issf_api
FeatureSet
p89
(dp90
g12
(dp91
S'crefhead'
p92
S'\xe0\xa4\xb2\xe0\xa4\xbf\xe0\xa4\xb5\xe0\xa4\xbe\xe0\xa4\xb2\xe0\xa5\x80:i2'
p93
sS'posn'
p94
S'40'
p95
sS'name'
p96
S'\xe0\xa4\xb2\xe0\xa4\xbf\xe0\xa4\xb5\xe0\xa4\xbe\xe0\xa4\xb2\xe0\xa5\x80'
p97
sS'af'
p98
S'\xe0\xa4\xb2\xe0\xa4\xbf\xe0\xa4\xb5\xe0\xa4\xbe\xe0\xa4\xb2\xe0\xa5\x80,n,f,sg,3,o,0_\xe0\xa4\x95\xe0\xa5\x87_\xe0\xa4\x9a\xe0\xa4\xb2\xe0\xa4\xa4\xe0\xa5\x87,0'
p99
sS'chunkid'
p100
S'NP2'
p101
sS'crefmod'
p102
S'm1:i2'
p103
sS'chunktype'
p104
S'head:NP2'
p105
sS'crefchainhead'
p106
S'i2:t2'
p107
sS'vpos'
p108
S'vib_3_4'
p109
sS'cref'
p110
S'i2%1:t2'
p111
sS'drel'
p112
S'rh:VGF'
p113
ssbsg38
I00
sg39
I00
sg40
Nsg41
Nsg42
I1
sg43
I0
sg44
Nsg45
Nsg46
S'NN'
p114
sg48
g89
sg49
I00
sba(issf_api
Word
p115
(dp116
g6
I00
sg7
V\u0915\u0947
p117
sg9
(issf_api
FeatureSet
p118
(dp119
g12
(dp120
S'posn'
p121
S'50'
p122
sS'name'
p123
S'\xe0\xa4\x95\xe0\xa5\x87'
p124
sS'drel'
p125
S'lwg__psp:NP2'
p126
sS'chunktype'
p127
S'child:NP2'
p128
sS'af'
p129
S'\xe0\xa4\x95\xe0\xa5\x87,psp,,,,,,'
p130
ssbsg38
I00
sg39
I00
sg40
Nsg41
Nsg42
I1
sg43
I0
sg44
Nsg45
Nsg46
S'PSP'
p131
sg48
g118
sg49
I00
sba(issf_api
Word
p132
(dp133
g6
I00
sg7
V\u091a\u0932\u0924\u0947
p134
sg9
(issf_api
FeatureSet
p135
(dp136
g12
(dp137
S'posn'
p138
S'60'
p139
sS'name'
p140
S'\xe0\xa4\x9a\xe0\xa4\xb2\xe0\xa4\xa4\xe0\xa5\x87'
p141
sS'drel'
p142
S'lwg__psp:NP2'
p143
sS'chunktype'
p144
S'child:NP2'
p145
sS'af'
p146
S'\xe0\xa4\x9a\xe0\xa4\xb2\xe0\xa4\xa4\xe0\xa5\x87,psp,,,,,,'
p147
ssbsg38
I00
sg39
I00
sg40
Nsg41
Nsg42
I1
sg43
I0
sg44
Nsg45
Nsg46
S'PSP'
p148
sg48
g135
sg49
I00
sba(issf_api
Word
p149
(dp150
g6
I00
sg7
V\u092e\u0941\u0902\u092c\u0908
p151
sg9
(issf_api
FeatureSet
p152
(dp153
g12
(dp154
S'posn'
p155
S'70'
p156
sS'name'
p157
S'\xe0\xa4\xae\xe0\xa5\x81\xe0\xa4\x82\xe0\xa4\xac\xe0\xa4\x88'
p158
sS'af'
p159
S'\xe0\xa4\xae\xe0\xa5\x81\xe0\xa4\x82\xe0\xa4\xac\xe0\xa4\x88,n,m,sg,3,d,0,0'
p160
sS'drel'
p161
S'pof__cn:NP3'
p162
sS'chunktype'
p163
S'child:NP3'
p164
sS'cref'
p165
S'i3%0:t3'
p166
ssbsg38
I00
sg39
I00
sg40
Nsg41
Nsg42
I2
sg43
I0
sg44
Nsg45
Nsg46
S'NNPC'
p167
sg48
g152
sg49
I00
sba(issf_api
Word
p168
(dp169
g6
I00
sg7
V\u0938\u094d\u091f\u0949\u0915
p170
sg9
(issf_api
FeatureSet
p171
(dp172
g12
(dp173
S'posn'
p174
S'80'
p175
sS'name'
p176
S'\xe0\xa4\xb8\xe0\xa5\x8d\xe0\xa4\x9f\xe0\xa5\x89\xe0\xa4\x95'
p177
sS'af'
p178
S'\xe0\xa4\xb8\xe0\xa5\x8d\xe0\xa4\x9f\xe0\xa5\x89\xe0\xa4\x95,n,m,sg,3,d,0,0'
p179
sS'drel'
p180
S'pof__cn:NP3'
p181
sS'chunktype'
p182
S'child:NP3'
p183
sS'cref'
p184
S'i3%0:t3'
p185
ssbsg38
I00
sg39
I00
sg40
Nsg41
Nsg42
I2
sg43
I0
sg44
Nsg45
Nsg46
S'NNPC'
p186
sg48
g171
sg49
I00
sba(issf_api
Word
p187
(dp188
g6
I00
sg7
V\u090f\u0915\u094d\u0938\u091a\u0947\u0902\u091c
p189
sg9
(issf_api
FeatureSet
p190
(dp191
g12
(dp192
S'crefhead'
p193
S'\xe0\xa4\x8f\xe0\xa4\x95\xe0\xa5\x8d\xe0\xa4\xb8\xe0\xa4\x9a\xe0\xa5\x87\xe0\xa4\x82\xe0\xa4\x9c:i3'
p194
sS'posn'
p195
S'90'
p196
sS'name'
p197
S'\xe0\xa4\x8f\xe0\xa4\x95\xe0\xa5\x8d\xe0\xa4\xb8\xe0\xa4\x9a\xe0\xa5\x87\xe0\xa4\x82\xe0\xa4\x9c'
p198
sS'af'
p199
S'\xe0\xa4\x8f\xe0\xa4\x95\xe0\xa5\x8d\xe0\xa4\xb8\xe0\xa4\x9a\xe0\xa5\x87\xe0\xa4\x82\xe0\xa4\x9c,n,m,sg,3,o,0,0'
p200
sS'chunkid'
p201
S'NP3'
p202
sS'chunktype'
p203
S'head:NP3'
p204
sS'crefchainhead'
p205
S'i3:t3'
p206
sS'cref'
p207
S'i3%1:t3'
p208
sS'drel'
p209
S'r6:NP5'
p210
ssbsg38
I00
sg39
I00
sg40
Nsg41
Nsg42
I2
sg43
I0
sg44
Nsg45
Nsg46
S'NNP'
p211
sg48
g190
sg49
I00
sba(issf_api
Word
p212
(dp213
g6
I00
sg7
V(
p214
sg9
(issf_api
FeatureSet
p215
(dp216
g12
(dp217
S'posn'
p218
S'100'
p219
sS'name'
p220
S'('
p221
sS'drel'
p222
S'rsym:NP4'
p223
sS'chunktype'
p224
S'child:NP4'
p225
sS'af'
p226
S',punc,,,,,,'
p227
ssbsg38
I00
sg39
I00
sg40
Nsg41
Nsg42
I3
sg43
I0
sg44
Nsg45
Nsg46
S'SYM'
p228
sg48
g215
sg49
I00
sba(issf_api
Word
p229
(dp230
g6
I00
sg7
V\u092c\u0940\u090f\u0938\u0908
p231
sg9
(issf_api
FeatureSet
p232
(dp233
g12
(dp234
S'crefhead'
p235
S'\xe0\xa4\xac\xe0\xa5\x80\xe0\xa4\x8f\xe0\xa4\xb8\xe0\xa4\x88:i4'
p236
sS'posn'
p237
S'110'
p238
sS'name'
p239
S'\xe0\xa4\xac\xe0\xa5\x80\xe0\xa4\x8f\xe0\xa4\xb8\xe0\xa4\x88'
p240
sS'af'
p241
S'\xe0\xa4\xac\xe0\xa5\x80\xe0\xa4\x8f\xe0\xa4\xb8\xe0\xa4\x88,n,m,sg,3,o,0,0'
p242
sS'chunkid'
p243
S'NP4'
p244
sS'creftype'
p245
S'Coreference-Abbreviation:i3'
p246
sS'chunktype'
p247
S'head:NP4'
p248
sS'cref'
p249
S'i4%1:t3'
p250
sS'drel'
p251
S'nmod:NP3'
p252
ssbsg38
I00
sg39
I00
sg40
Nsg41
Nsg42
I3
sg43
I0
sg44
Nsg45
Nsg46
S'NNP'
p253
sg48
g232
sg49
I00
sba(issf_api
Word
p254
(dp255
g6
I00
sg7
V)
p256
sg9
(issf_api
FeatureSet
p257
(dp258
g12
(dp259
S'posn'
p260
S'120'
p261
sS'name'
p262
S')'
p263
sS'drel'
p264
S'rsym:NP4'
p265
sS'chunktype'
p266
S'child:NP4'
p267
sS'af'
p268
S',punc,,,,,,'
p269
ssbsg38
I00
sg39
I00
sg40
Nsg41
Nsg42
I3
sg43
I0
sg44
Nsg45
Nsg46
S'SYM'
p270
sg48
g257
sg49
I00
sba(issf_api
Word
p271
(dp272
g6
I00
sg7
V\u0915\u093e
p273
sg9
(issf_api
FeatureSet
p274
(dp275
g12
(dp276
S'name'
p277
S'\xe0\xa4\x95\xe0\xa4\xbe'
p278
sS'drel'
p279
S'fragof:NP3'
p280
sS'chunktype'
p281
S'head:FRAGP'
p282
sS'chunkid'
p283
S'FRAGP'
p284
ssbsg38
I00
sg39
I00
sg40
Nsg41
Nsg42
I4
sg43
I0
sg44
Nsg45
Nsg46
S'PSP'
p285
sg48
g274
sg49
I00
sba(issf_api
Word
p286
(dp287
g6
I00
sg7
V\u0938\u0902\u0935\u0947\u0926\u0940
p288
sg9
(issf_api
FeatureSet
p289
(dp290
g12
(dp291
S'posn'
p292
S'140'
p293
sS'name'
p294
S'\xe0\xa4\xb8\xe0\xa4\x82\xe0\xa4\xb5\xe0\xa5\x87\xe0\xa4\xa6\xe0\xa5\x80'
p295
sS'drel'
p296
S'nmod__adj:NP5'
p297
sS'chunktype'
p298
S'child:NP5'
p299
sS'af'
p300
S'\xe0\xa4\xb8\xe0\xa4\x82\xe0\xa4\xb5\xe0\xa5\x87\xe0\xa4\xa6\xe0\xa5\x80,adj,any,any,,d,,'
p301
ssbsg38
I00
sg39
I00
sg40
Nsg41
Nsg42
I5
sg43
I0
sg44
Nsg45
Nsg46
S'JJ'
p302
sg48
g289
sg49
I00
sba(issf_api
Word
p303
(dp304
g6
I00
sg7
V\u0938\u0942\u091a\u0915\u093e\u0902\u0915
p305
sg9
(issf_api
FeatureSet
p306
(dp307
g12
(dp308
S'posn'
p309
S'150'
p310
sS'name'
p311
S'\xe0\xa4\xb8\xe0\xa5\x82\xe0\xa4\x9a\xe0\xa4\x95\xe0\xa4\xbe\xe0\xa4\x82\xe0\xa4\x95'
p312
sS'af'
p313
S'\xe0\xa4\xb8\xe0\xa5\x82\xe0\xa4\x9a\xe0\xa4\x95\xe0\xa4\xbe\xe0\xa4\x82\xe0\xa4\x95,n,m,sg,3,d,0,0'
p314
sS'chunkid'
p315
S'NP5'
p316
sS'drel'
p317
S'k1:VGF'
p318
sS'chunktype'
p319
S'head:NP5'
p320
ssbsg38
I00
sg39
I00
sg40
Nsg41
Nsg42
I5
sg43
I0
sg44
Nsg45
Nsg46
S'NN'
p321
sg48
g306
sg49
I00
sba(issf_api
Word
p322
(dp323
g6
I00
sg7
V\u096f\u096e
p324
sg9
(issf_api
FeatureSet
p325
(dp326
g12
(dp327
S'posn'
p328
S'160'
p329
sS'name'
p330
S'\xe0\xa5\xaf\xe0\xa5\xae'
p331
sS'drel'
p332
S'nmod__adj:NP6'
p333
sS'chunktype'
p334
S'child:NP6'
p335
sS'af'
p336
S'\xe0\xa5\xaf\xe0\xa5\xae,num,any,any,,any,,'
p337
ssbsg38
I00
sg39
I00
sg40
Nsg41
Nsg42
I6
sg43
I0
sg44
Nsg45
Nsg46
S'QC'
p338
sg48
g325
sg49
I00
sba(issf_api
Word
p339
(dp340
g6
I00
sg7
V\u0905\u0902\u0915
p341
sg9
(issf_api
FeatureSet
p342
(dp343
g12
(dp344
S'posn'
p345
S'170'
p346
sS'name'
p347
S'\xe0\xa4\x85\xe0\xa4\x82\xe0\xa4\x95'
p348
sS'af'
p349
S'\xe0\xa4\x85\xe0\xa4\x82\xe0\xa4\x95,n,m,sg,3,o,0_\xe0\xa4\x95\xe0\xa4\xbe,0'
p350
sS'chunkid'
p351
S'NP6'
p352
sS'drel'
p353
S'r6:NP7'
p354
sS'vpos'
p355
S'vib_3'
p356
sS'chunktype'
p357
S'head:NP6'
p358
ssbsg38
I00
sg39
I00
sg40
Nsg41
Nsg42
I6
sg43
I0
sg44
Nsg45
Nsg46
S'NN'
p359
sg48
g342
sg49
I00
sba(issf_api
Word
p360
(dp361
g6
I00
sg7
V\u0915\u0940
p362
sg9
(issf_api
FeatureSet
p363
(dp364
g12
(dp365
S'posn'
p366
S'180'
p367
sS'name'
p368
S'\xe0\xa4\x95\xe0\xa5\x802'
p369
sS'drel'
p370
S'lwg__psp:NP6'
p371
sS'chunktype'
p372
S'child:NP6'
p373
sS'af'
p374
S'\xe0\xa4\x95\xe0\xa4\xbe,psp,f,sg,,d,,'
p375
ssbsg38
I00
sg39
I00
sg40
Nsg41
Nsg42
I6
sg43
I0
sg44
Nsg45
Nsg46
S'PSP'
p376
sg48
g363
sg49
I00
sba(issf_api
Word
p377
(dp378
g6
I00
sg7
V\u092d\u093e\u0930\u0940
p379
sg9
(issf_api
FeatureSet
p380
(dp381
g12
(dp382
S'posn'
p383
S'190'
p384
sS'name'
p385
S'\xe0\xa4\xad\xe0\xa4\xbe\xe0\xa4\xb0\xe0\xa5\x80'
p386
sS'drel'
p387
S'nmod__adj:NP7'
p388
sS'chunktype'
p389
S'child:NP7'
p390
sS'af'
p391
S'\xe0\xa4\xad\xe0\xa4\xbe\xe0\xa4\xb0\xe0\xa5\x80,adj,any,any,,d,,'
p392
ssbsg38
I00
sg39
I00
sg40
Nsg41
Nsg42
I7
sg43
I0
sg44
Nsg45
Nsg46
S'JJ'
p393
sg48
g380
sg49
I00
sba(issf_api
Word
p394
(dp395
g6
I00
sg7
V\u092c\u0922\u093c\u094b\u0924\u0930\u0940
p396
sg9
(issf_api
FeatureSet
p397
(dp398
g12
(dp399
S'posn'
p400
S'200'
p401
sS'name'
p402
S'\xe0\xa4\xac\xe0\xa4\xa2\xe0\xa4\xbc\xe0\xa5\x8b\xe0\xa4\xa4\xe0\xa4\xb0\xe0\xa5\x80'
p403
sS'af'
p404
S'\xe0\xa4\xac\xe0\xa4\xa2\xe0\xa4\xbc\xe0\xa5\x8b\xe0\xa4\xa4\xe0\xa4\xb0\xe0\xa5\x80,n,f,sg,3,d,0,0'
p405
sS'chunkid'
p406
S'NP7'
p407
sS'drel'
p408
S'k1:VGNF'
p409
sS'chunktype'
p410
S'head:NP7'
p411
ssbsg38
I00
sg39
I00
sg40
Nsg41
Nsg42
I7
sg43
I0
sg44
Nsg45
Nsg46
S'NN'
p412
sg48
g397
sg49
I00
sba(issf_api
Word
p413
(dp414
g6
I00
sg7
V\u0926\u0930\u094d\u091c
p415
sg9
(issf_api
FeatureSet
p416
(dp417
g12
(dp418
S'posn'
p419
S'210'
p420
sS'name'
p421
S'\xe0\xa4\xa6\xe0\xa4\xb0\xe0\xa5\x8d\xe0\xa4\x9c'
p422
sS'af'
p423
S'\xe0\xa4\xa6\xe0\xa4\xb0\xe0\xa5\x8d\xe0\xa4\x9c,adj,any,any,,,,'
p424
sS'chunkid'
p425
S'JJP'
p426
sS'drel'
p427
S'pof:VGNF'
p428
sS'chunktype'
p429
S'head:JJP'
p430
ssbsg38
I00
sg39
I00
sg40
Nsg41
Nsg42
I8
sg43
I0
sg44
Nsg45
Nsg46
S'JJ'
p431
sg48
g416
sg49
I00
sba(issf_api
Word
p432
(dp433
g6
I00
sg7
V\u0915\u0930
p434
sg9
(issf_api
FeatureSet
p435
(dp436
g12
(dp437
S'posn'
p438
S'220'
p439
sS'name'
p440
S'\xe0\xa4\x95\xe0\xa4\xb0'
p441
sS'af'
p442
S'\xe0\xa4\x95\xe0\xa4\xb0,v,any,any,any,,0,0'
p443
sS'chunkid'
p444
S'VGNF'
p445
sS'drel'
p446
S'vmod:VGF'
p447
sS'chunktype'
p448
S'head:VGNF'
p449
ssbsg38
I00
sg39
I00
sg40
Nsg41
Nsg42
I9
sg43
I0
sg44
Nsg45
Nsg46
S'VM'
p450
sg48
g435
sg49
I00
sba(issf_api
Word
p451
(dp452
g6
I00
sg7
V\u096c\u096d\u096e\u096b
p453
sg9
(issf_api
FeatureSet
p454
(dp455
g12
(dp456
S'posn'
p457
S'230'
p458
sS'name'
p459
S'\xe0\xa5\xac\xe0\xa5\xad\xe0\xa5\xae\xe0\xa5\xab'
p460
sS'drel'
p461
S'nmod__adj:NP8'
p462
sS'chunktype'
p463
S'child:NP8'
p464
sS'af'
p465
S'\xe0\xa5\xac\xe0\xa5\xad\xe0\xa5\xae\xe0\xa5\xab,num,any,any,,any,,'
p466
ssbsg38
I00
sg39
I00
sg40
Nsg41
Nsg42
I10
sg43
I0
sg44
Nsg45
Nsg46
S'QC'
p467
sg48
g454
sg49
I00
sba(issf_api
Word
p468
(dp469
g6
I00
sg7
V\u0905\u0902\u0915
p470
sg9
(issf_api
FeatureSet
p471
(dp472
g12
(dp473
S'posn'
p474
S'240'
p475
sS'name'
p476
S'\xe0\xa4\x85\xe0\xa4\x82\xe0\xa4\x952'
p477
sS'af'
p478
S'\xe0\xa4\x85\xe0\xa4\x82\xe0\xa4\x95,n,m,sg,3,o,0_\xe0\xa4\x95\xe0\xa4\xbe,0'
p479
sS'chunkid'
p480
S'NP8'
p481
sS'drel'
p482
S'r6:NP9'
p483
sS'vpos'
p484
S'vib_3'
p485
sS'chunktype'
p486
S'head:NP8'
p487
ssbsg38
I00
sg39
I00
sg40
Nsg41
Nsg42
I10
sg43
I0
sg44
Nsg45
Nsg46
S'NN'
p488
sg48
g471
sg49
I00
sba(issf_api
Word
p489
(dp490
g6
I00
sg7
V\u0915\u0947
p491
sg9
(issf_api
FeatureSet
p492
(dp493
g12
(dp494
S'posn'
p495
S'250'
p496
sS'name'
p497
S'\xe0\xa4\x95\xe0\xa5\x872'
p498
sS'drel'
p499
S'lwg__psp:NP8'
p500
sS'chunktype'
p501
S'child:NP8'
p502
sS'af'
p503
S'\xe0\xa4\x95\xe0\xa4\xbe,psp,m,sg,,o,,'
p504
ssbsg38
I00
sg39
I00
sg40
Nsg41
Nsg42
I10
sg43
I0
sg44
Nsg45
Nsg46
S'PSP'
p505
sg48
g492
sg49
I00
sba(issf_api
Word
p506
(dp507
g6
I00
sg7
V\u0928\u090f
p508
sg9
(issf_api
FeatureSet
p509
(dp510
g12
(dp511
S'posn'
p512
S'260'
p513
sS'name'
p514
S'\xe0\xa4\xa8\xe0\xa4\x8f'
p515
sS'drel'
p516
S'nmod__adj:NP9'
p517
sS'chunktype'
p518
S'child:NP9'
p519
sS'af'
p520
S'\xe0\xa4\xa8\xe0\xa4\xaf\xe0\xa4\xbe,adj,m,sg,,o,,'
p521
ssbsg38
I00
sg39
I00
sg40
Nsg41
Nsg42
I11
sg43
I0
sg44
Nsg45
Nsg46
S'JJ'
p522
sg48
g509
sg49
I00
sba(issf_api
Word
p523
(dp524
g6
I00
sg7
V\u0930\u093f\u0915\u0949\u0930\u094d\u0921
p525
sg9
(issf_api
FeatureSet
p526
(dp527
g12
(dp528
S'posn'
p529
S'270'
p530
sS'name'
p531
S'\xe0\xa4\xb0\xe0\xa4\xbf\xe0\xa4\x95\xe0\xa5\x89\xe0\xa4\xb0\xe0\xa5\x8d\xe0\xa4\xa1'
p532
sS'drel'
p533
S'pof__cn:NP9'
p534
sS'chunktype'
p535
S'child:NP9'
p536
sS'af'
p537
S'\xe0\xa4\xb0\xe0\xa4\xbf\xe0\xa4\x95\xe0\xa5\x89\xe0\xa4\xb0\xe0\xa5\x8d\xe0\xa4\xa1,n,m,sg,3,d,0,0'
p538
ssbsg38
I00
sg39
I00
sg40
Nsg41
Nsg42
I11
sg43
I0
sg44
Nsg45
Nsg46
S'NNC'
p539
sg48
g526
sg49
I00
sba(issf_api
Word
p540
(dp541
g6
I00
sg7
V\u0938\u094d\u0924\u0930
p542
sg9
(issf_api
FeatureSet
p543
(dp544
g12
(dp545
S'posn'
p546
S'280'
p547
sS'name'
p548
S'\xe0\xa4\xb8\xe0\xa5\x8d\xe0\xa4\xa4\xe0\xa4\xb0'
p549
sS'af'
p550
S'\xe0\xa4\xb8\xe0\xa5\x8d\xe0\xa4\xa4\xe0\xa4\xb0,n,m,sg,3,o,0_\xe0\xa4\xaa\xe0\xa4\xb0,0'
p551
sS'chunkid'
p552
S'NP9'
p553
sS'drel'
p554
S'k7:VGF'
p555
sS'vpos'
p556
S'vib_4'
p557
sS'chunktype'
p558
S'head:NP9'
p559
ssbsg38
I00
sg39
I00
sg40
Nsg41
Nsg42
I11
sg43
I0
sg44
Nsg45
Nsg46
S'NN'
p560
sg48
g543
sg49
I00
sba(issf_api
Word
p561
(dp562
g6
I00
sg7
V\u092a\u0930
p563
sg9
(issf_api
FeatureSet
p564
(dp565
g12
(dp566
S'posn'
p567
S'290'
p568
sS'name'
p569
S'\xe0\xa4\xaa\xe0\xa4\xb0'
p570
sS'drel'
p571
S'lwg__psp:NP9'
p572
sS'chunktype'
p573
S'child:NP9'
p574
sS'af'
p575
S'\xe0\xa4\xaa\xe0\xa4\xb0,psp,,,,,,'
p576
ssbsg38
I00
sg39
I00
sg40
Nsg41
Nsg42
I11
sg43
I0
sg44
Nsg45
Nsg46
S'PSP'
p577
sg48
g564
sg49
I00
sba(issf_api
Word
p578
(dp579
g6
I00
sg7
V\u092c\u0902\u0926
p580
sg9
(issf_api
FeatureSet
p581
(dp582
g12
(dp583
S'posn'
p584
S'300'
p585
sS'name'
p586
S'\xe0\xa4\xac\xe0\xa4\x82\xe0\xa4\xa6'
p587
sS'af'
p588
S'\xe0\xa4\xac\xe0\xa4\x82\xe0\xa4\xa6,adj,any,any,,,,'
p589
sS'chunkid'
p590
S'JJP2'
p591
sS'drel'
p592
S'pof:VGF'
p593
sS'chunktype'
p594
S'head:JJP2'
p595
ssbsg38
I00
sg39
I00
sg40
Nsg41
Nsg42
I12
sg43
I0
sg44
Nsg45
Nsg46
S'JJ'
p596
sg48
g581
sg49
I00
sba(issf_api
Word
p597
(dp598
g6
I00
sg7
V\u0939\u0941\u0906
p599
sg9
(issf_api
FeatureSet
p600
(dp601
g12
(dp602
S'posn'
p603
S'310'
p604
sS'name'
p605
S'\xe0\xa4\xb9\xe0\xa5\x81\xe0\xa4\x86'
p606
sS'af'
p607
S'\xe0\xa4\xb9\xe0\xa5\x8b,v,m,sg,any,,\xe0\xa4\xaf\xe0\xa4\xbe,yA'
p608
sS'chunkid'
p609
S'VGF'
p610
sS'chunktype'
p611
S'head:VGF'
p612
sS'voicetype'
p613
S'active'
p614
sS'stype'
p615
S'declarative'
p616
ssbsg38
I00
sg39
I00
sg40
Nsg41
Nsg42
I13
sg43
I0
sg44
Nsg45
Nsg46
S'VM'
p617
sg48
g600
sg49
I00
sba(issf_api
Word
p618
(dp619
g6
I00
sg7
V\u0964
p620
sg9
(issf_api
FeatureSet
p621
(dp622
g12
(dp623
S'posn'
p624
S'320'
p625
sS'name'
p626
S'\xe0\xa5\xa4'
p627
sS'af'
p628
S'\xe0\xa5\xa4,punc,,,,,,'
p629
sS'chunkid'
p630
S'BLK'
p631
sS'drel'
p632
S'rsym:VGF'
p633
sS'chunktype'
p634
S'head:BLK'
p635
ssbsg38
I00
sg39
I00
sg40
Nsg41
Nsg42
I14
sg43
I0
sg44
Nsg45
Nsg46
S'SYM'
p636
sg48
g621
sg49
I00
sba(issf_api
Word
p637
(dp638
g6
I00
sg7
V\u0928\u093f\u092b\u094d\u091f\u0940
p639
sg9
(issf_api
FeatureSet
p640
(dp641
g12
(dp642
S'posn'
p643
S'10'
p644
sS'name'
p645
S'\xe0\xa4\xa8\xe0\xa4\xbf\xe0\xa4\xab\xe0\xa5\x8d\xe0\xa4\x9f\xe0\xa5\x80'
p646
sS'drel'
p647
S'pof__cn:NP'
p648
sS'chunktype'
p649
S'child:NP'
p650
sS'af'
p651
S'\xe0\xa4\xa8\xe0\xa4\xbf\xe0\xa4\xab\xe0\xa5\x8d\xe0\xa4\x9f\xe0\xa5\x80,n,m,sg,3,d,0,0'
p652
ssbsg38
I00
sg39
I00
sg40
Nsg41
Nsg42
I0
sg43
I1
sg44
Nsg45
Nsg46
S'NNPC'
p653
sg48
g640
sg49
I00
sba(issf_api
Word
p654
(dp655
g6
I00
sg7
V\u0938\u0942\u091a\u0915\u093e\u0902\u0915
p656
sg9
(issf_api
FeatureSet
p657
(dp658
g12
(dp659
S'posn'
p660
S'20'
p661
sS'name'
p662
S'\xe0\xa4\xb8\xe0\xa5\x82\xe0\xa4\x9a\xe0\xa4\x95\xe0\xa4\xbe\xe0\xa4\x82\xe0\xa4\x95'
p663
sS'af'
p664
S'\xe0\xa4\xb8\xe0\xa5\x82\xe0\xa4\x9a\xe0\xa4\x95\xe0\xa4\xbe\xe0\xa4\x82\xe0\xa4\x95,n,m,sg,3,d,0,0'
p665
sS'chunkid'
p666
S'NP'
p667
sS'drel'
p668
S'k1:VGF'
p669
sS'chunktype'
p670
S'head:NP'
p671
ssbsg38
I00
sg39
I00
sg40
Nsg41
Nsg42
I0
sg43
I1
sg44
Nsg45
Nsg46
S'NNP'
p672
sg48
g657
sg49
I00
sba(issf_api
Word
p673
(dp674
g6
I00
sg7
V\u0969\u096c
p675
sg9
(issf_api
FeatureSet
p676
(dp677
g12
(dp678
S'posn'
p679
S'30'
p680
sS'name'
p681
S'\xe0\xa5\xa9\xe0\xa5\xac'
p682
sS'drel'
p683
S'nmod__adj:NP2'
p684
sS'chunktype'
p685
S'child:NP2'
p686
sS'af'
p687
S'\xe0\xa5\xa9\xe0\xa5\xac,num,any,any,,any,,'
p688
ssbsg38
I00
sg39
I00
sg40
Nsg41
Nsg42
I1
sg43
I1
sg44
Nsg45
Nsg46
S'QC'
p689
sg48
g676
sg49
I00
sba(issf_api
Word
p690
(dp691
g6
I00
sg7
V\u0905\u0902\u0915
p692
sg9
(issf_api
FeatureSet
p693
(dp694
g12
(dp695
S'posn'
p696
S'40'
p697
sS'name'
p698
S'\xe0\xa4\x85\xe0\xa4\x82\xe0\xa4\x95'
p699
sS'af'
p700
S'\xe0\xa4\x85\xe0\xa4\x82\xe0\xa4\x95,n,m,pl,3,d,0,0'
p701
sS'chunkid'
p702
S'NP2'
p703
sS'drel'
p704
S'k1:VGNF'
p705
sS'chunktype'
p706
S'head:NP2'
p707
ssbsg38
I00
sg39
I00
sg40
Nsg41
Nsg42
I1
sg43
I1
sg44
Nsg45
Nsg46
S'NN'
p708
sg48
g693
sg49
I00
sba(issf_api
Word
p709
(dp710
g6
I00
sg7
V\u092c\u0922\u093c\u0915\u0930
p711
sg9
(issf_api
FeatureSet
p712
(dp713
g12
(dp714
S'posn'
p715
S'50'
p716
sS'name'
p717
S'\xe0\xa4\xac\xe0\xa4\xa2\xe0\xa4\xbc\xe0\xa4\x95\xe0\xa4\xb0'
p718
sS'af'
p719
S'\xe0\xa4\xac\xe0\xa4\xa2\xe0\xa4\xbc,v,any,any,any,,\xe0\xa4\x95\xe0\xa4\xb0,kara'
p720
sS'chunkid'
p721
S'VGNF'
p722
sS'drel'
p723
S'vmod:VGF'
p724
sS'chunktype'
p725
S'head:VGNF'
p726
ssbsg38
I00
sg39
I00
sg40
Nsg41
Nsg42
I2
sg43
I1
sg44
Nsg45
Nsg46
S'VM'
p727
sg48
g712
sg49
I00
sba(issf_api
Word
p728
(dp729
g6
I00
sg7
V\u0968\u0967\u0968\u096f
p730
sg9
(issf_api
FeatureSet
p731
(dp732
g12
(dp733
S'posn'
p734
S'60'
p735
sS'name'
p736
S'\xe0\xa5\xa8\xe0\xa5\xa7\xe0\xa5\xa8\xe0\xa5\xaf'
p737
sS'drel'
p738
S'nmod__adj:NP3'
p739
sS'chunktype'
p740
S'child:NP3'
p741
sS'af'
p742
S'\xe0\xa5\xa8\xe0\xa5\xa7\xe0\xa5\xa8\xe0\xa5\xaf,num,any,any,,any,,'
p743
ssbsg38
I00
sg39
I00
sg40
Nsg41
Nsg42
I3
sg43
I1
sg44
Nsg45
Nsg46
S'QC'
p744
sg48
g731
sg49
I00
sba(issf_api
Word
p745
(dp746
g6
I00
sg7
V\u0905\u0902\u0915
p747
sg9
(issf_api
FeatureSet
p748
(dp749
g12
(dp750
S'posn'
p751
S'70'
p752
sS'name'
p753
S'\xe0\xa4\x85\xe0\xa4\x82\xe0\xa4\x952'
p754
sS'af'
p755
S'\xe0\xa4\x85\xe0\xa4\x82\xe0\xa4\x95,n,m,sg,3,o,0_\xe0\xa4\xaa\xe0\xa4\xb0,0'
p756
sS'chunkid'
p757
S'NP3'
p758
sS'drel'
p759
S'k7:VGF'
p760
sS'vpos'
p761
S'vib_3'
p762
sS'chunktype'
p763
S'head:NP3'
p764
ssbsg38
I00
sg39
I00
sg40
Nsg41
Nsg42
I3
sg43
I1
sg44
Nsg45
Nsg46
S'NN'
p765
sg48
g748
sg49
I00
sba(issf_api
Word
p766
(dp767
g6
I00
sg7
V\u092a\u0930
p768
sg9
(issf_api
FeatureSet
p769
(dp770
g12
(dp771
S'posn'
p772
S'80'
p773
sS'name'
p774
S'\xe0\xa4\xaa\xe0\xa4\xb0'
p775
sS'drel'
p776
S'lwg__psp:NP3'
p777
sS'chunktype'
p778
S'child:NP3'
p779
sS'af'
p780
S'\xe0\xa4\xaa\xe0\xa4\xb0,psp,,,,,,'
p781
ssbsg38
I00
sg39
I00
sg40
Nsg41
Nsg42
I3
sg43
I1
sg44
Nsg45
Nsg46
S'PSP'
p782
sg48
g769
sg49
I00
sba(issf_api
Word
p783
(dp784
g6
I00
sg7
V\u092c\u0902\u0926
p785
sg9
(issf_api
FeatureSet
p786
(dp787
g12
(dp788
S'posn'
p789
S'90'
p790
sS'name'
p791
S'\xe0\xa4\xac\xe0\xa4\x82\xe0\xa4\xa6'
p792
sS'af'
p793
S'\xe0\xa4\xac\xe0\xa4\x82\xe0\xa4\xa6,adj,any,any,,,,'
p794
sS'chunkid'
p795
S'JJP'
p796
sS'drel'
p797
S'pof:VGF'
p798
sS'chunktype'
p799
S'head:JJP'
p800
ssbsg38
I00
sg39
I00
sg40
Nsg41
Nsg42
I4
sg43
I1
sg44
Nsg45
Nsg46
S'JJ'
p801
sg48
g786
sg49
I00
sba(issf_api
Word
p802
(dp803
g6
I00
sg7
V\u0939\u0941\u0906
p804
sg9
(issf_api
FeatureSet
p805
(dp806
g12
(dp807
S'posn'
p808
S'100'
p809
sS'name'
p810
S'\xe0\xa4\xb9\xe0\xa5\x81\xe0\xa4\x86'
p811
sS'af'
p812
S'\xe0\xa4\xb9\xe0\xa5\x8b,v,m,sg,any,,\xe0\xa4\xaf\xe0\xa4\xbe,yA'
p813
sS'chunkid'
p814
S'VGF'
p815
sS'chunktype'
p816
S'head:VGF'
p817
sS'voicetype'
p818
S'active'
p819
sS'stype'
p820
S'declarative'
p821
ssbsg38
I00
sg39
I00
sg40
Nsg41
Nsg42
I5
sg43
I1
sg44
Nsg45
Nsg46
S'VM'
p822
sg48
g805
sg49
I00
sba(issf_api
Word
p823
(dp824
g6
I00
sg7
V\u0964
p825
sg9
(issf_api
FeatureSet
p826
(dp827
g12
(dp828
S'posn'
p829
S'110'
p830
sS'name'
p831
S'\xe0\xa5\xa4'
p832
sS'af'
p833
S'\xe0\xa5\xa4,punc,,,,,,'
p834
sS'chunkid'
p835
S'BLK'
p836
sS'drel'
p837
S'rsym:VGF'
p838
sS'chunktype'
p839
S'head:BLK'
p840
ssbsg38
I00
sg39
I00
sg40
Nsg41
Nsg42
I6
sg43
I1
sg44
Nsg45
Nsg46
S'SYM'
p841
sg48
g826
sg49
I00
sba(issf_api
Word
p842
(dp843
g6
I00
sg7
V\u091c\u093e\u0928\u0915\u093e\u0930\u094b\u0902
p844
sg9
(issf_api
FeatureSet
p845
(dp846
g12
(dp847
S'posn'
p848
S'10'
p849
sS'name'
p850
S'\xe0\xa4\x9c\xe0\xa4\xbe\xe0\xa4\xa8\xe0\xa4\x95\xe0\xa4\xbe\xe0\xa4\xb0\xe0\xa5\x8b\xe0\xa4\x82'
p851
sS'af'
p852
S'\xe0\xa4\x9c\xe0\xa4\xbe\xe0\xa4\xa8\xe0\xa4\x95\xe0\xa4\xbe\xe0\xa4\xb0,n,m,pl,3,o,0_\xe0\xa4\x95\xe0\xa5\x87_\xe0\xa4\xae\xe0\xa5\x81\xe0\xa4\xa4\xe0\xa4\xbe\xe0\xa4\xac\xe0\xa4\xbf\xe0\xa4\x95,0'
p853
sS'chunkid'
p854
S'NP'
p855
sS'drel'
p856
S'k7a:VGF'
p857
sS'vpos'
p858
S'vib_2_3'
p859
sS'chunktype'
p860
S'head:NP'
p861
ssbsg38
I00
sg39
I00
sg40
Nsg41
Nsg42
I0
sg43
I2
sg44
Nsg45
Nsg46
S'NN'
p862
sg48
g845
sg49
I00
sba(issf_api
Word
p863
(dp864
g6
I00
sg7
V\u0915\u0947
p865
sg9
(issf_api
FeatureSet
p866
(dp867
g12
(dp868
S'posn'
p869
S'20'
p870
sS'name'
p871
S'\xe0\xa4\x95\xe0\xa5\x87'
p872
sS'drel'
p873
S'lwg__psp:NP'
p874
sS'chunktype'
p875
S'child:NP'
p876
sS'af'
p877
S'\xe0\xa4\x95\xe0\xa5\x87,psp,,,,,,'
p878
ssbsg38
I00
sg39
I00
sg40
Nsg41
Nsg42
I0
sg43
I2
sg44
Nsg45
Nsg46
S'PSP'
p879
sg48
g866
sg49
I00
sba(issf_api
Word
p880
(dp881
g6
I00
sg7
V\u092e\u0941\u0924\u093e\u092c\u093f\u0915\u093c
p882
sg9
(issf_api
FeatureSet
p883
(dp884
g12
(dp885
S'posn'
p886
S'30'
p887
sS'name'
p888
S'\xe0\xa4\xae\xe0\xa5\x81\xe0\xa4\xa4\xe0\xa4\xbe\xe0\xa4\xac\xe0\xa4\xbf\xe0\xa4\x95\xe0\xa4\xbc'
p889
sS'drel'
p890
S'lwg__psp:NP'
p891
sS'chunktype'
p892
S'child:NP'
p893
sS'af'
p894
S'\xe0\xa4\xae\xe0\xa5\x81\xe0\xa4\xa4\xe0\xa4\xbe\xe0\xa4\xac\xe0\xa4\xbf\xe0\xa4\x95,psp,,,,,,'
p895
ssbsg38
I00
sg39
I00
sg40
Nsg41
Nsg42
I0
sg43
I2
sg44
Nsg45
Nsg46
S'PSP'
p896
sg48
g883
sg49
I00
sba(issf_api
Word
p897
(dp898
g6
I00
sg7
V\u092c\u091c\u091f
p899
sg9
(issf_api
FeatureSet
p900
(dp901
g12
(dp902
S'crefhead'
p903
S'\xe0\xa4\xac\xe0\xa4\x9c\xe0\xa4\x9f:i5'
p904
sS'posn'
p905
S'40'
p906
sS'name'
p907
S'\xe0\xa4\xac\xe0\xa4\x9c\xe0\xa4\x9f'
p908
sS'af'
p909
S'\xe0\xa4\xac\xe0\xa4\x9c\xe0\xa4\x9f,n,m,sg,3,d,0,0'
p910
sS'chunkid'
p911
S'NP2'
p912
sS'chunktype'
p913
S'head:NP2'
p914
sS'crefchainhead'
p915
S'i5:t4'
p916
sS'cref'
p917
S'i5%1:t4'
p918
sS'drel'
p919
S'k1:VGNN'
p920
ssbsg38
I00
sg39
I00
sg40
Nsg41
Nsg42
I1
sg43
I2
sg44
Nsg45
Nsg46
S'NN'
p921
sg48
g900
sg49
I00
sba(issf_api
Word
p922
(dp923
g6
I00
sg7
V\u092a\u0947\u0936
p924
sg9
(issf_api
FeatureSet
p925
(dp926
g12
(dp927
S'posn'
p928
S'50'
p929
sS'name'
p930
S'\xe0\xa4\xaa\xe0\xa5\x87\xe0\xa4\xb6'
p931
sS'af'
p932
S'\xe0\xa4\xaa\xe0\xa5\x87\xe0\xa4\xb6,adj,any,any,,,,'
p933
sS'chunkid'
p934
S'JJP'
p935
sS'drel'
p936
S'pof:VGNN'
p937
sS'chunktype'
p938
S'head:JJP'
p939
ssbsg38
I00
sg39
I00
sg40
Nsg41
Nsg42
I2
sg43
I2
sg44
Nsg45
Nsg46
S'JJ'
p940
sg48
g925
sg49
I00
sba(issf_api
Word
p941
(dp942
g6
I00
sg7
V\u0939\u094b\u0928\u0947
p943
sg9
(issf_api
FeatureSet
p944
(dp945
g12
(dp946
S'posn'
p947
S'60'
p948
sS'name'
p949
S'\xe0\xa4\xb9\xe0\xa5\x8b\xe0\xa4\xa8\xe0\xa5\x87'
p950
sS'af'
p951
S'\xe0\xa4\xb9\xe0\xa5\x8b,v,m,any,any,o,\xe0\xa4\xa8\xe0\xa4\xbe_\xe0\xa4\xb8\xe0\xa5\x87_\xe0\xa4\xaa\xe0\xa4\xb9\xe0\xa4\xb2\xe0\xa5\x87_\xe0\xa4\xa4\xe0\xa4\x95,nA'
p952
sS'chunkid'
p953
S'VGNN'
p954
sS'drel'
p955
S'k7t:VGF'
p956
sS'vpos'
p957
S'tam_2_3_4'
p958
sS'chunktype'
p959
S'head:VGNN'
p960
ssbsg38
I00
sg39
I00
sg40
Nsg41
Nsg42
I3
sg43
I2
sg44
Nsg45
Nsg46
S'VM'
p961
sg48
g944
sg49
I00
sba(issf_api
Word
p962
(dp963
g6
I00
sg7
V\u0938\u0947
p964
sg9
(issf_api
FeatureSet
p965
(dp966
g12
(dp967
S'posn'
p968
S'70'
p969
sS'name'
p970
S'\xe0\xa4\xb8\xe0\xa5\x87'
p971
sS'drel'
p972
S'lwg__psp:VGNN'
p973
sS'chunktype'
p974
S'child:VGNN'
p975
sS'af'
p976
S'\xe0\xa4\xb8\xe0\xa5\x87,psp,,,,,,'
p977
ssbsg38
I00
sg39
I00
sg40
Nsg41
Nsg42
I3
sg43
I2
sg44
Nsg45
Nsg46
S'PSP'
p978
sg48
g965
sg49
I00
sba(issf_api
Word
p979
(dp980
g6
I00
sg7
V\u092a\u0939\u0932\u0947
p981
sg9
(issf_api
FeatureSet
p982
(dp983
g12
(dp984
S'posn'
p985
S'80'
p986
sS'name'
p987
S'\xe0\xa4\xaa\xe0\xa4\xb9\xe0\xa4\xb2\xe0\xa5\x87'
p988
sS'drel'
p989
S'lwg__nst:VGNN'
p990
sS'chunktype'
p991
S'child:VGNN'
p992
sS'af'
p993
S'\xe0\xa4\xaa\xe0\xa4\xb9\xe0\xa4\xb2\xe0\xa5\x87,nst,m,sg,3,o,,'
p994
ssbsg38
I00
sg39
I00
sg40
Nsg41
Nsg42
I3
sg43
I2
sg44
Nsg45
Nsg46
S'NST'
p995
sg48
g982
sg49
I00
sba(issf_api
Word
p996
(dp997
g6
I00
sg7
V\u0924\u0915
p998
sg9
(issf_api
FeatureSet
p999
(dp1000
g12
(dp1001
S'posn'
p1002
S'90'
p1003
sS'name'
p1004
S'\xe0\xa4\xa4\xe0\xa4\x95'
p1005
sS'drel'
p1006
S'lwg__psp:VGNN'
p1007
sS'chunktype'
p1008
S'child:VGNN'
p1009
sS'af'
p1010
S'\xe0\xa4\xa4\xe0\xa4\x95,psp,,,,,,'
p1011
ssbsg38
I00
sg39
I00
sg40
Nsg41
Nsg42
I3
sg43
I2
sg44
Nsg45
Nsg46
S'PSP'
p1012
sg48
g999
sg49
I00
sba(issf_api
Word
p1013
(dp1014
g6
I00
sg7
V\u0915\u0908
p1015
sg9
(issf_api
FeatureSet
p1016
(dp1017
g12
(dp1018
S'posn'
p1019
S'100'
p1020
sS'name'
p1021
S'\xe0\xa4\x95\xe0\xa4\x88'
p1022
sS'af'
p1023
S'\xe0\xa4\x95\xe0\xa4\x88,avy,,,,,,'
p1024
sS'drel'
p1025
S'nmod__adj:NP3'
p1026
sS'chunktype'
p1027
S'child:NP3'
p1028
sS'cref'
p1029
S'i6%0:t1'
p1030
ssbsg38
I00
sg39
I00
sg40
Nsg41
Nsg42
I4
sg43
I2
sg44
Nsg45
Nsg46
S'QF'
p1031
sg48
g1016
sg49
I00
sba(issf_api
Word
p1032
(dp1033
g6
I00
sg7
V\u0918\u0930\u0947\u0932\u0942
p1034
sg9
(issf_api
FeatureSet
p1035
(dp1036
g12
(dp1037
S'posn'
p1038
S'110'
p1039
sS'name'
p1040
S'\xe0\xa4\x98\xe0\xa4\xb0\xe0\xa5\x87\xe0\xa4\xb2\xe0\xa5\x82'
p1041
sS'af'
p1042
S'\xe0\xa4\x98\xe0\xa4\xb0\xe0\xa5\x87\xe0\xa4\xb2\xe0\xa5\x82,adj,any,any,,d,,'
p1043
sS'drel'
p1044
S'nmod__adj:NP3'
p1045
sS'chunktype'
p1046
S'child:NP3'
p1047
sS'cref'
p1048
S'i6%0:t1'
p1049
ssbsg38
I00
sg39
I00
sg40
Nsg41
Nsg42
I4
sg43
I2
sg44
Nsg45
Nsg46
S'JJ'
p1050
sg48
g1035
sg49
I00
sba(issf_api
Word
p1051
(dp1052
g6
I00
sg7
V\u092b\u0902\u0921
p1053
sg9
(issf_api
FeatureSet
p1054
(dp1055
g12
(dp1056
S'crefhead'
p1057
S'\xe0\xa4\xab\xe0\xa4\x82\xe0\xa4\xa1:i6'
p1058
sS'posn'
p1059
S'120'
p1060
sS'name'
p1061
S'\xe0\xa4\xab\xe0\xa4\x82\xe0\xa4\xa1'
p1062
sS'af'
p1063
S'\xe0\xa4\xab\xe0\xa4\x82\xe0\xa4\xa1,n,m,pl,3,d,0,0'
p1064
sS'chunkid'
p1065
S'NP3'
p1066
sS'creftype'
p1067
S'Coreference-PartOf:i1'
p1068
sS'chunktype'
p1069
S'head:NP3'
p1070
sS'cref'
p1071
S'i6%1:t1'
p1072
sS'drel'
p1073
S'k1:VGF'
p1074
ssbsg38
I00
sg39
I00
sg40
Nsg41
Nsg42
I4
sg43
I2
sg44
Nsg45
Nsg46
S'NN'
p1075
sg48
g1054
sg49
I00
sba(issf_api
Word
p1076
(dp1077
g6
I00
sg7
V\u0907\u0938\u0915\u0947
p1078
sg9
(issf_api
FeatureSet
p1079
(dp1080
g12
(dp1081
S'crefhead'
p1082
S'\xe0\xa4\x87\xe0\xa4\xb8\xe0\xa4\x95\xe0\xa5\x87:i7'
p1083
sS'posn'
p1084
S'130'
p1085
sS'name'
p1086
S'\xe0\xa4\x87\xe0\xa4\xb8\xe0\xa4\x95\xe0\xa5\x87'
p1087
sS'af'
p1088
S'\xe0\xa4\xaf\xe0\xa4\xb9,pn,m,pl,3,o,\xe0\xa4\x95\xe0\xa4\xbe,kA'
p1089
sS'chunkid'
p1090
S'NP4'
p1091
sS'creftype'
p1092
S'Anaphora-C:i5'
p1093
sS'chunktype'
p1094
S'head:NP4'
p1095
sS'cref'
p1096
S'i7%1:t4'
p1097
sS'drel'
p1098
S'r6:NP5'
p1099
ssbsg38
I00
sg39
I00
sg40
Nsg41
Nsg42
I5
sg43
I2
sg44
Nsg45
Nsg46
S'PRP'
p1100
sg48
g1079
sg49
I00
sba(issf_api
Word
p1101
(dp1102
g6
I00
sg7
V\u092a\u094d\u0930\u093e\u0935\u0927\u093e\u0928\u094b\u0902
p1103
sg9
(issf_api
FeatureSet
p1104
(dp1105
g12
(dp1106
S'posn'
p1107
S'140'
p1108
sS'name'
p1109
S'\xe0\xa4\xaa\xe0\xa5\x8d\xe0\xa4\xb0\xe0\xa4\xbe\xe0\xa4\xb5\xe0\xa4\xa7\xe0\xa4\xbe\xe0\xa4\xa8\xe0\xa5\x8b\xe0\xa4\x82'
p1110
sS'af'
p1111
S'\xe0\xa4\xaa\xe0\xa5\x8d\xe0\xa4\xb0\xe0\xa4\xbe\xe0\xa4\xb5\xe0\xa4\xa7\xe0\xa4\xbe\xe0\xa4\xa8,n,m,pl,3,o,0_\xe0\xa4\x95\xe0\xa5\x8b,0'
p1112
sS'chunkid'
p1113
S'NP5'
p1114
sS'drel'
p1115
S'k2:VGNF'
p1116
sS'vpos'
p1117
S'vib_2'
p1118
sS'chunktype'
p1119
S'head:NP5'
p1120
ssbsg38
I00
sg39
I00
sg40
Nsg41
Nsg42
I6
sg43
I2
sg44
Nsg45
Nsg46
S'NN'
p1121
sg48
g1104
sg49
I00
sba(issf_api
Word
p1122
(dp1123
g6
I00
sg7
V\u0915\u094b
p1124
sg9
(issf_api
FeatureSet
p1125
(dp1126
g12
(dp1127
S'posn'
p1128
S'150'
p1129
sS'name'
p1130
S'\xe0\xa4\x95\xe0\xa5\x8b'
p1131
sS'drel'
p1132
S'lwg__psp:NP5'
p1133
sS'chunktype'
p1134
S'child:NP5'
p1135
sS'af'
p1136
S'\xe0\xa4\x95\xe0\xa5\x8b,psp,,,,,,'
p1137
ssbsg38
I00
sg39
I00
sg40
Nsg41
Nsg42
I6
sg43
I2
sg44
Nsg45
Nsg46
S'PSP'
p1138
sg48
g1125
sg49
I00
sba(issf_api
Word
p1139
(dp1140
g6
I00
sg7
V\u0932\u0947\u0915\u0930
p1141
sg9
(issf_api
FeatureSet
p1142
(dp1143
g12
(dp1144
S'posn'
p1145
S'160'
p1146
sS'name'
p1147
S'\xe0\xa4\xb2\xe0\xa5\x87\xe0\xa4\x95\xe0\xa4\xb0'
p1148
sS'af'
p1149
S'\xe0\xa4\xb2\xe0\xa5\x87,v,any,any,any,,\xe0\xa4\x95\xe0\xa4\xb0,kara'
p1150
sS'chunkid'
p1151
S'VGNF'
p1152
sS'drel'
p1153
S'vmod:VGF'
p1154
sS'chunktype'
p1155
S'head:VGNF'
p1156
ssbsg38
I00
sg39
I00
sg40
Nsg41
Nsg42
I7
sg43
I2
sg44
Nsg45
Nsg46
S'VM'
p1157
sg48
g1142
sg49
I00
sba(issf_api
Word
p1158
(dp1159
g6
I00
sg7
V\u0938\u0936\u0902\u0915\u093f\u0924
p1160
sg9
(issf_api
FeatureSet
p1161
(dp1162
g12
(dp1163
S'posn'
p1164
S'170'
p1165
sS'name'
p1166
S'\xe0\xa4\xb8\xe0\xa4\xb6\xe0\xa4\x82\xe0\xa4\x95\xe0\xa4\xbf\xe0\xa4\xa4'
p1167
sS'af'
p1168
S'\xe0\xa4\xb8\xe0\xa4\xb6\xe0\xa4\x82\xe0\xa4\x95\xe0\xa4\xbf\xe0\xa4\xa4,adj,any,any,,,,'
p1169
sS'chunkid'
p1170
S'JJP2'
p1171
sS'drel'
p1172
S'k1s:VGF'
p1173
sS'chunktype'
p1174
S'head:JJP2'
p1175
ssbsg38
I00
sg39
I00
sg40
Nsg41
Nsg42
I8
sg43
I2
sg44
Nsg45
Nsg46
S'JJ'
p1176
sg48
g1161
sg49
I00
sba(issf_api
Word
p1177
(dp1178
g6
I00
sg7
V\u0925\u0947
p1179
sg9
(issf_api
FeatureSet
p1180
(dp1181
g12
(dp1182
S'posn'
p1183
S'180'
p1184
sS'name'
p1185
S'\xe0\xa4\xa5\xe0\xa5\x87'
p1186
sS'af'
p1187
S'\xe0\xa4\xa5\xe0\xa4\xbe,v,m,pl,any,,\xe0\xa4\xa5\xe0\xa4\xbe,WA'
p1188
sS'chunkid'
p1189
S'VGF'
p1190
sS'chunktype'
p1191
S'head:VGF'
p1192
sS'voicetype'
p1193
S'active'
p1194
sS'stype'
p1195
S'declarative'
p1196
ssbsg38
I00
sg39
I00
sg40
Nsg41
Nsg42
I9
sg43
I2
sg44
Nsg45
Nsg46
S'VM'
p1197
sg48
g1180
sg49
I00
sba(issf_api
Word
p1198
(dp1199
g6
I00
sg7
V\u0964
p1200
sg9
(issf_api
FeatureSet
p1201
(dp1202
g12
(dp1203
S'posn'
p1204
S'190'
p1205
sS'name'
p1206
S'\xe0\xa5\xa4'
p1207
sS'af'
p1208
S'\xe0\xa5\xa4,punc,,,,,,'
p1209
sS'chunkid'
p1210
S'BLK'
p1211
sS'drel'
p1212
S'rsym:VGF'
p1213
sS'chunktype'
p1214
S'head:BLK'
p1215
ssbsg38
I00
sg39
I00
sg40
Nsg41
Nsg42
I10
sg43
I2
sg44
Nsg45
Nsg46
S'SYM'
p1216
sg48
g1201
sg49
I00
sba(issf_api
Word
p1217
(dp1218
g6
I00
sg7
V\u0932\u0947\u0915\u093f\u0928
p1219
sg9
(issf_api
FeatureSet
p1220
(dp1221
g12
(dp1222
S'posn'
p1223
S'10'
p1224
sS'chunkid'
p1225
S'CCP'
p1226
sS'name'
p1227
S'\xe0\xa4\xb2\xe0\xa5\x87\xe0\xa4\x95\xe0\xa4\xbf\xe0\xa4\xa8'
p1228
sS'chunktype'
p1229
S'head:CCP'
p1230
sS'af'
p1231
S'\xe0\xa4\xb2\xe0\xa5\x87\xe0\xa4\x95\xe0\xa4\xbf\xe0\xa4\xa8,avy,,,,,,'
p1232
ssbsg38
I00
sg39
I00
sg40
Nsg41
Nsg42
I0
sg43
I3
sg44
Nsg45
Nsg46
S'CC'
p1233
sg48
g1220
sg49
I00
sba(issf_api
Word
p1234
(dp1235
g6
I00
sg7
V,
p1236
sg9
(issf_api
FeatureSet
p1237
(dp1238
g12
(dp1239
S'posn'
p1240
S'20'
p1241
sS'name'
p1242
S','
p1243
sS'drel'
p1244
S'rsym:CCP'
p1245
sS'chunktype'
p1246
S'child:CCP'
p1247
sS'af'
p1248
S'COMMA,punc,,,,,,'
p1249
ssbsg38
I00
sg39
I00
sg40
Nsg41
Nsg42
I0
sg43
I3
sg44
Nsg45
Nsg46
S'SYM'
p1250
sg48
g1237
sg49
I00
sba(issf_api
Word
p1251
(dp1252
g6
I00
sg7
V\u092c\u091c\u091f
p1253
sg9
(issf_api
FeatureSet
p1254
(dp1255
g12
(dp1256
S'crefhead'
p1257
S'\xe0\xa4\xac\xe0\xa4\x9c\xe0\xa4\x9f:i8'
p1258
sS'posn'
p1259
S'30'
p1260
sS'name'
p1261
S'\xe0\xa4\xac\xe0\xa4\x9c\xe0\xa4\x9f'
p1262
sS'af'
p1263
S'\xe0\xa4\xac\xe0\xa4\x9c\xe0\xa4\x9f,n,m,sg,3,d,0,0'
p1264
sS'chunkid'
p1265
S'NP'
p1266
sS'creftype'
p1267
S'Coreference-Identity:i7'
p1268
sS'chunktype'
p1269
S'head:NP'
p1270
sS'cref'
p1271
S'i8%1:t4'
p1272
sS'drel'
p1273
S'k1:VGNN'
p1274
ssbsg38
I00
sg39
I00
sg40
Nsg41
Nsg42
I1
sg43
I3
sg44
Nsg45
Nsg46
S'NN'
p1275
sg48
g1254
sg49
I00
sba(issf_api
Word
p1276
(dp1277
g6
I00
sg7
V\u092a\u0947\u0936
p1278
sg9
(issf_api
FeatureSet
p1279
(dp1280
g12
(dp1281
S'posn'
p1282
S'40'
p1283
sS'name'
p1284
S'\xe0\xa4\xaa\xe0\xa5\x87\xe0\xa4\xb6'
p1285
sS'af'
p1286
S'\xe0\xa4\xaa\xe0\xa5\x87\xe0\xa4\xb6,adj,any,any,,,,'
p1287
sS'chunkid'
p1288
S'JJP'
p1289
sS'drel'
p1290
S'pof:VGNN'
p1291
sS'chunktype'
p1292
S'head:JJP'
p1293
ssbsg38
I00
sg39
I00
sg40
Nsg41
Nsg42
I2
sg43
I3
sg44
Nsg45
Nsg46
S'JJ'
p1294
sg48
g1279
sg49
I00
sba(issf_api
Word
p1295
(dp1296
g6
I00
sg7
V\u0939\u094b\u0928\u0947
p1297
sg9
(issf_api
FeatureSet
p1298
(dp1299
g12
(dp1300
S'posn'
p1301
S'50'
p1302
sS'name'
p1303
S'\xe0\xa4\xb9\xe0\xa5\x8b\xe0\xa4\xa8\xe0\xa5\x87'
p1304
sS'af'
p1305
S'\xe0\xa4\xb9\xe0\xa5\x8b,v,any,any,any,o,\xe0\xa4\xa8\xe0\xa4\xbe_\xe0\xa4\xaa\xe0\xa4\xb0,nA'
p1306
sS'chunkid'
p1307
S'VGNN'
p1308
sS'drel'
p1309
S'k7:VGF'
p1310
sS'vpos'
p1311
S'tam_2'
p1312
sS'chunktype'
p1313
S'head:VGNN'
p1314
ssbsg38
I00
sg39
I00
sg40
Nsg41
Nsg42
I3
sg43
I3
sg44
Nsg45
Nsg46
S'VM'
p1315
sg48
g1298
sg49
I00
sba(issf_api
Word
p1316
(dp1317
g6
I00
sg7
V\u092a\u0930
p1318
sg9
(issf_api
FeatureSet
p1319
(dp1320
g12
(dp1321
S'posn'
p1322
S'60'
p1323
sS'name'
p1324
S'\xe0\xa4\xaa\xe0\xa4\xb0'
p1325
sS'drel'
p1326
S'lwg__psp:VGNN'
p1327
sS'chunktype'
p1328
S'child:VGNN'
p1329
sS'af'
p1330
S'\xe0\xa4\xaa\xe0\xa4\xb0,psp,,,,,,'
p1331
ssbsg38
I00
sg39
I00
sg40
Nsg41
Nsg42
I3
sg43
I3
sg44
Nsg45
Nsg46
S'PSP'
p1332
sg48
g1319
sg49
I00
sba(issf_api
Word
p1333
(dp1334
g6
I00
sg7
V\u0938\u094d\u092a\u0937\u094d\u091f
p1335
sg9
(issf_api
FeatureSet
p1336
(dp1337
g12
(dp1338
S'posn'
p1339
S'70'
p1340
sS'name'
p1341
S'\xe0\xa4\xb8\xe0\xa5\x8d\xe0\xa4\xaa\xe0\xa4\xb7\xe0\xa5\x8d\xe0\xa4\x9f'
p1342
sS'af'
p1343
S'\xe0\xa4\xb8\xe0\xa5\x8d\xe0\xa4\xaa\xe0\xa4\xb7\xe0\xa5\x8d\xe0\xa4\x9f,adj,any,any,,,,'
p1344
sS'chunkid'
p1345
S'JJP2'
p1346
sS'drel'
p1347
S'pof:VGF'
p1348
sS'chunktype'
p1349
S'head:JJP2'
p1350
ssbsg38
I00
sg39
I00
sg40
Nsg41
Nsg42
I4
sg43
I3
sg44
Nsg45
Nsg46
S'JJ'
p1351
sg48
g1336
sg49
I00
sba(issf_api
Word
p1352
(dp1353
g6
I00
sg7
V\u0939\u094b
p1354
sg9
(issf_api
FeatureSet
p1355
(dp1356
g12
(dp1357
S'posn'
p1358
S'80'
p1359
sS'name'
p1360
S'\xe0\xa4\xb9\xe0\xa5\x8b'
p1361
sS'af'
p1362
S'\xe0\xa4\xb9\xe0\xa5\x8b,v,m,sg,3,,0_\xe0\xa4\x9c\xe0\xa4\xbe+\xe0\xa4\xaf\xe0\xa4\xbe\xe0\xa5\xa7_\xe0\xa4\xb9\xe0\xa5\x88,0'
p1363
sS'chunkid'
p1364
S'VGF'
p1365
sS'stype'
p1366
S'declarative'
p1367
sS'drel'
p1368
S'ccof:CCP'
p1369
sS'voicetype'
p1370
S'active'
p1371
sS'vpos'
p1372
S'tam_2_3'
p1373
sS'chunktype'
p1374
S'head:VGF'
p1375
ssbsg38
I00
sg39
I00
sg40
Nsg41
Nsg42
I5
sg43
I3
sg44
Nsg45
Nsg46
S'VM'
p1376
sg48
g1355
sg49
I00
sba(issf_api
Word
p1377
(dp1378
g6
I00
sg7
V\u0917\u092f\u093e
p1379
sg9
(issf_api
FeatureSet
p1380
(dp1381
g12
(dp1382
S'posn'
p1383
S'90'
p1384
sS'name'
p1385
S'\xe0\xa4\x97\xe0\xa4\xaf\xe0\xa4\xbe'
p1386
sS'drel'
p1387
S'lwg__vaux:VGF'
p1388
sS'chunktype'
p1389
S'child:VGF'
p1390
sS'af'
p1391
S'\xe0\xa4\x9c\xe0\xa4\xbe,v,m,sg,any,,\xe0\xa4\xaf\xe0\xa4\xbe\xe0\xa5\xa7,yA1'
p1392
ssbsg38
I00
sg39
I00
sg40
Nsg41
Nsg42
I5
sg43
I3
sg44
Nsg45
Nsg46
S'VAUX'
p1393
sg48
g1380
sg49
I00
sba(issf_api
Word
p1394
(dp1395
g6
I00
sg7
V\u0939\u0948
p1396
sg9
(issf_api
FeatureSet
p1397
(dp1398
g12
(dp1399
S'posn'
p1400
S'100'
p1401
sS'name'
p1402
S'\xe0\xa4\xb9\xe0\xa5\x88'
p1403
sS'drel'
p1404
S'lwg__vaux:VGF'
p1405
sS'chunktype'
p1406
S'child:VGF'
p1407
sS'af'
p1408
S'\xe0\xa4\xb9\xe0\xa5\x88,v,any,sg,3,,\xe0\xa4\xb9\xe0\xa5\x88,hE'
p1409
ssbsg38
I00
sg39
I00
sg40
Nsg41
Nsg42
I5
sg43
I3
sg44
Nsg45
Nsg46
S'VAUX'
p1410
sg48
g1397
sg49
I00
sba(issf_api
Word
p1411
(dp1412
g6
I00
sg7
V\u0915\u093f
p1413
sg9
(issf_api
FeatureSet
p1414
(dp1415
g12
(dp1416
S'posn'
p1417
S'110'
p1418
sS'name'
p1419
S'\xe0\xa4\x95\xe0\xa4\xbf'
p1420
sS'af'
p1421
S'\xe0\xa4\x95\xe0\xa4\xbf,avy,,,,,,'
p1422
sS'chunkid'
p1423
S'CCP2'
p1424
sS'drel'
p1425
S'rs:NULL__NP'
p1426
sS'chunktype'
p1427
S'head:CCP2'
p1428
ssbsg38
I00
sg39
I00
sg40
Nsg41
Nsg42
I6
sg43
I3
sg44
Nsg45
Nsg46
S'CC'
p1429
sg48
g1414
sg49
I00
sba(issf_api
Word
p1430
(dp1431
g6
I00
sg7
V\u0915\u092e
p1432
sg9
(issf_api
FeatureSet
p1433
(dp1434
g12
(dp1435
S'posn'
p1436
S'120'
p1437
sS'name'
p1438
S'\xe0\xa4\x95\xe0\xa4\xae'
p1439
sS'af'
p1440
S'\xe0\xa4\x95\xe0\xa4\xae,avy,,,,,,'
p1441
sS'chunkid'
p1442
S'NP2'
p1443
sS'drel'
p1444
S'nmod:NP3'
p1445
sS'chunktype'
p1446
S'head:NP2'
p1447
ssbsg38
I00
sg39
I00
sg40
Nsg41
Nsg42
I7
sg43
I3
sg44
Nsg45
Nsg46
S'QF'
p1448
sg48
g1433
sg49
I00
sba(issf_api
Word
p1449
(dp1450
g6
I00
sg7
V\u0938\u0947
p1451
sg9
(issf_api
FeatureSet
p1452
(dp1453
g12
(dp1454
S'posn'
p1455
S'130'
p1456
sS'name'
p1457
S'\xe0\xa4\xb8\xe0\xa5\x87'
p1458
sS'drel'
p1459
S'lwg__rp:NP2'
p1460
sS'chunktype'
p1461
S'child:NP2'
p1462
sS'af'
p1463
S'\xe0\xa4\xb8\xe0\xa5\x87,avy,,,,,,'
p1464
ssbsg38
I00
sg39
I00
sg40
Nsg41
Nsg42
I7
sg43
I3
sg44
Nsg45
Nsg46
S'RP'
p1465
sg48
g1452
sg49
I00
sba(issf_api
Word
p1466
(dp1467
g6
I00
sg7
V\u0915\u092e
p1468
sg9
(issf_api
FeatureSet
p1469
(dp1470
g12
(dp1471
S'posn'
p1472
S'140'
p1473
sS'name'
p1474
S'\xe0\xa4\x95\xe0\xa4\xae2'
p1475
sS'drel'
p1476
S'nmod__adj:NP2'
p1477
sS'chunktype'
p1478
S'child:NP2'
p1479
sS'af'
p1480
S'\xe0\xa4\x95\xe0\xa4\xae,avy,,,,,,'
p1481
ssbsg38
I00
sg39
I00
sg40
Nsg41
Nsg42
I7
sg43
I3
sg44
Nsg45
Nsg46
S'QF'
p1482
sg48
g1469
sg49
I00
sba(issf_api
Word
p1483
(dp1484
g6
I00
sg7
V\u0936\u0947\u092f\u0930
p1485
sg9
(issf_api
FeatureSet
p1486
(dp1487
g12
(dp1488
S'crefhead'
p1489
S'\xe0\xa4\xb6\xe0\xa5\x87\xe0\xa4\xaf\xe0\xa4\xb0:i10'
p1490
sS'posn'
p1491
S'150'
p1492
sS'name'
p1493
S'\xe0\xa4\xb6\xe0\xa5\x87\xe0\xa4\xaf\xe0\xa4\xb0'
p1494
sS'af'
p1495
S'\xe0\xa4\xb6\xe0\xa5\x87\xe0\xa4\xaf\xe0\xa4\xb0,n,m,sg,3,d,0,0'
p1496
sS'drel'
p1497
S'pof__cn:NP3'
p1498
sS'crefchainhead'
p1499
S'i10:t6'
p1500
sS'chunktype'
p1501
S'child:NP3'
p1502
sS'cref'
p1503
S'i9%0:t5,i10%1:t6'
p1504
ssbsg38
I00
sg39
I00
sg40
Nsg41
Nsg42
I8
sg43
I3
sg44
Nsg45
Nsg46
S'NNC'
p1505
sg48
g1486
sg49
I00
sba(issf_api
Word
p1506
(dp1507
g6
I00
sg7
V\u092c\u093e\u091c\u093c\u093e\u0930
p1508
sg9
(issf_api
FeatureSet
p1509
(dp1510
g12
(dp1511
S'crefhead'
p1512
S'\xe0\xa4\xac\xe0\xa4\xbe\xe0\xa4\x9c\xe0\xa4\xbc\xe0\xa4\xbe\xe0\xa4\xb0:i9'
p1513
sS'posn'
p1514
S'160'
p1515
sS'name'
p1516
S'\xe0\xa4\xac\xe0\xa4\xbe\xe0\xa4\x9c\xe0\xa4\xbc\xe0\xa4\xbe\xe0\xa4\xb0'
p1517
sS'af'
p1518
S'\xe0\xa4\xac\xe0\xa4\xbe\xe0\xa4\x9c\xe0\xa4\xbe\xe0\xa4\xb0,n,m,sg,3,o,0_\xe0\xa4\x95\xe0\xa4\xbe,0'
p1519
sS'chunkid'
p1520
S'NP3'
p1521
sS'chunktype'
p1522
S'head:NP3'
p1523
sS'crefchainhead'
p1524
S'i9:t5'
p1525
sS'vpos'
p1526
S'vib_3'
p1527
sS'cref'
p1528
S'i9%1:t5'
p1529
sS'drel'
p1530
S'r6:NP4'
p1531
ssbsg38
I00
sg39
I00
sg40
Nsg41
Nsg42
I8
sg43
I3
sg44
Nsg45
Nsg46
S'NN'
p1532
sg48
g1509
sg49
I00
sba(issf_api
Word
p1533
(dp1534
g6
I00
sg7
V\u0915\u0947
p1535
sg9
(issf_api
FeatureSet
p1536
(dp1537
g12
(dp1538
S'posn'
p1539
S'170'
p1540
sS'name'
p1541
S'\xe0\xa4\x95\xe0\xa5\x87'
p1542
sS'drel'
p1543
S'lwg__psp:NP3'
p1544
sS'chunktype'
p1545
S'child:NP3'
p1546
sS'af'
p1547
S'\xe0\xa4\x95\xe0\xa4\xbe,psp,m,sg,,o,,'
p1548
ssbsg38
I00
sg39
I00
sg40
Nsg41
Nsg42
I8
sg43
I3
sg44
Nsg45
Nsg46
S'PSP'
p1549
sg48
g1536
sg49
I00
sba(issf_api
Word
p1550
(dp1551
g6
I00
sg7
V\u0926\u0943\u0937\u094d\u091f\u093f\u0915\u094b\u0923
p1552
sg9
(issf_api
FeatureSet
p1553
(dp1554
g12
(dp1555
S'posn'
p1556
S'180'
p1557
sS'name'
p1558
S'\xe0\xa4\xa6\xe0\xa5\x83\xe0\xa4\xb7\xe0\xa5\x8d\xe0\xa4\x9f\xe0\xa4\xbf\xe0\xa4\x95\xe0\xa5\x8b\xe0\xa4\xa3'
p1559
sS'af'
p1560
S'\xe0\xa4\xa6\xe0\xa5\x83\xe0\xa4\xb7\xe0\xa5\x8d\xe0\xa4\x9f\xe0\xa4\xbf\xe0\xa4\x95\xe0\xa5\x8b\xe0\xa4\xa3,n,m,sg,3,o,0_\xe0\xa4\xb8\xe0\xa5\x87,0'
p1561
sS'chunkid'
p1562
S'NP4'
p1563
sS'drel'
p1564
S'vmod:VGF2'
p1565
sS'vpos'
p1566
S'vib_2'
p1567
sS'chunktype'
p1568
S'head:NP4'
p1569
ssbsg38
I00
sg39
I00
sg40
Nsg41
Nsg42
I9
sg43
I3
sg44
Nsg45
Nsg46
S'NN'
p1570
sg48
g1553
sg49
I00
sba(issf_api
Word
p1571
(dp1572
g6
I00
sg7
V\u0938\u0947
p1573
sg9
(issf_api
FeatureSet
p1574
(dp1575
g12
(dp1576
S'posn'
p1577
S'190'
p1578
sS'name'
p1579
S'\xe0\xa4\xb8\xe0\xa5\x872'
p1580
sS'drel'
p1581
S'lwg__psp:NP4'
p1582
sS'chunktype'
p1583
S'child:NP4'
p1584
sS'af'
p1585
S'\xe0\xa4\xb8\xe0\xa5\x87,psp,,,,,,'
p1586
ssbsg38
I00
sg39
I00
sg40
Nsg41
Nsg42
I9
sg43
I3
sg44
Nsg45
Nsg46
S'PSP'
p1587
sg48
g1574
sg49
I00
sba(issf_api
Word
p1588
(dp1589
g6
I00
sg7
V\u0907\u0938\u092e\u0947\u0902
p1590
sg9
(issf_api
FeatureSet
p1591
(dp1592
g12
(dp1593
S'crefhead'
p1594
S'\xe0\xa4\x87\xe0\xa4\xb8\xe0\xa4\xae\xe0\xa5\x87\xe0\xa4\x82:i11'
p1595
sS'posn'
p1596
S'200'
p1597
sS'name'
p1598
S'\xe0\xa4\x87\xe0\xa4\xb8\xe0\xa4\xae\xe0\xa5\x87\xe0\xa4\x82'
p1599
sS'af'
p1600
S'\xe0\xa4\xaf\xe0\xa4\xb9,pn,any,sg,3,o,\xe0\xa4\xae\xe0\xa5\x87\xe0\xa4\x82,meM'
p1601
sS'chunkid'
p1602
S'NP5'
p1603
sS'creftype'
p1604
S'Anaphora-C:i8'
p1605
sS'chunktype'
p1606
S'head:NP5'
p1607
sS'cref'
p1608
S'i11%1:t4'
p1609
sS'drel'
p1610
S'k7:VGF2'
p1611
ssbsg38
I00
sg39
I00
sg40
Nsg41
Nsg42
I10
sg43
I3
sg44
Nsg45
Nsg46
S'PRP'
p1612
sg48
g1591
sg49
I00
sba(issf_api
Word
p1613
(dp1614
g6
I00
sg7
V\u0915\u094b\u0908
p1615
sg9
(issf_api
FeatureSet
p1616
(dp1617
g12
(dp1618
S'crefhead'
p1619
S'\xe0\xa4\x95\xe0\xa5\x8b\xe0\xa4\x88:i12'
p1620
sS'posn'
p1621
S'210'
p1622
sS'name'
p1623
S'\xe0\xa4\x95\xe0\xa5\x8b\xe0\xa4\x88'
p1624
sS'af'
p1625
S'\xe0\xa4\x95\xe0\xa5\x8b\xe0\xa4\x88,pn,any,sg,3,d,0,0'
p1626
sS'creftype'
p1627
S'anaphora-?:i12'
p1628
sS'chunktype'
p1629
S'child:NP6'
p1630
sS'crefchainhead'
p1631
S'i12:t7'
p1632
sS'cref'
p1633
S'i12%1:t7'
p1634
sS'drel'
p1635
S'nmod__adj:NP6'
p1636
ssbsg38
I00
sg39
I00
sg40
Nsg41
Nsg42
I11
sg43
I3
sg44
Nsg45
Nsg46
S'PRP'
p1637
sg48
g1616
sg49
I00
sba(issf_api
Word
p1638
(dp1639
g6
I00
sg7
V\u0935\u093f\u0936\u0947\u0937
p1640
sg9
(issf_api
FeatureSet
p1641
(dp1642
g12
(dp1643
S'posn'
p1644
S'220'
p1645
sS'name'
p1646
S'\xe0\xa4\xb5\xe0\xa4\xbf\xe0\xa4\xb6\xe0\xa5\x87\xe0\xa4\xb7'
p1647
sS'drel'
p1648
S'nmod__adj:NP6'
p1649
sS'chunktype'
p1650
S'child:NP6'
p1651
sS'af'
p1652
S'\xe0\xa4\xb5\xe0\xa4\xbf\xe0\xa4\xb6\xe0\xa5\x87\xe0\xa4\xb7,adj,any,any,,d,,'
p1653
ssbsg38
I00
sg39
I00
sg40
Nsg41
Nsg42
I11
sg43
I3
sg44
Nsg45
Nsg46
S'JJ'
p1654
sg48
g1641
sg49
I00
sba(issf_api
Word
p1655
(dp1656
g6
I00
sg7
V\u0928\u0915\u093e\u0930\u093e\u0924\u094d\u092e\u0915
p1657
sg9
(issf_api
FeatureSet
p1658
(dp1659
g12
(dp1660
S'posn'
p1661
S'230'
p1662
sS'name'
p1663
S'\xe0\xa4\xa8\xe0\xa4\x95\xe0\xa4\xbe\xe0\xa4\xb0\xe0\xa4\xbe\xe0\xa4\xa4\xe0\xa5\x8d\xe0\xa4\xae\xe0\xa4\x95'
p1664
sS'drel'
p1665
S'nmod__adj:NP6'
p1666
sS'chunktype'
p1667
S'child:NP6'
p1668
sS'af'
p1669
S'\xe0\xa4\xa8\xe0\xa4\x95\xe0\xa4\xbe\xe0\xa4\xb0\xe0\xa4\xbe\xe0\xa4\xa4\xe0\xa5\x8d\xe0\xa4\xae\xe0\xa4\x95,adj,any,any,,d,,'
p1670
ssbsg38
I00
sg39
I00
sg40
Nsg41
Nsg42
I11
sg43
I3
sg44
Nsg45
Nsg46
S'JJ'
p1671
sg48
g1658
sg49
I00
sba(issf_api
Word
p1672
(dp1673
g6
I00
sg7
V\u092a\u094d\u0930\u093e\u0935\u0927\u093e\u0928
p1674
sg9
(issf_api
FeatureSet
p1675
(dp1676
g12
(dp1677
S'posn'
p1678
S'240'
p1679
sS'name'
p1680
S'\xe0\xa4\xaa\xe0\xa5\x8d\xe0\xa4\xb0\xe0\xa4\xbe\xe0\xa4\xb5\xe0\xa4\xa7\xe0\xa4\xbe\xe0\xa4\xa8'
p1681
sS'af'
p1682
S'\xe0\xa4\xaa\xe0\xa5\x8d\xe0\xa4\xb0\xe0\xa4\xbe\xe0\xa4\xb5\xe0\xa4\xa7\xe0\xa4\xbe\xe0\xa4\xa8,n,m,sg,3,d,0,0'
p1683
sS'chunkid'
p1684
S'NP6'
p1685
sS'drel'
p1686
S'k1:VGF2'
p1687
sS'chunktype'
p1688
S'head:NP6'
p1689
ssbsg38
I00
sg39
I00
sg40
Nsg41
Nsg42
I11
sg43
I3
sg44
Nsg45
Nsg46
S'NN'
p1690
sg48
g1675
sg49
I00
sba(issf_api
Word
p1691
(dp1692
g6
I00
sg7
V\u0928\u0939\u0940\u0902
p1693
sg9
(issf_api
FeatureSet
p1694
(dp1695
g12
(dp1696
S'posn'
p1697
S'250'
p1698
sS'name'
p1699
S'\xe0\xa4\xa8\xe0\xa4\xb9\xe0\xa5\x80\xe0\xa4\x82'
p1700
sS'drel'
p1701
S'lwg__neg:VGF2'
p1702
sS'chunktype'
p1703
S'child:VGF2'
p1704
sS'af'
p1705
S'\xe0\xa4\xa8\xe0\xa4\xb9\xe0\xa5\x80\xe0\xa4\x82,avy,,,,,,'
p1706
ssbsg38
I00
sg39
I00
sg40
Nsg41
Nsg42
I12
sg43
I3
sg44
Nsg45
Nsg46
S'NEG'
p1707
sg48
g1694
sg49
I00
sba(issf_api
Word
p1708
(dp1709
g6
I00
sg7
V\u0939\u0948
p1710
sg9
(issf_api
FeatureSet
p1711
(dp1712
g12
(dp1713
S'posn'
p1714
S'260'
p1715
sS'name'
p1716
S'\xe0\xa4\xb9\xe0\xa5\x882'
p1717
sS'af'
p1718
S'\xe0\xa4\xb9\xe0\xa5\x88,v,any,sg,3,,\xe0\xa4\xb9\xe0\xa5\x88,hE'
p1719
sS'chunkid'
p1720
S'VGF2'
p1721
sS'stype'
p1722
S'declarative'
p1723
sS'drel'
p1724
S'ccof:CCP2'
p1725
sS'voicetype'
p1726
S'active'
p1727
sS'chunktype'
p1728
S'head:VGF2'
p1729
ssbsg38
I00
sg39
I00
sg40
Nsg41
Nsg42
I12
sg43
I3
sg44
Nsg45
Nsg46
S'VM'
p1730
sg48
g1711
sg49
I00
sba(issf_api
Word
p1731
(dp1732
g6
I00
sg7
V\u0964
p1733
sg9
(issf_api
FeatureSet
p1734
(dp1735
g12
(dp1736
S'posn'
p1737
S'270'
p1738
sS'name'
p1739
S'\xe0\xa5\xa4'
p1740
sS'af'
p1741
S'\xe0\xa5\xa4,punc,,,,,,'
p1742
sS'chunkid'
p1743
S'BLK'
p1744
sS'drel'
p1745
S'rsym:CCP'
p1746
sS'chunktype'
p1747
S'head:BLK'
p1748
ssbsg38
I00
sg39
I00
sg40
Nsg41
Nsg42
I13
sg43
I3
sg44
Nsg45
Nsg46
S'SYM'
p1749
sg48
g1734
sg49
I00
sba(issf_api
Word
p1750
(dp1751
g6
I00
sg7
V\u0907\u0938\u0915\u0947
p1752
sg9
(issf_api
FeatureSet
p1753
(dp1754
g12
(dp1755
S'crefhead'
p1756
S'\xe0\xa4\x87\xe0\xa4\xb8\xe0\xa4\x95\xe0\xa5\x87:i13'
p1757
sS'posn'
p1758
S'10'
p1759
sS'name'
p1760
S'\xe0\xa4\x87\xe0\xa4\xb8\xe0\xa4\x95\xe0\xa5\x87'
p1761
sS'af'
p1762
S'\xe0\xa4\xaf\xe0\xa4\xb9,pn,any,sg,3,o,0_\xe0\xa4\xae\xe0\xa4\xa6\xe0\xa5\x8d\xe0\xa4\xa6\xe0\xa5\x87\xe0\xa4\xa8\xe0\xa4\x9c\xe0\xa4\xbc\xe0\xa4\xb0,ke'
p1763
sS'chunkid'
p1764
S'NP'
p1765
sS'creftype'
p1766
S'Anaphora-C:i11'
p1767
sS'chunktype'
p1768
S'head:NP'
p1769
sS'vpos'
p1770
S'vib_2'
p1771
sS'cref'
p1772
S'i13%1:t4'
p1773
sS'drel'
p1774
S'k7a:VGF'
p1775
ssbsg38
I00
sg39
I00
sg40
Nsg41
Nsg42
I0
sg43
I4
sg44
Nsg45
Nsg46
S'PRP'
p1776
sg48
g1753
sg49
I00
sba(issf_api
Word
p1777
(dp1778
g6
I00
sg7
V\u092e\u0926\u094d\u0926\u0947\u0928\u091c\u093c\u0930
p1779
sg9
(issf_api
FeatureSet
p1780
(dp1781
g12
(dp1782
S'posn'
p1783
S'20'
p1784
sS'name'
p1785
S'\xe0\xa4\xae\xe0\xa4\xa6\xe0\xa5\x8d\xe0\xa4\xa6\xe0\xa5\x87\xe0\xa4\xa8\xe0\xa4\x9c\xe0\xa4\xbc\xe0\xa4\xb0'
p1786
sS'drel'
p1787
S'lwg__psp:NP'
p1788
sS'chunktype'
p1789
S'child:NP'
p1790
sS'af'
p1791
S'\xe0\xa4\xae\xe0\xa4\xa6\xe0\xa5\x8d\xe0\xa4\xa6\xe0\xa5\x87\xe0\xa4\xa8\xe0\xa4\x9c\xe0\xa4\xbc\xe0\xa4\xb0,psp,,,,,,'
p1792
ssbsg38
I00
sg39
I00
sg40
Nsg41
Nsg42
I0
sg43
I4
sg44
Nsg45
Nsg46
S'PSP'
p1793
sg48
g1780
sg49
I00
sba(issf_api
Word
p1794
(dp1795
g6
I00
sg7
V\u092c\u093e\u091c\u093e\u0930
p1796
sg9
(issf_api
FeatureSet
p1797
(dp1798
g12
(dp1799
S'crefhead'
p1800
S'\xe0\xa4\xac\xe0\xa4\xbe\xe0\xa4\x9c\xe0\xa4\xbe\xe0\xa4\xb0:i14'
p1801
sS'posn'
p1802
S'30'
p1803
sS'name'
p1804
S'\xe0\xa4\xac\xe0\xa4\xbe\xe0\xa4\x9c\xe0\xa4\xbe\xe0\xa4\xb0'
p1805
sS'af'
p1806
S'\xe0\xa4\xac\xe0\xa4\xbe\xe0\xa4\x9c\xe0\xa4\xbe\xe0\xa4\xb0,n,m,sg,3,o,0_\xe0\xa4\xb8\xe0\xa5\x87,0'
p1807
sS'chunkid'
p1808
S'NP2'
p1809
sS'creftype'
p1810
S'Coreference-Identity:i9'
p1811
sS'chunktype'
p1812
S'head:NP2'
p1813
sS'vpos'
p1814
S'vib_2'
p1815
sS'cref'
p1816
S'i14%1:t5,i15%0:t8'
p1817
sS'drel'
p1818
S'k5:VGNN'
p1819
ssbsg38
I00
sg39
I00
sg40
Nsg41
Nsg42
I1
sg43
I4
sg44
Nsg45
Nsg46
S'NN'
p1820
sg48
g1797
sg49
I00
sba(issf_api
Word
p1821
(dp1822
g6
I00
sg7
V\u0938\u0947
p1823
sg9
(issf_api
FeatureSet
p1824
(dp1825
g12
(dp1826
S'posn'
p1827
S'40'
p1828
sS'name'
p1829
S'\xe0\xa4\xb8\xe0\xa5\x87'
p1830
sS'af'
p1831
S'\xe0\xa4\xb8\xe0\xa5\x87,psp,,,,,,'
p1832
sS'drel'
p1833
S'lwg__psp:NP2'
p1834
sS'chunktype'
p1835
S'child:NP2'
p1836
sS'cref'
p1837
S'i15%0:t8'
p1838
ssbsg38
I00
sg39
I00
sg40
Nsg41
Nsg42
I1
sg43
I4
sg44
Nsg45
Nsg46
S'PSP'
p1839
sg48
g1824
sg49
I00
sba(issf_api
Word
p1840
(dp1841
g6
I00
sg7
V\u0939\u092b\u094d\u0924\u094b\u0902
p1842
sg9
(issf_api
FeatureSet
p1843
(dp1844
g12
(dp1845
S'posn'
p1846
S'50'
p1847
sS'name'
p1848
S'\xe0\xa4\xb9\xe0\xa4\xab\xe0\xa5\x8d\xe0\xa4\xa4\xe0\xa5\x8b\xe0\xa4\x82'
p1849
sS'af'
p1850
S'\xe0\xa4\xb9\xe0\xa4\xab\xe0\xa5\x8d\xe0\xa4\xa4\xe0\xa4\xbe,n,m,pl,3,o,0_\xe0\xa4\xa4\xe0\xa4\x95,0'
p1851
sS'chunkid'
p1852
S'NP3'
p1853
sS'drel'
p1854
S'k7t:VGNN'
p1855
sS'chunktype'
p1856
S'head:NP3'
p1857
sS'vpos'
p1858
S'vib_2'
p1859
sS'cref'
p1860
S'i15%0:t8'
p1861
ssbsg38
I00
sg39
I00
sg40
Nsg41
Nsg42
I2
sg43
I4
sg44
Nsg45
Nsg46
S'NN'
p1862
sg48
g1843
sg49
I00
sba(issf_api
Word
p1863
(dp1864
g6
I00
sg7
V\u0924\u0915
p1865
sg9
(issf_api
FeatureSet
p1866
(dp1867
g12
(dp1868
S'posn'
p1869
S'60'
p1870
sS'name'
p1871
S'\xe0\xa4\xa4\xe0\xa4\x95'
p1872
sS'af'
p1873
S'\xe0\xa4\xa4\xe0\xa4\x95,psp,,,,,,'
p1874
sS'drel'
p1875
S'lwg__psp:NP3'
p1876
sS'chunktype'
p1877
S'child:NP3'
p1878
sS'cref'
p1879
S'i15%0:t8'
p1880
ssbsg38
I00
sg39
I00
sg40
Nsg41
Nsg42
I2
sg43
I4
sg44
Nsg45
Nsg46
S'PSP'
p1881
sg48
g1866
sg49
I00
sba(issf_api
Word
p1882
(dp1883
g6
I00
sg7
V\u0926\u0942\u0930
p1884
sg9
(issf_api
FeatureSet
p1885
(dp1886
g12
(dp1887
S'posn'
p1888
S'70'
p1889
sS'name'
p1890
S'\xe0\xa4\xa6\xe0\xa5\x82\xe0\xa4\xb0'
p1891
sS'af'
p1892
S'\xe0\xa4\xa6\xe0\xa5\x82\xe0\xa4\xb0,nst,m,sg,3,d,,'
p1893
sS'chunkid'
p1894
S'NP4'
p1895
sS'drel'
p1896
S'k7:VGNN'
p1897
sS'chunktype'
p1898
S'head:NP4'
p1899
sS'cref'
p1900
S'i15%0:t8'
p1901
ssbsg38
I00
sg39
I00
sg40
Nsg41
Nsg42
I3
sg43
I4
sg44
Nsg45
Nsg46
S'NST'
p1902
sg48
g1885
sg49
I00
sba(issf_api
Word
p1903
(dp1904
g6
I00
sg7
V\u0930\u0939\u0928\u0947
p1905
sg9
(issf_api
FeatureSet
p1906
(dp1907
g12
(dp1908
S'posn'
p1909
S'80'
p1910
sS'name'
p1911
S'\xe0\xa4\xb0\xe0\xa4\xb9\xe0\xa4\xa8\xe0\xa5\x87'
p1912
sS'af'
p1913
S'\xe0\xa4\xb0\xe0\xa4\xb9,v,any,pl,any,o,\xe0\xa4\xa8\xe0\xa4\xbe_\xe0\xa4\xb5\xe0\xa4\xbe\xe0\xa4\xb2\xe0\xa4\xbe,nA'
p1914
sS'chunkid'
p1915
S'VGNN'
p1916
sS'drel'
p1917
S'nmod:NP5'
p1918
sS'chunktype'
p1919
S'head:VGNN'
p1920
sS'vpos'
p1921
S'tam_2'
p1922
sS'cref'
p1923
S'i15%0:t8'
p1924
ssbsg38
I00
sg39
I00
sg40
Nsg41
Nsg42
I4
sg43
I4
sg44
Nsg45
Nsg46
S'VM'
p1925
sg48
g1906
sg49
I00
sba(issf_api
Word
p1926
(dp1927
g6
I00
sg7
V\u0935\u093e\u0932\u0947
p1928
sg9
(issf_api
FeatureSet
p1929
(dp1930
g12
(dp1931
S'posn'
p1932
S'90'
p1933
sS'name'
p1934
S'\xe0\xa4\xb5\xe0\xa4\xbe\xe0\xa4\xb2\xe0\xa5\x87'
p1935
sS'af'
p1936
S'\xe0\xa4\xb5\xe0\xa4\xbe\xe0\xa4\xb2\xe0\xa4\xbe,psp,m,pl,,d,,'
p1937
sS'drel'
p1938
S'lwg__psp:VGNN'
p1939
sS'chunktype'
p1940
S'child:VGNN'
p1941
sS'cref'
p1942
S'i15%0:t8'
p1943
ssbsg38
I00
sg39
I00
sg40
Nsg41
Nsg42
I4
sg43
I4
sg44
Nsg45
Nsg46
S'PSP'
p1944
sg48
g1929
sg49
I00
sba(issf_api
Word
p1945
(dp1946
g6
I00
sg7
V\u0918\u0930\u0947\u0932\u0942
p1947
sg9
(issf_api
FeatureSet
p1948
(dp1949
g12
(dp1950
S'posn'
p1951
S'100'
p1952
sS'name'
p1953
S'\xe0\xa4\x98\xe0\xa4\xb0\xe0\xa5\x87\xe0\xa4\xb2\xe0\xa5\x82'
p1954
sS'af'
p1955
S'\xe0\xa4\x98\xe0\xa4\xb0\xe0\xa5\x87\xe0\xa4\xb2\xe0\xa5\x82,adj,any,any,,o,,'
p1956
sS'chunkid'
p1957
S'JJP'
p1958
sS'drel'
p1959
S'ccof:CCP'
p1960
sS'chunktype'
p1961
S'head:JJP'
p1962
sS'cref'
p1963
S'i16%0:t1,i15%0:t8'
p1964
ssbsg38
I00
sg39
I00
sg40
Nsg41
Nsg42
I5
sg43
I4
sg44
Nsg45
Nsg46
S'JJ'
p1965
sg48
g1948
sg49
I00
sba(issf_api
Word
p1966
(dp1967
g6
I00
sg7
V\u0935
p1968
sg9
(issf_api
FeatureSet
p1969
(dp1970
g12
(dp1971
S'posn'
p1972
S'110'
p1973
sS'name'
p1974
S'\xe0\xa4\xb5'
p1975
sS'af'
p1976
S'\xe0\xa4\xb5,avy,,,,,,'
p1977
sS'chunkid'
p1978
S'CCP'
p1979
sS'drel'
p1980
S'nmod:NP5'
p1981
sS'chunktype'
p1982
S'head:CCP'
p1983
sS'cref'
p1984
S'i16%0:t1,i15%0:t8'
p1985
ssbsg38
I00
sg39
I00
sg40
Nsg41
Nsg42
I6
sg43
I4
sg44
Nsg45
Nsg46
S'CC'
p1986
sg48
g1969
sg49
I00
sba(issf_api
Word
p1987
(dp1988
g6
I00
sg7
V\u0935\u093f\u0926\u0947\u0936\u0940
p1989
sg9
(issf_api
FeatureSet
p1990
(dp1991
g12
(dp1992
S'posn'
p1993
S'120'
p1994
sS'name'
p1995
S'\xe0\xa4\xb5\xe0\xa4\xbf\xe0\xa4\xa6\xe0\xa5\x87\xe0\xa4\xb6\xe0\xa5\x80'
p1996
sS'af'
p1997
S'\xe0\xa4\xb5\xe0\xa4\xbf\xe0\xa4\xa6\xe0\xa5\x87\xe0\xa4\xb6\xe0\xa5\x80,adj,any,any,,o,,'
p1998
sS'chunkid'
p1999
S'JJP2'
p2000
sS'drel'
p2001
S'ccof:CCP'
p2002
sS'chunktype'
p2003
S'head:JJP2'
p2004
sS'cref'
p2005
S'i16%0:t1,i15%0:t8'
p2006
ssbsg38
I00
sg39
I00
sg40
Nsg41
Nsg42
I7
sg43
I4
sg44
Nsg45
Nsg46
S'JJ'
p2007
sg48
g1990
sg49
I00
sba(issf_api
Word
p2008
(dp2009
g6
I00
sg7
V\u092b\u0902\u0921
p2010
sg9
(issf_api
FeatureSet
p2011
(dp2012
g12
(dp2013
S'crefhead'
p2014
S'\xe0\xa4\xab\xe0\xa4\x82\xe0\xa4\xa1:i16'
p2015
sS'posn'
p2016
S'130'
p2017
sS'name'
p2018
S'\xe0\xa4\xab\xe0\xa4\x82\xe0\xa4\xa1'
p2019
sS'af'
p2020
S'\xe0\xa4\xab\xe0\xa4\x82\xe0\xa4\xa1,n,m,sg,3,d,0,0'
p2021
sS'creftype'
p2022
S'Coreference-PartOf-WMain:i6'
p2023
sS'drel'
p2024
S'pof__cn:NP5'
p2025
sS'chunktype'
p2026
S'child:NP5'
p2027
sS'cref'
p2028
S'i16%1:t1,i15%0:t8'
p2029
ssbsg38
I00
sg39
I00
sg40
Nsg41
Nsg42
I8
sg43
I4
sg44
Nsg45
Nsg46
S'NNC'
p2030
sg48
g2011
sg49
I00
sba(issf_api
Word
p2031
(dp2032
g6
I00
sg7
V\u0936\u0947\u092f\u0930\u094b\u0902
p2033
sg9
(issf_api
FeatureSet
p2034
(dp2035
g12
(dp2036
S'crefhead'
p2037
S'\xe0\xa4\xb6\xe0\xa5\x87\xe0\xa4\xaf\xe0\xa4\xb0\xe0\xa5\x8b\xe0\xa4\x82:i17'
p2038
sS'posn'
p2039
S'140'
p2040
sS'name'
p2041
S'\xe0\xa4\xb6\xe0\xa5\x87\xe0\xa4\xaf\xe0\xa4\xb0\xe0\xa5\x8b\xe0\xa4\x82'
p2042
sS'af'
p2043
S'\xe0\xa4\xb6\xe0\xa5\x87\xe0\xa4\xaf\xe0\xa4\xb0,n,m,pl,3,o,0_\xe0\xa4\xae\xe0\xa5\x87\xe0\xa4\x82,0'
p2044
sS'chunkid'
p2045
S'NP5'
p2046
sS'creftype'
p2047
S'Coreference-Identity:i10'
p2048
sS'chunktype'
p2049
S'head:NP5'
p2050
sS'vpos'
p2051
S'vib_3'
p2052
sS'cref'
p2053
S'i17%1:t6,i15%0:t8'
p2054
sS'drel'
p2055
S'k7:VGF'
p2056
ssbsg38
I00
sg39
I00
sg40
Nsg41
Nsg42
I8
sg43
I4
sg44
Nsg45
Nsg46
S'NN'
p2057
sg48
g2034
sg49
I00
sba(issf_api
Word
p2058
(dp2059
g6
I00
sg7
V\u092e\u0947\u0902
p2060
sg9
(issf_api
FeatureSet
p2061
(dp2062
g12
(dp2063
S'posn'
p2064
S'150'
p2065
sS'name'
p2066
S'\xe0\xa4\xae\xe0\xa5\x87\xe0\xa4\x82'
p2067
sS'af'
p2068
S'\xe0\xa4\xae\xe0\xa5\x87\xe0\xa4\x82,psp,,,,,,'
p2069
sS'drel'
p2070
S'lwg__psp:NP5'
p2071
sS'chunktype'
p2072
S'child:NP5'
p2073
sS'cref'
p2074
S'i15%0:t8'
p2075
ssbsg38
I00
sg39
I00
sg40
Nsg41
Nsg42
I8
sg43
I4
sg44
Nsg45
Nsg46
S'PSP'
p2076
sg48
g2061
sg49
I00
sba(issf_api
Word
p2077
(dp2078
g6
I00
sg7
V\u092d\u093e\u0930\u0940
p2079
sg9
(issf_api
FeatureSet
p2080
(dp2081
g12
(dp2082
S'posn'
p2083
S'160'
p2084
sS'name'
p2085
S'\xe0\xa4\xad\xe0\xa4\xbe\xe0\xa4\xb0\xe0\xa5\x80'
p2086
sS'af'
p2087
S'\xe0\xa4\xad\xe0\xa4\xbe\xe0\xa4\xb0\xe0\xa5\x80,adj,any,any,,d,,'
p2088
sS'drel'
p2089
S'nmod__adj:NP6'
p2090
sS'chunktype'
p2091
S'child:NP6'
p2092
sS'cref'
p2093
S'i15%0:t8'
p2094
ssbsg38
I00
sg39
I00
sg40
Nsg41
Nsg42
I9
sg43
I4
sg44
Nsg45
Nsg46
S'JJ'
p2095
sg48
g2080
sg49
I00
sba(issf_api
Word
p2096
(dp2097
g6
I00
sg7
V\u0928\u093f\u0935\u0947\u0936
p2098
sg9
(issf_api
FeatureSet
p2099
(dp2100
g12
(dp2101
S'posn'
p2102
S'170'
p2103
sS'name'
p2104
S'\xe0\xa4\xa8\xe0\xa4\xbf\xe0\xa4\xb5\xe0\xa5\x87\xe0\xa4\xb6'
p2105
sS'af'
p2106
S'\xe0\xa4\xa8\xe0\xa4\xbf\xe0\xa4\xb5\xe0\xa5\x87\xe0\xa4\xb6,n,m,sg,3,d,0,0'
p2107
sS'chunkid'
p2108
S'NP6'
p2109
sS'drel'
p2110
S'pof:VGF'
p2111
sS'chunktype'
p2112
S'head:NP6'
p2113
sS'cref'
p2114
S'i15%0:t8'
p2115
ssbsg38
I00
sg39
I00
sg40
Nsg41
Nsg42
I9
sg43
I4
sg44
Nsg45
Nsg46
S'NN'
p2116
sg48
g2099
sg49
I00
sba(issf_api
Word
p2117
(dp2118
g6
I00
sg7
V\u0915\u0930
p2119
sg9
(issf_api
FeatureSet
p2120
(dp2121
g12
(dp2122
S'crefhead'
p2123
S'\xe0\xa4\x95\xe0\xa4\xb0:i15'
p2124
sS'posn'
p2125
S'180'
p2126
sS'name'
p2127
S'\xe0\xa4\x95\xe0\xa4\xb0'
p2128
sS'af'
p2129
S'\xe0\xa4\x95\xe0\xa4\xb0,v,m,pl,3,,0_\xe0\xa4\xb0\xe0\xa4\xb9+\xe0\xa4\xaf\xe0\xa4\xbe_\xe0\xa4\xb9\xe0\xa5\x88,0'
p2130
sS'chunkid'
p2131
S'VGF'
p2132
sS'stype'
p2133
S'declarative'
p2134
sS'chunktype'
p2135
S'head:VGF'
p2136
sS'crefchainhead'
p2137
S'i15:t8'
p2138
sS'voicetype'
p2139
S'active'
p2140
sS'vpos'
p2141
S'tam_2_3'
p2142
sS'cref'
p2143
S'i15%0:t8'
p2144
ssbsg38
I00
sg39
I00
sg40
Nsg41
Nsg42
I10
sg43
I4
sg44
Nsg45
Nsg46
S'VM'
p2145
sg48
g2120
sg49
I00
sba(issf_api
Word
p2146
(dp2147
g6
I00
sg7
V\u0930\u0939\u0947
p2148
sg9
(issf_api
FeatureSet
p2149
(dp2150
g12
(dp2151
S'posn'
p2152
S'190'
p2153
sS'name'
p2154
S'\xe0\xa4\xb0\xe0\xa4\xb9\xe0\xa5\x87'
p2155
sS'af'
p2156
S'\xe0\xa4\xb0\xe0\xa4\xb9,v,m,pl,any,,\xe0\xa4\xaf\xe0\xa4\xbe,yA'
p2157
sS'drel'
p2158
S'lwg__vaux:VGF'
p2159
sS'chunktype'
p2160
S'child:VGF'
p2161
sS'cref'
p2162
S'i15%0:t8'
p2163
ssbsg38
I00
sg39
I00
sg40
Nsg41
Nsg42
I10
sg43
I4
sg44
Nsg45
Nsg46
S'VAUX'
p2164
sg48
g2149
sg49
I00
sba(issf_api
Word
p2165
(dp2166
g6
I00
sg7
V\u0939\u0948\u0902
p2167
sg9
(issf_api
FeatureSet
p2168
(dp2169
g12
(dp2170
S'posn'
p2171
S'200'
p2172
sS'name'
p2173
S'\xe0\xa4\xb9\xe0\xa5\x88\xe0\xa4\x82'
p2174
sS'af'
p2175
S'\xe0\xa4\xb9\xe0\xa5\x88,v,any,pl,3,,\xe0\xa4\xb9\xe0\xa5\x88,hE'
p2176
sS'drel'
p2177
S'lwg__vaux:VGF'
p2178
sS'chunktype'
p2179
S'child:VGF'
p2180
sS'cref'
p2181
S'i15%1:t8'
p2182
ssbsg38
I00
sg39
I00
sg40
Nsg41
Nsg42
I10
sg43
I4
sg44
Nsg45
Nsg46
S'VAUX'
p2183
sg48
g2168
sg49
I00
sba(issf_api
Word
p2184
(dp2185
g6
I00
sg7
V\u0964
p2186
sg9
(issf_api
FeatureSet
p2187
(dp2188
g12
(dp2189
S'posn'
p2190
S'210'
p2191
sS'name'
p2192
S'\xe0\xa5\xa4'
p2193
sS'af'
p2194
S'\xe0\xa5\xa4,punc,,,,,,'
p2195
sS'chunkid'
p2196
S'BLK'
p2197
sS'drel'
p2198
S'rsym:VGF'
p2199
sS'chunktype'
p2200
S'head:BLK'
p2201
ssbsg38
I00
sg39
I00
sg40
Nsg41
Nsg42
I11
sg43
I4
sg44
Nsg45
Nsg46
S'SYM'
p2202
sg48
g2187
sg49
I00
sba(issf_api
Word
p2203
(dp2204
g6
I00
sg7
V\u0907\u0938\u0940
p2205
sg9
(issf_api
FeatureSet
p2206
(dp2207
g12
(dp2208
S'posn'
p2209
S'10'
p2210
sS'name'
p2211
S'\xe0\xa4\x87\xe0\xa4\xb8\xe0\xa5\x80'
p2212
sS'af'
p2213
S'\xe0\xa4\xaf\xe0\xa4\xb9,pn,any,sg,3,o,,'
p2214
sS'drel'
p2215
S'nmod__adj:NP'
p2216
sS'chunktype'
p2217
S'child:NP'
p2218
sS'cref'
p2219
S'i18%0:t8'
p2220
ssbsg38
I00
sg39
I00
sg40
Nsg41
Nsg42
I0
sg43
I5
sg44
Nsg45
Nsg46
S'DEM'
p2221
sg48
g2206
sg49
I00
sba(issf_api
Word
p2222
(dp2223
g6
I00
sg7
V\u0935\u091c\u0939
p2224
sg9
(issf_api
FeatureSet
p2225
(dp2226
g12
(dp2227
S'crefhead'
p2228
S'\xe0\xa4\xb5\xe0\xa4\x9c\xe0\xa4\xb9:i18'
p2229
sS'posn'
p2230
S'20'
p2231
sS'name'
p2232
S'\xe0\xa4\xb5\xe0\xa4\x9c\xe0\xa4\xb9'
p2233
sS'af'
p2234
S'\xe0\xa4\xb5\xe0\xa4\x9c\xe0\xa4\xb9,n,f,sg,3,o,0_\xe0\xa4\xb8\xe0\xa5\x87,0'
p2235
sS'chunkid'
p2236
S'NP'
p2237
sS'creftype'
p2238
S'Coreference-Noun-Noun:i15'
p2239
sS'chunktype'
p2240
S'head:NP'
p2241
sS'vpos'
p2242
S'vib_3'
p2243
sS'cref'
p2244
S'i18%1:t8'
p2245
sS'drel'
p2246
S'rh:VGF'
p2247
ssbsg38
I00
sg39
I00
sg40
Nsg41
Nsg42
I0
sg43
I5
sg44
Nsg45
Nsg46
S'NN'
p2248
sg48
g2225
sg49
I00
sba(issf_api
Word
p2249
(dp2250
g6
I00
sg7
V\u0938\u0947
p2251
sg9
(issf_api
FeatureSet
p2252
(dp2253
g12
(dp2254
S'posn'
p2255
S'30'
p2256
sS'name'
p2257
S'\xe0\xa4\xb8\xe0\xa5\x87'
p2258
sS'drel'
p2259
S'lwg__psp:NP'
p2260
sS'chunktype'
p2261
S'child:NP'
p2262
sS'af'
p2263
S'\xe0\xa4\xb8\xe0\xa5\x87,psp,,,,,,'
p2264
ssbsg38
I00
sg39
I00
sg40
Nsg41
Nsg42
I0
sg43
I5
sg44
Nsg45
Nsg46
S'PSP'
p2265
sg48
g2252
sg49
I00
sba(issf_api
Word
p2266
(dp2267
g6
I00
sg7
V\u0936\u0947\u092f\u0930
p2268
sg9
(issf_api
FeatureSet
p2269
(dp2270
g12
(dp2271
S'crefhead'
p2272
S'\xe0\xa4\xb6\xe0\xa5\x87\xe0\xa4\xaf\xe0\xa4\xb0:i20'
p2273
sS'posn'
p2274
S'40'
p2275
sS'name'
p2276
S'\xe0\xa4\xb6\xe0\xa5\x87\xe0\xa4\xaf\xe0\xa4\xb0'
p2277
sS'af'
p2278
S'\xe0\xa4\xb6\xe0\xa5\x87\xe0\xa4\xaf\xe0\xa4\xb0,n,m,sg,3,d,0,0'
p2279
sS'creftype'
p2280
S'Coreference-Identity:i17'
p2281
sS'drel'
p2282
S'pof__cn:NP2'
p2283
sS'chunktype'
p2284
S'child:NP2'
p2285
sS'cref'
p2286
S'i19%0:t5,i20%1:t6'
p2287
ssbsg38
I00
sg39
I00
sg40
Nsg41
Nsg42
I1
sg43
I5
sg44
Nsg45
Nsg46
S'NNC'
p2288
sg48
g2269
sg49
I00
sba(issf_api
Word
p2289
(dp2290
g6
I00
sg7
V\u092c\u093e\u091c\u093c\u093e\u0930\u094b\u0902
p2291
sg9
(issf_api
FeatureSet
p2292
(dp2293
g12
(dp2294
S'crefhead'
p2295
S'\xe0\xa4\xac\xe0\xa4\xbe\xe0\xa4\x9c\xe0\xa4\xbc\xe0\xa4\xbe\xe0\xa4\xb0\xe0\xa5\x8b\xe0\xa4\x82:i19'
p2296
sS'posn'
p2297
S'50'
p2298
sS'name'
p2299
S'\xe0\xa4\xac\xe0\xa4\xbe\xe0\xa4\x9c\xe0\xa4\xbc\xe0\xa4\xbe\xe0\xa4\xb0\xe0\xa5\x8b\xe0\xa4\x82'
p2300
sS'af'
p2301
S'\xe0\xa4\xac\xe0\xa4\xbe\xe0\xa4\x9c\xe0\xa4\xbe\xe0\xa4\xb0,n,m,pl,3,o,0_\xe0\xa4\xae\xe0\xa5\x87\xe0\xa4\x82,0'
p2302
sS'chunkid'
p2303
S'NP2'
p2304
sS'creftype'
p2305
S'Coreference-Identity:i14'
p2306
sS'chunktype'
p2307
S'head:NP2'
p2308
sS'vpos'
p2309
S'vib_3'
p2310
sS'cref'
p2311
S'i19%1:t5'
p2312
sS'drel'
p2313
S'k7:VGF'
p2314
ssbsg38
I00
sg39
I00
sg40
Nsg41
Nsg42
I1
sg43
I5
sg44
Nsg45
Nsg46
S'NN'
p2315
sg48
g2292
sg49
I00
sba(issf_api
Word
p2316
(dp2317
g6
I00
sg7
V\u092e\u0947\u0902
p2318
sg9
(issf_api
FeatureSet
p2319
(dp2320
g12
(dp2321
S'posn'
p2322
S'60'
p2323
sS'name'
p2324
S'\xe0\xa4\xae\xe0\xa5\x87\xe0\xa4\x82'
p2325
sS'drel'
p2326
S'lwg__psp:NP2'
p2327
sS'chunktype'
p2328
S'child:NP2'
p2329
sS'af'
p2330
S'\xe0\xa4\xae\xe0\xa5\x87\xe0\xa4\x82,psp,,,,,,'
p2331
ssbsg38
I00
sg39
I00
sg40
Nsg41
Nsg42
I1
sg43
I5
sg44
Nsg45
Nsg46
S'PSP'
p2332
sg48
g2319
sg49
I00
sba(issf_api
Word
p2333
(dp2334
g6
I00
sg7
V\u0932\u0917\u093e\u0924\u093e\u0930
p2335
sg9
(issf_api
FeatureSet
p2336
(dp2337
g12
(dp2338
S'posn'
p2339
S'70'
p2340
sS'name'
p2341
S'\xe0\xa4\xb2\xe0\xa4\x97\xe0\xa4\xbe\xe0\xa4\xa4\xe0\xa4\xbe\xe0\xa4\xb0'
p2342
sS'af'
p2343
S'\xe0\xa4\xb2\xe0\xa4\x97\xe0\xa4\xbe\xe0\xa4\xa4\xe0\xa4\xbe\xe0\xa4\xb0,adv,,,,,,'
p2344
sS'chunkid'
p2345
S'RBP'
p2346
sS'drel'
p2347
S'adv:VGF'
p2348
sS'chunktype'
p2349
S'head:RBP'
p2350
ssbsg38
I00
sg39
I00
sg40
Nsg41
Nsg42
I2
sg43
I5
sg44
Nsg45
Nsg46
S'RB'
p2351
sg48
g2336
sg49
I00
sba(issf_api
Word
p2352
(dp2353
g6
I00
sg7
V\u0924\u0947\u091c\u0940
p2354
sg9
(issf_api
FeatureSet
p2355
(dp2356
g12
(dp2357
S'posn'
p2358
S'80'
p2359
sS'name'
p2360
S'\xe0\xa4\xa4\xe0\xa5\x87\xe0\xa4\x9c\xe0\xa5\x80'
p2361
sS'af'
p2362
S'\xe0\xa4\xa4\xe0\xa5\x87\xe0\xa4\x9c\xe0\xa5\x80,n,f,sg,3,d,0,0'
p2363
sS'chunkid'
p2364
S'NP3'
p2365
sS'drel'
p2366
S'k2:VGF'
p2367
sS'chunktype'
p2368
S'head:NP3'
p2369
ssbsg38
I00
sg39
I00
sg40
Nsg41
Nsg42
I3
sg43
I5
sg44
Nsg45
Nsg46
S'NN'
p2370
sg48
g2355
sg49
I00
sba(issf_api
Word
p2371
(dp2372
g6
I00
sg7
V\u0926\u0930\u094d\u091c
p2373
sg9
(issf_api
FeatureSet
p2374
(dp2375
g12
(dp2376
S'posn'
p2377
S'90'
p2378
sS'name'
p2379
S'\xe0\xa4\xa6\xe0\xa4\xb0\xe0\xa5\x8d\xe0\xa4\x9c'
p2380
sS'af'
p2381
S'\xe0\xa4\xa6\xe0\xa4\xb0\xe0\xa5\x8d\xe0\xa4\x9c,adj,any,any,,,,'
p2382
sS'chunkid'
p2383
S'JJP'
p2384
sS'drel'
p2385
S'pof:VGF'
p2386
sS'chunktype'
p2387
S'head:JJP'
p2388
ssbsg38
I00
sg39
I00
sg40
Nsg41
Nsg42
I4
sg43
I5
sg44
Nsg45
Nsg46
S'JJ'
p2389
sg48
g2374
sg49
I00
sba(issf_api
Word
p2390
(dp2391
g6
I00
sg7
V\u0915\u0940
p2392
sg9
(issf_api
FeatureSet
p2393
(dp2394
g12
(dp2395
S'posn'
p2396
S'100'
p2397
sS'name'
p2398
S'\xe0\xa4\x95\xe0\xa5\x80'
p2399
sS'af'
p2400
S'\xe0\xa4\x95\xe0\xa4\xb0,v,f,sg,3,,\xe0\xa4\xaf\xe0\xa4\xbe_\xe0\xa4\x9c\xe0\xa4\xbe_\xe0\xa4\xb0\xe0\xa4\xb9+\xe0\xa4\xaf\xe0\xa4\xbe_\xe0\xa4\xb9\xe0\xa5\x88,yA'
p2401
sS'chunkid'
p2402
S'VGF'
p2403
sS'chunktype'
p2404
S'head:VGF'
p2405
sS'voicetype'
p2406
S'passive'
p2407
sS'vpos'
p2408
S'tam_2_3_4'
p2409
sS'stype'
p2410
S'declarative'
p2411
ssbsg38
I00
sg39
I00
sg40
Nsg41
Nsg42
I5
sg43
I5
sg44
Nsg45
Nsg46
S'VM'
p2412
sg48
g2393
sg49
I00
sba(issf_api
Word
p2413
(dp2414
g6
I00
sg7
V\u091c\u093e
p2415
sg9
(issf_api
FeatureSet
p2416
(dp2417
g12
(dp2418
S'posn'
p2419
S'110'
p2420
sS'name'
p2421
S'\xe0\xa4\x9c\xe0\xa4\xbe'
p2422
sS'drel'
p2423
S'lwg__vaux:VGF'
p2424
sS'chunktype'
p2425
S'child:VGF'
p2426
sS'af'
p2427
S'\xe0\xa4\x9c\xe0\xa4\xbe,v,any,any,any,,0,0'
p2428
ssbsg38
I00
sg39
I00
sg40
Nsg41
Nsg42
I5
sg43
I5
sg44
Nsg45
Nsg46
S'VAUX'
p2429
sg48
g2416
sg49
I00
sba(issf_api
Word
p2430
(dp2431
g6
I00
sg7
V\u0930\u0939\u0940
p2432
sg9
(issf_api
FeatureSet
p2433
(dp2434
g12
(dp2435
S'posn'
p2436
S'120'
p2437
sS'name'
p2438
S'\xe0\xa4\xb0\xe0\xa4\xb9\xe0\xa5\x80'
p2439
sS'drel'
p2440
S'lwg__vaux:VGF'
p2441
sS'chunktype'
p2442
S'child:VGF'
p2443
sS'af'
p2444
S'\xe0\xa4\xb0\xe0\xa4\xb9,v,f,sg,any,,\xe0\xa4\xaf\xe0\xa4\xbe,yA'
p2445
ssbsg38
I00
sg39
I00
sg40
Nsg41
Nsg42
I5
sg43
I5
sg44
Nsg45
Nsg46
S'VAUX'
p2446
sg48
g2433
sg49
I00
sba(issf_api
Word
p2447
(dp2448
g6
I00
sg7
V\u0939\u0948
p2449
sg9
(issf_api
FeatureSet
p2450
(dp2451
g12
(dp2452
S'posn'
p2453
S'130'
p2454
sS'name'
p2455
S'\xe0\xa4\xb9\xe0\xa5\x88'
p2456
sS'drel'
p2457
S'lwg__vaux:VGF'
p2458
sS'chunktype'
p2459
S'child:VGF'
p2460
sS'af'
p2461
S'\xe0\xa4\xb9\xe0\xa5\x88,v,any,sg,3,,\xe0\xa4\xb9\xe0\xa5\x88,hE'
p2462
ssbsg38
I00
sg39
I00
sg40
Nsg41
Nsg42
I5
sg43
I5
sg44
Nsg45
Nsg46
S'VAUX'
p2463
sg48
g2450
sg49
I00
sba(issf_api
Word
p2464
(dp2465
g6
I00
sg7
V\u0964
p2466
sg9
(issf_api
FeatureSet
p2467
(dp2468
g12
(dp2469
S'posn'
p2470
S'140'
p2471
sS'name'
p2472
S'\xe0\xa5\xa4'
p2473
sS'af'
p2474
S'\xe0\xa5\xa4,punc,,,,,,'
p2475
sS'chunkid'
p2476
S'BLK'
p2477
sS'drel'
p2478
S'rsym:VGF'
p2479
sS'chunktype'
p2480
S'head:BLK'
p2481
ssbsg38
I00
sg39
I00
sg40
Nsg41
Nsg42
I6
sg43
I5
sg44
Nsg45
Nsg46
S'SYM'
p2482
sg48
g2467
sg49
I00
sba(issf_api
Word
p2483
(dp2484
g6
I00
sg7
V\u0918\u0930\u0947\u0932\u0942
p2485
sg9
(issf_api
FeatureSet
p2486
(dp2487
g12
(dp2488
S'posn'
p2489
S'10'
p2490
sS'name'
p2491
S'\xe0\xa4\x98\xe0\xa4\xb0\xe0\xa5\x87\xe0\xa4\xb2\xe0\xa5\x82'
p2492
sS'af'
p2493
S'\xe0\xa4\x98\xe0\xa4\xb0\xe0\xa5\x87\xe0\xa4\xb2\xe0\xa5\x82,adj,any,any,,o,,'
p2494
sS'chunkid'
p2495
S'JJP'
p2496
sS'drel'
p2497
S'ccof:CCP'
p2498
sS'chunktype'
p2499
S'head:JJP'
p2500
sS'cref'
p2501
S'i21%0:t1'
p2502
ssbsg38
I00
sg39
I00
sg40
Nsg41
Nsg42
I0
sg43
I6
sg44
Nsg45
Nsg46
S'JJ'
p2503
sg48
g2486
sg49
I00
sba(issf_api
Word
p2504
(dp2505
g6
I00
sg7
V\u0935
p2506
sg9
(issf_api
FeatureSet
p2507
(dp2508
g12
(dp2509
S'posn'
p2510
S'20'
p2511
sS'name'
p2512
S'\xe0\xa4\xb5'
p2513
sS'af'
p2514
S'\xe0\xa4\xb5,avy,,,,,,'
p2515
sS'chunkid'
p2516
S'CCP'
p2517
sS'drel'
p2518
S'nmod:NP'
p2519
sS'chunktype'
p2520
S'head:CCP'
p2521
sS'cref'
p2522
S'i21%0:t1'
p2523
ssbsg38
I00
sg39
I00
sg40
Nsg41
Nsg42
I1
sg43
I6
sg44
Nsg45
Nsg46
S'CC'
p2524
sg48
g2507
sg49
I00
sba(issf_api
Word
p2525
(dp2526
g6
I00
sg7
V\u0935\u093f\u0926\u0947\u0936\u0940
p2527
sg9
(issf_api
FeatureSet
p2528
(dp2529
g12
(dp2530
S'posn'
p2531
S'30'
p2532
sS'name'
p2533
S'\xe0\xa4\xb5\xe0\xa4\xbf\xe0\xa4\xa6\xe0\xa5\x87\xe0\xa4\xb6\xe0\xa5\x80'
p2534
sS'af'
p2535
S'\xe0\xa4\xb5\xe0\xa4\xbf\xe0\xa4\xa6\xe0\xa5\x87\xe0\xa4\xb6\xe0\xa5\x80,adj,any,any,,o,,'
p2536
sS'chunkid'
p2537
S'JJP2'
p2538
sS'drel'
p2539
S'ccof:CCP'
p2540
sS'chunktype'
p2541
S'head:JJP2'
p2542
sS'cref'
p2543
S'i21%0:t1'
p2544
ssbsg38
I00
sg39
I00
sg40
Nsg41
Nsg42
I2
sg43
I6
sg44
Nsg45
Nsg46
S'JJ'
p2545
sg48
g2528
sg49
I00
sba(issf_api
Word
p2546
(dp2547
g6
I00
sg7
V\u092b\u0902\u0921\u094b\u0902
p2548
sg9
(issf_api
FeatureSet
p2549
(dp2550
g12
(dp2551
S'crefhead'
p2552
S'\xe0\xa4\xab\xe0\xa4\x82\xe0\xa4\xa1\xe0\xa5\x8b\xe0\xa4\x82:i21'
p2553
sS'posn'
p2554
S'40'
p2555
sS'name'
p2556
S'\xe0\xa4\xab\xe0\xa4\x82\xe0\xa4\xa1\xe0\xa5\x8b\xe0\xa4\x82'
p2557
sS'af'
p2558
S'\xe0\xa4\xab\xe0\xa4\x82\xe0\xa4\xa1,n,m,pl,3,o,0_\xe0\xa4\x95\xe0\xa4\xbe,0'
p2559
sS'chunkid'
p2560
S'NP'
p2561
sS'creftype'
p2562
S'Coreference-Identity:i16'
p2563
sS'chunktype'
p2564
S'head:NP'
p2565
sS'vpos'
p2566
S'vib_2'
p2567
sS'cref'
p2568
S'i21%1:t1'
p2569
sS'drel'
p2570
S'r6:NP2'
p2571
ssbsg38
I00
sg39
I00
sg40
Nsg41
Nsg42
I3
sg43
I6
sg44
Nsg45
Nsg46
S'NN'
p2572
sg48
g2549
sg49
I00
sba(issf_api
Word
p2573
(dp2574
g6
I00
sg7
V\u0915\u093e
p2575
sg9
(issf_api
FeatureSet
p2576
(dp2577
g12
(dp2578
S'posn'
p2579
S'50'
p2580
sS'name'
p2581
S'\xe0\xa4\x95\xe0\xa4\xbe'
p2582
sS'drel'
p2583
S'lwg__psp:NP'
p2584
sS'chunktype'
p2585
S'child:NP'
p2586
sS'af'
p2587
S'\xe0\xa4\x95\xe0\xa4\xbe,psp,m,sg,,d,,'
p2588
ssbsg38
I00
sg39
I00
sg40
Nsg41
Nsg42
I3
sg43
I6
sg44
Nsg45
Nsg46
S'PSP'
p2589
sg48
g2576
sg49
I00
sba(issf_api
Word
p2590
(dp2591
g6
I00
sg7
V\u0930\u0941\u0916
p2592
sg9
(issf_api
FeatureSet
p2593
(dp2594
g12
(dp2595
S'posn'
p2596
S'60'
p2597
sS'name'
p2598
S'\xe0\xa4\xb0\xe0\xa5\x81\xe0\xa4\x96'
p2599
sS'af'
p2600
S'\xe0\xa4\xb0\xe0\xa5\x81\xe0\xa4\x96,n,m,sg,3,d,0,0'
p2601
sS'chunkid'
p2602
S'NP2'
p2603
sS'drel'
p2604
S'k2:VGNF'
p2605
sS'chunktype'
p2606
S'head:NP2'
p2607
ssbsg38
I00
sg39
I00
sg40
Nsg41
Nsg42
I4
sg43
I6
sg44
Nsg45
Nsg46
S'NN'
p2608
sg48
g2593
sg49
I00
sba(issf_api
Word
p2609
(dp2610
g6
I00
sg7
V\u092d\u093e\u0902\u092a\u0924\u0947
p2611
sg9
(issf_api
FeatureSet
p2612
(dp2613
g12
(dp2614
S'posn'
p2615
S'70'
p2616
sS'name'
p2617
S'\xe0\xa4\xad\xe0\xa4\xbe\xe0\xa4\x82\xe0\xa4\xaa\xe0\xa4\xa4\xe0\xa5\x87'
p2618
sS'af'
p2619
S'\xe0\xa4\xad\xe0\xa4\xbe\xe0\xa4\x82\xe0\xa4\xaa,v,m,pl,any,,\xe0\xa4\xa4\xe0\xa4\xbe_\xe0\xa4\xb9\xe0\xa5\x8b+\xe0\xa4\xaf\xe0\xa4\xbe,wA'
p2620
sS'chunkid'
p2621
S'VGNF'
p2622
sS'drel'
p2623
S'nmod__k1inv:NP3'
p2624
sS'vpos'
p2625
S'tam_2'
p2626
sS'chunktype'
p2627
S'head:VGNF'
p2628
ssbsg38
I00
sg39
I00
sg40
Nsg41
Nsg42
I5
sg43
I6
sg44
Nsg45
Nsg46
S'VM'
p2629
sg48
g2612
sg49
I00
sba(issf_api
Word
p2630
(dp2631
g6
I00
sg7
V\u0939\u0941\u090f
p2632
sg9
(issf_api
FeatureSet
p2633
(dp2634
g12
(dp2635
S'posn'
p2636
S'80'
p2637
sS'name'
p2638
S'\xe0\xa4\xb9\xe0\xa5\x81\xe0\xa4\x8f'
p2639
sS'drel'
p2640
S'lwg__vaux:VGNF'
p2641
sS'chunktype'
p2642
S'child:VGNF'
p2643
sS'af'
p2644
S'\xe0\xa4\xb9\xe0\xa5\x8b,v,m,pl,any,,\xe0\xa4\xaf\xe0\xa4\xbe,yA'
p2645
ssbsg38
I00
sg39
I00
sg40
Nsg41
Nsg42
I5
sg43
I6
sg44
Nsg45
Nsg46
S'VAUX'
p2646
sg48
g2633
sg49
I00
sba(issf_api
Word
p2647
(dp2648
g6
I00
sg7
V\u091b\u094b\u091f\u0947
p2649
sg9
(issf_api
FeatureSet
p2650
(dp2651
g12
(dp2652
S'posn'
p2653
S'90'
p2654
sS'name'
p2655
S'\xe0\xa4\x9b\xe0\xa5\x8b\xe0\xa4\x9f\xe0\xa5\x87'
p2656
sS'drel'
p2657
S'nmod__adj:NP3'
p2658
sS'chunktype'
p2659
S'child:NP3'
p2660
sS'af'
p2661
S'\xe0\xa4\x9b\xe0\xa5\x8b\xe0\xa4\x9f\xe0\xa4\xbe,adj,m,pl,,o,,'
p2662
ssbsg38
I00
sg39
I00
sg40
Nsg41
Nsg42
I6
sg43
I6
sg44
Nsg45
Nsg46
S'JJ'
p2663
sg48
g2650
sg49
I00
sba(issf_api
Word
p2664
(dp2665
g6
I00
sg7
V\u0928\u093f\u0935\u0947\u0936\u0915\u094b\u0902
p2666
sg9
(issf_api
FeatureSet
p2667
(dp2668
g12
(dp2669
S'posn'
p2670
S'100'
p2671
sS'name'
p2672
S'\xe0\xa4\xa8\xe0\xa4\xbf\xe0\xa4\xb5\xe0\xa5\x87\xe0\xa4\xb6\xe0\xa4\x95\xe0\xa5\x8b\xe0\xa4\x82'
p2673
sS'af'
p2674
S'\xe0\xa4\xa8\xe0\xa4\xbf\xe0\xa4\xb5\xe0\xa5\x87\xe0\xa4\xb6\xe0\xa4\x95,n,m,pl,3,o,0_\xe0\xa4\xa8\xe0\xa5\x87,0'
p2675
sS'chunkid'
p2676
S'NP3'
p2677
sS'drel'
p2678
S'k1:VGF'
p2679
sS'vpos'
p2680
S'vib_3_RP'
p2681
sS'chunktype'
p2682
S'head:NP3'
p2683
ssbsg38
I00
sg39
I00
sg40
Nsg41
Nsg42
I6
sg43
I6
sg44
Nsg45
Nsg46
S'NN'
p2684
sg48
g2667
sg49
I00
sba(issf_api
Word
p2685
(dp2686
g6
I00
sg7
V\u0928\u0947
p2687
sg9
(issf_api
FeatureSet
p2688
(dp2689
g12
(dp2690
S'posn'
p2691
S'110'
p2692
sS'name'
p2693
S'\xe0\xa4\xa8\xe0\xa5\x87'
p2694
sS'drel'
p2695
S'lwg__psp:NP3'
p2696
sS'chunktype'
p2697
S'child:NP3'
p2698
sS'af'
p2699
S'\xe0\xa4\xa8\xe0\xa5\x87,psp,,,,,,'
p2700
ssbsg38
I00
sg39
I00
sg40
Nsg41
Nsg42
I6
sg43
I6
sg44
Nsg45
Nsg46
S'PSP'
p2701
sg48
g2688
sg49
I00
sba(issf_api
Word
p2702
(dp2703
g6
I00
sg7
V\u092d\u0940
p2704
sg9
(issf_api
FeatureSet
p2705
(dp2706
g12
(dp2707
S'posn'
p2708
S'120'
p2709
sS'name'
p2710
S'\xe0\xa4\xad\xe0\xa5\x80'
p2711
sS'drel'
p2712
S'lwg__rp:NP3'
p2713
sS'chunktype'
p2714
S'child:NP3'
p2715
sS'af'
p2716
S'\xe0\xa4\xad\xe0\xa5\x80,avy,,,,,,'
p2717
ssbsg38
I00
sg39
I00
sg40
Nsg41
Nsg42
I6
sg43
I6
sg44
Nsg45
Nsg46
S'RP'
p2718
sg48
g2705
sg49
I00
sba(issf_api
Word
p2719
(dp2720
g6
I00
sg7
V\u0916\u093c\u0930\u0940\u0926\u093e\u0930\u0940
p2721
sg9
(issf_api
FeatureSet
p2722
(dp2723
g12
(dp2724
S'posn'
p2725
S'130'
p2726
sS'name'
p2727
S'\xe0\xa4\x96\xe0\xa4\xbc\xe0\xa4\xb0\xe0\xa5\x80\xe0\xa4\xa6\xe0\xa4\xbe\xe0\xa4\xb0\xe0\xa5\x80'
p2728
sS'af'
p2729
S'\xe0\xa4\x96\xe0\xa4\xb0\xe0\xa5\x80\xe0\xa4\xa6\xe0\xa4\xbe\xe0\xa4\xb0\xe0\xa5\x80,n,f,sg,3,d,0,0'
p2730
sS'chunkid'
p2731
S'NP4'
p2732
sS'drel'
p2733
S'k2:VGF'
p2734
sS'chunktype'
p2735
S'head:NP4'
p2736
ssbsg38
I00
sg39
I00
sg40
Nsg41
Nsg42
I7
sg43
I6
sg44
Nsg45
Nsg46
S'NN'
p2737
sg48
g2722
sg49
I00
sba(issf_api
Word
p2738
(dp2739
g6
I00
sg7
V\u092c\u0922\u093c\u093e
p2740
sg9
(issf_api
FeatureSet
p2741
(dp2742
g12
(dp2743
S'posn'
p2744
S'140'
p2745
sS'name'
p2746
S'\xe0\xa4\xac\xe0\xa4\xa2\xe0\xa4\xbc\xe0\xa4\xbe'
p2747
sS'af'
p2748
S'\xe0\xa4\xac\xe0\xa4\xa2\xe0\xa4\xbc\xe0\xa4\xbe,v,any,sg,any,,0_\xe0\xa4\xa6\xe0\xa5\x87+\xe0\xa4\xaf\xe0\xa4\xbe,0'
p2749
sS'chunkid'
p2750
S'VGF'
p2751
sS'chunktype'
p2752
S'head:VGF'
p2753
sS'voicetype'
p2754
S'active'
p2755
sS'vpos'
p2756
S'tam_2'
p2757
sS'stype'
p2758
S'declarative'
p2759
ssbsg38
I00
sg39
I00
sg40
Nsg41
Nsg42
I8
sg43
I6
sg44
Nsg45
Nsg46
S'VM'
p2760
sg48
g2741
sg49
I00
sba(issf_api
Word
p2761
(dp2762
g6
I00
sg7
V\u0926\u0940
p2763
sg9
(issf_api
FeatureSet
p2764
(dp2765
g12
(dp2766
S'posn'
p2767
S'150'
p2768
sS'name'
p2769
S'\xe0\xa4\xa6\xe0\xa5\x80'
p2770
sS'drel'
p2771
S'lwg__vaux:VGF'
p2772
sS'chunktype'
p2773
S'child:VGF'
p2774
sS'af'
p2775
S'\xe0\xa4\xa6\xe0\xa5\x87,v,f,sg,any,,\xe0\xa4\xaf\xe0\xa4\xbe,yA'
p2776
ssbsg38
I00
sg39
I00
sg40
Nsg41
Nsg42
I8
sg43
I6
sg44
Nsg45
Nsg46
S'VAUX'
p2777
sg48
g2764
sg49
I00
sba(issf_api
Word
p2778
(dp2779
g6
I00
sg7
V\u0964
p2780
sg9
(issf_api
FeatureSet
p2781
(dp2782
g12
(dp2783
S'posn'
p2784
S'160'
p2785
sS'name'
p2786
S'\xe0\xa5\xa4'
p2787
sS'af'
p2788
S'\xe0\xa5\xa4,punc,,,,,,'
p2789
sS'chunkid'
p2790
S'BLK'
p2791
sS'drel'
p2792
S'rsym:VGF'
p2793
sS'chunktype'
p2794
S'head:BLK'
p2795
ssbsg38
I00
sg39
I00
sg40
Nsg41
Nsg42
I9
sg43
I6
sg44
Nsg45
Nsg46
S'SYM'
p2796
sg48
g2781
sg49
I00
sba(issf_api
Word
p2797
(dp2798
g6
I00
sg7
V\u091a\u094c\u0924\u0930\u092b\u093e
p2799
sg9
(issf_api
FeatureSet
p2800
(dp2801
g12
(dp2802
S'posn'
p2803
S'10'
p2804
sS'name'
p2805
S'\xe0\xa4\x9a\xe0\xa5\x8c\xe0\xa4\xa4\xe0\xa4\xb0\xe0\xa4\xab\xe0\xa4\xbe'
p2806
sS'af'
p2807
S'\xe0\xa4\x9a\xe0\xa5\x8c\xe0\xa4\xa4\xe0\xa4\xb0\xe0\xa4\xab\xe0\xa4\xbe,adj,any,any,,o,,'
p2808
sS'drel'
p2809
S'nmod__adj:NP'
p2810
sS'chunktype'
p2811
S'child:NP'
p2812
sS'cref'
p2813
S'i22%0:t2'
p2814
ssbsg38
I00
sg39
I00
sg40
Nsg41
Nsg42
I0
sg43
I7
sg44
Nsg45
Nsg46
S'JJ'
p2815
sg48
g2800
sg49
I00
sba(issf_api
Word
p2816
(dp2817
g6
I00
sg7
V\u0932\u093f\u0935\u093e\u0932\u0940
p2818
sg9
(issf_api
FeatureSet
p2819
(dp2820
g12
(dp2821
S'crefhead'
p2822
S'\xe0\xa4\xb2\xe0\xa4\xbf\xe0\xa4\xb5\xe0\xa4\xbe\xe0\xa4\xb2\xe0\xa5\x80:i22'
p2823
sS'posn'
p2824
S'20'
p2825
sS'name'
p2826
S'\xe0\xa4\xb2\xe0\xa4\xbf\xe0\xa4\xb5\xe0\xa4\xbe\xe0\xa4\xb2\xe0\xa5\x80'
p2827
sS'af'
p2828
S'\xe0\xa4\xb2\xe0\xa4\xbf\xe0\xa4\xb5\xe0\xa4\xbe\xe0\xa4\xb2\xe0\xa5\x80,n,f,sg,3,o,0_\xe0\xa4\x95\xe0\xa5\x87_\xe0\xa4\x9a\xe0\xa4\xb2\xe0\xa4\xa4\xe0\xa5\x87,0'
p2829
sS'chunkid'
p2830
S'NP'
p2831
sS'creftype'
p2832
S'Coreference-Identity:i2'
p2833
sS'chunktype'
p2834
S'head:NP'
p2835
sS'vpos'
p2836
S'vib_3_4'
p2837
sS'cref'
p2838
S'i22%1:t2'
p2839
sS'drel'
p2840
S'rh:VGF'
p2841
ssbsg38
I00
sg39
I00
sg40
Nsg41
Nsg42
I0
sg43
I7
sg44
Nsg45
Nsg46
S'NN'
p2842
sg48
g2819
sg49
I00
sba(issf_api
Word
p2843
(dp2844
g6
I00
sg7
V\u0915\u0947
p2845
sg9
(issf_api
FeatureSet
p2846
(dp2847
g12
(dp2848
S'posn'
p2849
S'30'
p2850
sS'name'
p2851
S'\xe0\xa4\x95\xe0\xa5\x87'
p2852
sS'drel'
p2853
S'lwg__psp:NP'
p2854
sS'chunktype'
p2855
S'child:NP'
p2856
sS'af'
p2857
S'\xe0\xa4\x95\xe0\xa5\x87,psp,,,,,,'
p2858
ssbsg38
I00
sg39
I00
sg40
Nsg41
Nsg42
I0
sg43
I7
sg44
Nsg45
Nsg46
S'PSP'
p2859
sg48
g2846
sg49
I00
sba(issf_api
Word
p2860
(dp2861
g6
I00
sg7
V\u091a\u0932\u0924\u0947
p2862
sg9
(issf_api
FeatureSet
p2863
(dp2864
g12
(dp2865
S'posn'
p2866
S'40'
p2867
sS'name'
p2868
S'\xe0\xa4\x9a\xe0\xa4\xb2\xe0\xa4\xa4\xe0\xa5\x87'
p2869
sS'drel'
p2870
S'lwg__psp:NP'
p2871
sS'chunktype'
p2872
S'child:NP'
p2873
sS'af'
p2874
S'\xe0\xa4\x9a\xe0\xa4\xb2\xe0\xa4\xa4\xe0\xa5\x87,psp,,,,,,'
p2875
ssbsg38
I00
sg39
I00
sg40
Nsg41
Nsg42
I0
sg43
I7
sg44
Nsg45
Nsg46
S'PSP'
p2876
sg48
g2863
sg49
I00
sba(issf_api
Word
p2877
(dp2878
g6
I00
sg7
V\u0924\u0915\u093c\u0930\u0940\u092c\u0928
p2879
sg9
(issf_api
FeatureSet
p2880
(dp2881
g12
(dp2882
S'posn'
p2883
S'50'
p2884
sS'name'
p2885
S'\xe0\xa4\xa4\xe0\xa4\x95\xe0\xa4\xbc\xe0\xa4\xb0\xe0\xa5\x80\xe0\xa4\xac\xe0\xa4\xa8'
p2886
sS'drel'
p2887
S'lwg__rp:NP2'
p2888
sS'chunktype'
p2889
S'child:NP2'
p2890
sS'af'
p2891
S'\xe0\xa4\xa4\xe0\xa4\x95\xe0\xa4\xbc\xe0\xa4\xb0\xe0\xa5\x80\xe0\xa4\xac\xe0\xa4\xa8,avy,,,,,,'
p2892
ssbsg38
I00
sg39
I00
sg40
Nsg41
Nsg42
I1
sg43
I7
sg44
Nsg45
Nsg46
S'RP'
p2893
sg48
g2880
sg49
I00
sba(issf_api
Word
p2894
(dp2895
g6
I00
sg7
V\u0938\u092d\u0940
p2896
sg9
(issf_api
FeatureSet
p2897
(dp2898
g12
(dp2899
S'posn'
p2900
S'60'
p2901
sS'name'
p2902
S'\xe0\xa4\xb8\xe0\xa4\xad\xe0\xa5\x80'
p2903
sS'af'
p2904
S'\xe0\xa4\xb8\xe0\xa4\xad\xe0\xa5\x80,avy,,,,,,'
p2905
sS'acrefmod'
p2906
S'm2%0:i23'
p2907
sS'drel'
p2908
S'nmod__adj:NP2'
p2909
sS'chunktype'
p2910
S'child:NP2'
p2911
ssbsg38
I00
sg39
I00
sg40
Nsg41
Nsg42
I1
sg43
I7
sg44
Nsg45
Nsg46
S'QF'
p2912
sg48
g2897
sg49
I00
sba(issf_api
Word
p2913
(dp2914
g6
I00
sg7
V\u0915\u094d\u0937\u0947\u0924\u094d\u0930\u094b\u0902
p2915
sg9
(issf_api
FeatureSet
p2916
(dp2917
g12
(dp2918
S'posn'
p2919
S'70'
p2920
sS'name'
p2921
S'\xe0\xa4\x95\xe0\xa5\x8d\xe0\xa4\xb7\xe0\xa5\x87\xe0\xa4\xa4\xe0\xa5\x8d\xe0\xa4\xb0\xe0\xa5\x8b\xe0\xa4\x82'
p2922
sS'af'
p2923
S'\xe0\xa4\x95\xe0\xa5\x8d\xe0\xa4\xb7\xe0\xa5\x87\xe0\xa4\xa4\xe0\xa5\x8d\xe0\xa4\xb0,n,m,pl,3,o,0_\xe0\xa4\x95\xe0\xa4\xbe,0'
p2924
sS'acrefmodhead'
p2925
S'\xe0\xa4\x95\xe0\xa5\x8d\xe0\xa4\xb7\xe0\xa5\x87\xe0\xa4\xa4\xe0\xa5\x8d\xe0\xa4\xb0\xe0\xa5\x8b\xe0\xa4\x82:m2'
p2926
sS'chunkid'
p2927
S'NP2'
p2928
sS'acrefmod'
p2929
S'm2%1:i23'
p2930
sS'drel'
p2931
S'r6:NP3'
p2932
sS'vpos'
p2933
S'vib_4'
p2934
sS'chunktype'
p2935
S'head:NP2'
p2936
ssbsg38
I00
sg39
I00
sg40
Nsg41
Nsg42
I1
sg43
I7
sg44
Nsg45
Nsg46
S'NN'
p2937
sg48
g2916
sg49
I00
sba(issf_api
Word
p2938
(dp2939
g6
I00
sg7
V\u0915\u0947
p2940
sg9
(issf_api
FeatureSet
p2941
(dp2942
g12
(dp2943
S'posn'
p2944
S'80'
p2945
sS'name'
p2946
S'\xe0\xa4\x95\xe0\xa5\x872'
p2947
sS'drel'
p2948
S'lwg__psp:NP2'
p2949
sS'chunktype'
p2950
S'child:NP2'
p2951
sS'af'
p2952
S'\xe0\xa4\x95\xe0\xa4\xbe,psp,m,pl,,o,,'
p2953
ssbsg38
I00
sg39
I00
sg40
Nsg41
Nsg42
I1
sg43
I7
sg44
Nsg45
Nsg46
S'PSP'
p2954
sg48
g2941
sg49
I00
sba(issf_api
Word
p2955
(dp2956
g6
I00
sg7
V\u0936\u0947\u092f\u0930\u094b\u0902
p2957
sg9
(issf_api
FeatureSet
p2958
(dp2959
g12
(dp2960
S'crefhead'
p2961
S'\xe0\xa4\xb6\xe0\xa5\x87\xe0\xa4\xaf\xe0\xa4\xb0\xe0\xa5\x8b\xe0\xa4\x82:i23'
p2962
sS'posn'
p2963
S'90'
p2964
sS'name'
p2965
S'\xe0\xa4\xb6\xe0\xa5\x87\xe0\xa4\xaf\xe0\xa4\xb0\xe0\xa5\x8b\xe0\xa4\x82'
p2966
sS'af'
p2967
S'\xe0\xa4\xb6\xe0\xa5\x87\xe0\xa4\xaf\xe0\xa4\xb0,n,m,pl,3,o,0_\xe0\xa4\xae\xe0\xa5\x87\xe0\xa4\x82,0'
p2968
sS'chunkid'
p2969
S'NP3'
p2970
sS'crefmod'
p2971
S'm2:i23'
p2972
sS'creftype'
p2973
S'Coreference-Identity:i20'
p2974
sS'chunktype'
p2975
S'head:NP3'
p2976
sS'vpos'
p2977
S'vib_2'
p2978
sS'cref'
p2979
S'i23%1:t6'
p2980
sS'drel'
p2981
S'k7:VGF'
p2982
ssbsg38
I00
sg39
I00
sg40
Nsg41
Nsg42
I2
sg43
I7
sg44
Nsg45
Nsg46
S'NN'
p2983
sg48
g2958
sg49
I00
sba(issf_api
Word
p2984
(dp2985
g6
I00
sg7
V\u092e\u0947\u0902
p2986
sg9
(issf_api
FeatureSet
p2987
(dp2988
g12
(dp2989
S'posn'
p2990
S'100'
p2991
sS'name'
p2992
S'\xe0\xa4\xae\xe0\xa5\x87\xe0\xa4\x82'
p2993
sS'drel'
p2994
S'lwg__psp:NP3'
p2995
sS'chunktype'
p2996
S'child:NP3'
p2997
sS'af'
p2998
S'\xe0\xa4\xae\xe0\xa5\x87\xe0\xa4\x82,psp,,,,,,'
p2999
ssbsg38
I00
sg39
I00
sg40
Nsg41
Nsg42
I2
sg43
I7
sg44
Nsg45
Nsg46
S'PSP'
p3000
sg48
g2987
sg49
I00
sba(issf_api
Word
p3001
(dp3002
g6
I00
sg7
V\u092c\u0922\u093c\u094b\u0924\u0930\u0940
p3003
sg9
(issf_api
FeatureSet
p3004
(dp3005
g12
(dp3006
S'posn'
p3007
S'110'
p3008
sS'name'
p3009
S'\xe0\xa4\xac\xe0\xa4\xa2\xe0\xa4\xbc\xe0\xa5\x8b\xe0\xa4\xa4\xe0\xa4\xb0\xe0\xa5\x80'
p3010
sS'af'
p3011
S'\xe0\xa4\xac\xe0\xa4\xa2\xe0\xa4\xbc\xe0\xa5\x8b\xe0\xa4\xa4\xe0\xa4\xb0\xe0\xa5\x80,n,f,sg,3,d,0,0'
p3012
sS'chunkid'
p3013
S'NP4'
p3014
sS'drel'
p3015
S'k1:VGF'
p3016
sS'chunktype'
p3017
S'head:NP4'
p3018
ssbsg38
I00
sg39
I00
sg40
Nsg41
Nsg42
I3
sg43
I7
sg44
Nsg45
Nsg46
S'NN'
p3019
sg48
g3004
sg49
I00
sba(issf_api
Word
p3020
(dp3021
g6
I00
sg7
V\u0926\u0947\u0916\u0940
p3022
sg9
(issf_api
FeatureSet
p3023
(dp3024
g12
(dp3025
S'posn'
p3026
S'120'
p3027
sS'name'
p3028
S'\xe0\xa4\xa6\xe0\xa5\x87\xe0\xa4\x96\xe0\xa5\x80'
p3029
sS'af'
p3030
S'\xe0\xa4\xa6\xe0\xa5\x87\xe0\xa4\x96,v,f,sg,any,,\xe0\xa4\xaf\xe0\xa4\xbe_\xe0\xa4\x9c\xe0\xa4\xbe+\xe0\xa4\xaf\xe0\xa4\xbe\xe0\xa5\xa7,yA'
p3031
sS'chunkid'
p3032
S'VGF'
p3033
sS'chunktype'
p3034
S'head:VGF'
p3035
sS'voicetype'
p3036
S'passive'
p3037
sS'vpos'
p3038
S'tam_2'
p3039
sS'stype'
p3040
S'declarative'
p3041
ssbsg38
I00
sg39
I00
sg40
Nsg41
Nsg42
I4
sg43
I7
sg44
Nsg45
Nsg46
S'VM'
p3042
sg48
g3023
sg49
I00
sba(issf_api
Word
p3043
(dp3044
g6
I00
sg7
V\u0917\u0908
p3045
sg9
(issf_api
FeatureSet
p3046
(dp3047
g12
(dp3048
S'posn'
p3049
S'130'
p3050
sS'name'
p3051
S'\xe0\xa4\x97\xe0\xa4\x88'
p3052
sS'drel'
p3053
S'lwg__vaux:VGF'
p3054
sS'chunktype'
p3055
S'child:VGF'
p3056
sS'af'
p3057
S'\xe0\xa4\x9c\xe0\xa4\xbe,v,f,sg,any,,\xe0\xa4\xaf\xe0\xa4\xbe\xe0\xa5\xa7,yA1'
p3058
ssbsg38
I00
sg39
I00
sg40
Nsg41
Nsg42
I4
sg43
I7
sg44
Nsg45
Nsg46
S'VAUX'
p3059
sg48
g3046
sg49
I00
sba(issf_api
Word
p3060
(dp3061
g6
I00
sg7
V\u0964
p3062
sg9
(issf_api
FeatureSet
p3063
(dp3064
g12
(dp3065
S'posn'
p3066
S'140'
p3067
sS'name'
p3068
S'\xe0\xa5\xa4'
p3069
sS'af'
p3070
S'\xe0\xa5\xa4,punc,,,,,,'
p3071
sS'chunkid'
p3072
S'BLK'
p3073
sS'drel'
p3074
S'rsym:VGF'
p3075
sS'chunktype'
p3076
S'head:BLK'
p3077
ssbsg38
I00
sg39
I00
sg40
Nsg41
Nsg42
I5
sg43
I7
sg44
Nsg45
Nsg46
S'SYM'
p3078
sg48
g3063
sg49
I00
sba(issf_api
Word
p3079
(dp3080
g6
I00
sg7
V(
p3081
sg9
(issf_api
FeatureSet
p3082
(dp3083
g12
(dp3084
S'posn'
p3085
S'10'
p3086
sS'name'
p3087
g221
sS'drel'
p3088
S'rsym:NP'
p3089
sS'chunktype'
p3090
S'child:NP'
p3091
sS'af'
p3092
S',punc,,,,,,'
p3093
ssbsg38
I00
sg39
I00
sg40
Nsg41
Nsg42
I0
sg43
I8
sg44
Nsg45
Nsg46
S'SYM'
p3094
sg48
g3082
sg49
I00
sba(issf_api
Word
p3095
(dp3096
g6
I00
sg7
V\u0935\u093f\u0938\u094d\u0924\u0943\u0924
p3097
sg9
(issf_api
FeatureSet
p3098
(dp3099
g12
(dp3100
S'posn'
p3101
S'20'
p3102
sS'name'
p3103
S'\xe0\xa4\xb5\xe0\xa4\xbf\xe0\xa4\xb8\xe0\xa5\x8d\xe0\xa4\xa4\xe0\xa5\x83\xe0\xa4\xa4'
p3104
sS'drel'
p3105
S'nmod__adj:NP'
p3106
sS'chunktype'
p3107
S'child:NP'
p3108
sS'af'
p3109
S'\xe0\xa4\xb5\xe0\xa4\xbf\xe0\xa4\xb8\xe0\xa5\x8d\xe0\xa4\xa4\xe0\xa5\x83\xe0\xa4\xa4,adj,any,any,,d,,'
p3110
ssbsg38
I00
sg39
I00
sg40
Nsg41
Nsg42
I0
sg43
I8
sg44
Nsg45
Nsg46
S'JJ'
p3111
sg48
g3098
sg49
I00
sba(issf_api
Word
p3112
(dp3113
g6
I00
sg7
V\u0916\u092c\u0930
p3114
sg9
(issf_api
FeatureSet
p3115
(dp3116
g12
(dp3117
S'comment'
p3118
S'probsent'
p3119
sS'posn'
p3120
S'30'
p3121
sS'name'
p3122
S'\xe0\xa4\x96\xe0\xa4\xac\xe0\xa4\xb0'
p3123
sS'af'
p3124
S'\xe0\xa4\x96\xe0\xa4\xac\xe0\xa4\xb0,n,f,sg,3,d,0,0'
p3125
sS'chunkid'
p3126
S'NP'
p3127
sS'chunktype'
p3128
S'head:NP'
p3129
ssbsg38
I00
sg39
I00
sg40
Nsg41
Nsg42
I0
sg43
I8
sg44
Nsg45
Nsg46
S'NN'
p3130
sg48
g3115
sg49
I00
sba(issf_api
Word
p3131
(dp3132
g6
I00
sg7
V\u0915\u093e\u0930\u094b\u092c\u093e\u0930
p3133
sg9
(issf_api
FeatureSet
p3134
(dp3135
g12
(dp3136
S'posn'
p3137
S'40'
p3138
sS'name'
p3139
S'\xe0\xa4\x95\xe0\xa4\xbe\xe0\xa4\xb0\xe0\xa5\x8b\xe0\xa4\xac\xe0\xa4\xbe\xe0\xa4\xb0'
p3140
sS'drel'
p3141
S'pof__cn:NP2'
p3142
sS'chunktype'
p3143
S'child:NP2'
p3144
sS'af'
p3145
S'\xe0\xa4\x95\xe0\xa4\xbe\xe0\xa4\xb0\xe0\xa5\x8b\xe0\xa4\xac\xe0\xa4\xbe\xe0\xa4\xb0,n,m,sg,3,d,0,0'
p3146
ssbsg38
I00
sg39
I00
sg40
Nsg41
Nsg42
I1
sg43
I8
sg44
Nsg45
Nsg46
S'NNC'
p3147
sg48
g3134
sg49
I00
sba(issf_api
Word
p3148
(dp3149
g6
I00
sg7
V\u092a\u0947\u091c
p3150
sg9
(issf_api
FeatureSet
p3151
(dp3152
g12
(dp3153
S'posn'
p3154
S'50'
p3155
sS'name'
p3156
S'\xe0\xa4\xaa\xe0\xa5\x87\xe0\xa4\x9c'
p3157
sS'af'
p3158
S'\xe0\xa4\xaa\xe0\xa5\x87\xe0\xa4\x9c,n,m,sg,3,o,0_\xe0\xa4\xaa\xe0\xa4\xb0,0'
p3159
sS'chunkid'
p3160
S'NP2'
p3161
sS'vpos'
p3162
S'vib_3'
p3163
sS'chunktype'
p3164
S'head:NP2'
p3165
ssbsg38
I00
sg39
I00
sg40
Nsg41
Nsg42
I1
sg43
I8
sg44
Nsg45
Nsg46
S'NN'
p3166
sg48
g3151
sg49
I00
sba(issf_api
Word
p3167
(dp3168
g6
I00
sg7
V\u092a\u0930
p3169
sg9
(issf_api
FeatureSet
p3170
(dp3171
g12
(dp3172
S'posn'
p3173
S'60'
p3174
sS'name'
p3175
S'\xe0\xa4\xaa\xe0\xa4\xb0'
p3176
sS'drel'
p3177
S'lwg__psp:NP2'
p3178
sS'chunktype'
p3179
S'child:NP2'
p3180
sS'af'
p3181
S'\xe0\xa4\xaa\xe0\xa4\xb0,psp,,,,,,'
p3182
ssbsg38
I00
sg39
I00
sg40
Nsg41
Nsg42
I1
sg43
I8
sg44
Nsg45
Nsg46
S'PSP'
p3183
sg48
g3170
sg49
I00
sba(issf_api
Word
p3184
(dp3185
g6
I00
sg7
V)
p3186
sg9
(issf_api
FeatureSet
p3187
(dp3188
g12
(dp3189
S'posn'
p3190
S'70'
p3191
sS'name'
p3192
g263
sS'af'
p3193
S',punc,,,,,,'
p3194
sS'chunkid'
p3195
S'BLK'
p3196
sS'drel'
p3197
S'rsym:NP2'
p3198
sS'chunktype'
p3199
S'head:BLK'
p3200
ssbsg38
I00
sg39
I00
sg40
Nsg41
Nsg42
I2
sg43
I8
sg44
Nsg45
Nsg46
S'SYM'
p3201
sg48
g3187
sg49
I00
sbasS'sentenceList'
p3202
(lp3203
(issf_api
Sentence
p3204
(dp3205
S'rootNode'
p3206
(lp3207
sg43
I0
sS'wordNumList'
p3208
(lp3209
I0
aI1
aI2
aI3
aI4
aI5
aI6
aI7
aI8
aI9
aI10
aI11
aI12
aI13
aI14
aI15
aI16
aI17
aI18
aI19
aI20
aI21
aI22
aI23
aI24
aI25
aI26
aI27
aI28
aI29
aI30
aI31
asS'nodeDict'
p3210
(dp3211
S'VGNF'
p3212
(issf_api
Node
p3213
(dp3214
S'nodeRelation'
p3215
S'vmod'
p3216
sS'nodeName'
p3217
g3212
sS'nodeParent'
p3218
S'VGF'
p3219
sS'nodeLevel'
p3220
I-1
sg42
I9
sS'childList'
p3221
(lp3222
S'JJP'
p3223
aS'NP7'
p3224
asbsS'VGF'
p3225
(issf_api
Node
p3226
(dp3227
g3215
S'None'
p3228
sg3217
g3225
sg3218
g3228
sg3220
I-1
sg42
I13
sg3221
(lp3229
g3212
aS'NP5'
p3230
aS'JJP2'
p3231
aS'NP9'
p3232
aS'BLK'
p3233
aS'NP2'
p3234
asbsg3223
(issf_api
Node
p3235
(dp3236
g3215
S'pof'
p3237
sg3217
g3223
sg3218
S'VGNF'
p3238
sg3220
I-1
sg42
I8
sg3221
(lp3239
sbsg3230
(issf_api
Node
p3240
(dp3241
g3215
S'k1'
p3242
sg3217
g3230
sg3218
S'VGF'
p3243
sg3220
I-1
sg42
I5
sg3221
(lp3244
S'NP3'
p3245
asbsg3231
(issf_api
Node
p3246
(dp3247
g3215
S'pof'
p3248
sg3217
g3231
sg3218
S'VGF'
p3249
sg3220
I-1
sg42
I12
sg3221
(lp3250
sbsg3232
(issf_api
Node
p3251
(dp3252
g3215
S'k7'
p3253
sg3217
g3232
sg3218
S'VGF'
p3254
sg3220
I-1
sg42
I11
sg3221
(lp3255
S'NP8'
p3256
asbsg3256
(issf_api
Node
p3257
(dp3258
g3215
S'r6'
p3259
sg3217
g3256
sg3218
S'NP9'
p3260
sg3220
I-1
sg42
I10
sg3221
(lp3261
sbsg3233
(issf_api
Node
p3262
(dp3263
g3215
S'rsym'
p3264
sg3217
g3233
sg3218
S'VGF'
p3265
sg3220
I-1
sg42
I14
sg3221
(lp3266
sbsS'FRAGP'
p3267
(issf_api
Node
p3268
(dp3269
g3215
S'fragof'
p3270
sg3217
g3267
sg3218
S'NP3'
p3271
sg3220
I-1
sg42
I4
sg3221
(lp3272
sbsS'NP'
p3273
(issf_api
Node
p3274
(dp3275
g3215
S'r6'
p3276
sg3217
g3273
sg3218
S'NP2'
p3277
sg3220
I-1
sg42
I0
sg3221
(lp3278
sbsS'NP4'
p3279
(issf_api
Node
p3280
(dp3281
g3215
S'nmod'
p3282
sg3217
g3279
sg3218
S'NP3'
p3283
sg3220
I-1
sg42
I3
sg3221
(lp3284
sbsg3224
(issf_api
Node
p3285
(dp3286
g3215
S'k1'
p3287
sg3217
g3224
sg3218
S'VGNF'
p3288
sg3220
I-1
sg42
I7
sg3221
(lp3289
S'NP6'
p3290
asbsg3290
(issf_api
Node
p3291
(dp3292
g3215
S'r6'
p3293
sg3217
g3290
sg3218
S'NP7'
p3294
sg3220
I-1
sg42
I6
sg3221
(lp3295
sbsg3245
(issf_api
Node
p3296
(dp3297
g3215
S'r6'
p3298
sg3217
g3245
sg3218
S'NP5'
p3299
sg3220
I-1
sg42
I2
sg3221
(lp3300
g3267
ag3279
asbsg3234
(issf_api
Node
p3301
(dp3302
g3215
S'rh'
p3303
sg3217
g3234
sg3218
S'VGF'
p3304
sg3220
I-1
sg42
I1
sg3221
(lp3305
g3273
asbssS'chunkList'
p3306
(lp3307
(issf_api
Chunk
p3308
(dp3309
g3217
g25
sg42
I0
sS'chunkTag'
p3310
g47
sg43
I0
sg3208
(lp3311
I0
aI1
asg48
(issf_api
FeatureSet
p3312
(dp3313
g12
(dp3314
S'name'
p3315
g3273
sS'drel'
p3316
S'r6:NP2'
p3317
ssbsba(issf_api
Chunk
p3318
(dp3319
g3217
g101
sg42
I1
sg3310
g114
sg43
I0
sg3208
(lp3320
I2
aI3
aI4
aI5
asg48
(issf_api
FeatureSet
p3321
(dp3322
g12
(dp3323
S'name'
p3324
g3234
sS'drel'
p3325
S'rh:VGF'
p3326
ssbsba(issf_api
Chunk
p3327
(dp3328
g3217
g202
sg42
I2
sg3310
g211
sg43
I0
sg3208
(lp3329
I6
aI7
aI8
asg48
(issf_api
FeatureSet
p3330
(dp3331
g12
(dp3332
S'name'
p3333
g3245
sS'drel'
p3334
S'r6:NP5'
p3335
ssbsba(issf_api
Chunk
p3336
(dp3337
g3217
g244
sg42
I3
sg3310
g253
sg43
I0
sg3208
(lp3338
I9
aI10
aI11
asg48
(issf_api
FeatureSet
p3339
(dp3340
g12
(dp3341
S'name'
p3342
g3279
sS'drel'
p3343
S'nmod:NP3'
p3344
ssbsba(issf_api
Chunk
p3345
(dp3346
g3217
g284
sg42
I4
sg3310
g285
sg43
I0
sg3208
(lp3347
I12
asg48
(issf_api
FeatureSet
p3348
(dp3349
g12
(dp3350
S'name'
p3351
g3267
sS'drel'
p3352
S'fragof:NP3'
p3353
ssbsba(issf_api
Chunk
p3354
(dp3355
g3217
g316
sg42
I5
sg3310
g321
sg43
I0
sg3208
(lp3356
I13
aI14
asg48
(issf_api
FeatureSet
p3357
(dp3358
g12
(dp3359
S'name'
p3360
g3230
sS'drel'
p3361
S'k1:VGF'
p3362
ssbsba(issf_api
Chunk
p3363
(dp3364
g3217
g352
sg42
I6
sg3310
g359
sg43
I0
sg3208
(lp3365
I15
aI16
aI17
asg48
(issf_api
FeatureSet
p3366
(dp3367
g12
(dp3368
S'name'
p3369
g3290
sS'drel'
p3370
S'r6:NP7'
p3371
ssbsba(issf_api
Chunk
p3372
(dp3373
g3217
g407
sg42
I7
sg3310
g412
sg43
I0
sg3208
(lp3374
I18
aI19
asg48
(issf_api
FeatureSet
p3375
(dp3376
g12
(dp3377
S'name'
p3378
g3224
sS'drel'
p3379
S'k1:VGNF'
p3380
ssbsba(issf_api
Chunk
p3381
(dp3382
g3217
g426
sg42
I8
sg3310
g431
sg43
I0
sg3208
(lp3383
I20
asg48
(issf_api
FeatureSet
p3384
(dp3385
g12
(dp3386
S'name'
p3387
g3223
sS'drel'
p3388
S'pof:VGNF'
p3389
ssbsba(issf_api
Chunk
p3390
(dp3391
g3217
g445
sg42
I9
sg3310
g450
sg43
I0
sg3208
(lp3392
I21
asg48
(issf_api
FeatureSet
p3393
(dp3394
g12
(dp3395
S'name'
p3396
g3212
sS'drel'
p3397
S'vmod:VGF'
p3398
ssbsba(issf_api
Chunk
p3399
(dp3400
g3217
g481
sg42
I10
sg3310
g488
sg43
I0
sg3208
(lp3401
I22
aI23
aI24
asg48
(issf_api
FeatureSet
p3402
(dp3403
g12
(dp3404
S'name'
p3405
g3256
sS'drel'
p3406
S'r6:NP9'
p3407
ssbsba(issf_api
Chunk
p3408
(dp3409
g3217
g553
sg42
I11
sg3310
g560
sg43
I0
sg3208
(lp3410
I25
aI26
aI27
aI28
asg48
(issf_api
FeatureSet
p3411
(dp3412
g12
(dp3413
S'name'
p3414
g3232
sS'drel'
p3415
S'k7:VGF'
p3416
ssbsba(issf_api
Chunk
p3417
(dp3418
g3217
g591
sg42
I12
sg3310
g596
sg43
I0
sg3208
(lp3419
I29
asg48
(issf_api
FeatureSet
p3420
(dp3421
g12
(dp3422
S'name'
p3423
g3231
sS'drel'
p3424
S'pof:VGF'
p3425
ssbsba(issf_api
Chunk
p3426
(dp3427
g3217
g610
sg42
I13
sg3310
g617
sg43
I0
sg3208
(lp3428
I30
asg48
(issf_api
FeatureSet
p3429
(dp3430
g12
(dp3431
S'name'
p3432
g3225
ssbsba(issf_api
Chunk
p3433
(dp3434
g3217
g631
sg42
I14
sg3310
g636
sg43
I0
sg3208
(lp3435
I31
asg48
(issf_api
FeatureSet
p3436
(dp3437
g12
(dp3438
S'name'
p3439
g3233
sS'drel'
p3440
S'rsym:VGF'
p3441
ssbsbasba(issf_api
Sentence
p3442
(dp3443
g3206
(lp3444
sg43
I1
sg3208
(lp3445
I32
aI33
aI34
aI35
aI36
aI37
aI38
aI39
aI40
aI41
aI42
asg3210
(dp3446
S'VGNF'
p3447
(issf_api
Node
p3448
(dp3449
g3215
S'vmod'
p3450
sg3217
g3447
sg3218
S'VGF'
p3451
sg3220
I-1
sg42
I2
sg3221
(lp3452
S'NP2'
p3453
asbsS'VGF'
p3454
(issf_api
Node
p3455
(dp3456
g3215
g3228
sg3217
g3454
sg3218
g3228
sg3220
I-1
sg42
I5
sg3221
(lp3457
g3447
aS'JJP'
p3458
aS'BLK'
p3459
aS'NP'
p3460
aS'NP3'
p3461
asbsg3458
(issf_api
Node
p3462
(dp3463
g3215
S'pof'
p3464
sg3217
g3458
sg3218
S'VGF'
p3465
sg3220
I-1
sg42
I4
sg3221
(lp3466
sbsg3459
(issf_api
Node
p3467
(dp3468
g3215
S'rsym'
p3469
sg3217
g3459
sg3218
S'VGF'
p3470
sg3220
I-1
sg42
I6
sg3221
(lp3471
sbsg3460
(issf_api
Node
p3472
(dp3473
g3215
S'k1'
p3474
sg3217
g3460
sg3218
S'VGF'
p3475
sg3220
I-1
sg42
I0
sg3221
(lp3476
sbsg3461
(issf_api
Node
p3477
(dp3478
g3215
S'k7'
p3479
sg3217
g3461
sg3218
S'VGF'
p3480
sg3220
I-1
sg42
I3
sg3221
(lp3481
sbsg3453
(issf_api
Node
p3482
(dp3483
g3215
S'k1'
p3484
sg3217
g3453
sg3218
S'VGNF'
p3485
sg3220
I-1
sg42
I1
sg3221
(lp3486
sbssg3306
(lp3487
(issf_api
Chunk
p3488
(dp3489
g3217
g667
sg42
I0
sg3310
g672
sg43
I1
sg3208
(lp3490
I32
aI33
asg48
(issf_api
FeatureSet
p3491
(dp3492
g12
(dp3493
S'name'
p3494
g3460
sS'drel'
p3495
S'k1:VGF'
p3496
ssbsba(issf_api
Chunk
p3497
(dp3498
g3217
g703
sg42
I1
sg3310
g708
sg43
I1
sg3208
(lp3499
I34
aI35
asg48
(issf_api
FeatureSet
p3500
(dp3501
g12
(dp3502
S'name'
p3503
g3453
sS'drel'
p3504
S'k1:VGNF'
p3505
ssbsba(issf_api
Chunk
p3506
(dp3507
g3217
g722
sg42
I2
sg3310
g727
sg43
I1
sg3208
(lp3508
I36
asg48
(issf_api
FeatureSet
p3509
(dp3510
g12
(dp3511
S'name'
p3512
g3447
sS'drel'
p3513
S'vmod:VGF'
p3514
ssbsba(issf_api
Chunk
p3515
(dp3516
g3217
g758
sg42
I3
sg3310
g765
sg43
I1
sg3208
(lp3517
I37
aI38
aI39
asg48
(issf_api
FeatureSet
p3518
(dp3519
g12
(dp3520
S'name'
p3521
g3461
sS'drel'
p3522
S'k7:VGF'
p3523
ssbsba(issf_api
Chunk
p3524
(dp3525
g3217
g796
sg42
I4
sg3310
g801
sg43
I1
sg3208
(lp3526
I40
asg48
(issf_api
FeatureSet
p3527
(dp3528
g12
(dp3529
S'name'
p3530
g3458
sS'drel'
p3531
S'pof:VGF'
p3532
ssbsba(issf_api
Chunk
p3533
(dp3534
g3217
g815
sg42
I5
sg3310
g822
sg43
I1
sg3208
(lp3535
I41
asg48
(issf_api
FeatureSet
p3536
(dp3537
g12
(dp3538
S'name'
p3539
g3454
ssbsba(issf_api
Chunk
p3540
(dp3541
g3217
g836
sg42
I6
sg3310
g841
sg43
I1
sg3208
(lp3542
I42
asg48
(issf_api
FeatureSet
p3543
(dp3544
g12
(dp3545
S'name'
p3546
g3459
sS'drel'
p3547
S'rsym:VGF'
p3548
ssbsbasba(issf_api
Sentence
p3549
(dp3550
g3206
(lp3551
sg43
I2
sg3208
(lp3552
I43
aI44
aI45
aI46
aI47
aI48
aI49
aI50
aI51
aI52
aI53
aI54
aI55
aI56
aI57
aI58
aI59
aI60
aI61
asg3210
(dp3553
S'VGNF'
p3554
(issf_api
Node
p3555
(dp3556
g3215
S'vmod'
p3557
sg3217
g3554
sg3218
S'VGF'
p3558
sg3220
I-1
sg42
I7
sg3221
(lp3559
S'NP5'
p3560
asbsS'VGNN'
p3561
(issf_api
Node
p3562
(dp3563
g3215
S'k7t'
p3564
sg3217
g3561
sg3218
S'VGF'
p3565
sg3220
I-1
sg42
I3
sg3221
(lp3566
S'JJP'
p3567
aS'NP2'
p3568
asbsS'VGF'
p3569
(issf_api
Node
p3570
(dp3571
g3215
g3228
sg3217
g3569
sg3218
g3228
sg3220
I-1
sg42
I9
sg3221
(lp3572
g3554
ag3561
aS'JJP2'
p3573
aS'BLK'
p3574
aS'NP'
p3575
aS'NP3'
p3576
asbsg3567
(issf_api
Node
p3577
(dp3578
g3215
S'pof'
p3579
sg3217
g3567
sg3218
S'VGNN'
p3580
sg3220
I-1
sg42
I2
sg3221
(lp3581
sbsg3560
(issf_api
Node
p3582
(dp3583
g3215
S'k2'
p3584
sg3217
g3560
sg3218
S'VGNF'
p3585
sg3220
I-1
sg42
I6
sg3221
(lp3586
S'NP4'
p3587
asbsg3573
(issf_api
Node
p3588
(dp3589
g3215
S'k1s'
p3590
sg3217
g3573
sg3218
S'VGF'
p3591
sg3220
I-1
sg42
I8
sg3221
(lp3592
sbsg3574
(issf_api
Node
p3593
(dp3594
g3215
S'rsym'
p3595
sg3217
g3574
sg3218
S'VGF'
p3596
sg3220
I-1
sg42
I10
sg3221
(lp3597
sbsg3575
(issf_api
Node
p3598
(dp3599
g3215
S'k7a'
p3600
sg3217
g3575
sg3218
S'VGF'
p3601
sg3220
I-1
sg42
I0
sg3221
(lp3602
sbsg3587
(issf_api
Node
p3603
(dp3604
g3215
S'r6'
p3605
sg3217
g3587
sg3218
S'NP5'
p3606
sg3220
I-1
sg42
I5
sg3221
(lp3607
sbsg3576
(issf_api
Node
p3608
(dp3609
g3215
S'k1'
p3610
sg3217
g3576
sg3218
S'VGF'
p3611
sg3220
I-1
sg42
I4
sg3221
(lp3612
sbsg3568
(issf_api
Node
p3613
(dp3614
g3215
S'k1'
p3615
sg3217
g3568
sg3218
S'VGNN'
p3616
sg3220
I-1
sg42
I1
sg3221
(lp3617
sbssg3306
(lp3618
(issf_api
Chunk
p3619
(dp3620
g3217
g855
sg42
I0
sg3310
g862
sg43
I2
sg3208
(lp3621
I43
aI44
aI45
asg48
(issf_api
FeatureSet
p3622
(dp3623
g12
(dp3624
S'name'
p3625
g3575
sS'drel'
p3626
S'k7a:VGF'
p3627
ssbsba(issf_api
Chunk
p3628
(dp3629
g3217
g912
sg42
I1
sg3310
g921
sg43
I2
sg3208
(lp3630
I46
asg48
(issf_api
FeatureSet
p3631
(dp3632
g12
(dp3633
S'name'
p3634
g3568
sS'drel'
p3635
S'k1:VGNN'
p3636
ssbsba(issf_api
Chunk
p3637
(dp3638
g3217
g935
sg42
I2
sg3310
g940
sg43
I2
sg3208
(lp3639
I47
asg48
(issf_api
FeatureSet
p3640
(dp3641
g12
(dp3642
S'name'
p3643
g3567
sS'drel'
p3644
S'pof:VGNN'
p3645
ssbsba(issf_api
Chunk
p3646
(dp3647
g3217
g954
sg42
I3
sg3310
g961
sg43
I2
sg3208
(lp3648
I48
aI49
aI50
aI51
asg48
(issf_api
FeatureSet
p3649
(dp3650
g12
(dp3651
S'name'
p3652
g3561
sS'drel'
p3653
S'k7t:VGF'
p3654
ssbsba(issf_api
Chunk
p3655
(dp3656
g3217
g1066
sg42
I4
sg3310
g1075
sg43
I2
sg3208
(lp3657
I52
aI53
aI54
asg48
(issf_api
FeatureSet
p3658
(dp3659
g12
(dp3660
S'name'
p3661
g3576
sS'drel'
p3662
S'k1:VGF'
p3663
ssbsba(issf_api
Chunk
p3664
(dp3665
g3217
g1091
sg42
I5
sg3310
g1100
sg43
I2
sg3208
(lp3666
I55
asg48
(issf_api
FeatureSet
p3667
(dp3668
g12
(dp3669
S'name'
p3670
g3587
sS'drel'
p3671
S'r6:NP5'
p3672
ssbsba(issf_api
Chunk
p3673
(dp3674
g3217
g1114
sg42
I6
sg3310
g1121
sg43
I2
sg3208
(lp3675
I56
aI57
asg48
(issf_api
FeatureSet
p3676
(dp3677
g12
(dp3678
S'name'
p3679
g3560
sS'drel'
p3680
S'k2:VGNF'
p3681
ssbsba(issf_api
Chunk
p3682
(dp3683
g3217
g1152
sg42
I7
sg3310
g1157
sg43
I2
sg3208
(lp3684
I58
asg48
(issf_api
FeatureSet
p3685
(dp3686
g12
(dp3687
S'name'
p3688
g3554
sS'drel'
p3689
S'vmod:VGF'
p3690
ssbsba(issf_api
Chunk
p3691
(dp3692
g3217
g1171
sg42
I8
sg3310
g1176
sg43
I2
sg3208
(lp3693
I59
asg48
(issf_api
FeatureSet
p3694
(dp3695
g12
(dp3696
S'name'
p3697
g3573
sS'drel'
p3698
S'k1s:VGF'
p3699
ssbsba(issf_api
Chunk
p3700
(dp3701
g3217
g1190
sg42
I9
sg3310
g1197
sg43
I2
sg3208
(lp3702
I60
asg48
(issf_api
FeatureSet
p3703
(dp3704
g12
(dp3705
S'name'
p3706
g3569
ssbsba(issf_api
Chunk
p3707
(dp3708
g3217
g1211
sg42
I10
sg3310
g1216
sg43
I2
sg3208
(lp3709
I61
asg48
(issf_api
FeatureSet
p3710
(dp3711
g12
(dp3712
S'name'
p3713
g3574
sS'drel'
p3714
S'rsym:VGF'
p3715
ssbsbasba(issf_api
Sentence
p3716
(dp3717
g3206
(lp3718
sg43
I3
sg3208
(lp3719
I62
aI63
aI64
aI65
aI66
aI67
aI68
aI69
aI70
aI71
aI72
aI73
aI74
aI75
aI76
aI77
aI78
aI79
aI80
aI81
aI82
aI83
aI84
aI85
aI86
aI87
aI88
asg3210
(dp3720
S'VGF2'
p3721
(issf_api
Node
p3722
(dp3723
g3215
S'ccof'
p3724
sg3217
g3721
sg3218
S'CCP2'
p3725
sg3220
I-1
sg42
I12
sg3221
(lp3726
S'NP5'
p3727
aS'NP4'
p3728
aS'NP6'
p3729
asbsS'VGNN'
p3730
(issf_api
Node
p3731
(dp3732
g3215
S'k7'
p3733
sg3217
g3730
sg3218
S'VGF'
p3734
sg3220
I-1
sg42
I3
sg3221
(lp3735
S'JJP'
p3736
aS'NP'
p3737
asbsS'VGF'
p3738
(issf_api
Node
p3739
(dp3740
g3215
S'ccof'
p3741
sg3217
g3738
sg3218
S'CCP'
p3742
sg3220
I-1
sg42
I5
sg3221
(lp3743
g3730
aS'JJP2'
p3744
aS'NULL__NP'
p3745
asbsS'CCP'
p3746
(issf_api
Node
p3747
(dp3748
g3215
g3228
sg3217
g3746
sg3218
g3228
sg3220
I-1
sg42
I0
sg3221
(lp3749
g3738
aS'BLK'
p3750
asbsg3736
(issf_api
Node
p3751
(dp3752
g3215
S'pof'
p3753
sg3217
g3736
sg3218
S'VGNN'
p3754
sg3220
I-1
sg42
I2
sg3221
(lp3755
sbsg3727
(issf_api
Node
p3756
(dp3757
g3215
S'k7'
p3758
sg3217
g3727
sg3218
S'VGF2'
p3759
sg3220
I-1
sg42
I10
sg3221
(lp3760
sbsg3744
(issf_api
Node
p3761
(dp3762
g3215
S'pof'
p3763
sg3217
g3744
sg3218
S'VGF'
p3764
sg3220
I-1
sg42
I4
sg3221
(lp3765
sbsg3750
(issf_api
Node
p3766
(dp3767
g3215
S'rsym'
p3768
sg3217
g3750
sg3218
S'CCP'
p3769
sg3220
I-1
sg42
I13
sg3221
(lp3770
sbsg3745
(issf_api
Node
p3771
(dp3772
g3215
S'k1'
p3773
sg3217
g3745
sg3218
S'VGF'
p3774
sg3220
I-1
sg42
I-1
sg3221
(lp3775
S'CCP2'
p3776
asbsg3737
(issf_api
Node
p3777
(dp3778
g3215
S'k1'
p3779
sg3217
g3737
sg3218
S'VGNN'
p3780
sg3220
I-1
sg42
I1
sg3221
(lp3781
sbsg3728
(issf_api
Node
p3782
(dp3783
g3215
S'vmod'
p3784
sg3217
g3728
sg3218
S'VGF2'
p3785
sg3220
I-1
sg42
I9
sg3221
(lp3786
S'NP3'
p3787
asbsg3729
(issf_api
Node
p3788
(dp3789
g3215
S'k1'
p3790
sg3217
g3729
sg3218
S'VGF2'
p3791
sg3220
I-1
sg42
I11
sg3221
(lp3792
sbsg3776
(issf_api
Node
p3793
(dp3794
g3215
S'rs'
p3795
sg3217
g3776
sg3218
S'NULL__NP'
p3796
sg3220
I-1
sg42
I6
sg3221
(lp3797
g3721
asbsg3787
(issf_api
Node
p3798
(dp3799
g3215
S'r6'
p3800
sg3217
g3787
sg3218
S'NP4'
p3801
sg3220
I-1
sg42
I8
sg3221
(lp3802
S'NP2'
p3803
asbsg3803
(issf_api
Node
p3804
(dp3805
g3215
S'nmod'
p3806
sg3217
g3803
sg3218
S'NP3'
p3807
sg3220
I-1
sg42
I7
sg3221
(lp3808
sbssg3306
(lp3809
(issf_api
Chunk
p3810
(dp3811
g3217
g1226
sg42
I0
sg3310
g1233
sg43
I3
sg3208
(lp3812
I62
aI63
asg48
(issf_api
FeatureSet
p3813
(dp3814
g12
(dp3815
S'name'
p3816
g3746
ssbsba(issf_api
Chunk
p3817
(dp3818
g3217
g1266
sg42
I1
sg3310
g1275
sg43
I3
sg3208
(lp3819
I64
asg48
(issf_api
FeatureSet
p3820
(dp3821
g12
(dp3822
S'name'
p3823
g3737
sS'drel'
p3824
S'k1:VGNN'
p3825
ssbsba(issf_api
Chunk
p3826
(dp3827
g3217
g1289
sg42
I2
sg3310
g1294
sg43
I3
sg3208
(lp3828
I65
asg48
(issf_api
FeatureSet
p3829
(dp3830
g12
(dp3831
S'name'
p3832
g3736
sS'drel'
p3833
S'pof:VGNN'
p3834
ssbsba(issf_api
Chunk
p3835
(dp3836
g3217
g1308
sg42
I3
sg3310
g1315
sg43
I3
sg3208
(lp3837
I66
aI67
asg48
(issf_api
FeatureSet
p3838
(dp3839
g12
(dp3840
S'name'
p3841
g3730
sS'drel'
p3842
S'k7:VGF'
p3843
ssbsba(issf_api
Chunk
p3844
(dp3845
g3217
g1346
sg42
I4
sg3310
g1351
sg43
I3
sg3208
(lp3846
I68
asg48
(issf_api
FeatureSet
p3847
(dp3848
g12
(dp3849
S'name'
p3850
g3744
sS'drel'
p3851
S'pof:VGF'
p3852
ssbsba(issf_api
Chunk
p3853
(dp3854
g3217
g1365
sg42
I5
sg3310
g1376
sg43
I3
sg3208
(lp3855
I69
aI70
aI71
asg48
(issf_api
FeatureSet
p3856
(dp3857
g12
(dp3858
S'name'
p3859
g3738
sS'drel'
p3860
S'ccof:CCP'
p3861
ssbsba(issf_api
Chunk
p3862
(dp3863
g3217
g1424
sg42
I6
sg3310
g1429
sg43
I3
sg3208
(lp3864
I72
asg48
(issf_api
FeatureSet
p3865
(dp3866
g12
(dp3867
S'name'
p3868
g3776
sS'drel'
p3869
S'rs:NULL__NP'
p3870
ssbsba(issf_api
Chunk
p3871
(dp3872
g3217
g1443
sg42
I7
sg3310
g1448
sg43
I3
sg3208
(lp3873
I73
aI74
aI75
asg48
(issf_api
FeatureSet
p3874
(dp3875
g12
(dp3876
S'name'
p3877
g3803
sS'drel'
p3878
S'nmod:NP3'
p3879
ssbsba(issf_api
Chunk
p3880
(dp3881
g3217
g1521
sg42
I8
sg3310
g1532
sg43
I3
sg3208
(lp3882
I76
aI77
aI78
asg48
(issf_api
FeatureSet
p3883
(dp3884
g12
(dp3885
S'name'
p3886
g3787
sS'drel'
p3887
S'r6:NP4'
p3888
ssbsba(issf_api
Chunk
p3889
(dp3890
g3217
g1563
sg42
I9
sg3310
g1570
sg43
I3
sg3208
(lp3891
I79
aI80
asg48
(issf_api
FeatureSet
p3892
(dp3893
g12
(dp3894
S'name'
p3895
g3728
sS'drel'
p3896
S'vmod:VGF2'
p3897
ssbsba(issf_api
Chunk
p3898
(dp3899
g3217
g1603
sg42
I10
sg3310
g1612
sg43
I3
sg3208
(lp3900
I81
asg48
(issf_api
FeatureSet
p3901
(dp3902
g12
(dp3903
S'name'
p3904
g3727
sS'drel'
p3905
S'k7:VGF2'
p3906
ssbsba(issf_api
Chunk
p3907
(dp3908
g3217
g1685
sg42
I11
sg3310
g1690
sg43
I3
sg3208
(lp3909
I82
aI83
aI84
aI85
asg48
(issf_api
FeatureSet
p3910
(dp3911
g12
(dp3912
S'name'
p3913
g3729
sS'drel'
p3914
S'k1:VGF2'
p3915
ssbsba(issf_api
Chunk
p3916
(dp3917
g3217
g1721
sg42
I12
sg3310
g1730
sg43
I3
sg3208
(lp3918
I86
aI87
asg48
(issf_api
FeatureSet
p3919
(dp3920
g12
(dp3921
S'name'
p3922
g3721
sS'drel'
p3923
S'ccof:CCP2'
p3924
ssbsba(issf_api
Chunk
p3925
(dp3926
g3217
g1744
sg42
I13
sg3310
g1749
sg43
I3
sg3208
(lp3927
I88
asg48
(issf_api
FeatureSet
p3928
(dp3929
g12
(dp3930
S'name'
p3931
g3750
sS'drel'
p3932
S'rsym:CCP'
p3933
ssbsbasba(issf_api
Sentence
p3934
(dp3935
g3206
(lp3936
sg43
I4
sg3208
(lp3937
I89
aI90
aI91
aI92
aI93
aI94
aI95
aI96
aI97
aI98
aI99
aI100
aI101
aI102
aI103
aI104
aI105
aI106
aI107
aI108
aI109
asg3210
(dp3938
S'VGNN'
p3939
(issf_api
Node
p3940
(dp3941
g3215
S'nmod'
p3942
sg3217
g3939
sg3218
S'NP5'
p3943
sg3220
I-1
sg42
I4
sg3221
(lp3944
S'NP4'
p3945
aS'NP3'
p3946
aS'NP2'
p3947
asbsS'VGF'
p3948
(issf_api
Node
p3949
(dp3950
g3215
g3228
sg3217
g3948
sg3218
g3228
sg3220
I-1
sg42
I10
sg3221
(lp3951
S'NP5'
p3952
aS'BLK'
p3953
aS'NP'
p3954
aS'NP6'
p3955
asbsS'CCP'
p3956
(issf_api
Node
p3957
(dp3958
g3215
S'nmod'
p3959
sg3217
g3956
sg3218
S'NP5'
p3960
sg3220
I-1
sg42
I6
sg3221
(lp3961
S'JJP'
p3962
aS'JJP2'
p3963
asbsg3962
(issf_api
Node
p3964
(dp3965
g3215
S'ccof'
p3966
sg3217
g3962
sg3218
S'CCP'
p3967
sg3220
I-1
sg42
I5
sg3221
(lp3968
sbsg3952
(issf_api
Node
p3969
(dp3970
g3215
S'k7'
p3971
sg3217
g3952
sg3218
S'VGF'
p3972
sg3220
I-1
sg42
I8
sg3221
(lp3973
g3939
ag3956
asbsg3963
(issf_api
Node
p3974
(dp3975
g3215
S'ccof'
p3976
sg3217
g3963
sg3218
S'CCP'
p3977
sg3220
I-1
sg42
I7
sg3221
(lp3978
sbsg3953
(issf_api
Node
p3979
(dp3980
g3215
S'rsym'
p3981
sg3217
g3953
sg3218
S'VGF'
p3982
sg3220
I-1
sg42
I11
sg3221
(lp3983
sbsg3954
(issf_api
Node
p3984
(dp3985
g3215
S'k7a'
p3986
sg3217
g3954
sg3218
S'VGF'
p3987
sg3220
I-1
sg42
I0
sg3221
(lp3988
sbsg3945
(issf_api
Node
p3989
(dp3990
g3215
S'k7'
p3991
sg3217
g3945
sg3218
S'VGNN'
p3992
sg3220
I-1
sg42
I3
sg3221
(lp3993
sbsg3955
(issf_api
Node
p3994
(dp3995
g3215
S'pof'
p3996
sg3217
g3955
sg3218
S'VGF'
p3997
sg3220
I-1
sg42
I9
sg3221
(lp3998
sbsg3946
(issf_api
Node
p3999
(dp4000
g3215
S'k7t'
p4001
sg3217
g3946
sg3218
S'VGNN'
p4002
sg3220
I-1
sg42
I2
sg3221
(lp4003
sbsg3947
(issf_api
Node
p4004
(dp4005
g3215
S'k5'
p4006
sg3217
g3947
sg3218
S'VGNN'
p4007
sg3220
I-1
sg42
I1
sg3221
(lp4008
sbssg3306
(lp4009
(issf_api
Chunk
p4010
(dp4011
g3217
g1765
sg42
I0
sg3310
g1776
sg43
I4
sg3208
(lp4012
I89
aI90
asg48
(issf_api
FeatureSet
p4013
(dp4014
g12
(dp4015
S'name'
p4016
g3954
sS'drel'
p4017
S'k7a:VGF'
p4018
ssbsba(issf_api
Chunk
p4019
(dp4020
g3217
g1809
sg42
I1
sg3310
g1820
sg43
I4
sg3208
(lp4021
I91
aI92
asg48
(issf_api
FeatureSet
p4022
(dp4023
g12
(dp4024
S'name'
p4025
g3947
sS'drel'
p4026
S'k5:VGNN'
p4027
ssbsba(issf_api
Chunk
p4028
(dp4029
g3217
g1853
sg42
I2
sg3310
g1862
sg43
I4
sg3208
(lp4030
I93
aI94
asg48
(issf_api
FeatureSet
p4031
(dp4032
g12
(dp4033
S'name'
p4034
g3946
sS'drel'
p4035
S'k7t:VGNN'
p4036
ssbsba(issf_api
Chunk
p4037
(dp4038
g3217
g1895
sg42
I3
sg3310
g1902
sg43
I4
sg3208
(lp4039
I95
asg48
(issf_api
FeatureSet
p4040
(dp4041
g12
(dp4042
S'name'
p4043
g3945
sS'drel'
p4044
S'k7:VGNN'
p4045
ssbsba(issf_api
Chunk
p4046
(dp4047
g3217
g1916
sg42
I4
sg3310
g1925
sg43
I4
sg3208
(lp4048
I96
aI97
asg48
(issf_api
FeatureSet
p4049
(dp4050
g12
(dp4051
S'name'
p4052
g3939
sS'drel'
p4053
S'nmod:NP5'
p4054
ssbsba(issf_api
Chunk
p4055
(dp4056
g3217
g1958
sg42
I5
sg3310
g1965
sg43
I4
sg3208
(lp4057
I98
asg48
(issf_api
FeatureSet
p4058
(dp4059
g12
(dp4060
S'name'
p4061
g3962
sS'drel'
p4062
S'ccof:CCP'
p4063
ssbsba(issf_api
Chunk
p4064
(dp4065
g3217
g1979
sg42
I6
sg3310
g1986
sg43
I4
sg3208
(lp4066
I99
asg48
(issf_api
FeatureSet
p4067
(dp4068
g12
(dp4069
S'name'
p4070
g3956
sS'drel'
p4071
S'nmod:NP5'
p4072
ssbsba(issf_api
Chunk
p4073
(dp4074
g3217
g2000
sg42
I7
sg3310
g2007
sg43
I4
sg3208
(lp4075
I100
asg48
(issf_api
FeatureSet
p4076
(dp4077
g12
(dp4078
S'name'
p4079
g3963
sS'drel'
p4080
S'ccof:CCP'
p4081
ssbsba(issf_api
Chunk
p4082
(dp4083
g3217
g2046
sg42
I8
sg3310
g2057
sg43
I4
sg3208
(lp4084
I101
aI102
aI103
asg48
(issf_api
FeatureSet
p4085
(dp4086
g12
(dp4087
S'name'
p4088
g3952
sS'drel'
p4089
S'k7:VGF'
p4090
ssbsba(issf_api
Chunk
p4091
(dp4092
g3217
g2109
sg42
I9
sg3310
g2116
sg43
I4
sg3208
(lp4093
I104
aI105
asg48
(issf_api
FeatureSet
p4094
(dp4095
g12
(dp4096
S'name'
p4097
g3955
sS'drel'
p4098
S'pof:VGF'
p4099
ssbsba(issf_api
Chunk
p4100
(dp4101
g3217
g2132
sg42
I10
sg3310
g2145
sg43
I4
sg3208
(lp4102
I106
aI107
aI108
asg48
(issf_api
FeatureSet
p4103
(dp4104
g12
(dp4105
S'name'
p4106
g3948
ssbsba(issf_api
Chunk
p4107
(dp4108
g3217
g2197
sg42
I11
sg3310
g2202
sg43
I4
sg3208
(lp4109
I109
asg48
(issf_api
FeatureSet
p4110
(dp4111
g12
(dp4112
S'name'
p4113
g3953
sS'drel'
p4114
S'rsym:VGF'
p4115
ssbsbasba(issf_api
Sentence
p4116
(dp4117
g3206
(lp4118
sg43
I5
sg3208
(lp4119
I110
aI111
aI112
aI113
aI114
aI115
aI116
aI117
aI118
aI119
aI120
aI121
aI122
aI123
asg3210
(dp4120
S'VGF'
p4121
(issf_api
Node
p4122
(dp4123
g3215
g3228
sg3217
g4121
sg3218
g3228
sg3220
I-1
sg42
I5
sg3221
(lp4124
S'JJP'
p4125
aS'BLK'
p4126
aS'NP'
p4127
aS'RBP'
p4128
aS'NP3'
p4129
aS'NP2'
p4130
asbsg4125
(issf_api
Node
p4131
(dp4132
g3215
S'pof'
p4133
sg3217
g4125
sg3218
S'VGF'
p4134
sg3220
I-1
sg42
I4
sg3221
(lp4135
sbsg4126
(issf_api
Node
p4136
(dp4137
g3215
S'rsym'
p4138
sg3217
g4126
sg3218
S'VGF'
p4139
sg3220
I-1
sg42
I6
sg3221
(lp4140
sbsg4127
(issf_api
Node
p4141
(dp4142
g3215
S'rh'
p4143
sg3217
g4127
sg3218
S'VGF'
p4144
sg3220
I-1
sg42
I0
sg3221
(lp4145
sbsg4128
(issf_api
Node
p4146
(dp4147
g3215
S'adv'
p4148
sg3217
g4128
sg3218
S'VGF'
p4149
sg3220
I-1
sg42
I2
sg3221
(lp4150
sbsg4129
(issf_api
Node
p4151
(dp4152
g3215
S'k2'
p4153
sg3217
g4129
sg3218
S'VGF'
p4154
sg3220
I-1
sg42
I3
sg3221
(lp4155
sbsg4130
(issf_api
Node
p4156
(dp4157
g3215
S'k7'
p4158
sg3217
g4130
sg3218
S'VGF'
p4159
sg3220
I-1
sg42
I1
sg3221
(lp4160
sbssg3306
(lp4161
(issf_api
Chunk
p4162
(dp4163
g3217
g2237
sg42
I0
sg3310
g2248
sg43
I5
sg3208
(lp4164
I110
aI111
aI112
asg48
(issf_api
FeatureSet
p4165
(dp4166
g12
(dp4167
S'name'
p4168
g4127
sS'drel'
p4169
S'rh:VGF'
p4170
ssbsba(issf_api
Chunk
p4171
(dp4172
g3217
g2304
sg42
I1
sg3310
g2315
sg43
I5
sg3208
(lp4173
I113
aI114
aI115
asg48
(issf_api
FeatureSet
p4174
(dp4175
g12
(dp4176
S'name'
p4177
g4130
sS'drel'
p4178
S'k7:VGF'
p4179
ssbsba(issf_api
Chunk
p4180
(dp4181
g3217
g2346
sg42
I2
sg3310
g2351
sg43
I5
sg3208
(lp4182
I116
asg48
(issf_api
FeatureSet
p4183
(dp4184
g12
(dp4185
S'name'
p4186
g4128
sS'drel'
p4187
S'adv:VGF'
p4188
ssbsba(issf_api
Chunk
p4189
(dp4190
g3217
g2365
sg42
I3
sg3310
g2370
sg43
I5
sg3208
(lp4191
I117
asg48
(issf_api
FeatureSet
p4192
(dp4193
g12
(dp4194
S'name'
p4195
g4129
sS'drel'
p4196
S'k2:VGF'
p4197
ssbsba(issf_api
Chunk
p4198
(dp4199
g3217
g2384
sg42
I4
sg3310
g2389
sg43
I5
sg3208
(lp4200
I118
asg48
(issf_api
FeatureSet
p4201
(dp4202
g12
(dp4203
S'name'
p4204
g4125
sS'drel'
p4205
S'pof:VGF'
p4206
ssbsba(issf_api
Chunk
p4207
(dp4208
g3217
g2403
sg42
I5
sg3310
g2412
sg43
I5
sg3208
(lp4209
I119
aI120
aI121
aI122
asg48
(issf_api
FeatureSet
p4210
(dp4211
g12
(dp4212
S'name'
p4213
g4121
ssbsba(issf_api
Chunk
p4214
(dp4215
g3217
g2477
sg42
I6
sg3310
g2482
sg43
I5
sg3208
(lp4216
I123
asg48
(issf_api
FeatureSet
p4217
(dp4218
g12
(dp4219
S'name'
p4220
g4126
sS'drel'
p4221
S'rsym:VGF'
p4222
ssbsbasba(issf_api
Sentence
p4223
(dp4224
g3206
(lp4225
sg43
I6
sg3208
(lp4226
I124
aI125
aI126
aI127
aI128
aI129
aI130
aI131
aI132
aI133
aI134
aI135
aI136
aI137
aI138
aI139
asg3210
(dp4227
S'VGNF'
p4228
(issf_api
Node
p4229
(dp4230
g3215
S'nmod__k1inv'
p4231
sg3217
g4228
sg3218
S'NP3'
p4232
sg3220
I-1
sg42
I5
sg3221
(lp4233
S'NP2'
p4234
asbsS'VGF'
p4235
(issf_api
Node
p4236
(dp4237
g3215
g3228
sg3217
g4235
sg3218
g3228
sg3220
I-1
sg42
I8
sg3221
(lp4238
S'BLK'
p4239
aS'NP4'
p4240
aS'NP3'
p4241
asbsS'CCP'
p4242
(issf_api
Node
p4243
(dp4244
g3215
S'nmod'
p4245
sg3217
g4242
sg3218
S'NP'
p4246
sg3220
I-1
sg42
I1
sg3221
(lp4247
S'JJP'
p4248
aS'JJP2'
p4249
asbsg4248
(issf_api
Node
p4250
(dp4251
g3215
S'ccof'
p4252
sg3217
g4248
sg3218
S'CCP'
p4253
sg3220
I-1
sg42
I0
sg3221
(lp4254
sbsg4249
(issf_api
Node
p4255
(dp4256
g3215
S'ccof'
p4257
sg3217
g4249
sg3218
S'CCP'
p4258
sg3220
I-1
sg42
I2
sg3221
(lp4259
sbsg4239
(issf_api
Node
p4260
(dp4261
g3215
S'rsym'
p4262
sg3217
g4239
sg3218
S'VGF'
p4263
sg3220
I-1
sg42
I9
sg3221
(lp4264
sbsS'NP'
p4265
(issf_api
Node
p4266
(dp4267
g3215
S'r6'
p4268
sg3217
g4265
sg3218
S'NP2'
p4269
sg3220
I-1
sg42
I3
sg3221
(lp4270
g4242
asbsg4240
(issf_api
Node
p4271
(dp4272
g3215
S'k2'
p4273
sg3217
g4240
sg3218
S'VGF'
p4274
sg3220
I-1
sg42
I7
sg3221
(lp4275
sbsg4241
(issf_api
Node
p4276
(dp4277
g3215
S'k1'
p4278
sg3217
g4241
sg3218
S'VGF'
p4279
sg3220
I-1
sg42
I6
sg3221
(lp4280
g4228
asbsg4234
(issf_api
Node
p4281
(dp4282
g3215
S'k2'
p4283
sg3217
g4234
sg3218
S'VGNF'
p4284
sg3220
I-1
sg42
I4
sg3221
(lp4285
g4265
asbssg3306
(lp4286
(issf_api
Chunk
p4287
(dp4288
g3217
g2496
sg42
I0
sg3310
g2503
sg43
I6
sg3208
(lp4289
I124
asg48
(issf_api
FeatureSet
p4290
(dp4291
g12
(dp4292
S'name'
p4293
g4248
sS'drel'
p4294
S'ccof:CCP'
p4295
ssbsba(issf_api
Chunk
p4296
(dp4297
g3217
g2517
sg42
I1
sg3310
g2524
sg43
I6
sg3208
(lp4298
I125
asg48
(issf_api
FeatureSet
p4299
(dp4300
g12
(dp4301
S'name'
p4302
g4242
sS'drel'
p4303
S'nmod:NP'
p4304
ssbsba(issf_api
Chunk
p4305
(dp4306
g3217
g2538
sg42
I2
sg3310
g2545
sg43
I6
sg3208
(lp4307
I126
asg48
(issf_api
FeatureSet
p4308
(dp4309
g12
(dp4310
S'name'
p4311
g4249
sS'drel'
p4312
S'ccof:CCP'
p4313
ssbsba(issf_api
Chunk
p4314
(dp4315
g3217
g2561
sg42
I3
sg3310
g2572
sg43
I6
sg3208
(lp4316
I127
aI128
asg48
(issf_api
FeatureSet
p4317
(dp4318
g12
(dp4319
S'name'
p4320
g4265
sS'drel'
p4321
S'r6:NP2'
p4322
ssbsba(issf_api
Chunk
p4323
(dp4324
g3217
g2603
sg42
I4
sg3310
g2608
sg43
I6
sg3208
(lp4325
I129
asg48
(issf_api
FeatureSet
p4326
(dp4327
g12
(dp4328
S'name'
p4329
g4234
sS'drel'
p4330
S'k2:VGNF'
p4331
ssbsba(issf_api
Chunk
p4332
(dp4333
g3217
g2622
sg42
I5
sg3310
g2629
sg43
I6
sg3208
(lp4334
I130
aI131
asg48
(issf_api
FeatureSet
p4335
(dp4336
g12
(dp4337
S'name'
p4338
g4228
sS'drel'
p4339
S'nmod__k1inv:NP3'
p4340
ssbsba(issf_api
Chunk
p4341
(dp4342
g3217
g2677
sg42
I6
sg3310
g2684
sg43
I6
sg3208
(lp4343
I132
aI133
aI134
aI135
asg48
(issf_api
FeatureSet
p4344
(dp4345
g12
(dp4346
S'name'
p4347
g4241
sS'drel'
p4348
S'k1:VGF'
p4349
ssbsba(issf_api
Chunk
p4350
(dp4351
g3217
g2732
sg42
I7
sg3310
g2737
sg43
I6
sg3208
(lp4352
I136
asg48
(issf_api
FeatureSet
p4353
(dp4354
g12
(dp4355
S'name'
p4356
g4240
sS'drel'
p4357
S'k2:VGF'
p4358
ssbsba(issf_api
Chunk
p4359
(dp4360
g3217
g2751
sg42
I8
sg3310
g2760
sg43
I6
sg3208
(lp4361
I137
aI138
asg48
(issf_api
FeatureSet
p4362
(dp4363
g12
(dp4364
S'name'
p4365
g4235
ssbsba(issf_api
Chunk
p4366
(dp4367
g3217
g2791
sg42
I9
sg3310
g2796
sg43
I6
sg3208
(lp4368
I139
asg48
(issf_api
FeatureSet
p4369
(dp4370
g12
(dp4371
S'name'
p4372
g4239
sS'drel'
p4373
S'rsym:VGF'
p4374
ssbsbasba(issf_api
Sentence
p4375
(dp4376
g3206
(lp4377
sg43
I7
sg3208
(lp4378
I140
aI141
aI142
aI143
aI144
aI145
aI146
aI147
aI148
aI149
aI150
aI151
aI152
aI153
asg3210
(dp4379
S'VGF'
p4380
(issf_api
Node
p4381
(dp4382
g3215
g3228
sg3217
g4380
sg3218
g3228
sg3220
I-1
sg42
I4
sg3221
(lp4383
S'BLK'
p4384
aS'NP'
p4385
aS'NP4'
p4386
aS'NP3'
p4387
asbsg4384
(issf_api
Node
p4388
(dp4389
g3215
S'rsym'
p4390
sg3217
g4384
sg3218
S'VGF'
p4391
sg3220
I-1
sg42
I5
sg3221
(lp4392
sbsg4385
(issf_api
Node
p4393
(dp4394
g3215
S'rh'
p4395
sg3217
g4385
sg3218
S'VGF'
p4396
sg3220
I-1
sg42
I0
sg3221
(lp4397
sbsg4386
(issf_api
Node
p4398
(dp4399
g3215
S'k1'
p4400
sg3217
g4386
sg3218
S'VGF'
p4401
sg3220
I-1
sg42
I3
sg3221
(lp4402
sbsg4387
(issf_api
Node
p4403
(dp4404
g3215
S'k7'
p4405
sg3217
g4387
sg3218
S'VGF'
p4406
sg3220
I-1
sg42
I2
sg3221
(lp4407
S'NP2'
p4408
asbsg4408
(issf_api
Node
p4409
(dp4410
g3215
S'r6'
p4411
sg3217
g4408
sg3218
S'NP3'
p4412
sg3220
I-1
sg42
I1
sg3221
(lp4413
sbssg3306
(lp4414
(issf_api
Chunk
p4415
(dp4416
g3217
g2831
sg42
I0
sg3310
g2842
sg43
I7
sg3208
(lp4417
I140
aI141
aI142
aI143
asg48
(issf_api
FeatureSet
p4418
(dp4419
g12
(dp4420
S'name'
p4421
g4385
sS'drel'
p4422
S'rh:VGF'
p4423
ssbsba(issf_api
Chunk
p4424
(dp4425
g3217
g2928
sg42
I1
sg3310
g2937
sg43
I7
sg3208
(lp4426
I144
aI145
aI146
aI147
asg48
(issf_api
FeatureSet
p4427
(dp4428
g12
(dp4429
S'name'
p4430
g4408
sS'drel'
p4431
S'r6:NP3'
p4432
ssbsba(issf_api
Chunk
p4433
(dp4434
g3217
g2970
sg42
I2
sg3310
g2983
sg43
I7
sg3208
(lp4435
I148
aI149
asg48
(issf_api
FeatureSet
p4436
(dp4437
g12
(dp4438
S'name'
p4439
g4387
sS'drel'
p4440
S'k7:VGF'
p4441
ssbsba(issf_api
Chunk
p4442
(dp4443
g3217
g3014
sg42
I3
sg3310
g3019
sg43
I7
sg3208
(lp4444
I150
asg48
(issf_api
FeatureSet
p4445
(dp4446
g12
(dp4447
S'name'
p4448
g4386
sS'drel'
p4449
S'k1:VGF'
p4450
ssbsba(issf_api
Chunk
p4451
(dp4452
g3217
g3033
sg42
I4
sg3310
g3042
sg43
I7
sg3208
(lp4453
I151
aI152
asg48
(issf_api
FeatureSet
p4454
(dp4455
g12
(dp4456
S'name'
p4457
g4380
ssbsba(issf_api
Chunk
p4458
(dp4459
g3217
g3073
sg42
I5
sg3310
g3078
sg43
I7
sg3208
(lp4460
I153
asg48
(issf_api
FeatureSet
p4461
(dp4462
g12
(dp4463
S'name'
p4464
g4384
sS'drel'
p4465
S'rsym:VGF'
p4466
ssbsbasba(issf_api
Sentence
p4467
(dp4468
g3206
(lp4469
sg43
I8
sg3208
(lp4470
I154
aI155
aI156
aI157
aI158
aI159
aI160
asg3210
(dp4471
S'NP'
p4472
(issf_api
Node
p4473
(dp4474
g3215
g3228
sg3217
g4472
sg3218
g3228
sg3220
I-1
sg42
I0
sg3221
(lp4475
sbsS'BLK'
p4476
(issf_api
Node
p4477
(dp4478
g3215
S'rsym'
p4479
sg3217
g4476
sg3218
S'NP2'
p4480
sg3220
I-1
sg42
I2
sg3221
(lp4481
sbsS'NP2'
p4482
(issf_api
Node
p4483
(dp4484
g3215
g3228
sg3217
g4482
sg3218
g3228
sg3220
I-1
sg42
I1
sg3221
(lp4485
g4476
asbssg3306
(lp4486
(issf_api
Chunk
p4487
(dp4488
g3217
g3127
sg42
I0
sg3310
g3130
sg43
I8
sg3208
(lp4489
I154
aI155
aI156
asg48
(issf_api
FeatureSet
p4490
(dp4491
g12
(dp4492
S'name'
p4493
g4472
ssbsba(issf_api
Chunk
p4494
(dp4495
g3217
g3161
sg42
I1
sg3310
g3166
sg43
I8
sg3208
(lp4496
I157
aI158
aI159
asg48
(issf_api
FeatureSet
p4497
(dp4498
g12
(dp4499
S'name'
p4500
g4482
ssbsba(issf_api
Chunk
p4501
(dp4502
g3217
g3196
sg42
I2
sg3310
g3201
sg43
I8
sg3208
(lp4503
I160
asg48
(issf_api
FeatureSet
p4504
(dp4505
g12
(dp4506
S'name'
p4507
g4476
sS'drel'
p4508
S'rsym:NP2'
p4509
ssbsbasbasb.