(lp0
(i__main__
Chain
p1
(dp2
S'mentionList'
p3
(lp4
(i__main__
Mention
p5
(dp6
S'chainId'
p7
S't1'
p8
sS'relType'
p9
NsS'mentionId'
p10
S'i1'
p11
sS'antecedentId'
p12
NsS'crefMod'
p13
NsS'tokenList'
p14
(lp15
(i__main__
Token
p16
(dp17
S'tokenId'
p18
I0
sbasS'mentionHead'
p19
I0
sba(i__main__
Mention
p20
(dp21
g7
S't1'
p22
sg9
S'Anaphora-C'
p23
sg10
S'i2'
p24
sg12
S'i1'
p25
sg13
Nsg14
(lp26
(i__main__
Token
p27
(dp28
g18
I6
sbasg19
I6
sba(i__main__
Mention
p29
(dp30
g7
S't1'
p31
sg9
S'Anaphora-C'
p32
sg10
S'i4'
p33
sg12
S'i2'
p34
sg13
Nsg14
(lp35
(i__main__
Token
p36
(dp37
g18
I21
sbasg19
I21
sba(i__main__
Mention
p38
(dp39
g7
S't1'
p40
sg9
S'Coreference-Identity'
p41
sg10
S'i5'
p42
sg12
S'i4'
p43
sg13
Nsg14
(lp44
(i__main__
Token
p45
(dp46
g18
I32
sbasg19
I32
sba(i__main__
Mention
p47
(dp48
g7
S't1'
p49
sg9
S'Anaphora-C'
p50
sg10
S'i9'
p51
sg12
S'i5'
p52
sg13
Nsg14
(lp53
(i__main__
Token
p54
(dp55
g18
I45
sbasg19
I45
sba(i__main__
Mention
p56
(dp57
g7
S't1'
p58
sg9
S'Coreference-Identity'
p59
sg10
S'i11'
p60
sg12
S'i9'
p61
sg13
Nsg14
(lp62
(i__main__
Token
p63
(dp64
g18
I57
sbasg19
I57
sba(i__main__
Mention
p65
(dp66
g7
S't1'
p67
sg9
S'Coreference-Identity'
p68
sg10
S'i24'
p69
sg12
S'i11'
p70
sg13
Nsg14
(lp71
(i__main__
Token
p72
(dp73
g18
I109
sbasg19
I109
sba(i__main__
Mention
p74
(dp75
g7
S't1'
p76
sg9
Nsg10
S'i35'
p77
sg12
Nsg13
Nsg14
(lp78
(i__main__
Token
p79
(dp80
g18
I192
sba(i__main__
Token
p81
(dp82
g18
I193
sbasg19
Nsba(i__main__
Mention
p83
(dp84
g7
S't1'
p85
sg9
S'Coreference-Identity'
p86
sg10
S'i37'
p87
sg12
S'i35'
p88
sg13
Nsg14
(lp89
(i__main__
Token
p90
(dp91
g18
I201
sbasg19
I201
sba(i__main__
Mention
p92
(dp93
g7
S't1'
p94
sg9
S'Coreference-Identity'
p95
sg10
S'i55'
p96
sg12
S'i37'
p97
sg13
Nsg14
(lp98
(i__main__
Token
p99
(dp100
g18
I273
sbasg19
I273
sbasg7
g8
sS'chainHead'
p101
Nsba(i__main__
Chain
p102
(dp103
g3
(lp104
(i__main__
Mention
p105
(dp106
g7
S't2'
p107
sg9
Nsg10
S'i3'
p108
sg12
Nsg13
Nsg14
(lp109
(i__main__
Token
p110
(dp111
g18
I15
sbasg19
I15
sba(i__main__
Mention
p112
(dp113
g7
S't2'
p114
sg9
S'Coreference-Identity'
p115
sg10
S'i7'
p116
sg12
S'i3'
p117
sg13
Nsg14
(lp118
(i__main__
Token
p119
(dp120
g18
I38
sbasg19
I38
sba(i__main__
Mention
p121
(dp122
g7
S't2'
p123
sg9
S'Coreference-Identity'
p124
sg10
S'i10'
p125
sg12
S'i7'
p126
sg13
Nsg14
(lp127
(i__main__
Token
p128
(dp129
g18
I55
sbasg19
I55
sba(i__main__
Mention
p130
(dp131
g7
S't2'
p132
sg9
S'Coreference-Identity'
p133
sg10
S'i17'
p134
sg12
S'i10'
p135
sg13
Nsg14
(lp136
(i__main__
Token
p137
(dp138
g18
I77
sbasg19
I77
sba(i__main__
Mention
p139
(dp140
g7
S't2'
p141
sg9
S'Coreference-Identity'
p142
sg10
S'i22'
p143
sg12
S'i17'
p144
sg13
Nsg14
(lp145
(i__main__
Token
p146
(dp147
g18
I95
sbasg19
I95
sba(i__main__
Mention
p148
(dp149
g7
S't2'
p150
sg9
S'Anaphora-C'
p151
sg10
S'i23'
p152
sg12
S'i22'
p153
sg13
Nsg14
(lp154
(i__main__
Token
p155
(dp156
g18
I101
sbasg19
I101
sba(i__main__
Mention
p157
(dp158
g7
S't2'
p159
sg9
S'Coreference-Identity'
p160
sg10
S'i26'
p161
sg12
S'i23'
p162
sg13
Nsg14
(lp163
(i__main__
Token
p164
(dp165
g18
I138
sbasg19
I138
sba(i__main__
Mention
p166
(dp167
g7
S't2'
p168
sg9
S'Coreference-Identity'
p169
sg10
S'i32'
p170
sg12
S'i26'
p171
sg13
Nsg14
(lp172
(i__main__
Token
p173
(dp174
g18
I180
sbasg19
I180
sba(i__main__
Mention
p175
(dp176
g7
S't2'
p177
sg9
Nsg10
S'i36'
p178
sg12
Nsg13
Nsg14
(lp179
(i__main__
Token
p180
(dp181
g18
I192
sba(i__main__
Token
p182
(dp183
g18
I193
sbasg19
Nsba(i__main__
Mention
p184
(dp185
g7
S't2'
p186
sg9
S'Coreference-Identity'
p187
sg10
S'i42'
p188
sg12
S'i36'
p189
sg13
Nsg14
(lp190
(i__main__
Token
p191
(dp192
g18
I215
sbasg19
I215
sba(i__main__
Mention
p193
(dp194
g7
S't2'
p195
sg9
S'Coreference-Identity'
p196
sg10
S'i54'
p197
sg12
S'i42'
p198
sg13
Nsg14
(lp199
(i__main__
Token
p200
(dp201
g18
I266
sbasg19
I266
sba(i__main__
Mention
p202
(dp203
g7
S't2'
p204
sg9
S'Coreference-Identity'
p205
sg10
S'i59'
p206
sg12
S'i54'
p207
sg13
Nsg14
(lp208
(i__main__
Token
p209
(dp210
g18
I281
sbasg19
I281
sba(i__main__
Mention
p211
(dp212
g7
S't2'
p213
sg9
S'Coreference-Identity'
p214
sg10
S'i61'
p215
sg12
S'i59'
p216
sg13
Nsg14
(lp217
(i__main__
Token
p218
(dp219
g18
I288
sbasg19
I288
sba(i__main__
Mention
p220
(dp221
g7
S't2'
p222
sg9
S'Coreference-Identity'
p223
sg10
S'i66'
p224
sg12
S'i61'
p225
sg13
Nsg14
(lp226
(i__main__
Token
p227
(dp228
g18
I306
sbasg19
I306
sbasg7
g107
sg101
Nsba(i__main__
Chain
p229
(dp230
g3
(lp231
(i__main__
Mention
p232
(dp233
g7
S't3'
p234
sg9
Nsg10
S'i6'
p235
sg12
Nsg13
Nsg14
(lp236
(i__main__
Token
p237
(dp238
g18
I34
sbasg19
I34
sba(i__main__
Mention
p239
(dp240
g7
S't3'
p241
sg9
S'Anaphora-E'
p242
sg10
S'i8'
p243
sg12
S'i6'
p244
sg13
Nsg14
(lp245
(i__main__
Token
p246
(dp247
g18
I38
sba(i__main__
Token
p248
(dp249
g18
I39
sba(i__main__
Token
p250
(dp251
g18
I40
sba(i__main__
Token
p252
(dp253
g18
I41
sba(i__main__
Token
p254
(dp255
g18
I42
sba(i__main__
Token
p256
(dp257
g18
I43
sba(i__main__
Token
p258
(dp259
g18
I44
sba(i__main__
Token
p260
(dp261
g18
I45
sba(i__main__
Token
p262
(dp263
g18
I46
sba(i__main__
Token
p264
(dp265
g18
I47
sba(i__main__
Token
p266
(dp267
g18
I48
sba(i__main__
Token
p268
(dp269
g18
I49
sba(i__main__
Token
p270
(dp271
g18
I50
sba(i__main__
Token
p272
(dp273
g18
I51
sba(i__main__
Token
p274
(dp275
g18
I52
sba(i__main__
Token
p276
(dp277
g18
I53
sbasg19
I53
sbasg7
g234
sg101
Nsba(i__main__
Chain
p278
(dp279
g3
(lp280
(i__main__
Mention
p281
(dp282
g7
S't4'
p283
sg9
Nsg10
S'i12'
p284
sg12
Nsg13
Nsg14
(lp285
(i__main__
Token
p286
(dp287
g18
I59
sbasg19
I59
sba(i__main__
Mention
p288
(dp289
g7
S't4'
p290
sg9
S'Coreference-NounComplement'
p291
sg10
S'i13'
p292
sg12
S'i12'
p293
sg13
Nsg14
(lp294
(i__main__
Token
p295
(dp296
g18
I60
sba(i__main__
Token
p297
(dp298
g18
I61
sbasg19
I61
sba(i__main__
Mention
p299
(dp300
g7
S't4'
p301
sg9
S'Anaphora-C'
p302
sg10
S'i19'
p303
sg12
S'i13'
p304
sg13
Nsg14
(lp305
(i__main__
Token
p306
(dp307
g18
I82
sbasg19
I82
sba(i__main__
Mention
p308
(dp309
g7
S't4'
p310
sg9
S'Anaphora-C'
p311
sg10
S'i21'
p312
sg12
S'i19'
p313
sg13
Nsg14
(lp314
(i__main__
Token
p315
(dp316
g18
I91
sbasg19
I91
sba(i__main__
Mention
p317
(dp318
g7
S't4'
p319
sg9
S'Coreference-Identity'
p320
sg10
S'i25'
p321
sg12
S'i21'
p322
sg13
Nsg14
(lp323
(i__main__
Token
p324
(dp325
g18
I118
sbasg19
I118
sba(i__main__
Mention
p326
(dp327
g7
S't4'
p328
sg9
S'Coreference-Noun-Noun'
p329
sg10
S'i29'
p330
sg12
S'i25'
p331
sg13
Nsg14
(lp332
(i__main__
Token
p333
(dp334
g18
I161
sba(i__main__
Token
p335
(dp336
g18
I162
sbasg19
I162
sba(i__main__
Mention
p337
(dp338
g7
S't4'
p339
sg9
S'Anaphora-C'
p340
sg10
S'i30'
p341
sg12
S'i29'
p342
sg13
Nsg14
(lp343
(i__main__
Token
p344
(dp345
g18
I169
sbasg19
I169
sba(i__main__
Mention
p346
(dp347
g7
S't4'
p348
sg9
S'Coreference-Noun-Noun'
p349
sg10
S'i34'
p350
sg12
S'i30'
p351
sg13
Nsg14
(lp352
(i__main__
Token
p353
(dp354
g18
I188
sbasg19
I188
sba(i__main__
Mention
p355
(dp356
g7
S't4'
p357
sg9
S'Anaphora-C'
p358
sg10
S'i52'
p359
sg12
S'i34'
p360
sg13
Nsg14
(lp361
(i__main__
Token
p362
(dp363
g18
I250
sbasg19
I250
sbasg7
g283
sg101
Nsba(i__main__
Chain
p364
(dp365
g3
(lp366
(i__main__
Mention
p367
(dp368
g7
S't5'
p369
sg9
Nsg10
S'i14'
p370
sg12
Nsg13
Nsg14
(lp371
(i__main__
Token
p372
(dp373
g18
I63
sbasg19
I63
sbasg7
g369
sg101
Nsba(i__main__
Chain
p374
(dp375
g3
(lp376
(i__main__
Mention
p377
(dp378
g7
S't6'
p379
sg9
Nsg10
S'i16'
p380
sg12
Nsg13
Nsg14
(lp381
(i__main__
Token
p382
(dp383
g18
I70
sbasg19
I70
sbasg7
g379
sg101
Nsba(i__main__
Chain
p384
(dp385
g3
(lp386
(i__main__
Mention
p387
(dp388
g7
S't7'
p389
sg9
Nsg10
S'i18'
p390
sg12
Nsg13
Nsg14
(lp391
(i__main__
Token
p392
(dp393
g18
I77
sba(i__main__
Token
p394
(dp395
g18
I78
sbasg19
I78
sba(i__main__
Mention
p396
(dp397
g7
S't7'
p398
sg9
S'Coreference-Identity'
p399
sg10
S'i27'
p400
sg12
S'i18'
p401
sg13
Nsg14
(lp402
(i__main__
Token
p403
(dp404
g18
I138
sba(i__main__
Token
p405
(dp406
g18
I139
sbasg19
I139
sbasg7
g389
sg101
Nsba(i__main__
Chain
p407
(dp408
g3
(lp409
(i__main__
Mention
p410
(dp411
g7
S't8'
p412
sg9
Nsg10
S'i15'
p413
sg12
Nsg13
Nsg14
(lp414
(i__main__
Token
p415
(dp416
g18
I80
sbasg19
I80
sba(i__main__
Mention
p417
(dp418
g7
S't8'
p419
sg9
S'Anaphora-C'
p420
sg10
S'i20'
p421
sg12
S'i15'
p422
sg13
Nsg14
(lp423
(i__main__
Token
p424
(dp425
g18
I86
sbasg19
I86
sbasg7
g412
sg101
Nsba(i__main__
Chain
p426
(dp427
g3
(lp428
(i__main__
Mention
p429
(dp430
g7
S't9'
p431
sg9
Nsg10
S'i28'
p432
sg12
Nsg13
Nsg14
(lp433
(i__main__
Token
p434
(dp435
g18
I143
sbasg19
I143
sbasg7
g431
sg101
Nsba(i__main__
Chain
p436
(dp437
g3
(lp438
(i__main__
Mention
p439
(dp440
g7
S't10'
p441
sg9
Nsg10
S'i31'
p442
sg12
Nsg13
Nsg14
(lp443
(i__main__
Token
p444
(dp445
g18
I176
sbasg19
I176
sba(i__main__
Mention
p446
(dp447
g7
S't10'
p448
sg9
S'Anaphora-C'
p449
sg10
S'i33'
p450
sg12
S'i31'
p451
sg13
Nsg14
(lp452
(i__main__
Token
p453
(dp454
g18
I182
sbasg19
I182
sbasg7
g441
sg101
Nsba(i__main__
Chain
p455
(dp456
g3
(lp457
(i__main__
Mention
p458
(dp459
g7
S't11'
p460
sg9
Nsg10
S'i38'
p461
sg12
Nsg13
Nsg14
(lp462
(i__main__
Token
p463
(dp464
g18
I201
sba(i__main__
Token
p465
(dp466
g18
I202
sba(i__main__
Token
p467
(dp468
g18
I203
sba(i__main__
Token
p469
(dp470
g18
I204
sba(i__main__
Token
p471
(dp472
g18
I205
sba(i__main__
Token
p473
(dp474
g18
I206
sba(i__main__
Token
p475
(dp476
g18
I207
sba(i__main__
Token
p477
(dp478
g18
I208
sba(i__main__
Token
p479
(dp480
g18
I209
sba(i__main__
Token
p481
(dp482
g18
I210
sba(i__main__
Token
p483
(dp484
g18
I211
sba(i__main__
Token
p485
(dp486
g18
I212
sba(i__main__
Token
p487
(dp488
g18
I213
sba(i__main__
Token
p489
(dp490
g18
I214
sba(i__main__
Token
p491
(dp492
g18
I215
sba(i__main__
Token
p493
(dp494
g18
I216
sba(i__main__
Token
p495
(dp496
g18
I217
sba(i__main__
Token
p497
(dp498
g18
I218
sbasg19
I216
sba(i__main__
Mention
p499
(dp500
g7
S't11'
p501
sg9
S'Anaphora-E'
p502
sg10
S'i53'
p503
sg12
S'i38'
p504
sg13
Nsg14
(lp505
(i__main__
Token
p506
(dp507
g18
I253
sbasg19
I253
sbasg7
g460
sg101
Nsba(i__main__
Chain
p508
(dp509
g3
(lp510
(i__main__
Mention
p511
(dp512
g7
S't12'
p513
sg9
Nsg10
S'i39'
p514
sg12
Nsg13
Nsg14
(lp515
(i__main__
Token
p516
(dp517
g18
I203
sba(i__main__
Token
p518
(dp519
g18
I204
sbasg19
Nsba(i__main__
Mention
p520
(dp521
g7
S't12'
p522
sg9
Nsg10
S'i43'
p523
sg12
Nsg13
Nsg14
(lp524
(i__main__
Token
p525
(dp526
g18
I220
sbasg19
Nsba(i__main__
Mention
p527
(dp528
g7
S't12'
p529
sg9
S'Coreference-PartOf'
p530
sg10
S'i46'
p531
sg12
S'i43'
p532
sg13
Nsg14
(lp533
(i__main__
Token
p534
(dp535
g18
I221
sba(i__main__
Token
p536
(dp537
g18
I222
sba(i__main__
Token
p538
(dp539
g18
I223
sba(i__main__
Token
p540
(dp541
g18
I224
sba(i__main__
Token
p542
(dp543
g18
I225
sba(i__main__
Token
p544
(dp545
g18
I226
sbasg19
I226
sba(i__main__
Mention
p546
(dp547
g7
S't12'
p548
sg9
S'Coreference-PartOf'
p549
sg10
S'i47'
p550
sg12
S'i46'
p551
sg13
Nsg14
(lp552
(i__main__
Token
p553
(dp554
g18
I227
sba(i__main__
Token
p555
(dp556
g18
I228
sbasg19
I228
sbasg7
g513
sg101
Nsba(i__main__
Chain
p557
(dp558
g3
(lp559
(i__main__
Mention
p560
(dp561
g7
S't13'
p562
sg9
Nsg10
S'i40'
p563
sg12
Nsg13
Nsg14
(lp564
(i__main__
Token
p565
(dp566
g18
I203
sba(i__main__
Token
p567
(dp568
g18
I204
sbasg19
Nsba(i__main__
Mention
p569
(dp570
g7
S't13'
p571
sg9
Nsg10
S'i44'
p572
sg12
Nsg13
Nsg14
(lp573
(i__main__
Token
p574
(dp575
g18
I220
sbasg19
Nsba(i__main__
Mention
p576
(dp577
g7
S't13'
p578
sg9
S'Coreference-PartOf'
p579
sg10
S'i48'
p580
sg12
S'i44'
p581
sg13
Nsg14
(lp582
(i__main__
Token
p583
(dp584
g18
I230
sba(i__main__
Token
p585
(dp586
g18
I231
sbasg19
I231
sba(i__main__
Mention
p587
(dp588
g7
S't13'
p589
sg9
S'Coreference-PartOf'
p590
sg10
S'i49'
p591
sg12
S'i48'
p592
sg13
Nsg14
(lp593
(i__main__
Token
p594
(dp595
g18
I232
sba(i__main__
Token
p596
(dp597
g18
I233
sbasg19
I233
sbasg7
g562
sg101
Nsba(i__main__
Chain
p598
(dp599
g3
(lp600
(i__main__
Mention
p601
(dp602
g7
S't14'
p603
sg9
Nsg10
S'i41'
p604
sg12
Nsg13
Nsg14
(lp605
(i__main__
Token
p606
(dp607
g18
I203
sba(i__main__
Token
p608
(dp609
g18
I204
sbasg19
Nsba(i__main__
Mention
p610
(dp611
g7
S't14'
p612
sg9
Nsg10
S'i45'
p613
sg12
Nsg13
Nsg14
(lp614
(i__main__
Token
p615
(dp616
g18
I220
sbasg19
Nsba(i__main__
Mention
p617
(dp618
g7
S't14'
p619
sg9
S'Coreference-PartOf'
p620
sg10
S'i50'
p621
sg12
S'i45'
p622
sg13
Nsg14
(lp623
(i__main__
Token
p624
(dp625
g18
I244
sbasg19
I244
sba(i__main__
Mention
p626
(dp627
g7
S't14'
p628
sg9
S'Coreference-PartOf'
p629
sg10
S'i51'
p630
sg12
S'i50'
p631
sg13
Nsg14
(lp632
(i__main__
Token
p633
(dp634
g18
I245
sba(i__main__
Token
p635
(dp636
g18
I246
sbasg19
I246
sbasg7
g603
sg101
Nsba(i__main__
Chain
p637
(dp638
g3
(lp639
(i__main__
Mention
p640
(dp641
g7
S't15'
p642
sg9
Nsg10
S'i56'
p643
sg12
Nsg13
Nsg14
(lp644
(i__main__
Token
p645
(dp646
g18
I273
sba(i__main__
Token
p647
(dp648
g18
I274
sba(i__main__
Token
p649
(dp650
g18
I275
sba(i__main__
Token
p651
(dp652
g18
I276
sba(i__main__
Token
p653
(dp654
g18
I277
sba(i__main__
Token
p655
(dp656
g18
I278
sba(i__main__
Token
p657
(dp658
g18
I279
sba(i__main__
Token
p659
(dp660
g18
I280
sba(i__main__
Token
p661
(dp662
g18
I281
sba(i__main__
Token
p663
(dp664
g18
I282
sba(i__main__
Token
p665
(dp666
g18
I283
sba(i__main__
Token
p667
(dp668
g18
I284
sba(i__main__
Token
p669
(dp670
g18
I285
sbasg19
I285
sba(i__main__
Mention
p671
(dp672
g7
S't15'
p673
sg9
S'Anaphora-E'
p674
sg10
S'i63'
p675
sg12
S'i56'
p676
sg13
Nsg14
(lp677
(i__main__
Token
p678
(dp679
g18
I298
sbasg19
I298
sbasg7
g642
sg101
Nsba(i__main__
Chain
p680
(dp681
g3
(lp682
(i__main__
Mention
p683
(dp684
g7
S't16'
p685
sg9
Nsg10
S'i57'
p686
sg12
Nsg13
Nsg14
(lp687
(i__main__
Token
p688
(dp689
g18
I275
sbasg19
I275
sba(i__main__
Mention
p690
(dp691
g7
S't16'
p692
sg9
S'Coreference-NounComplement'
p693
sg10
S'i58'
p694
sg12
S'i57'
p695
sg13
Nsg14
(lp696
(i__main__
Token
p697
(dp698
g18
I276
sba(i__main__
Token
p699
(dp700
g18
I277
sbasg19
I277
sba(i__main__
Mention
p701
(dp702
g7
S't16'
p703
sg9
S'Anaphora-C'
p704
sg10
S'i60'
p705
sg12
S'i58'
p706
sg13
Nsg14
(lp707
(i__main__
Token
p708
(dp709
g18
I287
sbasg19
I287
sba(i__main__
Mention
p710
(dp711
g7
S't16'
p712
sg9
S'Coreference-Identity'
p713
sg10
S'i65'
p714
sg12
S'i60'
p715
sg13
Nsg14
(lp716
(i__main__
Token
p717
(dp718
g18
I304
sbasg19
I304
sba(i__main__
Mention
p719
(dp720
g7
S't16'
p721
sg9
Nsg10
S'i67'
p722
sg12
Nsg13
Nsg14
(lp723
(i__main__
Token
p724
(dp725
g18
I325
sba(i__main__
Token
p726
(dp727
g18
I326
sba(i__main__
Token
p728
(dp729
g18
I327
sbasg19
Nsbasg7
g685
sg101
Nsba(i__main__
Chain
p730
(dp731
g3
(lp732
(i__main__
Mention
p733
(dp734
g7
S't17'
p735
sg9
Nsg10
S'i62'
p736
sg12
Nsg13
Nsg14
(lp737
(i__main__
Token
p738
(dp739
g18
I292
sbasg19
I292
sbasg7
g735
sg101
Nsba(i__main__
Chain
p740
(dp741
g3
(lp742
(i__main__
Mention
p743
(dp744
g7
S't18'
p745
sg9
Nsg10
S'i64'
p746
sg12
Nsg13
Nsg14
(lp747
(i__main__
Token
p748
(dp749
g18
I300
sba(i__main__
Token
p750
(dp751
g18
I301
sba(i__main__
Token
p752
(dp753
g18
I302
sbasg19
I302
sba(i__main__
Mention
p754
(dp755
g7
S't18'
p756
sg9
Nsg10
S'i68'
p757
sg12
Nsg13
Nsg14
(lp758
(i__main__
Token
p759
(dp760
g18
I325
sba(i__main__
Token
p761
(dp762
g18
I326
sba(i__main__
Token
p763
(dp764
g18
I327
sbasg19
Nsbasg7
g745
sg101
Nsba.