(lp0
(i__main__
Chain
p1
(dp2
S'mentionList'
p3
(lp4
(i__main__
Mention
p5
(dp6
S'chainId'
p7
S't1'
p8
sS'relType'
p9
NsS'mentionId'
p10
S'i1'
p11
sS'antecedentId'
p12
NsS'crefMod'
p13
NsS'tokenList'
p14
(lp15
(i__main__
Token
p16
(dp17
S'tokenId'
p18
I3
sbasS'mentionHead'
p19
I3
sba(i__main__
Mention
p20
(dp21
g7
S't1'
p22
sg9
S'Coreference-Noun-Noun'
p23
sg10
S'i2'
p24
sg12
S'i1'
p25
sg13
Nsg14
(lp26
(i__main__
Token
p27
(dp28
g18
I4
sba(i__main__
Token
p29
(dp30
g18
I5
sba(i__main__
Token
p31
(dp32
g18
I6
sbasg19
I6
sba(i__main__
Mention
p33
(dp34
g7
S't1'
p35
sg9
S'Coreference-NounComplement'
p36
sg10
S'i3'
p37
sg12
S'i2'
p38
sg13
Nsg14
(lp39
(i__main__
Token
p40
(dp41
g18
I7
sba(i__main__
Token
p42
(dp43
g18
I8
sba(i__main__
Token
p44
(dp45
g18
I9
sbasg19
I9
sba(i__main__
Mention
p46
(dp47
g7
S't1'
p48
sg9
S'Coreference-Identity'
p49
sg10
S'i15'
p50
sg12
S'i3'
p51
sg13
Nsg14
(lp52
(i__main__
Token
p53
(dp54
g18
I115
sbasg19
I115
sba(i__main__
Mention
p55
(dp56
g7
S't1'
p57
sg9
S'Coreference-Identity'
p58
sg10
S'i28'
p59
sg12
S'i15'
p60
sg13
Nsg14
(lp61
(i__main__
Token
p62
(dp63
g18
I225
sbasg19
I225
sba(i__main__
Mention
p64
(dp65
g7
S't1'
p66
sg9
S'Anaphora-C'
p67
sg10
S'i30'
p68
sg12
S'i28'
p69
sg13
Nsg14
(lp70
(i__main__
Token
p71
(dp72
g18
I232
sbasg19
I232
sba(i__main__
Mention
p73
(dp74
g7
S't1'
p75
sg9
S'Anaphora-C'
p76
sg10
S'i37'
p77
sg12
S'i30'
p78
sg13
Nsg14
(lp79
(i__main__
Token
p80
(dp81
g18
I273
sbasg19
I273
sba(i__main__
Mention
p82
(dp83
g7
S't1'
p84
sg9
S'Coreference-Identity'
p85
sg10
S'i44'
p86
sg12
S'i37'
p87
sg13
Nsg14
(lp88
(i__main__
Token
p89
(dp90
g18
I317
sba(i__main__
Token
p91
(dp92
g18
I318
sbasg19
I318
sba(i__main__
Mention
p93
(dp94
g7
S't1'
p95
sg9
S'Anaphora-C'
p96
sg10
S'i49'
p97
sg12
S'i44'
p98
sg13
Nsg14
(lp99
(i__main__
Token
p100
(dp101
g18
I361
sbasg19
I361
sba(i__main__
Mention
p102
(dp103
g7
S't1'
p104
sg9
S'Anaphora-C'
p105
sg10
S'i50'
p106
sg12
S'i49'
p107
sg13
Nsg14
(lp108
(i__main__
Token
p109
(dp110
g18
I366
sbasg19
I366
sba(i__main__
Mention
p111
(dp112
g7
S't1'
p113
sg9
S'Coreference-Identity'
p114
sg10
S'i58'
p115
sg12
S'i50'
p116
sg13
Nsg14
(lp117
(i__main__
Token
p118
(dp119
g18
I424
sba(i__main__
Token
p120
(dp121
g18
I425
sbasg19
I425
sba(i__main__
Mention
p122
(dp123
g7
S't1'
p124
sg9
S'Anaphora-C'
p125
sg10
S'i62'
p126
sg12
S'i58'
p127
sg13
Nsg14
(lp128
(i__main__
Token
p129
(dp130
g18
I457
sbasg19
I457
sba(i__main__
Mention
p131
(dp132
g7
S't1'
p133
sg9
S'Coreference-Identity'
p134
sg10
S'i63'
p135
sg12
S'i62'
p136
sg13
Nsg14
(lp137
(i__main__
Token
p138
(dp139
g18
I458
sba(i__main__
Token
p140
(dp141
g18
I459
sbasg19
I459
sba(i__main__
Mention
p142
(dp143
g7
S't1'
p144
sg9
S'Anaphora-C'
p145
sg10
S'i64'
p146
sg12
S'i63'
p147
sg13
Nsg14
(lp148
(i__main__
Token
p149
(dp150
g18
I463
sbasg19
I463
sbasg7
g8
sS'chainHead'
p151
Nsba(i__main__
Chain
p152
(dp153
g3
(lp154
(i__main__
Mention
p155
(dp156
g7
S't2'
p157
sg9
Nsg10
S'i4'
p158
sg12
Nsg13
Nsg14
(lp159
(i__main__
Token
p160
(dp161
g18
I20
sbasg19
I20
sba(i__main__
Mention
p162
(dp163
g7
S't2'
p164
sg9
S'Coreference-Identity'
p165
sg10
S'i11'
p166
sg12
S'i4'
p167
sg13
Nsg14
(lp168
(i__main__
Token
p169
(dp170
g18
I94
sbasg19
I94
sba(i__main__
Mention
p171
(dp172
g7
S't2'
p173
sg9
S'Coreference-Identity'
p174
sg10
S'i18'
p175
sg12
S'i11'
p176
sg13
Nsg14
(lp177
(i__main__
Token
p178
(dp179
g18
I138
sbasg19
I138
sba(i__main__
Mention
p180
(dp181
g7
S't2'
p182
sg9
S'Coreference-Identity'
p183
sg10
S'i25'
p184
sg12
S'i18'
p185
sg13
Nsg14
(lp186
(i__main__
Token
p187
(dp188
g18
I185
sbasg19
I185
sba(i__main__
Mention
p189
(dp190
g7
S't2'
p191
sg9
S'Coreference-Identity'
p192
sg10
S'i33'
p193
sg12
S'i25'
p194
sg13
Nsg14
(lp195
(i__main__
Token
p196
(dp197
g18
I238
sbasg19
I238
sba(i__main__
Mention
p198
(dp199
g7
S't2'
p200
sg9
S'Coreference-Identity'
p201
sg10
S'i60'
p202
sg12
S'i33'
p203
sg13
Nsg14
(lp204
(i__main__
Token
p205
(dp206
g18
I437
sbasg19
I437
sbasg7
g157
sg151
Nsba(i__main__
Chain
p207
(dp208
g3
(lp209
(i__main__
Mention
p210
(dp211
g7
S't3'
p212
sg9
Nsg10
S'i5'
p213
sg12
Nsg13
Nsg14
(lp214
(i__main__
Token
p215
(dp216
g18
I35
sbasg19
I35
sba(i__main__
Mention
p217
(dp218
g7
S't3'
p219
sg9
S'Coreference-Identity'
p220
sg10
S'i10'
p221
sg12
S'i5'
p222
sg13
Nsg14
(lp223
(i__main__
Token
p224
(dp225
g18
I91
sbasg19
I91
sba(i__main__
Mention
p226
(dp227
g7
S't3'
p228
sg9
S'Coreference-Identity'
p229
sg10
S'i21'
p230
sg12
S'i10'
p231
sg13
Nsg14
(lp232
(i__main__
Token
p233
(dp234
g18
I148
sbasg19
I148
sba(i__main__
Mention
p235
(dp236
g7
S't3'
p237
sg9
S'Coreference-Identity'
p238
sg10
S'i23'
p239
sg12
S'i21'
p240
sg13
Nsg14
(lp241
(i__main__
Token
p242
(dp243
g18
I171
sbasg19
I171
sba(i__main__
Mention
p244
(dp245
g7
S't3'
p246
sg9
S'Coreference-Identity'
p247
sg10
S'i52'
p248
sg12
S'i23'
p249
sg13
Nsg14
(lp250
(i__main__
Token
p251
(dp252
g18
I371
sbasg19
I371
sba(i__main__
Mention
p253
(dp254
g7
S't3'
p255
sg9
S'Anaphora-C'
p256
sg10
S'i53'
p257
sg12
S'i52'
p258
sg13
Nsg14
(lp259
(i__main__
Token
p260
(dp261
g18
I385
sbasg19
I385
sbasg7
g212
sg151
Nsba(i__main__
Chain
p262
(dp263
g3
(lp264
(i__main__
Mention
p265
(dp266
g7
S't4'
p267
sg9
Nsg10
S'i6'
p268
sg12
Nsg13
Nsg14
(lp269
(i__main__
Token
p270
(dp271
g18
I41
sba(i__main__
Token
p272
(dp273
g18
I42
sbasg19
I42
sba(i__main__
Mention
p274
(dp275
g7
S't4'
p276
sg9
S'Coreference-Identity'
p277
sg10
S'i7'
p278
sg12
S'i6'
p279
sg13
Nsg14
(lp280
(i__main__
Token
p281
(dp282
g18
I48
sba(i__main__
Token
p283
(dp284
g18
I49
sbasg19
I49
sba(i__main__
Mention
p285
(dp286
g7
S't4'
p287
sg9
S'Coreference-Identity'
p288
sg10
S'i8'
p289
sg12
S'i7'
p290
sg13
Nsg14
(lp291
(i__main__
Token
p292
(dp293
g18
I67
sba(i__main__
Token
p294
(dp295
g18
I68
sbasg19
I68
sba(i__main__
Mention
p296
(dp297
g7
S't4'
p298
sg9
S'Coreference-Noun-Noun'
p299
sg10
S'i9'
p300
sg12
S'i8'
p301
sg13
Nsg14
(lp302
(i__main__
Token
p303
(dp304
g18
I86
sba(i__main__
Token
p305
(dp306
g18
I87
sbasg19
I87
sba(i__main__
Mention
p307
(dp308
g7
S't4'
p309
sg9
S'Coreference-Noun-Noun'
p310
sg10
S'i35'
p311
sg12
S'i9'
p312
sg13
Nsg14
(lp313
(i__main__
Token
p314
(dp315
g18
I263
sba(i__main__
Token
p316
(dp317
g18
I264
sbasg19
I264
sba(i__main__
Mention
p318
(dp319
g7
S't4'
p320
sg9
S'Coreference-Identity'
p321
sg10
S'i39'
p322
sg12
S'i35'
p323
sg13
Nsg14
(lp324
(i__main__
Token
p325
(dp326
g18
I282
sba(i__main__
Token
p327
(dp328
g18
I283
sbasg19
I283
sba(i__main__
Mention
p329
(dp330
g7
S't4'
p331
sg9
S'Coreference-Noun-Noun'
p332
sg10
S'i85'
p333
sg12
S'i39'
p334
sg13
Nsg14
(lp335
(i__main__
Token
p336
(dp337
g18
I617
sba(i__main__
Token
p338
(dp339
g18
I618
sbasg19
I618
sbasg7
g267
sg151
Nsba(i__main__
Chain
p340
(dp341
g3
(lp342
(i__main__
Mention
p343
(dp344
g7
S't5'
p345
sg9
Nsg10
S'i12'
p346
sg12
Nsg13
Nsg14
(lp347
(i__main__
Token
p348
(dp349
g18
I105
sba(i__main__
Token
p350
(dp351
g18
I106
sbasg19
I106
sba(i__main__
Mention
p352
(dp353
g7
S't5'
p354
sg9
S'Coreference-NounComplement'
p355
sg10
S'i13'
p356
sg12
S'i12'
p357
sg13
Nsg14
(lp358
(i__main__
Token
p359
(dp360
g18
I107
sba(i__main__
Token
p361
(dp362
g18
I108
sbasg19
I108
sba(i__main__
Mention
p363
(dp364
g7
S't5'
p365
sg9
S'Coreference-Identity'
p366
sg10
S'i61'
p367
sg12
S'i13'
p368
sg13
Nsg14
(lp369
(i__main__
Token
p370
(dp371
g18
I452
sba(i__main__
Token
p372
(dp373
g18
I453
sbasg19
I453
sba(i__main__
Mention
p374
(dp375
g7
S't5'
p376
sg9
S'Coreference-Identity'
p377
sg10
S'i67'
p378
sg12
S'i61'
p379
sg13
Nsg14
(lp380
(i__main__
Token
p381
(dp382
g18
I488
sbasg19
I488
sba(i__main__
Mention
p383
(dp384
g7
S't5'
p385
sg9
S'Anaphora-C'
p386
sg10
S'i68'
p387
sg12
S'i67'
p388
sg13
Nsg14
(lp389
(i__main__
Token
p390
(dp391
g18
I492
sbasg19
I492
sba(i__main__
Mention
p392
(dp393
g7
S't5'
p394
sg9
S'Anaphora-C'
p395
sg10
S'i69'
p396
sg12
S'i68'
p397
sg13
Nsg14
(lp398
(i__main__
Token
p399
(dp400
g18
I493
sbasg19
I493
sba(i__main__
Mention
p401
(dp402
g7
S't5'
p403
sg9
S'Anaphora-C'
p404
sg10
S'i72'
p405
sg12
S'i69'
p406
sg13
Nsg14
(lp407
(i__main__
Token
p408
(dp409
g18
I522
sbasg19
I522
sbasg7
g345
sg151
Nsba(i__main__
Chain
p410
(dp411
g3
(lp412
(i__main__
Mention
p413
(dp414
g7
S't6'
p415
sg9
Nsg10
S'i14'
p416
sg12
Nsg13
Nsg14
(lp417
(i__main__
Token
p418
(dp419
g18
I110
sba(i__main__
Token
p420
(dp421
g18
I111
sbasg19
I111
sba(i__main__
Mention
p422
(dp423
g7
S't6'
p424
sg9
S'Coreference-Identity'
p425
sg10
S'i48'
p426
sg12
S'i14'
p427
sg13
Nsg14
(lp428
(i__main__
Token
p429
(dp430
g18
I349
sba(i__main__
Token
p431
(dp432
g18
I350
sbasg19
I350
sbasg7
g415
sg151
Nsba(i__main__
Chain
p433
(dp434
g3
(lp435
(i__main__
Mention
p436
(dp437
g7
S't7'
p438
sg9
Nsg10
S'i16'
p439
sg12
Nsg13
Nsg14
(lp440
(i__main__
Token
p441
(dp442
g18
I136
sbasg19
I136
sba(i__main__
Mention
p443
(dp444
g7
S't7'
p445
sg9
S'Anaphora-RT'
p446
sg10
S'i17'
p447
sg12
S'i16'
p448
sg13
Nsg14
(lp449
(i__main__
Token
p450
(dp451
g18
I137
sba(i__main__
Token
p452
(dp453
g18
I138
sba(i__main__
Token
p454
(dp455
g18
I139
sba(i__main__
Token
p456
(dp457
g18
I140
sba(i__main__
Token
p458
(dp459
g18
I141
sba(i__main__
Token
p460
(dp461
g18
I142
sba(i__main__
Token
p462
(dp463
g18
I143
sba(i__main__
Token
p464
(dp465
g18
I144
sba(i__main__
Token
p466
(dp467
g18
I145
sbasg19
I143
sba(i__main__
Mention
p468
(dp469
g7
S't7'
p470
sg9
S'Anaphora-T'
p471
sg10
S'i19'
p472
sg12
S'i17'
p473
sg13
Nsg14
(lp474
(i__main__
Token
p475
(dp476
g18
I146
sbasg19
I146
sbasg7
g438
sg151
Nsba(i__main__
Chain
p477
(dp478
g3
(lp479
(i__main__
Mention
p480
(dp481
g7
S't8'
p482
sg9
Nsg10
S'i20'
p483
sg12
Nsg13
Nsg14
(lp484
(i__main__
Token
p485
(dp486
g18
I147
sbasg19
I147
sba(i__main__
Mention
p487
(dp488
g7
S't8'
p489
sg9
S'Coreference-Identity'
p490
sg10
S'i22'
p491
sg12
S'i20'
p492
sg13
Nsg14
(lp493
(i__main__
Token
p494
(dp495
g18
I170
sbasg19
I170
sba(i__main__
Mention
p496
(dp497
g7
S't8'
p498
sg9
S'Coreference-Identity'
p499
sg10
S'i24'
p500
sg12
S'i22'
p501
sg13
Nsg14
(lp502
(i__main__
Token
p503
(dp504
g18
I182
sbasg19
I182
sba(i__main__
Mention
p505
(dp506
g7
S't8'
p507
sg9
S'Coreference-Identity'
p508
sg10
S'i43'
p509
sg12
S'i24'
p510
sg13
Nsg14
(lp511
(i__main__
Token
p512
(dp513
g18
I303
sbasg19
I303
sba(i__main__
Mention
p514
(dp515
g7
S't8'
p516
sg9
S'Coreference-Identity'
p517
sg10
S'i51'
p518
sg12
S'i43'
p519
sg13
Nsg14
(lp520
(i__main__
Token
p521
(dp522
g18
I369
sbasg19
I369
sba(i__main__
Mention
p523
(dp524
g7
S't8'
p525
sg9
S'Coreference-Identity'
p526
sg10
S'i65'
p527
sg12
S'i51'
p528
sg13
Nsg14
(lp529
(i__main__
Token
p530
(dp531
g18
I468
sbasg19
I468
sba(i__main__
Mention
p532
(dp533
g7
S't8'
p534
sg9
S'Coreference-Identity'
p535
sg10
S'i74'
p536
sg12
S'i65'
p537
sg13
Nsg14
(lp538
(i__main__
Token
p539
(dp540
g18
I533
sbasg19
I533
sbasg7
g482
sg151
Nsba(i__main__
Chain
p541
(dp542
g3
(lp543
(i__main__
Mention
p544
(dp545
g7
S't9'
p546
sg9
Nsg10
S'i26'
p547
sg12
Nsg13
Nsg14
(lp548
(i__main__
Token
p549
(dp550
g18
I191
sba(i__main__
Token
p551
(dp552
g18
I192
sbasg19
I192
sba(i__main__
Mention
p553
(dp554
g7
S't9'
p555
sg9
S'Coreference-Identity'
p556
sg10
S'i47'
p557
sg12
S'i26'
p558
sg13
Nsg14
(lp559
(i__main__
Token
p560
(dp561
g18
I336
sbasg19
I336
sba(i__main__
Mention
p562
(dp563
g7
S't9'
p564
sg9
S'Coreference-Identity'
p565
sg10
S'i66'
p566
sg12
S'i47'
p567
sg13
Nsg14
(lp568
(i__main__
Token
p569
(dp570
g18
I471
sbasg19
I471
sbasg7
g546
sg151
Nsba(i__main__
Chain
p571
(dp572
g3
(lp573
(i__main__
Mention
p574
(dp575
g7
S't10'
p576
sg9
Nsg10
S'i27'
p577
sg12
Nsg13
Nsg14
(lp578
(i__main__
Token
p579
(dp580
g18
I210
sba(i__main__
Token
p581
(dp582
g18
I211
sba(i__main__
Token
p583
(dp584
g18
I212
sbasg19
I212
sba(i__main__
Mention
p585
(dp586
g7
S't10'
p587
sg9
S'Coreference-Identity'
p588
sg10
S'i59'
p589
sg12
S'i27'
p590
sg13
Nsg14
(lp591
(i__main__
Token
p592
(dp593
g18
I434
sba(i__main__
Token
p594
(dp595
g18
I435
sbasg19
I435
sbasg7
g576
sg151
Nsba(i__main__
Chain
p596
(dp597
g3
(lp598
(i__main__
Mention
p599
(dp600
g7
S't11'
p601
sg9
Nsg10
S'i29'
p602
sg12
Nsg13
Nsg14
(lp603
(i__main__
Token
p604
(dp605
g18
I231
sbasg19
I231
sba(i__main__
Mention
p606
(dp607
g7
S't11'
p608
sg9
S'Anaphora-RT'
p609
sg10
S'i31'
p610
sg12
S'i29'
p611
sg13
Nsg14
(lp612
(i__main__
Token
p613
(dp614
g18
I232
sba(i__main__
Token
p615
(dp616
g18
I233
sba(i__main__
Token
p617
(dp618
g18
I234
sba(i__main__
Token
p619
(dp620
g18
I235
sbasg19
I234
sba(i__main__
Mention
p621
(dp622
g7
S't11'
p623
sg9
S'Anaphora-T'
p624
sg10
S'i32'
p625
sg12
S'i31'
p626
sg13
Nsg14
(lp627
(i__main__
Token
p628
(dp629
g18
I237
sbasg19
I237
sbasg7
g601
sg151
Nsba(i__main__
Chain
p630
(dp631
g3
(lp632
(i__main__
Mention
p633
(dp634
g7
S't12'
p635
sg9
Nsg10
S'i34'
p636
sg12
Nsg13
Nsg14
(lp637
(i__main__
Token
p638
(dp639
g18
I245
sbasg19
I245
sbasg7
g635
sg151
Nsba(i__main__
Chain
p640
(dp641
g3
(lp642
(i__main__
Mention
p643
(dp644
g7
S't13'
p645
sg9
Nsg10
S'i36'
p646
sg12
Nsg13
Nsg14
(lp647
(i__main__
Token
p648
(dp649
g18
I266
sbasg19
I266
sbasg7
g645
sg151
Nsba(i__main__
Chain
p650
(dp651
g3
(lp652
(i__main__
Mention
p653
(dp654
g7
S't14'
p655
sg9
Nsg10
S'i38'
p656
sg12
Nsg13
Nsg14
(lp657
(i__main__
Token
p658
(dp659
g18
I276
sba(i__main__
Token
p660
(dp661
g18
I277
sbasg19
I277
sba(i__main__
Mention
p662
(dp663
g7
S't14'
p664
sg9
S'Coreference-Identity'
p665
sg10
S'i87'
p666
sg12
S'i38'
p667
sg13
Nsg14
(lp668
(i__main__
Token
p669
(dp670
g18
I626
sba(i__main__
Token
p671
(dp672
g18
I627
sbasg19
I627
sbasg7
g655
sg151
Nsba(i__main__
Chain
p673
(dp674
g3
(lp675
(i__main__
Mention
p676
(dp677
g7
S't15'
p678
sg9
Nsg10
S'i40'
p679
sg12
Nsg13
Nsg14
(lp680
(i__main__
Token
p681
(dp682
g18
I290
sbasg19
I290
sbasg7
g678
sg151
Nsba(i__main__
Chain
p683
(dp684
g3
(lp685
(i__main__
Mention
p686
(dp687
g7
S't16'
p688
sg9
Nsg10
S'i41'
p689
sg12
Nsg13
Nsg14
(lp690
(i__main__
Token
p691
(dp692
g18
I292
sba(i__main__
Token
p693
(dp694
g18
I293
sba(i__main__
Token
p695
(dp696
g18
I294
sbasg19
I294
sba(i__main__
Mention
p697
(dp698
g7
S't16'
p699
sg9
S'Coreference-Noun-Noun'
p700
sg10
S'i42'
p701
sg12
S'i41'
p702
sg13
Nsg14
(lp703
(i__main__
Token
p704
(dp705
g18
I296
sba(i__main__
Token
p706
(dp707
g18
I297
sba(i__main__
Token
p708
(dp709
g18
I298
sbasg19
I298
sba(i__main__
Mention
p710
(dp711
g7
S't16'
p712
sg9
S'Coreference-Noun-Noun'
p713
sg10
S'i45'
p714
sg12
S'i42'
p715
sg13
Nsg14
(lp716
(i__main__
Token
p717
(dp718
g18
I323
sba(i__main__
Token
p719
(dp720
g18
I324
sbasg19
I324
sba(i__main__
Mention
p721
(dp722
g7
S't16'
p723
sg9
S'Anaphora-C'
p724
sg10
S'i46'
p725
sg12
S'i45'
p726
sg13
Nsg14
(lp727
(i__main__
Token
p728
(dp729
g18
I333
sbasg19
I333
sba(i__main__
Mention
p730
(dp731
g7
S't16'
p732
sg9
S'Coreference-Identity'
p733
sg10
S'i55'
p734
sg12
S'i46'
p735
sg13
Nsg14
(lp736
(i__main__
Token
p737
(dp738
g18
I394
sba(i__main__
Token
p739
(dp740
g18
I395
sba(i__main__
Token
p741
(dp742
g18
I396
sbasg19
I396
sba(i__main__
Mention
p743
(dp744
g7
S't16'
p745
sg9
S'Coreference-Noun-Noun'
p746
sg10
S'i73'
p747
sg12
S'i55'
p748
sg13
Nsg14
(lp749
(i__main__
Token
p750
(dp751
g18
I525
sba(i__main__
Token
p752
(dp753
g18
I526
sbasg19
I526
sba(i__main__
Mention
p754
(dp755
g7
S't16'
p756
sg9
S'Coreference-Noun-Noun'
p757
sg10
S'i75'
p758
sg12
S'i73'
p759
sg13
Nsg14
(lp760
(i__main__
Token
p761
(dp762
g18
I549
sba(i__main__
Token
p763
(dp764
g18
I550
sba(i__main__
Token
p765
(dp766
g18
I551
sbasg19
I551
sba(i__main__
Mention
p767
(dp768
g7
S't16'
p769
sg9
S'Anaphora-C'
p770
sg10
S'i77'
p771
sg12
S'i75'
p772
sg13
Nsg14
(lp773
(i__main__
Token
p774
(dp775
g18
I558
sbasg19
I558
sba(i__main__
Mention
p776
(dp777
g7
S't16'
p778
sg9
S'Coreference-Identity'
p779
sg10
S'i84'
p780
sg12
S'i77'
p781
sg13
Nsg14
(lp782
(i__main__
Token
p783
(dp784
g18
I603
sba(i__main__
Token
p785
(dp786
g18
I604
sbasg19
I604
sbasg7
g688
sg151
Nsba(i__main__
Chain
p787
(dp788
g3
(lp789
(i__main__
Mention
p790
(dp791
g7
S't17'
p792
sg9
Nsg10
S'i54'
p793
sg12
Nsg13
Nsg14
(lp794
(i__main__
Token
p795
(dp796
g18
I393
sbasg19
I393
sbasg7
g792
sg151
Nsba(i__main__
Chain
p797
(dp798
g3
(lp799
(i__main__
Mention
p800
(dp801
g7
S't18'
p802
sg9
Nsg10
S'i56'
p803
sg12
Nsg13
Nsg14
(lp804
(i__main__
Token
p805
(dp806
g18
I398
sba(i__main__
Token
p807
(dp808
g18
I399
sbasg19
I399
sba(i__main__
Mention
p809
(dp810
g7
S't18'
p811
sg9
S'Anaphora-C'
p812
sg10
S'i57'
p813
sg12
S'i56'
p814
sg13
Nsg14
(lp815
(i__main__
Token
p816
(dp817
g18
I405
sbasg19
I405
sbasg7
g802
sg151
Nsba(i__main__
Chain
p818
(dp819
g3
(lp820
(i__main__
Mention
p821
(dp822
g7
S't19'
p823
sg9
Nsg10
S'i70'
p824
sg12
Nsg13
Nsg14
(lp825
(i__main__
Token
p826
(dp827
g18
I508
sbasg19
I508
sba(i__main__
Mention
p828
(dp829
g7
S't19'
p830
sg9
S'Anaphora-C'
p831
sg10
S'i71'
p832
sg12
S'i70'
p833
sg13
Nsg14
(lp834
(i__main__
Token
p835
(dp836
g18
I513
sbasg19
I513
sbasg7
g823
sg151
Nsba(i__main__
Chain
p837
(dp838
g3
(lp839
(i__main__
Mention
p840
(dp841
g7
S't20'
p842
sg9
Nsg10
S'i76'
p843
sg12
Nsg13
Nsg14
(lp844
(i__main__
Token
p845
(dp846
g18
I556
sba(i__main__
Token
p847
(dp848
g18
I557
sbasg19
I557
sba(i__main__
Mention
p849
(dp850
g7
S't20'
p851
sg9
S'Anaphora-C'
p852
sg10
S'i78'
p853
sg12
S'i76'
p854
sg13
Nsg14
(lp855
(i__main__
Token
p856
(dp857
g18
I565
sbasg19
I565
sbasg7
g842
sg151
Nsba(i__main__
Chain
p858
(dp859
g3
(lp860
(i__main__
Mention
p861
(dp862
g7
S't21'
p863
sg9
Nsg10
S'i79'
p864
sg12
Nsg13
Nsg14
(lp865
(i__main__
Token
p866
(dp867
g18
I576
sbasg19
I576
sba(i__main__
Mention
p868
(dp869
g7
S't21'
p870
sg9
S'Anaphora-C'
p871
sg10
S'i80'
p872
sg12
S'i79'
p873
sg13
Nsg14
(lp874
(i__main__
Token
p875
(dp876
g18
I580
sbasg19
I580
sbasg7
g863
sg151
Nsba(i__main__
Chain
p877
(dp878
g3
(lp879
(i__main__
Mention
p880
(dp881
g7
S't22'
p882
sg9
Nsg10
S'i81'
p883
sg12
Nsg13
Nsg14
(lp884
(i__main__
Token
p885
(dp886
g18
I588
sbasg19
I588
sbasg7
g882
sg151
Nsba(i__main__
Chain
p887
(dp888
g3
(lp889
(i__main__
Mention
p890
(dp891
g7
S't23'
p892
sg9
Nsg10
S'i82'
p893
sg12
Nsg13
Nsg14
(lp894
(i__main__
Token
p895
(dp896
g18
I595
sba(i__main__
Token
p897
(dp898
g18
I596
sbasg19
I596
sba(i__main__
Mention
p899
(dp900
g7
S't23'
p901
sg9
S'Coreference-NounComplement'
p902
sg10
S'i83'
p903
sg12
S'i82'
p904
sg13
Nsg14
(lp905
(i__main__
Token
p906
(dp907
g18
I597
sba(i__main__
Token
p908
(dp909
g18
I598
sba(i__main__
Token
p910
(dp911
g18
I599
sba(i__main__
Token
p912
(dp913
g18
I600
sbasg19
I600
sba(i__main__
Mention
p914
(dp915
g7
S't23'
p916
sg9
S'Anaphora-C'
p917
sg10
S'i86'
p918
sg12
S'i83'
p919
sg13
Nsg14
(lp920
(i__main__
Token
p921
(dp922
g18
I623
sbasg19
I623
sbasg7
g892
sg151
Nsba.