(lp0
(i__main__
Chain
p1
(dp2
S'mentionList'
p3
(lp4
(i__main__
Mention
p5
(dp6
S'chainId'
p7
S't1'
p8
sS'relType'
p9
NsS'mentionId'
p10
S'i1'
p11
sS'antecedentId'
p12
NsS'crefMod'
p13
NsS'tokenList'
p14
(lp15
(i__main__
Token
p16
(dp17
S'tokenId'
p18
I2
sba(i__main__
Token
p19
(dp20
g18
I3
sbasS'mentionHead'
p21
I3
sba(i__main__
Mention
p22
(dp23
g7
S't1'
p24
sg9
S'Coreference-Identity'
p25
sg10
S'i14'
p26
sg12
S'i1'
p27
sg13
Nsg14
(lp28
(i__main__
Token
p29
(dp30
g18
I78
sba(i__main__
Token
p31
(dp32
g18
I79
sbasg21
I79
sbasg7
g8
sS'chainHead'
p33
Nsba(i__main__
Chain
p34
(dp35
g3
(lp36
(i__main__
Mention
p37
(dp38
g7
S't2'
p39
sg9
Nsg10
S'i2'
p40
sg12
Nsg13
Nsg14
(lp41
(i__main__
Token
p42
(dp43
g18
I2
sba(i__main__
Token
p44
(dp45
g18
I3
sba(i__main__
Token
p46
(dp47
g18
I4
sba(i__main__
Token
p48
(dp49
g18
I5
sba(i__main__
Token
p50
(dp51
g18
I6
sba(i__main__
Token
p52
(dp53
g18
I7
sba(i__main__
Token
p54
(dp55
g18
I8
sba(i__main__
Token
p56
(dp57
g18
I9
sba(i__main__
Token
p58
(dp59
g18
I10
sba(i__main__
Token
p60
(dp61
g18
I11
sba(i__main__
Token
p62
(dp63
g18
I12
sba(i__main__
Token
p64
(dp65
g18
I13
sba(i__main__
Token
p66
(dp67
g18
I14
sbasg21
I14
sba(i__main__
Mention
p68
(dp69
g7
S't2'
p70
sg9
S'Coreference-Identity'
p71
sg10
S'i10'
p72
sg12
S'i2'
p73
sg13
Nsg14
(lp74
(i__main__
Token
p75
(dp76
g18
I37
sba(i__main__
Token
p77
(dp78
g18
I38
sbasg21
I38
sba(i__main__
Mention
p79
(dp80
g7
S't2'
p81
sg9
S'Coreference-Identity'
p82
sg10
S'i15'
p83
sg12
S'i10'
p84
sg13
Nsg14
(lp85
(i__main__
Token
p86
(dp87
g18
I78
sba(i__main__
Token
p88
(dp89
g18
I79
sba(i__main__
Token
p90
(dp91
g18
I80
sba(i__main__
Token
p92
(dp93
g18
I81
sba(i__main__
Token
p94
(dp95
g18
I82
sba(i__main__
Token
p96
(dp97
g18
I83
sba(i__main__
Token
p98
(dp99
g18
I84
sba(i__main__
Token
p100
(dp101
g18
I85
sba(i__main__
Token
p102
(dp103
g18
I86
sba(i__main__
Token
p104
(dp105
g18
I87
sbasg21
I87
sba(i__main__
Mention
p106
(dp107
g7
S't2'
p108
sg9
S'Coreference-Noun-Noun'
p109
sg10
S'i18'
p110
sg12
S'i15'
p111
sg13
Nsg14
(lp112
(i__main__
Token
p113
(dp114
g18
I104
sba(i__main__
Token
p115
(dp116
g18
I105
sbasg21
I105
sba(i__main__
Mention
p117
(dp118
g7
S't2'
p119
sg9
S'Coreference-Identity'
p120
sg10
S'i20'
p121
sg12
S'i18'
p122
sg13
Nsg14
(lp123
(i__main__
Token
p124
(dp125
g18
I116
sba(i__main__
Token
p126
(dp127
g18
I117
sbasg21
I117
sba(i__main__
Mention
p128
(dp129
g7
S't2'
p130
sg9
S'Coreference-Noun-Noun'
p131
sg10
S'i24'
p132
sg12
S'i20'
p133
sg13
Nsg14
(lp134
(i__main__
Token
p135
(dp136
g18
I131
sbasg21
I131
sba(i__main__
Mention
p137
(dp138
g7
S't2'
p139
sg9
S'Coreference-Identity'
p140
sg10
S'i27'
p141
sg12
S'i24'
p142
sg13
Nsg14
(lp143
(i__main__
Token
p144
(dp145
g18
I151
sbasg21
I151
sba(i__main__
Mention
p146
(dp147
g7
S't2'
p148
sg9
S'Coreference-Noun-Noun'
p149
sg10
S'i31'
p150
sg12
S'i27'
p151
sg13
Nsg14
(lp152
(i__main__
Token
p153
(dp154
g18
I160
sba(i__main__
Token
p155
(dp156
g18
I161
sbasg21
I161
sbasg7
g39
sg33
Nsba(i__main__
Chain
p157
(dp158
g3
(lp159
(i__main__
Mention
p160
(dp161
g7
S't3'
p162
sg9
Nsg10
S'i3'
p163
sg12
Nsg13
Nsg14
(lp164
(i__main__
Token
p165
(dp166
g18
I17
sba(i__main__
Token
p167
(dp168
g18
I18
sbasg21
I18
sba(i__main__
Mention
p169
(dp170
g7
S't3'
p171
sg9
S'Coreference-NounComplement'
p172
sg10
S'i4'
p173
sg12
S'i3'
p174
sg13
Nsg14
(lp175
(i__main__
Token
p176
(dp177
g18
I19
sba(i__main__
Token
p178
(dp179
g18
I20
sbasg21
I20
sba(i__main__
Mention
p180
(dp181
g7
S't3'
p182
sg9
S'Anaphora-C'
p183
sg10
S'i5'
p184
sg12
S'i4'
p185
sg13
Nsg14
(lp186
(i__main__
Token
p187
(dp188
g18
I22
sbasg21
I22
sba(i__main__
Mention
p189
(dp190
g7
S't3'
p191
sg9
Nsg10
S'i9'
p192
sg12
Nsg13
Nsg14
(lp193
(i__main__
Token
p194
(dp195
g18
I33
sbasg21
Nsba(i__main__
Mention
p196
(dp197
g7
S't3'
p198
sg9
S'Coreference-PartOf'
p199
sg10
S'i12'
p200
sg12
S'i9'
p201
sg13
Nsg14
(lp202
(i__main__
Token
p203
(dp204
g18
I58
sbasg21
I58
sba(i__main__
Mention
p205
(dp206
g7
S't3'
p207
sg9
S'Coreference-Identity'
p208
sg10
S'i16'
p209
sg12
S'i12'
p210
sg13
Nsg14
(lp211
(i__main__
Token
p212
(dp213
g18
I92
sbasg21
I92
sba(i__main__
Mention
p214
(dp215
g7
S't3'
p216
sg9
S'Anaphora-C'
p217
sg10
S'i17'
p218
sg12
S'i16'
p219
sg13
Nsg14
(lp220
(i__main__
Token
p221
(dp222
g18
I102
sbasg21
I102
sba(i__main__
Mention
p223
(dp224
g7
S't3'
p225
sg9
S'Coreference-Identity'
p226
sg10
S'i25'
p227
sg12
S'i17'
p228
sg13
Nsg14
(lp229
(i__main__
Token
p230
(dp231
g18
I140
sbasg21
I140
sba(i__main__
Mention
p232
(dp233
g7
S't3'
p234
sg9
S'Coreference-Identity'
p235
sg10
S'i32'
p236
sg12
S'i25'
p237
sg13
Nsg14
(lp238
(i__main__
Token
p239
(dp240
g18
I172
sbasg21
I172
sba(i__main__
Mention
p241
(dp242
g7
S't3'
p243
sg9
S'Coreference-Identity'
p244
sg10
S'i34'
p245
sg12
S'i32'
p246
sg13
Nsg14
(lp247
(i__main__
Token
p248
(dp249
g18
I194
sbasg21
I194
sba(i__main__
Mention
p250
(dp251
g7
S't3'
p252
sg9
S'Anaphora-C'
p253
sg10
S'i39'
p254
sg12
S'i34'
p255
sg13
Nsg14
(lp256
(i__main__
Token
p257
(dp258
g18
I220
sbasg21
I220
sbasg7
g162
sg33
Nsba(i__main__
Chain
p259
(dp260
g3
(lp261
(i__main__
Mention
p262
(dp263
g7
S't4'
p264
sg9
Nsg10
S'i6'
p265
sg12
Nsg13
Nsg14
(lp266
(i__main__
Token
p267
(dp268
g18
I23
sba(i__main__
Token
p269
(dp270
g18
I24
sbasg21
I24
sba(i__main__
Mention
p271
(dp272
g7
S't4'
p273
sg9
S'Coreference-NounComplement'
p274
sg10
S'i7'
p275
sg12
S'i6'
p276
sg13
Nsg14
(lp277
(i__main__
Token
p278
(dp279
g18
I25
sba(i__main__
Token
p280
(dp281
g18
I26
sbasg21
I26
sba(i__main__
Mention
p282
(dp283
g7
S't4'
p284
sg9
Nsg10
S'i8'
p285
sg12
Nsg13
Nsg14
(lp286
(i__main__
Token
p287
(dp288
g18
I33
sbasg21
Nsba(i__main__
Mention
p289
(dp290
g7
S't4'
p291
sg9
S'Coreference-PartOf'
p292
sg10
S'i11'
p293
sg12
S'i8'
p294
sg13
Nsg14
(lp295
(i__main__
Token
p296
(dp297
g18
I49
sbasg21
I49
sba(i__main__
Mention
p298
(dp299
g7
S't4'
p300
sg9
S'Coreference-Identity'
p301
sg10
S'i13'
p302
sg12
S'i11'
p303
sg13
Nsg14
(lp304
(i__main__
Token
p305
(dp306
g18
I76
sbasg21
I76
sba(i__main__
Mention
p307
(dp308
g7
S't4'
p309
sg9
S'Anaphora-C'
p310
sg10
S'i19'
p311
sg12
S'i13'
p312
sg13
Nsg14
(lp313
(i__main__
Token
p314
(dp315
g18
I113
sbasg21
I113
sbasg7
g264
sg33
Nsba(i__main__
Chain
p316
(dp317
g3
(lp318
(i__main__
Mention
p319
(dp320
g7
S't5'
p321
sg9
Nsg10
S'i21'
p322
sg12
Nsg13
Nsg14
(lp323
(i__main__
Token
p324
(dp325
g18
I119
sbasg21
I119
sba(i__main__
Mention
p326
(dp327
g7
S't5'
p328
sg9
S'Coreference-Identity'
p329
sg10
S'i29'
p330
sg12
S'i21'
p331
sg13
Nsg14
(lp332
(i__main__
Token
p333
(dp334
g18
I153
sbasg21
I153
sbasg7
g321
sg33
Nsba(i__main__
Chain
p335
(dp336
g3
(lp337
(i__main__
Mention
p338
(dp339
g7
S't6'
p340
sg9
Nsg10
S'i22'
p341
sg12
Nsg13
Nsg14
(lp342
(i__main__
Token
p343
(dp344
g18
I120
sba(i__main__
Token
p345
(dp346
g18
I121
sbasg21
I121
sba(i__main__
Mention
p347
(dp348
g7
S't6'
p349
sg9
S'Coreference-NounComplement'
p350
sg10
S'i23'
p351
sg12
S'i22'
p352
sg13
Nsg14
(lp353
(i__main__
Token
p354
(dp355
g18
I122
sba(i__main__
Token
p356
(dp357
g18
I123
sba(i__main__
Token
p358
(dp359
g18
I124
sbasg21
I124
sba(i__main__
Mention
p360
(dp361
g7
S't6'
p362
sg9
S'Coreference-Identity'
p363
sg10
S'i26'
p364
sg12
S'i23'
p365
sg13
Nsg14
(lp366
(i__main__
Token
p367
(dp368
g18
I149
sbasg21
I149
sbasg7
g340
sg33
Nsba(i__main__
Chain
p369
(dp370
g3
(lp371
(i__main__
Mention
p372
(dp373
g7
S't7'
p374
sg9
Nsg10
S'i28'
p375
sg12
Nsg13
Nsg14
(lp376
(i__main__
Token
p377
(dp378
g18
I151
sba(i__main__
Token
p379
(dp380
g18
I152
sba(i__main__
Token
p381
(dp382
g18
I153
sba(i__main__
Token
p383
(dp384
g18
I154
sba(i__main__
Token
p385
(dp386
g18
I155
sba(i__main__
Token
p387
(dp388
g18
I156
sba(i__main__
Token
p389
(dp390
g18
I157
sbasg21
I156
sba(i__main__
Mention
p391
(dp392
g7
S't7'
p393
sg9
S'Anaphora-C'
p394
sg10
S'i33'
p395
sg12
S'i28'
p396
sg13
Nsg14
(lp397
(i__main__
Token
p398
(dp399
g18
I186
sbasg21
I186
sbasg7
g374
sg33
Nsba(i__main__
Chain
p400
(dp401
g3
(lp402
(i__main__
Mention
p403
(dp404
g7
S't8'
p405
sg9
S'anaphora-?'
p406
sg10
S'i30'
p407
sg12
S'i30'
p408
sg13
Nsg14
(lp409
(i__main__
Token
p410
(dp411
g18
I159
sbasg21
I159
sbasg7
g405
sg33
Nsba(i__main__
Chain
p412
(dp413
g3
(lp414
(i__main__
Mention
p415
(dp416
g7
S't9'
p417
sg9
Nsg10
S'i35'
p418
sg12
Nsg13
Nsg14
(lp419
(i__main__
Token
p420
(dp421
g18
I196
sbasg21
I196
sba(i__main__
Mention
p422
(dp423
g7
S't9'
p424
sg9
S'Coreference-Identity'
p425
sg10
S'i37'
p426
sg12
S'i35'
p427
sg13
Nsg14
(lp428
(i__main__
Token
p429
(dp430
g18
I200
sbasg21
I200
sba(i__main__
Mention
p431
(dp432
g7
S't9'
p433
sg9
S'Coreference-Identity'
p434
sg10
S'i40'
p435
sg12
S'i37'
p436
sg13
Nsg14
(lp437
(i__main__
Token
p438
(dp439
g18
I221
sbasg21
I221
sba(i__main__
Mention
p440
(dp441
g7
S't9'
p442
sg9
S'Coreference-Identity'
p443
sg10
S'i41'
p444
sg12
S'i40'
p445
sg13
Nsg14
(lp446
(i__main__
Token
p447
(dp448
g18
I225
sbasg21
I225
sbasg7
g417
sg33
Nsba(i__main__
Chain
p449
(dp450
g3
(lp451
(i__main__
Mention
p452
(dp453
g7
S't10'
p454
sg9
Nsg10
S'i36'
p455
sg12
Nsg13
Nsg14
(lp456
(i__main__
Token
p457
(dp458
g18
I196
sba(i__main__
Token
p459
(dp460
g18
I197
sba(i__main__
Token
p461
(dp462
g18
I198
sba(i__main__
Token
p463
(dp464
g18
I199
sba(i__main__
Token
p465
(dp466
g18
I200
sba(i__main__
Token
p467
(dp468
g18
I201
sba(i__main__
Token
p469
(dp470
g18
I202
sba(i__main__
Token
p471
(dp472
g18
I203
sba(i__main__
Token
p473
(dp474
g18
I204
sba(i__main__
Token
p475
(dp476
g18
I205
sba(i__main__
Token
p477
(dp478
g18
I206
sba(i__main__
Token
p479
(dp480
g18
I207
sba(i__main__
Token
p481
(dp482
g18
I208
sba(i__main__
Token
p483
(dp484
g18
I209
sba(i__main__
Token
p485
(dp486
g18
I210
sba(i__main__
Token
p487
(dp488
g18
I211
sba(i__main__
Token
p489
(dp490
g18
I212
sba(i__main__
Token
p491
(dp492
g18
I213
sba(i__main__
Token
p493
(dp494
g18
I214
sba(i__main__
Token
p495
(dp496
g18
I215
sba(i__main__
Token
p497
(dp498
g18
I216
sbasg21
I216
sba(i__main__
Mention
p499
(dp500
g7
S't10'
p501
sg9
S'Anaphora-E'
p502
sg10
S'i38'
p503
sg12
S'i36'
p504
sg13
Nsg14
(lp505
(i__main__
Token
p506
(dp507
g18
I218
sbasg21
I218
sbasg7
g454
sg33
Nsba.