(lp0
(i__main__
Chain
p1
(dp2
S'mentionList'
p3
(lp4
(i__main__
Mention
p5
(dp6
S'chainId'
p7
S't1'
p8
sS'relType'
p9
NsS'mentionId'
p10
S'i1'
p11
sS'antecedentId'
p12
NsS'crefMod'
p13
NsS'tokenList'
p14
(lp15
(i__main__
Token
p16
(dp17
S'tokenId'
p18
I0
sbasS'mentionHead'
p19
I0
sba(i__main__
Mention
p20
(dp21
g7
S't1'
p22
sg9
S'Coreference-Identity'
p23
sg10
S'i7'
p24
sg12
S'i1'
p25
sg13
Nsg14
(lp26
(i__main__
Token
p27
(dp28
g18
I48
sbasg19
I48
sba(i__main__
Mention
p29
(dp30
g7
S't1'
p31
sg9
S'Coreference-Identity'
p32
sg10
S'i30'
p33
sg12
S'i7'
p34
sg13
Nsg14
(lp35
(i__main__
Token
p36
(dp37
g18
I228
sbasg19
I228
sbasg7
g8
sS'chainHead'
p38
Nsba(i__main__
Chain
p39
(dp40
g3
(lp41
(i__main__
Mention
p42
(dp43
g7
S't2'
p44
sg9
Nsg10
S'i2'
p45
sg12
Nsg13
Nsg14
(lp46
(i__main__
Token
p47
(dp48
g18
I2
sba(i__main__
Token
p49
(dp50
g18
I3
sba(i__main__
Token
p51
(dp52
g18
I4
sba(i__main__
Token
p53
(dp54
g18
I5
sbasg19
I5
sba(i__main__
Mention
p55
(dp56
g7
S't2'
p57
sg9
S'Coreference-Identity'
p58
sg10
S'i9'
p59
sg12
S'i2'
p60
sg13
Nsg14
(lp61
(i__main__
Token
p62
(dp63
g18
I57
sba(i__main__
Token
p64
(dp65
g18
I58
sbasg19
I58
sba(i__main__
Mention
p66
(dp67
g7
S't2'
p68
sg9
S'Coreference-Identity'
p69
sg10
S'i12'
p70
sg12
S'i9'
p71
sg13
Nsg14
(lp72
(i__main__
Token
p73
(dp74
g18
I82
sba(i__main__
Token
p75
(dp76
g18
I83
sbasg19
I83
sba(i__main__
Mention
p77
(dp78
g7
S't2'
p79
sg9
S'Coreference-Identity'
p80
sg10
S'i14'
p81
sg12
S'i12'
p82
sg13
Nsg14
(lp83
(i__main__
Token
p84
(dp85
g18
I101
sba(i__main__
Token
p86
(dp87
g18
I102
sbasg19
I102
sba(i__main__
Mention
p88
(dp89
g7
S't2'
p90
sg9
S'Anaphora-C'
p91
sg10
S'i16'
p92
sg12
S'i14'
p93
sg13
Nsg14
(lp94
(i__main__
Token
p95
(dp96
g18
I114
sbasg19
I114
sba(i__main__
Mention
p97
(dp98
g7
S't2'
p99
sg9
S'Coreference-Identity'
p100
sg10
S'i20'
p101
sg12
S'i16'
p102
sg13
Nsg14
(lp103
(i__main__
Token
p104
(dp105
g18
I131
sba(i__main__
Token
p106
(dp107
g18
I132
sbasg19
I132
sba(i__main__
Mention
p108
(dp109
g7
S't2'
p110
sg9
S'Anaphora-C'
p111
sg10
S'i21'
p112
sg12
S'i20'
p113
sg13
Nsg14
(lp114
(i__main__
Token
p115
(dp116
g18
I153
sbasg19
I153
sba(i__main__
Mention
p117
(dp118
g7
S't2'
p119
sg9
S'Anaphora-C'
p120
sg10
S'i23'
p121
sg12
S'i21'
p122
sg13
Nsg14
(lp123
(i__main__
Token
p124
(dp125
g18
I168
sbasg19
I168
sba(i__main__
Mention
p126
(dp127
g7
S't2'
p128
sg9
S'Coreference-Identity'
p129
sg10
S'i24'
p130
sg12
S'i23'
p131
sg13
Nsg14
(lp132
(i__main__
Token
p133
(dp134
g18
I190
sba(i__main__
Token
p135
(dp136
g18
I191
sbasg19
I191
sba(i__main__
Mention
p137
(dp138
g7
S't2'
p139
sg9
S'Anaphora-C'
p140
sg10
S'i28'
p141
sg12
S'i24'
p142
sg13
Nsg14
(lp143
(i__main__
Token
p144
(dp145
g18
I218
sbasg19
I218
sba(i__main__
Mention
p146
(dp147
g7
S't2'
p148
sg9
S'Coreference-Identity'
p149
sg10
S'i31'
p150
sg12
S'i28'
p151
sg13
Nsg14
(lp152
(i__main__
Token
p153
(dp154
g18
I233
sbasg19
I233
sba(i__main__
Mention
p155
(dp156
g7
S't2'
p157
sg9
S'Coreference-Identity'
p158
sg10
S'i38'
p159
sg12
S'i31'
p160
sg13
Nsg14
(lp161
(i__main__
Token
p162
(dp163
g18
I274
sba(i__main__
Token
p164
(dp165
g18
I275
sbasg19
I275
sbasg7
g44
sg38
Nsba(i__main__
Chain
p166
(dp167
g3
(lp168
(i__main__
Mention
p169
(dp170
g7
S't3'
p171
sg9
Nsg10
S'i3'
p172
sg12
Nsg13
Nsg14
(lp173
(i__main__
Token
p174
(dp175
g18
I10
sba(i__main__
Token
p176
(dp177
g18
I11
sbasg19
I11
sba(i__main__
Mention
p178
(dp179
g7
S't3'
p180
sg9
S'Coreference-Identity'
p181
sg10
S'i25'
p182
sg12
S'i3'
p183
sg13
Nsg14
(lp184
(i__main__
Token
p185
(dp186
g18
I193
sba(i__main__
Token
p187
(dp188
g18
I194
sbasg19
I194
sbasg7
g171
sg38
Nsba(i__main__
Chain
p189
(dp190
g3
(lp191
(i__main__
Mention
p192
(dp193
g7
S't4'
p194
sg9
Nsg10
S'i4'
p195
sg12
Nsg13
Nsg14
(lp196
(i__main__
Token
p197
(dp198
g18
I20
sba(i__main__
Token
p199
(dp200
g18
I21
sba(i__main__
Token
p201
(dp202
g18
I22
sba(i__main__
Token
p203
(dp204
g18
I23
sbasg19
I23
sba(i__main__
Mention
p205
(dp206
g7
S't4'
p207
sg9
S'Coreference-Identity'
p208
sg10
S'i22'
p209
sg12
S'i4'
p210
sg13
Nsg14
(lp211
(i__main__
Token
p212
(dp213
g18
I161
sbasg19
I161
sba(i__main__
Mention
p214
(dp215
g7
S't4'
p216
sg9
S'Coreference-Identity'
p217
sg10
S'i26'
p218
sg12
S'i22'
p219
sg13
Nsg14
(lp220
(i__main__
Token
p221
(dp222
g18
I216
sbasg19
I216
sba(i__main__
Mention
p223
(dp224
g7
S't4'
p225
sg9
S'Coreference-Identity'
p226
sg10
S'i32'
p227
sg12
S'i26'
p228
sg13
Nsg14
(lp229
(i__main__
Token
p230
(dp231
g18
I254
sbasg19
I254
sba(i__main__
Mention
p232
(dp233
g7
S't4'
p234
sg9
S'Coreference-Identity'
p235
sg10
S'i37'
p236
sg12
S'i32'
p237
sg13
Nsg14
(lp238
(i__main__
Token
p239
(dp240
g18
I273
sbasg19
I273
sbasg7
g194
sg38
Nsba(i__main__
Chain
p241
(dp242
g3
(lp243
(i__main__
Mention
p244
(dp245
g7
S't5'
p246
sg9
Nsg10
S'i5'
p247
sg12
Nsg13
Nsg14
(lp248
(i__main__
Token
p249
(dp250
g18
I28
sbasg19
I28
sba(i__main__
Mention
p251
(dp252
g7
S't5'
p253
sg9
S'Coreference-Identity'
p254
sg10
S'i6'
p255
sg12
S'i5'
p256
sg13
Nsg14
(lp257
(i__main__
Token
p258
(dp259
g18
I38
sbasg19
I38
sba(i__main__
Mention
p260
(dp261
g7
S't5'
p262
sg9
S'Coreference-Identity'
p263
sg10
S'i8'
p264
sg12
S'i6'
p265
sg13
Nsg14
(lp266
(i__main__
Token
p267
(dp268
g18
I50
sbasg19
I50
sba(i__main__
Mention
p269
(dp270
g7
S't5'
p271
sg9
S'Coreference-Identity'
p272
sg10
S'i15'
p273
sg12
S'i8'
p274
sg13
Nsg14
(lp275
(i__main__
Token
p276
(dp277
g18
I105
sbasg19
I105
sba(i__main__
Mention
p278
(dp279
g7
S't5'
p280
sg9
S'Coreference-Identity'
p281
sg10
S'i35'
p282
sg12
S'i15'
p283
sg13
Nsg14
(lp284
(i__main__
Token
p285
(dp286
g18
I260
sbasg19
I260
sbasg7
g246
sg38
Nsba(i__main__
Chain
p287
(dp288
g3
(lp289
(i__main__
Mention
p290
(dp291
g7
S't6'
p292
sg9
Nsg10
S'i10'
p293
sg12
Nsg13
Nsg14
(lp294
(i__main__
Token
p295
(dp296
g18
I63
sbasg19
I63
sbasg7
g292
sg38
Nsba(i__main__
Chain
p297
(dp298
g3
(lp299
(i__main__
Mention
p300
(dp301
g7
S't7'
p302
sg9
Nsg10
S'i11'
p303
sg12
Nsg13
Nsg14
(lp304
(i__main__
Token
p305
(dp306
g18
I70
sba(i__main__
Token
p307
(dp308
g18
I71
sba(i__main__
Token
p309
(dp310
g18
I72
sba(i__main__
Token
p311
(dp312
g18
I73
sba(i__main__
Token
p313
(dp314
g18
I74
sba(i__main__
Token
p315
(dp316
g18
I75
sba(i__main__
Token
p317
(dp318
g18
I76
sba(i__main__
Token
p319
(dp320
g18
I77
sbasg19
I77
sba(i__main__
Mention
p321
(dp322
g7
S't7'
p323
sg9
S'Anaphora-C'
p324
sg10
S'i13'
p325
sg12
S'i11'
p326
sg13
Nsg14
(lp327
(i__main__
Token
p328
(dp329
g18
I89
sbasg19
I89
sba(i__main__
Mention
p330
(dp331
g7
S't7'
p332
sg9
S'Coreference-Identity'
p333
sg10
S'i18'
p334
sg12
S'i13'
p335
sg13
Nsg14
(lp336
(i__main__
Token
p337
(dp338
g18
I122
sba(i__main__
Token
p339
(dp340
g18
I123
sbasg19
I123
sbasg7
g302
sg38
Nsba(i__main__
Chain
p341
(dp342
g3
(lp343
(i__main__
Mention
p344
(dp345
g7
S't8'
p346
sg9
Nsg10
S'i17'
p347
sg12
Nsg13
Nsg14
(lp348
(i__main__
Token
p349
(dp350
g18
I115
sba(i__main__
Token
p351
(dp352
g18
I116
sba(i__main__
Token
p353
(dp354
g18
I117
sbasg19
I117
sba(i__main__
Mention
p355
(dp356
g7
S't8'
p357
sg9
S'Coreference-Identity'
p358
sg10
S'i29'
p359
sg12
S'i17'
p360
sg13
Nsg14
(lp361
(i__main__
Token
p362
(dp363
g18
I219
sba(i__main__
Token
p364
(dp365
g18
I220
sba(i__main__
Token
p366
(dp367
g18
I221
sbasg19
I221
sba(i__main__
Mention
p368
(dp369
g7
S't8'
p370
sg9
S'Coreference-Identity'
p371
sg10
S'i39'
p372
sg12
S'i29'
p373
sg13
Nsg14
(lp374
(i__main__
Token
p375
(dp376
g18
I277
sba(i__main__
Token
p377
(dp378
g18
I278
sba(i__main__
Token
p379
(dp380
g18
I279
sbasg19
I279
sbasg7
g346
sg38
Nsba(i__main__
Chain
p381
(dp382
g3
(lp383
(i__main__
Mention
p384
(dp385
g7
S't9'
p386
sg9
Nsg10
S'i19'
p387
sg12
Nsg13
Nsg14
(lp388
(i__main__
Token
p389
(dp390
g18
I130
sbasg19
I130
sbasg7
g386
sg38
Nsba(i__main__
Chain
p391
(dp392
g3
(lp393
(i__main__
Mention
p394
(dp395
g7
S't10'
p396
sg9
Nsg10
S'i27'
p397
sg12
Nsg13
Nsg14
(lp398
(i__main__
Token
p399
(dp400
g18
I217
sbasg19
I217
sbasg7
g396
sg38
Nsba(i__main__
Chain
p401
(dp402
g3
(lp403
(i__main__
Mention
p404
(dp405
g7
S't11'
p406
sg9
Nsg10
S'i33'
p407
sg12
Nsg13
Nsg14
(lp408
(i__main__
Token
p409
(dp410
g18
I255
sbasg19
I255
sbasg7
g406
sg38
Nsba(i__main__
Chain
p411
(dp412
g3
(lp413
(i__main__
Mention
p414
(dp415
g7
S't12'
p416
sg9
Nsg10
S'i34'
p417
sg12
Nsg13
Nsg14
(lp418
(i__main__
Token
p419
(dp420
g18
I257
sba(i__main__
Token
p421
(dp422
g18
I258
sba(i__main__
Token
p423
(dp424
g18
I259
sba(i__main__
Token
p425
(dp426
g18
I260
sba(i__main__
Token
p427
(dp428
g18
I261
sba(i__main__
Token
p429
(dp430
g18
I262
sba(i__main__
Token
p431
(dp432
g18
I263
sba(i__main__
Token
p433
(dp434
g18
I264
sba(i__main__
Token
p435
(dp436
g18
I265
sba(i__main__
Token
p437
(dp438
g18
I266
sba(i__main__
Token
p439
(dp440
g18
I267
sba(i__main__
Token
p441
(dp442
g18
I268
sba(i__main__
Token
p443
(dp444
g18
I269
sbasg19
I267
sba(i__main__
Mention
p445
(dp446
g7
S't12'
p447
sg9
S'Anaphora-E'
p448
sg10
S'i36'
p449
sg12
S'i34'
p450
sg13
Nsg14
(lp451
(i__main__
Token
p452
(dp453
g18
I271
sbasg19
I271
sbasg7
g416
sg38
Nsba.