(lp0
(i__main__
Chain
p1
(dp2
S'mentionList'
p3
(lp4
(i__main__
Mention
p5
(dp6
S'chainId'
p7
S't1'
p8
sS'relType'
p9
NsS'mentionId'
p10
S'i1'
p11
sS'antecedentId'
p12
NsS'crefMod'
p13
NsS'tokenList'
p14
(lp15
(i__main__
Token
p16
(dp17
S'tokenId'
p18
I0
sbasS'mentionHead'
p19
I0
sba(i__main__
Mention
p20
(dp21
g7
S't1'
p22
sg9
S'Coreference-Identity'
p23
sg10
S'i10'
p24
sg12
S'i1'
p25
sg13
Nsg14
(lp26
(i__main__
Token
p27
(dp28
g18
I83
sbasg19
I83
sbasg7
g8
sS'chainHead'
p29
Nsba(i__main__
Chain
p30
(dp31
g3
(lp32
(i__main__
Mention
p33
(dp34
g7
S't2'
p35
sg9
S'anaphora-?'
p36
sg10
S'i2'
p37
sg12
S'i2'
p38
sg13
Nsg14
(lp39
(i__main__
Token
p40
(dp41
g18
I2
sbasg19
I2
sbasg7
g35
sg29
Nsba(i__main__
Chain
p42
(dp43
g3
(lp44
(i__main__
Mention
p45
(dp46
g7
S't3'
p47
sg9
Nsg10
S'i3'
p48
sg12
Nsg13
Nsg14
(lp49
(i__main__
Token
p50
(dp51
g18
I5
sbasg19
I5
sba(i__main__
Mention
p52
(dp53
g7
S't3'
p54
sg9
S'Coreference-Identity'
p55
sg10
S'i13'
p56
sg12
S'i3'
p57
sg13
Nsg14
(lp58
(i__main__
Token
p59
(dp60
g18
I99
sba(i__main__
Token
p61
(dp62
g18
I100
sbasg19
I100
sbasg7
g47
sg29
Nsba(i__main__
Chain
p63
(dp64
g3
(lp65
(i__main__
Mention
p66
(dp67
g7
S't4'
p68
sg9
Nsg10
S'i4'
p69
sg12
Nsg13
Nsg14
(lp70
(i__main__
Token
p71
(dp72
g18
I7
sba(i__main__
Token
p73
(dp74
g18
I8
sbasg19
I8
sba(i__main__
Mention
p75
(dp76
g7
S't4'
p77
sg9
S'Coreference-Identity'
p78
sg10
S'i14'
p79
sg12
S'i4'
p80
sg13
Nsg14
(lp81
(i__main__
Token
p82
(dp83
g18
I104
sba(i__main__
Token
p84
(dp85
g18
I105
sbasg19
I105
sbasg7
g68
sg29
Nsba(i__main__
Chain
p86
(dp87
g3
(lp88
(i__main__
Mention
p89
(dp90
g7
S't5'
p91
sg9
Nsg10
S'i5'
p92
sg12
Nsg13
Nsg14
(lp93
(i__main__
Token
p94
(dp95
g18
I23
sba(i__main__
Token
p96
(dp97
g18
I24
sbasg19
I24
sba(i__main__
Mention
p98
(dp99
g7
S't5'
p100
sg9
S'Coreference-PartOf'
p101
sg10
S'i8'
p102
sg12
S'i5'
p103
sg13
Nsg14
(lp104
(i__main__
Token
p105
(dp106
g18
I52
sba(i__main__
Token
p107
(dp108
g18
I53
sbasg19
I53
sba(i__main__
Mention
p109
(dp110
g7
S't5'
p111
sg9
S'Coreference-Noun-Noun'
p112
sg10
S'i9'
p113
sg12
S'i8'
p114
sg13
Nsg14
(lp115
(i__main__
Token
p116
(dp117
g18
I61
sba(i__main__
Token
p118
(dp119
g18
I62
sbasg19
I62
sba(i__main__
Mention
p120
(dp121
g7
S't5'
p122
sg9
S'Coreference-RPartOf'
p123
sg10
S'i16'
p124
sg12
S'i9'
p125
sg13
Nsg14
(lp126
(i__main__
Token
p127
(dp128
g18
I117
sba(i__main__
Token
p129
(dp130
g18
I118
sbasg19
I118
sba(i__main__
Mention
p131
(dp132
g7
S't5'
p133
sg9
S'Coreference-PartOf'
p134
sg10
S'i19'
p135
sg12
S'i16'
p136
sg13
Nsg14
(lp137
(i__main__
Token
p138
(dp139
g18
I155
sba(i__main__
Token
p140
(dp141
g18
I156
sba(i__main__
Token
p142
(dp143
g18
I157
sba(i__main__
Token
p144
(dp145
g18
I158
sbasg19
I158
sba(i__main__
Mention
p146
(dp147
g7
S't5'
p148
sg9
S'Coreference-PartOf-WMain'
p149
sg10
S'i25'
p150
sg12
S'i19'
p151
sg13
Nsg14
(lp152
(i__main__
Token
p153
(dp154
g18
I194
sbasg19
I194
sba(i__main__
Mention
p155
(dp156
g7
S't5'
p157
sg9
S'Coreference-PartOf-WMain'
p158
sg10
S'i26'
p159
sg12
S'i25'
p160
sg13
Nsg14
(lp161
(i__main__
Token
p162
(dp163
g18
I223
sba(i__main__
Token
p164
(dp165
g18
I224
sba(i__main__
Token
p166
(dp167
g18
I225
sba(i__main__
Token
p168
(dp169
g18
I226
sba(i__main__
Token
p170
(dp171
g18
I227
sba(i__main__
Token
p172
(dp173
g18
I228
sba(i__main__
Token
p174
(dp175
g18
I229
sbasg19
I229
sba(i__main__
Mention
p176
(dp177
g7
S't5'
p178
sg9
S'Coreference-PartOf-WMain'
p179
sg10
S'i27'
p180
sg12
S'i26'
p181
sg13
Nsg14
(lp182
(i__main__
Token
p183
(dp184
g18
I268
sba(i__main__
Token
p185
(dp186
g18
I269
sba(i__main__
Token
p187
(dp188
g18
I270
sba(i__main__
Token
p189
(dp190
g18
I271
sbasg19
I271
sbasg7
g91
sg29
Nsba(i__main__
Chain
p191
(dp192
g3
(lp193
(i__main__
Mention
p194
(dp195
g7
S't6'
p196
sg9
Nsg10
S'i6'
p197
sg12
Nsg13
Nsg14
(lp198
(i__main__
Token
p199
(dp200
g18
I42
sba(i__main__
Token
p201
(dp202
g18
I43
sbasg19
I43
sba(i__main__
Mention
p203
(dp204
g7
S't6'
p205
sg9
S'Anaphora-C'
p206
sg10
S'i7'
p207
sg12
S'i6'
p208
sg13
Nsg14
(lp209
(i__main__
Token
p210
(dp211
g18
I49
sbasg19
I49
sba(i__main__
Mention
p212
(dp213
g7
S't6'
p214
sg9
S'Coreference-Identity'
p215
sg10
S'i11'
p216
sg12
S'i7'
p217
sg13
Nsg14
(lp218
(i__main__
Token
p219
(dp220
g18
I93
sbasg19
I93
sba(i__main__
Mention
p221
(dp222
g7
S't6'
p223
sg9
S'Anaphora-C'
p224
sg10
S'i12'
p225
sg12
S'i11'
p226
sg13
Nsg14
(lp227
(i__main__
Token
p228
(dp229
g18
I98
sbasg19
I98
sba(i__main__
Mention
p230
(dp231
g7
S't6'
p232
sg9
S'Coreference-Identity'
p233
sg10
S'i15'
p234
sg12
S'i12'
p235
sg13
Nsg14
(lp236
(i__main__
Token
p237
(dp238
g18
I114
sbasg19
I114
sbasg7
g196
sg29
Nsba(i__main__
Chain
p239
(dp240
g3
(lp241
(i__main__
Mention
p242
(dp243
g7
S't7'
p244
sg9
Nsg10
S'i17'
p245
sg12
Nsg13
Nsg14
(lp246
(i__main__
Token
p247
(dp248
g18
I123
sba(i__main__
Token
p249
(dp250
g18
I124
sba(i__main__
Token
p251
(dp252
g18
I125
sba(i__main__
Token
p253
(dp254
g18
I126
sbasg19
I126
sba(i__main__
Mention
p255
(dp256
g7
S't7'
p257
sg9
S'Coreference-Abbreviation'
p258
sg10
S'i18'
p259
sg12
S'i17'
p260
sg13
Nsg14
(lp261
(i__main__
Token
p262
(dp263
g18
I128
sbasg19
I128
sbasg7
g244
sg29
Nsba(i__main__
Chain
p264
(dp265
g3
(lp266
(i__main__
Mention
p267
(dp268
g7
S't8'
p269
sg9
Nsg10
S'i20'
p270
sg12
Nsg13
Nsg14
(lp271
(i__main__
Token
p272
(dp273
g18
I160
sba(i__main__
Token
p274
(dp275
g18
I161
sbasg19
I161
sba(i__main__
Mention
p276
(dp277
g7
S't8'
p278
sg9
S'Anaphora-C'
p279
sg10
S'i22'
p280
sg12
S'i20'
p281
sg13
Nsg14
(lp282
(i__main__
Token
p283
(dp284
g18
I176
sbasg19
I176
sbasg7
g269
sg29
Nsba(i__main__
Chain
p285
(dp286
g3
(lp287
(i__main__
Mention
p288
(dp289
g7
S't9'
p290
sg9
Nsg10
S'i21'
p291
sg12
Nsg13
Nsg14
(lp292
(i__main__
Token
p293
(dp294
g18
I167
sba(i__main__
Token
p295
(dp296
g18
I168
sbasg19
I168
sba(i__main__
Mention
p297
(dp298
g7
S't9'
p299
sg9
S'Coreference-Noun-Noun'
p300
sg10
S'i23'
p301
sg12
S'i21'
p302
sg13
Nsg14
(lp303
(i__main__
Token
p304
(dp305
g18
I176
sba(i__main__
Token
p306
(dp307
g18
I177
sba(i__main__
Token
p308
(dp309
g18
I178
sba(i__main__
Token
p310
(dp311
g18
I179
sba(i__main__
Token
p312
(dp313
g18
I180
sba(i__main__
Token
p314
(dp315
g18
I181
sba(i__main__
Token
p316
(dp317
g18
I182
sba(i__main__
Token
p318
(dp319
g18
I183
sba(i__main__
Token
p320
(dp321
g18
I184
sbasg19
I184
sbasg7
g290
sg29
Nsba(i__main__
Chain
p322
(dp323
g3
(lp324
(i__main__
Mention
p325
(dp326
g7
S't10'
p327
sg9
S'anaphora-?'
p328
sg10
S'i24'
p329
sg12
S'i24'
p330
sg13
Nsg14
(lp331
(i__main__
Token
p332
(dp333
g18
I181
sbasg19
I181
sbasg7
g327
sg29
Nsba.