(lp0
(i__main__
Chain
p1
(dp2
S'mentionList'
p3
(lp4
(i__main__
Mention
p5
(dp6
S'chainId'
p7
S't1'
p8
sS'relType'
p9
NsS'mentionId'
p10
S'i1'
p11
sS'antecedentId'
p12
NsS'crefMod'
p13
NsS'tokenList'
p14
(lp15
(i__main__
Token
p16
(dp17
S'tokenId'
p18
I0
sba(i__main__
Token
p19
(dp20
g18
I1
sba(i__main__
Token
p21
(dp22
g18
I2
sbasS'mentionHead'
p23
I2
sba(i__main__
Mention
p24
(dp25
g7
S't1'
p26
sg9
S'Coreference-Identity'
p27
sg10
S'i26'
p28
sg12
S'i1'
p29
sg13
Nsg14
(lp30
(i__main__
Token
p31
(dp32
g18
I129
sbasg23
I129
sba(i__main__
Mention
p33
(dp34
g7
S't1'
p35
sg9
S'Coreference-Identity'
p36
sg10
S'i34'
p37
sg12
S'i26'
p38
sg13
Nsg14
(lp39
(i__main__
Token
p40
(dp41
g18
I154
sbasg23
I154
sba(i__main__
Mention
p42
(dp43
g7
S't1'
p44
sg9
S'Coreference-Identity'
p45
sg10
S'i42'
p46
sg12
S'i34'
p47
sg13
Nsg14
(lp48
(i__main__
Token
p49
(dp50
g18
I201
sba(i__main__
Token
p51
(dp52
g18
I202
sba(i__main__
Token
p53
(dp54
g18
I203
sbasg23
I203
sba(i__main__
Mention
p55
(dp56
g7
S't1'
p57
sg9
S'Coreference-Identity'
p58
sg10
S'i61'
p59
sg12
S'i42'
p60
sg13
Nsg14
(lp61
(i__main__
Token
p62
(dp63
g18
I314
sbasg23
I314
sbasg7
g8
sS'chainHead'
p64
Nsba(i__main__
Chain
p65
(dp66
g3
(lp67
(i__main__
Mention
p68
(dp69
g7
S't2'
p70
sg9
Nsg10
S'i2'
p71
sg12
Nsg13
Nsg14
(lp72
(i__main__
Token
p73
(dp74
g18
I4
sbasg23
I4
sba(i__main__
Mention
p75
(dp76
g7
S't2'
p77
sg9
S'Coreference-Identity'
p78
sg10
S'i3'
p79
sg12
S'i2'
p80
sg13
Nsg14
(lp81
(i__main__
Token
p82
(dp83
g18
I21
sba(i__main__
Token
p84
(dp85
g18
I22
sbasg23
I22
sba(i__main__
Mention
p86
(dp87
g7
S't2'
p88
sg9
S'Coreference-Identity'
p89
sg10
S'i4'
p90
sg12
S'i3'
p91
sg13
Nsg14
(lp92
(i__main__
Token
p93
(dp94
g18
I31
sba(i__main__
Token
p95
(dp96
g18
I32
sba(i__main__
Token
p97
(dp98
g18
I33
sbasg23
I33
sba(i__main__
Mention
p99
(dp100
g7
S't2'
p101
sg9
S'Anaphora-C'
p102
sg10
S'i8'
p103
sg12
S'i4'
p104
sg13
Nsg14
(lp105
(i__main__
Token
p106
(dp107
g18
I63
sbasg23
I63
sba(i__main__
Mention
p108
(dp109
g7
S't2'
p110
sg9
S'Anaphora-C'
p111
sg10
S'i12'
p112
sg12
S'i8'
p113
sg13
Nsg14
(lp114
(i__main__
Token
p115
(dp116
g18
I75
sbasg23
I75
sba(i__main__
Mention
p117
(dp118
g7
S't2'
p119
sg9
S'Coreference-Identity'
p120
sg10
S'i13'
p121
sg12
S'i12'
p122
sg13
Nsg14
(lp123
(i__main__
Token
p124
(dp125
g18
I83
sbasg23
I83
sba(i__main__
Mention
p126
(dp127
g7
S't2'
p128
sg9
S'Anaphora-C'
p129
sg10
S'i18'
p130
sg12
S'i13'
p131
sg13
Nsg14
(lp132
(i__main__
Token
p133
(dp134
g18
I96
sbasg23
I96
sba(i__main__
Mention
p135
(dp136
g7
S't2'
p137
sg9
S'Coreference-Noun-Noun'
p138
sg10
S'i20'
p139
sg12
S'i18'
p140
sg13
Nsg14
(lp141
(i__main__
Token
p142
(dp143
g18
I102
sba(i__main__
Token
p144
(dp145
g18
I103
sbasg23
I103
sba(i__main__
Mention
p146
(dp147
g7
S't2'
p148
sg9
S'Anaphora-C'
p149
sg10
S'i25'
p150
sg12
S'i20'
p151
sg13
Nsg14
(lp152
(i__main__
Token
p153
(dp154
g18
I125
sbasg23
I125
sba(i__main__
Mention
p155
(dp156
g7
S't2'
p157
sg9
S'Anaphora-C'
p158
sg10
S'i33'
p159
sg12
S'i25'
p160
sg13
Nsg14
(lp161
(i__main__
Token
p162
(dp163
g18
I151
sbasg23
I151
sba(i__main__
Mention
p164
(dp165
g7
S't2'
p166
sg9
S'Coreference-Noun-Noun'
p167
sg10
S'i36'
p168
sg12
S'i33'
p169
sg13
Nsg14
(lp170
(i__main__
Token
p171
(dp172
g18
I173
sba(i__main__
Token
p173
(dp174
g18
I174
sbasg23
I174
sba(i__main__
Mention
p175
(dp176
g7
S't2'
p177
sg9
S'Coreference-Identity'
p178
sg10
S'i50'
p179
sg12
S'i36'
p180
sg13
Nsg14
(lp181
(i__main__
Token
p182
(dp183
g18
I255
sba(i__main__
Token
p184
(dp185
g18
I256
sbasg23
I256
sba(i__main__
Mention
p186
(dp187
g7
S't2'
p188
sg9
S'Coreference-Identity'
p189
sg10
S'i56'
p190
sg12
S'i50'
p191
sg13
Nsg14
(lp192
(i__main__
Token
p193
(dp194
g18
I293
sba(i__main__
Token
p195
(dp196
g18
I294
sbasg23
I294
sba(i__main__
Mention
p197
(dp198
g7
S't2'
p199
sg9
S'Coreference-Identity'
p200
sg10
S'i66'
p201
sg12
S'i56'
p202
sg13
Nsg14
(lp203
(i__main__
Token
p204
(dp205
g18
I325
sba(i__main__
Token
p206
(dp207
g18
I326
sbasg23
I326
sba(i__main__
Mention
p208
(dp209
g7
S't2'
p210
sg9
S'Anaphora-C'
p211
sg10
S'i69'
p212
sg12
S'i66'
p213
sg13
Nsg14
(lp214
(i__main__
Token
p215
(dp216
g18
I349
sbasg23
I349
sba(i__main__
Mention
p217
(dp218
g7
S't2'
p219
sg9
S'Anaphora-C'
p220
sg10
S'i70'
p221
sg12
S'i69'
p222
sg13
Nsg14
(lp223
(i__main__
Token
p224
(dp225
g18
I356
sbasg23
I356
sbasg7
g70
sg64
Nsba(i__main__
Chain
p226
(dp227
g3
(lp228
(i__main__
Mention
p229
(dp230
g7
S't3'
p231
sg9
Nsg10
S'i5'
p232
sg12
Nsg13
Nsg14
(lp233
(i__main__
Token
p234
(dp235
g18
I52
sbasg23
I52
sba(i__main__
Mention
p236
(dp237
g7
S't3'
p238
sg9
S'Coreference-Identity'
p239
sg10
S'i9'
p240
sg12
S'i5'
p241
sg13
Nsg14
(lp242
(i__main__
Token
p243
(dp244
g18
I68
sbasg23
I68
sba(i__main__
Mention
p245
(dp246
g7
S't3'
p247
sg9
S'Coreference-Identity'
p248
sg10
S'i35'
p249
sg12
S'i9'
p250
sg13
Nsg14
(lp251
(i__main__
Token
p252
(dp253
g18
I165
sbasg23
I165
sbasg7
g231
sg64
Nsba(i__main__
Chain
p254
(dp255
g3
(lp256
(i__main__
Mention
p257
(dp258
g7
S't4'
p259
sg9
Nsg10
S'i6'
p260
sg12
Nsg13
Nsg14
(lp261
(i__main__
Token
p262
(dp263
g18
I54
sba(i__main__
Token
p264
(dp265
g18
I55
sba(i__main__
Token
p266
(dp267
g18
I56
sbasg23
I55
sba(i__main__
Mention
p268
(dp269
g7
S't4'
p270
sg9
S'Anaphora-C'
p271
sg10
S'i7'
p272
sg12
S'i6'
p273
sg13
Nsg14
(lp274
(i__main__
Token
p275
(dp276
g18
I57
sbasg23
I57
sbasg7
g259
sg64
Nsba(i__main__
Chain
p277
(dp278
g3
(lp279
(i__main__
Mention
p280
(dp281
g7
S't5'
p282
sg9
Nsg10
S'i10'
p283
sg12
Nsg13
Nsg14
(lp284
(i__main__
Token
p285
(dp286
g18
I70
sba(i__main__
Token
p287
(dp288
g18
I71
sbasg23
I71
sba(i__main__
Mention
p289
(dp290
g7
S't5'
p291
sg9
S'Coreference-NounComplement'
p292
sg10
S'i11'
p293
sg12
S'i10'
p294
sg13
Nsg14
(lp295
(i__main__
Token
p296
(dp297
g18
I72
sba(i__main__
Token
p298
(dp299
g18
I73
sbasg23
I73
sba(i__main__
Mention
p300
(dp301
g7
S't5'
p302
sg9
S'Coreference-Identity'
p303
sg10
S'i16'
p304
sg12
S'i11'
p305
sg13
Nsg14
(lp306
(i__main__
Token
p307
(dp308
g18
I92
sbasg23
I92
sba(i__main__
Mention
p309
(dp310
g7
S't5'
p311
sg9
S'Anaphora-C'
p312
sg10
S'i17'
p313
sg12
S'i16'
p314
sg13
Nsg14
(lp315
(i__main__
Token
p316
(dp317
g18
I93
sbasg23
I93
sba(i__main__
Mention
p318
(dp319
g7
S't5'
p320
sg9
S'Anaphora-C'
p321
sg10
S'i19'
p322
sg12
S'i17'
p323
sg13
Nsg14
(lp324
(i__main__
Token
p325
(dp326
g18
I101
sbasg23
I101
sba(i__main__
Mention
p327
(dp328
g7
S't5'
p329
sg9
S'Anaphora-C'
p330
sg10
S'i21'
p331
sg12
S'i19'
p332
sg13
Nsg14
(lp333
(i__main__
Token
p334
(dp335
g18
I109
sbasg23
I109
sba(i__main__
Mention
p336
(dp337
g7
S't5'
p338
sg9
S'Anaphora-C'
p339
sg10
S'i22'
p340
sg12
S'i21'
p341
sg13
Nsg14
(lp342
(i__main__
Token
p343
(dp344
g18
I115
sbasg23
I115
sba(i__main__
Mention
p345
(dp346
g7
S't5'
p347
sg9
S'Anaphora-C'
p348
sg10
S'i23'
p349
sg12
S'i22'
p350
sg13
Nsg14
(lp351
(i__main__
Token
p352
(dp353
g18
I116
sbasg23
I116
sba(i__main__
Mention
p354
(dp355
g7
S't5'
p356
sg9
S'Anaphora-C'
p357
sg10
S'i27'
p358
sg12
S'i23'
p359
sg13
Nsg14
(lp360
(i__main__
Token
p361
(dp362
g18
I131
sbasg23
I131
sba(i__main__
Mention
p363
(dp364
g7
S't5'
p365
sg9
S'Anaphora-C'
p366
sg10
S'i28'
p367
sg12
S'i27'
p368
sg13
Nsg14
(lp369
(i__main__
Token
p370
(dp371
g18
I136
sbasg23
I136
sba(i__main__
Mention
p372
(dp373
g7
S't5'
p374
sg9
S'Coreference-Identity'
p375
sg10
S'i30'
p376
sg12
S'i28'
p377
sg13
Nsg14
(lp378
(i__main__
Token
p379
(dp380
g18
I146
sbasg23
I146
sba(i__main__
Mention
p381
(dp382
g7
S't5'
p383
sg9
S'Anaphora-C'
p384
sg10
S'i31'
p385
sg12
S'i30'
p386
sg13
Nsg14
(lp387
(i__main__
Token
p388
(dp389
g18
I147
sbasg23
I147
sbasg7
g282
sg64
Nsba(i__main__
Chain
p390
(dp391
g3
(lp392
(i__main__
Mention
p393
(dp394
g7
S't6'
p395
sg9
Nsg10
S'i14'
p396
sg12
Nsg13
Nsg14
(lp397
(i__main__
Token
p398
(dp399
g18
I85
sbasg23
I85
sba(i__main__
Mention
p400
(dp401
g7
S't6'
p402
sg9
S'Coreference-NounComplement'
p403
sg10
S'i15'
p404
sg12
S'i14'
p405
sg13
Nsg14
(lp406
(i__main__
Token
p407
(dp408
g18
I86
sba(i__main__
Token
p409
(dp410
g18
I87
sba(i__main__
Token
p411
(dp412
g18
I88
sbasg23
I88
sbasg7
g395
sg64
Nsba(i__main__
Chain
p413
(dp414
g3
(lp415
(i__main__
Mention
p416
(dp417
g7
S't7'
p418
sg9
Nsg10
S'i24'
p419
sg12
Nsg13
Nsg14
(lp420
(i__main__
Token
p421
(dp422
g18
I117
sbasg23
I117
sba(i__main__
Mention
p423
(dp424
g7
S't7'
p425
sg9
S'Coreference-Identity'
p426
sg10
S'i29'
p427
sg12
S'i24'
p428
sg13
Nsg14
(lp429
(i__main__
Token
p430
(dp431
g18
I137
sbasg23
I137
sba(i__main__
Mention
p432
(dp433
g7
S't7'
p434
sg9
S'Coreference-Identity'
p435
sg10
S'i32'
p436
sg12
S'i29'
p437
sg13
Nsg14
(lp438
(i__main__
Token
p439
(dp440
g18
I148
sbasg23
I148
sbasg7
g418
sg64
Nsba(i__main__
Chain
p441
(dp442
g3
(lp443
(i__main__
Mention
p444
(dp445
g7
S't8'
p446
sg9
Nsg10
S'i37'
p447
sg12
Nsg13
Nsg14
(lp448
(i__main__
Token
p449
(dp450
g18
I181
sbasg23
I181
sba(i__main__
Mention
p451
(dp452
g7
S't8'
p453
sg9
S'Anaphora-RT'
p454
sg10
S'i39'
p455
sg12
S'i37'
p456
sg13
Nsg14
(lp457
(i__main__
Token
p458
(dp459
g18
I182
sba(i__main__
Token
p460
(dp461
g18
I183
sba(i__main__
Token
p462
(dp463
g18
I184
sba(i__main__
Token
p464
(dp465
g18
I185
sba(i__main__
Token
p466
(dp467
g18
I186
sba(i__main__
Token
p468
(dp469
g18
I187
sba(i__main__
Token
p470
(dp471
g18
I188
sba(i__main__
Token
p472
(dp473
g18
I189
sba(i__main__
Token
p474
(dp475
g18
I190
sbasg23
I188
sbasg7
g446
sg64
Nsba(i__main__
Chain
p476
(dp477
g3
(lp478
(i__main__
Mention
p479
(dp480
g7
S't9'
p481
sg9
Nsg10
S'i38'
p482
sg12
Nsg13
Nsg14
(lp483
(i__main__
Token
p484
(dp485
g18
I182
sba(i__main__
Token
p486
(dp487
g18
I183
sbasg23
I183
sba(i__main__
Mention
p488
(dp489
g7
S't9'
p490
sg9
S'Anaphora-C'
p491
sg10
S'i40'
p492
sg12
S'i38'
p493
sg13
Nsg14
(lp494
(i__main__
Token
p495
(dp496
g18
I192
sbasg23
I192
sbasg7
g481
sg64
Nsba(i__main__
Chain
p497
(dp498
g3
(lp499
(i__main__
Mention
p500
(dp501
g7
S't10'
p502
sg9
Nsg10
S'i41'
p503
sg12
Nsg13
Nsg14
(lp504
(i__main__
Token
p505
(dp506
g18
I194
sba(i__main__
Token
p507
(dp508
g18
I195
sbasg23
I195
sba(i__main__
Mention
p509
(dp510
g7
S't10'
p511
sg9
S'Coreference-Identity'
p512
sg10
S'i44'
p513
sg12
S'i41'
p514
sg13
Nsg14
(lp515
(i__main__
Token
p516
(dp517
g18
I225
sba(i__main__
Token
p518
(dp519
g18
I226
sbasg23
I226
sbasg7
g502
sg64
Nsba(i__main__
Chain
p520
(dp521
g3
(lp522
(i__main__
Mention
p523
(dp524
g7
S't11'
p525
sg9
Nsg10
S'i43'
p526
sg12
Nsg13
Nsg14
(lp527
(i__main__
Token
p528
(dp529
g18
I218
sba(i__main__
Token
p530
(dp531
g18
I219
sbasg23
I219
sba(i__main__
Mention
p532
(dp533
g7
S't11'
p534
sg9
S'Anaphora-C'
p535
sg10
S'i45'
p536
sg12
S'i43'
p537
sg13
Nsg14
(lp538
(i__main__
Token
p539
(dp540
g18
I232
sbasg23
I232
sba(i__main__
Mention
p541
(dp542
g7
S't11'
p543
sg9
S'Coreference-Identity'
p544
sg10
S'i49'
p545
sg12
S'i45'
p546
sg13
Nsg14
(lp547
(i__main__
Token
p548
(dp549
g18
I253
sbasg23
I253
sbasg7
g525
sg64
Nsba(i__main__
Chain
p550
(dp551
g3
(lp552
(i__main__
Mention
p553
(dp554
g7
S't12'
p555
sg9
Nsg10
S'i46'
p556
sg12
Nsg13
Nsg14
(lp557
(i__main__
Token
p558
(dp559
g18
I235
sba(i__main__
Token
p560
(dp561
g18
I236
sbasg23
I236
sba(i__main__
Mention
p562
(dp563
g7
S't12'
p564
sg9
S'Anaphora-C'
p565
sg10
S'i47'
p566
sg12
S'i46'
p567
sg13
Nsg14
(lp568
(i__main__
Token
p569
(dp570
g18
I241
sbasg23
I241
sba(i__main__
Mention
p571
(dp572
g7
S't12'
p573
sg9
S'Coreference-Noun-Noun'
p574
sg10
S'i48'
p575
sg12
S'i47'
p576
sg13
Nsg14
(lp577
(i__main__
Token
p578
(dp579
g18
I244
sbasg23
I244
sba(i__main__
Mention
p580
(dp581
g7
S't12'
p582
sg9
S'Coreference-Identity'
p583
sg10
S'i55'
p584
sg12
S'i48'
p585
sg13
Nsg14
(lp586
(i__main__
Token
p587
(dp588
g18
I288
sba(i__main__
Token
p589
(dp590
g18
I289
sbasg23
I289
sba(i__main__
Mention
p591
(dp592
g7
S't12'
p593
sg9
S'Coreference-Identity'
p594
sg10
S'i59'
p595
sg12
S'i55'
p596
sg13
Nsg14
(lp597
(i__main__
Token
p598
(dp599
g18
I304
sbasg23
I304
sba(i__main__
Mention
p600
(dp601
g7
S't12'
p602
sg9
S'Anaphora-C'
p603
sg10
S'i60'
p604
sg12
S'i59'
p605
sg13
Nsg14
(lp606
(i__main__
Token
p607
(dp608
g18
I309
sbasg23
I309
sba(i__main__
Mention
p609
(dp610
g7
S't12'
p611
sg9
S'Anaphora-C'
p612
sg10
S'i65'
p613
sg12
S'i60'
p614
sg13
Nsg14
(lp615
(i__main__
Token
p616
(dp617
g18
I324
sbasg23
I324
sbasg7
g555
sg64
Nsba(i__main__
Chain
p618
(dp619
g3
(lp620
(i__main__
Mention
p621
(dp622
g7
S't13'
p623
sg9
Nsg10
S'i51'
p624
sg12
Nsg13
Nsg14
(lp625
(i__main__
Token
p626
(dp627
g18
I258
sba(i__main__
Token
p628
(dp629
g18
I259
sba(i__main__
Token
p630
(dp631
g18
I260
sba(i__main__
Token
p632
(dp633
g18
I261
sba(i__main__
Token
p634
(dp635
g18
I262
sba(i__main__
Token
p636
(dp637
g18
I263
sba(i__main__
Token
p638
(dp639
g18
I264
sba(i__main__
Token
p640
(dp641
g18
I265
sbasg23
I265
sba(i__main__
Mention
p642
(dp643
g7
S't13'
p644
sg9
S'Anaphora-C'
p645
sg10
S'i52'
p646
sg12
S'i51'
p647
sg13
Nsg14
(lp648
(i__main__
Token
p649
(dp650
g18
I269
sbasg23
I269
sba(i__main__
Mention
p651
(dp652
g7
S't13'
p653
sg9
S'Coreference-Identity'
p654
sg10
S'i54'
p655
sg12
S'i52'
p656
sg13
Nsg14
(lp657
(i__main__
Token
p658
(dp659
g18
I282
sba(i__main__
Token
p660
(dp661
g18
I283
sbasg23
I283
sbasg7
g623
sg64
Nsba(i__main__
Chain
p662
(dp663
g3
(lp664
(i__main__
Mention
p665
(dp666
g7
S't14'
p667
sg9
Nsg10
S'i53'
p668
sg12
Nsg13
Nsg14
(lp669
(i__main__
Token
p670
(dp671
g18
I280
sbasg23
I280
sbasg7
g667
sg64
Nsba(i__main__
Chain
p672
(dp673
g3
(lp674
(i__main__
Mention
p675
(dp676
g7
S't15'
p677
sg9
Nsg10
S'i57'
p678
sg12
Nsg13
Nsg14
(lp679
(i__main__
Token
p680
(dp681
g18
I296
sbasg23
I296
sba(i__main__
Mention
p682
(dp683
g7
S't15'
p684
sg9
S'Coreference-PartOf'
p685
sg10
S'i58'
p686
sg12
S'i57'
p687
sg13
Nsg14
(lp688
(i__main__
Token
p689
(dp690
g18
I300
sba(i__main__
Token
p691
(dp692
g18
I301
sbasg23
I301
sbasg7
g677
sg64
Nsba(i__main__
Chain
p693
(dp694
g3
(lp695
(i__main__
Mention
p696
(dp697
g7
S't16'
p698
sg9
Nsg10
S'i62'
p699
sg12
Nsg13
Nsg14
(lp700
(i__main__
Token
p701
(dp702
g18
I319
sbasg23
I319
sba(i__main__
Mention
p703
(dp704
g7
S't16'
p705
sg9
S'Anaphora-RT'
p706
sg10
S'i63'
p707
sg12
S'i62'
p708
sg13
Nsg14
(lp709
(i__main__
Token
p710
(dp711
g18
I320
sba(i__main__
Token
p712
(dp713
g18
I321
sba(i__main__
Token
p714
(dp715
g18
I322
sbasg23
I322
sbasg7
g698
sg64
Nsba(i__main__
Chain
p716
(dp717
g3
(lp718
(i__main__
Mention
p719
(dp720
g7
S't17'
p721
sg9
Nsg10
S'i64'
p722
sg12
Nsg13
Nsg14
(lp723
(i__main__
Token
p724
(dp725
g18
I323
sbasg23
I323
sbasg7
g721
sg64
Nsba(i__main__
Chain
p726
(dp727
g3
(lp728
(i__main__
Mention
p729
(dp730
g7
S't18'
p731
sg9
Nsg10
S'i67'
p732
sg12
Nsg13
Nsg14
(lp733
(i__main__
Token
p734
(dp735
g18
I344
sbasg23
I344
sba(i__main__
Mention
p736
(dp737
g7
S't18'
p738
sg9
S'Anaphora-RT'
p739
sg10
S'i68'
p740
sg12
S'i67'
p741
sg13
Nsg14
(lp742
(i__main__
Token
p743
(dp744
g18
I345
sba(i__main__
Token
p745
(dp746
g18
I346
sba(i__main__
Token
p747
(dp748
g18
I347
sba(i__main__
Token
p749
(dp750
g18
I348
sba(i__main__
Token
p751
(dp752
g18
I349
sba(i__main__
Token
p753
(dp754
g18
I350
sba(i__main__
Token
p755
(dp756
g18
I351
sbasg23
I350
sbasg7
g731
sg64
Nsba.