(lp0
(i__main__
Chain
p1
(dp2
S'mentionList'
p3
(lp4
(i__main__
Mention
p5
(dp6
S'chainId'
p7
S't1'
p8
sS'relType'
p9
NsS'mentionId'
p10
S'i1'
p11
sS'antecedentId'
p12
NsS'crefMod'
p13
NsS'tokenList'
p14
(lp15
(i__main__
Token
p16
(dp17
S'tokenId'
p18
I0
sba(i__main__
Token
p19
(dp20
g18
I1
sba(i__main__
Token
p21
(dp22
g18
I2
sbasS'mentionHead'
p23
I2
sba(i__main__
Mention
p24
(dp25
g7
S't1'
p26
sg9
S'Coreference-Identity'
p27
sg10
S'i11'
p28
sg12
S'i1'
p29
sg13
Nsg14
(lp30
(i__main__
Token
p31
(dp32
g18
I58
sbasg23
I58
sba(i__main__
Mention
p33
(dp34
g7
S't1'
p35
sg9
S'Coreference-Identity'
p36
sg10
S'i34'
p37
sg12
S'i11'
p38
sg13
Nsg14
(lp39
(i__main__
Token
p40
(dp41
g18
I144
sbasg23
I144
sba(i__main__
Mention
p42
(dp43
g7
S't1'
p44
sg9
S'Coreference-Identity'
p45
sg10
S'i35'
p46
sg12
S'i34'
p47
sg13
Nsg14
(lp48
(i__main__
Token
p49
(dp50
g18
I148
sbasg23
I148
sba(i__main__
Mention
p51
(dp52
g7
S't1'
p53
sg9
S'Coreference-Identity'
p54
sg10
S'i55'
p55
sg12
S'i35'
p56
sg13
Nsg14
(lp57
(i__main__
Token
p58
(dp59
g18
I244
sbasg23
I244
sba(i__main__
Mention
p60
(dp61
g7
S't1'
p62
sg9
S'Coreference-Identity'
p63
sg10
S'i66'
p64
sg12
S'i55'
p65
sg13
Nsg14
(lp66
(i__main__
Token
p67
(dp68
g18
I284
sbasg23
I284
sbasg7
g8
sS'chainHead'
p69
Nsba(i__main__
Chain
p70
(dp71
g3
(lp72
(i__main__
Mention
p73
(dp74
g7
S't2'
p75
sg9
Nsg10
S'i2'
p76
sg12
Nsg13
Nsg14
(lp77
(i__main__
Token
p78
(dp79
g18
I14
sbasg23
I14
sba(i__main__
Mention
p80
(dp81
g7
S't2'
p82
sg9
S'Coreference-Identity'
p83
sg10
S'i5'
p84
sg12
S'i2'
p85
sg13
Nsg14
(lp86
(i__main__
Token
p87
(dp88
g18
I31
sbasg23
I31
sba(i__main__
Mention
p89
(dp90
g7
S't2'
p91
sg9
S'Coreference-Identity'
p92
sg10
S'i8'
p93
sg12
S'i5'
p94
sg13
Nsg14
(lp95
(i__main__
Token
p96
(dp97
g18
I49
sbasg23
I49
sba(i__main__
Mention
p98
(dp99
g7
S't2'
p100
sg9
S'Coreference-Identity'
p101
sg10
S'i13'
p102
sg12
S'i8'
p103
sg13
Nsg14
(lp104
(i__main__
Token
p105
(dp106
g18
I70
sbasg23
I70
sba(i__main__
Mention
p107
(dp108
g7
S't2'
p109
sg9
S'Anaphora-C'
p110
sg10
S'i14'
p111
sg12
S'i13'
p112
sg13
Nsg14
(lp113
(i__main__
Token
p114
(dp115
g18
I72
sbasg23
I72
sba(i__main__
Mention
p116
(dp117
g7
S't2'
p118
sg9
S'Coreference-Identity'
p119
sg10
S'i19'
p120
sg12
S'i14'
p121
sg13
Nsg14
(lp122
(i__main__
Token
p123
(dp124
g18
I92
sbasg23
I92
sba(i__main__
Mention
p125
(dp126
g7
S't2'
p127
sg9
S'Coreference-Identity'
p128
sg10
S'i33'
p129
sg12
S'i19'
p130
sg13
Nsg14
(lp131
(i__main__
Token
p132
(dp133
g18
I137
sbasg23
I137
sba(i__main__
Mention
p134
(dp135
g7
S't2'
p136
sg9
S'Coreference-Identity'
p137
sg10
S'i36'
p138
sg12
S'i33'
p139
sg13
Nsg14
(lp140
(i__main__
Token
p141
(dp142
g18
I159
sbasg23
I159
sba(i__main__
Mention
p143
(dp144
g7
S't2'
p145
sg9
S'Coreference-Identity'
p146
sg10
S'i42'
p147
sg12
S'i36'
p148
sg13
Nsg14
(lp149
(i__main__
Token
p150
(dp151
g18
I203
sbasg23
I203
sba(i__main__
Mention
p152
(dp153
g7
S't2'
p154
sg9
S'Coreference-Identity'
p155
sg10
S'i46'
p156
sg12
S'i42'
p157
sg13
Nsg14
(lp158
(i__main__
Token
p159
(dp160
g18
I219
sbasg23
I219
sba(i__main__
Mention
p161
(dp162
g7
S't2'
p163
sg9
S'Anaphora-C'
p164
sg10
S'i49'
p165
sg12
S'i46'
p166
sg13
Nsg14
(lp167
(i__main__
Token
p168
(dp169
g18
I233
sbasg23
I233
sba(i__main__
Mention
p170
(dp171
g7
S't2'
p172
sg9
S'Coreference-Identity'
p173
sg10
S'i54'
p174
sg12
S'i49'
p175
sg13
Nsg14
(lp176
(i__main__
Token
p177
(dp178
g18
I243
sbasg23
I243
sba(i__main__
Mention
p179
(dp180
g7
S't2'
p181
sg9
S'Coreference-Identity'
p182
sg10
S'i65'
p183
sg12
S'i54'
p184
sg13
Nsg14
(lp185
(i__main__
Token
p186
(dp187
g18
I283
sbasg23
I283
sbasg7
g75
sg69
Nsba(i__main__
Chain
p188
(dp189
g3
(lp190
(i__main__
Mention
p191
(dp192
g7
S't3'
p193
sg9
Nsg10
S'i3'
p194
sg12
Nsg13
Nsg14
(lp195
(i__main__
Token
p196
(dp197
g18
I27
sbasg23
I27
sba(i__main__
Mention
p198
(dp199
g7
S't3'
p200
sg9
S'Coreference-NounComplement'
p201
sg10
S'i4'
p202
sg12
S'i3'
p203
sg13
Nsg14
(lp204
(i__main__
Token
p205
(dp206
g18
I28
sba(i__main__
Token
p207
(dp208
g18
I29
sbasg23
I29
sba(i__main__
Mention
p209
(dp210
g7
S't3'
p211
sg9
S'Anaphora-C'
p212
sg10
S'i6'
p213
sg12
S'i4'
p214
sg13
Nsg14
(lp215
(i__main__
Token
p216
(dp217
g18
I38
sbasg23
I38
sba(i__main__
Mention
p218
(dp219
g7
S't3'
p220
sg9
S'Coreference-Identity'
p221
sg10
S'i9'
p222
sg12
S'i6'
p223
sg13
Nsg14
(lp224
(i__main__
Token
p225
(dp226
g18
I54
sbasg23
I54
sba(i__main__
Mention
p227
(dp228
g7
S't3'
p229
sg9
S'Coreference-Noun-Noun'
p230
sg10
S'i16'
p231
sg12
S'i9'
p232
sg13
Nsg14
(lp233
(i__main__
Token
p234
(dp235
g18
I82
sba(i__main__
Token
p236
(dp237
g18
I83
sbasg23
I83
sba(i__main__
Mention
p238
(dp239
g7
S't3'
p240
sg9
S'Coreference-NounComplement'
p241
sg10
S'i17'
p242
sg12
S'i80'
p243
sg13
Nsg14
(lp244
(i__main__
Token
p245
(dp246
g18
I84
sba(i__main__
Token
p247
(dp248
g18
I85
sbasg23
I85
sba(i__main__
Mention
p249
(dp250
g7
S't3'
p251
sg9
S'Anaphora-C'
p252
sg10
S'i21'
p253
sg12
S'i17'
p254
sg13
Nsg14
(lp255
(i__main__
Token
p256
(dp257
g18
I97
sbasg23
I97
sba(i__main__
Mention
p258
(dp259
g7
S't3'
p260
sg9
S'Coreference-Identity'
p261
sg10
S'i28'
p262
sg12
S'i81'
p263
sg13
Nsg14
(lp264
(i__main__
Token
p265
(dp266
g18
I111
sbasg23
I111
sba(i__main__
Mention
p267
(dp268
g7
S't3'
p269
sg9
S'Coreference-Identity'
p270
sg10
S'i29'
p271
sg12
S'i28'
p272
sg13
Nsg14
(lp273
(i__main__
Token
p274
(dp275
g18
I120
sbasg23
I120
sba(i__main__
Mention
p276
(dp277
g7
S't3'
p278
sg9
S'Coreference-Identity'
p279
sg10
S'i32'
p280
sg12
S'i29'
p281
sg13
Nsg14
(lp282
(i__main__
Token
p283
(dp284
g18
I134
sbasg23
I134
sba(i__main__
Mention
p285
(dp286
g7
S't3'
p287
sg9
S'Coreference-Identity'
p288
sg10
S'i38'
p289
sg12
S'i32'
p290
sg13
Nsg14
(lp291
(i__main__
Token
p292
(dp293
g18
I173
sbasg23
I173
sba(i__main__
Mention
p294
(dp295
g7
S't3'
p296
sg9
S'Anaphora-C'
p297
sg10
S'i40'
p298
sg12
S'i38'
p299
sg13
Nsg14
(lp300
(i__main__
Token
p301
(dp302
g18
I193
sbasg23
I193
sba(i__main__
Mention
p303
(dp304
g7
S't3'
p305
sg9
S'Coreference-Identity'
p306
sg10
S'i41'
p307
sg12
S'i40'
p308
sg13
Nsg14
(lp309
(i__main__
Token
p310
(dp311
g18
I201
sbasg23
I201
sba(i__main__
Mention
p312
(dp313
g7
S't3'
p314
sg9
S'Anaphora-C'
p315
sg10
S'i43'
p316
sg12
S'i41'
p317
sg13
Nsg14
(lp318
(i__main__
Token
p319
(dp320
g18
I210
sbasg23
I210
sba(i__main__
Mention
p321
(dp322
g7
S't3'
p323
sg9
S'Anaphora-C'
p324
sg10
S'i51'
p325
sg12
S'i43'
p326
sg13
Nsg14
(lp327
(i__main__
Token
p328
(dp329
g18
I234
sbasg23
I234
sba(i__main__
Mention
p330
(dp331
g7
S't3'
p332
sg9
S'Coreference-Identity'
p333
sg10
S'i56'
p334
sg12
S'i51'
p335
sg13
Nsg14
(lp336
(i__main__
Token
p337
(dp338
g18
I251
sbasg23
I251
sba(i__main__
Mention
p339
(dp340
g7
S't3'
p341
sg9
Nsg10
S'i61'
p342
sg12
Nsg13
Nsg14
(lp343
(i__main__
Token
p344
(dp345
g18
I261
sba(i__main__
Token
p346
(dp347
g18
I262
sbasg23
Nsba(i__main__
Mention
p348
(dp349
g7
S't3'
p350
sg9
S'Coreference-PartOf'
p351
sg10
S'i64'
p352
sg12
S'i62'
p353
sg13
Nsg14
(lp354
(i__main__
Token
p355
(dp356
g18
I272
sbasg23
I272
sba(i__main__
Mention
p357
(dp358
g7
S't3'
p359
sg9
S'Anaphora-C'
p360
sg10
S'i68'
p361
sg12
S'i64'
p362
sg13
Nsg14
(lp363
(i__main__
Token
p364
(dp365
g18
I288
sbasg23
I288
sbasg7
g193
sg69
Nsba(i__main__
Chain
p366
(dp367
g3
(lp368
(i__main__
Mention
p369
(dp370
g7
S't4'
p371
sg9
S'anaphora-?'
p372
sg10
S'i7'
p373
sg12
S'i7'
p374
sg13
Nsg14
(lp375
(i__main__
Token
p376
(dp377
g18
I43
sbasg23
I43
sbasg7
g371
sg69
Nsba(i__main__
Chain
p378
(dp379
g3
(lp380
(i__main__
Mention
p381
(dp382
g7
S't5'
p383
sg9
Nsg10
S'i10'
p384
sg12
Nsg13
Nsg14
(lp385
(i__main__
Token
p386
(dp387
g18
I56
sbasg23
I56
sba(i__main__
Mention
p388
(dp389
g7
S't5'
p390
sg9
S'Coreference-Identity'
p391
sg10
S'i30'
p392
sg12
S'i10'
p393
sg13
Nsg14
(lp394
(i__main__
Token
p395
(dp396
g18
I125
sbasg23
I125
sba(i__main__
Mention
p397
(dp398
g7
S't5'
p399
sg9
S'Coreference-Identity'
p400
sg10
S'i39'
p401
sg12
S'i30'
p402
sg13
Nsg14
(lp403
(i__main__
Token
p404
(dp405
g18
I186
sbasg23
I186
sba(i__main__
Mention
p406
(dp407
g7
S't5'
p408
sg9
S'Coreference-Identity'
p409
sg10
S'i44'
p410
sg12
S'i39'
p411
sg13
Nsg14
(lp412
(i__main__
Token
p413
(dp414
g18
I211
sbasg23
I211
sba(i__main__
Mention
p415
(dp416
g7
S't5'
p417
sg9
S'Coreference-Identity'
p418
sg10
S'i52'
p419
sg12
S'i44'
p420
sg13
Nsg14
(lp421
(i__main__
Token
p422
(dp423
g18
I235
sba(i__main__
Token
p424
(dp425
g18
I236
sbasg23
I236
sba(i__main__
Mention
p426
(dp427
g7
S't5'
p428
sg9
S'Coreference-Identity'
p429
sg10
S'i57'
p430
sg12
S'i52'
p431
sg13
Nsg14
(lp432
(i__main__
Token
p433
(dp434
g18
I253
sbasg23
I253
sba(i__main__
Mention
p435
(dp436
g7
S't5'
p437
sg9
S'Coreference-Identity'
p438
sg10
S'i69'
p439
sg12
S'i57'
p440
sg13
Nsg14
(lp441
(i__main__
Token
p442
(dp443
g18
I292
sbasg23
I292
sbasg7
g383
sg69
Nsba(i__main__
Chain
p444
(dp445
g3
(lp446
(i__main__
Mention
p447
(dp448
g7
S't6'
p449
sg9
Nsg10
S'i12'
p450
sg12
Nsg13
Nsg14
(lp451
(i__main__
Token
p452
(dp453
g18
I58
sba(i__main__
Token
p454
(dp455
g18
I59
sbasg23
I59
sba(i__main__
Mention
p456
(dp457
g7
S't6'
p458
sg9
S'Coreference-Identity'
p459
sg10
S'i67'
p460
sg12
S'i12'
p461
sg13
Nsg14
(lp462
(i__main__
Token
p463
(dp464
g18
I284
sba(i__main__
Token
p465
(dp466
g18
I285
sbasg23
I285
sbasg7
g449
sg69
Nsba(i__main__
Chain
p467
(dp468
g3
(lp469
(i__main__
Mention
p470
(dp471
g7
S't7'
p472
sg9
Nsg10
S'i18'
p473
sg12
Nsg13
Nsg14
(lp474
(i__main__
Token
p475
(dp476
g18
I92
sba(i__main__
Token
p477
(dp478
g18
I93
sbasg23
I93
sba(i__main__
Mention
p479
(dp480
g7
S't7'
p481
sg9
S'Coreference-NounComplement'
p482
sg10
S'i20'
p483
sg12
S'i18'
p484
sg13
Nsg14
(lp485
(i__main__
Token
p486
(dp487
g18
I94
sba(i__main__
Token
p488
(dp489
g18
I95
sbasg23
I95
sba(i__main__
Mention
p490
(dp491
g7
S't7'
p492
sg9
S'Coreference-Identity'
p493
sg10
S'i25'
p494
sg12
S'i20'
p495
sg13
Nsg14
(lp496
(i__main__
Token
p497
(dp498
g18
I104
sbasg23
I104
sba(i__main__
Mention
p499
(dp500
g7
S't7'
p501
sg9
S'Anaphora-C'
p502
sg10
S'i26'
p503
sg12
S'i25'
p504
sg13
Nsg14
(lp505
(i__main__
Token
p506
(dp507
g18
I108
sbasg23
I108
sba(i__main__
Mention
p508
(dp509
g7
S't7'
p510
sg9
S'Coreference-Identity'
p511
sg10
S'i31'
p512
sg12
S'i26'
p513
sg13
Nsg14
(lp514
(i__main__
Token
p515
(dp516
g18
I129
sba(i__main__
Token
p517
(dp518
g18
I130
sbasg23
I130
sba(i__main__
Mention
p519
(dp520
g7
S't7'
p521
sg9
Nsg10
S'i60'
p522
sg12
Nsg13
Nsg14
(lp523
(i__main__
Token
p524
(dp525
g18
I261
sba(i__main__
Token
p526
(dp527
g18
I262
sbasg23
Nsba(i__main__
Mention
p528
(dp529
g7
S't7'
p530
sg9
S'Coreference-PartOf'
p531
sg10
S'i63'
p532
sg12
S'i63'
p533
sg13
Nsg14
(lp534
(i__main__
Token
p535
(dp536
g18
I270
sbasg23
I270
sbasg7
g472
sg69
Nsba(i__main__
Chain
p537
(dp538
g3
(lp539
(i__main__
Mention
p540
(dp541
g7
S't8'
p542
sg9
Nsg10
S'i23'
p543
sg12
Nsg13
Nsg14
(lp544
(i__main__
Token
p545
(dp546
g18
I98
sbasg23
I98
sba(i__main__
Mention
p547
(dp548
g7
S't8'
p549
sg9
S'Coreference-Identity'
p550
sg10
S'i24'
p551
sg12
S'i23'
p552
sg13
Nsg14
(lp553
(i__main__
Token
p554
(dp555
g18
I101
sbasg23
I101
sba(i__main__
Mention
p556
(dp557
g7
S't8'
p558
sg9
S'Coreference-Identity'
p559
sg10
S'i62'
p560
sg12
S'i24'
p561
sg13
Nsg14
(lp562
(i__main__
Token
p563
(dp564
g18
I264
sbasg23
I264
sbasg7
g542
sg69
Nsba(i__main__
Chain
p565
(dp566
g3
(lp567
(i__main__
Mention
p568
(dp569
g7
S't9'
p570
sg9
S'anaphora-?'
p571
sg10
S'i27'
p572
sg12
S'i27'
p573
sg13
Nsg14
(lp574
(i__main__
Token
p575
(dp576
g18
I109
sbasg23
I109
sbasg7
g570
sg69
Nsba(i__main__
Chain
p577
(dp578
g3
(lp579
(i__main__
Mention
p580
(dp581
g7
S't10'
p582
sg9
S'anaphora-?'
p583
sg10
S'i37'
p584
sg12
S'i37'
p585
sg13
Nsg14
(lp586
(i__main__
Token
p587
(dp588
g18
I162
sbasg23
I162
sbasg7
g582
sg69
Nsba(i__main__
Chain
p589
(dp590
g3
(lp591
(i__main__
Mention
p592
(dp593
g7
S't11'
p594
sg9
Nsg10
S'i45'
p595
sg12
Nsg13
Nsg14
(lp596
(i__main__
Token
p597
(dp598
g18
I219
sba(i__main__
Token
p599
(dp600
g18
I220
sba(i__main__
Token
p601
(dp602
g18
I221
sba(i__main__
Token
p603
(dp604
g18
I222
sba(i__main__
Token
p605
(dp606
g18
I223
sba(i__main__
Token
p607
(dp608
g18
I224
sba(i__main__
Token
p609
(dp610
g18
I225
sba(i__main__
Token
p611
(dp612
g18
I226
sba(i__main__
Token
p613
(dp614
g18
I227
sba(i__main__
Token
p615
(dp616
g18
I228
sba(i__main__
Token
p617
(dp618
g18
I229
sbasg23
I227
sba(i__main__
Mention
p619
(dp620
g7
S't11'
p621
sg9
S'Anaphora-C'
p622
sg10
S'i47'
p623
sg12
S'i45'
p624
sg13
Nsg14
(lp625
(i__main__
Token
p626
(dp627
g18
I231
sbasg23
I231
sbasg7
g594
sg69
Nsba(i__main__
Chain
p628
(dp629
g3
(lp630
(i__main__
Mention
p631
(dp632
g7
S't12'
p633
sg9
Nsg10
S'i53'
p634
sg12
Nsg13
Nsg14
(lp635
(i__main__
Token
p636
(dp637
g18
I243
sba(i__main__
Token
p638
(dp639
g18
I244
sba(i__main__
Token
p640
(dp641
g18
I245
sba(i__main__
Token
p642
(dp643
g18
I246
sba(i__main__
Token
p644
(dp645
g18
I247
sba(i__main__
Token
p646
(dp647
g18
I248
sba(i__main__
Token
p648
(dp649
g18
I249
sba(i__main__
Token
p650
(dp651
g18
I250
sba(i__main__
Token
p652
(dp653
g18
I251
sba(i__main__
Token
p654
(dp655
g18
I252
sba(i__main__
Token
p656
(dp657
g18
I253
sba(i__main__
Token
p658
(dp659
g18
I254
sba(i__main__
Token
p660
(dp661
g18
I255
sba(i__main__
Token
p662
(dp663
g18
I256
sba(i__main__
Token
p664
(dp665
g18
I257
sbasg23
I257
sba(i__main__
Mention
p666
(dp667
g7
S't12'
p668
sg9
S'Anaphora-C'
p669
sg10
S'i58'
p670
sg12
S'i53'
p671
sg13
Nsg14
(lp672
(i__main__
Token
p673
(dp674
g18
I259
sbasg23
I259
sbasg7
g633
sg69
Nsba.