(lp0
(i__main__
Chain
p1
(dp2
S'mentionList'
p3
(lp4
(i__main__
Mention
p5
(dp6
S'chainId'
p7
S't1'
p8
sS'relType'
p9
NsS'mentionId'
p10
S'i1'
p11
sS'antecedentId'
p12
NsS'crefMod'
p13
NsS'tokenList'
p14
(lp15
(i__main__
Token
p16
(dp17
S'tokenId'
p18
I0
sba(i__main__
Token
p19
(dp20
g18
I1
sbasS'mentionHead'
p21
I1
sba(i__main__
Mention
p22
(dp23
g7
S't1'
p24
sg9
S'Coreference-Identity'
p25
sg10
S'i5'
p26
sg12
S'i1'
p27
sg13
Nsg14
(lp28
(i__main__
Token
p29
(dp30
g18
I25
sbasg21
I25
sba(i__main__
Mention
p31
(dp32
g7
S't1'
p33
sg9
S'Coreference-Identity'
p34
sg10
S'i8'
p35
sg12
S'i5'
p36
sg13
Nsg14
(lp37
(i__main__
Token
p38
(dp39
g18
I33
sbasg21
I33
sba(i__main__
Mention
p40
(dp41
g7
S't1'
p42
sg9
S'Coreference-Identity'
p43
sg10
S'i10'
p44
sg12
S'i8'
p45
sg13
Nsg14
(lp46
(i__main__
Token
p47
(dp48
g18
I43
sbasg21
I43
sbasg7
g8
sS'chainHead'
p49
Nsba(i__main__
Chain
p50
(dp51
g3
(lp52
(i__main__
Mention
p53
(dp54
g7
S't2'
p55
sg9
Nsg10
S'i2'
p56
sg12
Nsg13
Nsg14
(lp57
(i__main__
Token
p58
(dp59
g18
I5
sba(i__main__
Token
p60
(dp61
g18
I6
sbasg21
I6
sba(i__main__
Mention
p62
(dp63
g7
S't2'
p64
sg9
S'Anaphora-T'
p65
sg10
S'i3'
p66
sg12
S'i2'
p67
sg13
Nsg14
(lp68
(i__main__
Token
p69
(dp70
g18
I10
sbasg21
I10
sba(i__main__
Mention
p71
(dp72
g7
S't2'
p73
sg9
S'Anaphora-RT'
p74
sg10
S'i4'
p75
sg12
S'i3'
p76
sg13
Nsg14
(lp77
(i__main__
Token
p78
(dp79
g18
I11
sba(i__main__
Token
p80
(dp81
g18
I12
sba(i__main__
Token
p82
(dp83
g18
I13
sba(i__main__
Token
p84
(dp85
g18
I14
sba(i__main__
Token
p86
(dp87
g18
I15
sba(i__main__
Token
p88
(dp89
g18
I16
sba(i__main__
Token
p90
(dp91
g18
I17
sba(i__main__
Token
p92
(dp93
g18
I18
sba(i__main__
Token
p94
(dp95
g18
I19
sba(i__main__
Token
p96
(dp97
g18
I20
sba(i__main__
Token
p98
(dp99
g18
I21
sba(i__main__
Token
p100
(dp101
g18
I22
sba(i__main__
Token
p102
(dp103
g18
I23
sbasg21
I23
sbasg7
g55
sg49
Nsba(i__main__
Chain
p104
(dp105
g3
(lp106
(i__main__
Mention
p107
(dp108
g7
S't3'
p109
sg9
Nsg10
S'i6'
p110
sg12
Nsg13
Nsg14
(lp111
(i__main__
Token
p112
(dp113
g18
I25
sba(i__main__
Token
p114
(dp115
g18
I26
sbasg21
I26
sba(i__main__
Mention
p116
(dp117
g7
S't3'
p118
sg9
S'Coreference-NounComplement'
p119
sg10
S'i7'
p120
sg12
S'i6'
p121
sg13
Nsg14
(lp122
(i__main__
Token
p123
(dp124
g18
I27
sba(i__main__
Token
p125
(dp126
g18
I28
sbasg21
I28
sba(i__main__
Mention
p127
(dp128
g7
S't3'
p129
sg9
S'Coreference-Noun-Noun'
p130
sg10
S'i21'
p131
sg12
S'i7'
p132
sg13
Nsg14
(lp133
(i__main__
Token
p134
(dp135
g18
I93
sbasg21
I93
sba(i__main__
Mention
p136
(dp137
g7
S't3'
p138
sg9
S'Anaphora-C'
p139
sg10
S'i22'
p140
sg12
S'i21'
p141
sg13
Nsg14
(lp142
(i__main__
Token
p143
(dp144
g18
I100
sbasg21
I100
sbasg7
g109
sg49
Nsba(i__main__
Chain
p145
(dp146
g3
(lp147
(i__main__
Mention
p148
(dp149
g7
S't4'
p150
sg9
Nsg10
S'i9'
p151
sg12
Nsg13
Nsg14
(lp152
(i__main__
Token
p153
(dp154
g18
I35
sbasg21
I35
sba(i__main__
Mention
p155
(dp156
g7
S't4'
p157
sg9
S'Coreference-Identity'
p158
sg10
S'i11'
p159
sg12
S'i9'
p160
sg13
Nsg14
(lp161
(i__main__
Token
p162
(dp163
g18
I45
sbasg21
I45
sbasg7
g150
sg49
Nsba(i__main__
Chain
p164
(dp165
g3
(lp166
(i__main__
Mention
p167
(dp168
g7
S't5'
p169
sg9
Nsg10
S'i12'
p170
sg12
Nsg13
Nsg14
(lp171
(i__main__
Token
p172
(dp173
g18
I49
sba(i__main__
Token
p174
(dp175
g18
I50
sbasg21
I50
sba(i__main__
Mention
p176
(dp177
g7
S't5'
p178
sg9
S'Coreference-NounComplement'
p179
sg10
S'i15'
p180
sg12
S'i12'
p181
sg13
Nsg14
(lp182
(i__main__
Token
p183
(dp184
g18
I51
sba(i__main__
Token
p185
(dp186
g18
I52
sba(i__main__
Token
p187
(dp188
g18
I53
sbasg21
I53
sba(i__main__
Mention
p189
(dp190
g7
S't5'
p191
sg9
S'Anaphora-C'
p192
sg10
S'i23'
p193
sg12
S'i15'
p194
sg13
Nsg14
(lp195
(i__main__
Token
p196
(dp197
g18
I101
sbasg21
I101
sba(i__main__
Mention
p198
(dp199
g7
S't5'
p200
sg9
S'Coreference-Noun-Noun'
p201
sg10
S'i25'
p202
sg12
S'i23'
p203
sg13
Nsg14
(lp204
(i__main__
Token
p205
(dp206
g18
I107
sbasg21
I107
sbasg7
g169
sg49
Nsba(i__main__
Chain
p207
(dp208
g3
(lp209
(i__main__
Mention
p210
(dp211
g7
S't6'
p212
sg9
Nsg10
S'i13'
p213
sg12
Nsg13
Nsg14
(lp214
(i__main__
Token
p215
(dp216
g18
I49
sbasg21
I49
sba(i__main__
Mention
p217
(dp218
g7
S't6'
p219
sg9
S'Coreference-Identity'
p220
sg10
S'i24'
p221
sg12
S'i13'
p222
sg13
Nsg14
(lp223
(i__main__
Token
p224
(dp225
g18
I105
sbasg21
I105
sbasg7
g212
sg49
Nsba(i__main__
Chain
p226
(dp227
g3
(lp228
(i__main__
Mention
p229
(dp230
g7
S't7'
p231
sg9
Nsg10
S'i14'
p232
sg12
Nsg13
Nsg14
(lp233
(i__main__
Token
p234
(dp235
g18
I49
sba(i__main__
Token
p236
(dp237
g18
I50
sba(i__main__
Token
p238
(dp239
g18
I51
sba(i__main__
Token
p240
(dp241
g18
I52
sba(i__main__
Token
p242
(dp243
g18
I53
sba(i__main__
Token
p244
(dp245
g18
I54
sba(i__main__
Token
p246
(dp247
g18
I55
sba(i__main__
Token
p248
(dp249
g18
I56
sba(i__main__
Token
p250
(dp251
g18
I57
sba(i__main__
Token
p252
(dp253
g18
I58
sba(i__main__
Token
p254
(dp255
g18
I59
sba(i__main__
Token
p256
(dp257
g18
I60
sba(i__main__
Token
p258
(dp259
g18
I61
sba(i__main__
Token
p260
(dp261
g18
I62
sba(i__main__
Token
p262
(dp263
g18
I63
sba(i__main__
Token
p264
(dp265
g18
I64
sba(i__main__
Token
p266
(dp267
g18
I65
sba(i__main__
Token
p268
(dp269
g18
I66
sba(i__main__
Token
p270
(dp271
g18
I67
sba(i__main__
Token
p272
(dp273
g18
I68
sba(i__main__
Token
p274
(dp275
g18
I69
sba(i__main__
Token
p276
(dp277
g18
I70
sba(i__main__
Token
p278
(dp279
g18
I71
sba(i__main__
Token
p280
(dp281
g18
I72
sba(i__main__
Token
p282
(dp283
g18
I73
sba(i__main__
Token
p284
(dp285
g18
I74
sba(i__main__
Token
p286
(dp287
g18
I75
sba(i__main__
Token
p288
(dp289
g18
I76
sba(i__main__
Token
p290
(dp291
g18
I77
sba(i__main__
Token
p292
(dp293
g18
I78
sba(i__main__
Token
p294
(dp295
g18
I79
sba(i__main__
Token
p296
(dp297
g18
I80
sba(i__main__
Token
p298
(dp299
g18
I81
sba(i__main__
Token
p300
(dp301
g18
I82
sba(i__main__
Token
p302
(dp303
g18
I83
sba(i__main__
Token
p304
(dp305
g18
I84
sba(i__main__
Token
p306
(dp307
g18
I85
sba(i__main__
Token
p308
(dp309
g18
I86
sba(i__main__
Token
p310
(dp311
g18
I87
sba(i__main__
Token
p312
(dp313
g18
I88
sba(i__main__
Token
p314
(dp315
g18
I89
sbasg21
I87
sba(i__main__
Mention
p316
(dp317
g7
S't7'
p318
sg9
S'Anaphora-E'
p319
sg10
S'i20'
p320
sg12
S'i14'
p321
sg13
Nsg14
(lp322
(i__main__
Token
p323
(dp324
g18
I91
sbasg21
I91
sbasg7
g231
sg49
Nsba(i__main__
Chain
p325
(dp326
g3
(lp327
(i__main__
Mention
p328
(dp329
g7
S't8'
p330
sg9
Nsg10
S'i16'
p331
sg12
Nsg13
Nsg14
(lp332
(i__main__
Token
p333
(dp334
g18
I55
sba(i__main__
Token
p335
(dp336
g18
I56
sbasg21
I56
sba(i__main__
Mention
p337
(dp338
g7
S't8'
p339
sg9
S'Anaphora-C'
p340
sg10
S'i17'
p341
sg12
S'i16'
p342
sg13
Nsg14
(lp343
(i__main__
Token
p344
(dp345
g18
I61
sbasg21
I61
sbasg7
g330
sg49
Nsba(i__main__
Chain
p346
(dp347
g3
(lp348
(i__main__
Mention
p349
(dp350
g7
S't9'
p351
sg9
Nsg10
S'i18'
p352
sg12
Nsg13
Nsg14
(lp353
(i__main__
Token
p354
(dp355
g18
I62
sba(i__main__
Token
p356
(dp357
g18
I63
sbasg21
I63
sba(i__main__
Mention
p358
(dp359
g7
S't9'
p360
sg9
S'Coreference-Identity'
p361
sg10
S'i19'
p362
sg12
S'i18'
p363
sg13
Nsg14
(lp364
(i__main__
Token
p365
(dp366
g18
I76
sba(i__main__
Token
p367
(dp368
g18
I77
sbasg21
I77
sbasg7
g351
sg49
Nsba.