(lp0
(i__main__
Chain
p1
(dp2
S'mentionList'
p3
(lp4
(i__main__
Mention
p5
(dp6
S'chainId'
p7
S't1'
p8
sS'relType'
p9
NsS'mentionId'
p10
S'i1'
p11
sS'antecedentId'
p12
NsS'crefMod'
p13
NsS'tokenList'
p14
(lp15
(i__main__
Token
p16
(dp17
S'tokenId'
p18
I0
sba(i__main__
Token
p19
(dp20
g18
I1
sba(i__main__
Token
p21
(dp22
g18
I2
sba(i__main__
Token
p23
(dp24
g18
I3
sba(i__main__
Token
p25
(dp26
g18
I4
sba(i__main__
Token
p27
(dp28
g18
I5
sbasS'mentionHead'
p29
I5
sba(i__main__
Mention
p30
(dp31
g7
S't1'
p32
sg9
S'Coreference-Identity'
p33
sg10
S'i21'
p34
sg12
S'i1'
p35
sg13
Nsg14
(lp36
(i__main__
Token
p37
(dp38
g18
I94
sba(i__main__
Token
p39
(dp40
g18
I95
sbasg29
I95
sba(i__main__
Mention
p41
(dp42
g7
S't1'
p43
sg9
S'Coreference-Identity'
p44
sg10
S'i25'
p45
sg12
S'i21'
p46
sg13
Nsg14
(lp47
(i__main__
Token
p48
(dp49
g18
I106
sba(i__main__
Token
p50
(dp51
g18
I107
sbasg29
I107
sba(i__main__
Mention
p52
(dp53
g7
S't1'
p54
sg9
S'Coreference-Identity'
p55
sg10
S'i59'
p56
sg12
S'i25'
p57
sg13
Nsg14
(lp58
(i__main__
Token
p59
(dp60
g18
I188
sbasg29
I188
sba(i__main__
Mention
p61
(dp62
g7
S't1'
p63
sg9
S'Coreference-Identity'
p64
sg10
S'i63'
p65
sg12
S'i59'
p66
sg13
Nsg14
(lp67
(i__main__
Token
p68
(dp69
g18
I209
sba(i__main__
Token
p70
(dp71
g18
I210
sba(i__main__
Token
p72
(dp73
g18
I211
sba(i__main__
Token
p74
(dp75
g18
I212
sba(i__main__
Token
p76
(dp77
g18
I213
sbasg29
I213
sba(i__main__
Mention
p78
(dp79
g7
S't1'
p80
sg9
S'Coreference-Identity'
p81
sg10
S'i79'
p82
sg12
S'i63'
p83
sg13
Nsg14
(lp84
(i__main__
Token
p85
(dp86
g18
I270
sbasg29
I270
sba(i__main__
Mention
p87
(dp88
g7
S't1'
p89
sg9
S'Coreference-Identity'
p90
sg10
S'i112'
p91
sg12
S'i79'
p92
sg13
Nsg14
(lp93
(i__main__
Token
p94
(dp95
g18
I385
sba(i__main__
Token
p96
(dp97
g18
I386
sbasg29
I386
sba(i__main__
Mention
p98
(dp99
g7
S't1'
p100
sg9
S'Coreference-Identity'
p101
sg10
S'i116'
p102
sg12
S'i112'
p103
sg13
Nsg14
(lp104
(i__main__
Token
p105
(dp106
g18
I400
sba(i__main__
Token
p107
(dp108
g18
I401
sbasg29
I401
sba(i__main__
Mention
p109
(dp110
g7
S't1'
p111
sg9
S'Coreference-Identity'
p112
sg10
S'i143'
p113
sg12
S'i116'
p114
sg13
Nsg14
(lp115
(i__main__
Token
p116
(dp117
g18
I537
sba(i__main__
Token
p118
(dp119
g18
I538
sbasg29
I538
sbasg7
g8
sS'chainHead'
p120
Nsba(i__main__
Chain
p121
(dp122
g3
(lp123
(i__main__
Mention
p124
(dp125
g7
S't2'
p126
sg9
Nsg10
S'i2'
p127
sg12
Nsg13
Nsg14
(lp128
(i__main__
Token
p129
(dp130
g18
I0
sba(i__main__
Token
p131
(dp132
g18
I1
sbasg29
I1
sba(i__main__
Mention
p133
(dp134
g7
S't2'
p135
sg9
S'Coreference-Abbreviation'
p136
sg10
S'i64'
p137
sg12
S'i2'
p138
sg13
Nsg14
(lp139
(i__main__
Token
p140
(dp141
g18
I209
sbasg29
I209
sba(i__main__
Mention
p142
(dp143
g7
S't2'
p144
sg9
S'Coreference-Identity'
p145
sg10
S'i145'
p146
sg12
S'i64'
p147
sg13
Nsg14
(lp148
(i__main__
Token
p149
(dp150
g18
I548
sbasg29
I548
sbasg7
g126
sg120
Nsba(i__main__
Chain
p151
(dp152
g3
(lp153
(i__main__
Mention
p154
(dp155
g7
S't3'
p156
sg9
Nsg10
S'i3'
p157
sg12
Nsg13
Nsg14
(lp158
(i__main__
Token
p159
(dp160
g18
I7
sbasg29
I7
sba(i__main__
Mention
p161
(dp162
g7
S't3'
p163
sg9
S'Coreference-Identity'
p164
sg10
S'i28'
p165
sg12
S'i3'
p166
sg13
Nsg14
(lp167
(i__main__
Token
p168
(dp169
g18
I113
sbasg29
I113
sbasg7
g156
sg120
Nsba(i__main__
Chain
p170
(dp171
g3
(lp172
(i__main__
Mention
p173
(dp174
g7
S't4'
p175
sg9
Nsg10
S'i4'
p176
sg12
Nsg13
Nsg14
(lp177
(i__main__
Token
p178
(dp179
g18
I9
sbasg29
I9
sba(i__main__
Mention
p180
(dp181
g7
S't4'
p182
sg9
S'Coreference-Apposition'
p183
sg10
S'i5'
p184
sg12
S'i4'
p185
sg13
Nsg14
(lp186
(i__main__
Token
p187
(dp188
g18
I11
sba(i__main__
Token
p189
(dp190
g18
I12
sbasg29
I12
sba(i__main__
Mention
p191
(dp192
g7
S't4'
p193
sg9
S'Anaphora-C'
p194
sg10
S'i6'
p195
sg12
S'i5'
p196
sg13
Nsg14
(lp197
(i__main__
Token
p198
(dp199
g18
I21
sbasg29
I21
sba(i__main__
Mention
p200
(dp201
g7
S't4'
p202
sg9
S'Coreference-Noun-Noun'
p203
sg10
S'i11'
p204
sg12
S'i6'
p205
sg13
Nsg14
(lp206
(i__main__
Token
p207
(dp208
g18
I48
sbasg29
I48
sba(i__main__
Mention
p209
(dp210
g7
S't4'
p211
sg9
S'Anaphora-C'
p212
sg10
S'i16'
p213
sg12
S'i11'
p214
sg13
Nsg14
(lp215
(i__main__
Token
p216
(dp217
g18
I68
sbasg29
I68
sba(i__main__
Mention
p218
(dp219
g7
S't4'
p220
sg9
S'Anaphora-C'
p221
sg10
S'i20'
p222
sg12
S'i16'
p223
sg13
Nsg14
(lp224
(i__main__
Token
p225
(dp226
g18
I79
sbasg29
I79
sba(i__main__
Mention
p227
(dp228
g7
S't4'
p229
sg9
S'Coreference-Identity'
p230
sg10
S'i31'
p231
sg12
S'i20'
p232
sg13
Nsg14
(lp233
(i__main__
Token
p234
(dp235
g18
I122
sbasg29
I122
sba(i__main__
Mention
p236
(dp237
g7
S't4'
p238
sg9
S'Anaphora-C'
p239
sg10
S'i32'
p240
sg12
S'i31'
p241
sg13
Nsg14
(lp242
(i__main__
Token
p243
(dp244
g18
I124
sbasg29
I124
sba(i__main__
Mention
p245
(dp246
g7
S't4'
p247
sg9
Nsg10
S'i37'
p248
sg12
Nsg13
Nsg14
(lp249
(i__main__
Token
p250
(dp251
g18
I136
sbasg29
Nsba(i__main__
Mention
p252
(dp253
g7
S't4'
p254
sg9
Nsg10
S'i40'
p255
sg12
Nsg13
Nsg14
(lp256
(i__main__
Token
p257
(dp258
g18
I137
sba(i__main__
Token
p259
(dp260
g18
I138
sbasg29
Nsba(i__main__
Mention
p261
(dp262
g7
S't4'
p263
sg9
Nsg10
S'i45'
p264
sg12
Nsg13
Nsg14
(lp265
(i__main__
Token
p266
(dp267
g18
I151
sbasg29
Nsba(i__main__
Mention
p268
(dp269
g7
S't4'
p270
sg9
S'Coreference-Noun-Noun'
p271
sg10
S'i52'
p272
sg12
S'i45'
p273
sg13
Nsg14
(lp274
(i__main__
Token
p275
(dp276
g18
I166
sbasg29
I166
sba(i__main__
Mention
p277
(dp278
g7
S't4'
p279
sg9
S'Coreference-Noun-Noun'
p280
sg10
S'i65'
p281
sg12
S'i52'
p282
sg13
Nsg14
(lp283
(i__main__
Token
p284
(dp285
g18
I219
sba(i__main__
Token
p286
(dp287
g18
I220
sba(i__main__
Token
p288
(dp289
g18
I221
sbasg29
I221
sba(i__main__
Mention
p290
(dp291
g7
S't4'
p292
sg9
S'Coreference-NounComplement'
p293
sg10
S'i66'
p294
sg12
S'i65'
p295
sg13
Nsg14
(lp296
(i__main__
Token
p297
(dp298
g18
I222
sbasg29
I222
sba(i__main__
Mention
p299
(dp300
g7
S't4'
p301
sg9
S'Coreference-Identity'
p302
sg10
S'i67'
p303
sg12
S'i66'
p304
sg13
Nsg14
(lp305
(i__main__
Token
p306
(dp307
g18
I229
sba(i__main__
Token
p308
(dp309
g18
I230
sba(i__main__
Token
p310
(dp311
g18
I231
sbasg29
I231
sba(i__main__
Mention
p312
(dp313
g7
S't4'
p314
sg9
S'Coreference-Identity'
p315
sg10
S'i71'
p316
sg12
S'i67'
p317
sg13
Nsg14
(lp318
(i__main__
Token
p319
(dp320
g18
I239
sbasg29
I239
sba(i__main__
Mention
p321
(dp322
g7
S't4'
p323
sg9
S'Coreference-Identity'
p324
sg10
S'i94'
p325
sg12
S'i71'
p326
sg13
Nsg14
(lp327
(i__main__
Token
p328
(dp329
g18
I332
sbasg29
I332
sba(i__main__
Mention
p330
(dp331
g7
S't4'
p332
sg9
S'Coreference-Apposition'
p333
sg10
S'i95'
p334
sg12
S'i94'
p335
sg13
Nsg14
(lp336
(i__main__
Token
p337
(dp338
g18
I333
sba(i__main__
Token
p339
(dp340
g18
I334
sba(i__main__
Token
p341
(dp342
g18
I335
sbasg29
I335
sba(i__main__
Mention
p343
(dp344
g7
S't4'
p345
sg9
S'Anaphora-C'
p346
sg10
S'i97'
p347
sg12
S'i95'
p348
sg13
Nsg14
(lp349
(i__main__
Token
p350
(dp351
g18
I339
sbasg29
I339
sba(i__main__
Mention
p352
(dp353
g7
S't4'
p354
sg9
S'Coreference-Noun-Noun'
p355
sg10
S'i106'
p356
sg12
S'i97'
p357
sg13
Nsg14
(lp358
(i__main__
Token
p359
(dp360
g18
I370
sbasg29
I370
sba(i__main__
Mention
p361
(dp362
g7
S't4'
p363
sg9
S'Coreference-Apposition'
p364
sg10
S'i108'
p365
sg12
S'i106'
p366
sg13
Nsg14
(lp367
(i__main__
Token
p368
(dp369
g18
I371
sba(i__main__
Token
p370
(dp371
g18
I372
sba(i__main__
Token
p372
(dp373
g18
I373
sbasg29
I373
sba(i__main__
Mention
p374
(dp375
g7
S't4'
p376
sg9
S'Anaphora-C'
p377
sg10
S'i109'
p378
sg12
S'i108'
p379
sg13
Nsg14
(lp380
(i__main__
Token
p381
(dp382
g18
I376
sbasg29
I376
sba(i__main__
Mention
p383
(dp384
g7
S't4'
p385
sg9
S'Coreference-Noun-Noun'
p386
sg10
S'i125'
p387
sg12
S'i109'
p388
sg13
Nsg14
(lp389
(i__main__
Token
p390
(dp391
g18
I449
sbasg29
I449
sba(i__main__
Mention
p392
(dp393
g7
S't4'
p394
sg9
S'Coreference-Identity'
p395
sg10
S'i127'
p396
sg12
S'i125'
p397
sg13
Nsg14
(lp398
(i__main__
Token
p399
(dp400
g18
I462
sbasg29
I462
sba(i__main__
Mention
p401
(dp402
g7
S't4'
p403
sg9
Nsg10
S'i128'
p404
sg12
Nsg13
Nsg14
(lp405
(i__main__
Token
p406
(dp407
g18
I469
sba(i__main__
Token
p408
(dp409
g18
I470
sbasg29
Nsba(i__main__
Mention
p410
(dp411
g7
S't4'
p412
sg9
S'Anaphora-C'
p413
sg10
S'i138'
p414
sg12
S'i128'
p415
sg13
Nsg14
(lp416
(i__main__
Token
p417
(dp418
g18
I494
sbasg29
I494
sba(i__main__
Mention
p419
(dp420
g7
S't4'
p421
sg9
S'Coreference-Noun-Noun'
p422
sg10
S'i140'
p423
sg12
S'i138'
p424
sg13
Nsg14
(lp425
(i__main__
Token
p426
(dp427
g18
I518
sbasg29
I518
sba(i__main__
Mention
p428
(dp429
g7
S't4'
p430
sg9
S'Coreference-Apposition'
p431
sg10
S'i141'
p432
sg12
S'i140'
p433
sg13
Nsg14
(lp434
(i__main__
Token
p435
(dp436
g18
I519
sba(i__main__
Token
p437
(dp438
g18
I520
sbasg29
I520
sbasg7
g175
sg120
Nsba(i__main__
Chain
p439
(dp440
g3
(lp441
(i__main__
Mention
p442
(dp443
g7
S't5'
p444
sg9
Nsg10
S'i7'
p445
sg12
Nsg13
Nsg14
(lp446
(i__main__
Token
p447
(dp448
g18
I31
sba(i__main__
Token
p449
(dp450
g18
I32
sba(i__main__
Token
p451
(dp452
g18
I33
sbasg29
I33
sba(i__main__
Mention
p453
(dp454
g7
S't5'
p455
sg9
S'Coreference-Abbreviation'
p456
sg10
S'i8'
p457
sg12
S'i7'
p458
sg13
Nsg14
(lp459
(i__main__
Token
p460
(dp461
g18
I35
sbasg29
I35
sba(i__main__
Mention
p462
(dp463
g7
S't5'
p464
sg9
S'Coreference-Identity'
p465
sg10
S'i13'
p466
sg12
S'i8'
p467
sg13
Nsg14
(lp468
(i__main__
Token
p469
(dp470
g18
I53
sbasg29
I53
sba(i__main__
Mention
p471
(dp472
g7
S't5'
p473
sg9
S'Coreference-Noun-Noun'
p474
sg10
S'i68'
p475
sg12
S'i13'
p476
sg13
Nsg14
(lp477
(i__main__
Token
p478
(dp479
g18
I233
sbasg29
I233
sba(i__main__
Mention
p480
(dp481
g7
S't5'
p482
sg9
S'Coreference-NounComplement'
p483
sg10
S'i69'
p484
sg12
S'i68'
p485
sg13
Nsg14
(lp486
(i__main__
Token
p487
(dp488
g18
I234
sbasg29
I234
sba(i__main__
Mention
p489
(dp490
g7
S't5'
p491
sg9
S'Anaphora-C'
p492
sg10
S'i72'
p493
sg12
S'i69'
p494
sg13
Nsg14
(lp495
(i__main__
Token
p496
(dp497
g18
I247
sbasg29
I247
sba(i__main__
Mention
p498
(dp499
g7
S't5'
p500
sg9
S'Coreference-Identity'
p501
sg10
S'i89'
p502
sg12
S'i72'
p503
sg13
Nsg14
(lp504
(i__main__
Token
p505
(dp506
g18
I312
sbasg29
I312
sba(i__main__
Mention
p507
(dp508
g7
S't5'
p509
sg9
S'Coreference-Identity'
p510
sg10
S'i102'
p511
sg12
S'i89'
p512
sg13
Nsg14
(lp513
(i__main__
Token
p514
(dp515
g18
I352
sbasg29
I352
sba(i__main__
Mention
p516
(dp517
g7
S't5'
p518
sg9
S'Anaphora-C'
p519
sg10
S'i103'
p520
sg12
S'i102'
p521
sg13
Nsg14
(lp522
(i__main__
Token
p523
(dp524
g18
I359
sbasg29
I359
sba(i__main__
Mention
p525
(dp526
g7
S't5'
p527
sg9
S'Coreference-Identity'
p528
sg10
S'i104'
p529
sg12
S'i103'
p530
sg13
Nsg14
(lp531
(i__main__
Token
p532
(dp533
g18
I362
sbasg29
I362
sba(i__main__
Mention
p534
(dp535
g7
S't5'
p536
sg9
S'Coreference-Identity'
p537
sg10
S'i114'
p538
sg12
S'i104'
p539
sg13
Nsg14
(lp540
(i__main__
Token
p541
(dp542
g18
I393
sbasg29
I393
sba(i__main__
Mention
p543
(dp544
g7
S't5'
p545
sg9
S'Coreference-Identity'
p546
sg10
S'i118'
p547
sg12
S'i114'
p548
sg13
Nsg14
(lp549
(i__main__
Token
p550
(dp551
g18
I408
sbasg29
I408
sbasg7
g444
sg120
Nsba(i__main__
Chain
p552
(dp553
g3
(lp554
(i__main__
Mention
p555
(dp556
g7
S't6'
p557
sg9
Nsg10
S'i9'
p558
sg12
Nsg13
Nsg14
(lp559
(i__main__
Token
p560
(dp561
g18
I38
sba(i__main__
Token
p562
(dp563
g18
I39
sbasg29
I39
sba(i__main__
Mention
p564
(dp565
g7
S't6'
p566
sg9
S'Coreference-Identity'
p567
sg10
S'i22'
p568
sg12
S'i9'
p569
sg13
Nsg14
(lp570
(i__main__
Token
p571
(dp572
g18
I97
sba(i__main__
Token
p573
(dp574
g18
I98
sbasg29
I98
sba(i__main__
Mention
p575
(dp576
g7
S't6'
p577
sg9
S'Coreference-Identity'
p578
sg10
S'i29'
p579
sg12
S'i22'
p580
sg13
Nsg14
(lp581
(i__main__
Token
p582
(dp583
g18
I115
sbasg29
I115
sba(i__main__
Mention
p584
(dp585
g7
S't6'
p586
sg9
S'Coreference-Identity'
p587
sg10
S'i50'
p588
sg12
S'i29'
p589
sg13
Nsg14
(lp590
(i__main__
Token
p591
(dp592
g18
I160
sbasg29
I160
sba(i__main__
Mention
p593
(dp594
g7
S't6'
p595
sg9
S'Coreference-Identity'
p596
sg10
S'i70'
p597
sg12
S'i50'
p598
sg13
Nsg14
(lp599
(i__main__
Token
p600
(dp601
g18
I236
sba(i__main__
Token
p602
(dp603
g18
I237
sbasg29
I237
sba(i__main__
Mention
p604
(dp605
g7
S't6'
p606
sg9
S'Coreference-Identity'
p607
sg10
S'i73'
p608
sg12
S'i70'
p609
sg13
Nsg14
(lp610
(i__main__
Token
p611
(dp612
g18
I248
sba(i__main__
Token
p613
(dp614
g18
I249
sbasg29
I249
sba(i__main__
Mention
p615
(dp616
g7
S't6'
p617
sg9
S'Coreference-Identity'
p618
sg10
S'i78'
p619
sg12
S'i73'
p620
sg13
Nsg14
(lp621
(i__main__
Token
p622
(dp623
g18
I265
sbasg29
I265
sba(i__main__
Mention
p624
(dp625
g7
S't6'
p626
sg9
S'Coreference-Identity'
p627
sg10
S'i82'
p628
sg12
S'i78'
p629
sg13
Nsg14
(lp630
(i__main__
Token
p631
(dp632
g18
I284
sba(i__main__
Token
p633
(dp634
g18
I285
sbasg29
I285
sba(i__main__
Mention
p635
(dp636
g7
S't6'
p637
sg9
S'Coreference-Identity'
p638
sg10
S'i121'
p639
sg12
S'i82'
p640
sg13
Nsg14
(lp641
(i__main__
Token
p642
(dp643
g18
I417
sbasg29
I417
sba(i__main__
Mention
p644
(dp645
g7
S't6'
p646
sg9
S'Coreference-Identity'
p647
sg10
S'i132'
p648
sg12
S'i121'
p649
sg13
Nsg14
(lp650
(i__main__
Token
p651
(dp652
g18
I478
sbasg29
I478
sba(i__main__
Mention
p653
(dp654
g7
S't6'
p655
sg9
S'Coreference-Identity'
p656
sg10
S'i148'
p657
sg12
S'i132'
p658
sg13
Nsg14
(lp659
(i__main__
Token
p660
(dp661
g18
I556
sba(i__main__
Token
p662
(dp663
g18
I557
sbasg29
I557
sba(i__main__
Mention
p664
(dp665
g7
S't6'
p666
sg9
S'Anaphora-C'
p667
sg10
S'i150'
p668
sg12
S'i148'
p669
sg13
Nsg14
(lp670
(i__main__
Token
p671
(dp672
g18
I567
sbasg29
I567
sbasg7
g557
sg120
Nsba(i__main__
Chain
p673
(dp674
g3
(lp675
(i__main__
Mention
p676
(dp677
g7
S't7'
p678
sg9
Nsg10
S'i10'
p679
sg12
Nsg13
Nsg14
(lp680
(i__main__
Token
p681
(dp682
g18
I41
sbasg29
I41
sba(i__main__
Mention
p683
(dp684
g7
S't7'
p685
sg9
S'Coreference-Identity'
p686
sg10
S'i74'
p687
sg12
S'i10'
p688
sg13
Nsg14
(lp689
(i__main__
Token
p690
(dp691
g18
I255
sbasg29
I255
sba(i__main__
Mention
p692
(dp693
g7
S't7'
p694
sg9
S'Coreference-Identity'
p695
sg10
S'i83'
p696
sg12
S'i74'
p697
sg13
Nsg14
(lp698
(i__main__
Token
p699
(dp700
g18
I287
sbasg29
I287
sba(i__main__
Mention
p701
(dp702
g7
S't7'
p703
sg9
S'Coreference-Identity'
p704
sg10
S'i151'
p705
sg12
S'i83'
p706
sg13
Nsg14
(lp707
(i__main__
Token
p708
(dp709
g18
I568
sbasg29
I568
sbasg7
g678
sg120
Nsba(i__main__
Chain
p710
(dp711
g3
(lp712
(i__main__
Mention
p713
(dp714
g7
S't8'
p715
sg9
Nsg10
S'i12'
p716
sg12
Nsg13
Nsg14
(lp717
(i__main__
Token
p718
(dp719
g18
I51
sbasg29
I51
sbasg7
g715
sg120
Nsba(i__main__
Chain
p720
(dp721
g3
(lp722
(i__main__
Mention
p723
(dp724
g7
S't9'
p725
sg9
Nsg10
S'i14'
p726
sg12
Nsg13
Nsg14
(lp727
(i__main__
Token
p728
(dp729
g18
I59
sba(i__main__
Token
p730
(dp731
g18
I60
sbasg29
I60
sba(i__main__
Mention
p732
(dp733
g7
S't9'
p734
sg9
S'Coreference-NounComplement'
p735
sg10
S'i15'
p736
sg12
S'i14'
p737
sg13
Nsg14
(lp738
(i__main__
Token
p739
(dp740
g18
I61
sbasg29
I61
sba(i__main__
Mention
p741
(dp742
g7
S't9'
p743
sg9
S'Anaphora-C'
p744
sg10
S'i17'
p745
sg12
S'i15'
p746
sg13
Nsg14
(lp747
(i__main__
Token
p748
(dp749
g18
I70
sbasg29
I70
sba(i__main__
Mention
p750
(dp751
g7
S't9'
p752
sg9
S'Coreference-Noun-Noun'
p753
sg10
S'i134'
p754
sg12
S'i17'
p755
sg13
Nsg14
(lp756
(i__main__
Token
p757
(dp758
g18
I485
sba(i__main__
Token
p759
(dp760
g18
I486
sbasg29
I486
sba(i__main__
Mention
p761
(dp762
g7
S't9'
p763
sg9
S'Coreference-NounComplement'
p764
sg10
S'i135'
p765
sg12
S'i134'
p766
sg13
Nsg14
(lp767
(i__main__
Token
p768
(dp769
g18
I487
sbasg29
I487
sba(i__main__
Mention
p770
(dp771
g7
S't9'
p772
sg9
S'Anaphora-C'
p773
sg10
S'i137'
p774
sg12
S'i135'
p775
sg13
Nsg14
(lp776
(i__main__
Token
p777
(dp778
g18
I493
sbasg29
I493
sbasg7
g725
sg120
Nsba(i__main__
Chain
p779
(dp780
g3
(lp781
(i__main__
Mention
p782
(dp783
g7
S't10'
p784
sg9
Nsg10
S'i18'
p785
sg12
Nsg13
Nsg14
(lp786
(i__main__
Token
p787
(dp788
g18
I71
sbasg29
I71
sba(i__main__
Mention
p789
(dp790
g7
S't10'
p791
sg9
S'Coreference-NounComplement'
p792
sg10
S'i19'
p793
sg12
S'i18'
p794
sg13
Nsg14
(lp795
(i__main__
Token
p796
(dp797
g18
I72
sba(i__main__
Token
p798
(dp799
g18
I73
sbasg29
I73
sbasg7
g784
sg120
Nsba(i__main__
Chain
p800
(dp801
g3
(lp802
(i__main__
Mention
p803
(dp804
g7
S't11'
p805
sg9
Nsg10
S'i23'
p806
sg12
Nsg13
Nsg14
(lp807
(i__main__
Token
p808
(dp809
g18
I99
sba(i__main__
Token
p810
(dp811
g18
I100
sbasg29
I100
sba(i__main__
Mention
p812
(dp813
g7
S't11'
p814
sg9
S'Coreference-Identity'
p815
sg10
S'i90'
p816
sg12
S'i23'
p817
sg13
Nsg14
(lp818
(i__main__
Token
p819
(dp820
g18
I317
sba(i__main__
Token
p821
(dp822
g18
I318
sbasg29
I318
sba(i__main__
Mention
p823
(dp824
g7
S't11'
p825
sg9
S'Coreference-Identity'
p826
sg10
S'i101'
p827
sg12
S'i90'
p828
sg13
Nsg14
(lp829
(i__main__
Token
p830
(dp831
g18
I350
sbasg29
I350
sba(i__main__
Mention
p832
(dp833
g7
S't11'
p834
sg9
S'Coreference-Identity'
p835
sg10
S'i115'
p836
sg12
S'i101'
p837
sg13
Nsg14
(lp838
(i__main__
Token
p839
(dp840
g18
I398
sbasg29
I398
sbasg7
g805
sg120
Nsba(i__main__
Chain
p841
(dp842
g3
(lp843
(i__main__
Mention
p844
(dp845
g7
S't12'
p846
sg9
Nsg10
S'i24'
p847
sg12
Nsg13
Nsg14
(lp848
(i__main__
Token
p849
(dp850
g18
I99
sbasg29
I99
sba(i__main__
Mention
p851
(dp852
g7
S't12'
p853
sg9
S'Coreference-Identity'
p854
sg10
S'i91'
p855
sg12
S'i24'
p856
sg13
Nsg14
(lp857
(i__main__
Token
p858
(dp859
g18
I317
sbasg29
I317
sbasg7
g846
sg120
Nsba(i__main__
Chain
p860
(dp861
g3
(lp862
(i__main__
Mention
p863
(dp864
g7
S't13'
p865
sg9
Nsg10
S'i26'
p866
sg12
Nsg13
Nsg14
(lp867
(i__main__
Token
p868
(dp869
g18
I109
sbasg29
I109
sba(i__main__
Mention
p870
(dp871
g7
S't13'
p872
sg9
S'Coreference-NounComplement'
p873
sg10
S'i27'
p874
sg12
S'i26'
p875
sg13
Nsg14
(lp876
(i__main__
Token
p877
(dp878
g18
I110
sba(i__main__
Token
p879
(dp880
g18
I111
sbasg29
I111
sba(i__main__
Mention
p881
(dp882
g7
S't13'
p883
sg9
S'Coreference-Identity'
p884
sg10
S'i48'
p885
sg12
S'i27'
p886
sg13
Nsg14
(lp887
(i__main__
Token
p888
(dp889
g18
I157
sbasg29
I157
sba(i__main__
Mention
p890
(dp891
g7
S't13'
p892
sg9
S'Anaphora-C'
p893
sg10
S'i49'
p894
sg12
S'i48'
p895
sg13
Nsg14
(lp896
(i__main__
Token
p897
(dp898
g18
I159
sbasg29
I159
sba(i__main__
Mention
p899
(dp900
g7
S't13'
p901
sg9
S'Anaphora-C'
p902
sg10
S'i55'
p903
sg12
S'i49'
p904
sg13
Nsg14
(lp905
(i__main__
Token
p906
(dp907
g18
I178
sbasg29
I178
sba(i__main__
Mention
p908
(dp909
g7
S't13'
p910
sg9
S'Anaphora-C'
p911
sg10
S'i58'
p912
sg12
S'i55'
p913
sg13
Nsg14
(lp914
(i__main__
Token
p915
(dp916
g18
I187
sbasg29
I187
sba(i__main__
Mention
p917
(dp918
g7
S't13'
p919
sg9
S'Coreference-Identity'
p920
sg10
S'i119'
p921
sg12
S'i58'
p922
sg13
Nsg14
(lp923
(i__main__
Token
p924
(dp925
g18
I414
sbasg29
I414
sba(i__main__
Mention
p926
(dp927
g7
S't13'
p928
sg9
S'Anaphora-C'
p929
sg10
S'i120'
p930
sg12
S'i119'
p931
sg13
Nsg14
(lp932
(i__main__
Token
p933
(dp934
g18
I416
sbasg29
I416
sba(i__main__
Mention
p935
(dp936
g7
S't13'
p937
sg9
S'Coreference-Noun-Noun'
p938
sg10
S'i129'
p939
sg12
S'i120'
p940
sg13
Nsg14
(lp941
(i__main__
Token
p942
(dp943
g18
I474
sbasg29
I474
sba(i__main__
Mention
p944
(dp945
g7
S't13'
p946
sg9
S'Coreference-NounComplement'
p947
sg10
S'i130'
p948
sg12
S'i129'
p949
sg13
Nsg14
(lp950
(i__main__
Token
p951
(dp952
g18
I475
sbasg29
I475
sba(i__main__
Mention
p953
(dp954
g7
S't13'
p955
sg9
S'Anaphora-C'
p956
sg10
S'i131'
p957
sg12
S'i130'
p958
sg13
Nsg14
(lp959
(i__main__
Token
p960
(dp961
g18
I477
sbasg29
I477
sba(i__main__
Mention
p962
(dp963
g7
S't13'
p964
sg9
S'Anaphora-C'
p965
sg10
S'i142'
p966
sg12
S'i131'
p967
sg13
Nsg14
(lp968
(i__main__
Token
p969
(dp970
g18
I524
sbasg29
I524
sbasg7
g865
sg120
Nsba(i__main__
Chain
p971
(dp972
g3
(lp973
(i__main__
Mention
p974
(dp975
g7
S't14'
p976
sg9
Nsg10
S'i30'
p977
sg12
Nsg13
Nsg14
(lp978
(i__main__
Token
p979
(dp980
g18
I120
sbasg29
I120
sba(i__main__
Mention
p981
(dp982
g7
S't14'
p983
sg9
S'Coreference-Identity'
p984
sg10
S'i75'
p985
sg12
S'i30'
p986
sg13
Nsg14
(lp987
(i__main__
Token
p988
(dp989
g18
I258
sbasg29
I258
sbasg7
g976
sg120
Nsba(i__main__
Chain
p990
(dp991
g3
(lp992
(i__main__
Mention
p993
(dp994
g7
S't15'
p995
sg9
Nsg10
S'i33'
p996
sg12
Nsg13
Nsg14
(lp997
(i__main__
Token
p998
(dp999
g18
I126
sbasg29
I126
sba(i__main__
Mention
p1000
(dp1001
g7
S't15'
p1002
sg9
Nsg10
S'i36'
p1003
sg12
Nsg13
Nsg14
(lp1004
(i__main__
Token
p1005
(dp1006
g18
I129
sbasg29
Nsba(i__main__
Mention
p1007
(dp1008
g7
S't15'
p1009
sg9
Nsg10
S'i39'
p1010
sg12
Nsg13
Nsg14
(lp1011
(i__main__
Token
p1012
(dp1013
g18
I136
sbasg29
Nsba(i__main__
Mention
p1014
(dp1015
g7
S't15'
p1016
sg9
Nsg10
S'i41'
p1017
sg12
Nsg13
Nsg14
(lp1018
(i__main__
Token
p1019
(dp1020
g18
I137
sba(i__main__
Token
p1021
(dp1022
g18
I138
sbasg29
Nsba(i__main__
Mention
p1023
(dp1024
g7
S't15'
p1025
sg9
Nsg10
S'i47'
p1026
sg12
Nsg13
Nsg14
(lp1027
(i__main__
Token
p1028
(dp1029
g18
I151
sbasg29
Nsbasg7
g995
sg120
Nsba(i__main__
Chain
p1030
(dp1031
g3
(lp1032
(i__main__
Mention
p1033
(dp1034
g7
S't16'
p1035
sg9
Nsg10
S'i34'
p1036
sg12
Nsg13
Nsg14
(lp1037
(i__main__
Token
p1038
(dp1039
g18
I128
sbasg29
I128
sba(i__main__
Mention
p1040
(dp1041
g7
S't16'
p1042
sg9
Nsg10
S'i35'
p1043
sg12
Nsg13
Nsg14
(lp1044
(i__main__
Token
p1045
(dp1046
g18
I129
sbasg29
Nsba(i__main__
Mention
p1047
(dp1048
g7
S't16'
p1049
sg9
Nsg10
S'i38'
p1050
sg12
Nsg13
Nsg14
(lp1051
(i__main__
Token
p1052
(dp1053
g18
I136
sbasg29
Nsba(i__main__
Mention
p1054
(dp1055
g7
S't16'
p1056
sg9
Nsg10
S'i42'
p1057
sg12
Nsg13
Nsg14
(lp1058
(i__main__
Token
p1059
(dp1060
g18
I137
sba(i__main__
Token
p1061
(dp1062
g18
I138
sbasg29
Nsba(i__main__
Mention
p1063
(dp1064
g7
S't16'
p1065
sg9
Nsg10
S'i46'
p1066
sg12
Nsg13
Nsg14
(lp1067
(i__main__
Token
p1068
(dp1069
g18
I151
sbasg29
Nsbasg7
g1035
sg120
Nsba(i__main__
Chain
p1070
(dp1071
g3
(lp1072
(i__main__
Mention
p1073
(dp1074
g7
S't17'
p1075
sg9
Nsg10
S'i43'
p1076
sg12
Nsg13
Nsg14
(lp1077
(i__main__
Token
p1078
(dp1079
g18
I141
sbasg29
I141
sba(i__main__
Mention
p1080
(dp1081
g7
S't17'
p1082
sg9
S'Anaphora-RC'
p1083
sg10
S'i44'
p1084
sg12
S'i43'
p1085
sg13
Nsg14
(lp1086
(i__main__
Token
p1087
(dp1088
g18
I145
sba(i__main__
Token
p1089
(dp1090
g18
I146
sba(i__main__
Token
p1091
(dp1092
g18
I147
sba(i__main__
Token
p1093
(dp1094
g18
I148
sba(i__main__
Token
p1095
(dp1096
g18
I149
sba(i__main__
Token
p1097
(dp1098
g18
I150
sba(i__main__
Token
p1099
(dp1100
g18
I151
sba(i__main__
Token
p1101
(dp1102
g18
I152
sba(i__main__
Token
p1103
(dp1104
g18
I153
sba(i__main__
Token
p1105
(dp1106
g18
I154
sbasg29
I153
sbasg7
g1075
sg120
Nsba(i__main__
Chain
p1107
(dp1108
g3
(lp1109
(i__main__
Mention
p1110
(dp1111
g7
S't18'
p1112
sg9
Nsg10
S'i51'
p1113
sg12
Nsg13
Nsg14
(lp1114
(i__main__
Token
p1115
(dp1116
g18
I162
sbasg29
I162
sba(i__main__
Mention
p1117
(dp1118
g7
S't18'
p1119
sg9
S'Anaphora-RC'
p1120
sg10
S'i53'
p1121
sg12
S'i51'
p1122
sg13
Nsg14
(lp1123
(i__main__
Token
p1124
(dp1125
g18
I166
sba(i__main__
Token
p1126
(dp1127
g18
I167
sba(i__main__
Token
p1128
(dp1129
g18
I168
sba(i__main__
Token
p1130
(dp1131
g18
I169
sba(i__main__
Token
p1132
(dp1133
g18
I170
sba(i__main__
Token
p1134
(dp1135
g18
I171
sba(i__main__
Token
p1136
(dp1137
g18
I172
sba(i__main__
Token
p1138
(dp1139
g18
I173
sba(i__main__
Token
p1140
(dp1141
g18
I174
sba(i__main__
Token
p1142
(dp1143
g18
I175
sba(i__main__
Token
p1144
(dp1145
g18
I176
sbasg29
I175
sbasg7
g1112
sg120
Nsba(i__main__
Chain
p1146
(dp1147
g3
(lp1148
(i__main__
Mention
p1149
(dp1150
g7
S't19'
p1151
sg9
Nsg10
S'i54'
p1152
sg12
Nsg13
Nsg14
(lp1153
(i__main__
Token
p1154
(dp1155
g18
I168
sbasg29
I168
sba(i__main__
Mention
p1156
(dp1157
g7
S't19'
p1158
sg9
S'Coreference-Identity'
p1159
sg10
S'i110'
p1160
sg12
S'i54'
p1161
sg13
Nsg14
(lp1162
(i__main__
Token
p1163
(dp1164
g18
I377
sbasg29
I377
sbasg7
g1151
sg120
Nsba(i__main__
Chain
p1165
(dp1166
g3
(lp1167
(i__main__
Mention
p1168
(dp1169
g7
S't20'
p1170
sg9
Nsg10
S'i56'
p1171
sg12
Nsg13
Nsg14
(lp1172
(i__main__
Token
p1173
(dp1174
g18
I179
sbasg29
I179
sbasg7
g1170
sg120
Nsba(i__main__
Chain
p1175
(dp1176
g3
(lp1177
(i__main__
Mention
p1178
(dp1179
g7
S't21'
p1180
sg9
Nsg10
S'i57'
p1181
sg12
Nsg13
Nsg14
(lp1182
(i__main__
Token
p1183
(dp1184
g18
I181
sbasg29
I181
sbasg7
g1180
sg120
Nsba(i__main__
Chain
p1185
(dp1186
g3
(lp1187
(i__main__
Mention
p1188
(dp1189
g7
S't22'
p1190
sg9
Nsg10
S'i60'
p1191
sg12
Nsg13
Nsg14
(lp1192
(i__main__
Token
p1193
(dp1194
g18
I190
sba(i__main__
Token
p1195
(dp1196
g18
I191
sba(i__main__
Token
p1197
(dp1198
g18
I192
sbasg29
I192
sba(i__main__
Mention
p1199
(dp1200
g7
S't22'
p1201
sg9
S'Coreference-Noun-Noun'
p1202
sg10
S'i61'
p1203
sg12
S'i60'
p1204
sg13
Nsg14
(lp1205
(i__main__
Token
p1206
(dp1207
g18
I194
sbasg29
I194
sba(i__main__
Mention
p1208
(dp1209
g7
S't22'
p1210
sg9
S'Anaphora-C'
p1211
sg10
S'i62'
p1212
sg12
S'i61'
p1213
sg13
Nsg14
(lp1214
(i__main__
Token
p1215
(dp1216
g18
I200
sbasg29
I200
sbasg7
g1190
sg120
Nsba(i__main__
Chain
p1217
(dp1218
g3
(lp1219
(i__main__
Mention
p1220
(dp1221
g7
S't23'
p1222
sg9
Nsg10
S'i76'
p1223
sg12
Nsg13
Nsg14
(lp1224
(i__main__
Token
p1225
(dp1226
g18
I261
sbasg29
I261
sba(i__main__
Mention
p1227
(dp1228
g7
S't23'
p1229
sg9
S'Coreference-NounComplement'
p1230
sg10
S'i77'
p1231
sg12
S'i76'
p1232
sg13
Nsg14
(lp1233
(i__main__
Token
p1234
(dp1235
g18
I262
sba(i__main__
Token
p1236
(dp1237
g18
I263
sba(i__main__
Token
p1238
(dp1239
g18
I264
sbasg29
I264
sba(i__main__
Mention
p1240
(dp1241
g7
S't23'
p1242
sg9
S'Anaphora-C'
p1243
sg10
S'i80'
p1244
sg12
S'i77'
p1245
sg13
Nsg14
(lp1246
(i__main__
Token
p1247
(dp1248
g18
I277
sbasg29
I277
sba(i__main__
Mention
p1249
(dp1250
g7
S't23'
p1251
sg9
S'Anaphora-C'
p1252
sg10
S'i81'
p1253
sg12
S'i80'
p1254
sg13
Nsg14
(lp1255
(i__main__
Token
p1256
(dp1257
g18
I280
sbasg29
I280
sba(i__main__
Mention
p1258
(dp1259
g7
S't23'
p1260
sg9
S'Anaphora-C'
p1261
sg10
S'i84'
p1262
sg12
S'i81'
p1263
sg13
Nsg14
(lp1264
(i__main__
Token
p1265
(dp1266
g18
I290
sbasg29
I290
sbasg7
g1222
sg120
Nsba(i__main__
Chain
p1267
(dp1268
g3
(lp1269
(i__main__
Mention
p1270
(dp1271
g7
S't24'
p1272
sg9
Nsg10
S'i85'
p1273
sg12
Nsg13
Nsg14
(lp1274
(i__main__
Token
p1275
(dp1276
g18
I291
sbasg29
I291
sba(i__main__
Mention
p1277
(dp1278
g7
S't24'
p1279
sg9
Nsg10
S'i87'
p1280
sg12
Nsg13
Nsg14
(lp1281
(i__main__
Token
p1282
(dp1283
g18
I306
sba(i__main__
Token
p1284
(dp1285
g18
I307
sbasg29
Nsbasg7
g1272
sg120
Nsba(i__main__
Chain
p1286
(dp1287
g3
(lp1288
(i__main__
Mention
p1289
(dp1290
g7
S't25'
p1291
sg9
Nsg10
S'i86'
p1292
sg12
Nsg13
Nsg14
(lp1293
(i__main__
Token
p1294
(dp1295
g18
I293
sba(i__main__
Token
p1296
(dp1297
g18
I294
sbasg29
I294
sba(i__main__
Mention
p1298
(dp1299
g7
S't25'
p1300
sg9
Nsg10
S'i88'
p1301
sg12
Nsg13
Nsg14
(lp1302
(i__main__
Token
p1303
(dp1304
g18
I306
sba(i__main__
Token
p1305
(dp1306
g18
I307
sbasg29
Nsbasg7
g1291
sg120
Nsba(i__main__
Chain
p1307
(dp1308
g3
(lp1309
(i__main__
Mention
p1310
(dp1311
g7
S't26'
p1312
sg9
Nsg10
S'i92'
p1313
sg12
Nsg13
Nsg14
(lp1314
(i__main__
Token
p1315
(dp1316
g18
I317
sba(i__main__
Token
p1317
(dp1318
g18
I318
sba(i__main__
Token
p1319
(dp1320
g18
I319
sba(i__main__
Token
p1321
(dp1322
g18
I320
sba(i__main__
Token
p1323
(dp1324
g18
I321
sba(i__main__
Token
p1325
(dp1326
g18
I322
sba(i__main__
Token
p1327
(dp1328
g18
I323
sba(i__main__
Token
p1329
(dp1330
g18
I324
sba(i__main__
Token
p1331
(dp1332
g18
I325
sba(i__main__
Token
p1333
(dp1334
g18
I326
sba(i__main__
Token
p1335
(dp1336
g18
I327
sba(i__main__
Token
p1337
(dp1338
g18
I328
sba(i__main__
Token
p1339
(dp1340
g18
I329
sba(i__main__
Token
p1341
(dp1342
g18
I330
sba(i__main__
Token
p1343
(dp1344
g18
I331
sba(i__main__
Token
p1345
(dp1346
g18
I332
sba(i__main__
Token
p1347
(dp1348
g18
I333
sba(i__main__
Token
p1349
(dp1350
g18
I334
sba(i__main__
Token
p1351
(dp1352
g18
I335
sba(i__main__
Token
p1353
(dp1354
g18
I336
sba(i__main__
Token
p1355
(dp1356
g18
I337
sba(i__main__
Token
p1357
(dp1358
g18
I338
sba(i__main__
Token
p1359
(dp1360
g18
I339
sba(i__main__
Token
p1361
(dp1362
g18
I340
sba(i__main__
Token
p1363
(dp1364
g18
I341
sba(i__main__
Token
p1365
(dp1366
g18
I342
sba(i__main__
Token
p1367
(dp1368
g18
I343
sba(i__main__
Token
p1369
(dp1370
g18
I344
sba(i__main__
Token
p1371
(dp1372
g18
I345
sba(i__main__
Token
p1373
(dp1374
g18
I346
sbasg29
I345
sba(i__main__
Mention
p1375
(dp1376
g7
S't26'
p1377
sg9
S'Anaphora-E'
p1378
sg10
S'i100'
p1379
sg12
S'i92'
p1380
sg13
Nsg14
(lp1381
(i__main__
Token
p1382
(dp1383
g18
I348
sbasg29
I348
sba(i__main__
Mention
p1384
(dp1385
g7
S't26'
p1386
sg9
S'Anaphora-E'
p1387
sg10
S'i105'
p1388
sg12
S'i100'
p1389
sg13
Nsg14
(lp1390
(i__main__
Token
p1391
(dp1392
g18
I364
sbasg29
I364
sbasg7
g1312
sg120
Nsba(i__main__
Chain
p1393
(dp1394
g3
(lp1395
(i__main__
Mention
p1396
(dp1397
g7
S't27'
p1398
sg9
Nsg10
S'i93'
p1399
sg12
Nsg13
Nsg14
(lp1400
(i__main__
Token
p1401
(dp1402
g18
I320
sba(i__main__
Token
p1403
(dp1404
g18
I321
sbasg29
I321
sba(i__main__
Mention
p1405
(dp1406
g7
S't27'
p1407
sg9
S'Anaphora-C'
p1408
sg10
S'i96'
p1409
sg12
S'i93'
p1410
sg13
Nsg14
(lp1411
(i__main__
Token
p1412
(dp1413
g18
I338
sbasg29
I338
sbasg7
g1398
sg120
Nsba(i__main__
Chain
p1414
(dp1415
g3
(lp1416
(i__main__
Mention
p1417
(dp1418
g7
S't28'
p1419
sg9
Nsg10
S'i98'
p1420
sg12
Nsg13
Nsg14
(lp1421
(i__main__
Token
p1422
(dp1423
g18
I340
sbasg29
I340
sba(i__main__
Mention
p1424
(dp1425
g7
S't28'
p1426
sg9
S'Coreference-Noun-Noun'
p1427
sg10
S'i99'
p1428
sg12
S'i98'
p1429
sg13
Nsg14
(lp1430
(i__main__
Token
p1431
(dp1432
g18
I342
sbasg29
I342
sba(i__main__
Mention
p1433
(dp1434
g7
S't28'
p1435
sg9
S'Coreference-Noun-Noun'
p1436
sg10
S'i139'
p1437
sg12
S'i99'
p1438
sg13
Nsg14
(lp1439
(i__main__
Token
p1440
(dp1441
g18
I495
sbasg29
I495
sbasg7
g1419
sg120
Nsba(i__main__
Chain
p1442
(dp1443
g3
(lp1444
(i__main__
Mention
p1445
(dp1446
g7
S't29'
p1447
sg9
Nsg10
S'i107'
p1448
sg12
Nsg13
Nsg14
(lp1449
(i__main__
Token
p1450
(dp1451
g18
I370
sba(i__main__
Token
p1452
(dp1453
g18
I371
sba(i__main__
Token
p1454
(dp1455
g18
I372
sba(i__main__
Token
p1456
(dp1457
g18
I373
sba(i__main__
Token
p1458
(dp1459
g18
I374
sba(i__main__
Token
p1460
(dp1461
g18
I375
sba(i__main__
Token
p1462
(dp1463
g18
I376
sba(i__main__
Token
p1464
(dp1465
g18
I377
sba(i__main__
Token
p1466
(dp1467
g18
I378
sba(i__main__
Token
p1468
(dp1469
g18
I379
sba(i__main__
Token
p1470
(dp1471
g18
I380
sba(i__main__
Token
p1472
(dp1473
g18
I381
sba(i__main__
Token
p1474
(dp1475
g18
I382
sbasg29
I382
sba(i__main__
Mention
p1476
(dp1477
g7
S't29'
p1478
sg9
S'Anaphora-C'
p1479
sg10
S'i111'
p1480
sg12
S'i107'
p1481
sg13
Nsg14
(lp1482
(i__main__
Token
p1483
(dp1484
g18
I384
sbasg29
I384
sbasg7
g1447
sg120
Nsba(i__main__
Chain
p1485
(dp1486
g3
(lp1487
(i__main__
Mention
p1488
(dp1489
g7
S't30'
p1490
sg9
Nsg10
S'i113'
p1491
sg12
Nsg13
Nsg14
(lp1492
(i__main__
Token
p1493
(dp1494
g18
I387
sbasg29
I387
sbasg7
g1490
sg120
Nsba(i__main__
Chain
p1495
(dp1496
g3
(lp1497
(i__main__
Mention
p1498
(dp1499
g7
S't31'
p1500
sg9
Nsg10
S'i117'
p1501
sg12
Nsg13
Nsg14
(lp1502
(i__main__
Token
p1503
(dp1504
g18
I403
sbasg29
I403
sbasg7
g1500
sg120
Nsba(i__main__
Chain
p1505
(dp1506
g3
(lp1507
(i__main__
Mention
p1508
(dp1509
g7
S't32'
p1510
sg9
Nsg10
S'i122'
p1511
sg12
Nsg13
Nsg14
(lp1512
(i__main__
Token
p1513
(dp1514
g18
I424
sbasg29
I424
sbasg7
g1510
sg120
Nsba(i__main__
Chain
p1515
(dp1516
g3
(lp1517
(i__main__
Mention
p1518
(dp1519
g7
S't33'
p1520
sg9
Nsg10
S'i123'
p1521
sg12
Nsg13
Nsg14
(lp1522
(i__main__
Token
p1523
(dp1524
g18
I425
sbasg29
I425
sba(i__main__
Mention
p1525
(dp1526
g7
S't33'
p1527
sg9
S'Anaphora-C'
p1528
sg10
S'i124'
p1529
sg12
S'i123'
p1530
sg13
Nsg14
(lp1531
(i__main__
Token
p1532
(dp1533
g18
I436
sbasg29
I436
sbasg7
g1520
sg120
Nsba(i__main__
Chain
p1534
(dp1535
g3
(lp1536
(i__main__
Mention
p1537
(dp1538
g7
S't34'
p1539
sg9
Nsg10
S'i126'
p1540
sg12
Nsg13
Nsg14
(lp1541
(i__main__
Token
p1542
(dp1543
g18
I457
sba(i__main__
Token
p1544
(dp1545
g18
I458
sba(i__main__
Token
p1546
(dp1547
g18
I459
sba(i__main__
Token
p1548
(dp1549
g18
I460
sba(i__main__
Token
p1550
(dp1551
g18
I461
sba(i__main__
Token
p1552
(dp1553
g18
I462
sba(i__main__
Token
p1554
(dp1555
g18
I463
sba(i__main__
Token
p1556
(dp1557
g18
I464
sba(i__main__
Token
p1558
(dp1559
g18
I465
sba(i__main__
Token
p1560
(dp1561
g18
I466
sba(i__main__
Token
p1562
(dp1563
g18
I467
sba(i__main__
Token
p1564
(dp1565
g18
I468
sba(i__main__
Token
p1566
(dp1567
g18
I469
sba(i__main__
Token
p1568
(dp1569
g18
I470
sba(i__main__
Token
p1570
(dp1571
g18
I471
sba(i__main__
Token
p1572
(dp1573
g18
I472
sbasg29
Nsba(i__main__
Mention
p1574
(dp1575
g7
S't34'
p1576
sg9
S'Anaphora-C'
p1577
sg10
S'i133'
p1578
sg12
S'i126'
p1579
sg13
Nsg14
(lp1580
(i__main__
Token
p1581
(dp1582
g18
I480
sbasg29
I480
sbasg7
g1539
sg120
Nsba(i__main__
Chain
p1583
(dp1584
g3
(lp1585
(i__main__
Mention
p1586
(dp1587
g7
S't35'
p1588
sg9
Nsg10
S'i136'
p1589
sg12
Nsg13
Nsg14
(lp1590
(i__main__
Token
p1591
(dp1592
g18
I488
sbasg29
I488
sbasg7
g1588
sg120
Nsba(i__main__
Chain
p1593
(dp1594
g3
(lp1595
(i__main__
Mention
p1596
(dp1597
g7
S't36'
p1598
sg9
Nsg10
S'i144'
p1599
sg12
Nsg13
Nsg14
(lp1600
(i__main__
Token
p1601
(dp1602
g18
I540
sbasg29
I540
sbasg7
g1598
sg120
Nsba(i__main__
Chain
p1603
(dp1604
g3
(lp1605
(i__main__
Mention
p1606
(dp1607
g7
S't37'
p1608
sg9
Nsg10
S'i146'
p1609
sg12
Nsg13
Nsg14
(lp1610
(i__main__
Token
p1611
(dp1612
g18
I550
sba(i__main__
Token
p1613
(dp1614
g18
I551
sba(i__main__
Token
p1615
(dp1616
g18
I552
sbasg29
I552
sba(i__main__
Mention
p1617
(dp1618
g7
S't37'
p1619
sg9
S'Coreference-NounComplement'
p1620
sg10
S'i147'
p1621
sg12
S'i146'
p1622
sg13
Nsg14
(lp1623
(i__main__
Token
p1624
(dp1625
g18
I553
sba(i__main__
Token
p1626
(dp1627
g18
I554
sbasg29
I554
sba(i__main__
Mention
p1628
(dp1629
g7
S't37'
p1630
sg9
S'Anaphora-C'
p1631
sg10
S'i149'
p1632
sg12
S'i147'
p1633
sg13
Nsg14
(lp1634
(i__main__
Token
p1635
(dp1636
g18
I564
sbasg29
I564
sbasg7
g1608
sg120
Nsba.