(lp0
(i__main__
Chain
p1
(dp2
S'mentionList'
p3
(lp4
(i__main__
Mention
p5
(dp6
S'chainId'
p7
S't1'
p8
sS'relType'
p9
NsS'mentionId'
p10
S'i1'
p11
sS'antecedentId'
p12
NsS'crefMod'
p13
NsS'tokenList'
p14
(lp15
(i__main__
Token
p16
(dp17
S'tokenId'
p18
I0
sbasS'mentionHead'
p19
I0
sba(i__main__
Mention
p20
(dp21
g7
S't1'
p22
sg9
S'Coreference-Identity'
p23
sg10
S'i34'
p24
sg12
S'i1'
p25
sg13
Nsg14
(lp26
(i__main__
Token
p27
(dp28
g18
I140
sbasg19
I140
sbasg7
g8
sS'chainHead'
p29
Nsba(i__main__
Chain
p30
(dp31
g3
(lp32
(i__main__
Mention
p33
(dp34
g7
S't2'
p35
sg9
Nsg10
S'i2'
p36
sg12
Nsg13
Nsg14
(lp37
(i__main__
Token
p38
(dp39
g18
I8
sbasg19
I8
sba(i__main__
Mention
p40
(dp41
g7
S't2'
p42
sg9
S'Coreference-Identity'
p43
sg10
S'i27'
p44
sg12
S'i2'
p45
sg13
Nsg14
(lp46
(i__main__
Token
p47
(dp48
g18
I115
sbasg19
I115
sba(i__main__
Mention
p49
(dp50
g7
S't2'
p51
sg9
S'Coreference-Identity'
p52
sg10
S'i32'
p53
sg12
S'i27'
p54
sg13
Nsg14
(lp55
(i__main__
Token
p56
(dp57
g18
I136
sbasg19
I136
sbasg7
g35
sg29
Nsba(i__main__
Chain
p58
(dp59
g3
(lp60
(i__main__
Mention
p61
(dp62
g7
S't3'
p63
sg9
Nsg10
S'i3'
p64
sg12
Nsg13
Nsg14
(lp65
(i__main__
Token
p66
(dp67
g18
I8
sba(i__main__
Token
p68
(dp69
g18
I9
sba(i__main__
Token
p70
(dp71
g18
I10
sba(i__main__
Token
p72
(dp73
g18
I11
sba(i__main__
Token
p74
(dp75
g18
I12
sba(i__main__
Token
p76
(dp77
g18
I13
sba(i__main__
Token
p78
(dp79
g18
I14
sba(i__main__
Token
p80
(dp81
g18
I15
sba(i__main__
Token
p82
(dp83
g18
I16
sba(i__main__
Token
p84
(dp85
g18
I17
sba(i__main__
Token
p86
(dp87
g18
I18
sba(i__main__
Token
p88
(dp89
g18
I19
sba(i__main__
Token
p90
(dp91
g18
I20
sba(i__main__
Token
p92
(dp93
g18
I21
sba(i__main__
Token
p94
(dp95
g18
I22
sba(i__main__
Token
p96
(dp97
g18
I23
sba(i__main__
Token
p98
(dp99
g18
I24
sba(i__main__
Token
p100
(dp101
g18
I25
sbasg19
I25
sba(i__main__
Mention
p102
(dp103
g7
S't3'
p104
sg9
S'Anaphora-E'
p105
sg10
S'i9'
p106
sg12
S'i3'
p107
sg13
Nsg14
(lp108
(i__main__
Token
p109
(dp110
g18
I32
sbasg19
I32
sbasg7
g63
sg29
Nsba(i__main__
Chain
p111
(dp112
g3
(lp113
(i__main__
Mention
p114
(dp115
g7
S't4'
p116
sg9
Nsg10
S'i4'
p117
sg12
Nsg13
Nsg14
(lp118
(i__main__
Token
p119
(dp120
g18
I9
sbasg19
I9
sba(i__main__
Mention
p121
(dp122
g7
S't4'
p123
sg9
S'Coreference-Identity'
p124
sg10
S'i17'
p125
sg12
S'i4'
p126
sg13
Nsg14
(lp127
(i__main__
Token
p128
(dp129
g18
I58
sbasg19
I58
sba(i__main__
Mention
p130
(dp131
g7
S't4'
p132
sg9
S'Coreference-Identity'
p133
sg10
S'i76'
p134
sg12
S'i17'
p135
sg13
Nsg14
(lp136
(i__main__
Token
p137
(dp138
g18
I359
sbasg19
I359
sbasg7
g116
sg29
Nsba(i__main__
Chain
p139
(dp140
g3
(lp141
(i__main__
Mention
p142
(dp143
g7
S't5'
p144
sg9
Nsg10
S'i5'
p145
sg12
Nsg13
Nsg14
(lp146
(i__main__
Token
p147
(dp148
g18
I14
sbasg19
I14
sbasg7
g144
sg29
Nsba(i__main__
Chain
p149
(dp150
g3
(lp151
(i__main__
Mention
p152
(dp153
g7
S't6'
p154
sg9
Nsg10
S'i6'
p155
sg12
Nsg13
Nsg14
(lp156
(i__main__
Token
p157
(dp158
g18
I16
sba(i__main__
Token
p159
(dp160
g18
I17
sbasg19
I17
sba(i__main__
Mention
p161
(dp162
g7
S't6'
p163
sg9
S'Coreference-Identity'
p164
sg10
S'i12'
p165
sg12
S'i6'
p166
sg13
Nsg14
(lp167
(i__main__
Token
p168
(dp169
g18
I39
sba(i__main__
Token
p170
(dp171
g18
I40
sbasg19
I40
sba(i__main__
Mention
p172
(dp173
g7
S't6'
p174
sg9
S'Coreference-Identity'
p175
sg10
S'i28'
p176
sg12
S'i12'
p177
sg13
Nsg14
(lp178
(i__main__
Token
p179
(dp180
g18
I119
sba(i__main__
Token
p181
(dp182
g18
I120
sbasg19
I120
sbasg7
g154
sg29
Nsba(i__main__
Chain
p183
(dp184
g3
(lp185
(i__main__
Mention
p186
(dp187
g7
S't7'
p188
sg9
Nsg10
S'i7'
p189
sg12
Nsg13
Nsg14
(lp190
(i__main__
Token
p191
(dp192
g18
I27
sbasg19
I27
sba(i__main__
Mention
p193
(dp194
g7
S't7'
p195
sg9
S'Coreference-Identity'
p196
sg10
S'i21'
p197
sg12
S'i7'
p198
sg13
Nsg14
(lp199
(i__main__
Token
p200
(dp201
g18
I81
sbasg19
I81
sba(i__main__
Mention
p202
(dp203
g7
S't7'
p204
sg9
S'Coreference-Identity'
p205
sg10
S'i33'
p206
sg12
S'i21'
p207
sg13
Nsg14
(lp208
(i__main__
Token
p209
(dp210
g18
I138
sbasg19
I138
sba(i__main__
Mention
p211
(dp212
g7
S't7'
p213
sg9
S'Coreference-Identity'
p214
sg10
S'i59'
p215
sg12
S'i33'
p216
sg13
Nsg14
(lp217
(i__main__
Token
p218
(dp219
g18
I294
sbasg19
I294
sba(i__main__
Mention
p220
(dp221
g7
S't7'
p222
sg9
S'Coreference-Identity'
p223
sg10
S'i63'
p224
sg12
S'i59'
p225
sg13
Nsg14
(lp226
(i__main__
Token
p227
(dp228
g18
I317
sbasg19
I317
sbasg7
g188
sg29
Nsba(i__main__
Chain
p229
(dp230
g3
(lp231
(i__main__
Mention
p232
(dp233
g7
S't8'
p234
sg9
Nsg10
S'i8'
p235
sg12
Nsg13
Nsg14
(lp236
(i__main__
Token
p237
(dp238
g18
I27
sba(i__main__
Token
p239
(dp240
g18
I28
sba(i__main__
Token
p241
(dp242
g18
I29
sba(i__main__
Token
p243
(dp244
g18
I30
sba(i__main__
Token
p245
(dp246
g18
I31
sbasg19
I31
sba(i__main__
Mention
p247
(dp248
g7
S't8'
p249
sg9
S'Anaphora-C'
p250
sg10
S'i10'
p251
sg12
S'i8'
p252
sg13
Nsg14
(lp253
(i__main__
Token
p254
(dp255
g18
I36
sbasg19
I36
sba(i__main__
Mention
p256
(dp257
g7
S't8'
p258
sg9
S'Anaphora-C'
p259
sg10
S'i14'
p260
sg12
S'i10'
p261
sg13
Nsg14
(lp262
(i__main__
Token
p263
(dp264
g18
I53
sbasg19
I53
sba(i__main__
Mention
p265
(dp266
g7
S't8'
p267
sg9
S'Anaphora-C'
p268
sg10
S'i15'
p269
sg12
S'i14'
p270
sg13
Nsg14
(lp271
(i__main__
Token
p272
(dp273
g18
I55
sbasg19
I55
sba(i__main__
Mention
p274
(dp275
g7
S't8'
p276
sg9
S'Coreference-Identity'
p277
sg10
S'i20'
p278
sg12
S'i15'
p279
sg13
Nsg14
(lp280
(i__main__
Token
p281
(dp282
g18
I68
sbasg19
I68
sba(i__main__
Mention
p283
(dp284
g7
S't8'
p285
sg9
S'Coreference-Identity'
p286
sg10
S'i23'
p287
sg12
S'i20'
p288
sg13
Nsg14
(lp289
(i__main__
Token
p290
(dp291
g18
I93
sbasg19
I93
sba(i__main__
Mention
p292
(dp293
g7
S't8'
p294
sg9
S'Anaphora-C'
p295
sg10
S'i25'
p296
sg12
S'i23'
p297
sg13
Nsg14
(lp298
(i__main__
Token
p299
(dp300
g18
I102
sbasg19
I102
sba(i__main__
Mention
p301
(dp302
g7
S't8'
p303
sg9
S'Anaphora-C'
p304
sg10
S'i31'
p305
sg12
S'i25'
p306
sg13
Nsg14
(lp307
(i__main__
Token
p308
(dp309
g18
I133
sbasg19
I133
sba(i__main__
Mention
p310
(dp311
g7
S't8'
p312
sg9
S'Anaphora-C'
p313
sg10
S'i38'
p314
sg12
S'i31'
p315
sg13
Nsg14
(lp316
(i__main__
Token
p317
(dp318
g18
I167
sbasg19
I167
sba(i__main__
Mention
p319
(dp320
g7
S't8'
p321
sg9
S'Anaphora-C'
p322
sg10
S'i41'
p323
sg12
S'i38'
p324
sg13
Nsg14
(lp325
(i__main__
Token
p326
(dp327
g18
I185
sbasg19
I185
sba(i__main__
Mention
p328
(dp329
g7
S't8'
p330
sg9
S'Coreference-Identity'
p331
sg10
S'i42'
p332
sg12
S'i41'
p333
sg13
Nsg14
(lp334
(i__main__
Token
p335
(dp336
g18
I195
sbasg19
I195
sba(i__main__
Mention
p337
(dp338
g7
S't8'
p339
sg9
S'Anaphora-C'
p340
sg10
S'i50'
p341
sg12
S'i42'
p342
sg13
Nsg14
(lp343
(i__main__
Token
p344
(dp345
g18
I246
sbasg19
I246
sba(i__main__
Mention
p346
(dp347
g7
S't8'
p348
sg9
S'Coreference-Identity'
p349
sg10
S'i52'
p350
sg12
S'i50'
p351
sg13
Nsg14
(lp352
(i__main__
Token
p353
(dp354
g18
I260
sbasg19
I260
sba(i__main__
Mention
p355
(dp356
g7
S't8'
p357
sg9
S'Anaphora-C'
p358
sg10
S'i53'
p359
sg12
S'i52'
p360
sg13
Nsg14
(lp361
(i__main__
Token
p362
(dp363
g18
I264
sbasg19
I264
sba(i__main__
Mention
p364
(dp365
g7
S't8'
p366
sg9
S'Anaphora-C'
p367
sg10
S'i55'
p368
sg12
S'i53'
p369
sg13
Nsg14
(lp370
(i__main__
Token
p371
(dp372
g18
I270
sbasg19
I270
sba(i__main__
Mention
p373
(dp374
g7
S't8'
p375
sg9
S'Anaphora-C'
p376
sg10
S'i56'
p377
sg12
S'i55'
p378
sg13
Nsg14
(lp379
(i__main__
Token
p380
(dp381
g18
I275
sbasg19
I275
sba(i__main__
Mention
p382
(dp383
g7
S't8'
p384
sg9
S'Coreference-Identity'
p385
sg10
S'i58'
p386
sg12
S'i56'
p387
sg13
Nsg14
(lp388
(i__main__
Token
p389
(dp390
g18
I292
sbasg19
I292
sba(i__main__
Mention
p391
(dp392
g7
S't8'
p393
sg9
S'Coreference-Identity'
p394
sg10
S'i74'
p395
sg12
S'i58'
p396
sg13
Nsg14
(lp397
(i__main__
Token
p398
(dp399
g18
I352
sbasg19
I352
sba(i__main__
Mention
p400
(dp401
g7
S't8'
p402
sg9
S'Anaphora-C'
p403
sg10
S'i78'
p404
sg12
S'i74'
p405
sg13
Nsg14
(lp406
(i__main__
Token
p407
(dp408
g18
I366
sbasg19
I366
sba(i__main__
Mention
p409
(dp410
g7
S't8'
p411
sg9
S'Anaphora-C'
p412
sg10
S'i79'
p413
sg12
S'i78'
p414
sg13
Nsg14
(lp415
(i__main__
Token
p416
(dp417
g18
I379
sbasg19
I379
sbasg7
g234
sg29
Nsba(i__main__
Chain
p418
(dp419
g3
(lp420
(i__main__
Mention
p421
(dp422
g7
S't9'
p423
sg9
Nsg10
S'i13'
p424
sg12
Nsg13
Nsg14
(lp425
(i__main__
Token
p426
(dp427
g18
I46
sbasg19
I46
sbasg7
g423
sg29
Nsba(i__main__
Chain
p428
(dp429
g3
(lp430
(i__main__
Mention
p431
(dp432
g7
S't10'
p433
sg9
Nsg10
S'i16'
p434
sg12
Nsg13
Nsg14
(lp435
(i__main__
Token
p436
(dp437
g18
I56
sbasg19
I56
sba(i__main__
Mention
p438
(dp439
g7
S't10'
p440
sg9
S'Coreference-Noun-Noun'
p441
sg10
S'i18'
p442
sg12
S'i16'
p443
sg13
Nsg14
(lp444
(i__main__
Token
p445
(dp446
g18
I60
sba(i__main__
Token
p447
(dp448
g18
I61
sbasg19
I61
sba(i__main__
Mention
p449
(dp450
g7
S't10'
p451
sg9
S'Coreference-NounComplement'
p452
sg10
S'i19'
p453
sg12
S'i18'
p454
sg13
Nsg14
(lp455
(i__main__
Token
p456
(dp457
g18
I62
sba(i__main__
Token
p458
(dp459
g18
I63
sbasg19
I63
sbasg7
g433
sg29
Nsba(i__main__
Chain
p460
(dp461
g3
(lp462
(i__main__
Mention
p463
(dp464
g7
S't11'
p465
sg9
Nsg10
S'i22'
p466
sg12
Nsg13
Nsg14
(lp467
(i__main__
Token
p468
(dp469
g18
I83
sba(i__main__
Token
p470
(dp471
g18
I84
sbasg19
I84
sba(i__main__
Mention
p472
(dp473
g7
S't11'
p474
sg9
S'Coreference-Identity'
p475
sg10
S'i60'
p476
sg12
S'i22'
p477
sg13
Nsg14
(lp478
(i__main__
Token
p479
(dp480
g18
I296
sba(i__main__
Token
p481
(dp482
g18
I297
sba(i__main__
Token
p483
(dp484
g18
I298
sbasg19
I298
sba(i__main__
Mention
p485
(dp486
g7
S't11'
p487
sg9
S'Anaphora-C'
p488
sg10
S'i61'
p489
sg12
S'i60'
p490
sg13
Nsg14
(lp491
(i__main__
Token
p492
(dp493
g18
I306
sbasg19
I306
sbasg7
g465
sg29
Nsba(i__main__
Chain
p494
(dp495
g3
(lp496
(i__main__
Mention
p497
(dp498
g7
S't12'
p499
sg9
Nsg10
S'i24'
p500
sg12
Nsg13
Nsg14
(lp501
(i__main__
Token
p502
(dp503
g18
I97
sbasg19
I97
sbasg7
g499
sg29
Nsba(i__main__
Chain
p504
(dp505
g3
(lp506
(i__main__
Mention
p507
(dp508
g7
S't13'
p509
sg9
Nsg10
S'i26'
p510
sg12
Nsg13
Nsg14
(lp511
(i__main__
Token
p512
(dp513
g18
I111
sbasg19
I111
sbasg7
g509
sg29
Nsba(i__main__
Chain
p514
(dp515
g3
(lp516
(i__main__
Mention
p517
(dp518
g7
S't14'
p519
sg9
Nsg10
S'i29'
p520
sg12
Nsg13
Nsg14
(lp521
(i__main__
Token
p522
(dp523
g18
I126
sbasg19
I126
sbasg7
g519
sg29
Nsba(i__main__
Chain
p524
(dp525
g3
(lp526
(i__main__
Mention
p527
(dp528
g7
S't15'
p529
sg9
Nsg10
S'i30'
p530
sg12
Nsg13
Nsg14
(lp531
(i__main__
Token
p532
(dp533
g18
I128
sbasg19
I128
sbasg7
g529
sg29
Nsba(i__main__
Chain
p534
(dp535
g3
(lp536
(i__main__
Mention
p537
(dp538
g7
S't16'
p539
sg9
Nsg10
S'i35'
p540
sg12
Nsg13
Nsg14
(lp541
(i__main__
Token
p542
(dp543
g18
I146
sba(i__main__
Token
p544
(dp545
g18
I147
sba(i__main__
Token
p546
(dp547
g18
I148
sbasg19
I148
sba(i__main__
Mention
p548
(dp549
g7
S't16'
p550
sg9
S'Coreference-Bracketed/Abbraviation'
p551
sg10
S'i36'
p552
sg12
S'i35'
p553
sg13
Nsg14
(lp554
(i__main__
Token
p555
(dp556
g18
I150
sbasg19
I150
sba(i__main__
Mention
p557
(dp558
g7
S't16'
p559
sg9
S'Anaphora-C'
p560
sg10
S'i37'
p561
sg12
S'i36'
p562
sg13
Nsg14
(lp563
(i__main__
Token
p564
(dp565
g18
I156
sbasg19
I156
sba(i__main__
Mention
p566
(dp567
g7
S't16'
p568
sg9
S'Coreference-Identity'
p569
sg10
S'i54'
p570
sg12
S'i37'
p571
sg13
Nsg14
(lp572
(i__main__
Token
p573
(dp574
g18
I265
sbasg19
I265
sbasg7
g539
sg29
Nsba(i__main__
Chain
p575
(dp576
g3
(lp577
(i__main__
Mention
p578
(dp579
g7
S't17'
p580
sg9
Nsg10
S'i39'
p581
sg12
Nsg13
Nsg14
(lp582
(i__main__
Token
p583
(dp584
g18
I172
sba(i__main__
Token
p585
(dp586
g18
I173
sbasg19
I173
sba(i__main__
Mention
p587
(dp588
g7
S't17'
p589
sg9
S'Coreference-Identity'
p590
sg10
S'i40'
p591
sg12
S'i39'
p592
sg13
Nsg14
(lp593
(i__main__
Token
p594
(dp595
g18
I180
sba(i__main__
Token
p596
(dp597
g18
I181
sbasg19
I181
sbasg7
g580
sg29
Nsba(i__main__
Chain
p598
(dp599
g3
(lp600
(i__main__
Mention
p601
(dp602
g7
S't18'
p603
sg9
Nsg10
S'i43'
p604
sg12
Nsg13
Nsg14
(lp605
(i__main__
Token
p606
(dp607
g18
I199
sba(i__main__
Token
p608
(dp609
g18
I200
sba(i__main__
Token
p610
(dp611
g18
I201
sba(i__main__
Token
p612
(dp613
g18
I202
sba(i__main__
Token
p614
(dp615
g18
I203
sbasg19
I203
sba(i__main__
Mention
p616
(dp617
g7
S't18'
p618
sg9
S'Anaphora-C'
p619
sg10
S'i45'
p620
sg12
S'i43'
p621
sg13
Nsg14
(lp622
(i__main__
Token
p623
(dp624
g18
I218
sbasg19
I218
sba(i__main__
Mention
p625
(dp626
g7
S't18'
p627
sg9
S'Anaphora-C'
p628
sg10
S'i46'
p629
sg12
S'i45'
p630
sg13
Nsg14
(lp631
(i__main__
Token
p632
(dp633
g18
I229
sbasg19
I229
sbasg7
g603
sg29
Nsba(i__main__
Chain
p634
(dp635
g3
(lp636
(i__main__
Mention
p637
(dp638
g7
S't19'
p639
sg9
Nsg10
S'i44'
p640
sg12
Nsg13
Nsg14
(lp641
(i__main__
Token
p642
(dp643
g18
I205
sbasg19
I205
sbasg7
g639
sg29
Nsba(i__main__
Chain
p644
(dp645
g3
(lp646
(i__main__
Mention
p647
(dp648
g7
S't20'
p649
sg9
Nsg10
S'i47'
p650
sg12
Nsg13
Nsg14
(lp651
(i__main__
Token
p652
(dp653
g18
I237
sbasg19
I237
sba(i__main__
Mention
p654
(dp655
g7
S't20'
p656
sg9
S'Coreference-Identity'
p657
sg10
S'i67'
p658
sg12
S'i47'
p659
sg13
Nsg14
(lp660
(i__main__
Token
p661
(dp662
g18
I321
sbasg19
I321
sba(i__main__
Mention
p663
(dp664
g7
S't20'
p665
sg9
S'Coreference-Identity'
p666
sg10
S'i72'
p667
sg12
S'i67'
p668
sg13
Nsg14
(lp669
(i__main__
Token
p670
(dp671
g18
I340
sbasg19
I340
sbasg7
g649
sg29
Nsba(i__main__
Chain
p672
(dp673
g3
(lp674
(i__main__
Mention
p675
(dp676
g7
S't21'
p677
sg9
Nsg10
S'i48'
p678
sg12
Nsg13
Nsg14
(lp679
(i__main__
Token
p680
(dp681
g18
I242
sba(i__main__
Token
p682
(dp683
g18
I243
sbasg19
I243
sba(i__main__
Mention
p684
(dp685
g7
S't21'
p686
sg9
S'Coreference-NounComplement'
p687
sg10
S'i49'
p688
sg12
S'i48'
p689
sg13
Nsg14
(lp690
(i__main__
Token
p691
(dp692
g18
I246
sba(i__main__
Token
p693
(dp694
g18
I247
sba(i__main__
Token
p695
(dp696
g18
I248
sba(i__main__
Token
p697
(dp698
g18
I249
sba(i__main__
Token
p699
(dp700
g18
I250
sba(i__main__
Token
p701
(dp702
g18
I251
sba(i__main__
Token
p703
(dp704
g18
I252
sba(i__main__
Token
p705
(dp706
g18
I253
sba(i__main__
Token
p707
(dp708
g18
I254
sba(i__main__
Token
p709
(dp710
g18
I255
sba(i__main__
Token
p711
(dp712
g18
I256
sba(i__main__
Token
p713
(dp714
g18
I257
sba(i__main__
Token
p715
(dp716
g18
I258
sbasg19
I258
sbasg7
g677
sg29
Nsba(i__main__
Chain
p717
(dp718
g3
(lp719
(i__main__
Mention
p720
(dp721
g7
S't22'
p722
sg9
Nsg10
S'i51'
p723
sg12
Nsg13
Nsg14
(lp724
(i__main__
Token
p725
(dp726
g18
I250
sba(i__main__
Token
p727
(dp728
g18
I251
sbasg19
I251
sba(i__main__
Mention
p729
(dp730
g7
S't22'
p731
sg9
S'Coreference-Identity'
p732
sg10
S'i57'
p733
sg12
S'i51'
p734
sg13
Nsg14
(lp735
(i__main__
Token
p736
(dp737
g18
I276
sba(i__main__
Token
p738
(dp739
g18
I277
sbasg19
I277
sbasg7
g722
sg29
Nsba(i__main__
Chain
p740
(dp741
g3
(lp742
(i__main__
Mention
p743
(dp744
g7
S't23'
p745
sg9
Nsg10
S'i62'
p746
sg12
Nsg13
Nsg14
(lp747
(i__main__
Token
p748
(dp749
g18
I315
sbasg19
I315
sba(i__main__
Mention
p750
(dp751
g7
S't23'
p752
sg9
S'Anaphora-RE'
p753
sg10
S'i64'
p754
sg12
S'i62'
p755
sg13
Nsg14
(lp756
(i__main__
Token
p757
(dp758
g18
I317
sba(i__main__
Token
p759
(dp760
g18
I318
sba(i__main__
Token
p761
(dp762
g18
I319
sba(i__main__
Token
p763
(dp764
g18
I320
sba(i__main__
Token
p765
(dp766
g18
I321
sba(i__main__
Token
p767
(dp768
g18
I322
sba(i__main__
Token
p769
(dp770
g18
I323
sba(i__main__
Token
p771
(dp772
g18
I324
sba(i__main__
Token
p773
(dp774
g18
I325
sba(i__main__
Token
p775
(dp776
g18
I326
sba(i__main__
Token
p777
(dp778
g18
I327
sba(i__main__
Token
p779
(dp780
g18
I328
sba(i__main__
Token
p781
(dp782
g18
I329
sba(i__main__
Token
p783
(dp784
g18
I330
sba(i__main__
Token
p785
(dp786
g18
I331
sba(i__main__
Token
p787
(dp788
g18
I332
sba(i__main__
Token
p789
(dp790
g18
I333
sba(i__main__
Token
p791
(dp792
g18
I334
sbasg19
I332
sbasg7
g745
sg29
Nsba(i__main__
Chain
p793
(dp794
g3
(lp795
(i__main__
Mention
p796
(dp797
g7
S't24'
p798
sg9
Nsg10
S'i65'
p799
sg12
Nsg13
Nsg14
(lp800
(i__main__
Token
p801
(dp802
g18
I319
sba(i__main__
Token
p803
(dp804
g18
I320
sbasg19
I320
sba(i__main__
Mention
p805
(dp806
g7
S't24'
p807
sg9
S'Coreference-Identity'
p808
sg10
S'i80'
p809
sg12
S'i65'
p810
sg13
Nsg14
(lp811
(i__main__
Token
p812
(dp813
g18
I383
sba(i__main__
Token
p814
(dp815
g18
I384
sbasg19
I384
sba(i__main__
Mention
p816
(dp817
g7
S't24'
p818
sg9
S'Coreference-Identity'
p819
sg10
S'i84'
p820
sg12
S'i80'
p821
sg13
Nsg14
(lp822
(i__main__
Token
p823
(dp824
g18
I402
sba(i__main__
Token
p825
(dp826
g18
I403
sbasg19
I403
sbasg7
g798
sg29
Nsba(i__main__
Chain
p827
(dp828
g3
(lp829
(i__main__
Mention
p830
(dp831
g7
S't25'
p832
sg9
Nsg10
S'i66'
p833
sg12
Nsg13
Nsg14
(lp834
(i__main__
Token
p835
(dp836
g18
I319
sbasg19
I319
sba(i__main__
Mention
p837
(dp838
g7
S't25'
p839
sg9
S'Coreference-Identity'
p840
sg10
S'i81'
p841
sg12
S'i66'
p842
sg13
Nsg14
(lp843
(i__main__
Token
p844
(dp845
g18
I383
sbasg19
I383
sba(i__main__
Mention
p846
(dp847
g7
S't25'
p848
sg9
S'Coreference-Identity'
p849
sg10
S'i87'
p850
sg12
S'i81'
p851
sg13
Nsg14
(lp852
(i__main__
Token
p853
(dp854
g18
I416
sbasg19
I416
sbasg7
g832
sg29
Nsba(i__main__
Chain
p855
(dp856
g3
(lp857
(i__main__
Mention
p858
(dp859
g7
S't26'
p860
sg9
Nsg10
S'i68'
p861
sg12
Nsg13
Nsg14
(lp862
(i__main__
Token
p863
(dp864
g18
I323
sba(i__main__
Token
p865
(dp866
g18
I324
sbasg19
I324
sba(i__main__
Mention
p867
(dp868
g7
S't26'
p869
sg9
S'Coreference-NounComplement'
p870
sg10
S'i69'
p871
sg12
S'i68'
p872
sg13
Nsg14
(lp873
(i__main__
Token
p874
(dp875
g18
I325
sba(i__main__
Token
p876
(dp877
g18
I326
sbasg19
I326
sba(i__main__
Mention
p878
(dp879
g7
S't26'
p880
sg9
S'Coreference-Identity'
p881
sg10
S'i71'
p882
sg12
S'i69'
p883
sg13
Nsg14
(lp884
(i__main__
Token
p885
(dp886
g18
I337
sba(i__main__
Token
p887
(dp888
g18
I338
sbasg19
I338
sba(i__main__
Mention
p889
(dp890
g7
S't26'
p891
sg9
S'Coreference-Identity'
p892
sg10
S'i75'
p893
sg12
S'i71'
p894
sg13
Nsg14
(lp895
(i__main__
Token
p896
(dp897
g18
I356
sba(i__main__
Token
p898
(dp899
g18
I357
sbasg19
I357
sbasg7
g860
sg29
Nsba(i__main__
Chain
p900
(dp901
g3
(lp902
(i__main__
Mention
p903
(dp904
g7
S't27'
p905
sg9
Nsg10
S'i70'
p906
sg12
Nsg13
Nsg14
(lp907
(i__main__
Token
p908
(dp909
g18
I328
sba(i__main__
Token
p910
(dp911
g18
I329
sbasg19
I329
sba(i__main__
Mention
p912
(dp913
g7
S't27'
p914
sg9
S'Coreference-Identity'
p915
sg10
S'i85'
p916
sg12
S'i70'
p917
sg13
Nsg14
(lp918
(i__main__
Token
p919
(dp920
g18
I404
sbasg19
I404
sba(i__main__
Mention
p921
(dp922
g7
S't27'
p923
sg9
S'Coreference-Identity'
p924
sg10
S'i86'
p925
sg12
S'i85'
p926
sg13
Nsg14
(lp927
(i__main__
Token
p928
(dp929
g18
I411
sbasg19
I411
sbasg7
g905
sg29
Nsba(i__main__
Chain
p930
(dp931
g3
(lp932
(i__main__
Mention
p933
(dp934
g7
S't28'
p935
sg9
Nsg10
S'i73'
p936
sg12
Nsg13
Nsg14
(lp937
(i__main__
Token
p938
(dp939
g18
I346
sbasg19
I346
sbasg7
g935
sg29
Nsba(i__main__
Chain
p940
(dp941
g3
(lp942
(i__main__
Mention
p943
(dp944
g7
S't29'
p945
sg9
Nsg10
S'i77'
p946
sg12
Nsg13
Nsg14
(lp947
(i__main__
Token
p948
(dp949
g18
I361
sbasg19
I361
sbasg7
g945
sg29
Nsba(i__main__
Chain
p950
(dp951
g3
(lp952
(i__main__
Mention
p953
(dp954
g7
S't30'
p955
sg9
Nsg10
S'i82'
p956
sg12
Nsg13
Nsg14
(lp957
(i__main__
Token
p958
(dp959
g18
I386
sba(i__main__
Token
p960
(dp961
g18
I387
sba(i__main__
Token
p962
(dp963
g18
I388
sba(i__main__
Token
p964
(dp965
g18
I389
sba(i__main__
Token
p966
(dp967
g18
I390
sba(i__main__
Token
p968
(dp969
g18
I391
sbasg19
I391
sba(i__main__
Mention
p970
(dp971
g7
S't30'
p972
sg9
S'Coreference-NounComplement'
p973
sg10
S'i83'
p974
sg12
S'i82'
p975
sg13
Nsg14
(lp976
(i__main__
Token
p977
(dp978
g18
I392
sba(i__main__
Token
p979
(dp980
g18
I393
sbasg19
I393
sbasg7
g955
sg29
Nsba.