(lp0
(i__main__
Chain
p1
(dp2
S'mentionList'
p3
(lp4
(i__main__
Mention
p5
(dp6
S'chainId'
p7
S't1'
p8
sS'relType'
p9
NsS'mentionId'
p10
S'i1'
p11
sS'antecedentId'
p12
NsS'crefMod'
p13
NsS'tokenList'
p14
(lp15
(i__main__
Token
p16
(dp17
S'tokenId'
p18
I0
sba(i__main__
Token
p19
(dp20
g18
I1
sbasS'mentionHead'
p21
I1
sba(i__main__
Mention
p22
(dp23
g7
S't1'
p24
sg9
S'Coreference-Identity'
p25
sg10
S'i22'
p26
sg12
S'i1'
p27
sg13
Nsg14
(lp28
(i__main__
Token
p29
(dp30
g18
I88
sba(i__main__
Token
p31
(dp32
g18
I89
sbasg21
I89
sbasg7
g8
sS'chainHead'
p33
Nsba(i__main__
Chain
p34
(dp35
g3
(lp36
(i__main__
Mention
p37
(dp38
g7
S't2'
p39
sg9
Nsg10
S'i2'
p40
sg12
Nsg13
Nsg14
(lp41
(i__main__
Token
p42
(dp43
g18
I3
sba(i__main__
Token
p44
(dp45
g18
I4
sbasg21
I4
sba(i__main__
Mention
p46
(dp47
g7
S't2'
p48
sg9
S'Coreference-Noun-Noun'
p49
sg10
S'i4'
p50
sg12
S'i57'
p51
sg13
Nsg14
(lp52
(i__main__
Token
p53
(dp54
g18
I12
sba(i__main__
Token
p55
(dp56
g18
I13
sba(i__main__
Token
p57
(dp58
g18
I14
sbasg21
I14
sba(i__main__
Mention
p59
(dp60
g7
S't2'
p61
sg9
Nsg10
S'i6'
p62
sg12
Nsg13
Nsg14
(lp63
(i__main__
Token
p64
(dp65
g18
I21
sba(i__main__
Token
p66
(dp67
g18
I22
sba(i__main__
Token
p68
(dp69
g18
I23
sba(i__main__
Token
p70
(dp71
g18
I24
sba(i__main__
Token
p72
(dp73
g18
I25
sbasg21
I25
sba(i__main__
Mention
p74
(dp75
g7
S't2'
p76
sg9
S'Anaphora-C'
p77
sg10
S'i8'
p78
sg12
S'i6'
p79
sg13
Nsg14
(lp80
(i__main__
Token
p81
(dp82
g18
I32
sbasg21
I32
sba(i__main__
Mention
p83
(dp84
g7
S't2'
p85
sg9
S'Coreference-Noun-Noun'
p86
sg10
S'i9'
p87
sg12
S'i8'
p88
sg13
Nsg14
(lp89
(i__main__
Token
p90
(dp91
g18
I44
sbasg21
I44
sba(i__main__
Mention
p92
(dp93
g7
S't2'
p94
sg9
S'Anaphora-C'
p95
sg10
S'i10'
p96
sg12
S'i9'
p97
sg13
Nsg14
(lp98
(i__main__
Token
p99
(dp100
g18
I45
sbasg21
I45
sba(i__main__
Mention
p101
(dp102
g7
S't2'
p103
sg9
S'Coreference-Noun-Noun'
p104
sg10
S'i16'
p105
sg12
S'i10'
p106
sg13
Nsg14
(lp107
(i__main__
Token
p108
(dp109
g18
I65
sba(i__main__
Token
p110
(dp111
g18
I66
sbasg21
I66
sba(i__main__
Mention
p112
(dp113
g7
S't2'
p114
sg9
S'Coreference-Noun-Noun'
p115
sg10
S'i21'
p116
sg12
S'i16'
p117
sg13
Nsg14
(lp118
(i__main__
Token
p119
(dp120
g18
I84
sbasg21
I84
sba(i__main__
Mention
p121
(dp122
g7
S't2'
p123
sg9
S'Anaphora-C'
p124
sg10
S'i27'
p125
sg12
S'i21'
p126
sg13
Nsg14
(lp127
(i__main__
Token
p128
(dp129
g18
I107
sbasg21
I107
sba(i__main__
Mention
p130
(dp131
g7
S't2'
p132
sg9
S'Anaphora-C'
p133
sg10
S'i28'
p134
sg12
S'i27'
p135
sg13
Nsg14
(lp136
(i__main__
Token
p137
(dp138
g18
I113
sbasg21
I113
sba(i__main__
Mention
p139
(dp140
g7
S't2'
p141
sg9
S'Coreference-Identity'
p142
sg10
S'i30'
p143
sg12
S'i28'
p144
sg13
Nsg14
(lp145
(i__main__
Token
p146
(dp147
g18
I121
sbasg21
I121
sba(i__main__
Mention
p148
(dp149
g7
S't2'
p150
sg9
S'Anaphora-C'
p151
sg10
S'i31'
p152
sg12
S'i30'
p153
sg13
Nsg14
(lp154
(i__main__
Token
p155
(dp156
g18
I122
sbasg21
I122
sba(i__main__
Mention
p157
(dp158
g7
S't2'
p159
sg9
S'Anaphora-C'
p160
sg10
S'i32'
p161
sg12
S'i31'
p162
sg13
Nsg14
(lp163
(i__main__
Token
p164
(dp165
g18
I136
sbasg21
I136
sba(i__main__
Mention
p166
(dp167
g7
S't2'
p168
sg9
S'Anaphora-C'
p169
sg10
S'i33'
p170
sg12
S'i32'
p171
sg13
Nsg14
(lp172
(i__main__
Token
p173
(dp174
g18
I144
sbasg21
I144
sba(i__main__
Mention
p175
(dp176
g7
S't2'
p177
sg9
S'Anaphora-C'
p178
sg10
S'i37'
p179
sg12
S'i33'
p180
sg13
Nsg14
(lp181
(i__main__
Token
p182
(dp183
g18
I159
sbasg21
I159
sba(i__main__
Mention
p184
(dp185
g7
S't2'
p186
sg9
S'Coreference-Identity'
p187
sg10
S'i48'
p188
sg12
S'i37'
p189
sg13
Nsg14
(lp190
(i__main__
Token
p191
(dp192
g18
I194
sbasg21
I194
sba(i__main__
Mention
p193
(dp194
g7
S't2'
p195
sg9
S'Anaphora-C'
p196
sg10
S'i50'
p197
sg12
S'i48'
p198
sg13
Nsg14
(lp199
(i__main__
Token
p200
(dp201
g18
I214
sbasg21
I214
sbasg7
g39
sg33
Nsba(i__main__
Chain
p202
(dp203
g3
(lp204
(i__main__
Mention
p205
(dp206
g7
S't3'
p207
sg9
Nsg10
S'i3'
p208
sg12
Nsg13
Nsg14
(lp209
(i__main__
Token
p210
(dp211
g18
I8
sbasg21
I8
sba(i__main__
Mention
p212
(dp213
g7
S't3'
p214
sg9
S'Coreference-Identity'
p215
sg10
S'i13'
p216
sg12
S'i3'
p217
sg13
Nsg14
(lp218
(i__main__
Token
p219
(dp220
g18
I54
sbasg21
I54
sbasg7
g207
sg33
Nsba(i__main__
Chain
p221
(dp222
g3
(lp223
(i__main__
Mention
p224
(dp225
g7
S't4'
p226
sg9
S'Coreference-Noun-Noun'
p227
sg10
S'i7'
p228
sg12
S'i4'
p229
sg13
Nsg14
(lp230
(i__main__
Token
p231
(dp232
g18
I22
sbasg21
I22
sbasg7
g226
sg33
Nsba(i__main__
Chain
p233
(dp234
g3
(lp235
(i__main__
Mention
p236
(dp237
g7
S't5'
p238
sg9
Nsg10
S'i11'
p239
sg12
Nsg13
Nsg14
(lp240
(i__main__
Token
p241
(dp242
g18
I46
sbasg21
I46
sba(i__main__
Mention
p243
(dp244
g7
S't5'
p245
sg9
S'Coreference-NounComplement'
p246
sg10
S'i12'
p247
sg12
S'i11'
p248
sg13
Nsg14
(lp249
(i__main__
Token
p250
(dp251
g18
I47
sbasg21
I47
sbasg7
g238
sg33
Nsba(i__main__
Chain
p252
(dp253
g3
(lp254
(i__main__
Mention
p255
(dp256
g7
S't6'
p257
sg9
Nsg10
S'i14'
p258
sg12
Nsg13
Nsg14
(lp259
(i__main__
Token
p260
(dp261
g18
I59
sba(i__main__
Token
p262
(dp263
g18
I60
sbasg21
I60
sba(i__main__
Mention
p264
(dp265
g7
S't6'
p266
sg9
S'Coreference-NounComplement'
p267
sg10
S'i15'
p268
sg12
S'i14'
p269
sg13
Nsg14
(lp270
(i__main__
Token
p271
(dp272
g18
I61
sba(i__main__
Token
p273
(dp274
g18
I62
sba(i__main__
Token
p275
(dp276
g18
I63
sbasg21
I63
sba(i__main__
Mention
p277
(dp278
g7
S't6'
p279
sg9
S'Coreference-Identity'
p280
sg10
S'i24'
p281
sg12
S'i15'
p282
sg13
Nsg14
(lp283
(i__main__
Token
p284
(dp285
g18
I94
sbasg21
I94
sba(i__main__
Mention
p286
(dp287
g7
S't6'
p288
sg9
S'Coreference-Identity'
p289
sg10
S'i39'
p290
sg12
S'i24'
p291
sg13
Nsg14
(lp292
(i__main__
Token
p293
(dp294
g18
I166
sbasg21
I166
sba(i__main__
Mention
p295
(dp296
g7
S't6'
p297
sg9
S'Anaphora-C'
p298
sg10
S'i40'
p299
sg12
S'i39'
p300
sg13
Nsg14
(lp301
(i__main__
Token
p302
(dp303
g18
I167
sbasg21
I167
sba(i__main__
Mention
p304
(dp305
g7
S't6'
p306
sg9
S'Anaphora-C'
p307
sg10
S'i43'
p308
sg12
S'i40'
p309
sg13
Nsg14
(lp310
(i__main__
Token
p311
(dp312
g18
I172
sbasg21
I172
sbasg7
g257
sg33
Nsba(i__main__
Chain
p313
(dp314
g3
(lp315
(i__main__
Mention
p316
(dp317
g7
S't7'
p318
sg9
S'anaphora-?'
p319
sg10
S'i17'
p320
sg12
S'i17'
p321
sg13
Nsg14
(lp322
(i__main__
Token
p323
(dp324
g18
I68
sbasg21
I68
sbasg7
g318
sg33
Nsba(i__main__
Chain
p325
(dp326
g3
(lp327
(i__main__
Mention
p328
(dp329
g7
S't8'
p330
sg9
Nsg10
S'i18'
p331
sg12
Nsg13
Nsg14
(lp332
(i__main__
Token
p333
(dp334
g18
I70
sba(i__main__
Token
p335
(dp336
g18
I71
sba(i__main__
Token
p337
(dp338
g18
I72
sbasg21
I72
sba(i__main__
Mention
p339
(dp340
g7
S't8'
p341
sg9
S'Anaphora-C'
p342
sg10
S'i19'
p343
sg12
S'i18'
p344
sg13
Nsg14
(lp345
(i__main__
Token
p346
(dp347
g18
I76
sbasg21
I76
sba(i__main__
Mention
p348
(dp349
g7
S't8'
p350
sg9
S'Coreference-PartOf'
p351
sg10
S'i29'
p352
sg12
S'i19'
p353
sg13
Nsg14
(lp354
(i__main__
Token
p355
(dp356
g18
I114
sbasg21
I114
sba(i__main__
Mention
p357
(dp358
g7
S't8'
p359
sg9
S'Coreference-PartOf-WMain'
p360
sg10
S'i38'
p361
sg12
S'i29'
p362
sg13
Nsg14
(lp363
(i__main__
Token
p364
(dp365
g18
I163
sba(i__main__
Token
p366
(dp367
g18
I164
sbasg21
I164
sbasg7
g330
sg33
Nsba(i__main__
Chain
p368
(dp369
g3
(lp370
(i__main__
Mention
p371
(dp372
g7
S't9'
p373
sg9
Nsg10
S'i23'
p374
sg12
Nsg13
Nsg14
(lp375
(i__main__
Token
p376
(dp377
g18
I93
sbasg21
I93
sba(i__main__
Mention
p378
(dp379
g7
S't9'
p380
sg9
S'Anaphora-RT'
p381
sg10
S'i25'
p382
sg12
S'i23'
p383
sg13
Nsg14
(lp384
(i__main__
Token
p385
(dp386
g18
I94
sba(i__main__
Token
p387
(dp388
g18
I95
sba(i__main__
Token
p389
(dp390
g18
I96
sba(i__main__
Token
p391
(dp392
g18
I97
sba(i__main__
Token
p393
(dp394
g18
I98
sba(i__main__
Token
p395
(dp396
g18
I99
sba(i__main__
Token
p397
(dp398
g18
I100
sba(i__main__
Token
p399
(dp400
g18
I101
sba(i__main__
Token
p401
(dp402
g18
I102
sba(i__main__
Token
p403
(dp404
g18
I103
sba(i__main__
Token
p405
(dp406
g18
I104
sba(i__main__
Token
p407
(dp408
g18
I105
sba(i__main__
Token
p409
(dp410
g18
I106
sba(i__main__
Token
p411
(dp412
g18
I107
sba(i__main__
Token
p413
(dp414
g18
I108
sba(i__main__
Token
p415
(dp416
g18
I109
sba(i__main__
Token
p417
(dp418
g18
I110
sba(i__main__
Token
p419
(dp420
g18
I111
sbasg21
I110
sbasg7
g373
sg33
Nsba(i__main__
Chain
p421
(dp422
g3
(lp423
(i__main__
Mention
p424
(dp425
g7
S't10'
p426
sg9
Nsg10
S'i26'
p427
sg12
Nsg13
Nsg14
(lp428
(i__main__
Token
p429
(dp430
g18
I96
sbasg21
I96
sba(i__main__
Mention
p431
(dp432
g7
S't10'
p433
sg9
S'Coreference-Identity'
p434
sg10
S'i36'
p435
sg12
S'i26'
p436
sg13
Nsg14
(lp437
(i__main__
Token
p438
(dp439
g18
I153
sbasg21
I153
sbasg7
g426
sg33
Nsba(i__main__
Chain
p440
(dp441
g3
(lp442
(i__main__
Mention
p443
(dp444
g7
S't11'
p445
sg9
Nsg10
S'i34'
p446
sg12
Nsg13
Nsg14
(lp447
(i__main__
Token
p448
(dp449
g18
I149
sbasg21
I149
sba(i__main__
Mention
p450
(dp451
g7
S't11'
p452
sg9
S'Anaphora-RT'
p453
sg10
S'i35'
p454
sg12
S'i34'
p455
sg13
Nsg14
(lp456
(i__main__
Token
p457
(dp458
g18
I150
sba(i__main__
Token
p459
(dp460
g18
I151
sba(i__main__
Token
p461
(dp462
g18
I152
sba(i__main__
Token
p463
(dp464
g18
I153
sba(i__main__
Token
p465
(dp466
g18
I154
sba(i__main__
Token
p467
(dp468
g18
I155
sba(i__main__
Token
p469
(dp470
g18
I156
sba(i__main__
Token
p471
(dp472
g18
I157
sba(i__main__
Token
p473
(dp474
g18
I158
sba(i__main__
Token
p475
(dp476
g18
I159
sba(i__main__
Token
p477
(dp478
g18
I160
sba(i__main__
Token
p479
(dp480
g18
I161
sbasg21
I160
sbasg7
g445
sg33
Nsba(i__main__
Chain
p481
(dp482
g3
(lp483
(i__main__
Mention
p484
(dp485
g7
S't12'
p486
sg9
Nsg10
S'i41'
p487
sg12
Nsg13
Nsg14
(lp488
(i__main__
Token
p489
(dp490
g18
I168
sba(i__main__
Token
p491
(dp492
g18
I169
sbasg21
I169
sba(i__main__
Mention
p493
(dp494
g7
S't12'
p495
sg9
S'Coreference-NounComplement'
p496
sg10
S'i42'
p497
sg12
S'i41'
p498
sg13
Nsg14
(lp499
(i__main__
Token
p500
(dp501
g18
I170
sbasg21
I170
sbasg7
g486
sg33
Nsba(i__main__
Chain
p502
(dp503
g3
(lp504
(i__main__
Mention
p505
(dp506
g7
S't13'
p507
sg9
Nsg10
S'i44'
p508
sg12
Nsg13
Nsg14
(lp509
(i__main__
Token
p510
(dp511
g18
I173
sba(i__main__
Token
p512
(dp513
g18
I174
sbasg21
I174
sba(i__main__
Mention
p514
(dp515
g7
S't13'
p516
sg9
S'Coreference-NounComplement'
p517
sg10
S'i45'
p518
sg12
S'i44'
p519
sg13
Nsg14
(lp520
(i__main__
Token
p521
(dp522
g18
I175
sba(i__main__
Token
p523
(dp524
g18
I176
sba(i__main__
Token
p525
(dp526
g18
I177
sbasg21
I177
sbasg7
g507
sg33
Nsba(i__main__
Chain
p527
(dp528
g3
(lp529
(i__main__
Mention
p530
(dp531
g7
S't14'
p532
sg9
Nsg10
S'i46'
p533
sg12
Nsg13
Nsg14
(lp534
(i__main__
Token
p535
(dp536
g18
I180
sba(i__main__
Token
p537
(dp538
g18
I181
sbasg21
I181
sba(i__main__
Mention
p539
(dp540
g7
S't14'
p541
sg9
S'Coreference-NounComplement'
p542
sg10
S'i47'
p543
sg12
S'i46'
p544
sg13
Nsg14
(lp545
(i__main__
Token
p546
(dp547
g18
I182
sba(i__main__
Token
p548
(dp549
g18
I183
sbasg21
I183
sbasg7
g532
sg33
Nsba(i__main__
Chain
p550
(dp551
g3
(lp552
(i__main__
Mention
p553
(dp554
g7
S't15'
p555
sg9
Nsg10
S'i49'
p556
sg12
Nsg13
Nsg14
(lp557
(i__main__
Token
p558
(dp559
g18
I205
sba(i__main__
Token
p560
(dp561
g18
I206
sba(i__main__
Token
p562
(dp563
g18
I207
sbasg21
I207
sba(i__main__
Mention
p564
(dp565
g7
S't15'
p566
sg9
S'Coreference-Identity'
p567
sg10
S'i51'
p568
sg12
S'i49'
p569
sg13
Nsg14
(lp570
(i__main__
Token
p571
(dp572
g18
I217
sba(i__main__
Token
p573
(dp574
g18
I218
sbasg21
I218
sbasg7
g555
sg33
Nsba.