(lp0
(i__main__
Chain
p1
(dp2
S'mentionList'
p3
(lp4
(i__main__
Mention
p5
(dp6
S'chainId'
p7
S't1'
p8
sS'relType'
p9
NsS'mentionId'
p10
S'i1'
p11
sS'antecedentId'
p12
NsS'crefMod'
p13
NsS'tokenList'
p14
(lp15
(i__main__
Token
p16
(dp17
S'tokenId'
p18
I0
sbasS'mentionHead'
p19
I0
sba(i__main__
Mention
p20
(dp21
g7
S't1'
p22
sg9
S'Coreference-NounComplement'
p23
sg10
S'i2'
p24
sg12
S'i1'
p25
sg13
Nsg14
(lp26
(i__main__
Token
p27
(dp28
g18
I1
sba(i__main__
Token
p29
(dp30
g18
I2
sbasg19
I2
sba(i__main__
Mention
p31
(dp32
g7
S't1'
p33
sg9
S'Coreference-Identity'
p34
sg10
S'i9'
p35
sg12
S'i2'
p36
sg13
Nsg14
(lp37
(i__main__
Token
p38
(dp39
g18
I34
sbasg19
I34
sba(i__main__
Mention
p40
(dp41
g7
S't1'
p42
sg9
S'Coreference-Identity'
p43
sg10
S'i10'
p44
sg12
S'i9'
p45
sg13
Nsg14
(lp46
(i__main__
Token
p47
(dp48
g18
I43
sbasg19
I43
sba(i__main__
Mention
p49
(dp50
g7
S't1'
p51
sg9
S'Coreference-Identity'
p52
sg10
S'i14'
p53
sg12
S'i10'
p54
sg13
Nsg14
(lp55
(i__main__
Token
p56
(dp57
g18
I55
sbasg19
I55
sba(i__main__
Mention
p58
(dp59
g7
S't1'
p60
sg9
S'Coreference-Identity'
p61
sg10
S'i18'
p62
sg12
S'i14'
p63
sg13
Nsg14
(lp64
(i__main__
Token
p65
(dp66
g18
I76
sbasg19
I76
sba(i__main__
Mention
p67
(dp68
g7
S't1'
p69
sg9
S'Anaphora-C'
p70
sg10
S'i22'
p71
sg12
S'i18'
p72
sg13
Nsg14
(lp73
(i__main__
Token
p74
(dp75
g18
I89
sbasg19
I89
sba(i__main__
Mention
p76
(dp77
g7
S't1'
p78
sg9
S'Anaphora-C'
p79
sg10
S'i23'
p80
sg12
S'i22'
p81
sg13
Nsg14
(lp82
(i__main__
Token
p83
(dp84
g18
I117
sbasg19
I117
sba(i__main__
Mention
p85
(dp86
g7
S't1'
p87
sg9
S'Coreference-Identity'
p88
sg10
S'i29'
p89
sg12
S'i23'
p90
sg13
Nsg14
(lp91
(i__main__
Token
p92
(dp93
g18
I141
sbasg19
I141
sbasg7
g8
sS'chainHead'
p94
Nsba(i__main__
Chain
p95
(dp96
g3
(lp97
(i__main__
Mention
p98
(dp99
g7
S't2'
p100
sg9
Nsg10
S'i3'
p101
sg12
Nsg13
Nsg14
(lp102
(i__main__
Token
p103
(dp104
g18
I4
sbasg19
I4
sba(i__main__
Mention
p105
(dp106
g7
S't2'
p107
sg9
S'Coreference-NounComplement'
p108
sg10
S'i4'
p109
sg12
S'i3'
p110
sg13
Nsg14
(lp111
(i__main__
Token
p112
(dp113
g18
I5
sba(i__main__
Token
p114
(dp115
g18
I6
sbasg19
I6
sba(i__main__
Mention
p116
(dp117
g7
S't2'
p118
sg9
S'Coreference-Noun-Noun'
p119
sg10
S'i6'
p120
sg12
S'i4'
p121
sg13
Nsg14
(lp122
(i__main__
Token
p123
(dp124
g18
I15
sba(i__main__
Token
p125
(dp126
g18
I16
sbasg19
I16
sba(i__main__
Mention
p127
(dp128
g7
S't2'
p129
sg9
S'Coreference-NounComplement'
p130
sg10
S'i7'
p131
sg12
S'i6'
p132
sg13
Nsg14
(lp133
(i__main__
Token
p134
(dp135
g18
I17
sbasg19
I17
sba(i__main__
Mention
p136
(dp137
g7
S't2'
p138
sg9
S'Anaphora-C'
p139
sg10
S'i8'
p140
sg12
S'i7'
p141
sg13
Nsg14
(lp142
(i__main__
Token
p143
(dp144
g18
I31
sbasg19
I31
sba(i__main__
Mention
p145
(dp146
g7
S't2'
p147
sg9
S'Coreference-Identity'
p148
sg10
S'i15'
p149
sg12
S'i8'
p150
sg13
Nsg14
(lp151
(i__main__
Token
p152
(dp153
g18
I60
sba(i__main__
Token
p154
(dp155
g18
I61
sbasg19
I61
sbasg7
g100
sg94
Nsba(i__main__
Chain
p156
(dp157
g3
(lp158
(i__main__
Mention
p159
(dp160
g7
S't3'
p161
sg9
S'anaphora-?'
p162
sg10
S'i5'
p163
sg12
S'i5'
p164
sg13
Nsg14
(lp165
(i__main__
Token
p166
(dp167
g18
I10
sbasg19
I10
sbasg7
g161
sg94
Nsba(i__main__
Chain
p168
(dp169
g3
(lp170
(i__main__
Mention
p171
(dp172
g7
S't4'
p173
sg9
Nsg10
S'i11'
p174
sg12
Nsg13
Nsg14
(lp175
(i__main__
Token
p176
(dp177
g18
I45
sbasg19
I45
sba(i__main__
Mention
p178
(dp179
g7
S't4'
p180
sg9
S'Coreference-NounComplement'
p181
sg10
S'i12'
p182
sg12
S'i11'
p183
sg13
Nsg14
(lp184
(i__main__
Token
p185
(dp186
g18
I46
sba(i__main__
Token
p187
(dp188
g18
I47
sbasg19
I47
sbasg7
g173
sg94
Nsba(i__main__
Chain
p189
(dp190
g3
(lp191
(i__main__
Mention
p192
(dp193
g7
S't5'
p194
sg9
Nsg10
S'i13'
p195
sg12
Nsg13
Nsg14
(lp196
(i__main__
Token
p197
(dp198
g18
I52
sbasg19
I52
sba(i__main__
Mention
p199
(dp200
g7
S't5'
p201
sg9
S'Anaphora-C'
p202
sg10
S'i16'
p203
sg12
S'i13'
p204
sg13
Nsg14
(lp205
(i__main__
Token
p206
(dp207
g18
I67
sbasg19
I67
sbasg7
g194
sg94
Nsba(i__main__
Chain
p208
(dp209
g3
(lp210
(i__main__
Mention
p211
(dp212
g7
S't6'
p213
sg9
Nsg10
S'i17'
p214
sg12
Nsg13
Nsg14
(lp215
(i__main__
Token
p216
(dp217
g18
I73
sba(i__main__
Token
p218
(dp219
g18
I74
sba(i__main__
Token
p220
(dp221
g18
I75
sba(i__main__
Token
p222
(dp223
g18
I76
sba(i__main__
Token
p224
(dp225
g18
I77
sba(i__main__
Token
p226
(dp227
g18
I78
sba(i__main__
Token
p228
(dp229
g18
I79
sba(i__main__
Token
p230
(dp231
g18
I80
sba(i__main__
Token
p232
(dp233
g18
I81
sba(i__main__
Token
p234
(dp235
g18
I82
sba(i__main__
Token
p236
(dp237
g18
I83
sba(i__main__
Token
p238
(dp239
g18
I84
sba(i__main__
Token
p240
(dp241
g18
I85
sbasg19
I83
sba(i__main__
Mention
p242
(dp243
g7
S't6'
p244
sg9
S'Anaphora-E'
p245
sg10
S'i21'
p246
sg12
S'i17'
p247
sg13
Nsg14
(lp248
(i__main__
Token
p249
(dp250
g18
I87
sbasg19
I87
sbasg7
g213
sg94
Nsba(i__main__
Chain
p251
(dp252
g3
(lp253
(i__main__
Mention
p254
(dp255
g7
S't7'
p256
sg9
Nsg10
S'i19'
p257
sg12
Nsg13
Nsg14
(lp258
(i__main__
Token
p259
(dp260
g18
I78
sbasg19
I78
sba(i__main__
Mention
p261
(dp262
g7
S't7'
p263
sg9
S'Coreference-NounComplement'
p264
sg10
S'i20'
p265
sg12
S'i19'
p266
sg13
Nsg14
(lp267
(i__main__
Token
p268
(dp269
g18
I80
sbasg19
I80
sbasg7
g256
sg94
Nsba(i__main__
Chain
p270
(dp271
g3
(lp272
(i__main__
Mention
p273
(dp274
g7
S't8'
p275
sg9
Nsg10
S'i24'
p276
sg12
Nsg13
Nsg14
(lp277
(i__main__
Token
p278
(dp279
g18
I120
sbasg19
I120
sba(i__main__
Mention
p280
(dp281
g7
S't8'
p282
sg9
S'Coreference-Noun-Noun'
p283
sg10
S'i26'
p284
sg12
S'i24'
p285
sg13
Nsg14
(lp286
(i__main__
Token
p287
(dp288
g18
I127
sba(i__main__
Token
p289
(dp290
g18
I128
sbasg19
I128
sbasg7
g275
sg94
Nsba(i__main__
Chain
p291
(dp292
g3
(lp293
(i__main__
Mention
p294
(dp295
g7
S't9'
p296
sg9
Nsg10
S'i25'
p297
sg12
Nsg13
Nsg14
(lp298
(i__main__
Token
p299
(dp300
g18
I123
sbasg19
I123
sba(i__main__
Mention
p301
(dp302
g7
S't9'
p303
sg9
S'Coreference-Noun-Noun'
p304
sg10
S'i27'
p305
sg12
S'i25'
p306
sg13
Nsg14
(lp307
(i__main__
Token
p308
(dp309
g18
I130
sbasg19
I130
sba(i__main__
Mention
p310
(dp311
g7
S't9'
p312
sg9
S'Coreference-Identity'
p313
sg10
S'i28'
p314
sg12
S'i27'
p315
sg13
Nsg14
(lp316
(i__main__
Token
p317
(dp318
g18
I135
sba(i__main__
Token
p319
(dp320
g18
I136
sba(i__main__
Token
p321
(dp322
g18
I137
sba(i__main__
Token
p323
(dp324
g18
I138
sba(i__main__
Token
p325
(dp326
g18
I139
sbasg19
I139
sbasg7
g296
sg94
Nsba.