(lp0
(i__main__
Chain
p1
(dp2
S'mentionList'
p3
(lp4
(i__main__
Mention
p5
(dp6
S'chainId'
p7
S't1'
p8
sS'relType'
p9
NsS'mentionId'
p10
S'i1'
p11
sS'antecedentId'
p12
NsS'crefMod'
p13
NsS'tokenList'
p14
(lp15
(i__main__
Token
p16
(dp17
S'tokenId'
p18
I0
sba(i__main__
Token
p19
(dp20
g18
I1
sbasS'mentionHead'
p21
I1
sba(i__main__
Mention
p22
(dp23
g7
S't1'
p24
sg9
S'Coreference-NounComplement'
p25
sg10
S'i2'
p26
sg12
S'i1'
p27
sg13
Nsg14
(lp28
(i__main__
Token
p29
(dp30
g18
I2
sba(i__main__
Token
p31
(dp32
g18
I3
sba(i__main__
Token
p33
(dp34
g18
I4
sbasg21
I4
sba(i__main__
Mention
p35
(dp36
g7
S't1'
p37
sg9
S'Coreference-Identity'
p38
sg10
S'i7'
p39
sg12
S'i2'
p40
sg13
Nsg14
(lp41
(i__main__
Token
p42
(dp43
g18
I29
sbasg21
I29
sba(i__main__
Mention
p44
(dp45
g7
S't1'
p46
sg9
S'Anaphora-C'
p47
sg10
S'i8'
p48
sg12
S'i7'
p49
sg13
Nsg14
(lp50
(i__main__
Token
p51
(dp52
g18
I33
sbasg21
I33
sba(i__main__
Mention
p53
(dp54
g7
S't1'
p55
sg9
S'Anaphora-C'
p56
sg10
S'i10'
p57
sg12
S'i8'
p58
sg13
Nsg14
(lp59
(i__main__
Token
p60
(dp61
g18
I46
sbasg21
I46
sba(i__main__
Mention
p62
(dp63
g7
S't1'
p64
sg9
S'Anaphora-C'
p65
sg10
S'i14'
p66
sg12
S'i10'
p67
sg13
Nsg14
(lp68
(i__main__
Token
p69
(dp70
g18
I71
sbasg21
I71
sba(i__main__
Mention
p71
(dp72
g7
S't1'
p73
sg9
S'Anaphora-C'
p74
sg10
S'i21'
p75
sg12
S'i14'
p76
sg13
Nsg14
(lp77
(i__main__
Token
p78
(dp79
g18
I113
sbasg21
I113
sba(i__main__
Mention
p80
(dp81
g7
S't1'
p82
sg9
S'Anaphora-C'
p83
sg10
S'i30'
p84
sg12
S'i21'
p85
sg13
Nsg14
(lp86
(i__main__
Token
p87
(dp88
g18
I149
sbasg21
I149
sba(i__main__
Mention
p89
(dp90
g7
S't1'
p91
sg9
S'Anaphora-C'
p92
sg10
S'i32'
p93
sg12
S'i30'
p94
sg13
Nsg14
(lp95
(i__main__
Token
p96
(dp97
g18
I155
sbasg21
I155
sba(i__main__
Mention
p98
(dp99
g7
S't1'
p100
sg9
S'Anaphora-C'
p101
sg10
S'i37'
p102
sg12
S'i32'
p103
sg13
Nsg14
(lp104
(i__main__
Token
p105
(dp106
g18
I183
sbasg21
I183
sba(i__main__
Mention
p107
(dp108
g7
S't1'
p109
sg9
S'Anaphora-C'
p110
sg10
S'i40'
p111
sg12
S'i37'
p112
sg13
Nsg14
(lp113
(i__main__
Token
p114
(dp115
g18
I203
sbasg21
I203
sba(i__main__
Mention
p116
(dp117
g7
S't1'
p118
sg9
S'Anaphora-C'
p119
sg10
S'i45'
p120
sg12
S'i40'
p121
sg13
Nsg14
(lp122
(i__main__
Token
p123
(dp124
g18
I232
sbasg21
I232
sba(i__main__
Mention
p125
(dp126
g7
S't1'
p127
sg9
S'Anaphora-C'
p128
sg10
S'i47'
p129
sg12
S'i45'
p130
sg13
Nsg14
(lp131
(i__main__
Token
p132
(dp133
g18
I255
sbasg21
I255
sba(i__main__
Mention
p134
(dp135
g7
S't1'
p136
sg9
S'Coreference-Identity'
p137
sg10
S'i49'
p138
sg12
S'i47'
p139
sg13
Nsg14
(lp140
(i__main__
Token
p141
(dp142
g18
I276
sbasg21
I276
sba(i__main__
Mention
p143
(dp144
g7
S't1'
p145
sg9
S'Anaphora-C'
p146
sg10
S'i57'
p147
sg12
S'i49'
p148
sg13
Nsg14
(lp149
(i__main__
Token
p150
(dp151
g18
I318
sbasg21
I318
sba(i__main__
Mention
p152
(dp153
g7
S't1'
p154
sg9
S'Anaphora-C'
p155
sg10
S'i59'
p156
sg12
S'i57'
p157
sg13
Nsg14
(lp158
(i__main__
Token
p159
(dp160
g18
I331
sbasg21
I331
sbasg7
g8
sS'chainHead'
p161
Nsba(i__main__
Chain
p162
(dp163
g3
(lp164
(i__main__
Mention
p165
(dp166
g7
S't2'
p167
sg9
Nsg10
S'i3'
p168
sg12
Nsg13
Nsg14
(lp169
(i__main__
Token
p170
(dp171
g18
I10
sbasg21
I10
sba(i__main__
Mention
p172
(dp173
g7
S't2'
p174
sg9
S'Coreference-Identity'
p175
sg10
S'i11'
p176
sg12
S'i3'
p177
sg13
Nsg14
(lp178
(i__main__
Token
p179
(dp180
g18
I50
sbasg21
I50
sba(i__main__
Mention
p181
(dp182
g7
S't2'
p183
sg9
S'Coreference-Identity'
p184
sg10
S'i16'
p185
sg12
S'i11'
p186
sg13
Nsg14
(lp187
(i__main__
Token
p188
(dp189
g18
I76
sbasg21
I76
sba(i__main__
Mention
p190
(dp191
g7
S't2'
p192
sg9
S'Coreference-Identity'
p193
sg10
S'i19'
p194
sg12
S'i16'
p195
sg13
Nsg14
(lp196
(i__main__
Token
p197
(dp198
g18
I97
sbasg21
I97
sba(i__main__
Mention
p199
(dp200
g7
S't2'
p201
sg9
S'Coreference-Identity'
p202
sg10
S'i28'
p203
sg12
S'i19'
p204
sg13
Nsg14
(lp205
(i__main__
Token
p206
(dp207
g18
I132
sbasg21
I132
sbasg7
g167
sg161
Nsba(i__main__
Chain
p208
(dp209
g3
(lp210
(i__main__
Mention
p211
(dp212
g7
S't3'
p213
sg9
Nsg10
S'i4'
p214
sg12
Nsg13
Nsg14
(lp215
(i__main__
Token
p216
(dp217
g18
I16
sbasg21
I16
sba(i__main__
Mention
p218
(dp219
g7
S't3'
p220
sg9
S'Coreference-Identity'
p221
sg10
S'i12'
p222
sg12
S'i4'
p223
sg13
Nsg14
(lp224
(i__main__
Token
p225
(dp226
g18
I52
sbasg21
I52
sbasg7
g213
sg161
Nsba(i__main__
Chain
p227
(dp228
g3
(lp229
(i__main__
Mention
p230
(dp231
g7
S't4'
p232
sg9
Nsg10
S'i5'
p233
sg12
Nsg13
Nsg14
(lp234
(i__main__
Token
p235
(dp236
g18
I20
sba(i__main__
Token
p237
(dp238
g18
I21
sba(i__main__
Token
p239
(dp240
g18
I22
sbasg21
I22
sba(i__main__
Mention
p241
(dp242
g7
S't4'
p243
sg9
S'Coreference-Identity'
p244
sg10
S'i9'
p245
sg12
S'i5'
p246
sg13
Nsg14
(lp247
(i__main__
Token
p248
(dp249
g18
I40
sbasg21
I40
sba(i__main__
Mention
p250
(dp251
g7
S't4'
p252
sg9
S'Coreference-Identity'
p253
sg10
S'i15'
p254
sg12
S'i9'
p255
sg13
Nsg14
(lp256
(i__main__
Token
p257
(dp258
g18
I74
sba(i__main__
Token
p259
(dp260
g18
I75
sbasg21
I75
sba(i__main__
Mention
p261
(dp262
g7
S't4'
p263
sg9
S'Anaphora-C'
p264
sg10
S'i18'
p265
sg12
S'i15'
p266
sg13
Nsg14
(lp267
(i__main__
Token
p268
(dp269
g18
I88
sbasg21
I88
sba(i__main__
Mention
p270
(dp271
g7
S't4'
p272
sg9
S'Coreference-Identity'
p273
sg10
S'i36'
p274
sg12
S'i18'
p275
sg13
Nsg14
(lp276
(i__main__
Token
p277
(dp278
g18
I178
sbasg21
I178
sbasg7
g232
sg161
Nsba(i__main__
Chain
p279
(dp280
g3
(lp281
(i__main__
Mention
p282
(dp283
g7
S't5'
p284
sg9
Nsg10
S'i6'
p285
sg12
Nsg13
Nsg14
(lp286
(i__main__
Token
p287
(dp288
g18
I20
sba(i__main__
Token
p289
(dp290
g18
I21
sbasg21
I21
sba(i__main__
Mention
p291
(dp292
g7
S't5'
p293
sg9
S'Coreference-Identity'
p294
sg10
S'i38'
p295
sg12
S'i6'
p296
sg13
Nsg14
(lp297
(i__main__
Token
p298
(dp299
g18
I197
sbasg21
I197
sbasg7
g284
sg161
Nsba(i__main__
Chain
p300
(dp301
g3
(lp302
(i__main__
Mention
p303
(dp304
g7
S't6'
p305
sg9
Nsg10
S'i13'
p306
sg12
Nsg13
Nsg14
(lp307
(i__main__
Token
p308
(dp309
g18
I59
sbasg21
I59
sba(i__main__
Mention
p310
(dp311
g7
S't6'
p312
sg9
S'Coreference-Identity'
p313
sg10
S'i42'
p314
sg12
S'i13'
p315
sg13
Nsg14
(lp316
(i__main__
Token
p317
(dp318
g18
I208
sbasg21
I208
sba(i__main__
Mention
p319
(dp320
g7
S't6'
p321
sg9
S'Coreference-Identity'
p322
sg10
S'i44'
p323
sg12
S'i42'
p324
sg13
Nsg14
(lp325
(i__main__
Token
p326
(dp327
g18
I220
sbasg21
I220
sba(i__main__
Mention
p328
(dp329
g7
S't6'
p330
sg9
S'Coreference-Identity'
p331
sg10
S'i46'
p332
sg12
S'i44'
p333
sg13
Nsg14
(lp334
(i__main__
Token
p335
(dp336
g18
I235
sbasg21
I235
sba(i__main__
Mention
p337
(dp338
g7
S't6'
p339
sg9
S'Coreference-Identity'
p340
sg10
S'i48'
p341
sg12
S'i46'
p342
sg13
Nsg14
(lp343
(i__main__
Token
p344
(dp345
g18
I268
sbasg21
I268
sba(i__main__
Mention
p346
(dp347
g7
S't6'
p348
sg9
S'Coreference-Identity'
p349
sg10
S'i50'
p350
sg12
S'i48'
p351
sg13
Nsg14
(lp352
(i__main__
Token
p353
(dp354
g18
I280
sbasg21
I280
sba(i__main__
Mention
p355
(dp356
g7
S't6'
p357
sg9
S'Anaphora-C'
p358
sg10
S'i54'
p359
sg12
S'i50'
p360
sg13
Nsg14
(lp361
(i__main__
Token
p362
(dp363
g18
I298
sbasg21
I298
sbasg7
g305
sg161
Nsba(i__main__
Chain
p364
(dp365
g3
(lp366
(i__main__
Mention
p367
(dp368
g7
S't7'
p369
sg9
Nsg10
S'i17'
p370
sg12
Nsg13
Nsg14
(lp371
(i__main__
Token
p372
(dp373
g18
I81
sbasg21
I81
sba(i__main__
Mention
p374
(dp375
g7
S't7'
p376
sg9
S'Coreference-PartOf'
p377
sg10
S'i33'
p378
sg12
S'i17'
p379
sg13
Nsg14
(lp380
(i__main__
Token
p381
(dp382
g18
I161
sba(i__main__
Token
p383
(dp384
g18
I162
sbasg21
I162
sba(i__main__
Mention
p385
(dp386
g7
S't7'
p387
sg9
S'Coreference-RPartOf'
p388
sg10
S'i35'
p389
sg12
S'i33'
p390
sg13
Nsg14
(lp391
(i__main__
Token
p392
(dp393
g18
I171
sbasg21
I171
sbasg7
g369
sg161
Nsba(i__main__
Chain
p394
(dp395
g3
(lp396
(i__main__
Mention
p397
(dp398
g7
S't8'
p399
sg9
S'anaphora-?'
p400
sg10
S'i20'
p401
sg12
S'i20'
p402
sg13
Nsg14
(lp403
(i__main__
Token
p404
(dp405
g18
I101
sbasg21
I101
sbasg7
g399
sg161
Nsba(i__main__
Chain
p406
(dp407
g3
(lp408
(i__main__
Mention
p409
(dp410
g7
S't9'
p411
sg9
Nsg10
S'i22'
p412
sg12
Nsg13
Nsg14
(lp413
(i__main__
Token
p414
(dp415
g18
I116
sbasg21
I116
sba(i__main__
Mention
p416
(dp417
g7
S't9'
p418
sg9
S'Coreference-Identity'
p419
sg10
S'i29'
p420
sg12
S'i22'
p421
sg13
Nsg14
(lp422
(i__main__
Token
p423
(dp424
g18
I144
sbasg21
I144
sbasg7
g411
sg161
Nsba(i__main__
Chain
p425
(dp426
g3
(lp427
(i__main__
Mention
p428
(dp429
g7
S't10'
p430
sg9
Nsg10
S'i23'
p431
sg12
Nsg13
Nsg14
(lp432
(i__main__
Token
p433
(dp434
g18
I117
sbasg21
I117
sba(i__main__
Mention
p435
(dp436
g7
S't10'
p437
sg9
S'Anaphora-C'
p438
sg10
S'i27'
p439
sg12
S'i23'
p440
sg13
Nsg14
(lp441
(i__main__
Token
p442
(dp443
g18
I129
sbasg21
I129
sbasg7
g430
sg161
Nsba(i__main__
Chain
p444
(dp445
g3
(lp446
(i__main__
Mention
p447
(dp448
g7
S't11'
p449
sg9
S'anaphora-?'
p450
sg10
S'i24'
p451
sg12
S'i25'
p452
sg13
Nsg14
(lp453
(i__main__
Token
p454
(dp455
g18
I124
sbasg21
I124
sba(i__main__
Mention
p456
(dp457
g7
S't11'
p458
sg9
S'Anaphora-C'
p459
sg10
S'i26'
p460
sg12
S'i24'
p461
sg13
Nsg14
(lp462
(i__main__
Token
p463
(dp464
g18
I128
sbasg21
I128
sbasg7
g449
sg161
Nsba(i__main__
Chain
p465
(dp466
g3
(lp467
(i__main__
Mention
p468
(dp469
g7
S't12'
p470
sg9
Nsg10
S'i31'
p471
sg12
Nsg13
Nsg14
(lp472
(i__main__
Token
p473
(dp474
g18
I154
sbasg21
I154
sba(i__main__
Mention
p475
(dp476
g7
S't12'
p477
sg9
S'Anaphora-C'
p478
sg10
S'i34'
p479
sg12
S'i31'
p480
sg13
Nsg14
(lp481
(i__main__
Token
p482
(dp483
g18
I164
sbasg21
I164
sbasg7
g470
sg161
Nsba(i__main__
Chain
p484
(dp485
g3
(lp486
(i__main__
Mention
p487
(dp488
g7
S't13'
p489
sg9
Nsg10
S'i39'
p490
sg12
Nsg13
Nsg14
(lp491
(i__main__
Token
p492
(dp493
g18
I199
sbasg21
I199
sba(i__main__
Mention
p494
(dp495
g7
S't13'
p496
sg9
S'Anaphora-C'
p497
sg10
S'i41'
p498
sg12
S'i39'
p499
sg13
Nsg14
(lp500
(i__main__
Token
p501
(dp502
g18
I207
sbasg21
I207
sba(i__main__
Mention
p503
(dp504
g7
S't13'
p505
sg9
S'Anaphora-C'
p506
sg10
S'i43'
p507
sg12
S'i41'
p508
sg13
Nsg14
(lp509
(i__main__
Token
p510
(dp511
g18
I215
sbasg21
I215
sbasg7
g489
sg161
Nsba(i__main__
Chain
p512
(dp513
g3
(lp514
(i__main__
Mention
p515
(dp516
g7
S't14'
p517
sg9
Nsg10
S'i51'
p518
sg12
Nsg13
Nsg14
(lp519
(i__main__
Token
p520
(dp521
g18
I282
sba(i__main__
Token
p522
(dp523
g18
I283
sba(i__main__
Token
p524
(dp525
g18
I284
sba(i__main__
Token
p526
(dp527
g18
I285
sba(i__main__
Token
p528
(dp529
g18
I286
sba(i__main__
Token
p530
(dp531
g18
I287
sba(i__main__
Token
p532
(dp533
g18
I288
sba(i__main__
Token
p534
(dp535
g18
I289
sba(i__main__
Token
p536
(dp537
g18
I290
sbasg21
I289
sba(i__main__
Mention
p538
(dp539
g7
S't14'
p540
sg9
S'Anaphora-E'
p541
sg10
S'i52'
p542
sg12
S'i51'
p543
sg13
Nsg14
(lp544
(i__main__
Token
p545
(dp546
g18
I292
sbasg21
I292
sbasg7
g517
sg161
Nsba(i__main__
Chain
p547
(dp548
g3
(lp549
(i__main__
Mention
p550
(dp551
g7
S't15'
p552
sg9
Nsg10
S'i55'
p553
sg12
Nsg13
Nsg14
(lp554
(i__main__
Token
p555
(dp556
g18
I311
sbasg21
I311
sba(i__main__
Mention
p557
(dp558
g7
S't15'
p559
sg9
S'Coreference-NounComplement'
p560
sg10
S'i56'
p561
sg12
S'i55'
p562
sg13
Nsg14
(lp563
(i__main__
Token
p564
(dp565
g18
I312
sba(i__main__
Token
p566
(dp567
g18
I313
sbasg21
I313
sbasg7
g552
sg161
Nsba(i__main__
Chain
p568
(dp569
g3
(lp570
(i__main__
Mention
p571
(dp572
g7
S't16'
p573
sg9
Nsg10
S'i58'
p574
sg12
Nsg13
Nsg14
(lp575
(i__main__
Token
p576
(dp577
g18
I321
sba(i__main__
Token
p578
(dp579
g18
I322
sbasg21
I322
sba(i__main__
Mention
p580
(dp581
g7
S't16'
p582
sg9
S'Coreference-Identity'
p583
sg10
S'i60'
p584
sg12
S'i58'
p585
sg13
Nsg14
(lp586
(i__main__
Token
p587
(dp588
g18
I343
sbasg21
I343
sbasg7
g573
sg161
Nsba.