(lp0
(i__main__
Chain
p1
(dp2
S'mentionList'
p3
(lp4
(i__main__
Mention
p5
(dp6
S'chainId'
p7
S't1'
p8
sS'relType'
p9
NsS'mentionId'
p10
S'i1'
p11
sS'antecedentId'
p12
NsS'crefMod'
p13
NsS'tokenList'
p14
(lp15
(i__main__
Token
p16
(dp17
S'tokenId'
p18
I0
sba(i__main__
Token
p19
(dp20
g18
I1
sba(i__main__
Token
p21
(dp22
g18
I2
sbasS'mentionHead'
p23
I2
sba(i__main__
Mention
p24
(dp25
g7
S't1'
p26
sg9
S'Coreference-Identity'
p27
sg10
S'i17'
p28
sg12
S'i1'
p29
sg13
Nsg14
(lp30
(i__main__
Token
p31
(dp32
g18
I57
sbasg23
I57
sba(i__main__
Mention
p33
(dp34
g7
S't1'
p35
sg9
S'Coreference-Noun-Noun'
p36
sg10
S'i19'
p37
sg12
S'i17'
p38
sg13
Nsg14
(lp39
(i__main__
Token
p40
(dp41
g18
I61
sbasg23
I61
sba(i__main__
Mention
p42
(dp43
g7
S't1'
p44
sg9
S'Coreference-Noun-Noun'
p45
sg10
S'i38'
p46
sg12
S'i98'
p47
sg13
Nsg14
(lp48
(i__main__
Token
p49
(dp50
g18
I135
sbasg23
I135
sba(i__main__
Mention
p51
(dp52
g7
S't1'
p53
sg9
S'Coreference-Identity'
p54
sg10
S'i43'
p55
sg12
S'i38'
p56
sg13
Nsg14
(lp57
(i__main__
Token
p58
(dp59
g18
I154
sbasg23
I154
sba(i__main__
Mention
p60
(dp61
g7
S't1'
p62
sg9
S'Coreference-Identity'
p63
sg10
S'i56'
p64
sg12
S'i43'
p65
sg13
Nsg14
(lp66
(i__main__
Token
p67
(dp68
g18
I206
sbasg23
I206
sba(i__main__
Mention
p69
(dp70
g7
S't1'
p71
sg9
S'Coreference-Identity'
p72
sg10
S'i92'
p73
sg12
S'i56'
p74
sg13
Nsg14
(lp75
(i__main__
Token
p76
(dp77
g18
I355
sbasg23
I355
sbasg7
g8
sS'chainHead'
p78
Nsba(i__main__
Chain
p79
(dp80
g3
(lp81
(i__main__
Mention
p82
(dp83
g7
S't2'
p84
sg9
Nsg10
S'i2'
p85
sg12
Nsg13
Nsg14
(lp86
(i__main__
Token
p87
(dp88
g18
I11
sba(i__main__
Token
p89
(dp90
g18
I12
sba(i__main__
Token
p91
(dp92
g18
I13
sbasg23
I12
sba(i__main__
Mention
p93
(dp94
g7
S't2'
p95
sg9
S'Coreference-Noun-Noun'
p96
sg10
S'i7'
p97
sg12
S'i2'
p98
sg13
Nsg14
(lp99
(i__main__
Token
p100
(dp101
g18
I25
sbasg23
I25
sba(i__main__
Mention
p102
(dp103
g7
S't2'
p104
sg9
S'Coreference-Identity'
p105
sg10
S'i11'
p106
sg12
S'i7'
p107
sg13
Nsg14
(lp108
(i__main__
Token
p109
(dp110
g18
I39
sbasg23
I39
sba(i__main__
Mention
p111
(dp112
g7
S't2'
p113
sg9
S'Coreference-Noun-Noun'
p114
sg10
S'i20'
p115
sg12
S'i11'
p116
sg13
Nsg14
(lp117
(i__main__
Token
p118
(dp119
g18
I70
sba(i__main__
Token
p120
(dp121
g18
I71
sba(i__main__
Token
p122
(dp123
g18
I72
sbasg23
I72
sba(i__main__
Mention
p124
(dp125
g7
S't2'
p126
sg9
S'Coreference-Noun-Noun'
p127
sg10
S'i50'
p128
sg12
S'i20'
p129
sg13
Nsg14
(lp130
(i__main__
Token
p131
(dp132
g18
I176
sbasg23
I176
sba(i__main__
Mention
p133
(dp134
g7
S't2'
p135
sg9
S'Coreference-Identity'
p136
sg10
S'i55'
p137
sg12
S'i50'
p138
sg13
Nsg14
(lp139
(i__main__
Token
p140
(dp141
g18
I200
sbasg23
I200
sba(i__main__
Mention
p142
(dp143
g7
S't2'
p144
sg9
S'Coreference-Identity'
p145
sg10
S'i64'
p146
sg12
S'i55'
p147
sg13
Nsg14
(lp148
(i__main__
Token
p149
(dp150
g18
I227
sbasg23
I227
sba(i__main__
Mention
p151
(dp152
g7
S't2'
p153
sg9
S'Coreference-Identity'
p154
sg10
S'i67'
p155
sg12
S'i64'
p156
sg13
Nsg14
(lp157
(i__main__
Token
p158
(dp159
g18
I234
sbasg23
I234
sba(i__main__
Mention
p160
(dp161
g7
S't2'
p162
sg9
S'Coreference-Noun-Noun'
p163
sg10
S'i93'
p164
sg12
S'i67'
p165
sg13
Nsg14
(lp166
(i__main__
Token
p167
(dp168
g18
I357
sba(i__main__
Token
p169
(dp170
g18
I358
sba(i__main__
Token
p171
(dp172
g18
I359
sbasg23
I358
sba(i__main__
Mention
p173
(dp174
g7
S't2'
p175
sg9
S'Coreference-Noun-Noun'
p176
sg10
S'i94'
p177
sg12
S'i93'
p178
sg13
Nsg14
(lp179
(i__main__
Token
p180
(dp181
g18
I364
sbasg23
I364
sba(i__main__
Mention
p182
(dp183
g7
S't2'
p184
sg9
S'Coreference-Identity'
p185
sg10
S'i99'
p186
sg12
S'i94'
p187
sg13
Nsg14
(lp188
(i__main__
Token
p189
(dp190
g18
I383
sbasg23
I383
sba(i__main__
Mention
p191
(dp192
g7
S't2'
p193
sg9
S'Coreference-Identity'
p194
sg10
S'i102'
p195
sg12
S'i99'
p196
sg13
Nsg14
(lp197
(i__main__
Token
p198
(dp199
g18
I402
sbasg23
I402
sbasg7
g84
sg78
Nsba(i__main__
Chain
p200
(dp201
g3
(lp202
(i__main__
Mention
p203
(dp204
g7
S't3'
p205
sg9
Nsg10
S'i3'
p206
sg12
Nsg13
Nsg14
(lp207
(i__main__
Token
p208
(dp209
g18
I14
sbasg23
I14
sba(i__main__
Mention
p210
(dp211
g7
S't3'
p212
sg9
S'Coreference-Identity'
p213
sg10
S'i9'
p214
sg12
S'i3'
p215
sg13
Nsg14
(lp216
(i__main__
Token
p217
(dp218
g18
I26
sbasg23
I26
sba(i__main__
Mention
p219
(dp220
g7
S't3'
p221
sg9
S'Coreference-Identity'
p222
sg10
S'i12'
p223
sg12
S'i9'
p224
sg13
Nsg14
(lp225
(i__main__
Token
p226
(dp227
g18
I40
sbasg23
I40
sba(i__main__
Mention
p228
(dp229
g7
S't3'
p230
sg9
S'Coreference-Noun-Noun'
p231
sg10
S'i40'
p232
sg12
S'i12'
p233
sg13
Nsg14
(lp234
(i__main__
Token
p235
(dp236
g18
I139
sbasg23
I139
sba(i__main__
Mention
p237
(dp238
g7
S't3'
p239
sg9
S'Coreference-Noun-Noun'
p240
sg10
S'i51'
p241
sg12
S'i40'
p242
sg13
Nsg14
(lp243
(i__main__
Token
p244
(dp245
g18
I181
sbasg23
I181
sba(i__main__
Mention
p246
(dp247
g7
S't3'
p248
sg9
S'Coreference-Identity'
p249
sg10
S'i53'
p250
sg12
S'i51'
p251
sg13
Nsg14
(lp252
(i__main__
Token
p253
(dp254
g18
I190
sbasg23
I190
sba(i__main__
Mention
p255
(dp256
g7
S't3'
p257
sg9
S'Coreference-Identity'
p258
sg10
S'i57'
p259
sg12
S'i53'
p260
sg13
Nsg14
(lp261
(i__main__
Token
p262
(dp263
g18
I211
sbasg23
I211
sba(i__main__
Mention
p264
(dp265
g7
S't3'
p266
sg9
S'Coreference-Identity'
p267
sg10
S'i63'
p268
sg12
S'i57'
p269
sg13
Nsg14
(lp270
(i__main__
Token
p271
(dp272
g18
I226
sbasg23
I226
sba(i__main__
Mention
p273
(dp274
g7
S't3'
p275
sg9
S'Coreference-Noun-Noun'
p276
sg10
S'i76'
p277
sg12
S'i63'
p278
sg13
Nsg14
(lp279
(i__main__
Token
p280
(dp281
g18
I283
sbasg23
I283
sba(i__main__
Mention
p282
(dp283
g7
S't3'
p284
sg9
Nsg10
S'i79'
p285
sg12
Nsg13
Nsg14
(lp286
(i__main__
Token
p287
(dp288
g18
I294
sba(i__main__
Token
p289
(dp290
g18
I295
sbasg23
Nsba(i__main__
Mention
p291
(dp292
g7
S't3'
p293
sg9
S'Coreference-PartOf'
p294
sg10
S'i83'
p295
sg12
S'i79'
p296
sg13
Nsg14
(lp297
(i__main__
Token
p298
(dp299
g18
I320
sbasg23
I320
sba(i__main__
Mention
p300
(dp301
g7
S't3'
p302
sg9
S'Coreference-Identity'
p303
sg10
S'i88'
p304
sg12
S'i83'
p305
sg13
Nsg14
(lp306
(i__main__
Token
p307
(dp308
g18
I344
sbasg23
I344
sba(i__main__
Mention
p309
(dp310
g7
S't3'
p311
sg9
Nsg10
S'i95'
p312
sg12
Nsg13
Nsg14
(lp313
(i__main__
Token
p314
(dp315
g18
I366
sba(i__main__
Token
p316
(dp317
g18
I367
sbasg23
Nsbasg7
g205
sg78
Nsba(i__main__
Chain
p318
(dp319
g3
(lp320
(i__main__
Mention
p321
(dp322
g7
S't4'
p323
sg9
Nsg10
S'i4'
p324
sg12
Nsg13
Nsg14
(lp325
(i__main__
Token
p326
(dp327
g18
I17
sbasg23
I17
sba(i__main__
Mention
p328
(dp329
g7
S't4'
p330
sg9
S'Coreference-Identity'
p331
sg10
S'i14'
p332
sg12
S'i4'
p333
sg13
Nsg14
(lp334
(i__main__
Token
p335
(dp336
g18
I51
sbasg23
I51
sba(i__main__
Mention
p337
(dp338
g7
S't4'
p339
sg9
S'Coreference-Identity'
p340
sg10
S'i18'
p341
sg12
S'i14'
p342
sg13
Nsg14
(lp343
(i__main__
Token
p344
(dp345
g18
I59
sbasg23
I59
sbasg7
g323
sg78
Nsba(i__main__
Chain
p346
(dp347
g3
(lp348
(i__main__
Mention
p349
(dp350
g7
S't5'
p351
sg9
Nsg10
S'i5'
p352
sg12
Nsg13
Nsg14
(lp353
(i__main__
Token
p354
(dp355
g18
I19
sbasg23
I19
sba(i__main__
Mention
p356
(dp357
g7
S't5'
p358
sg9
S'Coreference-Identity'
p359
sg10
S'i15'
p360
sg12
S'i5'
p361
sg13
Nsg14
(lp362
(i__main__
Token
p363
(dp364
g18
I53
sbasg23
I53
sba(i__main__
Mention
p365
(dp366
g7
S't5'
p367
sg9
S'Anaphora-C'
p368
sg10
S'i16'
p369
sg12
S'i15'
p370
sg13
Nsg14
(lp371
(i__main__
Token
p372
(dp373
g18
I56
sbasg23
I56
sba(i__main__
Mention
p374
(dp375
g7
S't5'
p376
sg9
S'Coreference-Identity'
p377
sg10
S'i33'
p378
sg12
S'i16'
p379
sg13
Nsg14
(lp380
(i__main__
Token
p381
(dp382
g18
I111
sba(i__main__
Token
p383
(dp384
g18
I112
sba(i__main__
Token
p385
(dp386
g18
I113
sbasg23
I113
sbasg7
g351
sg78
Nsba(i__main__
Chain
p387
(dp388
g3
(lp389
(i__main__
Mention
p390
(dp391
g7
S't6'
p392
sg9
Nsg10
S'i6'
p393
sg12
Nsg13
Nsg14
(lp394
(i__main__
Token
p395
(dp396
g18
I20
sba(i__main__
Token
p397
(dp398
g18
I21
sbasg23
I21
sba(i__main__
Mention
p399
(dp400
g7
S't6'
p401
sg9
S'Coreference-Identity'
p402
sg10
S'i13'
p403
sg12
S'i6'
p404
sg13
Nsg14
(lp405
(i__main__
Token
p406
(dp407
g18
I48
sba(i__main__
Token
p408
(dp409
g18
I49
sbasg23
I49
sbasg7
g392
sg78
Nsba(i__main__
Chain
p410
(dp411
g3
(lp412
(i__main__
Mention
p413
(dp414
g7
S't7'
p415
sg9
Nsg10
S'i8'
p416
sg12
Nsg13
Nsg14
(lp417
(i__main__
Token
p418
(dp419
g18
I25
sba(i__main__
Token
p420
(dp421
g18
I26
sba(i__main__
Token
p422
(dp423
g18
I27
sbasg23
I27
sba(i__main__
Mention
p424
(dp425
g7
S't7'
p426
sg9
S'Coreference-NounComplement'
p427
sg10
S'i10'
p428
sg12
S'i8'
p429
sg13
Nsg14
(lp430
(i__main__
Token
p431
(dp432
g18
I28
sba(i__main__
Token
p433
(dp434
g18
I29
sba(i__main__
Token
p435
(dp436
g18
I30
sbasg23
I30
sba(i__main__
Mention
p437
(dp438
g7
S't7'
p439
sg9
S'Coreference-Identity'
p440
sg10
S'i54'
p441
sg12
S'i10'
p442
sg13
Nsg14
(lp443
(i__main__
Token
p444
(dp445
g18
I198
sbasg23
I198
sba(i__main__
Mention
p446
(dp447
g7
S't7'
p448
sg9
S'Coreference-Identity'
p449
sg10
S'i73'
p450
sg12
S'i54'
p451
sg13
Nsg14
(lp452
(i__main__
Token
p453
(dp454
g18
I271
sbasg23
I271
sba(i__main__
Mention
p455
(dp456
g7
S't7'
p457
sg9
S'Anaphora-C'
p458
sg10
S'i75'
p459
sg12
S'i73'
p460
sg13
Nsg14
(lp461
(i__main__
Token
p462
(dp463
g18
I282
sbasg23
I282
sba(i__main__
Mention
p464
(dp465
g7
S't7'
p466
sg9
S'Anaphora-C'
p467
sg10
S'i78'
p468
sg12
S'i75'
p469
sg13
Nsg14
(lp470
(i__main__
Token
p471
(dp472
g18
I291
sbasg23
I291
sba(i__main__
Mention
p473
(dp474
g7
S't7'
p475
sg9
S'Anaphora-C'
p476
sg10
S'i82'
p477
sg12
S'i78'
p478
sg13
Nsg14
(lp479
(i__main__
Token
p480
(dp481
g18
I317
sbasg23
I317
sba(i__main__
Mention
p482
(dp483
g7
S't7'
p484
sg9
S'Anaphora-C'
p485
sg10
S'i87'
p486
sg12
S'i82'
p487
sg13
Nsg14
(lp488
(i__main__
Token
p489
(dp490
g18
I341
sbasg23
I341
sba(i__main__
Mention
p491
(dp492
g7
S't7'
p493
sg9
S'Anaphora-C'
p494
sg10
S'i90'
p495
sg12
S'i87'
p496
sg13
Nsg14
(lp497
(i__main__
Token
p498
(dp499
g18
I350
sbasg23
I350
sba(i__main__
Mention
p500
(dp501
g7
S't7'
p502
sg9
S'Anaphora-C'
p503
sg10
S'i97'
p504
sg12
S'i90'
p505
sg13
Nsg14
(lp506
(i__main__
Token
p507
(dp508
g18
I374
sbasg23
I374
sba(i__main__
Mention
p509
(dp510
g7
S't7'
p511
sg9
S'Anaphora-C'
p512
sg10
S'i103'
p513
sg12
S'i97'
p514
sg13
Nsg14
(lp515
(i__main__
Token
p516
(dp517
g18
I413
sbasg23
I413
sbasg7
g415
sg78
Nsba(i__main__
Chain
p518
(dp519
g3
(lp520
(i__main__
Mention
p521
(dp522
g7
S't8'
p523
sg9
Nsg10
S'i21'
p524
sg12
Nsg13
Nsg14
(lp525
(i__main__
Token
p526
(dp527
g18
I74
sbasg23
I74
sba(i__main__
Mention
p528
(dp529
g7
S't8'
p530
sg9
S'Coreference-NounComplement'
p531
sg10
S'i22'
p532
sg12
S'i21'
p533
sg13
Nsg14
(lp534
(i__main__
Token
p535
(dp536
g18
I75
sba(i__main__
Token
p537
(dp538
g18
I76
sba(i__main__
Token
p539
(dp540
g18
I77
sbasg23
I77
sba(i__main__
Mention
p541
(dp542
g7
S't8'
p543
sg9
S'Anaphora-C'
p544
sg10
S'i24'
p545
sg12
S'i22'
p546
sg13
Nsg14
(lp547
(i__main__
Token
p548
(dp549
g18
I80
sbasg23
I80
sba(i__main__
Mention
p550
(dp551
g7
S't8'
p552
sg9
S'Coreference-Identity'
p553
sg10
S'i25'
p554
sg12
S'i24'
p555
sg13
Nsg14
(lp556
(i__main__
Token
p557
(dp558
g18
I86
sbasg23
I86
sba(i__main__
Mention
p559
(dp560
g7
S't8'
p561
sg9
S'Coreference-Noun-Noun'
p562
sg10
S'i44'
p563
sg12
S'i25'
p564
sg13
Nsg14
(lp565
(i__main__
Token
p566
(dp567
g18
I159
sba(i__main__
Token
p568
(dp569
g18
I160
sbasg23
I160
sba(i__main__
Mention
p570
(dp571
g7
S't8'
p572
sg9
S'Coreference-NounComplement'
p573
sg10
S'i45'
p574
sg12
S'i104'
p575
sg13
Nsg14
(lp576
(i__main__
Token
p577
(dp578
g18
I161
sba(i__main__
Token
p579
(dp580
g18
I162
sba(i__main__
Token
p581
(dp582
g18
I163
sbasg23
I163
sbasg7
g523
sg78
Nsba(i__main__
Chain
p583
(dp584
g3
(lp585
(i__main__
Mention
p586
(dp587
g7
S't9'
p588
sg9
Nsg10
S'i23'
p589
sg12
Nsg13
Nsg14
(lp590
(i__main__
Token
p591
(dp592
g18
I78
sbasg23
I78
sba(i__main__
Mention
p593
(dp594
g7
S't9'
p595
sg9
S'Coreference-Identity'
p596
sg10
S'i28'
p597
sg12
S'i23'
p598
sg13
Nsg14
(lp599
(i__main__
Token
p600
(dp601
g18
I96
sbasg23
I96
sbasg7
g588
sg78
Nsba(i__main__
Chain
p602
(dp603
g3
(lp604
(i__main__
Mention
p605
(dp606
g7
S't10'
p607
sg9
Nsg10
S'i26'
p608
sg12
Nsg13
Nsg14
(lp609
(i__main__
Token
p610
(dp611
g18
I88
sbasg23
I88
sba(i__main__
Mention
p612
(dp613
g7
S't10'
p614
sg9
S'Coreference-NounComplement'
p615
sg10
S'i27'
p616
sg12
S'i26'
p617
sg13
Nsg14
(lp618
(i__main__
Token
p619
(dp620
g18
I89
sba(i__main__
Token
p621
(dp622
g18
I90
sba(i__main__
Token
p623
(dp624
g18
I91
sbasg23
I91
sbasg7
g607
sg78
Nsba(i__main__
Chain
p625
(dp626
g3
(lp627
(i__main__
Mention
p628
(dp629
g7
S't11'
p630
sg9
Nsg10
S'i29'
p631
sg12
Nsg13
Nsg14
(lp632
(i__main__
Token
p633
(dp634
g18
I104
sbasg23
I104
sba(i__main__
Mention
p635
(dp636
g7
S't11'
p637
sg9
S'Coreference-NounComplement'
p638
sg10
S'i30'
p639
sg12
S'i29'
p640
sg13
Nsg14
(lp641
(i__main__
Token
p642
(dp643
g18
I105
sba(i__main__
Token
p644
(dp645
g18
I106
sbasg23
I106
sba(i__main__
Mention
p646
(dp647
g7
S't11'
p648
sg9
Nsg10
S'i35'
p649
sg12
Nsg13
Nsg14
(lp650
(i__main__
Token
p651
(dp652
g18
I115
sbasg23
Nsba(i__main__
Mention
p653
(dp654
g7
S't11'
p655
sg9
S'Coreference-Noun-Noun'
p656
sg10
S'i36'
p657
sg12
S'i91'
p658
sg13
Nsg14
(lp659
(i__main__
Token
p660
(dp661
g18
I118
sbasg23
I118
sbasg7
g630
sg78
Nsba(i__main__
Chain
p662
(dp663
g3
(lp664
(i__main__
Mention
p665
(dp666
g7
S't12'
p667
sg9
Nsg10
S'i31'
p668
sg12
Nsg13
Nsg14
(lp669
(i__main__
Token
p670
(dp671
g18
I108
sbasg23
I108
sba(i__main__
Mention
p672
(dp673
g7
S't12'
p674
sg9
S'Coreference-NounComplement'
p675
sg10
S'i32'
p676
sg12
S'i31'
p677
sg13
Nsg14
(lp678
(i__main__
Token
p679
(dp680
g18
I109
sba(i__main__
Token
p681
(dp682
g18
I110
sbasg23
I110
sba(i__main__
Mention
p683
(dp684
g7
S't12'
p685
sg9
Nsg10
S'i34'
p686
sg12
Nsg13
Nsg14
(lp687
(i__main__
Token
p688
(dp689
g18
I115
sbasg23
Nsbasg7
g667
sg78
Nsba(i__main__
Chain
p690
(dp691
g3
(lp692
(i__main__
Mention
p693
(dp694
g7
S't13'
p695
sg9
Nsg10
S'i37'
p696
sg12
Nsg13
Nsg14
(lp697
(i__main__
Token
p698
(dp699
g18
I122
sba(i__main__
Token
p700
(dp701
g18
I123
sbasg23
I123
sba(i__main__
Mention
p702
(dp703
g7
S't13'
p704
sg9
S'Coreference-Identity'
p705
sg10
S'i39'
p706
sg12
S'i37'
p707
sg13
Nsg14
(lp708
(i__main__
Token
p709
(dp710
g18
I137
sbasg23
I137
sbasg7
g695
sg78
Nsba(i__main__
Chain
p711
(dp712
g3
(lp713
(i__main__
Mention
p714
(dp715
g7
S't14'
p716
sg9
Nsg10
S'i41'
p717
sg12
Nsg13
Nsg14
(lp718
(i__main__
Token
p719
(dp720
g18
I139
sba(i__main__
Token
p721
(dp722
g18
I140
sbasg23
I140
sba(i__main__
Mention
p723
(dp724
g7
S't14'
p725
sg9
S'Coreference-NounComplement'
p726
sg10
S'i42'
p727
sg12
S'i41'
p728
sg13
Nsg14
(lp729
(i__main__
Token
p730
(dp731
g18
I141
sba(i__main__
Token
p732
(dp733
g18
I142
sbasg23
I142
sba(i__main__
Mention
p734
(dp735
g7
S't14'
p736
sg9
S'Coreference-Identity'
p737
sg10
S'i49'
p738
sg12
S'i42'
p739
sg13
Nsg14
(lp740
(i__main__
Token
p741
(dp742
g18
I169
sba(i__main__
Token
p743
(dp744
g18
I170
sbasg23
I170
sba(i__main__
Mention
p745
(dp746
g7
S't14'
p747
sg9
S'Coreference-Noun-Noun'
p748
sg10
S'i58'
p749
sg12
S'i49'
p750
sg13
Nsg14
(lp751
(i__main__
Token
p752
(dp753
g18
I211
sba(i__main__
Token
p754
(dp755
g18
I212
sbasg23
I212
sba(i__main__
Mention
p756
(dp757
g7
S't14'
p758
sg9
S'Coreference-NounComplement'
p759
sg10
S'i59'
p760
sg12
S'i58'
p761
sg13
Nsg14
(lp762
(i__main__
Token
p763
(dp764
g18
I213
sba(i__main__
Token
p765
(dp766
g18
I214
sbasg23
I214
sbasg7
g716
sg78
Nsba(i__main__
Chain
p767
(dp768
g3
(lp769
(i__main__
Mention
p770
(dp771
g7
S't15'
p772
sg9
Nsg10
S'i47'
p773
sg12
Nsg13
Nsg14
(lp774
(i__main__
Token
p775
(dp776
g18
I165
sbasg23
I165
sba(i__main__
Mention
p777
(dp778
g7
S't15'
p779
sg9
S'Coreference-NounComplement'
p780
sg10
S'i48'
p781
sg12
S'i47'
p782
sg13
Nsg14
(lp783
(i__main__
Token
p784
(dp785
g18
I166
sba(i__main__
Token
p786
(dp787
g18
I167
sbasg23
I167
sbasg7
g772
sg78
Nsba(i__main__
Chain
p788
(dp789
g3
(lp790
(i__main__
Mention
p791
(dp792
g7
S't16'
p793
sg9
Nsg10
S'i52'
p794
sg12
Nsg13
Nsg14
(lp795
(i__main__
Token
p796
(dp797
g18
I183
sbasg23
I183
sba(i__main__
Mention
p798
(dp799
g7
S't16'
p800
sg9
S'Coreference-Identity'
p801
sg10
S'i65'
p802
sg12
S'i52'
p803
sg13
Nsg14
(lp804
(i__main__
Token
p805
(dp806
g18
I229
sbasg23
I229
sba(i__main__
Mention
p807
(dp808
g7
S't16'
p809
sg9
S'Coreference-Identity'
p810
sg10
S'i71'
p811
sg12
S'i65'
p812
sg13
Nsg14
(lp813
(i__main__
Token
p814
(dp815
g18
I253
sbasg23
I253
sba(i__main__
Mention
p816
(dp817
g7
S't16'
p818
sg9
S'Coreference-Identity'
p819
sg10
S'i74'
p820
sg12
S'i71'
p821
sg13
Nsg14
(lp822
(i__main__
Token
p823
(dp824
g18
I279
sbasg23
I279
sba(i__main__
Mention
p825
(dp826
g7
S't16'
p827
sg9
S'Coreference-Identity'
p828
sg10
S'i81'
p829
sg12
S'i74'
p830
sg13
Nsg14
(lp831
(i__main__
Token
p832
(dp833
g18
I308
sbasg23
I308
sbasg7
g793
sg78
Nsba(i__main__
Chain
p834
(dp835
g3
(lp836
(i__main__
Mention
p837
(dp838
g7
S't17'
p839
sg9
S'anaphora-?'
p840
sg10
S'i60'
p841
sg12
S'i60'
p842
sg13
Nsg14
(lp843
(i__main__
Token
p844
(dp845
g18
I221
sbasg23
I221
sbasg7
g839
sg78
Nsba(i__main__
Chain
p846
(dp847
g3
(lp848
(i__main__
Mention
p849
(dp850
g7
S't18'
p851
sg9
Nsg10
S'i62'
p852
sg12
Nsg13
Nsg14
(lp853
(i__main__
Token
p854
(dp855
g18
I223
sba(i__main__
Token
p856
(dp857
g18
I224
sbasg23
I224
sba(i__main__
Mention
p858
(dp859
g7
S't18'
p860
sg9
S'Anaphora-T'
p861
sg10
S'i66'
p862
sg12
S'i62'
p863
sg13
Nsg14
(lp864
(i__main__
Token
p865
(dp866
g18
I233
sbasg23
I233
sbasg7
g851
sg78
Nsba(i__main__
Chain
p867
(dp868
g3
(lp869
(i__main__
Mention
p870
(dp871
g7
S't19'
p872
sg9
Nsg10
S'i68'
p873
sg12
Nsg13
Nsg14
(lp874
(i__main__
Token
p875
(dp876
g18
I236
sba(i__main__
Token
p877
(dp878
g18
I237
sbasg23
I237
sba(i__main__
Mention
p879
(dp880
g7
S't19'
p881
sg9
S'Coreference-NounComplement'
p882
sg10
S'i69'
p883
sg12
S'i68'
p884
sg13
Nsg14
(lp885
(i__main__
Token
p886
(dp887
g18
I238
sba(i__main__
Token
p888
(dp889
g18
I239
sba(i__main__
Token
p890
(dp891
g18
I240
sbasg23
I240
sbasg7
g872
sg78
Nsba(i__main__
Chain
p892
(dp893
g3
(lp894
(i__main__
Mention
p895
(dp896
g7
S't20'
p897
sg9
Nsg10
S'i70'
p898
sg12
Nsg13
Nsg14
(lp899
(i__main__
Token
p900
(dp901
g18
I242
sba(i__main__
Token
p902
(dp903
g18
I243
sba(i__main__
Token
p904
(dp905
g18
I244
sbasg23
I244
sba(i__main__
Mention
p906
(dp907
g7
S't20'
p908
sg9
S'Coreference-Identity'
p909
sg10
S'i72'
p910
sg12
S'i70'
p911
sg13
Nsg14
(lp912
(i__main__
Token
p913
(dp914
g18
I256
sbasg23
I256
sbasg7
g897
sg78
Nsba(i__main__
Chain
p915
(dp916
g3
(lp917
(i__main__
Mention
p918
(dp919
g7
S't21'
p920
sg9
Nsg10
S'i77'
p921
sg12
Nsg13
Nsg14
(lp922
(i__main__
Token
p923
(dp924
g18
I285
sbasg23
I285
sba(i__main__
Mention
p925
(dp926
g7
S't21'
p927
sg9
Nsg10
S'i80'
p928
sg12
Nsg13
Nsg14
(lp929
(i__main__
Token
p930
(dp931
g18
I294
sba(i__main__
Token
p932
(dp933
g18
I295
sbasg23
Nsba(i__main__
Mention
p934
(dp935
g7
S't21'
p936
sg9
Nsg10
S'i96'
p937
sg12
Nsg13
Nsg14
(lp938
(i__main__
Token
p939
(dp940
g18
I366
sba(i__main__
Token
p941
(dp942
g18
I367
sbasg23
Nsbasg7
g920
sg78
Nsba(i__main__
Chain
p943
(dp944
g3
(lp945
(i__main__
Mention
p946
(dp947
g7
S't22'
p948
sg9
Nsg10
S'i84'
p949
sg12
Nsg13
Nsg14
(lp950
(i__main__
Token
p951
(dp952
g18
I320
sba(i__main__
Token
p953
(dp954
g18
I321
sbasg23
I321
sba(i__main__
Mention
p955
(dp956
g7
S't22'
p957
sg9
S'Coreference-Identity'
p958
sg10
S'i89'
p959
sg12
S'i84'
p960
sg13
Nsg14
(lp961
(i__main__
Token
p962
(dp963
g18
I344
sba(i__main__
Token
p964
(dp965
g18
I345
sbasg23
I345
sbasg7
g948
sg78
Nsba(i__main__
Chain
p966
(dp967
g3
(lp968
(i__main__
Mention
p969
(dp970
g7
S't23'
p971
sg9
Nsg10
S'i85'
p972
sg12
Nsg13
Nsg14
(lp973
(i__main__
Token
p974
(dp975
g18
I332
sba(i__main__
Token
p976
(dp977
g18
I333
sbasg23
I333
sba(i__main__
Mention
p978
(dp979
g7
S't23'
p980
sg9
S'Coreference-Identity'
p981
sg10
S'i91'
p982
sg12
S'i85'
p983
sg13
Nsg14
(lp984
(i__main__
Token
p985
(dp986
g18
I351
sbasg23
I351
sbasg7
g971
sg78
Nsba(i__main__
Chain
p987
(dp988
g3
(lp989
(i__main__
Mention
p990
(dp991
g7
S't24'
p992
sg9
S'anaphora-?'
p993
sg10
S'i86'
p994
sg12
S'i86'
p995
sg13
Nsg14
(lp996
(i__main__
Token
p997
(dp998
g18
I335
sbasg23
I335
sbasg7
g992
sg78
Nsba(i__main__
Chain
p999
(dp1000
g3
(lp1001
(i__main__
Mention
p1002
(dp1003
g7
S't25'
p1004
sg9
Nsg10
S'i98'
p1005
sg12
Nsg13
Nsg14
(lp1006
(i__main__
Token
p1007
(dp1008
g18
I377
sba(i__main__
Token
p1009
(dp1010
g18
I378
sba(i__main__
Token
p1011
(dp1012
g18
I379
sba(i__main__
Token
p1013
(dp1014
g18
I380
sba(i__main__
Token
p1015
(dp1016
g18
I381
sba(i__main__
Token
p1017
(dp1018
g18
I382
sba(i__main__
Token
p1019
(dp1020
g18
I383
sba(i__main__
Token
p1021
(dp1022
g18
I384
sba(i__main__
Token
p1023
(dp1024
g18
I385
sba(i__main__
Token
p1025
(dp1026
g18
I386
sba(i__main__
Token
p1027
(dp1028
g18
I387
sba(i__main__
Token
p1029
(dp1030
g18
I388
sba(i__main__
Token
p1031
(dp1032
g18
I389
sba(i__main__
Token
p1033
(dp1034
g18
I390
sba(i__main__
Token
p1035
(dp1036
g18
I391
sba(i__main__
Token
p1037
(dp1038
g18
I392
sba(i__main__
Token
p1039
(dp1040
g18
I393
sba(i__main__
Token
p1041
(dp1042
g18
I394
sba(i__main__
Token
p1043
(dp1044
g18
I395
sba(i__main__
Token
p1045
(dp1046
g18
I396
sba(i__main__
Token
p1047
(dp1048
g18
I397
sbasg23
I397
sba(i__main__
Mention
p1049
(dp1050
g7
S't25'
p1051
sg9
S'Anaphora-E'
p1052
sg10
S'i100'
p1053
sg12
S'i98'
p1054
sg13
Nsg14
(lp1055
(i__main__
Token
p1056
(dp1057
g18
I399
sbasg23
I399
sbasg7
g1004
sg78
Nsba.