(lp0
(i__main__
Chain
p1
(dp2
S'mentionList'
p3
(lp4
(i__main__
Mention
p5
(dp6
S'chainId'
p7
S't1'
p8
sS'relType'
p9
NsS'mentionId'
p10
S'i1'
p11
sS'antecedentId'
p12
NsS'crefMod'
p13
NsS'tokenList'
p14
(lp15
(i__main__
Token
p16
(dp17
S'tokenId'
p18
I0
sba(i__main__
Token
p19
(dp20
g18
I1
sbasS'mentionHead'
p21
I1
sba(i__main__
Mention
p22
(dp23
g7
S't1'
p24
sg9
S'Coreference-Identity'
p25
sg10
S'i32'
p26
sg12
S'i60'
p27
sg13
Nsg14
(lp28
(i__main__
Token
p29
(dp30
g18
I216
sba(i__main__
Token
p31
(dp32
g18
I217
sbasg21
I217
sba(i__main__
Mention
p33
(dp34
g7
S't1'
p35
sg9
S'Coreference-Identity'
p36
sg10
S'i47'
p37
sg12
S'i32'
p38
sg13
Nsg14
(lp39
(i__main__
Token
p40
(dp41
g18
I295
sbasg21
I295
sba(i__main__
Mention
p42
(dp43
g7
S't1'
p44
sg9
S'Coreference-Identity'
p45
sg10
S'i48'
p46
sg12
S'i47'
p47
sg13
Nsg14
(lp48
(i__main__
Token
p49
(dp50
g18
I299
sbasg21
I299
sbasg7
g8
sS'chainHead'
p51
Nsba(i__main__
Chain
p52
(dp53
g3
(lp54
(i__main__
Mention
p55
(dp56
g7
S't2'
p57
sg9
Nsg10
S'i2'
p58
sg12
Nsg13
Nsg14
(lp59
(i__main__
Token
p60
(dp61
g18
I6
sba(i__main__
Token
p62
(dp63
g18
I7
sbasg21
I7
sba(i__main__
Mention
p64
(dp65
g7
S't2'
p66
sg9
S'Coreference-Identity'
p67
sg10
S'i8'
p68
sg12
S'i2'
p69
sg13
Nsg14
(lp70
(i__main__
Token
p71
(dp72
g18
I37
sbasg21
I37
sba(i__main__
Mention
p73
(dp74
g7
S't2'
p75
sg9
S'Coreference-Identity'
p76
sg10
S'i13'
p77
sg12
S'i8'
p78
sg13
Nsg14
(lp79
(i__main__
Token
p80
(dp81
g18
I83
sbasg21
I83
sba(i__main__
Mention
p82
(dp83
g7
S't2'
p84
sg9
S'Coreference-Identity'
p85
sg10
S'i28'
p86
sg12
S'i13'
p87
sg13
Nsg14
(lp88
(i__main__
Token
p89
(dp90
g18
I190
sbasg21
I190
sba(i__main__
Mention
p91
(dp92
g7
S't2'
p93
sg9
S'Coreference-Identity'
p94
sg10
S'i38'
p95
sg12
S'i28'
p96
sg13
Nsg14
(lp97
(i__main__
Token
p98
(dp99
g18
I267
sbasg21
I267
sba(i__main__
Mention
p100
(dp101
g7
S't2'
p102
sg9
S'Coreference-Identity'
p103
sg10
S'i56'
p104
sg12
S'i38'
p105
sg13
Nsg14
(lp106
(i__main__
Token
p107
(dp108
g18
I326
sbasg21
I326
sbasg7
g57
sg51
Nsba(i__main__
Chain
p109
(dp110
g3
(lp111
(i__main__
Mention
p112
(dp113
g7
S't3'
p114
sg9
Nsg10
S'i3'
p115
sg12
Nsg13
Nsg14
(lp116
(i__main__
Token
p117
(dp118
g18
I9
sbasg21
I9
sba(i__main__
Mention
p119
(dp120
g7
S't3'
p121
sg9
S'Coreference-Noun-Noun'
p122
sg10
S'i7'
p123
sg12
S'i3'
p124
sg13
Nsg14
(lp125
(i__main__
Token
p126
(dp127
g18
I34
sba(i__main__
Token
p128
(dp129
g18
I35
sbasg21
I35
sba(i__main__
Mention
p130
(dp131
g7
S't3'
p132
sg9
S'Coreference-Noun-Noun'
p133
sg10
S'i15'
p134
sg12
S'i7'
p135
sg13
Nsg14
(lp136
(i__main__
Token
p137
(dp138
g18
I98
sbasg21
I98
sba(i__main__
Mention
p139
(dp140
g7
S't3'
p141
sg9
S'Coreference-Identity'
p142
sg10
S'i34'
p143
sg12
S'i15'
p144
sg13
Nsg14
(lp145
(i__main__
Token
p146
(dp147
g18
I228
sbasg21
I228
sba(i__main__
Mention
p148
(dp149
g7
S't3'
p150
sg9
S'Coreference-Identity'
p151
sg10
S'i71'
p152
sg12
S'i34'
p153
sg13
Nsg14
(lp154
(i__main__
Token
p155
(dp156
g18
I461
sbasg21
I461
sbasg7
g114
sg51
Nsba(i__main__
Chain
p157
(dp158
g3
(lp159
(i__main__
Mention
p160
(dp161
g7
S't4'
p162
sg9
Nsg10
S'i4'
p163
sg12
Nsg13
Nsg14
(lp164
(i__main__
Token
p165
(dp166
g18
I17
sba(i__main__
Token
p167
(dp168
g18
I18
sbasg21
I18
sba(i__main__
Mention
p169
(dp170
g7
S't4'
p171
sg9
S'Anaphora-C'
p172
sg10
S'i6'
p173
sg12
S'i4'
p174
sg13
Nsg14
(lp175
(i__main__
Token
p176
(dp177
g18
I23
sbasg21
I23
sbasg7
g162
sg51
Nsba(i__main__
Chain
p178
(dp179
g3
(lp180
(i__main__
Mention
p181
(dp182
g7
S't5'
p183
sg9
S'anaphora-?'
p184
sg10
S'i5'
p185
sg12
S'i5'
p186
sg13
Nsg14
(lp187
(i__main__
Token
p188
(dp189
g18
I19
sbasg21
I19
sbasg7
g183
sg51
Nsba(i__main__
Chain
p190
(dp191
g3
(lp192
(i__main__
Mention
p193
(dp194
g7
S't6'
p195
sg9
S'anaphora-?'
p196
sg10
S'i9'
p197
sg12
S'i9'
p198
sg13
Nsg14
(lp199
(i__main__
Token
p200
(dp201
g18
I54
sbasg21
I54
sbasg7
g195
sg51
Nsba(i__main__
Chain
p202
(dp203
g3
(lp204
(i__main__
Mention
p205
(dp206
g7
S't7'
p207
sg9
Nsg10
S'i10'
p208
sg12
Nsg13
Nsg14
(lp209
(i__main__
Token
p210
(dp211
g18
I61
sbasg21
I61
sba(i__main__
Mention
p212
(dp213
g7
S't7'
p214
sg9
S'Coreference-Identity'
p215
sg10
S'i49'
p216
sg12
S'i10'
p217
sg13
Nsg14
(lp218
(i__main__
Token
p219
(dp220
g18
I305
sbasg21
I305
sba(i__main__
Mention
p221
(dp222
g7
S't7'
p223
sg9
S'Coreference-Identity'
p224
sg10
S'i58'
p225
sg12
S'i49'
p226
sg13
Nsg14
(lp227
(i__main__
Token
p228
(dp229
g18
I379
sbasg21
I379
sbasg7
g207
sg51
Nsba(i__main__
Chain
p230
(dp231
g3
(lp232
(i__main__
Mention
p233
(dp234
g7
S't8'
p235
sg9
Nsg10
S'i11'
p236
sg12
Nsg13
Nsg14
(lp237
(i__main__
Token
p238
(dp239
g18
I63
sba(i__main__
Token
p240
(dp241
g18
I64
sbasg21
I64
sba(i__main__
Mention
p242
(dp243
g7
S't8'
p244
sg9
S'Coreference-Identity'
p245
sg10
S'i50'
p246
sg12
S'i11'
p247
sg13
Nsg14
(lp248
(i__main__
Token
p249
(dp250
g18
I307
sbasg21
I307
sba(i__main__
Mention
p251
(dp252
g7
S't8'
p253
sg9
S'Coreference-NounComplement'
p254
sg10
S'i51'
p255
sg12
S'i50'
p256
sg13
Nsg14
(lp257
(i__main__
Token
p258
(dp259
g18
I308
sbasg21
I308
sba(i__main__
Mention
p260
(dp261
g7
S't8'
p262
sg9
S'Anaphora-C'
p263
sg10
S'i52'
p264
sg12
S'i51'
p265
sg13
Nsg14
(lp266
(i__main__
Token
p267
(dp268
g18
I311
sbasg21
I311
sba(i__main__
Mention
p269
(dp270
g7
S't8'
p271
sg9
S'Anaphora-C'
p272
sg10
S'i54'
p273
sg12
S'i52'
p274
sg13
Nsg14
(lp275
(i__main__
Token
p276
(dp277
g18
I319
sbasg21
I319
sbasg7
g235
sg51
Nsba(i__main__
Chain
p278
(dp279
g3
(lp280
(i__main__
Mention
p281
(dp282
g7
S't9'
p283
sg9
Nsg10
S'i12'
p284
sg12
Nsg13
Nsg14
(lp285
(i__main__
Token
p286
(dp287
g18
I68
sba(i__main__
Token
p288
(dp289
g18
I69
sbasg21
I69
sba(i__main__
Mention
p290
(dp291
g7
S't9'
p292
sg9
S'Coreference-Identity'
p293
sg10
S'i55'
p294
sg12
S'i12'
p295
sg13
Nsg14
(lp296
(i__main__
Token
p297
(dp298
g18
I324
sbasg21
I324
sbasg7
g283
sg51
Nsba(i__main__
Chain
p299
(dp300
g3
(lp301
(i__main__
Mention
p302
(dp303
g7
S't10'
p304
sg9
Nsg10
S'i14'
p305
sg12
Nsg13
Nsg14
(lp306
(i__main__
Token
p307
(dp308
g18
I91
sbasg21
I91
sba(i__main__
Mention
p309
(dp310
g7
S't10'
p311
sg9
S'Coreference-Identity'
p312
sg10
S'i57'
p313
sg12
S'i14'
p314
sg13
Nsg14
(lp315
(i__main__
Token
p316
(dp317
g18
I338
sbasg21
I338
sbasg7
g304
sg51
Nsba(i__main__
Chain
p318
(dp319
g3
(lp320
(i__main__
Mention
p321
(dp322
g7
S't11'
p323
sg9
Nsg10
S'i16'
p324
sg12
Nsg13
Nsg14
(lp325
(i__main__
Token
p326
(dp327
g18
I107
sba(i__main__
Token
p328
(dp329
g18
I108
sbasg21
I108
sba(i__main__
Mention
p330
(dp331
g7
S't11'
p332
sg9
S'Coreference-Identity'
p333
sg10
S'i17'
p334
sg12
S'i16'
p335
sg13
Nsg14
(lp336
(i__main__
Token
p337
(dp338
g18
I116
sbasg21
I116
sba(i__main__
Mention
p339
(dp340
g7
S't11'
p341
sg9
S'Coreference-Identity'
p342
sg10
S'i74'
p343
sg12
S'i17'
p344
sg13
Nsg14
(lp345
(i__main__
Token
p346
(dp347
g18
I472
sbasg21
I472
sbasg7
g323
sg51
Nsba(i__main__
Chain
p348
(dp349
g3
(lp350
(i__main__
Mention
p351
(dp352
g7
S't12'
p353
sg9
Nsg10
S'i18'
p354
sg12
Nsg13
Nsg14
(lp355
(i__main__
Token
p356
(dp357
g18
I128
sbasg21
I128
sba(i__main__
Mention
p358
(dp359
g7
S't12'
p360
sg9
S'Coreference-Identity'
p361
sg10
S'i22'
p362
sg12
S'i13'
p363
sg13
Nsg14
(lp364
(i__main__
Token
p365
(dp366
g18
I157
sba(i__main__
Token
p367
(dp368
g18
I158
sbasg21
I158
sba(i__main__
Mention
p369
(dp370
g7
S't12'
p371
sg9
S'Coreference-Identity'
p372
sg10
S'i25'
p373
sg12
S'i62'
p374
sg13
Nsg14
(lp375
(i__main__
Token
p376
(dp377
g18
I172
sbasg21
I172
sba(i__main__
Mention
p378
(dp379
g7
S't12'
p380
sg9
S'Coreference-Identity'
p381
sg10
S'i29'
p382
sg12
S'i25'
p383
sg13
Nsg14
(lp384
(i__main__
Token
p385
(dp386
g18
I197
sbasg21
I197
sba(i__main__
Mention
p387
(dp388
g7
S't12'
p389
sg9
S'Coreference-Identity'
p390
sg10
S'i42'
p391
sg12
S'i15'
p392
sg13
Nsg14
(lp393
(i__main__
Token
p394
(dp395
g18
I285
sba(i__main__
Token
p396
(dp397
g18
I286
sbasg21
I286
sba(i__main__
Mention
p398
(dp399
g7
S't12'
p400
sg9
S'Anaphora-C'
p401
sg10
S'i45'
p402
sg12
S'i42'
p403
sg13
Nsg14
(lp404
(i__main__
Token
p405
(dp406
g18
I293
sbasg21
I293
sba(i__main__
Mention
p407
(dp408
g7
S't12'
p409
sg9
S'Coreference-Identity'
p410
sg10
S'i60'
p411
sg12
S'i64'
p412
sg13
Nsg14
(lp413
(i__main__
Token
p414
(dp415
g18
I398
sbasg21
I398
sbasg7
g353
sg51
Nsba(i__main__
Chain
p416
(dp417
g3
(lp418
(i__main__
Mention
p419
(dp420
g7
S't13'
p421
sg9
Nsg10
S'i19'
p422
sg12
Nsg13
Nsg14
(lp423
(i__main__
Token
p424
(dp425
g18
I130
sba(i__main__
Token
p426
(dp427
g18
I131
sbasg21
I131
sba(i__main__
Mention
p428
(dp429
g7
S't13'
p430
sg9
S'Coreference-Identity'
p431
sg10
S'i20'
p432
sg12
S'i65'
p433
sg13
Nsg14
(lp434
(i__main__
Token
p435
(dp436
g18
I137
sbasg21
I137
sba(i__main__
Mention
p437
(dp438
g7
S't13'
p439
sg9
S'Coreference-Identity'
p440
sg10
S'i30'
p441
sg12
S'i36'
p442
sg13
Nsg14
(lp443
(i__main__
Token
p444
(dp445
g18
I202
sba(i__main__
Token
p446
(dp447
g18
I203
sbasg21
I203
sbasg7
g421
sg51
Nsba(i__main__
Chain
p448
(dp449
g3
(lp450
(i__main__
Mention
p451
(dp452
g7
S't14'
p453
sg9
Nsg10
S'i24'
p454
sg12
Nsg13
Nsg14
(lp455
(i__main__
Token
p456
(dp457
g18
I169
sba(i__main__
Token
p458
(dp459
g18
I170
sba(i__main__
Token
p460
(dp461
g18
I171
sbasg21
I171
sba(i__main__
Mention
p462
(dp463
g7
S't14'
p464
sg9
S'Coreference-Identity'
p465
sg10
S'i27'
p466
sg12
S'i24'
p467
sg13
Nsg14
(lp468
(i__main__
Token
p469
(dp470
g18
I181
sba(i__main__
Token
p471
(dp472
g18
I182
sbasg21
I182
sbasg7
g453
sg51
Nsba(i__main__
Chain
p473
(dp474
g3
(lp475
(i__main__
Mention
p476
(dp477
g7
S't15'
p478
sg9
Nsg10
S'i35'
p479
sg12
Nsg13
Nsg14
(lp480
(i__main__
Token
p481
(dp482
g18
I253
sba(i__main__
Token
p483
(dp484
g18
I254
sba(i__main__
Token
p485
(dp486
g18
I255
sbasg21
I255
sba(i__main__
Mention
p487
(dp488
g7
S't15'
p489
sg9
S'Coreference-NounComplement'
p490
sg10
S'i36'
p491
sg12
S'i35'
p492
sg13
Nsg14
(lp493
(i__main__
Token
p494
(dp495
g18
I256
sba(i__main__
Token
p496
(dp497
g18
I257
sba(i__main__
Token
p498
(dp499
g18
I258
sbasg21
I258
sba(i__main__
Mention
p500
(dp501
g7
S't15'
p502
sg9
S'Coreference-Noun-Noun'
p503
sg10
S'i68'
p504
sg12
S'i36'
p505
sg13
Nsg14
(lp506
(i__main__
Token
p507
(dp508
g18
I451
sba(i__main__
Token
p509
(dp510
g18
I452
sba(i__main__
Token
p511
(dp512
g18
I453
sbasg21
I453
sba(i__main__
Mention
p513
(dp514
g7
S't15'
p515
sg9
S'Coreference-NounComplement'
p516
sg10
S'i69'
p517
sg12
S'i68'
p518
sg13
Nsg14
(lp519
(i__main__
Token
p520
(dp521
g18
I454
sbasg21
I454
sbasg7
g478
sg51
Nsba(i__main__
Chain
p522
(dp523
g3
(lp524
(i__main__
Mention
p525
(dp526
g7
S't16'
p527
sg9
Nsg10
S'i37'
p528
sg12
Nsg13
Nsg14
(lp529
(i__main__
Token
p530
(dp531
g18
I262
sba(i__main__
Token
p532
(dp533
g18
I263
sbasg21
I263
sba(i__main__
Mention
p534
(dp535
g7
S't16'
p536
sg9
S'Coreference-Identity'
p537
sg10
S'i70'
p538
sg12
S'i37'
p539
sg13
Nsg14
(lp540
(i__main__
Token
p541
(dp542
g18
I456
sba(i__main__
Token
p543
(dp544
g18
I457
sbasg21
I457
sbasg7
g527
sg51
Nsba(i__main__
Chain
p545
(dp546
g3
(lp547
(i__main__
Mention
p548
(dp549
g7
S't17'
p550
sg9
S'anaphora-?'
p551
sg10
S'i39'
p552
sg12
S'i39'
p553
sg13
Nsg14
(lp554
(i__main__
Token
p555
(dp556
g18
I273
sbasg21
I273
sbasg7
g550
sg51
Nsba(i__main__
Chain
p557
(dp558
g3
(lp559
(i__main__
Mention
p560
(dp561
g7
S't18'
p562
sg9
S'anaphora-?'
p563
sg10
S'i40'
p564
sg12
S'i40'
p565
sg13
Nsg14
(lp566
(i__main__
Token
p567
(dp568
g18
I278
sbasg21
I278
sbasg7
g562
sg51
Nsba(i__main__
Chain
p569
(dp570
g3
(lp571
(i__main__
Mention
p572
(dp573
g7
S't19'
p574
sg9
Nsg10
S'i41'
p575
sg12
Nsg13
Nsg14
(lp576
(i__main__
Token
p577
(dp578
g18
I279
sbasg21
I279
sba(i__main__
Mention
p579
(dp580
g7
S't19'
p581
sg9
S'Anaphora-RE'
p582
sg10
S'i43'
p583
sg12
S'i41'
p584
sg13
Nsg14
(lp585
(i__main__
Token
p586
(dp587
g18
I285
sba(i__main__
Token
p588
(dp589
g18
I286
sba(i__main__
Token
p590
(dp591
g18
I287
sba(i__main__
Token
p592
(dp593
g18
I288
sba(i__main__
Token
p594
(dp595
g18
I289
sba(i__main__
Token
p596
(dp597
g18
I290
sba(i__main__
Token
p598
(dp599
g18
I291
sba(i__main__
Token
p600
(dp601
g18
I292
sba(i__main__
Token
p602
(dp603
g18
I293
sba(i__main__
Token
p604
(dp605
g18
I294
sba(i__main__
Token
p606
(dp607
g18
I295
sba(i__main__
Token
p608
(dp609
g18
I296
sba(i__main__
Token
p610
(dp611
g18
I297
sbasg21
I297
sbasg7
g574
sg51
Nsba(i__main__
Chain
p612
(dp613
g3
(lp614
(i__main__
Mention
p615
(dp616
g7
S't20'
p617
sg9
S'anaphora-?'
p618
sg10
S'i53'
p619
sg12
S'i53'
p620
sg13
Nsg14
(lp621
(i__main__
Token
p622
(dp623
g18
I313
sbasg21
I313
sbasg7
g617
sg51
Nsba(i__main__
Chain
p624
(dp625
g3
(lp626
(i__main__
Mention
p627
(dp628
g7
S't21'
p629
sg9
Nsg10
S'i59'
p630
sg12
Nsg13
Nsg14
(lp631
(i__main__
Token
p632
(dp633
g18
I381
sbasg21
I381
sba(i__main__
Mention
p634
(dp635
g7
S't21'
p636
sg9
S'Coreference-Noun-Noun'
p637
sg10
S'i63'
p638
sg12
S'i59'
p639
sg13
Nsg14
(lp640
(i__main__
Token
p641
(dp642
g18
I408
sba(i__main__
Token
p643
(dp644
g18
I409
sbasg21
I409
sbasg7
g629
sg51
Nsba(i__main__
Chain
p645
(dp646
g3
(lp647
(i__main__
Mention
p648
(dp649
g7
S't22'
p650
sg9
S'anaphora-?'
p651
sg10
S'i62'
p652
sg12
S'i62'
p653
sg13
Nsg14
(lp654
(i__main__
Token
p655
(dp656
g18
I401
sbasg21
I401
sbasg7
g650
sg51
Nsba(i__main__
Chain
p657
(dp658
g3
(lp659
(i__main__
Mention
p660
(dp661
g7
S't23'
p662
sg9
Nsg10
S'i64'
p663
sg12
Nsg13
Nsg14
(lp664
(i__main__
Token
p665
(dp666
g18
I411
sbasg21
I411
sba(i__main__
Mention
p667
(dp668
g7
S't23'
p669
sg9
S'Anaphora-C'
p670
sg10
S'i65'
p671
sg12
S'i64'
p672
sg13
Nsg14
(lp673
(i__main__
Token
p674
(dp675
g18
I417
sbasg21
I417
sbasg7
g662
sg51
Nsba(i__main__
Chain
p676
(dp677
g3
(lp678
(i__main__
Mention
p679
(dp680
g7
S't24'
p681
sg9
S'anaphora-?'
p682
sg10
S'i67'
p683
sg12
S'i67'
p684
sg13
Nsg14
(lp685
(i__main__
Token
p686
(dp687
g18
I443
sbasg21
I443
sbasg7
g681
sg51
Nsba(i__main__
Chain
p688
(dp689
g3
(lp690
(i__main__
Mention
p691
(dp692
g7
S't25'
p693
sg9
Nsg10
S'i72'
p694
sg12
Nsg13
Nsg14
(lp695
(i__main__
Token
p696
(dp697
g18
I464
sba(i__main__
Token
p698
(dp699
g18
I465
sbasg21
I465
sba(i__main__
Mention
p700
(dp701
g7
S't25'
p702
sg9
S'Anaphora-C'
p703
sg10
S'i73'
p704
sg12
S'i72'
p705
sg13
Nsg14
(lp706
(i__main__
Token
p707
(dp708
g18
I471
sbasg21
I471
sbasg7
g693
sg51
Nsba.