(lp0
(i__main__
Chain
p1
(dp2
S'mentionList'
p3
(lp4
(i__main__
Mention
p5
(dp6
S'chainId'
p7
S't1'
p8
sS'relType'
p9
NsS'mentionId'
p10
S'i1'
p11
sS'antecedentId'
p12
NsS'crefMod'
p13
NsS'tokenList'
p14
(lp15
(i__main__
Token
p16
(dp17
S'tokenId'
p18
I0
sbasS'mentionHead'
p19
I0
sba(i__main__
Mention
p20
(dp21
g7
S't1'
p22
sg9
S'Coreference-Identity'
p23
sg10
S'i2'
p24
sg12
S'i1'
p25
sg13
Nsg14
(lp26
(i__main__
Token
p27
(dp28
g18
I34
sbasg19
I34
sbasg7
g8
sS'chainHead'
p29
Nsba(i__main__
Chain
p30
(dp31
g3
(lp32
(i__main__
Mention
p33
(dp34
g7
S't2'
p35
sg9
Nsg10
S'i3'
p36
sg12
Nsg13
Nsg14
(lp37
(i__main__
Token
p38
(dp39
g18
I76
sbasg19
I76
sba(i__main__
Mention
p40
(dp41
g7
S't2'
p42
sg9
S'Anaphora-C'
p43
sg10
S'i4'
p44
sg12
S'i3'
p45
sg13
Nsg14
(lp46
(i__main__
Token
p47
(dp48
g18
I77
sbasg19
I77
sbasg7
g35
sg29
Nsba(i__main__
Chain
p49
(dp50
g3
(lp51
(i__main__
Mention
p52
(dp53
g7
S't3'
p54
sg9
Nsg10
S'i5'
p55
sg12
Nsg13
Nsg14
(lp56
(i__main__
Token
p57
(dp58
g18
I84
sbasg19
I84
sba(i__main__
Mention
p59
(dp60
g7
S't3'
p61
sg9
S'Anaphora-C'
p62
sg10
S'i8'
p63
sg12
S'i5'
p64
sg13
Nsg14
(lp65
(i__main__
Token
p66
(dp67
g18
I102
sbasg19
I102
sba(i__main__
Mention
p68
(dp69
g7
S't3'
p70
sg9
S'Coreference-Identity'
p71
sg10
S'i9'
p72
sg12
S'i8'
p73
sg13
Nsg14
(lp74
(i__main__
Token
p75
(dp76
g18
I116
sbasg19
I116
sbasg7
g54
sg29
Nsba(i__main__
Chain
p77
(dp78
g3
(lp79
(i__main__
Mention
p80
(dp81
g7
S't4'
p82
sg9
Nsg10
S'i6'
p83
sg12
Nsg13
Nsg14
(lp84
(i__main__
Token
p85
(dp86
g18
I86
sba(i__main__
Token
p87
(dp88
g18
I87
sba(i__main__
Token
p89
(dp90
g18
I88
sba(i__main__
Token
p91
(dp92
g18
I89
sba(i__main__
Token
p93
(dp94
g18
I90
sba(i__main__
Token
p95
(dp96
g18
I91
sba(i__main__
Token
p97
(dp98
g18
I92
sba(i__main__
Token
p99
(dp100
g18
I93
sba(i__main__
Token
p101
(dp102
g18
I94
sba(i__main__
Token
p103
(dp104
g18
I95
sbasg19
I94
sba(i__main__
Mention
p105
(dp106
g7
S't4'
p107
sg9
S'Anaphora-E'
p108
sg10
S'i7'
p109
sg12
S'i6'
p110
sg13
Nsg14
(lp111
(i__main__
Token
p112
(dp113
g18
I96
sbasg19
I96
sbasg7
g82
sg29
Nsba(i__main__
Chain
p114
(dp115
g3
(lp116
(i__main__
Mention
p117
(dp118
g7
S't5'
p119
sg9
Nsg10
S'i10'
p120
sg12
Nsg13
Nsg14
(lp121
(i__main__
Token
p122
(dp123
g18
I157
sbasg19
I157
sba(i__main__
Mention
p124
(dp125
g7
S't5'
p126
sg9
S'Coreference-Identity'
p127
sg10
S'i12'
p128
sg12
S'i10'
p129
sg13
Nsg14
(lp130
(i__main__
Token
p131
(dp132
g18
I187
sbasg19
I187
sba(i__main__
Mention
p133
(dp134
g7
S't5'
p135
sg9
S'Coreference-Identity'
p136
sg10
S'i16'
p137
sg12
S'i12'
p138
sg13
Nsg14
(lp139
(i__main__
Token
p140
(dp141
g18
I215
sbasg19
I215
sba(i__main__
Mention
p142
(dp143
g7
S't5'
p144
sg9
S'Coreference-Identity'
p145
sg10
S'i19'
p146
sg12
S'i16'
p147
sg13
Nsg14
(lp148
(i__main__
Token
p149
(dp150
g18
I223
sbasg19
I223
sbasg7
g119
sg29
Nsba(i__main__
Chain
p151
(dp152
g3
(lp153
(i__main__
Mention
p154
(dp155
g7
S't6'
p156
sg9
Nsg10
S'i11'
p157
sg12
Nsg13
Nsg14
(lp158
(i__main__
Token
p159
(dp160
g18
I159
sbasg19
I159
sba(i__main__
Mention
p161
(dp162
g7
S't6'
p163
sg9
S'Coreference-Identity'
p164
sg10
S'i14'
p165
sg12
S'i11'
p166
sg13
Nsg14
(lp167
(i__main__
Token
p168
(dp169
g18
I189
sbasg19
I189
sbasg7
g156
sg29
Nsba(i__main__
Chain
p170
(dp171
g3
(lp172
(i__main__
Mention
p173
(dp174
g7
S't7'
p175
sg9
Nsg10
S'i13'
p176
sg12
Nsg13
Nsg14
(lp177
(i__main__
Token
p178
(dp179
g18
I187
sba(i__main__
Token
p180
(dp181
g18
I190
sba(i__main__
Token
p182
(dp183
g18
I191
sbasg19
I191
sba(i__main__
Mention
p184
(dp185
g7
S't7'
p186
sg9
S'Coreference-Identity'
p187
sg10
S'i17'
p188
sg12
S'i13'
p189
sg13
Nsg14
(lp190
(i__main__
Token
p191
(dp192
g18
I215
sba(i__main__
Token
p193
(dp194
g18
I216
sba(i__main__
Token
p195
(dp196
g18
I217
sbasg19
I217
sbasg7
g175
sg29
Nsba(i__main__
Chain
p197
(dp198
g3
(lp199
(i__main__
Mention
p200
(dp201
g7
S't8'
p202
sg9
Nsg10
S'i15'
p203
sg12
Nsg13
Nsg14
(lp204
(i__main__
Token
p205
(dp206
g18
I193
sbasg19
I193
sba(i__main__
Mention
p207
(dp208
g7
S't8'
p209
sg9
S'Coreference-Identity'
p210
sg10
S'i18'
p211
sg12
S'i15'
p212
sg13
Nsg14
(lp213
(i__main__
Token
p214
(dp215
g18
I219
sbasg19
I219
sbasg7
g202
sg29
Nsba.