(lp0
(i__main__
Chain
p1
(dp2
S'mentionList'
p3
(lp4
(i__main__
Mention
p5
(dp6
S'chainId'
p7
S't1'
p8
sS'relType'
p9
NsS'mentionId'
p10
S'i1'
p11
sS'antecedentId'
p12
NsS'crefMod'
p13
NsS'tokenList'
p14
(lp15
(i__main__
Token
p16
(dp17
S'tokenId'
p18
I0
sba(i__main__
Token
p19
(dp20
g18
I1
sbasS'mentionHead'
p21
I1
sba(i__main__
Mention
p22
(dp23
g7
S't1'
p24
sg9
S'Coreference-Identity'
p25
sg10
S'i15'
p26
sg12
S'i1'
p27
sg13
Nsg14
(lp28
(i__main__
Token
p29
(dp30
g18
I99
sbasg21
I99
sba(i__main__
Mention
p31
(dp32
g7
S't1'
p33
sg9
S'Coreference-Identity'
p34
sg10
S'i26'
p35
sg12
S'i15'
p36
sg13
Nsg14
(lp37
(i__main__
Token
p38
(dp39
g18
I145
sbasg21
I145
sbasg7
g8
sS'chainHead'
p40
Nsba(i__main__
Chain
p41
(dp42
g3
(lp43
(i__main__
Mention
p44
(dp45
g7
S't2'
p46
sg9
Nsg10
S'i2'
p47
sg12
Nsg13
Nsg14
(lp48
(i__main__
Token
p49
(dp50
g18
I3
sba(i__main__
Token
p51
(dp52
g18
I4
sba(i__main__
Token
p53
(dp54
g18
I5
sbasg21
I5
sba(i__main__
Mention
p55
(dp56
g7
S't2'
p57
sg9
S'Coreference-Identity'
p58
sg10
S'i10'
p59
sg12
S'i2'
p60
sg13
Nsg14
(lp61
(i__main__
Token
p62
(dp63
g18
I56
sba(i__main__
Token
p64
(dp65
g18
I57
sba(i__main__
Token
p66
(dp67
g18
I58
sbasg21
I58
sbasg7
g46
sg40
Nsba(i__main__
Chain
p68
(dp69
g3
(lp70
(i__main__
Mention
p71
(dp72
g7
S't3'
p73
sg9
Nsg10
S'i3'
p74
sg12
Nsg13
Nsg14
(lp75
(i__main__
Token
p76
(dp77
g18
I9
sba(i__main__
Token
p78
(dp79
g18
I10
sba(i__main__
Token
p80
(dp81
g18
I11
sbasg21
I11
sba(i__main__
Mention
p82
(dp83
g7
S't3'
p84
sg9
S'Coreference-Abbreviation'
p85
sg10
S'i4'
p86
sg12
S'i3'
p87
sg13
Nsg14
(lp88
(i__main__
Token
p89
(dp90
g18
I13
sbasg21
I13
sba(i__main__
Mention
p91
(dp92
g7
S't3'
p93
sg9
S'Coreference-Noun-Noun'
p94
sg10
S'i20'
p95
sg12
S'i4'
p96
sg13
Nsg14
(lp97
(i__main__
Token
p98
(dp99
g18
I126
sba(i__main__
Token
p100
(dp101
g18
I127
sba(i__main__
Token
p102
(dp103
g18
I128
sbasg21
I128
sbasg7
g73
sg40
Nsba(i__main__
Chain
p104
(dp105
g3
(lp106
(i__main__
Mention
p107
(dp108
g7
S't4'
p109
sg9
S'anaphora-?'
p110
sg10
S'i5'
p111
sg12
S'i5'
p112
sg13
Nsg14
(lp113
(i__main__
Token
p114
(dp115
g18
I28
sbasg21
I28
sba(i__main__
Mention
p116
(dp117
g7
S't4'
p118
sg9
S'Anaphora-RC'
p119
sg10
S'i7'
p120
sg12
S'i5'
p121
sg13
Nsg14
(lp122
(i__main__
Token
p123
(dp124
g18
I32
sba(i__main__
Token
p125
(dp126
g18
I33
sba(i__main__
Token
p127
(dp128
g18
I34
sba(i__main__
Token
p129
(dp130
g18
I35
sba(i__main__
Token
p131
(dp132
g18
I36
sba(i__main__
Token
p133
(dp134
g18
I37
sba(i__main__
Token
p135
(dp136
g18
I38
sba(i__main__
Token
p137
(dp138
g18
I39
sba(i__main__
Token
p139
(dp140
g18
I40
sba(i__main__
Token
p141
(dp142
g18
I41
sba(i__main__
Token
p143
(dp144
g18
I42
sba(i__main__
Token
p145
(dp146
g18
I43
sba(i__main__
Token
p147
(dp148
g18
I44
sba(i__main__
Token
p149
(dp150
g18
I45
sba(i__main__
Token
p151
(dp152
g18
I46
sba(i__main__
Token
p153
(dp154
g18
I47
sba(i__main__
Token
p155
(dp156
g18
I48
sba(i__main__
Token
p157
(dp158
g18
I49
sba(i__main__
Token
p159
(dp160
g18
I50
sba(i__main__
Token
p161
(dp162
g18
I51
sba(i__main__
Token
p163
(dp164
g18
I52
sba(i__main__
Token
p165
(dp166
g18
I53
sba(i__main__
Token
p167
(dp168
g18
I54
sbasg21
I52
sbasg7
g109
sg40
Nsba(i__main__
Chain
p169
(dp170
g3
(lp171
(i__main__
Mention
p172
(dp173
g7
S't5'
p174
sg9
Nsg10
S'i6'
p175
sg12
Nsg13
Nsg14
(lp176
(i__main__
Token
p177
(dp178
g18
I32
sba(i__main__
Token
p179
(dp180
g18
I33
sbasg21
I33
sba(i__main__
Mention
p181
(dp182
g7
S't5'
p183
sg9
S'Coreference-InferedRelation'
p184
sg10
S'i17'
p185
sg12
S'i6'
p186
sg13
Nsg14
(lp187
(i__main__
Token
p188
(dp189
g18
I106
sba(i__main__
Token
p190
(dp191
g18
I107
sbasg21
I107
sbasg7
g174
sg40
Nsba(i__main__
Chain
p192
(dp193
g3
(lp194
(i__main__
Mention
p195
(dp196
g7
S't6'
p197
sg9
Nsg10
S'i8'
p198
sg12
Nsg13
Nsg14
(lp199
(i__main__
Token
p200
(dp201
g18
I37
sba(i__main__
Token
p202
(dp203
g18
I38
sba(i__main__
Token
p204
(dp205
g18
I39
sbasg21
I39
sba(i__main__
Mention
p206
(dp207
g7
S't6'
p208
sg9
S'Anaphora-C'
p209
sg10
S'i9'
p210
sg12
S'i8'
p211
sg13
Nsg14
(lp212
(i__main__
Token
p213
(dp214
g18
I46
sbasg21
I46
sba(i__main__
Mention
p215
(dp216
g7
S't6'
p217
sg9
S'Coreference-Identity'
p218
sg10
S'i18'
p219
sg12
S'i9'
p220
sg13
Nsg14
(lp221
(i__main__
Token
p222
(dp223
g18
I113
sba(i__main__
Token
p224
(dp225
g18
I114
sbasg21
I114
sbasg7
g197
sg40
Nsba(i__main__
Chain
p226
(dp227
g3
(lp228
(i__main__
Mention
p229
(dp230
g7
S't7'
p231
sg9
Nsg10
S'i11'
p232
sg12
Nsg13
Nsg14
(lp233
(i__main__
Token
p234
(dp235
g18
I72
sba(i__main__
Token
p236
(dp237
g18
I73
sbasg21
I73
sba(i__main__
Mention
p238
(dp239
g7
S't7'
p240
sg9
S'Coreference-NounComplement'
p241
sg10
S'i12'
p242
sg12
S'i11'
p243
sg13
Nsg14
(lp244
(i__main__
Token
p245
(dp246
g18
I74
sba(i__main__
Token
p247
(dp248
g18
I75
sbasg21
I75
sba(i__main__
Mention
p249
(dp250
g7
S't7'
p251
sg9
S'Anaphora-C'
p252
sg10
S'i22'
p253
sg12
S'i12'
p254
sg13
Nsg14
(lp255
(i__main__
Token
p256
(dp257
g18
I136
sbasg21
I136
sbasg7
g231
sg40
Nsba(i__main__
Chain
p258
(dp259
g3
(lp260
(i__main__
Mention
p261
(dp262
g7
S't8'
p263
sg9
Nsg10
S'i13'
p264
sg12
Nsg13
Nsg14
(lp265
(i__main__
Token
p266
(dp267
g18
I79
sba(i__main__
Token
p268
(dp269
g18
I80
sba(i__main__
Token
p270
(dp271
g18
I81
sba(i__main__
Token
p272
(dp273
g18
I82
sba(i__main__
Token
p274
(dp275
g18
I83
sba(i__main__
Token
p276
(dp277
g18
I84
sbasg21
I84
sba(i__main__
Mention
p278
(dp279
g7
S't8'
p280
sg9
S'Anaphora-C'
p281
sg10
S'i14'
p282
sg12
S'i13'
p283
sg13
Nsg14
(lp284
(i__main__
Token
p285
(dp286
g18
I91
sbasg21
I91
sbasg7
g263
sg40
Nsba(i__main__
Chain
p287
(dp288
g3
(lp289
(i__main__
Mention
p290
(dp291
g7
S't9'
p292
sg9
Nsg10
S'i16'
p293
sg12
Nsg13
Nsg14
(lp294
(i__main__
Token
p295
(dp296
g18
I100
sbasg21
I100
sba(i__main__
Mention
p297
(dp298
g7
S't9'
p299
sg9
S'Coreference-Identity'
p300
sg10
S'i19'
p301
sg12
S'i16'
p302
sg13
Nsg14
(lp303
(i__main__
Token
p304
(dp305
g18
I120
sba(i__main__
Token
p306
(dp307
g18
I121
sbasg21
I121
sbasg7
g292
sg40
Nsba(i__main__
Chain
p308
(dp309
g3
(lp310
(i__main__
Mention
p311
(dp312
g7
S't10'
p313
sg9
Nsg10
S'i21'
p314
sg12
Nsg13
Nsg14
(lp315
(i__main__
Token
p316
(dp317
g18
I132
sbasg21
I132
sba(i__main__
Mention
p318
(dp319
g7
S't10'
p320
sg9
S'Coreference-Identity'
p321
sg10
S'i23'
p322
sg12
S'i21'
p323
sg13
Nsg14
(lp324
(i__main__
Token
p325
(dp326
g18
I139
sba(i__main__
Token
p327
(dp328
g18
I140
sbasg21
I140
sbasg7
g313
sg40
Nsba(i__main__
Chain
p329
(dp330
g3
(lp331
(i__main__
Mention
p332
(dp333
g7
S't11'
p334
sg9
S'anaphora-?'
p335
sg10
S'i24'
p336
sg12
S'i24'
p337
sg13
Nsg14
(lp338
(i__main__
Token
p339
(dp340
g18
I141
sbasg21
I141
sba(i__main__
Mention
p341
(dp342
g7
S't11'
p343
sg9
S'Anaphora-RT'
p344
sg10
S'i25'
p345
sg12
S'i24'
p346
sg13
Nsg14
(lp347
(i__main__
Token
p348
(dp349
g18
I144
sbasg21
I144
sba(i__main__
Mention
p350
(dp351
g7
S't11'
p352
sg9
S'Anaphora-RT'
p353
sg10
S'i27'
p354
sg12
S'i25'
p355
sg13
Nsg14
(lp356
(i__main__
Token
p357
(dp358
g18
I145
sba(i__main__
Token
p359
(dp360
g18
I146
sba(i__main__
Token
p361
(dp362
g18
I147
sba(i__main__
Token
p363
(dp364
g18
I148
sba(i__main__
Token
p365
(dp366
g18
I149
sba(i__main__
Token
p367
(dp368
g18
I150
sba(i__main__
Token
p369
(dp370
g18
I151
sba(i__main__
Token
p371
(dp372
g18
I152
sba(i__main__
Token
p373
(dp374
g18
I153
sba(i__main__
Token
p375
(dp376
g18
I154
sba(i__main__
Token
p377
(dp378
g18
I155
sba(i__main__
Token
p379
(dp380
g18
I156
sba(i__main__
Token
p381
(dp382
g18
I157
sba(i__main__
Token
p383
(dp384
g18
I158
sbasg21
I156
sbasg7
g334
sg40
Nsba(i__main__
Chain
p385
(dp386
g3
(lp387
(i__main__
Mention
p388
(dp389
g7
S't12'
p390
sg9
S'anaphora-?'
p391
sg10
S'i28'
p392
sg12
S'i28'
p393
sg13
Nsg14
(lp394
(i__main__
Token
p395
(dp396
g18
I153
sbasg21
I153
sbasg7
g390
sg40
Nsba.