(lp0
(i__main__
Chain
p1
(dp2
S'mentionList'
p3
(lp4
(i__main__
Mention
p5
(dp6
S'chainId'
p7
S't1'
p8
sS'relType'
p9
NsS'mentionId'
p10
S'i1'
p11
sS'antecedentId'
p12
NsS'crefMod'
p13
NsS'tokenList'
p14
(lp15
(i__main__
Token
p16
(dp17
S'tokenId'
p18
I4
sbasS'mentionHead'
p19
I4
sba(i__main__
Mention
p20
(dp21
g7
S't1'
p22
sg9
S'Coreference-Identity'
p23
sg10
S'i12'
p24
sg12
S'i1'
p25
sg13
Nsg14
(lp26
(i__main__
Token
p27
(dp28
g18
I40
sbasg19
I40
sbasg7
g8
sS'chainHead'
p29
Nsba(i__main__
Chain
p30
(dp31
g3
(lp32
(i__main__
Mention
p33
(dp34
g7
S't2'
p35
sg9
Nsg10
S'i2'
p36
sg12
Nsg13
Nsg14
(lp37
(i__main__
Token
p38
(dp39
g18
I12
sbasg19
I12
sba(i__main__
Mention
p40
(dp41
g7
S't2'
p42
sg9
S'Coreference-NounComplement'
p43
sg10
S'i3'
p44
sg12
S'i2'
p45
sg13
Nsg14
(lp46
(i__main__
Token
p47
(dp48
g18
I13
sba(i__main__
Token
p49
(dp50
g18
I14
sbasg19
I14
sba(i__main__
Mention
p51
(dp52
g7
S't2'
p53
sg9
S'Coreference-Identity'
p54
sg10
S'i23'
p55
sg12
S'i3'
p56
sg13
Nsg14
(lp57
(i__main__
Token
p58
(dp59
g18
I72
sbasg19
I72
sba(i__main__
Mention
p60
(dp61
g7
S't2'
p62
sg9
S'Anaphora-C'
p63
sg10
S'i25'
p64
sg12
S'i23'
p65
sg13
Nsg14
(lp66
(i__main__
Token
p67
(dp68
g18
I78
sbasg19
I78
sba(i__main__
Mention
p69
(dp70
g7
S't2'
p71
sg9
S'Anaphora-C'
p72
sg10
S'i27'
p73
sg12
S'i25'
p74
sg13
Nsg14
(lp75
(i__main__
Token
p76
(dp77
g18
I87
sbasg19
I87
sbasg7
g35
sg29
Nsba(i__main__
Chain
p78
(dp79
g3
(lp80
(i__main__
Mention
p81
(dp82
g7
S't3'
p83
sg9
Nsg10
S'i4'
p84
sg12
Nsg13
Nsg14
(lp85
(i__main__
Token
p86
(dp87
g18
I16
sbasg19
I16
sba(i__main__
Mention
p88
(dp89
g7
S't3'
p90
sg9
S'Coreference-Identity'
p91
sg10
S'i24'
p92
sg12
S'i4'
p93
sg13
Nsg14
(lp94
(i__main__
Token
p95
(dp96
g18
I74
sbasg19
I74
sbasg7
g83
sg29
Nsba(i__main__
Chain
p97
(dp98
g3
(lp99
(i__main__
Mention
p100
(dp101
g7
S't4'
p102
sg9
Nsg10
S'i5'
p103
sg12
Nsg13
Nsg14
(lp104
(i__main__
Token
p105
(dp106
g18
I18
sbasg19
I18
sba(i__main__
Mention
p107
(dp108
g7
S't4'
p109
sg9
S'Coreference-Identity'
p110
sg10
S'i15'
p111
sg12
S'i5'
p112
sg13
Nsg14
(lp113
(i__main__
Token
p114
(dp115
g18
I51
sba(i__main__
Token
p116
(dp117
g18
I52
sbasg19
I52
sbasg7
g102
sg29
Nsba(i__main__
Chain
p118
(dp119
g3
(lp120
(i__main__
Mention
p121
(dp122
g7
S't5'
p123
sg9
Nsg10
S'i6'
p124
sg12
Nsg13
Nsg14
(lp125
(i__main__
Token
p126
(dp127
g18
I20
sbasg19
I20
sba(i__main__
Mention
p128
(dp129
g7
S't5'
p130
sg9
S'Coreference-Identity'
p131
sg10
S'i14'
p132
sg12
S'i6'
p133
sg13
Nsg14
(lp134
(i__main__
Token
p135
(dp136
g18
I50
sbasg19
I50
sba(i__main__
Mention
p137
(dp138
g7
S't5'
p139
sg9
S'Coreference-Identity'
p140
sg10
S'i26'
p141
sg12
S'i14'
p142
sg13
Nsg14
(lp143
(i__main__
Token
p144
(dp145
g18
I85
sbasg19
I85
sbasg7
g123
sg29
Nsba(i__main__
Chain
p146
(dp147
g3
(lp148
(i__main__
Mention
p149
(dp150
g7
S't6'
p151
sg9
Nsg10
S'i7'
p152
sg12
Nsg13
Nsg14
(lp153
(i__main__
Token
p154
(dp155
g18
I22
sba(i__main__
Token
p156
(dp157
g18
I23
sbasg19
Nsba(i__main__
Mention
p158
(dp159
g7
S't6'
p160
sg9
Nsg10
S'i9'
p161
sg12
Nsg13
Nsg14
(lp162
(i__main__
Token
p163
(dp164
g18
I29
sba(i__main__
Token
p165
(dp166
g18
I32
sbasg19
Nsbasg7
g151
sg29
Nsba(i__main__
Chain
p167
(dp168
g3
(lp169
(i__main__
Mention
p170
(dp171
g7
S't7'
p172
sg9
Nsg10
S'i8'
p173
sg12
Nsg13
Nsg14
(lp174
(i__main__
Token
p175
(dp176
g18
I22
sba(i__main__
Token
p177
(dp178
g18
I23
sbasg19
Nsba(i__main__
Mention
p179
(dp180
g7
S't7'
p181
sg9
Nsg10
S'i11'
p182
sg12
Nsg13
Nsg14
(lp183
(i__main__
Token
p184
(dp185
g18
I31
sba(i__main__
Token
p186
(dp187
g18
I32
sbasg19
Nsbasg7
g172
sg29
Nsba(i__main__
Chain
p188
(dp189
g3
(lp190
(i__main__
Mention
p191
(dp192
g7
S't8'
p193
sg9
Nsg10
S'i10'
p194
sg12
Nsg13
Nsg14
(lp195
(i__main__
Token
p196
(dp197
g18
I29
sba(i__main__
Token
p198
(dp199
g18
I30
sba(i__main__
Token
p200
(dp201
g18
I31
sba(i__main__
Token
p202
(dp203
g18
I32
sba(i__main__
Token
p204
(dp205
g18
I33
sba(i__main__
Token
p206
(dp207
g18
I34
sba(i__main__
Token
p208
(dp209
g18
I35
sba(i__main__
Token
p210
(dp211
g18
I36
sba(i__main__
Token
p212
(dp213
g18
I37
sba(i__main__
Token
p214
(dp215
g18
I38
sba(i__main__
Token
p216
(dp217
g18
I39
sba(i__main__
Token
p218
(dp219
g18
I40
sba(i__main__
Token
p220
(dp221
g18
I41
sba(i__main__
Token
p222
(dp223
g18
I42
sba(i__main__
Token
p224
(dp225
g18
I43
sba(i__main__
Token
p226
(dp227
g18
I44
sba(i__main__
Token
p228
(dp229
g18
I45
sba(i__main__
Token
p230
(dp231
g18
I46
sbasg19
I45
sba(i__main__
Mention
p232
(dp233
g7
S't8'
p234
sg9
S'Anaphora-E'
p235
sg10
S'i13'
p236
sg12
S'i10'
p237
sg13
Nsg14
(lp238
(i__main__
Token
p239
(dp240
g18
I48
sbasg19
I48
sbasg7
g193
sg29
Nsba(i__main__
Chain
p241
(dp242
g3
(lp243
(i__main__
Mention
p244
(dp245
g7
S't9'
p246
sg9
Nsg10
S'i16'
p247
sg12
Nsg13
Nsg14
(lp248
(i__main__
Token
p249
(dp250
g18
I54
sba(i__main__
Token
p251
(dp252
g18
I55
sbasg19
I55
sba(i__main__
Mention
p253
(dp254
g7
S't9'
p255
sg9
S'Coreference-NounComplement'
p256
sg10
S'i17'
p257
sg12
S'i16'
p258
sg13
Nsg14
(lp259
(i__main__
Token
p260
(dp261
g18
I56
sba(i__main__
Token
p262
(dp263
g18
I57
sbasg19
I57
sba(i__main__
Mention
p264
(dp265
g7
S't9'
p266
sg9
S'Anaphora-C'
p267
sg10
S'i18'
p268
sg12
S'i17'
p269
sg13
Nsg14
(lp270
(i__main__
Token
p271
(dp272
g18
I59
sbasg19
I59
sbasg7
g246
sg29
Nsba(i__main__
Chain
p273
(dp274
g3
(lp275
(i__main__
Mention
p276
(dp277
g7
S't10'
p278
sg9
Nsg10
S'i19'
p279
sg12
Nsg13
Nsg14
(lp280
(i__main__
Token
p281
(dp282
g18
I60
sbasg19
Nsba(i__main__
Mention
p283
(dp284
g7
S't10'
p285
sg9
S'Coreference-NounComplement'
p286
sg10
S'i21'
p287
sg12
S'i19'
p288
sg13
Nsg14
(lp289
(i__main__
Token
p290
(dp291
g18
I61
sba(i__main__
Token
p292
(dp293
g18
I62
sbasg19
I62
sbasg7
g278
sg29
Nsba(i__main__
Chain
p294
(dp295
g3
(lp296
(i__main__
Mention
p297
(dp298
g7
S't11'
p299
sg9
Nsg10
S'i20'
p300
sg12
Nsg13
Nsg14
(lp301
(i__main__
Token
p302
(dp303
g18
I60
sbasg19
Nsba(i__main__
Mention
p304
(dp305
g7
S't11'
p306
sg9
S'Coreference-NounComplement'
p307
sg10
S'i22'
p308
sg12
S'i20'
p309
sg13
Nsg14
(lp310
(i__main__
Token
p311
(dp312
g18
I64
sba(i__main__
Token
p313
(dp314
g18
I65
sbasg19
I65
sbasg7
g299
sg29
Nsba.