(lp0
(i__main__
Chain
p1
(dp2
S'mentionList'
p3
(lp4
(i__main__
Mention
p5
(dp6
S'chainId'
p7
S't1'
p8
sS'relType'
p9
NsS'mentionId'
p10
S'i1'
p11
sS'antecedentId'
p12
NsS'crefMod'
p13
NsS'tokenList'
p14
(lp15
(i__main__
Token
p16
(dp17
S'tokenId'
p18
I0
sba(i__main__
Token
p19
(dp20
g18
I1
sbasS'mentionHead'
p21
I1
sba(i__main__
Mention
p22
(dp23
g7
S't1'
p24
sg9
S'Coreference-NounComplement'
p25
sg10
S'i2'
p26
sg12
S'i1'
p27
sg13
Nsg14
(lp28
(i__main__
Token
p29
(dp30
g18
I2
sba(i__main__
Token
p31
(dp32
g18
I3
sbasg21
I3
sba(i__main__
Mention
p33
(dp34
g7
S't1'
p35
sg9
S'Anaphora-C'
p36
sg10
S'i13'
p37
sg12
S'i2'
p38
sg13
Nsg14
(lp39
(i__main__
Token
p40
(dp41
g18
I64
sbasg21
I64
sba(i__main__
Mention
p42
(dp43
g7
S't1'
p44
sg9
S'Coreference-Noun-Noun'
p45
sg10
S'i15'
p46
sg12
S'i13'
p47
sg13
Nsg14
(lp48
(i__main__
Token
p49
(dp50
g18
I69
sba(i__main__
Token
p51
(dp52
g18
I70
sbasg21
I70
sba(i__main__
Mention
p53
(dp54
g7
S't1'
p55
sg9
S'Coreference-NounComplement'
p56
sg10
S'i16'
p57
sg12
S'i15'
p58
sg13
Nsg14
(lp59
(i__main__
Token
p60
(dp61
g18
I71
sba(i__main__
Token
p62
(dp63
g18
I72
sbasg21
I72
sba(i__main__
Mention
p64
(dp65
g7
S't1'
p66
sg9
S'Coreference-Identity'
p67
sg10
S'i25'
p68
sg12
S'i16'
p69
sg13
Nsg14
(lp70
(i__main__
Token
p71
(dp72
g18
I104
sba(i__main__
Token
p73
(dp74
g18
I105
sbasg21
I105
sba(i__main__
Mention
p75
(dp76
g7
S't1'
p77
sg9
S'Anaphora-C'
p78
sg10
S'i26'
p79
sg12
S'i25'
p80
sg13
Nsg14
(lp81
(i__main__
Token
p82
(dp83
g18
I106
sbasg21
I106
sba(i__main__
Mention
p84
(dp85
g7
S't1'
p86
sg9
S'Anaphora-C'
p87
sg10
S'i32'
p88
sg12
S'i26'
p89
sg13
Nsg14
(lp90
(i__main__
Token
p91
(dp92
g18
I124
sbasg21
I124
sba(i__main__
Mention
p93
(dp94
g7
S't1'
p95
sg9
S'Anaphora-C'
p96
sg10
S'i39'
p97
sg12
S'i32'
p98
sg13
Nsg14
(lp99
(i__main__
Token
p100
(dp101
g18
I151
sbasg21
I151
sba(i__main__
Mention
p102
(dp103
g7
S't1'
p104
sg9
S'Anaphora-C'
p105
sg10
S'i42'
p106
sg12
S'i39'
p107
sg13
Nsg14
(lp108
(i__main__
Token
p109
(dp110
g18
I161
sbasg21
I161
sba(i__main__
Mention
p111
(dp112
g7
S't1'
p113
sg9
S'Coreference-Identity'
p114
sg10
S'i58'
p115
sg12
S'i42'
p116
sg13
Nsg14
(lp117
(i__main__
Token
p118
(dp119
g18
I249
sbasg21
I249
sba(i__main__
Mention
p120
(dp121
g7
S't1'
p122
sg9
S'Anaphora-C'
p123
sg10
S'i63'
p124
sg12
S'i58'
p125
sg13
Nsg14
(lp126
(i__main__
Token
p127
(dp128
g18
I261
sbasg21
I261
sba(i__main__
Mention
p129
(dp130
g7
S't1'
p131
sg9
S'Anaphora-C'
p132
sg10
S'i64'
p133
sg12
S'i63'
p134
sg13
Nsg14
(lp135
(i__main__
Token
p136
(dp137
g18
I264
sbasg21
I264
sba(i__main__
Mention
p138
(dp139
g7
S't1'
p140
sg9
S'Coreference-Identity'
p141
sg10
S'i72'
p142
sg12
S'i64'
p143
sg13
Nsg14
(lp144
(i__main__
Token
p145
(dp146
g18
I290
sbasg21
I290
sba(i__main__
Mention
p147
(dp148
g7
S't1'
p149
sg9
S'Coreference-Identity'
p150
sg10
S'i77'
p151
sg12
S'i72'
p152
sg13
Nsg14
(lp153
(i__main__
Token
p154
(dp155
g18
I309
sbasg21
I309
sba(i__main__
Mention
p156
(dp157
g7
S't1'
p158
sg9
S'Coreference-Noun-Noun'
p159
sg10
S'i83'
p160
sg12
S'i77'
p161
sg13
Nsg14
(lp162
(i__main__
Token
p163
(dp164
g18
I335
sbasg21
I335
sba(i__main__
Mention
p165
(dp166
g7
S't1'
p167
sg9
S'Anaphora-C'
p168
sg10
S'i91'
p169
sg12
S'i83'
p170
sg13
Nsg14
(lp171
(i__main__
Token
p172
(dp173
g18
I370
sbasg21
I370
sbasg7
g8
sS'chainHead'
p174
Nsba(i__main__
Chain
p175
(dp176
g3
(lp177
(i__main__
Mention
p178
(dp179
g7
S't2'
p180
sg9
Nsg10
S'i3'
p181
sg12
Nsg13
Nsg14
(lp182
(i__main__
Token
p183
(dp184
g18
I11
sbasg21
I11
sba(i__main__
Mention
p185
(dp186
g7
S't2'
p187
sg9
S'Coreference-Identity'
p188
sg10
S'i28'
p189
sg12
S'i3'
p190
sg13
Nsg14
(lp191
(i__main__
Token
p192
(dp193
g18
I114
sbasg21
I114
sba(i__main__
Mention
p194
(dp195
g7
S't2'
p196
sg9
Nsg10
S'i38'
p197
sg12
Nsg13
Nsg14
(lp198
(i__main__
Token
p199
(dp200
g18
I137
sba(i__main__
Token
p201
(dp202
g18
I138
sbasg21
Nsbasg7
g180
sg174
Nsba(i__main__
Chain
p203
(dp204
g3
(lp205
(i__main__
Mention
p206
(dp207
g7
S't3'
p208
sg9
Nsg10
S'i5'
p209
sg12
Nsg13
Nsg14
(lp210
(i__main__
Token
p211
(dp212
g18
I13
sbasg21
I13
sba(i__main__
Mention
p213
(dp214
g7
S't3'
p215
sg9
Nsg10
S'i7'
p216
sg12
Nsg13
Nsg14
(lp217
(i__main__
Token
p218
(dp219
g18
I31
sba(i__main__
Token
p220
(dp221
g18
I32
sbasg21
Nsba(i__main__
Mention
p222
(dp223
g7
S't3'
p224
sg9
S'Coreference-PartOf'
p225
sg10
S'i12'
p226
sg12
S'i7'
p227
sg13
Nsg14
(lp228
(i__main__
Token
p229
(dp230
g18
I60
sbasg21
I60
sba(i__main__
Mention
p231
(dp232
g7
S't3'
p233
sg9
S'Coreference-Identity'
p234
sg10
S'i22'
p235
sg12
S'i12'
p236
sg13
Nsg14
(lp237
(i__main__
Token
p238
(dp239
g18
I91
sbasg21
I91
sba(i__main__
Mention
p240
(dp241
g7
S't3'
p242
sg9
S'Coreference-Identity'
p243
sg10
S'i40'
p244
sg12
S'i22'
p245
sg13
Nsg14
(lp246
(i__main__
Token
p247
(dp248
g18
I154
sbasg21
I154
sba(i__main__
Mention
p249
(dp250
g7
S't3'
p251
sg9
S'Anaphora-C'
p252
sg10
S'i41'
p253
sg12
S'i40'
p254
sg13
Nsg14
(lp255
(i__main__
Token
p256
(dp257
g18
I160
sbasg21
I160
sba(i__main__
Mention
p258
(dp259
g7
S't3'
p260
sg9
S'Anaphora-C'
p261
sg10
S'i43'
p262
sg12
S'i41'
p263
sg13
Nsg14
(lp264
(i__main__
Token
p265
(dp266
g18
I162
sbasg21
I162
sba(i__main__
Mention
p267
(dp268
g7
S't3'
p269
sg9
S'Coreference-Identity'
p270
sg10
S'i46'
p271
sg12
S'i43'
p272
sg13
Nsg14
(lp273
(i__main__
Token
p274
(dp275
g18
I184
sbasg21
I184
sba(i__main__
Mention
p276
(dp277
g7
S't3'
p278
sg9
Nsg10
S'i48'
p279
sg12
Nsg13
Nsg14
(lp280
(i__main__
Token
p281
(dp282
g18
I195
sba(i__main__
Token
p283
(dp284
g18
I196
sbasg21
Nsba(i__main__
Mention
p285
(dp286
g7
S't3'
p287
sg9
S'Coreference-PartOf'
p288
sg10
S'i51'
p289
sg12
S'i48'
p290
sg13
Nsg14
(lp291
(i__main__
Token
p292
(dp293
g18
I216
sbasg21
I216
sba(i__main__
Mention
p294
(dp295
g7
S't3'
p296
sg9
S'Coreference-Noun-Noun'
p297
sg10
S'i53'
p298
sg12
S'i51'
p299
sg13
Nsg14
(lp300
(i__main__
Token
p301
(dp302
g18
I228
sbasg21
I228
sba(i__main__
Mention
p303
(dp304
g7
S't3'
p305
sg9
S'Coreference-Noun-Noun'
p306
sg10
S'i56'
p307
sg12
S'i53'
p308
sg13
Nsg14
(lp309
(i__main__
Token
p310
(dp311
g18
I240
sbasg21
I240
sba(i__main__
Mention
p312
(dp313
g7
S't3'
p314
sg9
S'Coreference-Identity'
p315
sg10
S'i60'
p316
sg12
S'i56'
p317
sg13
Nsg14
(lp318
(i__main__
Token
p319
(dp320
g18
I251
sbasg21
I251
sba(i__main__
Mention
p321
(dp322
g7
S't3'
p323
sg9
S'Coreference-Identity'
p324
sg10
S'i70'
p325
sg12
S'i60'
p326
sg13
Nsg14
(lp327
(i__main__
Token
p328
(dp329
g18
I275
sbasg21
I275
sba(i__main__
Mention
p330
(dp331
g7
S't3'
p332
sg9
Nsg10
S'i75'
p333
sg12
Nsg13
Nsg14
(lp334
(i__main__
Token
p335
(dp336
g18
I297
sba(i__main__
Token
p337
(dp338
g18
I298
sbasg21
Nsba(i__main__
Mention
p339
(dp340
g7
S't3'
p341
sg9
Nsg10
S'i89'
p342
sg12
Nsg13
Nsg14
(lp343
(i__main__
Token
p344
(dp345
g18
I361
sba(i__main__
Token
p346
(dp347
g18
I362
sbasg21
Nsba(i__main__
Mention
p348
(dp349
g7
S't3'
p350
sg9
Nsg10
S'i93'
p351
sg12
Nsg13
Nsg14
(lp352
(i__main__
Token
p353
(dp354
g18
I373
sba(i__main__
Token
p355
(dp356
g18
I374
sbasg21
Nsbasg7
g208
sg174
Nsba(i__main__
Chain
p357
(dp358
g3
(lp359
(i__main__
Mention
p360
(dp361
g7
S't4'
p362
sg9
Nsg10
S'i4'
p363
sg12
Nsg13
Nsg14
(lp364
(i__main__
Token
p365
(dp366
g18
I15
sba(i__main__
Token
p367
(dp368
g18
I16
sba(i__main__
Token
p369
(dp370
g18
I17
sbasg21
I17
sba(i__main__
Mention
p371
(dp372
g7
S't4'
p373
sg9
S'Anaphora-C'
p374
sg10
S'i11'
p375
sg12
S'i4'
p376
sg13
Nsg14
(lp377
(i__main__
Token
p378
(dp379
g18
I58
sbasg21
I58
sba(i__main__
Mention
p380
(dp381
g7
S't4'
p382
sg9
S'Coreference-Identity'
p383
sg10
S'i14'
p384
sg12
S'i11'
p385
sg13
Nsg14
(lp386
(i__main__
Token
p387
(dp388
g18
I65
sbasg21
I65
sba(i__main__
Mention
p389
(dp390
g7
S't4'
p391
sg9
S'Coreference-Identity'
p392
sg10
S'i27'
p393
sg12
S'i14'
p394
sg13
Nsg14
(lp395
(i__main__
Token
p396
(dp397
g18
I107
sbasg21
I107
sba(i__main__
Mention
p398
(dp399
g7
S't4'
p400
sg9
S'Coreference-PartOf'
p401
sg10
S'i29'
p402
sg12
S'i27'
p403
sg13
Nsg14
(lp404
(i__main__
Token
p405
(dp406
g18
I116
sba(i__main__
Token
p407
(dp408
g18
I117
sbasg21
I117
sba(i__main__
Mention
p409
(dp410
g7
S't4'
p411
sg9
S'Coreference-PartOf-WMain'
p412
sg10
S'i61'
p413
sg12
S'i29'
p414
sg13
Nsg14
(lp415
(i__main__
Token
p416
(dp417
g18
I253
sba(i__main__
Token
p418
(dp419
g18
I254
sbasg21
I254
sba(i__main__
Mention
p420
(dp421
g7
S't4'
p422
sg9
S'Coreference-Identity'
p423
sg10
S'i71'
p424
sg12
S'i61'
p425
sg13
Nsg14
(lp426
(i__main__
Token
p427
(dp428
g18
I280
sba(i__main__
Token
p429
(dp430
g18
I281
sbasg21
I281
sbasg7
g362
sg174
Nsba(i__main__
Chain
p431
(dp432
g3
(lp433
(i__main__
Mention
p434
(dp435
g7
S't5'
p436
sg9
Nsg10
S'i6'
p437
sg12
Nsg13
Nsg14
(lp438
(i__main__
Token
p439
(dp440
g18
I21
sbasg21
I21
sba(i__main__
Mention
p441
(dp442
g7
S't5'
p443
sg9
S'Coreference-Identity'
p444
sg10
S'i30'
p445
sg12
S'i6'
p446
sg13
Nsg14
(lp447
(i__main__
Token
p448
(dp449
g18
I119
sbasg21
I119
sba(i__main__
Mention
p450
(dp451
g7
S't5'
p452
sg9
S'Coreference-Identity'
p453
sg10
S'i31'
p454
sg12
S'i30'
p455
sg13
Nsg14
(lp456
(i__main__
Token
p457
(dp458
g18
I122
sbasg21
I122
sbasg7
g436
sg174
Nsba(i__main__
Chain
p459
(dp460
g3
(lp461
(i__main__
Mention
p462
(dp463
g7
S't6'
p464
sg9
Nsg10
S'i8'
p465
sg12
Nsg13
Nsg14
(lp466
(i__main__
Token
p467
(dp468
g18
I31
sba(i__main__
Token
p469
(dp470
g18
I32
sbasg21
Nsba(i__main__
Mention
p471
(dp472
g7
S't6'
p473
sg9
Nsg10
S'i37'
p474
sg12
Nsg13
Nsg14
(lp475
(i__main__
Token
p476
(dp477
g18
I137
sba(i__main__
Token
p478
(dp479
g18
I138
sbasg21
Nsba(i__main__
Mention
p480
(dp481
g7
S't6'
p482
sg9
S'Coreference-PartOf'
p483
sg10
S'i47'
p484
sg12
S'i37'
p485
sg13
Nsg14
(lp486
(i__main__
Token
p487
(dp488
g18
I194
sbasg21
I194
sba(i__main__
Mention
p489
(dp490
g7
S't6'
p491
sg9
Nsg10
S'i49'
p492
sg12
Nsg13
Nsg14
(lp493
(i__main__
Token
p494
(dp495
g18
I195
sba(i__main__
Token
p496
(dp497
g18
I196
sbasg21
Nsba(i__main__
Mention
p498
(dp499
g7
S't6'
p500
sg9
S'Coreference-PartOf'
p501
sg10
S'i52'
p502
sg12
S'i49'
p503
sg13
Nsg14
(lp504
(i__main__
Token
p505
(dp506
g18
I226
sbasg21
I226
sba(i__main__
Mention
p507
(dp508
g7
S't6'
p509
sg9
S'Anaphora-C'
p510
sg10
S'i54'
p511
sg12
S'i52'
p512
sg13
Nsg14
(lp513
(i__main__
Token
p514
(dp515
g18
I230
sbasg21
I230
sba(i__main__
Mention
p516
(dp517
g7
S't6'
p518
sg9
S'Coreference-Identity'
p519
sg10
S'i55'
p520
sg12
S'i54'
p521
sg13
Nsg14
(lp522
(i__main__
Token
p523
(dp524
g18
I235
sbasg21
I235
sba(i__main__
Mention
p525
(dp526
g7
S't6'
p527
sg9
S'Coreference-Identity'
p528
sg10
S'i67'
p529
sg12
S'i55'
p530
sg13
Nsg14
(lp531
(i__main__
Token
p532
(dp533
g18
I271
sbasg21
I271
sba(i__main__
Mention
p534
(dp535
g7
S't6'
p536
sg9
Nsg10
S'i73'
p537
sg12
Nsg13
Nsg14
(lp538
(i__main__
Token
p539
(dp540
g18
I297
sba(i__main__
Token
p541
(dp542
g18
I298
sbasg21
Nsba(i__main__
Mention
p543
(dp544
g7
S't6'
p545
sg9
Nsg10
S'i88'
p546
sg12
Nsg13
Nsg14
(lp547
(i__main__
Token
p548
(dp549
g18
I361
sba(i__main__
Token
p550
(dp551
g18
I362
sbasg21
Nsba(i__main__
Mention
p552
(dp553
g7
S't6'
p554
sg9
Nsg10
S'i92'
p555
sg12
Nsg13
Nsg14
(lp556
(i__main__
Token
p557
(dp558
g18
I373
sba(i__main__
Token
p559
(dp560
g18
I374
sbasg21
Nsbasg7
g464
sg174
Nsba(i__main__
Chain
p561
(dp562
g3
(lp563
(i__main__
Mention
p564
(dp565
g7
S't7'
p566
sg9
Nsg10
S'i9'
p567
sg12
Nsg13
Nsg14
(lp568
(i__main__
Token
p569
(dp570
g18
I37
sba(i__main__
Token
p571
(dp572
g18
I38
sbasg21
I38
sba(i__main__
Mention
p573
(dp574
g7
S't7'
p575
sg9
S'Coreference-Identity'
p576
sg10
S'i50'
p577
sg12
S'i9'
p578
sg13
Nsg14
(lp579
(i__main__
Token
p580
(dp581
g18
I201
sba(i__main__
Token
p582
(dp583
g18
I202
sbasg21
I202
sbasg7
g566
sg174
Nsba(i__main__
Chain
p584
(dp585
g3
(lp586
(i__main__
Mention
p587
(dp588
g7
S't8'
p589
sg9
Nsg10
S'i10'
p590
sg12
Nsg13
Nsg14
(lp591
(i__main__
Token
p592
(dp593
g18
I50
sbasg21
I50
sbasg7
g589
sg174
Nsba(i__main__
Chain
p594
(dp595
g3
(lp596
(i__main__
Mention
p597
(dp598
g7
S't9'
p599
sg9
Nsg10
S'i17'
p600
sg12
Nsg13
Nsg14
(lp601
(i__main__
Token
p602
(dp603
g18
I74
sba(i__main__
Token
p604
(dp605
g18
I75
sbasg21
I75
sba(i__main__
Mention
p606
(dp607
g7
S't9'
p608
sg9
S'Coreference-Identity'
p609
sg10
S'i65'
p610
sg12
S'i17'
p611
sg13
Nsg14
(lp612
(i__main__
Token
p613
(dp614
g18
I265
sba(i__main__
Token
p615
(dp616
g18
I266
sbasg21
I266
sbasg7
g599
sg174
Nsba(i__main__
Chain
p617
(dp618
g3
(lp619
(i__main__
Mention
p620
(dp621
g7
S't10'
p622
sg9
Nsg10
S'i18'
p623
sg12
Nsg13
Nsg14
(lp624
(i__main__
Token
p625
(dp626
g18
I77
sbasg21
I77
sba(i__main__
Mention
p627
(dp628
g7
S't10'
p629
sg9
S'Coreference-Identity'
p630
sg10
S'i66'
p631
sg12
S'i18'
p632
sg13
Nsg14
(lp633
(i__main__
Token
p634
(dp635
g18
I268
sbasg21
I268
sbasg7
g622
sg174
Nsba(i__main__
Chain
p636
(dp637
g3
(lp638
(i__main__
Mention
p639
(dp640
g7
S't11'
p641
sg9
Nsg10
S'i19'
p642
sg12
Nsg13
Nsg14
(lp643
(i__main__
Token
p644
(dp645
g18
I81
sbasg21
I81
sbasg7
g641
sg174
Nsba(i__main__
Chain
p646
(dp647
g3
(lp648
(i__main__
Mention
p649
(dp650
g7
S't12'
p651
sg9
Nsg10
S'i20'
p652
sg12
Nsg13
Nsg14
(lp653
(i__main__
Token
p654
(dp655
g18
I85
sba(i__main__
Token
p656
(dp657
g18
I86
sba(i__main__
Token
p658
(dp659
g18
I87
sbasg21
I87
sba(i__main__
Mention
p660
(dp661
g7
S't12'
p662
sg9
S'Coreference-NounComplement'
p663
sg10
S'i21'
p664
sg12
S'i20'
p665
sg13
Nsg14
(lp666
(i__main__
Token
p667
(dp668
g18
I88
sba(i__main__
Token
p669
(dp670
g18
I89
sbasg21
I89
sbasg7
g651
sg174
Nsba(i__main__
Chain
p671
(dp672
g3
(lp673
(i__main__
Mention
p674
(dp675
g7
S't13'
p676
sg9
Nsg10
S'i23'
p677
sg12
Nsg13
Nsg14
(lp678
(i__main__
Token
p679
(dp680
g18
I99
sba(i__main__
Token
p681
(dp682
g18
I100
sbasg21
I100
sba(i__main__
Mention
p683
(dp684
g7
S't13'
p685
sg9
S'Coreference-Apposition'
p686
sg10
S'i24'
p687
sg12
S'i23'
p688
sg13
Nsg14
(lp689
(i__main__
Token
p690
(dp691
g18
I101
sbasg21
I101
sbasg7
g676
sg174
Nsba(i__main__
Chain
p692
(dp693
g3
(lp694
(i__main__
Mention
p695
(dp696
g7
S't14'
p697
sg9
Nsg10
S'i33'
p698
sg12
Nsg13
Nsg14
(lp699
(i__main__
Token
p700
(dp701
g18
I125
sbasg21
I125
sba(i__main__
Mention
p702
(dp703
g7
S't14'
p704
sg9
S'Coreference-NounComplement'
p705
sg10
S'i34'
p706
sg12
S'i33'
p707
sg13
Nsg14
(lp708
(i__main__
Token
p709
(dp710
g18
I126
sba(i__main__
Token
p711
(dp712
g18
I127
sbasg21
I127
sbasg7
g697
sg174
Nsba(i__main__
Chain
p713
(dp714
g3
(lp715
(i__main__
Mention
p716
(dp717
g7
S't15'
p718
sg9
Nsg10
S'i35'
p719
sg12
Nsg13
Nsg14
(lp720
(i__main__
Token
p721
(dp722
g18
I129
sba(i__main__
Token
p723
(dp724
g18
I130
sbasg21
I130
sba(i__main__
Mention
p725
(dp726
g7
S't15'
p727
sg9
S'Coreference-NounComplement'
p728
sg10
S'i36'
p729
sg12
S'i35'
p730
sg13
Nsg14
(lp731
(i__main__
Token
p732
(dp733
g18
I131
sbasg21
I131
sbasg7
g718
sg174
Nsba(i__main__
Chain
p734
(dp735
g3
(lp736
(i__main__
Mention
p737
(dp738
g7
S't16'
p739
sg9
Nsg10
S'i44'
p740
sg12
Nsg13
Nsg14
(lp741
(i__main__
Token
p742
(dp743
g18
I164
sba(i__main__
Token
p744
(dp745
g18
I165
sbasg21
I165
sba(i__main__
Mention
p746
(dp747
g7
S't16'
p748
sg9
S'Coreference-NounComplement'
p749
sg10
S'i45'
p750
sg12
S'i44'
p751
sg13
Nsg14
(lp752
(i__main__
Token
p753
(dp754
g18
I166
sba(i__main__
Token
p755
(dp756
g18
I167
sba(i__main__
Token
p757
(dp758
g18
I168
sbasg21
I168
sba(i__main__
Mention
p759
(dp760
g7
S't16'
p761
sg9
S'Coreference-Identity'
p762
sg10
S'i78'
p763
sg12
S'i45'
p764
sg13
Nsg14
(lp765
(i__main__
Token
p766
(dp767
g18
I311
sbasg21
I311
sbasg7
g739
sg174
Nsba(i__main__
Chain
p768
(dp769
g3
(lp770
(i__main__
Mention
p771
(dp772
g7
S't17'
p773
sg9
Nsg10
S'i57'
p774
sg12
Nsg13
Nsg14
(lp775
(i__main__
Token
p776
(dp777
g18
I248
sbasg21
I248
sba(i__main__
Mention
p778
(dp779
g7
S't17'
p780
sg9
S'Anaphora-RT'
p781
sg10
S'i59'
p782
sg12
S'i57'
p783
sg13
Nsg14
(lp784
(i__main__
Token
p785
(dp786
g18
I249
sba(i__main__
Token
p787
(dp788
g18
I250
sba(i__main__
Token
p789
(dp790
g18
I251
sba(i__main__
Token
p791
(dp792
g18
I252
sba(i__main__
Token
p793
(dp794
g18
I253
sba(i__main__
Token
p795
(dp796
g18
I254
sba(i__main__
Token
p797
(dp798
g18
I255
sba(i__main__
Token
p799
(dp800
g18
I256
sba(i__main__
Token
p801
(dp802
g18
I257
sba(i__main__
Token
p803
(dp804
g18
I258
sba(i__main__
Token
p805
(dp806
g18
I259
sbasg21
I258
sbasg7
g773
sg174
Nsba(i__main__
Chain
p807
(dp808
g3
(lp809
(i__main__
Mention
p810
(dp811
g7
S't18'
p812
sg9
Nsg10
S'i62'
p813
sg12
Nsg13
Nsg14
(lp814
(i__main__
Token
p815
(dp816
g18
I260
sbasg21
I260
sbasg7
g812
sg174
Nsba(i__main__
Chain
p817
(dp818
g3
(lp819
(i__main__
Mention
p820
(dp821
g7
S't19'
p822
sg9
Nsg10
S'i68'
p823
sg12
Nsg13
Nsg14
(lp824
(i__main__
Token
p825
(dp826
g18
I271
sba(i__main__
Token
p827
(dp828
g18
I272
sba(i__main__
Token
p829
(dp830
g18
I273
sba(i__main__
Token
p831
(dp832
g18
I274
sba(i__main__
Token
p833
(dp834
g18
I275
sba(i__main__
Token
p835
(dp836
g18
I276
sba(i__main__
Token
p837
(dp838
g18
I277
sbasg21
I277
sba(i__main__
Mention
p839
(dp840
g7
S't19'
p841
sg9
S'Coreference-Identity'
p842
sg10
S'i76'
p843
sg12
S'i68'
p844
sg13
Nsg14
(lp845
(i__main__
Token
p846
(dp847
g18
I300
sba(i__main__
Token
p848
(dp849
g18
I301
sbasg21
I301
sbasg7
g822
sg174
Nsba(i__main__
Chain
p850
(dp851
g3
(lp852
(i__main__
Mention
p853
(dp854
g7
S't20'
p855
sg9
Nsg10
S'i69'
p856
sg12
Nsg13
Nsg14
(lp857
(i__main__
Token
p858
(dp859
g18
I273
sbasg21
I273
sba(i__main__
Mention
p860
(dp861
g7
S't20'
p862
sg9
Nsg10
S'i74'
p863
sg12
Nsg13
Nsg14
(lp864
(i__main__
Token
p865
(dp866
g18
I297
sba(i__main__
Token
p867
(dp868
g18
I298
sbasg21
Nsbasg7
g855
sg174
Nsba(i__main__
Chain
p869
(dp870
g3
(lp871
(i__main__
Mention
p872
(dp873
g7
S't21'
p874
sg9
Nsg10
S'i79'
p875
sg12
Nsg13
Nsg14
(lp876
(i__main__
Token
p877
(dp878
g18
I317
sba(i__main__
Token
p879
(dp880
g18
I318
sbasg21
I318
sba(i__main__
Mention
p881
(dp882
g7
S't21'
p883
sg9
S'Anaphora-C'
p884
sg10
S'i81'
p885
sg12
S'i79'
p886
sg13
Nsg14
(lp887
(i__main__
Token
p888
(dp889
g18
I326
sbasg21
I326
sba(i__main__
Mention
p890
(dp891
g7
S't21'
p892
sg9
S'Anaphora-RC'
p893
sg10
S'i82'
p894
sg12
S'i81'
p895
sg13
Nsg14
(lp896
(i__main__
Token
p897
(dp898
g18
I328
sba(i__main__
Token
p899
(dp900
g18
I329
sba(i__main__
Token
p901
(dp902
g18
I330
sba(i__main__
Token
p903
(dp904
g18
I331
sba(i__main__
Token
p905
(dp906
g18
I332
sba(i__main__
Token
p907
(dp908
g18
I333
sbasg21
I333
sbasg7
g874
sg174
Nsba(i__main__
Chain
p909
(dp910
g3
(lp911
(i__main__
Mention
p912
(dp913
g7
S't22'
p914
sg9
Nsg10
S'i80'
p915
sg12
Nsg13
Nsg14
(lp916
(i__main__
Token
p917
(dp918
g18
I320
sbasg21
I320
sbasg7
g914
sg174
Nsba(i__main__
Chain
p919
(dp920
g3
(lp921
(i__main__
Mention
p922
(dp923
g7
S't23'
p924
sg9
Nsg10
S'i84'
p925
sg12
Nsg13
Nsg14
(lp926
(i__main__
Token
p927
(dp928
g18
I339
sba(i__main__
Token
p929
(dp930
g18
I340
sba(i__main__
Token
p931
(dp932
g18
I341
sba(i__main__
Token
p933
(dp934
g18
I342
sba(i__main__
Token
p935
(dp936
g18
I343
sba(i__main__
Token
p937
(dp938
g18
I344
sba(i__main__
Token
p939
(dp940
g18
I345
sba(i__main__
Token
p941
(dp942
g18
I346
sba(i__main__
Token
p943
(dp944
g18
I347
sba(i__main__
Token
p945
(dp946
g18
I348
sbasg21
I348
sba(i__main__
Mention
p947
(dp948
g7
S't23'
p949
sg9
S'Anaphora-E'
p950
sg10
S'i85'
p951
sg12
S'i84'
p952
sg13
Nsg14
(lp953
(i__main__
Token
p954
(dp955
g18
I350
sbasg21
I350
sbasg7
g924
sg174
Nsba(i__main__
Chain
p956
(dp957
g3
(lp958
(i__main__
Mention
p959
(dp960
g7
S't24'
p961
sg9
Nsg10
S'i86'
p962
sg12
Nsg13
Nsg14
(lp963
(i__main__
Token
p964
(dp965
g18
I356
sbasg21
I356
sbasg7
g961
sg174
Nsba(i__main__
Chain
p966
(dp967
g3
(lp968
(i__main__
Mention
p969
(dp970
g7
S't25'
p971
sg9
Nsg10
S'i87'
p972
sg12
Nsg13
Nsg14
(lp973
(i__main__
Token
p974
(dp975
g18
I358
sbasg21
I358
sbasg7
g971
sg174
Nsba(i__main__
Chain
p976
(dp977
g3
(lp978
(i__main__
Mention
p979
(dp980
g7
S't26'
p981
sg9
Nsg10
S'i90'
p982
sg12
Nsg13
Nsg14
(lp983
(i__main__
Token
p984
(dp985
g18
I365
sbasg21
I365
sba(i__main__
Mention
p986
(dp987
g7
S't26'
p988
sg9
S'Coreference-Identity'
p989
sg10
S'i94'
p990
sg12
S'i90'
p991
sg13
Nsg14
(lp992
(i__main__
Token
p993
(dp994
g18
I379
sbasg21
I379
sbasg7
g981
sg174
Nsba(i__main__
Chain
p995
(dp996
g3
(lp997
(i__main__
Mention
p998
(dp999
g7
S't27'
p1000
sg9
Nsg10
S'i95'
p1001
sg12
Nsg13
Nsg14
(lp1002
(i__main__
Token
p1003
(dp1004
g18
I381
sbasg21
I381
sbasg7
g1000
sg174
Nsba.