(lp0
(i__main__
Chain
p1
(dp2
S'mentionList'
p3
(lp4
(i__main__
Mention
p5
(dp6
S'chainId'
p7
S't1'
p8
sS'relType'
p9
NsS'mentionId'
p10
S'i1'
p11
sS'antecedentId'
p12
NsS'crefMod'
p13
NsS'tokenList'
p14
(lp15
(i__main__
Token
p16
(dp17
S'tokenId'
p18
I0
sba(i__main__
Token
p19
(dp20
g18
I1
sba(i__main__
Token
p21
(dp22
g18
I2
sba(i__main__
Token
p23
(dp24
g18
I3
sba(i__main__
Token
p25
(dp26
g18
I4
sbasS'mentionHead'
p27
I4
sba(i__main__
Mention
p28
(dp29
g7
S't1'
p30
sg9
S'Coreference-Identity'
p31
sg10
S'i15'
p32
sg12
S'i1'
p33
sg13
Nsg14
(lp34
(i__main__
Token
p35
(dp36
g18
I92
sbasg27
I92
sba(i__main__
Mention
p37
(dp38
g7
S't1'
p39
sg9
S'Coreference-Identity'
p40
sg10
S'i40'
p41
sg12
S'i15'
p42
sg13
Nsg14
(lp43
(i__main__
Token
p44
(dp45
g18
I216
sbasg27
I216
sbasg7
g8
sS'chainHead'
p46
Nsba(i__main__
Chain
p47
(dp48
g3
(lp49
(i__main__
Mention
p50
(dp51
g7
S't2'
p52
sg9
Nsg10
S'i2'
p53
sg12
Nsg13
Nsg14
(lp54
(i__main__
Token
p55
(dp56
g18
I14
sba(i__main__
Token
p57
(dp58
g18
I15
sbasg27
I15
sba(i__main__
Mention
p59
(dp60
g7
S't2'
p61
sg9
S'Coreference-Identity'
p62
sg10
S'i7'
p63
sg12
S'i2'
p64
sg13
Nsg14
(lp65
(i__main__
Token
p66
(dp67
g18
I36
sba(i__main__
Token
p68
(dp69
g18
I37
sbasg27
I37
sba(i__main__
Mention
p70
(dp71
g7
S't2'
p72
sg9
S'Coreference-Identity'
p73
sg10
S'i17'
p74
sg12
S'i7'
p75
sg13
Nsg14
(lp76
(i__main__
Token
p77
(dp78
g18
I98
sba(i__main__
Token
p79
(dp80
g18
I99
sbasg27
I99
sba(i__main__
Mention
p81
(dp82
g7
S't2'
p83
sg9
S'Coreference-Identity'
p84
sg10
S'i44'
p85
sg12
S'i17'
p86
sg13
Nsg14
(lp87
(i__main__
Token
p88
(dp89
g18
I242
sba(i__main__
Token
p90
(dp91
g18
I243
sbasg27
I243
sbasg7
g52
sg46
Nsba(i__main__
Chain
p92
(dp93
g3
(lp94
(i__main__
Mention
p95
(dp96
g7
S't3'
p97
sg9
Nsg10
S'i3'
p98
sg12
Nsg13
Nsg14
(lp99
(i__main__
Token
p100
(dp101
g18
I17
sbasg27
I17
sba(i__main__
Mention
p102
(dp103
g7
S't3'
p104
sg9
S'Coreference-Identity'
p105
sg10
S'i8'
p106
sg12
S'i3'
p107
sg13
Nsg14
(lp108
(i__main__
Token
p109
(dp110
g18
I39
sbasg27
I39
sba(i__main__
Mention
p111
(dp112
g7
S't3'
p113
sg9
S'Coreference-Identity'
p114
sg10
S'i18'
p115
sg12
S'i8'
p116
sg13
Nsg14
(lp117
(i__main__
Token
p118
(dp119
g18
I101
sbasg27
I101
sba(i__main__
Mention
p120
(dp121
g7
S't3'
p122
sg9
S'Coreference-Identity'
p123
sg10
S'i45'
p124
sg12
S'i18'
p125
sg13
Nsg14
(lp126
(i__main__
Token
p127
(dp128
g18
I245
sbasg27
I245
sbasg7
g97
sg46
Nsba(i__main__
Chain
p129
(dp130
g3
(lp131
(i__main__
Mention
p132
(dp133
g7
S't4'
p134
sg9
Nsg10
S'i4'
p135
sg12
Nsg13
Nsg14
(lp136
(i__main__
Token
p137
(dp138
g18
I19
sba(i__main__
Token
p139
(dp140
g18
I20
sba(i__main__
Token
p141
(dp142
g18
I21
sba(i__main__
Token
p143
(dp144
g18
I22
sbasg27
I22
sba(i__main__
Mention
p145
(dp146
g7
S't4'
p147
sg9
S'Coreference-Identity'
p148
sg10
S'i5'
p149
sg12
S'i4'
p150
sg13
Nsg14
(lp151
(i__main__
Token
p152
(dp153
g18
I30
sbasg27
I30
sba(i__main__
Mention
p154
(dp155
g7
S't4'
p156
sg9
S'Anaphora-C'
p157
sg10
S'i6'
p158
sg12
S'i5'
p159
sg13
Nsg14
(lp160
(i__main__
Token
p161
(dp162
g18
I35
sbasg27
I35
sba(i__main__
Mention
p163
(dp164
g7
S't4'
p165
sg9
S'Coreference-Identity'
p166
sg10
S'i16'
p167
sg12
S'i6'
p168
sg13
Nsg14
(lp169
(i__main__
Token
p170
(dp171
g18
I96
sbasg27
I96
sba(i__main__
Mention
p172
(dp173
g7
S't4'
p174
sg9
S'Coreference-Noun-Noun'
p175
sg10
S'i19'
p176
sg12
S'i16'
p177
sg13
Nsg14
(lp178
(i__main__
Token
p179
(dp180
g18
I108
sba(i__main__
Token
p181
(dp182
g18
I109
sbasg27
I109
sba(i__main__
Mention
p183
(dp184
g7
S't4'
p185
sg9
S'Anaphora-C'
p186
sg10
S'i22'
p187
sg12
S'i19'
p188
sg13
Nsg14
(lp189
(i__main__
Token
p190
(dp191
g18
I116
sbasg27
I116
sba(i__main__
Mention
p192
(dp193
g7
S't4'
p194
sg9
S'Anaphora-C'
p195
sg10
S'i23'
p196
sg12
S'i22'
p197
sg13
Nsg14
(lp198
(i__main__
Token
p199
(dp200
g18
I117
sbasg27
I117
sba(i__main__
Mention
p201
(dp202
g7
S't4'
p203
sg9
S'Coreference-Noun-Noun'
p204
sg10
S'i24'
p205
sg12
S'i23'
p206
sg13
Nsg14
(lp207
(i__main__
Token
p208
(dp209
g18
I135
sbasg27
I135
sba(i__main__
Mention
p210
(dp211
g7
S't4'
p212
sg9
S'Anaphora-C'
p213
sg10
S'i31'
p214
sg12
S'i24'
p215
sg13
Nsg14
(lp216
(i__main__
Token
p217
(dp218
g18
I167
sbasg27
I167
sba(i__main__
Mention
p219
(dp220
g7
S't4'
p221
sg9
S'Anaphora-C'
p222
sg10
S'i32'
p223
sg12
S'i31'
p224
sg13
Nsg14
(lp225
(i__main__
Token
p226
(dp227
g18
I171
sbasg27
I171
sba(i__main__
Mention
p228
(dp229
g7
S't4'
p230
sg9
S'Anaphora-C'
p231
sg10
S'i33'
p232
sg12
S'i32'
p233
sg13
Nsg14
(lp234
(i__main__
Token
p235
(dp236
g18
I179
sbasg27
I179
sba(i__main__
Mention
p237
(dp238
g7
S't4'
p239
sg9
S'Anaphora-C'
p240
sg10
S'i34'
p241
sg12
S'i33'
p242
sg13
Nsg14
(lp243
(i__main__
Token
p244
(dp245
g18
I184
sbasg27
I184
sba(i__main__
Mention
p246
(dp247
g7
S't4'
p248
sg9
S'Anaphora-C'
p249
sg10
S'i37'
p250
sg12
S'i34'
p251
sg13
Nsg14
(lp252
(i__main__
Token
p253
(dp254
g18
I192
sbasg27
I192
sbasg7
g134
sg46
Nsba(i__main__
Chain
p255
(dp256
g3
(lp257
(i__main__
Mention
p258
(dp259
g7
S't5'
p260
sg9
Nsg10
S'i9'
p261
sg12
Nsg13
Nsg14
(lp262
(i__main__
Token
p263
(dp264
g18
I46
sbasg27
I46
sba(i__main__
Mention
p265
(dp266
g7
S't5'
p267
sg9
S'Anaphora-RC'
p268
sg10
S'i11'
p269
sg12
S'i9'
p270
sg13
Nsg14
(lp271
(i__main__
Token
p272
(dp273
g18
I53
sba(i__main__
Token
p274
(dp275
g18
I54
sba(i__main__
Token
p276
(dp277
g18
I55
sba(i__main__
Token
p278
(dp279
g18
I56
sba(i__main__
Token
p280
(dp281
g18
I57
sba(i__main__
Token
p282
(dp283
g18
I58
sba(i__main__
Token
p284
(dp285
g18
I59
sba(i__main__
Token
p286
(dp287
g18
I60
sba(i__main__
Token
p288
(dp289
g18
I61
sba(i__main__
Token
p290
(dp291
g18
I62
sbasg27
I62
sbasg7
g260
sg46
Nsba(i__main__
Chain
p292
(dp293
g3
(lp294
(i__main__
Mention
p295
(dp296
g7
S't6'
p297
sg9
Nsg10
S'i10'
p298
sg12
Nsg13
Nsg14
(lp299
(i__main__
Token
p300
(dp301
g18
I53
sbasg27
I53
sba(i__main__
Mention
p302
(dp303
g7
S't6'
p304
sg9
S'Coreference-Identity'
p305
sg10
S'i26'
p306
sg12
S'i10'
p307
sg13
Nsg14
(lp308
(i__main__
Token
p309
(dp310
g18
I141
sbasg27
I141
sba(i__main__
Mention
p311
(dp312
g7
S't6'
p313
sg9
S'Coreference-Identity'
p314
sg10
S'i27'
p315
sg12
S'i26'
p316
sg13
Nsg14
(lp317
(i__main__
Token
p318
(dp319
g18
I142
sbasg27
I142
sba(i__main__
Mention
p320
(dp321
g7
S't6'
p322
sg9
S'Anaphora-C'
p323
sg10
S'i29'
p324
sg12
S'i27'
p325
sg13
Nsg14
(lp326
(i__main__
Token
p327
(dp328
g18
I161
sbasg27
I161
sbasg7
g297
sg46
Nsba(i__main__
Chain
p329
(dp330
g3
(lp331
(i__main__
Mention
p332
(dp333
g7
S't7'
p334
sg9
Nsg10
S'i12'
p335
sg12
Nsg13
Nsg14
(lp336
(i__main__
Token
p337
(dp338
g18
I59
sbasg27
I59
sbasg7
g334
sg46
Nsba(i__main__
Chain
p339
(dp340
g3
(lp341
(i__main__
Mention
p342
(dp343
g7
S't8'
p344
sg9
Nsg10
S'i13'
p345
sg12
Nsg13
Nsg14
(lp346
(i__main__
Token
p347
(dp348
g18
I74
sba(i__main__
Token
p349
(dp350
g18
I75
sba(i__main__
Token
p351
(dp352
g18
I76
sba(i__main__
Token
p353
(dp354
g18
I77
sba(i__main__
Token
p355
(dp356
g18
I78
sba(i__main__
Token
p357
(dp358
g18
I79
sba(i__main__
Token
p359
(dp360
g18
I80
sba(i__main__
Token
p361
(dp362
g18
I81
sba(i__main__
Token
p363
(dp364
g18
I82
sba(i__main__
Token
p365
(dp366
g18
I83
sbasg27
I83
sba(i__main__
Mention
p367
(dp368
g7
S't8'
p369
sg9
S'Coreference-Bracketed/Abbraviation'
p370
sg10
S'i14'
p371
sg12
S'i17'
p372
sg13
Nsg14
(lp373
(i__main__
Token
p374
(dp375
g18
I85
sbasg27
I85
sba(i__main__
Mention
p376
(dp377
g7
S't8'
p378
sg9
S'Coreference-Bracketed/Abbraviation'
p379
sg10
S'i38'
p380
sg12
S'i18'
p381
sg13
Nsg14
(lp382
(i__main__
Token
p383
(dp384
g18
I210
sbasg27
I210
sba(i__main__
Mention
p385
(dp386
g7
S't8'
p387
sg9
S'Coreference-Bracketed/Abbraviation'
p388
sg10
S'i50'
p389
sg12
S'i38'
p390
sg13
Nsg14
(lp391
(i__main__
Token
p392
(dp393
g18
I274
sbasg27
I274
sbasg7
g344
sg46
Nsba(i__main__
Chain
p394
(dp395
g3
(lp396
(i__main__
Mention
p397
(dp398
g7
S't9'
p399
sg9
Nsg10
S'i20'
p400
sg12
Nsg13
Nsg14
(lp401
(i__main__
Token
p402
(dp403
g18
I111
sba(i__main__
Token
p404
(dp405
g18
I112
sbasg27
I112
sba(i__main__
Mention
p406
(dp407
g7
S't9'
p408
sg9
S'Anaphora-C'
p409
sg10
S'i21'
p410
sg12
S'i20'
p411
sg13
Nsg14
(lp412
(i__main__
Token
p413
(dp414
g18
I114
sbasg27
I114
sbasg7
g399
sg46
Nsba(i__main__
Chain
p415
(dp416
g3
(lp417
(i__main__
Mention
p418
(dp419
g7
S't10'
p420
sg9
Nsg10
S'i25'
p421
sg12
Nsg13
Nsg14
(lp422
(i__main__
Token
p423
(dp424
g18
I140
sba(i__main__
Token
p425
(dp426
g18
I141
sba(i__main__
Token
p427
(dp428
g18
I142
sba(i__main__
Token
p429
(dp430
g18
I143
sba(i__main__
Token
p431
(dp432
g18
I144
sba(i__main__
Token
p433
(dp434
g18
I145
sba(i__main__
Token
p435
(dp436
g18
I146
sba(i__main__
Token
p437
(dp438
g18
I147
sba(i__main__
Token
p439
(dp440
g18
I148
sba(i__main__
Token
p441
(dp442
g18
I149
sba(i__main__
Token
p443
(dp444
g18
I150
sba(i__main__
Token
p445
(dp446
g18
I151
sba(i__main__
Token
p447
(dp448
g18
I152
sba(i__main__
Token
p449
(dp450
g18
I153
sba(i__main__
Token
p451
(dp452
g18
I154
sba(i__main__
Token
p453
(dp454
g18
I155
sba(i__main__
Token
p455
(dp456
g18
I156
sba(i__main__
Token
p457
(dp458
g18
I157
sba(i__main__
Token
p459
(dp460
g18
I158
sbasg27
I152
sba(i__main__
Mention
p461
(dp462
g7
S't10'
p463
sg9
S'Anaphora-C'
p464
sg10
S'i28'
p465
sg12
S'i25'
p466
sg13
Nsg14
(lp467
(i__main__
Token
p468
(dp469
g18
I160
sbasg27
I160
sba(i__main__
Mention
p470
(dp471
g7
S't10'
p472
sg9
S'Coreference-Noun-Noun'
p473
sg10
S'i30'
p474
sg12
S'i28'
p475
sg13
Nsg14
(lp476
(i__main__
Token
p477
(dp478
g18
I162
sba(i__main__
Token
p479
(dp480
g18
I163
sbasg27
I163
sbasg7
g420
sg46
Nsba(i__main__
Chain
p481
(dp482
g3
(lp483
(i__main__
Mention
p484
(dp485
g7
S't11'
p486
sg9
Nsg10
S'i35'
p487
sg12
Nsg13
Nsg14
(lp488
(i__main__
Token
p489
(dp490
g18
I185
sbasg27
I185
sba(i__main__
Mention
p491
(dp492
g7
S't11'
p493
sg9
S'Anaphora-RC'
p494
sg10
S'i36'
p495
sg12
S'i35'
p496
sg13
Nsg14
(lp497
(i__main__
Token
p498
(dp499
g18
I189
sba(i__main__
Token
p500
(dp501
g18
I190
sba(i__main__
Token
p502
(dp503
g18
I191
sba(i__main__
Token
p504
(dp505
g18
I192
sba(i__main__
Token
p506
(dp507
g18
I193
sba(i__main__
Token
p508
(dp509
g18
I194
sba(i__main__
Token
p510
(dp511
g18
I195
sba(i__main__
Token
p512
(dp513
g18
I196
sba(i__main__
Token
p514
(dp515
g18
I197
sba(i__main__
Token
p516
(dp517
g18
I198
sba(i__main__
Token
p518
(dp519
g18
I199
sba(i__main__
Token
p520
(dp521
g18
I200
sba(i__main__
Token
p522
(dp523
g18
I201
sba(i__main__
Token
p524
(dp525
g18
I202
sba(i__main__
Token
p526
(dp527
g18
I203
sba(i__main__
Token
p528
(dp529
g18
I204
sba(i__main__
Token
p530
(dp531
g18
I205
sba(i__main__
Token
p532
(dp533
g18
I206
sbasg27
I205
sbasg7
g486
sg46
Nsba(i__main__
Chain
p534
(dp535
g3
(lp536
(i__main__
Mention
p537
(dp538
g7
S't12'
p539
sg9
Nsg10
S'i39'
p540
sg12
Nsg13
Nsg14
(lp541
(i__main__
Token
p542
(dp543
g18
I210
sba(i__main__
Token
p544
(dp545
g18
I211
sba(i__main__
Token
p546
(dp547
g18
I212
sba(i__main__
Token
p548
(dp549
g18
I213
sba(i__main__
Token
p550
(dp551
g18
I214
sbasg27
I214
sba(i__main__
Mention
p552
(dp553
g7
S't12'
p554
sg9
S'Coreference-Identity'
p555
sg10
S'i49'
p556
sg12
S'i39'
p557
sg13
Nsg14
(lp558
(i__main__
Token
p559
(dp560
g18
I265
sbasg27
I265
sbasg7
g539
sg46
Nsba(i__main__
Chain
p561
(dp562
g3
(lp563
(i__main__
Mention
p564
(dp565
g7
S't13'
p566
sg9
Nsg10
S'i41'
p567
sg12
Nsg13
Nsg14
(lp568
(i__main__
Token
p569
(dp570
g18
I225
sbasg27
I225
sba(i__main__
Mention
p571
(dp572
g7
S't13'
p573
sg9
S'Anaphora-C'
p574
sg10
S'i43'
p575
sg12
S'i41'
p576
sg13
Nsg14
(lp577
(i__main__
Token
p578
(dp579
g18
I233
sbasg27
I233
sba(i__main__
Mention
p580
(dp581
g7
S't13'
p582
sg9
S'Coreference-Identity'
p583
sg10
S'i47'
p584
sg12
S'i43'
p585
sg13
Nsg14
(lp586
(i__main__
Token
p587
(dp588
g18
I254
sbasg27
I254
sbasg7
g566
sg46
Nsba(i__main__
Chain
p589
(dp590
g3
(lp591
(i__main__
Mention
p592
(dp593
g7
S't14'
p594
sg9
Nsg10
S'i42'
p595
sg12
Nsg13
Nsg14
(lp596
(i__main__
Token
p597
(dp598
g18
I228
sbasg27
I228
sbasg7
g594
sg46
Nsba(i__main__
Chain
p599
(dp600
g3
(lp601
(i__main__
Mention
p602
(dp603
g7
S't15'
p604
sg9
Nsg10
S'i46'
p605
sg12
Nsg13
Nsg14
(lp606
(i__main__
Token
p607
(dp608
g18
I251
sbasg27
I251
sba(i__main__
Mention
p609
(dp610
g7
S't15'
p611
sg9
S'Anaphora-RC'
p612
sg10
S'i48'
p613
sg12
S'i46'
p614
sg13
Nsg14
(lp615
(i__main__
Token
p616
(dp617
g18
I254
sba(i__main__
Token
p618
(dp619
g18
I255
sba(i__main__
Token
p620
(dp621
g18
I256
sba(i__main__
Token
p622
(dp623
g18
I257
sba(i__main__
Token
p624
(dp625
g18
I258
sba(i__main__
Token
p626
(dp627
g18
I259
sba(i__main__
Token
p628
(dp629
g18
I260
sba(i__main__
Token
p630
(dp631
g18
I261
sba(i__main__
Token
p632
(dp633
g18
I262
sbasg27
I261
sbasg7
g604
sg46
Nsba(i__main__
Chain
p634
(dp635
g3
(lp636
(i__main__
Mention
p637
(dp638
g7
S't16'
p639
sg9
Nsg10
S'i51'
p640
sg12
Nsg13
Nsg14
(lp641
(i__main__
Token
p642
(dp643
g18
I276
sbasg27
I276
sba(i__main__
Mention
p644
(dp645
g7
S't16'
p646
sg9
S'Coreference-NounComplement'
p647
sg10
S'i52'
p648
sg12
S'i21'
p649
sg13
Nsg14
(lp650
(i__main__
Token
p651
(dp652
g18
I277
sba(i__main__
Token
p653
(dp654
g18
I278
sba(i__main__
Token
p655
(dp656
g18
I279
sbasg27
I279
sba(i__main__
Mention
p657
(dp658
g7
S't16'
p659
sg9
S'Anaphora-C'
p660
sg10
S'i54'
p661
sg12
S'i52'
p662
sg13
Nsg14
(lp663
(i__main__
Token
p664
(dp665
g18
I282
sbasg27
I282
sbasg7
g639
sg46
Nsba.