(lp0
(i__main__
Chain
p1
(dp2
S'mentionList'
p3
(lp4
(i__main__
Mention
p5
(dp6
S'chainId'
p7
S't1'
p8
sS'relType'
p9
NsS'mentionId'
p10
S'i1'
p11
sS'antecedentId'
p12
NsS'crefMod'
p13
NsS'tokenList'
p14
(lp15
(i__main__
Token
p16
(dp17
S'tokenId'
p18
I0
sba(i__main__
Token
p19
(dp20
g18
I1
sba(i__main__
Token
p21
(dp22
g18
I2
sba(i__main__
Token
p23
(dp24
g18
I3
sba(i__main__
Token
p25
(dp26
g18
I4
sbasS'mentionHead'
p27
I4
sba(i__main__
Mention
p28
(dp29
g7
S't1'
p30
sg9
S'Coreference-Identity'
p31
sg10
S'i5'
p32
sg12
S'i1'
p33
sg13
Nsg14
(lp34
(i__main__
Token
p35
(dp36
g18
I42
sbasg27
I42
sba(i__main__
Mention
p37
(dp38
g7
S't1'
p39
sg9
S'Coreference-Identity'
p40
sg10
S'i10'
p41
sg12
S'i5'
p42
sg13
Nsg14
(lp43
(i__main__
Token
p44
(dp45
g18
I106
sbasg27
I106
sba(i__main__
Mention
p46
(dp47
g7
S't1'
p48
sg9
S'Anaphora-C'
p49
sg10
S'i15'
p50
sg12
S'i10'
p51
sg13
Nsg14
(lp52
(i__main__
Token
p53
(dp54
g18
I163
sbasg27
I163
sbasg7
g8
sS'chainHead'
p55
Nsba(i__main__
Chain
p56
(dp57
g3
(lp58
(i__main__
Mention
p59
(dp60
g7
S't2'
p61
sg9
Nsg10
S'i2'
p62
sg12
Nsg13
Nsg14
(lp63
(i__main__
Token
p64
(dp65
g18
I16
sbasg27
I16
sba(i__main__
Mention
p66
(dp67
g7
S't2'
p68
sg9
S'Coreference-Identity'
p69
sg10
S'i8'
p70
sg12
S'i2'
p71
sg13
Nsg14
(lp72
(i__main__
Token
p73
(dp74
g18
I71
sbasg27
I71
sbasg7
g61
sg55
Nsba(i__main__
Chain
p75
(dp76
g3
(lp77
(i__main__
Mention
p78
(dp79
g7
S't3'
p80
sg9
Nsg10
S'i3'
p81
sg12
Nsg13
Nsg14
(lp82
(i__main__
Token
p83
(dp84
g18
I18
sba(i__main__
Token
p85
(dp86
g18
I19
sba(i__main__
Token
p87
(dp88
g18
I20
sbasg27
I20
sba(i__main__
Mention
p89
(dp90
g7
S't3'
p91
sg9
S'Coreference-Identity'
p92
sg10
S'i6'
p93
sg12
S'i3'
p94
sg13
Nsg14
(lp95
(i__main__
Token
p96
(dp97
g18
I46
sba(i__main__
Token
p98
(dp99
g18
I47
sba(i__main__
Token
p100
(dp101
g18
I48
sbasg27
I48
sbasg7
g80
sg55
Nsba(i__main__
Chain
p102
(dp103
g3
(lp104
(i__main__
Mention
p105
(dp106
g7
S't4'
p107
sg9
Nsg10
S'i4'
p108
sg12
Nsg13
Nsg14
(lp109
(i__main__
Token
p110
(dp111
g18
I25
sba(i__main__
Token
p112
(dp113
g18
I26
sbasg27
I26
sba(i__main__
Mention
p114
(dp115
g7
S't4'
p116
sg9
S'Coreference-Identity'
p117
sg10
S'i7'
p118
sg12
S'i4'
p119
sg13
Nsg14
(lp120
(i__main__
Token
p121
(dp122
g18
I53
sba(i__main__
Token
p123
(dp124
g18
I54
sbasg27
I54
sba(i__main__
Mention
p125
(dp126
g7
S't4'
p127
sg9
S'Coreference-Identity'
p128
sg10
S'i9'
p129
sg12
S'i7'
p130
sg13
Nsg14
(lp131
(i__main__
Token
p132
(dp133
g18
I88
sba(i__main__
Token
p134
(dp135
g18
I89
sbasg27
I89
sbasg7
g107
sg55
Nsba(i__main__
Chain
p136
(dp137
g3
(lp138
(i__main__
Mention
p139
(dp140
g7
S't5'
p141
sg9
Nsg10
S'i11'
p142
sg12
Nsg13
Nsg14
(lp143
(i__main__
Token
p144
(dp145
g18
I108
sba(i__main__
Token
p146
(dp147
g18
I109
sba(i__main__
Token
p148
(dp149
g18
I110
sbasg27
I110
sba(i__main__
Mention
p150
(dp151
g7
S't5'
p152
sg9
S'Coreference-Bracketed/Abbraviation'
p153
sg10
S'i12'
p154
sg12
S'i10'
p155
sg13
Nsg14
(lp156
(i__main__
Token
p157
(dp158
g18
I112
sbasg27
I112
sbasg7
g141
sg55
Nsba(i__main__
Chain
p159
(dp160
g3
(lp161
(i__main__
Mention
p162
(dp163
g7
S't6'
p164
sg9
Nsg10
S'i13'
p165
sg12
Nsg13
Nsg14
(lp166
(i__main__
Token
p167
(dp168
g18
I117
sba(i__main__
Token
p169
(dp170
g18
I118
sbasg27
I118
sba(i__main__
Mention
p171
(dp172
g7
S't6'
p173
sg9
S'Coreference-NounComplement'
p174
sg10
S'i14'
p175
sg12
S'i13'
p176
sg13
Nsg14
(lp177
(i__main__
Token
p178
(dp179
g18
I120
sba(i__main__
Token
p180
(dp181
g18
I121
sba(i__main__
Token
p182
(dp183
g18
I122
sba(i__main__
Token
p184
(dp185
g18
I123
sba(i__main__
Token
p186
(dp187
g18
I124
sbasg27
I124
sbasg7
g164
sg55
Nsba(i__main__
Chain
p188
(dp189
g3
(lp190
(i__main__
Mention
p191
(dp192
g7
S't7'
p193
sg9
Nsg10
S'i16'
p194
sg12
Nsg13
Nsg14
(lp195
(i__main__
Token
p196
(dp197
g18
I166
sba(i__main__
Token
p198
(dp199
g18
I167
sbasg27
I167
sba(i__main__
Mention
p200
(dp201
g7
S't7'
p202
sg9
S'Anaphora-C'
p203
sg10
S'i18'
p204
sg12
S'i16'
p205
sg13
Nsg14
(lp206
(i__main__
Token
p207
(dp208
g18
I168
sbasg27
I168
sba(i__main__
Mention
p209
(dp210
g7
S't7'
p211
sg9
S'Anaphora-C'
p212
sg10
S'i20'
p213
sg12
S'i18'
p214
sg13
Nsg14
(lp215
(i__main__
Token
p216
(dp217
g18
I177
sbasg27
I177
sbasg7
g193
sg55
Nsba(i__main__
Chain
p218
(dp219
g3
(lp220
(i__main__
Mention
p221
(dp222
g7
S't8'
p223
sg9
Nsg10
S'i17'
p224
sg12
Nsg13
Nsg14
(lp225
(i__main__
Token
p226
(dp227
g18
I166
sba(i__main__
Token
p228
(dp229
g18
I167
sba(i__main__
Token
p230
(dp231
g18
I168
sba(i__main__
Token
p232
(dp233
g18
I169
sba(i__main__
Token
p234
(dp235
g18
I170
sba(i__main__
Token
p236
(dp237
g18
I171
sba(i__main__
Token
p238
(dp239
g18
I172
sbasg27
I172
sba(i__main__
Mention
p240
(dp241
g7
S't8'
p242
sg9
S'Anaphora-E'
p243
sg10
S'i19'
p244
sg12
S'i17'
p245
sg13
Nsg14
(lp246
(i__main__
Token
p247
(dp248
g18
I176
sbasg27
I176
sbasg7
g223
sg55
Nsba.