(lp0
(i__main__
Chain
p1
(dp2
S'mentionList'
p3
(lp4
(i__main__
Mention
p5
(dp6
S'chainId'
p7
S't1'
p8
sS'relType'
p9
NsS'mentionId'
p10
S'i1'
p11
sS'antecedentId'
p12
NsS'crefMod'
p13
NsS'tokenList'
p14
(lp15
(i__main__
Token
p16
(dp17
S'tokenId'
p18
I2
sbasS'mentionHead'
p19
I2
sba(i__main__
Mention
p20
(dp21
g7
S't1'
p22
sg9
S'Coreference-Identity'
p23
sg10
S'i13'
p24
sg12
S'i1'
p25
sg13
Nsg14
(lp26
(i__main__
Token
p27
(dp28
g18
I51
sbasg19
I51
sba(i__main__
Mention
p29
(dp30
g7
S't1'
p31
sg9
S'Coreference-Identity'
p32
sg10
S'i107'
p33
sg12
S'i13'
p34
sg13
Nsg14
(lp35
(i__main__
Token
p36
(dp37
g18
I427
sbasg19
I427
sbasg7
g8
sS'chainHead'
p38
Nsba(i__main__
Chain
p39
(dp40
g3
(lp41
(i__main__
Mention
p42
(dp43
g7
S't2'
p44
sg9
Nsg10
S'i2'
p45
sg12
Nsg13
Nsg14
(lp46
(i__main__
Token
p47
(dp48
g18
I14
sbasg19
I14
sba(i__main__
Mention
p49
(dp50
g7
S't2'
p51
sg9
S'Coreference-Identity'
p52
sg10
S'i6'
p53
sg12
S'i2'
p54
sg13
Nsg14
(lp55
(i__main__
Token
p56
(dp57
g18
I30
sbasg19
I30
sba(i__main__
Mention
p58
(dp59
g7
S't2'
p60
sg9
S'Coreference-Identity'
p61
sg10
S'i10'
p62
sg12
S'i6'
p63
sg13
Nsg14
(lp64
(i__main__
Token
p65
(dp66
g18
I41
sbasg19
I41
sba(i__main__
Mention
p67
(dp68
g7
S't2'
p69
sg9
S'Coreference-Identity'
p70
sg10
S'i18'
p71
sg12
S'i10'
p72
sg13
Nsg14
(lp73
(i__main__
Token
p74
(dp75
g18
I76
sbasg19
I76
sba(i__main__
Mention
p76
(dp77
g7
S't2'
p78
sg9
S'Coreference-Identity'
p79
sg10
S'i32'
p80
sg12
S'i18'
p81
sg13
Nsg14
(lp82
(i__main__
Token
p83
(dp84
g18
I138
sbasg19
I138
sba(i__main__
Mention
p85
(dp86
g7
S't2'
p87
sg9
S'Coreference-Identity'
p88
sg10
S'i44'
p89
sg12
S'i32'
p90
sg13
Nsg14
(lp91
(i__main__
Token
p92
(dp93
g18
I194
sbasg19
I194
sba(i__main__
Mention
p94
(dp95
g7
S't2'
p96
sg9
S'Coreference-Identity'
p97
sg10
S'i56'
p98
sg12
S'i44'
p99
sg13
Nsg14
(lp100
(i__main__
Token
p101
(dp102
g18
I232
sbasg19
I232
sba(i__main__
Mention
p103
(dp104
g7
S't2'
p105
sg9
S'Coreference-Identity'
p106
sg10
S'i62'
p107
sg12
S'i56'
p108
sg13
Nsg14
(lp109
(i__main__
Token
p110
(dp111
g18
I257
sbasg19
I257
sba(i__main__
Mention
p112
(dp113
g7
S't2'
p114
sg9
S'Coreference-Noun-Noun'
p115
sg10
S'i76'
p116
sg12
S'i62'
p117
sg13
Nsg14
(lp118
(i__main__
Token
p119
(dp120
g18
I301
sbasg19
I301
sba(i__main__
Mention
p121
(dp122
g7
S't2'
p123
sg9
S'Coreference-Noun-Noun'
p124
sg10
S'i89'
p125
sg12
S'i76'
p126
sg13
Nsg14
(lp127
(i__main__
Token
p128
(dp129
g18
I352
sbasg19
I352
sba(i__main__
Mention
p130
(dp131
g7
S't2'
p132
sg9
S'Coreference-Noun-Noun'
p133
sg10
S'i95'
p134
sg12
S'i89'
p135
sg13
Nsg14
(lp136
(i__main__
Token
p137
(dp138
g18
I377
sbasg19
I377
sba(i__main__
Mention
p139
(dp140
g7
S't2'
p141
sg9
S'Coreference-Identity'
p142
sg10
S'i108'
p143
sg12
S'i95'
p144
sg13
Nsg14
(lp145
(i__main__
Token
p146
(dp147
g18
I432
sbasg19
I432
sba(i__main__
Mention
p148
(dp149
g7
S't2'
p150
sg9
S'Coreference-Identity'
p151
sg10
S'i110'
p152
sg12
S'i108'
p153
sg13
Nsg14
(lp154
(i__main__
Token
p155
(dp156
g18
I443
sbasg19
I443
sba(i__main__
Mention
p157
(dp158
g7
S't2'
p159
sg9
S'Coreference-Noun-Noun'
p160
sg10
S'i113'
p161
sg12
S'i110'
p162
sg13
Nsg14
(lp163
(i__main__
Token
p164
(dp165
g18
I464
sbasg19
I464
sba(i__main__
Mention
p166
(dp167
g7
S't2'
p168
sg9
S'Coreference-Identity'
p169
sg10
S'i117'
p170
sg12
S'i113'
p171
sg13
Nsg14
(lp172
(i__main__
Token
p173
(dp174
g18
I475
sbasg19
I475
sbasg7
g44
sg38
Nsba(i__main__
Chain
p175
(dp176
g3
(lp177
(i__main__
Mention
p178
(dp179
g7
S't3'
p180
sg9
S'anaphora-?'
p181
sg10
S'i3'
p182
sg12
S'i3'
p183
sg13
Nsg14
(lp184
(i__main__
Token
p185
(dp186
g18
I18
sbasg19
I18
sbasg7
g180
sg38
Nsba(i__main__
Chain
p187
(dp188
g3
(lp189
(i__main__
Mention
p190
(dp191
g7
S't4'
p192
sg9
Nsg10
S'i4'
p193
sg12
Nsg13
Nsg14
(lp194
(i__main__
Token
p195
(dp196
g18
I26
sbasg19
I26
sba(i__main__
Mention
p197
(dp198
g7
S't4'
p199
sg9
S'Anaphora-RC'
p200
sg10
S'i9'
p201
sg12
S'i4'
p202
sg13
Nsg14
(lp203
(i__main__
Token
p204
(dp205
g18
I38
sba(i__main__
Token
p206
(dp207
g18
I39
sbasg19
I39
sba(i__main__
Mention
p208
(dp209
g7
S't4'
p210
sg9
S'Coreference-Identity'
p211
sg10
S'i21'
p212
sg12
S'i9'
p213
sg13
Nsg14
(lp214
(i__main__
Token
p215
(dp216
g18
I100
sba(i__main__
Token
p217
(dp218
g18
I101
sbasg19
I101
sba(i__main__
Mention
p219
(dp220
g7
S't4'
p221
sg9
S'Coreference-Identity'
p222
sg10
S'i30'
p223
sg12
S'i21'
p224
sg13
Nsg14
(lp225
(i__main__
Token
p226
(dp227
g18
I126
sba(i__main__
Token
p228
(dp229
g18
I127
sbasg19
I127
sba(i__main__
Mention
p230
(dp231
g7
S't4'
p232
sg9
S'Anaphora-C'
p233
sg10
S'i31'
p234
sg12
S'i30'
p235
sg13
Nsg14
(lp236
(i__main__
Token
p237
(dp238
g18
I137
sbasg19
I137
sba(i__main__
Mention
p239
(dp240
g7
S't4'
p241
sg9
S'Coreference-Identity'
p242
sg10
S'i36'
p243
sg12
S'i31'
p244
sg13
Nsg14
(lp245
(i__main__
Token
p246
(dp247
g18
I157
sbasg19
I157
sba(i__main__
Mention
p248
(dp249
g7
S't4'
p250
sg9
S'Anaphora-C'
p251
sg10
S'i38'
p252
sg12
S'i36'
p253
sg13
Nsg14
(lp254
(i__main__
Token
p255
(dp256
g18
I164
sbasg19
I164
sba(i__main__
Mention
p257
(dp258
g7
S't4'
p259
sg9
S'Anaphora-C'
p260
sg10
S'i39'
p261
sg12
S'i38'
p262
sg13
Nsg14
(lp263
(i__main__
Token
p264
(dp265
g18
I170
sbasg19
I170
sba(i__main__
Mention
p266
(dp267
g7
S't4'
p268
sg9
S'Anaphora-C'
p269
sg10
S'i41'
p270
sg12
S'i39'
p271
sg13
Nsg14
(lp272
(i__main__
Token
p273
(dp274
g18
I178
sbasg19
I178
sba(i__main__
Mention
p275
(dp276
g7
S't4'
p277
sg9
S'Coreference-Noun-Noun'
p278
sg10
S'i47'
p279
sg12
S'i41'
p280
sg13
Nsg14
(lp281
(i__main__
Token
p282
(dp283
g18
I200
sba(i__main__
Token
p284
(dp285
g18
I201
sbasg19
I201
sba(i__main__
Mention
p286
(dp287
g7
S't4'
p288
sg9
S'Coreference-Noun-Noun'
p289
sg10
S'i51'
p290
sg12
S'i116'
p291
sg13
Nsg14
(lp292
(i__main__
Token
p293
(dp294
g18
I216
sbasg19
I216
sba(i__main__
Mention
p295
(dp296
g7
S't4'
p297
sg9
S'Coreference-Identity'
p298
sg10
S'i52'
p299
sg12
S'i51'
p300
sg13
Nsg14
(lp301
(i__main__
Token
p302
(dp303
g18
I224
sbasg19
I224
sba(i__main__
Mention
p304
(dp305
g7
S't4'
p306
sg9
S'Coreference-Identity'
p307
sg10
S'i58'
p308
sg12
S'i52'
p309
sg13
Nsg14
(lp310
(i__main__
Token
p311
(dp312
g18
I244
sbasg19
I244
sba(i__main__
Mention
p313
(dp314
g7
S't4'
p315
sg9
S'Anaphora-C'
p316
sg10
S'i59'
p317
sg12
S'i58'
p318
sg13
Nsg14
(lp319
(i__main__
Token
p320
(dp321
g18
I248
sbasg19
I248
sba(i__main__
Mention
p322
(dp323
g7
S't4'
p324
sg9
S'Coreference-Identity'
p325
sg10
S'i69'
p326
sg12
S'i59'
p327
sg13
Nsg14
(lp328
(i__main__
Token
p329
(dp330
g18
I277
sbasg19
I277
sba(i__main__
Mention
p331
(dp332
g7
S't4'
p333
sg9
S'Coreference-Identity'
p334
sg10
S'i81'
p335
sg12
S'i69'
p336
sg13
Nsg14
(lp337
(i__main__
Token
p338
(dp339
g18
I315
sbasg19
I315
sba(i__main__
Mention
p340
(dp341
g7
S't4'
p342
sg9
Nsg10
S'i83'
p343
sg12
Nsg13
Nsg14
(lp344
(i__main__
Token
p345
(dp346
g18
I317
sbasg19
Nsba(i__main__
Mention
p347
(dp348
g7
S't4'
p349
sg9
S'Coreference-PartOf'
p350
sg10
S'i84'
p351
sg12
S'i121'
p352
sg13
Nsg14
(lp353
(i__main__
Token
p354
(dp355
g18
I325
sbasg19
I325
sba(i__main__
Mention
p356
(dp357
g7
S't4'
p358
sg9
S'Coreference-Identity'
p359
sg10
S'i87'
p360
sg12
S'i84'
p361
sg13
Nsg14
(lp362
(i__main__
Token
p363
(dp364
g18
I341
sbasg19
I341
sba(i__main__
Mention
p365
(dp366
g7
S't4'
p367
sg9
S'Anaphora-C'
p368
sg10
S'i91'
p369
sg12
S'i87'
p370
sg13
Nsg14
(lp371
(i__main__
Token
p372
(dp373
g18
I355
sbasg19
I355
sba(i__main__
Mention
p374
(dp375
g7
S't4'
p376
sg9
S'Anaphora-C'
p377
sg10
S'i92'
p378
sg12
S'i91'
p379
sg13
Nsg14
(lp380
(i__main__
Token
p381
(dp382
g18
I357
sbasg19
I357
sba(i__main__
Mention
p383
(dp384
g7
S't4'
p385
sg9
S'Coreference-Identity'
p386
sg10
S'i93'
p387
sg12
S'i92'
p388
sg13
Nsg14
(lp389
(i__main__
Token
p390
(dp391
g18
I371
sbasg19
I371
sba(i__main__
Mention
p392
(dp393
g7
S't4'
p394
sg9
S'Coreference-Identity'
p395
sg10
S'i98'
p396
sg12
S'i93'
p397
sg13
Nsg14
(lp398
(i__main__
Token
p399
(dp400
g18
I396
sbasg19
I396
sbasg7
g192
sg38
Nsba(i__main__
Chain
p401
(dp402
g3
(lp403
(i__main__
Mention
p404
(dp405
g7
S't5'
p406
sg9
Nsg10
S'i5'
p407
sg12
Nsg13
Nsg14
(lp408
(i__main__
Token
p409
(dp410
g18
I27
sba(i__main__
Token
p411
(dp412
g18
I28
sbasg19
I28
sba(i__main__
Mention
p413
(dp414
g7
S't5'
p415
sg9
S'Coreference-Noun-Noun'
p416
sg10
S'i7'
p417
sg12
S'i5'
p418
sg13
Nsg14
(lp419
(i__main__
Token
p420
(dp421
g18
I32
sba(i__main__
Token
p422
(dp423
g18
I33
sbasg19
I33
sba(i__main__
Mention
p424
(dp425
g7
S't5'
p426
sg9
S'Coreference-NounComplement'
p427
sg10
S'i8'
p428
sg12
S'i7'
p429
sg13
Nsg14
(lp430
(i__main__
Token
p431
(dp432
g18
I34
sba(i__main__
Token
p433
(dp434
g18
I35
sbasg19
I35
sba(i__main__
Mention
p435
(dp436
g7
S't5'
p437
sg9
S'Coreference-Noun-Noun'
p438
sg10
S'i45'
p439
sg12
S'i8'
p440
sg13
Nsg14
(lp441
(i__main__
Token
p442
(dp443
g18
I196
sba(i__main__
Token
p444
(dp445
g18
I197
sbasg19
I197
sba(i__main__
Mention
p446
(dp447
g7
S't5'
p448
sg9
S'Coreference-NounComplement'
p449
sg10
S'i46'
p450
sg12
S'i45'
p451
sg13
Nsg14
(lp452
(i__main__
Token
p453
(dp454
g18
I198
sba(i__main__
Token
p455
(dp456
g18
I199
sbasg19
I199
sba(i__main__
Mention
p457
(dp458
g7
S't5'
p459
sg9
S'Coreference-Identity'
p460
sg10
S'i80'
p461
sg12
S'i46'
p462
sg13
Nsg14
(lp463
(i__main__
Token
p464
(dp465
g18
I313
sbasg19
I313
sba(i__main__
Mention
p466
(dp467
g7
S't5'
p468
sg9
Nsg10
S'i82'
p469
sg12
Nsg13
Nsg14
(lp470
(i__main__
Token
p471
(dp472
g18
I317
sbasg19
Nsba(i__main__
Mention
p473
(dp474
g7
S't5'
p475
sg9
S'Coreference-PartOf'
p476
sg10
S'i88'
p477
sg12
S'i120'
p478
sg13
Nsg14
(lp479
(i__main__
Token
p480
(dp481
g18
I346
sbasg19
I346
sbasg7
g406
sg38
Nsba(i__main__
Chain
p482
(dp483
g3
(lp484
(i__main__
Mention
p485
(dp486
g7
S't6'
p487
sg9
Nsg10
S'i11'
p488
sg12
Nsg13
Nsg14
(lp489
(i__main__
Token
p490
(dp491
g18
I41
sba(i__main__
Token
p492
(dp493
g18
I42
sbasg19
I42
sba(i__main__
Mention
p494
(dp495
g7
S't6'
p496
sg9
S'Coreference-NounComplement'
p497
sg10
S'i12'
p498
sg12
S'i11'
p499
sg13
Nsg14
(lp500
(i__main__
Token
p501
(dp502
g18
I43
sba(i__main__
Token
p503
(dp504
g18
I44
sbasg19
I44
sba(i__main__
Mention
p505
(dp506
g7
S't6'
p507
sg9
S'Coreference-Identity'
p508
sg10
S'i15'
p509
sg12
S'i12'
p510
sg13
Nsg14
(lp511
(i__main__
Token
p512
(dp513
g18
I64
sba(i__main__
Token
p514
(dp515
g18
I65
sbasg19
I65
sba(i__main__
Mention
p516
(dp517
g7
S't6'
p518
sg9
S'Coreference-Identity'
p519
sg10
S'i66'
p520
sg12
S'i15'
p521
sg13
Nsg14
(lp522
(i__main__
Token
p523
(dp524
g18
I268
sba(i__main__
Token
p525
(dp526
g18
I269
sbasg19
I269
sba(i__main__
Mention
p527
(dp528
g7
S't6'
p529
sg9
S'Coreference-Identity'
p530
sg10
S'i70'
p531
sg12
S'i66'
p532
sg13
Nsg14
(lp533
(i__main__
Token
p534
(dp535
g18
I286
sba(i__main__
Token
p536
(dp537
g18
I287
sbasg19
I287
sba(i__main__
Mention
p538
(dp539
g7
S't6'
p540
sg9
S'Anaphora-C'
p541
sg10
S'i71'
p542
sg12
S'i70'
p543
sg13
Nsg14
(lp544
(i__main__
Token
p545
(dp546
g18
I289
sbasg19
I289
sba(i__main__
Mention
p547
(dp548
g7
S't6'
p549
sg9
S'Coreference-Noun-Noun'
p550
sg10
S'i90'
p551
sg12
S'i119'
p552
sg13
Nsg14
(lp553
(i__main__
Token
p554
(dp555
g18
I352
sba(i__main__
Token
p556
(dp557
g18
I353
sbasg19
I353
sba(i__main__
Mention
p558
(dp559
g7
S't6'
p560
sg9
S'Coreference-Noun-Noun'
p561
sg10
S'i94'
p562
sg12
S'i90'
p563
sg13
Nsg14
(lp564
(i__main__
Token
p565
(dp566
g18
I375
sbasg19
I375
sba(i__main__
Mention
p567
(dp568
g7
S't6'
p569
sg9
S'Anaphora-C'
p570
sg10
S'i96'
p571
sg12
S'i94'
p572
sg13
Nsg14
(lp573
(i__main__
Token
p574
(dp575
g18
I383
sbasg19
I383
sba(i__main__
Mention
p576
(dp577
g7
S't6'
p578
sg9
S'Coreference-Noun-Noun'
p579
sg10
S'i101'
p580
sg12
S'i96'
p581
sg13
Nsg14
(lp582
(i__main__
Token
p583
(dp584
g18
I402
sba(i__main__
Token
p585
(dp586
g18
I403
sbasg19
I403
sba(i__main__
Mention
p587
(dp588
g7
S't6'
p589
sg9
S'Coreference-Identity'
p590
sg10
S'i105'
p591
sg12
S'i101'
p592
sg13
Nsg14
(lp593
(i__main__
Token
p594
(dp595
g18
I425
sba(i__main__
Token
p596
(dp597
g18
I426
sbasg19
I426
sba(i__main__
Mention
p598
(dp599
g7
S't6'
p600
sg9
S'Coreference-Noun-Noun'
p601
sg10
S'i118'
p602
sg12
S'i105'
p603
sg13
Nsg14
(lp604
(i__main__
Token
p605
(dp606
g18
I475
sba(i__main__
Token
p607
(dp608
g18
I476
sbasg19
I476
sba(i__main__
Mention
p609
(dp610
g7
S't6'
p611
sg9
S'Anaphora-C'
p612
sg10
S'i119'
p613
sg12
S'i118'
p614
sg13
Nsg14
(lp615
(i__main__
Token
p616
(dp617
g18
I477
sbasg19
I477
sba(i__main__
Mention
p618
(dp619
g7
S't6'
p620
sg9
S'Anaphora-C'
p621
sg10
S'i120'
p622
sg12
S'i119'
p623
sg13
Nsg14
(lp624
(i__main__
Token
p625
(dp626
g18
I482
sbasg19
I482
sbasg7
g487
sg38
Nsba(i__main__
Chain
p627
(dp628
g3
(lp629
(i__main__
Mention
p630
(dp631
g7
S't7'
p632
sg9
S'anaphora-?'
p633
sg10
S'i14'
p634
sg12
S'i14'
p635
sg13
Nsg14
(lp636
(i__main__
Token
p637
(dp638
g18
I63
sbasg19
I63
sbasg7
g632
sg38
Nsba(i__main__
Chain
p639
(dp640
g3
(lp641
(i__main__
Mention
p642
(dp643
g7
S't8'
p644
sg9
Nsg10
S'i16'
p645
sg12
Nsg13
Nsg14
(lp646
(i__main__
Token
p647
(dp648
g18
I67
sba(i__main__
Token
p649
(dp650
g18
I68
sbasg19
I68
sba(i__main__
Mention
p651
(dp652
g7
S't8'
p653
sg9
S'Coreference-Identity'
p654
sg10
S'i67'
p655
sg12
S'i16'
p656
sg13
Nsg14
(lp657
(i__main__
Token
p658
(dp659
g18
I271
sba(i__main__
Token
p660
(dp661
g18
I272
sbasg19
I272
sba(i__main__
Mention
p662
(dp663
g7
S't8'
p664
sg9
S'Coreference-Identity'
p665
sg10
S'i103'
p666
sg12
S'i67'
p667
sg13
Nsg14
(lp668
(i__main__
Token
p669
(dp670
g18
I417
sba(i__main__
Token
p671
(dp672
g18
I418
sbasg19
I418
sba(i__main__
Mention
p673
(dp674
g7
S't8'
p675
sg9
S'Coreference-Identity'
p676
sg10
S'i111'
p677
sg12
S'i103'
p678
sg13
Nsg14
(lp679
(i__main__
Token
p680
(dp681
g18
I448
sba(i__main__
Token
p682
(dp683
g18
I449
sbasg19
I449
sbasg7
g644
sg38
Nsba(i__main__
Chain
p684
(dp685
g3
(lp686
(i__main__
Mention
p687
(dp688
g7
S't9'
p689
sg9
Nsg10
S'i17'
p690
sg12
Nsg13
Nsg14
(lp691
(i__main__
Token
p692
(dp693
g18
I74
sbasg19
I74
sba(i__main__
Mention
p694
(dp695
g7
S't9'
p696
sg9
S'Coreference-Identity'
p697
sg10
S'i23'
p698
sg12
S'i17'
p699
sg13
Nsg14
(lp700
(i__main__
Token
p701
(dp702
g18
I113
sbasg19
I113
sbasg7
g689
sg38
Nsba(i__main__
Chain
p703
(dp704
g3
(lp705
(i__main__
Mention
p706
(dp707
g7
S't10'
p708
sg9
Nsg10
S'i19'
p709
sg12
Nsg13
Nsg14
(lp710
(i__main__
Token
p711
(dp712
g18
I84
sbasg19
I84
sba(i__main__
Mention
p713
(dp714
g7
S't10'
p715
sg9
S'Coreference-Identity'
p716
sg10
S'i20'
p717
sg12
S'i19'
p718
sg13
Nsg14
(lp719
(i__main__
Token
p720
(dp721
g18
I98
sbasg19
I98
sba(i__main__
Mention
p722
(dp723
g7
S't10'
p724
sg9
S'Coreference-Noun-Noun'
p725
sg10
S'i22'
p726
sg12
S'i20'
p727
sg13
Nsg14
(lp728
(i__main__
Token
p729
(dp730
g18
I103
sbasg19
I103
sba(i__main__
Mention
p731
(dp732
g7
S't10'
p733
sg9
S'Coreference-Noun-Noun'
p734
sg10
S'i24'
p735
sg12
S'i22'
p736
sg13
Nsg14
(lp737
(i__main__
Token
p738
(dp739
g18
I113
sba(i__main__
Token
p740
(dp741
g18
I114
sbasg19
I114
sba(i__main__
Mention
p742
(dp743
g7
S't10'
p744
sg9
S'Coreference-Noun-Noun'
p745
sg10
S'i29'
p746
sg12
S'i24'
p747
sg13
Nsg14
(lp748
(i__main__
Token
p749
(dp750
g18
I125
sbasg19
I125
sba(i__main__
Mention
p751
(dp752
g7
S't10'
p753
sg9
S'Anaphora-C'
p754
sg10
S'i33'
p755
sg12
S'i29'
p756
sg13
Nsg14
(lp757
(i__main__
Token
p758
(dp759
g18
I151
sbasg19
I151
sba(i__main__
Mention
p760
(dp761
g7
S't10'
p762
sg9
S'Coreference-Noun-Noun'
p763
sg10
S'i40'
p764
sg12
S'i114'
p765
sg13
Nsg14
(lp766
(i__main__
Token
p767
(dp768
g18
I171
sbasg19
I171
sba(i__main__
Mention
p769
(dp770
g7
S't10'
p771
sg9
S'Anaphora-C'
p772
sg10
S'i42'
p773
sg12
S'i40'
p774
sg13
Nsg14
(lp775
(i__main__
Token
p776
(dp777
g18
I179
sbasg19
I179
sbasg7
g708
sg38
Nsba(i__main__
Chain
p778
(dp779
g3
(lp780
(i__main__
Mention
p781
(dp782
g7
S't11'
p783
sg9
Nsg10
S'i25'
p784
sg12
Nsg13
Nsg14
(lp785
(i__main__
Token
p786
(dp787
g18
I116
sbasg19
I116
sba(i__main__
Mention
p788
(dp789
g7
S't11'
p790
sg9
S'Coreference-NounComplement'
p791
sg10
S'i26'
p792
sg12
S'i25'
p793
sg13
Nsg14
(lp794
(i__main__
Token
p795
(dp796
g18
I117
sba(i__main__
Token
p797
(dp798
g18
I118
sbasg19
I118
sba(i__main__
Mention
p799
(dp800
g7
S't11'
p801
sg9
S'Anaphora-C'
p802
sg10
S'i28'
p803
sg12
S'i26'
p804
sg13
Nsg14
(lp805
(i__main__
Token
p806
(dp807
g18
I124
sbasg19
I124
sbasg7
g783
sg38
Nsba(i__main__
Chain
p808
(dp809
g3
(lp810
(i__main__
Mention
p811
(dp812
g7
S't12'
p813
sg9
Nsg10
S'i27'
p814
sg12
Nsg13
Nsg14
(lp815
(i__main__
Token
p816
(dp817
g18
I120
sbasg19
I120
sba(i__main__
Mention
p818
(dp819
g7
S't12'
p820
sg9
S'Coreference-Identity'
p821
sg10
S'i53'
p822
sg12
S'i27'
p823
sg13
Nsg14
(lp824
(i__main__
Token
p825
(dp826
g18
I225
sbasg19
I225
sbasg7
g813
sg38
Nsba(i__main__
Chain
p827
(dp828
g3
(lp829
(i__main__
Mention
p830
(dp831
g7
S't13'
p832
sg9
S'anaphora-?'
p833
sg10
S'i35'
p834
sg12
S'i35'
p835
sg13
Nsg14
(lp836
(i__main__
Token
p837
(dp838
g18
I156
sbasg19
I156
sbasg7
g832
sg38
Nsba(i__main__
Chain
p839
(dp840
g3
(lp841
(i__main__
Mention
p842
(dp843
g7
S't14'
p844
sg9
S'anaphora-?'
p845
sg10
S'i37'
p846
sg12
S'i37'
p847
sg13
Nsg14
(lp848
(i__main__
Token
p849
(dp850
g18
I163
sbasg19
I163
sbasg7
g844
sg38
Nsba(i__main__
Chain
p851
(dp852
g3
(lp853
(i__main__
Mention
p854
(dp855
g7
S't15'
p856
sg9
Nsg10
S'i48'
p857
sg12
Nsg13
Nsg14
(lp858
(i__main__
Token
p859
(dp860
g18
I208
sbasg19
I208
sba(i__main__
Mention
p861
(dp862
g7
S't15'
p863
sg9
S'Coreference-Identity'
p864
sg10
S'i54'
p865
sg12
S'i48'
p866
sg13
Nsg14
(lp867
(i__main__
Token
p868
(dp869
g18
I227
sbasg19
I227
sba(i__main__
Mention
p870
(dp871
g7
S't15'
p872
sg9
S'Anaphora-C'
p873
sg10
S'i55'
p874
sg12
S'i54'
p875
sg13
Nsg14
(lp876
(i__main__
Token
p877
(dp878
g18
I231
sbasg19
I231
sbasg7
g856
sg38
Nsba(i__main__
Chain
p879
(dp880
g3
(lp881
(i__main__
Mention
p882
(dp883
g7
S't16'
p884
sg9
S'anaphora-E'
p885
sg10
S'i49'
p886
sg12
S'i50'
p887
sg13
Nsg14
(lp888
(i__main__
Token
p889
(dp890
g18
I213
sbasg19
I213
sbasg7
g884
sg38
Nsba(i__main__
Chain
p891
(dp892
g3
(lp893
(i__main__
Mention
p894
(dp895
g7
S't17'
p896
sg9
Nsg10
S'i57'
p897
sg12
Nsg13
Nsg14
(lp898
(i__main__
Token
p899
(dp900
g18
I242
sbasg19
I242
sba(i__main__
Mention
p901
(dp902
g7
S't17'
p903
sg9
S'Anaphora-C'
p904
sg10
S'i60'
p905
sg12
S'i57'
p906
sg13
Nsg14
(lp907
(i__main__
Token
p908
(dp909
g18
I249
sbasg19
I249
sbasg7
g896
sg38
Nsba(i__main__
Chain
p910
(dp911
g3
(lp912
(i__main__
Mention
p913
(dp914
g7
S't18'
p915
sg9
S'anaphora-?'
p916
sg10
S'i61'
p917
sg12
S'i61'
p918
sg13
Nsg14
(lp919
(i__main__
Token
p920
(dp921
g18
I250
sbasg19
I250
sbasg7
g915
sg38
Nsba(i__main__
Chain
p922
(dp923
g3
(lp924
(i__main__
Mention
p925
(dp926
g7
S't19'
p927
sg9
Nsg10
S'i63'
p928
sg12
Nsg13
Nsg14
(lp929
(i__main__
Token
p930
(dp931
g18
I259
sba(i__main__
Token
p932
(dp933
g18
I260
sbasg19
I260
sba(i__main__
Mention
p934
(dp935
g7
S't19'
p936
sg9
S'Coreference-NounComplement'
p937
sg10
S'i64'
p938
sg12
S'i63'
p939
sg13
Nsg14
(lp940
(i__main__
Token
p941
(dp942
g18
I261
sba(i__main__
Token
p943
(dp944
g18
I262
sbasg19
I262
sba(i__main__
Mention
p945
(dp946
g7
S't19'
p947
sg9
S'Anaphora-C'
p948
sg10
S'i68'
p949
sg12
S'i64'
p950
sg13
Nsg14
(lp951
(i__main__
Token
p952
(dp953
g18
I276
sbasg19
I276
sba(i__main__
Mention
p954
(dp955
g7
S't19'
p956
sg9
S'Coreference-Identity'
p957
sg10
S'i78'
p958
sg12
S'i68'
p959
sg13
Nsg14
(lp960
(i__main__
Token
p961
(dp962
g18
I308
sbasg19
I308
sba(i__main__
Mention
p963
(dp964
g7
S't19'
p965
sg9
S'Anaphora-C'
p966
sg10
S'i79'
p967
sg12
S'i78'
p968
sg13
Nsg14
(lp969
(i__main__
Token
p970
(dp971
g18
I312
sbasg19
I312
sbasg7
g927
sg38
Nsba(i__main__
Chain
p972
(dp973
g3
(lp974
(i__main__
Mention
p975
(dp976
g7
S't20'
p977
sg9
S'anaphora-?'
p978
sg10
S'i65'
p979
sg12
S'i65'
p980
sg13
Nsg14
(lp981
(i__main__
Token
p982
(dp983
g18
I267
sbasg19
I267
sbasg7
g977
sg38
Nsba(i__main__
Chain
p984
(dp985
g3
(lp986
(i__main__
Mention
p987
(dp988
g7
S't21'
p989
sg9
Nsg10
S'i73'
p990
sg12
Nsg13
Nsg14
(lp991
(i__main__
Token
p992
(dp993
g18
I295
sbasg19
I295
sbasg7
g989
sg38
Nsba(i__main__
Chain
p994
(dp995
g3
(lp996
(i__main__
Mention
p997
(dp998
g7
S't22'
p999
sg9
S'anaphora-E'
p1000
sg10
S'i74'
p1001
sg12
S'i75'
p1002
sg13
Nsg14
(lp1003
(i__main__
Token
p1004
(dp1005
g18
I299
sbasg19
I299
sbasg7
g999
sg38
Nsba(i__main__
Chain
p1006
(dp1007
g3
(lp1008
(i__main__
Mention
p1009
(dp1010
g7
S't23'
p1011
sg9
S'anaphora-?'
p1012
sg10
S'i77'
p1013
sg12
S'i77'
p1014
sg13
Nsg14
(lp1015
(i__main__
Token
p1016
(dp1017
g18
I303
sbasg19
I303
sbasg7
g1011
sg38
Nsba(i__main__
Chain
p1018
(dp1019
g3
(lp1020
(i__main__
Mention
p1021
(dp1022
g7
S't24'
p1023
sg9
S'anaphora-?'
p1024
sg10
S'i85'
p1025
sg12
S'i85'
p1026
sg13
Nsg14
(lp1027
(i__main__
Token
p1028
(dp1029
g18
I326
sbasg19
I326
sbasg7
g1023
sg38
Nsba(i__main__
Chain
p1030
(dp1031
g3
(lp1032
(i__main__
Mention
p1033
(dp1034
g7
S't25'
p1035
sg9
S'anaphora-?'
p1036
sg10
S'i86'
p1037
sg12
S'i86'
p1038
sg13
Nsg14
(lp1039
(i__main__
Token
p1040
(dp1041
g18
I330
sbasg19
I330
sbasg7
g1035
sg38
Nsba(i__main__
Chain
p1042
(dp1043
g3
(lp1044
(i__main__
Mention
p1045
(dp1046
g7
S't26'
p1047
sg9
Nsg10
S'i97'
p1048
sg12
Nsg13
Nsg14
(lp1049
(i__main__
Token
p1050
(dp1051
g18
I384
sbasg19
I384
sba(i__main__
Mention
p1052
(dp1053
g7
S't26'
p1054
sg9
S'Coreference-Identity'
p1055
sg10
S'i109'
p1056
sg12
S'i97'
p1057
sg13
Nsg14
(lp1058
(i__main__
Token
p1059
(dp1060
g18
I432
sba(i__main__
Token
p1061
(dp1062
g18
I433
sbasg19
I433
sbasg7
g1047
sg38
Nsba(i__main__
Chain
p1063
(dp1064
g3
(lp1065
(i__main__
Mention
p1066
(dp1067
g7
S't27'
p1068
sg9
Nsg10
S'i100'
p1069
sg12
Nsg13
Nsg14
(lp1070
(i__main__
Token
p1071
(dp1072
g18
I398
sba(i__main__
Token
p1073
(dp1074
g18
I399
sba(i__main__
Token
p1075
(dp1076
g18
I400
sbasg19
I400
sba(i__main__
Mention
p1077
(dp1078
g7
S't27'
p1079
sg9
S'anaphora-C'
p1080
sg10
S'i102'
p1081
sg12
S'i99'
p1082
sg13
Nsg14
(lp1083
(i__main__
Token
p1084
(dp1085
g18
I408
sbasg19
I408
sbasg7
g1068
sg38
Nsba(i__main__
Chain
p1086
(dp1087
g3
(lp1088
(i__main__
Mention
p1089
(dp1090
g7
S't28'
p1091
sg9
Nsg10
S'i104'
p1092
sg12
Nsg13
Nsg14
(lp1093
(i__main__
Token
p1094
(dp1095
g18
I424
sbasg19
I424
sba(i__main__
Mention
p1096
(dp1097
g7
S't28'
p1098
sg9
Nsg10
S'i106'
p1099
sg12
Nsg13
Nsg14
(lp1100
(i__main__
Token
p1101
(dp1102
g18
I425
sba(i__main__
Token
p1103
(dp1104
g18
I426
sba(i__main__
Token
p1105
(dp1106
g18
I427
sba(i__main__
Token
p1107
(dp1108
g18
I428
sba(i__main__
Token
p1109
(dp1110
g18
I429
sba(i__main__
Token
p1111
(dp1112
g18
I430
sba(i__main__
Token
p1113
(dp1114
g18
I431
sba(i__main__
Token
p1115
(dp1116
g18
I432
sba(i__main__
Token
p1117
(dp1118
g18
I433
sba(i__main__
Token
p1119
(dp1120
g18
I434
sba(i__main__
Token
p1121
(dp1122
g18
I435
sba(i__main__
Token
p1123
(dp1124
g18
I436
sba(i__main__
Token
p1125
(dp1126
g18
I437
sba(i__main__
Token
p1127
(dp1128
g18
I438
sba(i__main__
Token
p1129
(dp1130
g18
I439
sba(i__main__
Token
p1131
(dp1132
g18
I440
sbasg19
I438
sbasg7
g1091
sg38
Nsba(i__main__
Chain
p1133
(dp1134
g3
(lp1135
(i__main__
Mention
p1136
(dp1137
g7
S't29'
p1138
sg9
S'anaphora-?'
p1139
sg10
S'i112'
p1140
sg12
S'i112'
p1141
sg13
Nsg14
(lp1142
(i__main__
Token
p1143
(dp1144
g18
I451
sbasg19
I451
sbasg7
g1138
sg38
Nsba(i__main__
Chain
p1145
(dp1146
g3
(lp1147
(i__main__
Mention
p1148
(dp1149
g7
S't30'
p1150
sg9
Nsg10
S'i114'
p1151
sg12
Nsg13
Nsg14
(lp1152
(i__main__
Token
p1153
(dp1154
g18
I464
sba(i__main__
Token
p1155
(dp1156
g18
I465
sbasg19
I465
sba(i__main__
Mention
p1157
(dp1158
g7
S't30'
p1159
sg9
S'Coreference-Noun-Noun'
p1160
sg10
S'i115'
p1161
sg12
S'i114'
p1162
sg13
Nsg14
(lp1163
(i__main__
Token
p1164
(dp1165
g18
I469
sbasg19
I469
sba(i__main__
Mention
p1166
(dp1167
g7
S't30'
p1168
sg9
S'Coreference-NounComplement'
p1169
sg10
S'i116'
p1170
sg12
S'i115'
p1171
sg13
Nsg14
(lp1172
(i__main__
Token
p1173
(dp1174
g18
I470
sba(i__main__
Token
p1175
(dp1176
g18
I471
sbasg19
I471
sbasg7
g1150
sg38
Nsba.