(lp0
(i__main__
Chain
p1
(dp2
S'mentionList'
p3
(lp4
(i__main__
Mention
p5
(dp6
S'chainId'
p7
S't1'
p8
sS'relType'
p9
NsS'mentionId'
p10
S'i1'
p11
sS'antecedentId'
p12
NsS'crefMod'
p13
NsS'tokenList'
p14
(lp15
(i__main__
Token
p16
(dp17
S'tokenId'
p18
I1
sbasS'mentionHead'
p19
I1
sba(i__main__
Mention
p20
(dp21
g7
S't1'
p22
sg9
S'Coreference-Identity'
p23
sg10
S'i4'
p24
sg12
S'i1'
p25
sg13
Nsg14
(lp26
(i__main__
Token
p27
(dp28
g18
I35
sbasg19
I35
sba(i__main__
Mention
p29
(dp30
g7
S't1'
p31
sg9
S'Coreference-Identity'
p32
sg10
S'i23'
p33
sg12
S'i4'
p34
sg13
Nsg14
(lp35
(i__main__
Token
p36
(dp37
g18
I127
sbasg19
I127
sbasg7
g8
sS'chainHead'
p38
Nsba(i__main__
Chain
p39
(dp40
g3
(lp41
(i__main__
Mention
p42
(dp43
g7
S't2'
p44
sg9
Nsg10
S'i2'
p45
sg12
Nsg13
Nsg14
(lp46
(i__main__
Token
p47
(dp48
g18
I3
sba(i__main__
Token
p49
(dp50
g18
I6
sbasg19
Nsba(i__main__
Mention
p51
(dp52
g7
S't2'
p53
sg9
S'Coreference-RPartOf'
p54
sg10
S'i5'
p55
sg12
S'i2'
p56
sg13
Nsg14
(lp57
(i__main__
Token
p58
(dp59
g18
I37
sbasg19
I37
sba(i__main__
Mention
p60
(dp61
g7
S't2'
p62
sg9
Nsg10
S'i6'
p63
sg12
Nsg13
Nsg14
(lp64
(i__main__
Token
p65
(dp66
g18
I41
sba(i__main__
Token
p67
(dp68
g18
I42
sbasg19
Nsba(i__main__
Mention
p69
(dp70
g7
S't2'
p71
sg9
Nsg10
S'i8'
p72
sg12
Nsg13
Nsg14
(lp73
(i__main__
Token
p74
(dp75
g18
I51
sba(i__main__
Token
p76
(dp77
g18
I52
sbasg19
Nsba(i__main__
Mention
p78
(dp79
g7
S't2'
p80
sg9
Nsg10
S'i15'
p81
sg12
Nsg13
Nsg14
(lp82
(i__main__
Token
p83
(dp84
g18
I67
sba(i__main__
Token
p85
(dp86
g18
I68
sbasg19
Nsba(i__main__
Mention
p87
(dp88
g7
S't2'
p89
sg9
Nsg10
S'i19'
p90
sg12
Nsg13
Nsg14
(lp91
(i__main__
Token
p92
(dp93
g18
I120
sba(i__main__
Token
p94
(dp95
g18
I121
sba(i__main__
Token
p96
(dp97
g18
I122
sbasg19
Nsba(i__main__
Mention
p98
(dp99
g7
S't2'
p100
sg9
S'Coreference-RPartOf'
p101
sg10
S'i24'
p102
sg12
S'i19'
p103
sg13
Nsg14
(lp104
(i__main__
Token
p105
(dp106
g18
I129
sbasg19
I129
sba(i__main__
Mention
p107
(dp108
g7
S't2'
p109
sg9
S'Coreference-Identity'
p110
sg10
S'i27'
p111
sg12
S'i24'
p112
sg13
Nsg14
(lp113
(i__main__
Token
p114
(dp115
g18
I155
sbasg19
I155
sba(i__main__
Mention
p116
(dp117
g7
S't2'
p118
sg9
S'Coreference-Identity'
p119
sg10
S'i29'
p120
sg12
S'i27'
p121
sg13
Nsg14
(lp122
(i__main__
Token
p123
(dp124
g18
I182
sbasg19
I182
sbasg7
g44
sg38
Nsba(i__main__
Chain
p125
(dp126
g3
(lp127
(i__main__
Mention
p128
(dp129
g7
S't3'
p130
sg9
Nsg10
S'i3'
p131
sg12
Nsg13
Nsg14
(lp132
(i__main__
Token
p133
(dp134
g18
I3
sba(i__main__
Token
p135
(dp136
g18
I6
sbasg19
Nsba(i__main__
Mention
p137
(dp138
g7
S't3'
p139
sg9
Nsg10
S'i7'
p140
sg12
Nsg13
Nsg14
(lp141
(i__main__
Token
p142
(dp143
g18
I41
sba(i__main__
Token
p144
(dp145
g18
I42
sbasg19
Nsba(i__main__
Mention
p146
(dp147
g7
S't3'
p148
sg9
Nsg10
S'i9'
p149
sg12
Nsg13
Nsg14
(lp150
(i__main__
Token
p151
(dp152
g18
I51
sba(i__main__
Token
p153
(dp154
g18
I52
sbasg19
Nsba(i__main__
Mention
p155
(dp156
g7
S't3'
p157
sg9
Nsg10
S'i14'
p158
sg12
Nsg13
Nsg14
(lp159
(i__main__
Token
p160
(dp161
g18
I67
sba(i__main__
Token
p162
(dp163
g18
I68
sbasg19
Nsba(i__main__
Mention
p164
(dp165
g7
S't3'
p166
sg9
Nsg10
S'i20'
p167
sg12
Nsg13
Nsg14
(lp168
(i__main__
Token
p169
(dp170
g18
I120
sba(i__main__
Token
p171
(dp172
g18
I121
sba(i__main__
Token
p173
(dp174
g18
I122
sbasg19
Nsbasg7
g130
sg38
Nsba(i__main__
Chain
p175
(dp176
g3
(lp177
(i__main__
Mention
p178
(dp179
g7
S't4'
p180
sg9
Nsg10
S'i10'
p181
sg12
Nsg13
Nsg14
(lp182
(i__main__
Token
p183
(dp184
g18
I57
sba(i__main__
Token
p185
(dp186
g18
I58
sbasg19
I58
sba(i__main__
Mention
p187
(dp188
g7
S't4'
p189
sg9
S'Coreference-Identity'
p190
sg10
S'i13'
p191
sg12
S'i10'
p192
sg13
Nsg14
(lp193
(i__main__
Token
p194
(dp195
g18
I64
sba(i__main__
Token
p196
(dp197
g18
I65
sbasg19
I65
sbasg7
g180
sg38
Nsba(i__main__
Chain
p198
(dp199
g3
(lp200
(i__main__
Mention
p201
(dp202
g7
S't5'
p203
sg9
Nsg10
S'i11'
p204
sg12
Nsg13
Nsg14
(lp205
(i__main__
Token
p206
(dp207
g18
I60
sbasg19
I60
sba(i__main__
Mention
p208
(dp209
g7
S't5'
p210
sg9
S'Coreference-Identity'
p211
sg10
S'i16'
p212
sg12
S'i11'
p213
sg13
Nsg14
(lp214
(i__main__
Token
p215
(dp216
g18
I89
sbasg19
I89
sba(i__main__
Mention
p217
(dp218
g7
S't5'
p219
sg9
S'Anaphora-C'
p220
sg10
S'i17'
p221
sg12
S'i16'
p222
sg13
Nsg14
(lp223
(i__main__
Token
p224
(dp225
g18
I115
sbasg19
I115
sbasg7
g203
sg38
Nsba(i__main__
Chain
p226
(dp227
g3
(lp228
(i__main__
Mention
p229
(dp230
g7
S't6'
p231
sg9
Nsg10
S'i25'
p232
sg12
Nsg13
Nsg14
(lp233
(i__main__
Token
p234
(dp235
g18
I142
sbasg19
I142
sba(i__main__
Mention
p236
(dp237
g7
S't6'
p238
sg9
S'Anaphora-C'
p239
sg10
S'i26'
p240
sg12
S'i25'
p241
sg13
Nsg14
(lp242
(i__main__
Token
p243
(dp244
g18
I147
sbasg19
I147
sba(i__main__
Mention
p245
(dp246
g7
S't6'
p247
sg9
S'Anaphora-C'
p248
sg10
S'i28'
p249
sg12
S'i26'
p250
sg13
Nsg14
(lp251
(i__main__
Token
p252
(dp253
g18
I163
sbasg19
I163
sbasg7
g231
sg38
Nsba.