(lp0
(i__main__
Chain
p1
(dp2
S'mentionList'
p3
(lp4
(i__main__
Mention
p5
(dp6
S'chainId'
p7
S't1'
p8
sS'relType'
p9
NsS'mentionId'
p10
S'i1'
p11
sS'antecedentId'
p12
NsS'crefMod'
p13
NsS'tokenList'
p14
(lp15
(i__main__
Token
p16
(dp17
S'tokenId'
p18
I2
sba(i__main__
Token
p19
(dp20
g18
I3
sbasS'mentionHead'
p21
I3
sba(i__main__
Mention
p22
(dp23
g7
S't1'
p24
sg9
S'Anaphora-C'
p25
sg10
S'i4'
p26
sg12
S'i1'
p27
sg13
Nsg14
(lp28
(i__main__
Token
p29
(dp30
g18
I17
sbasg21
I17
sba(i__main__
Mention
p31
(dp32
g7
S't1'
p33
sg9
S'Anaphora-C'
p34
sg10
S'i6'
p35
sg12
S'i4'
p36
sg13
Nsg14
(lp37
(i__main__
Token
p38
(dp39
g18
I30
sbasg21
I30
sbasg7
g8
sS'chainHead'
p40
Nsba(i__main__
Chain
p41
(dp42
g3
(lp43
(i__main__
Mention
p44
(dp45
g7
S't2'
p46
sg9
Nsg10
S'i2'
p47
sg12
Nsg13
Nsg14
(lp48
(i__main__
Token
p49
(dp50
g18
I4
sba(i__main__
Token
p51
(dp52
g18
I5
sbasg21
I5
sba(i__main__
Mention
p53
(dp54
g7
S't2'
p55
sg9
S'Coreference-Identity'
p56
sg10
S'i5'
p57
sg12
S'i2'
p58
sg13
Nsg14
(lp59
(i__main__
Token
p60
(dp61
g18
I25
sba(i__main__
Token
p62
(dp63
g18
I26
sbasg21
I26
sba(i__main__
Mention
p64
(dp65
g7
S't2'
p66
sg9
S'Coreference-Identity'
p67
sg10
S'i14'
p68
sg12
S'i5'
p69
sg13
Nsg14
(lp70
(i__main__
Token
p71
(dp72
g18
I70
sba(i__main__
Token
p73
(dp74
g18
I71
sbasg21
I71
sba(i__main__
Mention
p75
(dp76
g7
S't2'
p77
sg9
S'Coreference-Identity'
p78
sg10
S'i19'
p79
sg12
S'i14'
p80
sg13
Nsg14
(lp81
(i__main__
Token
p82
(dp83
g18
I97
sba(i__main__
Token
p84
(dp85
g18
I98
sbasg21
I98
sba(i__main__
Mention
p86
(dp87
g7
S't2'
p88
sg9
S'Coreference-PartOf'
p89
sg10
S'i26'
p90
sg12
S'i19'
p91
sg13
Nsg14
(lp92
(i__main__
Token
p93
(dp94
g18
I135
sba(i__main__
Token
p95
(dp96
g18
I136
sba(i__main__
Token
p97
(dp98
g18
I137
sba(i__main__
Token
p99
(dp100
g18
I138
sba(i__main__
Token
p101
(dp102
g18
I139
sbasg21
I139
sbasg7
g46
sg40
Nsba(i__main__
Chain
p103
(dp104
g3
(lp105
(i__main__
Mention
p106
(dp107
g7
S't3'
p108
sg9
Nsg10
S'i3'
p109
sg12
Nsg13
Nsg14
(lp110
(i__main__
Token
p111
(dp112
g18
I9
sbasg21
I9
sbasg7
g108
sg40
Nsba(i__main__
Chain
p113
(dp114
g3
(lp115
(i__main__
Mention
p116
(dp117
g7
S't4'
p118
sg9
Nsg10
S'i7'
p119
sg12
Nsg13
Nsg14
(lp120
(i__main__
Token
p121
(dp122
g18
I31
sbasg21
I31
sba(i__main__
Mention
p123
(dp124
g7
S't4'
p125
sg9
S'Coreference-Noun-Noun'
p126
sg10
S'i13'
p127
sg12
S'i7'
p128
sg13
Nsg14
(lp129
(i__main__
Token
p130
(dp131
g18
I62
sbasg21
I62
sba(i__main__
Mention
p132
(dp133
g7
S't4'
p134
sg9
S'Coreference-Identity'
p135
sg10
S'i16'
p136
sg12
S'i13'
p137
sg13
Nsg14
(lp138
(i__main__
Token
p139
(dp140
g18
I75
sbasg21
I75
sba(i__main__
Mention
p141
(dp142
g7
S't4'
p143
sg9
S'Coreference-Identity'
p144
sg10
S'i21'
p145
sg12
S'i16'
p146
sg13
Nsg14
(lp147
(i__main__
Token
p148
(dp149
g18
I109
sbasg21
I109
sba(i__main__
Mention
p150
(dp151
g7
S't4'
p152
sg9
S'Coreference-Identity'
p153
sg10
S'i27'
p154
sg12
S'i21'
p155
sg13
Nsg14
(lp156
(i__main__
Token
p157
(dp158
g18
I135
sbasg21
I135
sbasg7
g118
sg40
Nsba(i__main__
Chain
p159
(dp160
g3
(lp161
(i__main__
Mention
p162
(dp163
g7
S't5'
p164
sg9
Nsg10
S'i8'
p165
sg12
Nsg13
Nsg14
(lp166
(i__main__
Token
p167
(dp168
g18
I34
sbasg21
I34
sbasg7
g164
sg40
Nsba(i__main__
Chain
p169
(dp170
g3
(lp171
(i__main__
Mention
p172
(dp173
g7
S't6'
p174
sg9
Nsg10
S'i9'
p175
sg12
Nsg13
Nsg14
(lp176
(i__main__
Token
p177
(dp178
g18
I36
sbasg21
I36
sba(i__main__
Mention
p179
(dp180
g7
S't6'
p181
sg9
S'Coreference-PartOf'
p182
sg10
S'i10'
p183
sg12
S'i9'
p184
sg13
Nsg14
(lp185
(i__main__
Token
p186
(dp187
g18
I46
sba(i__main__
Token
p188
(dp189
g18
I47
sba(i__main__
Token
p190
(dp191
g18
I48
sba(i__main__
Token
p192
(dp193
g18
I49
sbasg21
I49
sbasg7
g174
sg40
Nsba(i__main__
Chain
p194
(dp195
g3
(lp196
(i__main__
Mention
p197
(dp198
g7
S't7'
p199
sg9
Nsg10
S'i11'
p200
sg12
Nsg13
Nsg14
(lp201
(i__main__
Token
p202
(dp203
g18
I53
sbasg21
I53
sba(i__main__
Mention
p204
(dp205
g7
S't7'
p206
sg9
S'Coreference-Identity'
p207
sg10
S'i17'
p208
sg12
S'i11'
p209
sg13
Nsg14
(lp210
(i__main__
Token
p211
(dp212
g18
I82
sba(i__main__
Token
p213
(dp214
g18
I83
sba(i__main__
Token
p215
(dp216
g18
I84
sba(i__main__
Token
p217
(dp218
g18
I85
sba(i__main__
Token
p219
(dp220
g18
I86
sba(i__main__
Token
p221
(dp222
g18
I87
sbasg21
I87
sbasg7
g199
sg40
Nsba(i__main__
Chain
p223
(dp224
g3
(lp225
(i__main__
Mention
p226
(dp227
g7
S't8'
p228
sg9
Nsg10
S'i12'
p229
sg12
Nsg13
Nsg14
(lp230
(i__main__
Token
p231
(dp232
g18
I62
sba(i__main__
Token
p233
(dp234
g18
I63
sba(i__main__
Token
p235
(dp236
g18
I64
sbasg21
I64
sba(i__main__
Mention
p237
(dp238
g7
S't8'
p239
sg9
S'Coreference-Identity'
p240
sg10
S'i20'
p241
sg12
S'i12'
p242
sg13
Nsg14
(lp243
(i__main__
Token
p244
(dp245
g18
I109
sba(i__main__
Token
p246
(dp247
g18
I110
sba(i__main__
Token
p248
(dp249
g18
I111
sbasg21
I111
sba(i__main__
Mention
p250
(dp251
g7
S't8'
p252
sg9
S'Anaphora-C'
p253
sg10
S'i22'
p254
sg12
S'i20'
p255
sg13
Nsg14
(lp256
(i__main__
Token
p257
(dp258
g18
I115
sbasg21
I115
sba(i__main__
Mention
p259
(dp260
g7
S't8'
p261
sg9
S'Coreference-Identity'
p262
sg10
S'i23'
p263
sg12
S'i22'
p264
sg13
Nsg14
(lp265
(i__main__
Token
p266
(dp267
g18
I121
sbasg21
I121
sbasg7
g228
sg40
Nsba(i__main__
Chain
p268
(dp269
g3
(lp270
(i__main__
Mention
p271
(dp272
g7
S't9'
p273
sg9
Nsg10
S'i15'
p274
sg12
Nsg13
Nsg14
(lp275
(i__main__
Token
p276
(dp277
g18
I73
sba(i__main__
Token
p278
(dp279
g18
I74
sba(i__main__
Token
p280
(dp281
g18
I75
sba(i__main__
Token
p282
(dp283
g18
I76
sbasg21
I76
sba(i__main__
Mention
p284
(dp285
g7
S't9'
p286
sg9
S'Anaphora-C'
p287
sg10
S'i18'
p288
sg12
S'i15'
p289
sg13
Nsg14
(lp290
(i__main__
Token
p291
(dp292
g18
I88
sbasg21
I88
sbasg7
g273
sg40
Nsba(i__main__
Chain
p293
(dp294
g3
(lp295
(i__main__
Mention
p296
(dp297
g7
S't10'
p298
sg9
Nsg10
S'i24'
p299
sg12
Nsg13
Nsg14
(lp300
(i__main__
Token
p301
(dp302
g18
I123
sbasg21
I123
sba(i__main__
Mention
p303
(dp304
g7
S't10'
p305
sg9
S'Coreference-NounComplement'
p306
sg10
S'i25'
p307
sg12
S'i24'
p308
sg13
Nsg14
(lp309
(i__main__
Token
p310
(dp311
g18
I124
sba(i__main__
Token
p312
(dp313
g18
I125
sbasg21
I125
sbasg7
g298
sg40
Nsba.