(lp0
(i__main__
Chain
p1
(dp2
S'mentionList'
p3
(lp4
(i__main__
Mention
p5
(dp6
S'chainId'
p7
S't1'
p8
sS'relType'
p9
NsS'mentionId'
p10
S'i1'
p11
sS'antecedentId'
p12
NsS'crefMod'
p13
NsS'tokenList'
p14
(lp15
(i__main__
Token
p16
(dp17
S'tokenId'
p18
I0
sba(i__main__
Token
p19
(dp20
g18
I1
sbasS'mentionHead'
p21
I1
sba(i__main__
Mention
p22
(dp23
g7
S't1'
p24
sg9
S'Coreference-Identity'
p25
sg10
S'i4'
p26
sg12
S'i1'
p27
sg13
Nsg14
(lp28
(i__main__
Token
p29
(dp30
g18
I26
sbasg21
I26
sba(i__main__
Mention
p31
(dp32
g7
S't1'
p33
sg9
S'Coreference-Identity'
p34
sg10
S'i10'
p35
sg12
S'i4'
p36
sg13
Nsg14
(lp37
(i__main__
Token
p38
(dp39
g18
I47
sbasg21
I47
sba(i__main__
Mention
p40
(dp41
g7
S't1'
p42
sg9
S'Coreference-Identity'
p43
sg10
S'i11'
p44
sg12
S'i10'
p45
sg13
Nsg14
(lp46
(i__main__
Token
p47
(dp48
g18
I68
sba(i__main__
Token
p49
(dp50
g18
I69
sba(i__main__
Token
p51
(dp52
g18
I70
sbasg21
I70
sba(i__main__
Mention
p53
(dp54
g7
S't1'
p55
sg9
S'Coreference-Identity'
p56
sg10
S'i13'
p57
sg12
S'i11'
p58
sg13
Nsg14
(lp59
(i__main__
Token
p60
(dp61
g18
I80
sbasg21
I80
sba(i__main__
Mention
p62
(dp63
g7
S't1'
p64
sg9
S'Coreference-Identity'
p65
sg10
S'i39'
p66
sg12
S'i13'
p67
sg13
Nsg14
(lp68
(i__main__
Token
p69
(dp70
g18
I184
sbasg21
I184
sba(i__main__
Mention
p71
(dp72
g7
S't1'
p73
sg9
S'Coreference-Identity'
p74
sg10
S'i54'
p75
sg12
S'i39'
p76
sg13
Nsg14
(lp77
(i__main__
Token
p78
(dp79
g18
I268
sba(i__main__
Token
p80
(dp81
g18
I269
sbasg21
I269
sbasg7
g8
sS'chainHead'
p82
Nsba(i__main__
Chain
p83
(dp84
g3
(lp85
(i__main__
Mention
p86
(dp87
g7
S't2'
p88
sg9
Nsg10
S'i2'
p89
sg12
Nsg13
Nsg14
(lp90
(i__main__
Token
p91
(dp92
g18
I15
sbasg21
I15
sba(i__main__
Mention
p93
(dp94
g7
S't2'
p95
sg9
S'Coreference-Identity'
p96
sg10
S'i8'
p97
sg12
S'i2'
p98
sg13
Nsg14
(lp99
(i__main__
Token
p100
(dp101
g18
I38
sbasg21
I38
sba(i__main__
Mention
p102
(dp103
g7
S't2'
p104
sg9
S'Coreference-Identity'
p105
sg10
S'i15'
p106
sg12
S'i8'
p107
sg13
Nsg14
(lp108
(i__main__
Token
p109
(dp110
g18
I88
sbasg21
I88
sba(i__main__
Mention
p111
(dp112
g7
S't2'
p113
sg9
S'Coreference-Identity'
p114
sg10
S'i27'
p115
sg12
S'i15'
p116
sg13
Nsg14
(lp117
(i__main__
Token
p118
(dp119
g18
I119
sbasg21
I119
sba(i__main__
Mention
p120
(dp121
g7
S't2'
p122
sg9
S'Coreference-Identity'
p123
sg10
S'i30'
p124
sg12
S'i27'
p125
sg13
Nsg14
(lp126
(i__main__
Token
p127
(dp128
g18
I146
sbasg21
I146
sba(i__main__
Mention
p129
(dp130
g7
S't2'
p131
sg9
S'Coreference-Identity'
p132
sg10
S'i32'
p133
sg12
S'i30'
p134
sg13
Nsg14
(lp135
(i__main__
Token
p136
(dp137
g18
I160
sbasg21
I160
sba(i__main__
Mention
p138
(dp139
g7
S't2'
p140
sg9
S'Coreference-Identity'
p141
sg10
S'i40'
p142
sg12
S'i32'
p143
sg13
Nsg14
(lp144
(i__main__
Token
p145
(dp146
g18
I196
sbasg21
I196
sba(i__main__
Mention
p147
(dp148
g7
S't2'
p149
sg9
S'Coreference-Identity'
p150
sg10
S'i42'
p151
sg12
S'i40'
p152
sg13
Nsg14
(lp153
(i__main__
Token
p154
(dp155
g18
I220
sbasg21
I220
sba(i__main__
Mention
p156
(dp157
g7
S't2'
p158
sg9
S'Coreference-Identity'
p159
sg10
S'i51'
p160
sg12
S'i42'
p161
sg13
Nsg14
(lp162
(i__main__
Token
p163
(dp164
g18
I249
sbasg21
I249
sba(i__main__
Mention
p165
(dp166
g7
S't2'
p167
sg9
S'Coreference-Identity'
p168
sg10
S'i55'
p169
sg12
S'i51'
p170
sg13
Nsg14
(lp171
(i__main__
Token
p172
(dp173
g18
I274
sbasg21
I274
sbasg7
g88
sg82
Nsba(i__main__
Chain
p174
(dp175
g3
(lp176
(i__main__
Mention
p177
(dp178
g7
S't3'
p179
sg9
Nsg10
S'i3'
p180
sg12
Nsg13
Nsg14
(lp181
(i__main__
Token
p182
(dp183
g18
I17
sba(i__main__
Token
p184
(dp185
g18
I18
sbasg21
I18
sba(i__main__
Mention
p186
(dp187
g7
S't3'
p188
sg9
S'Coreference-Identity'
p189
sg10
S'i9'
p190
sg12
S'i3'
p191
sg13
Nsg14
(lp192
(i__main__
Token
p193
(dp194
g18
I41
sbasg21
I41
sba(i__main__
Mention
p195
(dp196
g7
S't3'
p197
sg9
S'Coreference-Identity'
p198
sg10
S'i16'
p199
sg12
S'i9'
p200
sg13
Nsg14
(lp201
(i__main__
Token
p202
(dp203
g18
I90
sba(i__main__
Token
p204
(dp205
g18
I91
sbasg21
I91
sba(i__main__
Mention
p206
(dp207
g7
S't3'
p208
sg9
S'Coreference-Identity'
p209
sg10
S'i28'
p210
sg12
S'i16'
p211
sg13
Nsg14
(lp212
(i__main__
Token
p213
(dp214
g18
I121
sbasg21
I121
sba(i__main__
Mention
p215
(dp216
g7
S't3'
p217
sg9
S'Coreference-Identity'
p218
sg10
S'i31'
p219
sg12
S'i28'
p220
sg13
Nsg14
(lp221
(i__main__
Token
p222
(dp223
g18
I148
sba(i__main__
Token
p224
(dp225
g18
I149
sbasg21
I149
sba(i__main__
Mention
p226
(dp227
g7
S't3'
p228
sg9
S'Coreference-Identity'
p229
sg10
S'i38'
p230
sg12
S'i31'
p231
sg13
Nsg14
(lp232
(i__main__
Token
p233
(dp234
g18
I177
sbasg21
I177
sba(i__main__
Mention
p235
(dp236
g7
S't3'
p237
sg9
S'Coreference-Identity'
p238
sg10
S'i56'
p239
sg12
S'i38'
p240
sg13
Nsg14
(lp241
(i__main__
Token
p242
(dp243
g18
I280
sbasg21
I280
sbasg7
g179
sg82
Nsba(i__main__
Chain
p244
(dp245
g3
(lp246
(i__main__
Mention
p247
(dp248
g7
S't4'
p249
sg9
Nsg10
S'i5'
p250
sg12
Nsg13
Nsg14
(lp251
(i__main__
Token
p252
(dp253
g18
I28
sbasg21
I28
sba(i__main__
Mention
p254
(dp255
g7
S't4'
p256
sg9
S'Coreference-Noun-Noun'
p257
sg10
S'i29'
p258
sg12
S'i5'
p259
sg13
Nsg14
(lp260
(i__main__
Token
p261
(dp262
g18
I137
sbasg21
I137
sba(i__main__
Mention
p263
(dp264
g7
S't4'
p265
sg9
S'Coreference-Identity'
p266
sg10
S'i41'
p267
sg12
S'i29'
p268
sg13
Nsg14
(lp269
(i__main__
Token
p270
(dp271
g18
I215
sbasg21
I215
sbasg7
g249
sg82
Nsba(i__main__
Chain
p272
(dp273
g3
(lp274
(i__main__
Mention
p275
(dp276
g7
S't5'
p277
sg9
Nsg10
S'i6'
p278
sg12
Nsg13
Nsg14
(lp279
(i__main__
Token
p280
(dp281
g18
I32
sba(i__main__
Token
p282
(dp283
g18
I33
sbasg21
I33
sba(i__main__
Mention
p284
(dp285
g7
S't5'
p286
sg9
Nsg10
S'i19'
p287
sg12
Nsg13
Nsg14
(lp288
(i__main__
Token
p289
(dp290
g18
I98
sbasg21
Nsba(i__main__
Mention
p291
(dp292
g7
S't5'
p293
sg9
Nsg10
S'i43'
p294
sg12
Nsg13
Nsg14
(lp295
(i__main__
Token
p296
(dp297
g18
I230
sbasg21
Nsba(i__main__
Mention
p298
(dp299
g7
S't5'
p300
sg9
S'Coreference-PartOf'
p301
sg10
S'i50'
p302
sg12
S'i36'
p303
sg13
Nsg14
(lp304
(i__main__
Token
p305
(dp306
g18
I243
sba(i__main__
Token
p307
(dp308
g18
I244
sbasg21
I244
sba(i__main__
Mention
p309
(dp310
g7
S't5'
p311
sg9
S'Anaphora-C'
p312
sg10
S'i53'
p313
sg12
S'i50'
p314
sg13
Nsg14
(lp315
(i__main__
Token
p316
(dp317
g18
I264
sbasg21
I264
sbasg7
g277
sg82
Nsba(i__main__
Chain
p318
(dp319
g3
(lp320
(i__main__
Mention
p321
(dp322
g7
S't6'
p323
sg9
Nsg10
S'i7'
p324
sg12
Nsg13
Nsg14
(lp325
(i__main__
Token
p326
(dp327
g18
I35
sbasg21
I35
sba(i__main__
Mention
p328
(dp329
g7
S't6'
p330
sg9
Nsg10
S'i20'
p331
sg12
Nsg13
Nsg14
(lp332
(i__main__
Token
p333
(dp334
g18
I98
sbasg21
Nsba(i__main__
Mention
p335
(dp336
g7
S't6'
p337
sg9
S'Coreference-PartOf'
p338
sg10
S'i37'
p339
sg12
S'i34'
p340
sg13
Nsg14
(lp341
(i__main__
Token
p342
(dp343
g18
I172
sbasg21
I172
sba(i__main__
Mention
p344
(dp345
g7
S't6'
p346
sg9
Nsg10
S'i44'
p347
sg12
Nsg13
Nsg14
(lp348
(i__main__
Token
p349
(dp350
g18
I230
sbasg21
Nsbasg7
g323
sg82
Nsba(i__main__
Chain
p351
(dp352
g3
(lp353
(i__main__
Mention
p354
(dp355
g7
S't7'
p356
sg9
Nsg10
S'i12'
p357
sg12
Nsg13
Nsg14
(lp358
(i__main__
Token
p359
(dp360
g18
I71
sba(i__main__
Token
p361
(dp362
g18
I72
sbasg21
I72
sba(i__main__
Mention
p363
(dp364
g7
S't7'
p365
sg9
S'Coreference-Identity'
p366
sg10
S'i26'
p367
sg12
S'i12'
p368
sg13
Nsg14
(lp369
(i__main__
Token
p370
(dp371
g18
I114
sba(i__main__
Token
p372
(dp373
g18
I115
sbasg21
I115
sbasg7
g356
sg82
Nsba(i__main__
Chain
p374
(dp375
g3
(lp376
(i__main__
Mention
p377
(dp378
g7
S't8'
p379
sg9
Nsg10
S'i14'
p380
sg12
Nsg13
Nsg14
(lp381
(i__main__
Token
p382
(dp383
g18
I85
sba(i__main__
Token
p384
(dp385
g18
I86
sba(i__main__
Token
p386
(dp387
g18
I87
sba(i__main__
Token
p388
(dp389
g18
I88
sba(i__main__
Token
p390
(dp391
g18
I89
sba(i__main__
Token
p392
(dp393
g18
I90
sba(i__main__
Token
p394
(dp395
g18
I91
sba(i__main__
Token
p396
(dp397
g18
I92
sba(i__main__
Token
p398
(dp399
g18
I93
sba(i__main__
Token
p400
(dp401
g18
I94
sba(i__main__
Token
p402
(dp403
g18
I95
sbasg21
I95
sba(i__main__
Mention
p404
(dp405
g7
S't8'
p406
sg9
S'Anaphora-C'
p407
sg10
S'i17'
p408
sg12
S'i14'
p409
sg13
Nsg14
(lp410
(i__main__
Token
p411
(dp412
g18
I97
sbasg21
I97
sbasg7
g379
sg82
Nsba(i__main__
Chain
p413
(dp414
g3
(lp415
(i__main__
Mention
p416
(dp417
g7
S't9'
p418
sg9
Nsg10
S'i21'
p419
sg12
Nsg13
Nsg14
(lp420
(i__main__
Token
p421
(dp422
g18
I98
sbasg21
Nsba(i__main__
Mention
p423
(dp424
g7
S't9'
p425
sg9
S'Coreference-PartOf'
p426
sg10
S'i36'
p427
sg12
S'i21'
p428
sg13
Nsg14
(lp429
(i__main__
Token
p430
(dp431
g18
I170
sbasg21
I170
sba(i__main__
Mention
p432
(dp433
g7
S't9'
p434
sg9
Nsg10
S'i45'
p435
sg12
Nsg13
Nsg14
(lp436
(i__main__
Token
p437
(dp438
g18
I230
sbasg21
Nsbasg7
g418
sg82
Nsba(i__main__
Chain
p439
(dp440
g3
(lp441
(i__main__
Mention
p442
(dp443
g7
S't10'
p444
sg9
Nsg10
S'i22'
p445
sg12
Nsg13
Nsg14
(lp446
(i__main__
Token
p447
(dp448
g18
I98
sbasg21
Nsba(i__main__
Mention
p449
(dp450
g7
S't10'
p451
sg9
S'Coreference-PartOf'
p452
sg10
S'i35'
p453
sg12
S'i22'
p454
sg13
Nsg14
(lp455
(i__main__
Token
p456
(dp457
g18
I168
sbasg21
I168
sba(i__main__
Mention
p458
(dp459
g7
S't10'
p460
sg9
Nsg10
S'i46'
p461
sg12
Nsg13
Nsg14
(lp462
(i__main__
Token
p463
(dp464
g18
I230
sbasg21
Nsbasg7
g444
sg82
Nsba(i__main__
Chain
p465
(dp466
g3
(lp467
(i__main__
Mention
p468
(dp469
g7
S't11'
p470
sg9
Nsg10
S'i23'
p471
sg12
Nsg13
Nsg14
(lp472
(i__main__
Token
p473
(dp474
g18
I98
sbasg21
Nsba(i__main__
Mention
p475
(dp476
g7
S't11'
p477
sg9
S'Coreference-PartOf'
p478
sg10
S'i34'
p479
sg12
S'i23'
p480
sg13
Nsg14
(lp481
(i__main__
Token
p482
(dp483
g18
I164
sba(i__main__
Token
p484
(dp485
g18
I165
sba(i__main__
Token
p486
(dp487
g18
I166
sbasg21
I166
sba(i__main__
Mention
p488
(dp489
g7
S't11'
p490
sg9
Nsg10
S'i47'
p491
sg12
Nsg13
Nsg14
(lp492
(i__main__
Token
p493
(dp494
g18
I230
sbasg21
Nsbasg7
g470
sg82
Nsba(i__main__
Chain
p495
(dp496
g3
(lp497
(i__main__
Mention
p498
(dp499
g7
S't12'
p500
sg9
Nsg10
S'i24'
p501
sg12
Nsg13
Nsg14
(lp502
(i__main__
Token
p503
(dp504
g18
I98
sbasg21
Nsba(i__main__
Mention
p505
(dp506
g7
S't12'
p507
sg9
S'Coreference-PartOf'
p508
sg10
S'i33'
p509
sg12
S'i24'
p510
sg13
Nsg14
(lp511
(i__main__
Token
p512
(dp513
g18
I162
sbasg21
I162
sba(i__main__
Mention
p514
(dp515
g7
S't12'
p516
sg9
Nsg10
S'i48'
p517
sg12
Nsg13
Nsg14
(lp518
(i__main__
Token
p519
(dp520
g18
I230
sbasg21
Nsbasg7
g500
sg82
Nsba(i__main__
Chain
p521
(dp522
g3
(lp523
(i__main__
Mention
p524
(dp525
g7
S't13'
p526
sg9
Nsg10
S'i25'
p527
sg12
Nsg13
Nsg14
(lp528
(i__main__
Token
p529
(dp530
g18
I100
sba(i__main__
Token
p531
(dp532
g18
I101
sbasg21
I101
sba(i__main__
Mention
p533
(dp534
g7
S't13'
p535
sg9
S'Coreference-Identity'
p536
sg10
S'i49'
p537
sg12
S'i25'
p538
sg13
Nsg14
(lp539
(i__main__
Token
p540
(dp541
g18
I232
sbasg21
I232
sba(i__main__
Mention
p542
(dp543
g7
S't13'
p544
sg9
S'Coreference-Identity'
p545
sg10
S'i52'
p546
sg12
S'i49'
p547
sg13
Nsg14
(lp548
(i__main__
Token
p549
(dp550
g18
I261
sbasg21
I261
sbasg7
g526
sg82
Nsba.