(lp0
(i__main__
Chain
p1
(dp2
S'mentionList'
p3
(lp4
(i__main__
Mention
p5
(dp6
S'chainId'
p7
S't1'
p8
sS'relType'
p9
NsS'mentionId'
p10
S'i1'
p11
sS'antecedentId'
p12
NsS'crefMod'
p13
NsS'tokenList'
p14
(lp15
(i__main__
Token
p16
(dp17
S'tokenId'
p18
I0
sbasS'mentionHead'
p19
I0
sba(i__main__
Mention
p20
(dp21
g7
S't1'
p22
sg9
S'Coreference-NounComplement'
p23
sg10
S'i2'
p24
sg12
S'i1'
p25
sg13
Nsg14
(lp26
(i__main__
Token
p27
(dp28
g18
I1
sba(i__main__
Token
p29
(dp30
g18
I2
sba(i__main__
Token
p31
(dp32
g18
I3
sba(i__main__
Token
p33
(dp34
g18
I4
sba(i__main__
Token
p35
(dp36
g18
I5
sbasg19
I5
sba(i__main__
Mention
p37
(dp38
g7
S't1'
p39
sg9
S'Coreference-Noun-Noun'
p40
sg10
S'i8'
p41
sg12
S'i2'
p42
sg13
Nsg14
(lp43
(i__main__
Token
p44
(dp45
g18
I28
sbasg19
I28
sba(i__main__
Mention
p46
(dp47
g7
S't1'
p48
sg9
S'Anaphora-C'
p49
sg10
S'i9'
p50
sg12
S'i8'
p51
sg13
Nsg14
(lp52
(i__main__
Token
p53
(dp54
g18
I30
sbasg19
I30
sba(i__main__
Mention
p55
(dp56
g7
S't1'
p57
sg9
S'Coreference-Noun-Noun'
p58
sg10
S'i12'
p59
sg12
S'i9'
p60
sg13
Nsg14
(lp61
(i__main__
Token
p62
(dp63
g18
I46
sbasg19
I46
sba(i__main__
Mention
p64
(dp65
g7
S't1'
p66
sg9
S'Anaphora-C'
p67
sg10
S'i14'
p68
sg12
S'i12'
p69
sg13
Nsg14
(lp70
(i__main__
Token
p71
(dp72
g18
I49
sbasg19
I49
sba(i__main__
Mention
p73
(dp74
g7
S't1'
p75
sg9
S'Anaphora-C'
p76
sg10
S'i16'
p77
sg12
S'i14'
p78
sg13
Nsg14
(lp79
(i__main__
Token
p80
(dp81
g18
I58
sbasg19
I58
sba(i__main__
Mention
p82
(dp83
g7
S't1'
p84
sg9
S'Coreference-Identity'
p85
sg10
S'i24'
p86
sg12
S'i16'
p87
sg13
Nsg14
(lp88
(i__main__
Token
p89
(dp90
g18
I85
sbasg19
I85
sba(i__main__
Mention
p91
(dp92
g7
S't1'
p93
sg9
S'Coreference-Identity'
p94
sg10
S'i39'
p95
sg12
S'i24'
p96
sg13
Nsg14
(lp97
(i__main__
Token
p98
(dp99
g18
I157
sbasg19
I157
sba(i__main__
Mention
p100
(dp101
g7
S't1'
p102
sg9
S'Anaphora-C'
p103
sg10
S'i41'
p104
sg12
S'i39'
p105
sg13
Nsg14
(lp106
(i__main__
Token
p107
(dp108
g18
I160
sbasg19
I160
sba(i__main__
Mention
p109
(dp110
g7
S't1'
p111
sg9
S'Coreference-Identity'
p112
sg10
S'i49'
p113
sg12
S'i41'
p114
sg13
Nsg14
(lp115
(i__main__
Token
p116
(dp117
g18
I186
sbasg19
I186
sba(i__main__
Mention
p118
(dp119
g7
S't1'
p120
sg9
S'Coreference-Identity'
p121
sg10
S'i52'
p122
sg12
S'i49'
p123
sg13
Nsg14
(lp124
(i__main__
Token
p125
(dp126
g18
I203
sbasg19
I203
sba(i__main__
Mention
p127
(dp128
g7
S't1'
p129
sg9
S'Coreference-Noun-Noun'
p130
sg10
S'i58'
p131
sg12
S'i52'
p132
sg13
Nsg14
(lp133
(i__main__
Token
p134
(dp135
g18
I224
sba(i__main__
Token
p136
(dp137
g18
I225
sbasg19
I225
sba(i__main__
Mention
p138
(dp139
g7
S't1'
p140
sg9
S'Coreference-Noun-Noun'
p141
sg10
S'i62'
p142
sg12
S'i58'
p143
sg13
Nsg14
(lp144
(i__main__
Token
p145
(dp146
g18
I236
sbasg19
I236
sba(i__main__
Mention
p147
(dp148
g7
S't1'
p149
sg9
S'Anaphora-C'
p150
sg10
S'i63'
p151
sg12
S'i62'
p152
sg13
Nsg14
(lp153
(i__main__
Token
p154
(dp155
g18
I241
sbasg19
I241
sba(i__main__
Mention
p156
(dp157
g7
S't1'
p158
sg9
S'Coreference-Identity'
p159
sg10
S'i67'
p160
sg12
S'i63'
p161
sg13
Nsg14
(lp162
(i__main__
Token
p163
(dp164
g18
I251
sbasg19
I251
sbasg7
g8
sS'chainHead'
p165
Nsba(i__main__
Chain
p166
(dp167
g3
(lp168
(i__main__
Mention
p169
(dp170
g7
S't2'
p171
sg9
Nsg10
S'i3'
p172
sg12
Nsg13
Nsg14
(lp173
(i__main__
Token
p174
(dp175
g18
I7
sba(i__main__
Token
p176
(dp177
g18
I8
sbasg19
I8
sba(i__main__
Mention
p178
(dp179
g7
S't2'
p180
sg9
S'Coreference-Abbreviation'
p181
sg10
S'i4'
p182
sg12
S'i3'
p183
sg13
Nsg14
(lp184
(i__main__
Token
p185
(dp186
g18
I10
sbasg19
I10
sba(i__main__
Mention
p187
(dp188
g7
S't2'
p189
sg9
S'Coreference-Identity'
p190
sg10
S'i7'
p191
sg12
S'i4'
p192
sg13
Nsg14
(lp193
(i__main__
Token
p194
(dp195
g18
I26
sbasg19
I26
sba(i__main__
Mention
p196
(dp197
g7
S't2'
p198
sg9
S'Coreference-Identity'
p199
sg10
S'i19'
p200
sg12
S'i7'
p201
sg13
Nsg14
(lp202
(i__main__
Token
p203
(dp204
g18
I67
sbasg19
I67
sba(i__main__
Mention
p205
(dp206
g7
S't2'
p207
sg9
S'Coreference-Noun-Noun'
p208
sg10
S'i23'
p209
sg12
S'i19'
p210
sg13
Nsg14
(lp211
(i__main__
Token
p212
(dp213
g18
I79
sbasg19
I79
sba(i__main__
Mention
p214
(dp215
g7
S't2'
p216
sg9
S'Coreference-Noun-Noun'
p217
sg10
S'i27'
p218
sg12
S'i23'
p219
sg13
Nsg14
(lp220
(i__main__
Token
p221
(dp222
g18
I95
sbasg19
I95
sba(i__main__
Mention
p223
(dp224
g7
S't2'
p225
sg9
S'Coreference-Identity'
p226
sg10
S'i30'
p227
sg12
S'i27'
p228
sg13
Nsg14
(lp229
(i__main__
Token
p230
(dp231
g18
I108
sbasg19
I108
sba(i__main__
Mention
p232
(dp233
g7
S't2'
p234
sg9
S'Coreference-Noun-Noun'
p235
sg10
S'i31'
p236
sg12
S'i30'
p237
sg13
Nsg14
(lp238
(i__main__
Token
p239
(dp240
g18
I112
sbasg19
I112
sbasg7
g171
sg165
Nsba(i__main__
Chain
p241
(dp242
g3
(lp243
(i__main__
Mention
p244
(dp245
g7
S't3'
p246
sg9
Nsg10
S'i5'
p247
sg12
Nsg13
Nsg14
(lp248
(i__main__
Token
p249
(dp250
g18
I15
sba(i__main__
Token
p251
(dp252
g18
I16
sbasg19
I16
sba(i__main__
Mention
p253
(dp254
g7
S't3'
p255
sg9
S'Coreference-NounComplement'
p256
sg10
S'i6'
p257
sg12
S'i5'
p258
sg13
Nsg14
(lp259
(i__main__
Token
p260
(dp261
g18
I17
sbasg19
I17
sba(i__main__
Mention
p262
(dp263
g7
S't3'
p264
sg9
S'Coreference-Noun-Noun'
p265
sg10
S'i11'
p266
sg12
S'i6'
p267
sg13
Nsg14
(lp268
(i__main__
Token
p269
(dp270
g18
I37
sba(i__main__
Token
p271
(dp272
g18
I38
sbasg19
I38
sba(i__main__
Mention
p273
(dp274
g7
S't3'
p275
sg9
S'Coreference-Noun-Noun'
p276
sg10
S'i34'
p277
sg12
S'i11'
p278
sg13
Nsg14
(lp279
(i__main__
Token
p280
(dp281
g18
I126
sbasg19
I126
sbasg7
g246
sg165
Nsba(i__main__
Chain
p282
(dp283
g3
(lp284
(i__main__
Mention
p285
(dp286
g7
S't4'
p287
sg9
Nsg10
S'i10'
p288
sg12
Nsg13
Nsg14
(lp289
(i__main__
Token
p290
(dp291
g18
I35
sbasg19
I35
sba(i__main__
Mention
p292
(dp293
g7
S't4'
p294
sg9
S'Coreference-Identity'
p295
sg10
S'i13'
p296
sg12
S'i10'
p297
sg13
Nsg14
(lp298
(i__main__
Token
p299
(dp300
g18
I47
sbasg19
I47
sbasg7
g287
sg165
Nsba(i__main__
Chain
p301
(dp302
g3
(lp303
(i__main__
Mention
p304
(dp305
g7
S't5'
p306
sg9
Nsg10
S'i15'
p307
sg12
Nsg13
Nsg14
(lp308
(i__main__
Token
p309
(dp310
g18
I56
sbasg19
I56
sba(i__main__
Mention
p311
(dp312
g7
S't5'
p313
sg9
S'Coreference-Identity'
p314
sg10
S'i40'
p315
sg12
S'i15'
p316
sg13
Nsg14
(lp317
(i__main__
Token
p318
(dp319
g18
I158
sbasg19
I158
sba(i__main__
Mention
p320
(dp321
g7
S't5'
p322
sg9
S'Coreference-Identity'
p323
sg10
S'i44'
p324
sg12
S'i40'
p325
sg13
Nsg14
(lp326
(i__main__
Token
p327
(dp328
g18
I169
sbasg19
I169
sbasg7
g306
sg165
Nsba(i__main__
Chain
p329
(dp330
g3
(lp331
(i__main__
Mention
p332
(dp333
g7
S't6'
p334
sg9
Nsg10
S'i17'
p335
sg12
Nsg13
Nsg14
(lp336
(i__main__
Token
p337
(dp338
g18
I59
sbasg19
I59
sba(i__main__
Mention
p339
(dp340
g7
S't6'
p341
sg9
S'Coreference-Noun-Noun'
p342
sg10
S'i18'
p343
sg12
S'i17'
p344
sg13
Nsg14
(lp345
(i__main__
Token
p346
(dp347
g18
I61
sba(i__main__
Token
p348
(dp349
g18
I62
sbasg19
I62
sba(i__main__
Mention
p350
(dp351
g7
S't6'
p352
sg9
S'Coreference-Noun-Noun'
p353
sg10
S'i42'
p354
sg12
S'i18'
p355
sg13
Nsg14
(lp356
(i__main__
Token
p357
(dp358
g18
I161
sba(i__main__
Token
p359
(dp360
g18
I162
sba(i__main__
Token
p361
(dp362
g18
I163
sbasg19
I163
sba(i__main__
Mention
p363
(dp364
g7
S't6'
p365
sg9
S'Coreference-Noun-Noun'
p366
sg10
S'i48'
p367
sg12
S'i42'
p368
sg13
Nsg14
(lp369
(i__main__
Token
p370
(dp371
g18
I184
sbasg19
I184
sba(i__main__
Mention
p372
(dp373
g7
S't6'
p374
sg9
S'Coreference-Identity'
p375
sg10
S'i54'
p376
sg12
S'i48'
p377
sg13
Nsg14
(lp378
(i__main__
Token
p379
(dp380
g18
I209
sbasg19
I209
sba(i__main__
Mention
p381
(dp382
g7
S't6'
p383
sg9
S'Anaphora-C'
p384
sg10
S'i57'
p385
sg12
S'i54'
p386
sg13
Nsg14
(lp387
(i__main__
Token
p388
(dp389
g18
I223
sbasg19
I223
sba(i__main__
Mention
p390
(dp391
g7
S't6'
p392
sg9
S'Coreference-Identity'
p393
sg10
S'i60'
p394
sg12
S'i57'
p395
sg13
Nsg14
(lp396
(i__main__
Token
p397
(dp398
g18
I230
sba(i__main__
Token
p399
(dp400
g18
I231
sbasg19
I231
sba(i__main__
Mention
p401
(dp402
g7
S't6'
p403
sg9
S'Anaphora-C'
p404
sg10
S'i66'
p405
sg12
S'i60'
p406
sg13
Nsg14
(lp407
(i__main__
Token
p408
(dp409
g18
I248
sbasg19
I248
sba(i__main__
Mention
p410
(dp411
g7
S't6'
p412
sg9
S'Anaphora-C'
p413
sg10
S'i68'
p414
sg12
S'i66'
p415
sg13
Nsg14
(lp416
(i__main__
Token
p417
(dp418
g18
I257
sbasg19
I257
sbasg7
g334
sg165
Nsba(i__main__
Chain
p419
(dp420
g3
(lp421
(i__main__
Mention
p422
(dp423
g7
S't7'
p424
sg9
Nsg10
S'i20'
p425
sg12
Nsg13
Nsg14
(lp426
(i__main__
Token
p427
(dp428
g18
I69
sbasg19
I69
sba(i__main__
Mention
p429
(dp430
g7
S't7'
p431
sg9
S'Coreference-NounComplement'
p432
sg10
S'i21'
p433
sg12
S'i20'
p434
sg13
Nsg14
(lp435
(i__main__
Token
p436
(dp437
g18
I70
sba(i__main__
Token
p438
(dp439
g18
I71
sba(i__main__
Token
p440
(dp441
g18
I72
sbasg19
I72
sbasg7
g424
sg165
Nsba(i__main__
Chain
p442
(dp443
g3
(lp444
(i__main__
Mention
p445
(dp446
g7
S't8'
p447
sg9
Nsg10
S'i22'
p448
sg12
Nsg13
Nsg14
(lp449
(i__main__
Token
p450
(dp451
g18
I76
sba(i__main__
Token
p452
(dp453
g18
I77
sbasg19
I77
sba(i__main__
Mention
p454
(dp455
g7
S't8'
p456
sg9
S'Coreference-Identity'
p457
sg10
S'i47'
p458
sg12
S'i22'
p459
sg13
Nsg14
(lp460
(i__main__
Token
p461
(dp462
g18
I177
sba(i__main__
Token
p463
(dp464
g18
I178
sbasg19
I178
sbasg7
g447
sg165
Nsba(i__main__
Chain
p465
(dp466
g3
(lp467
(i__main__
Mention
p468
(dp469
g7
S't9'
p470
sg9
Nsg10
S'i25'
p471
sg12
Nsg13
Nsg14
(lp472
(i__main__
Token
p473
(dp474
g18
I86
sbasg19
I86
sbasg7
g470
sg165
Nsba(i__main__
Chain
p475
(dp476
g3
(lp477
(i__main__
Mention
p478
(dp479
g7
S't10'
p480
sg9
Nsg10
S'i26'
p481
sg12
Nsg13
Nsg14
(lp482
(i__main__
Token
p483
(dp484
g18
I89
sba(i__main__
Token
p485
(dp486
g18
I90
sbasg19
I90
sba(i__main__
Mention
p487
(dp488
g7
S't10'
p489
sg9
S'Coreference-Identity'
p490
sg10
S'i29'
p491
sg12
S'i26'
p492
sg13
Nsg14
(lp493
(i__main__
Token
p494
(dp495
g18
I102
sba(i__main__
Token
p496
(dp497
g18
I103
sbasg19
I103
sbasg7
g480
sg165
Nsba(i__main__
Chain
p498
(dp499
g3
(lp500
(i__main__
Mention
p501
(dp502
g7
S't11'
p503
sg9
Nsg10
S'i28'
p504
sg12
Nsg13
Nsg14
(lp505
(i__main__
Token
p506
(dp507
g18
I97
sbasg19
I97
sbasg7
g503
sg165
Nsba(i__main__
Chain
p508
(dp509
g3
(lp510
(i__main__
Mention
p511
(dp512
g7
S't12'
p513
sg9
Nsg10
S'i32'
p514
sg12
Nsg13
Nsg14
(lp515
(i__main__
Token
p516
(dp517
g18
I119
sba(i__main__
Token
p518
(dp519
g18
I120
sba(i__main__
Token
p520
(dp521
g18
I121
sbasg19
I121
sba(i__main__
Mention
p522
(dp523
g7
S't12'
p524
sg9
S'Coreference-NounComplement'
p525
sg10
S'i33'
p526
sg12
S'i32'
p527
sg13
Nsg14
(lp528
(i__main__
Token
p529
(dp530
g18
I122
sba(i__main__
Token
p531
(dp532
g18
I123
sba(i__main__
Token
p533
(dp534
g18
I124
sbasg19
I124
sbasg7
g513
sg165
Nsba(i__main__
Chain
p535
(dp536
g3
(lp537
(i__main__
Mention
p538
(dp539
g7
S't13'
p540
sg9
Nsg10
S'i35'
p541
sg12
Nsg13
Nsg14
(lp542
(i__main__
Token
p543
(dp544
g18
I137
sba(i__main__
Token
p545
(dp546
g18
I138
sba(i__main__
Token
p547
(dp548
g18
I139
sbasg19
I139
sba(i__main__
Mention
p549
(dp550
g7
S't13'
p551
sg9
S'Coreference-NounComplement'
p552
sg10
S'i36'
p553
sg12
S'i35'
p554
sg13
Nsg14
(lp555
(i__main__
Token
p556
(dp557
g18
I140
sba(i__main__
Token
p558
(dp559
g18
I141
sbasg19
I141
sbasg7
g540
sg165
Nsba(i__main__
Chain
p560
(dp561
g3
(lp562
(i__main__
Mention
p563
(dp564
g7
S't14'
p565
sg9
Nsg10
S'i37'
p566
sg12
Nsg13
Nsg14
(lp567
(i__main__
Token
p568
(dp569
g18
I145
sbasg19
I145
sba(i__main__
Mention
p570
(dp571
g7
S't14'
p572
sg9
S'Coreference-NounComplement'
p573
sg10
S'i38'
p574
sg12
S'i37'
p575
sg13
Nsg14
(lp576
(i__main__
Token
p577
(dp578
g18
I146
sba(i__main__
Token
p579
(dp580
g18
I147
sba(i__main__
Token
p581
(dp582
g18
I148
sbasg19
I148
sbasg7
g565
sg165
Nsba(i__main__
Chain
p583
(dp584
g3
(lp585
(i__main__
Mention
p586
(dp587
g7
S't15'
p588
sg9
Nsg10
S'i43'
p589
sg12
Nsg13
Nsg14
(lp590
(i__main__
Token
p591
(dp592
g18
I166
sbasg19
I166
sba(i__main__
Mention
p593
(dp594
g7
S't15'
p595
sg9
S'Coreference-Identity'
p596
sg10
S'i50'
p597
sg12
S'i43'
p598
sg13
Nsg14
(lp599
(i__main__
Token
p600
(dp601
g18
I188
sbasg19
I188
sba(i__main__
Mention
p602
(dp603
g7
S't15'
p604
sg9
S'Coreference-Identity'
p605
sg10
S'i59'
p606
sg12
S'i50'
p607
sg13
Nsg14
(lp608
(i__main__
Token
p609
(dp610
g18
I227
sbasg19
I227
sba(i__main__
Mention
p611
(dp612
g7
S't15'
p613
sg9
S'Coreference-Identity'
p614
sg10
S'i65'
p615
sg12
S'i59'
p616
sg13
Nsg14
(lp617
(i__main__
Token
p618
(dp619
g18
I242
sbasg19
I242
sbasg7
g588
sg165
Nsba(i__main__
Chain
p620
(dp621
g3
(lp622
(i__main__
Mention
p623
(dp624
g7
S't16'
p625
sg9
Nsg10
S'i45'
p626
sg12
Nsg13
Nsg14
(lp627
(i__main__
Token
p628
(dp629
g18
I171
sbasg19
I171
sba(i__main__
Mention
p630
(dp631
g7
S't16'
p632
sg9
S'Coreference-NounComplement'
p633
sg10
S'i46'
p634
sg12
S'i45'
p635
sg13
Nsg14
(lp636
(i__main__
Token
p637
(dp638
g18
I172
sba(i__main__
Token
p639
(dp640
g18
I173
sbasg19
I173
sbasg7
g625
sg165
Nsba(i__main__
Chain
p641
(dp642
g3
(lp643
(i__main__
Mention
p644
(dp645
g7
S't17'
p646
sg9
Nsg10
S'i51'
p647
sg12
Nsg13
Nsg14
(lp648
(i__main__
Token
p649
(dp650
g18
I202
sbasg19
I202
sba(i__main__
Mention
p651
(dp652
g7
S't17'
p653
sg9
S'Anaphora-RT'
p654
sg10
S'i53'
p655
sg12
S'i51'
p656
sg13
Nsg14
(lp657
(i__main__
Token
p658
(dp659
g18
I203
sba(i__main__
Token
p660
(dp661
g18
I204
sba(i__main__
Token
p662
(dp663
g18
I205
sba(i__main__
Token
p664
(dp665
g18
I206
sba(i__main__
Token
p666
(dp667
g18
I207
sbasg19
I207
sbasg7
g646
sg165
Nsba(i__main__
Chain
p668
(dp669
g3
(lp670
(i__main__
Mention
p671
(dp672
g7
S't18'
p673
sg9
Nsg10
S'i55'
p674
sg12
Nsg13
Nsg14
(lp675
(i__main__
Token
p676
(dp677
g18
I211
sba(i__main__
Token
p678
(dp679
g18
I212
sba(i__main__
Token
p680
(dp681
g18
I213
sbasg19
I213
sba(i__main__
Mention
p682
(dp683
g7
S't18'
p684
sg9
S'Coreference-Abbreviation'
p685
sg10
S'i56'
p686
sg12
S'i55'
p687
sg13
Nsg14
(lp688
(i__main__
Token
p689
(dp690
g18
I216
sbasg19
I216
sba(i__main__
Mention
p691
(dp692
g7
S't18'
p693
sg9
Nsg10
S'i69'
p694
sg12
Nsg13
Nsg14
(lp695
(i__main__
Token
p696
(dp697
g18
I258
sbasg19
Nsbasg7
g673
sg165
Nsba(i__main__
Chain
p698
(dp699
g3
(lp700
(i__main__
Mention
p701
(dp702
g7
S't19'
p703
sg9
Nsg10
S'i61'
p704
sg12
Nsg13
Nsg14
(lp705
(i__main__
Token
p706
(dp707
g18
I235
sbasg19
I235
sba(i__main__
Mention
p708
(dp709
g7
S't19'
p710
sg9
S'Anaphora-RC'
p711
sg10
S'i64'
p712
sg12
S'i61'
p713
sg13
Nsg14
(lp714
(i__main__
Token
p715
(dp716
g18
I241
sba(i__main__
Token
p717
(dp718
g18
I242
sba(i__main__
Token
p719
(dp720
g18
I243
sba(i__main__
Token
p721
(dp722
g18
I244
sba(i__main__
Token
p723
(dp724
g18
I245
sba(i__main__
Token
p725
(dp726
g18
I246
sbasg19
I246
sbasg7
g703
sg165
Nsba(i__main__
Chain
p727
(dp728
g3
(lp729
(i__main__
Mention
p730
(dp731
g7
S't20'
p732
sg9
Nsg10
S'i70'
p733
sg12
Nsg13
Nsg14
(lp734
(i__main__
Token
p735
(dp736
g18
I258
sbasg19
Nsba(i__main__
Mention
p737
(dp738
g7
S't20'
p739
sg9
S'Coreference-NounComplement'
p740
sg10
S'i71'
p741
sg12
S'i70'
p742
sg13
Nsg14
(lp743
(i__main__
Token
p744
(dp745
g18
I259
sbasg19
I259
sba(i__main__
Mention
p746
(dp747
g7
S't20'
p748
sg9
S'Anaphora-C'
p749
sg10
S'i72'
p750
sg12
S'i71'
p751
sg13
Nsg14
(lp752
(i__main__
Token
p753
(dp754
g18
I266
sbasg19
I266
sbasg7
g732
sg165
Nsba(i__main__
Chain
p755
(dp756
g3
(lp757
(i__main__
Mention
p758
(dp759
g7
S't21'
p760
sg9
Nsg10
S'i73'
p761
sg12
Nsg13
Nsg14
(lp762
(i__main__
Token
p763
(dp764
g18
I270
sba(i__main__
Token
p765
(dp766
g18
I271
sbasg19
I271
sba(i__main__
Mention
p767
(dp768
g7
S't21'
p769
sg9
S'Coreference-NounComplement'
p770
sg10
S'i74'
p771
sg12
S'i73'
p772
sg13
Nsg14
(lp773
(i__main__
Token
p774
(dp775
g18
I272
sba(i__main__
Token
p776
(dp777
g18
I273
sba(i__main__
Token
p778
(dp779
g18
I274
sbasg19
I274
sbasg7
g760
sg165
Nsba.