(lp0
(i__main__
Chain
p1
(dp2
S'mentionList'
p3
(lp4
(i__main__
Mention
p5
(dp6
S'chainId'
p7
S't1'
p8
sS'relType'
p9
NsS'mentionId'
p10
S'i1'
p11
sS'antecedentId'
p12
NsS'crefMod'
p13
NsS'tokenList'
p14
(lp15
(i__main__
Token
p16
(dp17
S'tokenId'
p18
I0
sbasS'mentionHead'
p19
I0
sba(i__main__
Mention
p20
(dp21
g7
S't1'
p22
sg9
S'Anaphora-C'
p23
sg10
S'i2'
p24
sg12
S'i1'
p25
sg13
Nsg14
(lp26
(i__main__
Token
p27
(dp28
g18
I5
sbasg19
I5
sba(i__main__
Mention
p29
(dp30
g7
S't1'
p31
sg9
S'Coreference-Identity'
p32
sg10
S'i12'
p33
sg12
S'i2'
p34
sg13
Nsg14
(lp35
(i__main__
Token
p36
(dp37
g18
I40
sbasg19
I40
sba(i__main__
Mention
p38
(dp39
g7
S't1'
p40
sg9
S'Coreference-Identity'
p41
sg10
S'i22'
p42
sg12
S'i12'
p43
sg13
Nsg14
(lp44
(i__main__
Token
p45
(dp46
g18
I75
sbasg19
I75
sba(i__main__
Mention
p47
(dp48
g7
S't1'
p49
sg9
S'Coreference-Identity'
p50
sg10
S'i40'
p51
sg12
S'i22'
p52
sg13
Nsg14
(lp53
(i__main__
Token
p54
(dp55
g18
I169
sbasg19
I169
sbasg7
g8
sS'chainHead'
p56
Nsba(i__main__
Chain
p57
(dp58
g3
(lp59
(i__main__
Mention
p60
(dp61
g7
S't2'
p62
sg9
Nsg10
S'i3'
p63
sg12
Nsg13
Nsg14
(lp64
(i__main__
Token
p65
(dp66
g18
I6
sba(i__main__
Token
p67
(dp68
g18
I7
sbasg19
I7
sba(i__main__
Mention
p69
(dp70
g7
S't2'
p71
sg9
S'Coreference-NounComplement'
p72
sg10
S'i4'
p73
sg12
S'i3'
p74
sg13
Nsg14
(lp75
(i__main__
Token
p76
(dp77
g18
I8
sba(i__main__
Token
p78
(dp79
g18
I9
sbasg19
I9
sba(i__main__
Mention
p80
(dp81
g7
S't2'
p82
sg9
S'Coreference-Identity'
p83
sg10
S'i32'
p84
sg12
S'i4'
p85
sg13
Nsg14
(lp86
(i__main__
Token
p87
(dp88
g18
I127
sba(i__main__
Token
p89
(dp90
g18
I128
sbasg19
I128
sba(i__main__
Mention
p91
(dp92
g7
S't2'
p93
sg9
S'Coreference-Identity'
p94
sg10
S'i46'
p95
sg12
S'i32'
p96
sg13
Nsg14
(lp97
(i__main__
Token
p98
(dp99
g18
I200
sba(i__main__
Token
p100
(dp101
g18
I201
sbasg19
I201
sbasg7
g62
sg56
Nsba(i__main__
Chain
p102
(dp103
g3
(lp104
(i__main__
Mention
p105
(dp106
g7
S't3'
p107
sg9
Nsg10
S'i5'
p108
sg12
Nsg13
Nsg14
(lp109
(i__main__
Token
p110
(dp111
g18
I11
sbasg19
I11
sba(i__main__
Mention
p112
(dp113
g7
S't3'
p114
sg9
S'Coreference-Noun-Noun'
p115
sg10
S'i6'
p116
sg12
S'i5'
p117
sg13
Nsg14
(lp118
(i__main__
Token
p119
(dp120
g18
I15
sba(i__main__
Token
p121
(dp122
g18
I16
sbasg19
I16
sba(i__main__
Mention
p123
(dp124
g7
S't3'
p125
sg9
S'Coreference-NounComplement'
p126
sg10
S'i7'
p127
sg12
S'i6'
p128
sg13
Nsg14
(lp129
(i__main__
Token
p130
(dp131
g18
I17
sba(i__main__
Token
p132
(dp133
g18
I18
sbasg19
I18
sba(i__main__
Mention
p134
(dp135
g7
S't3'
p136
sg9
S'Anaphora-C'
p137
sg10
S'i9'
p138
sg12
S'i7'
p139
sg13
Nsg14
(lp140
(i__main__
Token
p141
(dp142
g18
I28
sbasg19
I28
sba(i__main__
Mention
p143
(dp144
g7
S't3'
p145
sg9
S'Coreference-Identity'
p146
sg10
S'i15'
p147
sg12
S'i9'
p148
sg13
Nsg14
(lp149
(i__main__
Token
p150
(dp151
g18
I52
sba(i__main__
Token
p152
(dp153
g18
I53
sbasg19
I53
sba(i__main__
Mention
p154
(dp155
g7
S't3'
p156
sg9
S'Coreference-Identity'
p157
sg10
S'i17'
p158
sg12
S'i15'
p159
sg13
Nsg14
(lp160
(i__main__
Token
p161
(dp162
g18
I63
sbasg19
I63
sba(i__main__
Mention
p163
(dp164
g7
S't3'
p165
sg9
S'Coreference-Identity'
p166
sg10
S'i24'
p167
sg12
S'i17'
p168
sg13
Nsg14
(lp169
(i__main__
Token
p170
(dp171
g18
I85
sbasg19
I85
sba(i__main__
Mention
p172
(dp173
g7
S't3'
p174
sg9
S'Coreference-Identity'
p175
sg10
S'i27'
p176
sg12
S'i24'
p177
sg13
Nsg14
(lp178
(i__main__
Token
p179
(dp180
g18
I106
sbasg19
I106
sba(i__main__
Mention
p181
(dp182
g7
S't3'
p183
sg9
S'Coreference-Noun-Noun'
p184
sg10
S'i28'
p185
sg12
S'i27'
p186
sg13
Nsg14
(lp187
(i__main__
Token
p188
(dp189
g18
I108
sba(i__main__
Token
p190
(dp191
g18
I109
sba(i__main__
Token
p192
(dp193
g18
I110
sbasg19
I110
sba(i__main__
Mention
p194
(dp195
g7
S't3'
p196
sg9
S'Anaphora-C'
p197
sg10
S'i31'
p198
sg12
S'i28'
p199
sg13
Nsg14
(lp200
(i__main__
Token
p201
(dp202
g18
I126
sbasg19
I126
sba(i__main__
Mention
p203
(dp204
g7
S't3'
p205
sg9
S'Anaphora-C'
p206
sg10
S'i34'
p207
sg12
S'i31'
p208
sg13
Nsg14
(lp209
(i__main__
Token
p210
(dp211
g18
I137
sbasg19
I137
sba(i__main__
Mention
p212
(dp213
g7
S't3'
p214
sg9
S'Coreference-Noun-Noun'
p215
sg10
S'i37'
p216
sg12
S'i34'
p217
sg13
Nsg14
(lp218
(i__main__
Token
p219
(dp220
g18
I148
sbasg19
I148
sba(i__main__
Mention
p221
(dp222
g7
S't3'
p223
sg9
S'Coreference-Identity'
p224
sg10
S'i41'
p225
sg12
S'i37'
p226
sg13
Nsg14
(lp227
(i__main__
Token
p228
(dp229
g18
I171
sba(i__main__
Token
p230
(dp231
g18
I172
sbasg19
I172
sba(i__main__
Mention
p232
(dp233
g7
S't3'
p234
sg9
S'Anaphora-C'
p235
sg10
S'i42'
p236
sg12
S'i41'
p237
sg13
Nsg14
(lp238
(i__main__
Token
p239
(dp240
g18
I182
sbasg19
I182
sba(i__main__
Mention
p241
(dp242
g7
S't3'
p243
sg9
S'Coreference-Identity'
p244
sg10
S'i49'
p245
sg12
S'i42'
p246
sg13
Nsg14
(lp247
(i__main__
Token
p248
(dp249
g18
I219
sbasg19
I219
sba(i__main__
Mention
p250
(dp251
g7
S't3'
p252
sg9
S'Anaphora-C'
p253
sg10
S'i50'
p254
sg12
S'i49'
p255
sg13
Nsg14
(lp256
(i__main__
Token
p257
(dp258
g18
I232
sbasg19
I232
sba(i__main__
Mention
p259
(dp260
g7
S't3'
p261
sg9
S'Anaphora-C'
p262
sg10
S'i52'
p263
sg12
S'i50'
p264
sg13
Nsg14
(lp265
(i__main__
Token
p266
(dp267
g18
I240
sbasg19
I240
sba(i__main__
Mention
p268
(dp269
g7
S't3'
p270
sg9
S'Anaphora-C'
p271
sg10
S'i53'
p272
sg12
S'i52'
p273
sg13
Nsg14
(lp274
(i__main__
Token
p275
(dp276
g18
I245
sbasg19
I245
sbasg7
g107
sg56
Nsba(i__main__
Chain
p277
(dp278
g3
(lp279
(i__main__
Mention
p280
(dp281
g7
S't4'
p282
sg9
Nsg10
S'i8'
p283
sg12
Nsg13
Nsg14
(lp284
(i__main__
Token
p285
(dp286
g18
I20
sbasg19
I20
sba(i__main__
Mention
p287
(dp288
g7
S't4'
p289
sg9
S'Coreference-Identity'
p290
sg10
S'i48'
p291
sg12
S'i8'
p292
sg13
Nsg14
(lp293
(i__main__
Token
p294
(dp295
g18
I210
sbasg19
I210
sbasg7
g282
sg56
Nsba(i__main__
Chain
p296
(dp297
g3
(lp298
(i__main__
Mention
p299
(dp300
g7
S't5'
p301
sg9
Nsg10
S'i10'
p302
sg12
Nsg13
Nsg14
(lp303
(i__main__
Token
p304
(dp305
g18
I30
sba(i__main__
Token
p306
(dp307
g18
I31
sbasg19
I31
sba(i__main__
Mention
p308
(dp309
g7
S't5'
p310
sg9
S'Coreference-Identity'
p311
sg10
S'i29'
p312
sg12
S'i10'
p313
sg13
Nsg14
(lp314
(i__main__
Token
p315
(dp316
g18
I116
sba(i__main__
Token
p317
(dp318
g18
I117
sbasg19
I117
sba(i__main__
Mention
p319
(dp320
g7
S't5'
p321
sg9
S'Coreference-Identity'
p322
sg10
S'i30'
p323
sg12
S'i29'
p324
sg13
Nsg14
(lp325
(i__main__
Token
p326
(dp327
g18
I122
sba(i__main__
Token
p328
(dp329
g18
I123
sbasg19
I123
sba(i__main__
Mention
p330
(dp331
g7
S't5'
p332
sg9
S'Coreference-Identity'
p333
sg10
S'i47'
p334
sg12
S'i30'
p335
sg13
Nsg14
(lp336
(i__main__
Token
p337
(dp338
g18
I206
sba(i__main__
Token
p339
(dp340
g18
I207
sbasg19
I207
sbasg7
g301
sg56
Nsba(i__main__
Chain
p341
(dp342
g3
(lp343
(i__main__
Mention
p344
(dp345
g7
S't6'
p346
sg9
Nsg10
S'i11'
p347
sg12
Nsg13
Nsg14
(lp348
(i__main__
Token
p349
(dp350
g18
I35
sbasg19
I35
sba(i__main__
Mention
p351
(dp352
g7
S't6'
p353
sg9
S'Coreference-Identity'
p354
sg10
S'i38'
p355
sg12
S'i11'
p356
sg13
Nsg14
(lp357
(i__main__
Token
p358
(dp359
g18
I161
sbasg19
I161
sbasg7
g346
sg56
Nsba(i__main__
Chain
p360
(dp361
g3
(lp362
(i__main__
Mention
p363
(dp364
g7
S't7'
p365
sg9
Nsg10
S'i13'
p366
sg12
Nsg13
Nsg14
(lp367
(i__main__
Token
p368
(dp369
g18
I40
sba(i__main__
Token
p370
(dp371
g18
I41
sbasg19
I41
sba(i__main__
Mention
p372
(dp373
g7
S't7'
p374
sg9
S'Coreference-Identity'
p375
sg10
S'i23'
p376
sg12
S'i13'
p377
sg13
Nsg14
(lp378
(i__main__
Token
p379
(dp380
g18
I82
sbasg19
I82
sba(i__main__
Mention
p381
(dp382
g7
S't7'
p383
sg9
S'Coreference-Identity'
p384
sg10
S'i39'
p385
sg12
S'i23'
p386
sg13
Nsg14
(lp387
(i__main__
Token
p388
(dp389
g18
I165
sbasg19
I165
sbasg7
g365
sg56
Nsba(i__main__
Chain
p390
(dp391
g3
(lp392
(i__main__
Mention
p393
(dp394
g7
S't8'
p395
sg9
Nsg10
S'i14'
p396
sg12
Nsg13
Nsg14
(lp397
(i__main__
Token
p398
(dp399
g18
I46
sbasg19
I46
sba(i__main__
Mention
p400
(dp401
g7
S't8'
p402
sg9
S'Coreference-Identity'
p403
sg10
S'i18'
p404
sg12
S'i14'
p405
sg13
Nsg14
(lp406
(i__main__
Token
p407
(dp408
g18
I65
sbasg19
I65
sbasg7
g395
sg56
Nsba(i__main__
Chain
p409
(dp410
g3
(lp411
(i__main__
Mention
p412
(dp413
g7
S't9'
p414
sg9
Nsg10
S'i16'
p415
sg12
Nsg13
Nsg14
(lp416
(i__main__
Token
p417
(dp418
g18
I55
sbasg19
I55
sba(i__main__
Mention
p419
(dp420
g7
S't9'
p421
sg9
S'Coreference-Identity'
p422
sg10
S'i19'
p423
sg12
S'i16'
p424
sg13
Nsg14
(lp425
(i__main__
Token
p426
(dp427
g18
I67
sbasg19
I67
sba(i__main__
Mention
p428
(dp429
g7
S't9'
p430
sg9
S'Anaphora-C'
p431
sg10
S'i21'
p432
sg12
S'i19'
p433
sg13
Nsg14
(lp434
(i__main__
Token
p435
(dp436
g18
I74
sbasg19
I74
sbasg7
g414
sg56
Nsba(i__main__
Chain
p437
(dp438
g3
(lp439
(i__main__
Mention
p440
(dp441
g7
S't10'
p442
sg9
Nsg10
S'i20'
p443
sg12
Nsg13
Nsg14
(lp444
(i__main__
Token
p445
(dp446
g18
I69
sbasg19
I69
sba(i__main__
Mention
p447
(dp448
g7
S't10'
p449
sg9
S'Coreference-Identity'
p450
sg10
S'i25'
p451
sg12
S'i20'
p452
sg13
Nsg14
(lp453
(i__main__
Token
p454
(dp455
g18
I87
sbasg19
I87
sbasg7
g442
sg56
Nsba(i__main__
Chain
p456
(dp457
g3
(lp458
(i__main__
Mention
p459
(dp460
g7
S't11'
p461
sg9
S'anaphora-?'
p462
sg10
S'i26'
p463
sg12
S'i26'
p464
sg13
Nsg14
(lp465
(i__main__
Token
p466
(dp467
g18
I97
sbasg19
I97
sbasg7
g461
sg56
Nsba(i__main__
Chain
p468
(dp469
g3
(lp470
(i__main__
Mention
p471
(dp472
g7
S't12'
p473
sg9
Nsg10
S'i33'
p474
sg12
Nsg13
Nsg14
(lp475
(i__main__
Token
p476
(dp477
g18
I131
sbasg19
I131
sba(i__main__
Mention
p478
(dp479
g7
S't12'
p480
sg9
S'Coreference-Identity'
p481
sg10
S'i51'
p482
sg12
S'i33'
p483
sg13
Nsg14
(lp484
(i__main__
Token
p485
(dp486
g18
I233
sbasg19
I233
sbasg7
g473
sg56
Nsba(i__main__
Chain
p487
(dp488
g3
(lp489
(i__main__
Mention
p490
(dp491
g7
S't13'
p492
sg9
S'anaphora-E'
p493
sg10
S'i35'
p494
sg12
S'i36'
p495
sg13
Nsg14
(lp496
(i__main__
Token
p497
(dp498
g18
I144
sbasg19
I144
sbasg7
g492
sg56
Nsba(i__main__
Chain
p499
(dp500
g3
(lp501
(i__main__
Mention
p502
(dp503
g7
S't14'
p504
sg9
Nsg10
S'i43'
p505
sg12
Nsg13
Nsg14
(lp506
(i__main__
Token
p507
(dp508
g18
I186
sba(i__main__
Token
p509
(dp510
g18
I187
sbasg19
I187
sba(i__main__
Mention
p511
(dp512
g7
S't14'
p513
sg9
S'Coreference-Noun-Noun'
p514
sg10
S'i45'
p515
sg12
S'i43'
p516
sg13
Nsg14
(lp517
(i__main__
Token
p518
(dp519
g18
I197
sba(i__main__
Token
p520
(dp521
g18
I198
sbasg19
I198
sbasg7
g504
sg56
Nsba(i__main__
Chain
p522
(dp523
g3
(lp524
(i__main__
Mention
p525
(dp526
g7
S't15'
p527
sg9
S'anaphora-?'
p528
sg10
S'i44'
p529
sg12
S'i44'
p530
sg13
Nsg14
(lp531
(i__main__
Token
p532
(dp533
g18
I190
sbasg19
I190
sbasg7
g527
sg56
Nsba(i__main__
Chain
p534
(dp535
g3
(lp536
(i__main__
Mention
p537
(dp538
g7
S't16'
p539
sg9
S'anaphora-?'
p540
sg10
S'i54'
p541
sg12
S'i54'
p542
sg13
Nsg14
(lp543
(i__main__
Token
p544
(dp545
g18
I247
sbasg19
I247
sbasg7
g539
sg56
Nsba.