(lp0
(i__main__
Chain
p1
(dp2
S'mentionList'
p3
(lp4
(i__main__
Mention
p5
(dp6
S'chainId'
p7
S't1'
p8
sS'relType'
p9
NsS'mentionId'
p10
S'i1'
p11
sS'antecedentId'
p12
NsS'crefMod'
p13
NsS'tokenList'
p14
(lp15
(i__main__
Token
p16
(dp17
S'tokenId'
p18
I0
sba(i__main__
Token
p19
(dp20
g18
I1
sbasS'mentionHead'
p21
I1
sba(i__main__
Mention
p22
(dp23
g7
S't1'
p24
sg9
S'Coreference-Identity'
p25
sg10
S'i60'
p26
sg12
S'i1'
p27
sg13
Nsg14
(lp28
(i__main__
Token
p29
(dp30
g18
I279
sbasg21
I279
sbasg7
g8
sS'chainHead'
p31
Nsba(i__main__
Chain
p32
(dp33
g3
(lp34
(i__main__
Mention
p35
(dp36
g7
S't2'
p37
sg9
Nsg10
S'i2'
p38
sg12
Nsg13
Nsg14
(lp39
(i__main__
Token
p40
(dp41
g18
I3
sbasg21
I3
sba(i__main__
Mention
p42
(dp43
g7
S't2'
p44
sg9
S'Coreference-Identity'
p45
sg10
S'i46'
p46
sg12
S'i2'
p47
sg13
Nsg14
(lp48
(i__main__
Token
p49
(dp50
g18
I195
sbasg21
I195
sba(i__main__
Mention
p51
(dp52
g7
S't2'
p53
sg9
S'Coreference-Identity'
p54
sg10
S'i51'
p55
sg12
S'i46'
p56
sg13
Nsg14
(lp57
(i__main__
Token
p58
(dp59
g18
I221
sbasg21
I221
sba(i__main__
Mention
p60
(dp61
g7
S't2'
p62
sg9
S'Coreference-Identity'
p63
sg10
S'i56'
p64
sg12
S'i51'
p65
sg13
Nsg14
(lp66
(i__main__
Token
p67
(dp68
g18
I241
sbasg21
I241
sbasg7
g37
sg31
Nsba(i__main__
Chain
p69
(dp70
g3
(lp71
(i__main__
Mention
p72
(dp73
g7
S't3'
p74
sg9
Nsg10
S'i3'
p75
sg12
Nsg13
Nsg14
(lp76
(i__main__
Token
p77
(dp78
g18
I5
sbasg21
I5
sba(i__main__
Mention
p79
(dp80
g7
S't3'
p81
sg9
S'Coreference-Identity'
p82
sg10
S'i9'
p83
sg12
S'i3'
p84
sg13
Nsg14
(lp85
(i__main__
Token
p86
(dp87
g18
I26
sbasg21
I26
sba(i__main__
Mention
p88
(dp89
g7
S't3'
p90
sg9
S'Coreference-InferedRelation'
p91
sg10
S'i17'
p92
sg12
S'i9'
p93
sg13
Nsg14
(lp94
(i__main__
Token
p95
(dp96
g18
I55
sbasg21
I55
sba(i__main__
Mention
p97
(dp98
g7
S't3'
p99
sg9
S'Coreference-InferedRelation'
p100
sg10
S'i31'
p101
sg12
S'i62'
p102
sg13
Nsg14
(lp103
(i__main__
Token
p104
(dp105
g18
I126
sbasg21
I126
sba(i__main__
Mention
p106
(dp107
g7
S't3'
p108
sg9
S'Coreference-InferedRelation'
p109
sg10
S'i38'
p110
sg12
S'i31'
p111
sg13
Nsg14
(lp112
(i__main__
Token
p113
(dp114
g18
I157
sbasg21
I157
sba(i__main__
Mention
p115
(dp116
g7
S't3'
p117
sg9
S'Coreference-InferedRelation'
p118
sg10
S'i39'
p119
sg12
S'i63'
p120
sg13
Nsg14
(lp121
(i__main__
Token
p122
(dp123
g18
I166
sbasg21
I166
sba(i__main__
Mention
p124
(dp125
g7
S't3'
p126
sg9
S'Coreference-RPartOf'
p127
sg10
S'i43'
p128
sg12
S'i39'
p129
sg13
Nsg14
(lp130
(i__main__
Token
p131
(dp132
g18
I180
sba(i__main__
Token
p133
(dp134
g18
I181
sbasg21
I181
sba(i__main__
Mention
p135
(dp136
g7
S't3'
p137
sg9
S'Coreference-PartOf'
p138
sg10
S'i47'
p139
sg12
S'i43'
p140
sg13
Nsg14
(lp141
(i__main__
Token
p142
(dp143
g18
I197
sbasg21
I197
sbasg7
g74
sg31
Nsba(i__main__
Chain
p144
(dp145
g3
(lp146
(i__main__
Mention
p147
(dp148
g7
S't4'
p149
sg9
Nsg10
S'i4'
p150
sg12
Nsg13
Nsg14
(lp151
(i__main__
Token
p152
(dp153
g18
I7
sbasg21
I7
sba(i__main__
Mention
p154
(dp155
g7
S't4'
p156
sg9
S'Coreference-Identity'
p157
sg10
S'i50'
p158
sg12
S'i4'
p159
sg13
Nsg14
(lp160
(i__main__
Token
p161
(dp162
g18
I209
sbasg21
I209
sba(i__main__
Mention
p163
(dp164
g7
S't4'
p165
sg9
S'Coreference-Identity'
p166
sg10
S'i55'
p167
sg12
S'i50'
p168
sg13
Nsg14
(lp169
(i__main__
Token
p170
(dp171
g18
I238
sbasg21
I238
sbasg7
g149
sg31
Nsba(i__main__
Chain
p172
(dp173
g3
(lp174
(i__main__
Mention
p175
(dp176
g7
S't5'
p177
sg9
Nsg10
S'i5'
p178
sg12
Nsg13
Nsg14
(lp179
(i__main__
Token
p180
(dp181
g18
I18
sbasg21
I18
sba(i__main__
Mention
p182
(dp183
g7
S't5'
p184
sg9
S'Coreference-Identity'
p185
sg10
S'i44'
p186
sg12
S'i5'
p187
sg13
Nsg14
(lp188
(i__main__
Token
p189
(dp190
g18
I183
sbasg21
I183
sba(i__main__
Mention
p191
(dp192
g7
S't5'
p193
sg9
S'Coreference-Identity'
p194
sg10
S'i54'
p195
sg12
S'i44'
p196
sg13
Nsg14
(lp197
(i__main__
Token
p198
(dp199
g18
I232
sbasg21
I232
sbasg7
g177
sg31
Nsba(i__main__
Chain
p200
(dp201
g3
(lp202
(i__main__
Mention
p203
(dp204
g7
S't6'
p205
sg9
Nsg10
S'i6'
p206
sg12
Nsg13
Nsg14
(lp207
(i__main__
Token
p208
(dp209
g18
I20
sbasg21
I20
sba(i__main__
Mention
p210
(dp211
g7
S't6'
p212
sg9
S'Coreference-NounComplement'
p213
sg10
S'i7'
p214
sg12
S'i6'
p215
sg13
Nsg14
(lp216
(i__main__
Token
p217
(dp218
g18
I21
sba(i__main__
Token
p219
(dp220
g18
I22
sbasg21
I22
sba(i__main__
Mention
p221
(dp222
g7
S't6'
p223
sg9
S'Coreference-Identity'
p224
sg10
S'i14'
p225
sg12
S'i7'
p226
sg13
Nsg14
(lp227
(i__main__
Token
p228
(dp229
g18
I36
sbasg21
I36
sba(i__main__
Mention
p230
(dp231
g7
S't6'
p232
sg9
S'Coreference-Identity'
p233
sg10
S'i28'
p234
sg12
S'i14'
p235
sg13
Nsg14
(lp236
(i__main__
Token
p237
(dp238
g18
I119
sbasg21
I119
sba(i__main__
Mention
p239
(dp240
g7
S't6'
p241
sg9
S'Anaphora-C'
p242
sg10
S'i30'
p243
sg12
S'i28'
p244
sg13
Nsg14
(lp245
(i__main__
Token
p246
(dp247
g18
I123
sbasg21
I123
sbasg7
g205
sg31
Nsba(i__main__
Chain
p248
(dp249
g3
(lp250
(i__main__
Mention
p251
(dp252
g7
S't7'
p253
sg9
Nsg10
S'i8'
p254
sg12
Nsg13
Nsg14
(lp255
(i__main__
Token
p256
(dp257
g18
I24
sbasg21
I24
sba(i__main__
Mention
p258
(dp259
g7
S't7'
p260
sg9
S'Coreference-Identity'
p261
sg10
S'i29'
p262
sg12
S'i8'
p263
sg13
Nsg14
(lp264
(i__main__
Token
p265
(dp266
g18
I121
sbasg21
I121
sbasg7
g253
sg31
Nsba(i__main__
Chain
p267
(dp268
g3
(lp269
(i__main__
Mention
p270
(dp271
g7
S't8'
p272
sg9
Nsg10
S'i10'
p273
sg12
Nsg13
Nsg14
(lp274
(i__main__
Token
p275
(dp276
g18
I26
sba(i__main__
Token
p277
(dp278
g18
I27
sbasg21
I27
sba(i__main__
Mention
p279
(dp280
g7
S't8'
p281
sg9
S'Coreference-NounComplement'
p282
sg10
S'i11'
p283
sg12
S'i10'
p284
sg13
Nsg14
(lp285
(i__main__
Token
p286
(dp287
g18
I28
sba(i__main__
Token
p288
(dp289
g18
I29
sbasg21
I29
sba(i__main__
Mention
p290
(dp291
g7
S't8'
p292
sg9
S'Coreference-Identity'
p293
sg10
S'i15'
p294
sg12
S'i11'
p295
sg13
Nsg14
(lp296
(i__main__
Token
p297
(dp298
g18
I38
sbasg21
I38
sba(i__main__
Mention
p299
(dp300
g7
S't8'
p301
sg9
S'Coreference-Noun-Noun'
p302
sg10
S'i32'
p303
sg12
S'i15'
p304
sg13
Nsg14
(lp305
(i__main__
Token
p306
(dp307
g18
I126
sba(i__main__
Token
p308
(dp309
g18
I127
sbasg21
I127
sbasg7
g272
sg31
Nsba(i__main__
Chain
p310
(dp311
g3
(lp312
(i__main__
Mention
p313
(dp314
g7
S't9'
p315
sg9
Nsg10
S'i12'
p316
sg12
Nsg13
Nsg14
(lp317
(i__main__
Token
p318
(dp319
g18
I31
sba(i__main__
Token
p320
(dp321
g18
I32
sbasg21
I32
sba(i__main__
Mention
p322
(dp323
g7
S't9'
p324
sg9
S'Anaphora-C'
p325
sg10
S'i13'
p326
sg12
S'i12'
p327
sg13
Nsg14
(lp328
(i__main__
Token
p329
(dp330
g18
I35
sbasg21
I35
sbasg7
g315
sg31
Nsba(i__main__
Chain
p331
(dp332
g3
(lp333
(i__main__
Mention
p334
(dp335
g7
S't10'
p336
sg9
Nsg10
S'i16'
p337
sg12
Nsg13
Nsg14
(lp338
(i__main__
Token
p339
(dp340
g18
I52
sba(i__main__
Token
p341
(dp342
g18
I53
sbasg21
I53
sba(i__main__
Mention
p343
(dp344
g7
S't10'
p345
sg9
S'Coreference-Noun-Noun'
p346
sg10
S'i25'
p347
sg12
S'i16'
p348
sg13
Nsg14
(lp349
(i__main__
Token
p350
(dp351
g18
I104
sba(i__main__
Token
p352
(dp353
g18
I105
sba(i__main__
Token
p354
(dp355
g18
I106
sbasg21
I106
sba(i__main__
Mention
p356
(dp357
g7
S't10'
p358
sg9
S'Coreference-Noun-Noun'
p359
sg10
S'i37'
p360
sg12
S'i25'
p361
sg13
Nsg14
(lp362
(i__main__
Token
p363
(dp364
g18
I154
sba(i__main__
Token
p365
(dp366
g18
I155
sbasg21
I155
sba(i__main__
Mention
p367
(dp368
g7
S't10'
p369
sg9
S'Coreference-Noun-Noun'
p370
sg10
S'i48'
p371
sg12
S'i37'
p372
sg13
Nsg14
(lp373
(i__main__
Token
p374
(dp375
g18
I201
sbasg21
I201
sbasg7
g336
sg31
Nsba(i__main__
Chain
p376
(dp377
g3
(lp378
(i__main__
Mention
p379
(dp380
g7
S't11'
p381
sg9
Nsg10
S'i18'
p382
sg12
Nsg13
Nsg14
(lp383
(i__main__
Token
p384
(dp385
g18
I69
sbasg21
I69
sba(i__main__
Mention
p386
(dp387
g7
S't11'
p388
sg9
S'Anaphora-C'
p389
sg10
S'i20'
p390
sg12
S'i18'
p391
sg13
Nsg14
(lp392
(i__main__
Token
p393
(dp394
g18
I80
sbasg21
I80
sba(i__main__
Mention
p395
(dp396
g7
S't11'
p397
sg9
S'Anaphora-C'
p398
sg10
S'i26'
p399
sg12
S'i20'
p400
sg13
Nsg14
(lp401
(i__main__
Token
p402
(dp403
g18
I108
sbasg21
I108
sbasg7
g381
sg31
Nsba(i__main__
Chain
p404
(dp405
g3
(lp406
(i__main__
Mention
p407
(dp408
g7
S't12'
p409
sg9
Nsg10
S'i19'
p410
sg12
Nsg13
Nsg14
(lp411
(i__main__
Token
p412
(dp413
g18
I69
sba(i__main__
Token
p414
(dp415
g18
I70
sba(i__main__
Token
p416
(dp417
g18
I71
sba(i__main__
Token
p418
(dp419
g18
I72
sba(i__main__
Token
p420
(dp421
g18
I73
sba(i__main__
Token
p422
(dp423
g18
I74
sbasg21
I74
sba(i__main__
Mention
p424
(dp425
g7
S't12'
p426
sg9
S'Coreference-Identity'
p427
sg10
S'i27'
p428
sg12
S'i19'
p429
sg13
Nsg14
(lp430
(i__main__
Token
p431
(dp432
g18
I114
sba(i__main__
Token
p433
(dp434
g18
I115
sbasg21
I115
sbasg7
g409
sg31
Nsba(i__main__
Chain
p435
(dp436
g3
(lp437
(i__main__
Mention
p438
(dp439
g7
S't13'
p440
sg9
Nsg10
S'i21'
p441
sg12
Nsg13
Nsg14
(lp442
(i__main__
Token
p443
(dp444
g18
I83
sba(i__main__
Token
p445
(dp446
g18
I84
sbasg21
I84
sba(i__main__
Mention
p447
(dp448
g7
S't13'
p449
sg9
S'Coreference-Identity'
p450
sg10
S'i59'
p451
sg12
S'i21'
p452
sg13
Nsg14
(lp453
(i__main__
Token
p454
(dp455
g18
I276
sba(i__main__
Token
p456
(dp457
g18
I277
sbasg21
I277
sbasg7
g440
sg31
Nsba(i__main__
Chain
p458
(dp459
g3
(lp460
(i__main__
Mention
p461
(dp462
g7
S't14'
p463
sg9
Nsg10
S'i22'
p464
sg12
Nsg13
Nsg14
(lp465
(i__main__
Token
p466
(dp467
g18
I92
sbasg21
I92
sba(i__main__
Mention
p468
(dp469
g7
S't14'
p470
sg9
S'Coreference-Identity'
p471
sg10
S'i64'
p472
sg12
S'i22'
p473
sg13
Nsg14
(lp474
(i__main__
Token
p475
(dp476
g18
I292
sbasg21
I292
sbasg7
g463
sg31
Nsba(i__main__
Chain
p477
(dp478
g3
(lp479
(i__main__
Mention
p480
(dp481
g7
S't15'
p482
sg9
Nsg10
S'i23'
p483
sg12
Nsg13
Nsg14
(lp484
(i__main__
Token
p485
(dp486
g18
I94
sba(i__main__
Token
p487
(dp488
g18
I95
sba(i__main__
Token
p489
(dp490
g18
I96
sbasg21
I96
sba(i__main__
Mention
p491
(dp492
g7
S't15'
p493
sg9
S'Coreference-NounComplement'
p494
sg10
S'i24'
p495
sg12
S'i23'
p496
sg13
Nsg14
(lp497
(i__main__
Token
p498
(dp499
g18
I97
sba(i__main__
Token
p500
(dp501
g18
I98
sba(i__main__
Token
p502
(dp503
g18
I99
sbasg21
I99
sbasg7
g482
sg31
Nsba(i__main__
Chain
p504
(dp505
g3
(lp506
(i__main__
Mention
p507
(dp508
g7
S't16'
p509
sg9
Nsg10
S'i33'
p510
sg12
Nsg13
Nsg14
(lp511
(i__main__
Token
p512
(dp513
g18
I134
sbasg21
I134
sba(i__main__
Mention
p514
(dp515
g7
S't16'
p516
sg9
S'Coreference-Identity'
p517
sg10
S'i42'
p518
sg12
S'i33'
p519
sg13
Nsg14
(lp520
(i__main__
Token
p521
(dp522
g18
I178
sbasg21
I178
sba(i__main__
Mention
p523
(dp524
g7
S't16'
p525
sg9
S'Coreference-Identity'
p526
sg10
S'i52'
p527
sg12
S'i42'
p528
sg13
Nsg14
(lp529
(i__main__
Token
p530
(dp531
g18
I223
sbasg21
I223
sbasg7
g509
sg31
Nsba(i__main__
Chain
p532
(dp533
g3
(lp534
(i__main__
Mention
p535
(dp536
g7
S't17'
p537
sg9
Nsg10
S'i34'
p538
sg12
Nsg13
Nsg14
(lp539
(i__main__
Token
p540
(dp541
g18
I134
sba(i__main__
Token
p542
(dp543
g18
I135
sba(i__main__
Token
p544
(dp545
g18
I136
sba(i__main__
Token
p546
(dp547
g18
I137
sba(i__main__
Token
p548
(dp549
g18
I138
sba(i__main__
Token
p550
(dp551
g18
I139
sba(i__main__
Token
p552
(dp553
g18
I140
sba(i__main__
Token
p554
(dp555
g18
I141
sba(i__main__
Token
p556
(dp557
g18
I142
sba(i__main__
Token
p558
(dp559
g18
I143
sba(i__main__
Token
p560
(dp561
g18
I144
sba(i__main__
Token
p562
(dp563
g18
I145
sba(i__main__
Token
p564
(dp565
g18
I146
sba(i__main__
Token
p566
(dp567
g18
I147
sbasg21
I145
sba(i__main__
Mention
p568
(dp569
g7
S't17'
p570
sg9
S'Anaphora-E'
p571
sg10
S'i35'
p572
sg12
S'i34'
p573
sg13
Nsg14
(lp574
(i__main__
Token
p575
(dp576
g18
I149
sbasg21
I149
sbasg7
g537
sg31
Nsba(i__main__
Chain
p577
(dp578
g3
(lp579
(i__main__
Mention
p580
(dp581
g7
S't18'
p582
sg9
Nsg10
S'i40'
p583
sg12
Nsg13
Nsg14
(lp584
(i__main__
Token
p585
(dp586
g18
I170
sba(i__main__
Token
p587
(dp588
g18
I171
sbasg21
I171
sba(i__main__
Mention
p589
(dp590
g7
S't18'
p591
sg9
S'Coreference-NounComplement'
p592
sg10
S'i41'
p593
sg12
S'i40'
p594
sg13
Nsg14
(lp595
(i__main__
Token
p596
(dp597
g18
I172
sba(i__main__
Token
p598
(dp599
g18
I173
sba(i__main__
Token
p600
(dp601
g18
I174
sbasg21
I174
sba(i__main__
Mention
p602
(dp603
g7
S't18'
p604
sg9
S'Anaphora-C'
p605
sg10
S'i45'
p606
sg12
S'i41'
p607
sg13
Nsg14
(lp608
(i__main__
Token
p609
(dp610
g18
I189
sbasg21
I189
sba(i__main__
Mention
p611
(dp612
g7
S't18'
p613
sg9
S'Anaphora-C'
p614
sg10
S'i49'
p615
sg12
S'i45'
p616
sg13
Nsg14
(lp617
(i__main__
Token
p618
(dp619
g18
I206
sbasg21
I206
sbasg7
g582
sg31
Nsba(i__main__
Chain
p620
(dp621
g3
(lp622
(i__main__
Mention
p623
(dp624
g7
S't19'
p625
sg9
Nsg10
S'i53'
p626
sg12
Nsg13
Nsg14
(lp627
(i__main__
Token
p628
(dp629
g18
I230
sbasg21
I230
sba(i__main__
Mention
p630
(dp631
g7
S't19'
p632
sg9
S'Coreference-Identity'
p633
sg10
S'i66'
p634
sg12
S'i53'
p635
sg13
Nsg14
(lp636
(i__main__
Token
p637
(dp638
g18
I306
sba(i__main__
Token
p639
(dp640
g18
I307
sbasg21
I307
sbasg7
g625
sg31
Nsba(i__main__
Chain
p641
(dp642
g3
(lp643
(i__main__
Mention
p644
(dp645
g7
S't20'
p646
sg9
Nsg10
S'i57'
p647
sg12
Nsg13
Nsg14
(lp648
(i__main__
Token
p649
(dp650
g18
I262
sbasg21
I262
sba(i__main__
Mention
p651
(dp652
g7
S't20'
p653
sg9
S'Coreference-NounComplement'
p654
sg10
S'i58'
p655
sg12
S'i57'
p656
sg13
Nsg14
(lp657
(i__main__
Token
p658
(dp659
g18
I263
sba(i__main__
Token
p660
(dp661
g18
I264
sbasg21
I264
sba(i__main__
Mention
p662
(dp663
g7
S't20'
p664
sg9
S'Anaphora-C'
p665
sg10
S'i62'
p666
sg12
S'i58'
p667
sg13
Nsg14
(lp668
(i__main__
Token
p669
(dp670
g18
I286
sbasg21
I286
sbasg7
g646
sg31
Nsba(i__main__
Chain
p671
(dp672
g3
(lp673
(i__main__
Mention
p674
(dp675
g7
S't21'
p676
sg9
S'anaphora-?'
p677
sg10
S'i61'
p678
sg12
S'i61'
p679
sg13
Nsg14
(lp680
(i__main__
Token
p681
(dp682
g18
I281
sbasg21
I281
sbasg7
g676
sg31
Nsba(i__main__
Chain
p683
(dp684
g3
(lp685
(i__main__
Mention
p686
(dp687
g7
S't22'
p688
sg9
Nsg10
S'i63'
p689
sg12
Nsg13
Nsg14
(lp690
(i__main__
Token
p691
(dp692
g18
I292
sba(i__main__
Token
p693
(dp694
g18
I293
sbasg21
I293
sba(i__main__
Mention
p695
(dp696
g7
S't22'
p697
sg9
S'Coreference-NounComplement'
p698
sg10
S'i65'
p699
sg12
S'i63'
p700
sg13
Nsg14
(lp701
(i__main__
Token
p702
(dp703
g18
I294
sba(i__main__
Token
p704
(dp705
g18
I295
sbasg21
I295
sbasg7
g688
sg31
Nsba.