(lp0
(i__main__
Chain
p1
(dp2
S'mentionList'
p3
(lp4
(i__main__
Mention
p5
(dp6
S'chainId'
p7
S't1'
p8
sS'relType'
p9
NsS'mentionId'
p10
S'i1'
p11
sS'antecedentId'
p12
NsS'crefMod'
p13
NsS'tokenList'
p14
(lp15
(i__main__
Token
p16
(dp17
S'tokenId'
p18
I0
sba(i__main__
Token
p19
(dp20
g18
I1
sbasS'mentionHead'
p21
I1
sba(i__main__
Mention
p22
(dp23
g7
S't1'
p24
sg9
S'Coreference-Identity'
p25
sg10
S'i41'
p26
sg12
S'i1'
p27
sg13
Nsg14
(lp28
(i__main__
Token
p29
(dp30
g18
I292
sbasg21
I292
sba(i__main__
Mention
p31
(dp32
g7
S't1'
p33
sg9
S'Coreference-Identity'
p34
sg10
S'i45'
p35
sg12
S'i41'
p36
sg13
Nsg14
(lp37
(i__main__
Token
p38
(dp39
g18
I314
sbasg21
I314
sba(i__main__
Mention
p40
(dp41
g7
S't1'
p42
sg9
S'Coreference-Identity'
p43
sg10
S'i50'
p44
sg12
S'i45'
p45
sg13
Nsg14
(lp46
(i__main__
Token
p47
(dp48
g18
I352
sbasg21
I352
sbasg7
g8
sS'chainHead'
p49
Nsba(i__main__
Chain
p50
(dp51
g3
(lp52
(i__main__
Mention
p53
(dp54
g7
S't2'
p55
sg9
Nsg10
S'i2'
p56
sg12
Nsg13
Nsg14
(lp57
(i__main__
Token
p58
(dp59
g18
I11
sbasg21
I11
sba(i__main__
Mention
p60
(dp61
g7
S't2'
p62
sg9
S'Coreference-Identity'
p63
sg10
S'i5'
p64
sg12
S'i2'
p65
sg13
Nsg14
(lp66
(i__main__
Token
p67
(dp68
g18
I43
sbasg21
I43
sba(i__main__
Mention
p69
(dp70
g7
S't2'
p71
sg9
Nsg10
S'i7'
p72
sg12
Nsg13
Nsg14
(lp73
(i__main__
Token
p74
(dp75
g18
I62
sba(i__main__
Token
p76
(dp77
g18
I63
sbasg21
Nsba(i__main__
Mention
p78
(dp79
g7
S't2'
p80
sg9
S'Anaphora-C'
p81
sg10
S'i12'
p82
sg12
S'i7'
p83
sg13
Nsg14
(lp84
(i__main__
Token
p85
(dp86
g18
I73
sbasg21
I73
sba(i__main__
Mention
p87
(dp88
g7
S't2'
p89
sg9
Nsg10
S'i13'
p90
sg12
Nsg13
Nsg14
(lp91
(i__main__
Token
p92
(dp93
g18
I90
sba(i__main__
Token
p94
(dp95
g18
I91
sbasg21
Nsba(i__main__
Mention
p96
(dp97
g7
S't2'
p98
sg9
Nsg10
S'i15'
p99
sg12
Nsg13
Nsg14
(lp100
(i__main__
Token
p101
(dp102
g18
I107
sba(i__main__
Token
p103
(dp104
g18
I108
sbasg21
Nsba(i__main__
Mention
p105
(dp106
g7
S't2'
p107
sg9
Nsg10
S'i22'
p108
sg12
Nsg13
Nsg14
(lp109
(i__main__
Token
p110
(dp111
g18
I158
sba(i__main__
Token
p112
(dp113
g18
I159
sbasg21
Nsba(i__main__
Mention
p114
(dp115
g7
S't2'
p116
sg9
S'Anaphora-C'
p117
sg10
S'i24'
p118
sg12
S'i22'
p119
sg13
Nsg14
(lp120
(i__main__
Token
p121
(dp122
g18
I161
sbasg21
I161
sba(i__main__
Mention
p123
(dp124
g7
S't2'
p125
sg9
Nsg10
S'i25'
p126
sg12
Nsg13
Nsg14
(lp127
(i__main__
Token
p128
(dp129
g18
I180
sba(i__main__
Token
p130
(dp131
g18
I181
sbasg21
Nsba(i__main__
Mention
p132
(dp133
g7
S't2'
p134
sg9
S'Coreference-Identity'
p135
sg10
S'i29'
p136
sg12
S'i25'
p137
sg13
Nsg14
(lp138
(i__main__
Token
p139
(dp140
g18
I200
sbasg21
I200
sba(i__main__
Mention
p141
(dp142
g7
S't2'
p143
sg9
S'Coreference-Identity'
p144
sg10
S'i37'
p145
sg12
S'i29'
p146
sg13
Nsg14
(lp147
(i__main__
Token
p148
(dp149
g18
I246
sbasg21
I246
sba(i__main__
Mention
p150
(dp151
g7
S't2'
p152
sg9
S'Anaphora-C'
p153
sg10
S'i38'
p154
sg12
S'i37'
p155
sg13
Nsg14
(lp156
(i__main__
Token
p157
(dp158
g18
I256
sbasg21
I256
sba(i__main__
Mention
p159
(dp160
g7
S't2'
p161
sg9
Nsg10
S'i39'
p162
sg12
Nsg13
Nsg14
(lp163
(i__main__
Token
p164
(dp165
g18
I278
sba(i__main__
Token
p166
(dp167
g18
I279
sbasg21
Nsba(i__main__
Mention
p168
(dp169
g7
S't2'
p170
sg9
Nsg10
S'i46'
p171
sg12
Nsg13
Nsg14
(lp172
(i__main__
Token
p173
(dp174
g18
I325
sba(i__main__
Token
p175
(dp176
g18
I326
sbasg21
Nsba(i__main__
Mention
p177
(dp178
g7
S't2'
p179
sg9
Nsg10
S'i48'
p180
sg12
Nsg13
Nsg14
(lp181
(i__main__
Token
p182
(dp183
g18
I350
sba(i__main__
Token
p184
(dp185
g18
I351
sbasg21
Nsbasg7
g55
sg49
Nsba(i__main__
Chain
p186
(dp187
g3
(lp188
(i__main__
Mention
p189
(dp190
g7
S't3'
p191
sg9
Nsg10
S'i3'
p192
sg12
Nsg13
Nsg14
(lp193
(i__main__
Token
p194
(dp195
g18
I15
sbasg21
I15
sba(i__main__
Mention
p196
(dp197
g7
S't3'
p198
sg9
S'Coreference-Identity'
p199
sg10
S'i6'
p200
sg12
S'i3'
p201
sg13
Nsg14
(lp202
(i__main__
Token
p203
(dp204
g18
I50
sbasg21
I50
sba(i__main__
Mention
p205
(dp206
g7
S't3'
p207
sg9
Nsg10
S'i8'
p208
sg12
Nsg13
Nsg14
(lp209
(i__main__
Token
p210
(dp211
g18
I62
sba(i__main__
Token
p212
(dp213
g18
I63
sbasg21
Nsba(i__main__
Mention
p214
(dp215
g7
S't3'
p216
sg9
Nsg10
S'i14'
p217
sg12
Nsg13
Nsg14
(lp218
(i__main__
Token
p219
(dp220
g18
I90
sba(i__main__
Token
p221
(dp222
g18
I91
sbasg21
Nsba(i__main__
Mention
p223
(dp224
g7
S't3'
p225
sg9
Nsg10
S'i16'
p226
sg12
Nsg13
Nsg14
(lp227
(i__main__
Token
p228
(dp229
g18
I107
sba(i__main__
Token
p230
(dp231
g18
I108
sbasg21
Nsba(i__main__
Mention
p232
(dp233
g7
S't3'
p234
sg9
S'Coreference-Identity'
p235
sg10
S'i17'
p236
sg12
S'i16'
p237
sg13
Nsg14
(lp238
(i__main__
Token
p239
(dp240
g18
I138
sbasg21
I138
sba(i__main__
Mention
p241
(dp242
g7
S't3'
p243
sg9
Nsg10
S'i23'
p244
sg12
Nsg13
Nsg14
(lp245
(i__main__
Token
p246
(dp247
g18
I158
sba(i__main__
Token
p248
(dp249
g18
I159
sbasg21
Nsba(i__main__
Mention
p250
(dp251
g7
S't3'
p252
sg9
Nsg10
S'i26'
p253
sg12
Nsg13
Nsg14
(lp254
(i__main__
Token
p255
(dp256
g18
I180
sba(i__main__
Token
p257
(dp258
g18
I181
sbasg21
Nsba(i__main__
Mention
p259
(dp260
g7
S't3'
p261
sg9
S'Coreference-Identity'
p262
sg10
S'i34'
p263
sg12
S'i26'
p264
sg13
Nsg14
(lp265
(i__main__
Token
p266
(dp267
g18
I234
sbasg21
I234
sba(i__main__
Mention
p268
(dp269
g7
S't3'
p270
sg9
S'Anaphora-C'
p271
sg10
S'i35'
p272
sg12
S'i34'
p273
sg13
Nsg14
(lp274
(i__main__
Token
p275
(dp276
g18
I239
sbasg21
I239
sba(i__main__
Mention
p277
(dp278
g7
S't3'
p279
sg9
Nsg10
S'i40'
p280
sg12
Nsg13
Nsg14
(lp281
(i__main__
Token
p282
(dp283
g18
I278
sba(i__main__
Token
p284
(dp285
g18
I279
sbasg21
Nsba(i__main__
Mention
p286
(dp287
g7
S't3'
p288
sg9
Nsg10
S'i47'
p289
sg12
Nsg13
Nsg14
(lp290
(i__main__
Token
p291
(dp292
g18
I325
sba(i__main__
Token
p293
(dp294
g18
I326
sbasg21
Nsba(i__main__
Mention
p295
(dp296
g7
S't3'
p297
sg9
Nsg10
S'i49'
p298
sg12
Nsg13
Nsg14
(lp299
(i__main__
Token
p300
(dp301
g18
I350
sba(i__main__
Token
p302
(dp303
g18
I351
sbasg21
Nsbasg7
g191
sg49
Nsba(i__main__
Chain
p304
(dp305
g3
(lp306
(i__main__
Mention
p307
(dp308
g7
S't4'
p309
sg9
S'anaphora-?'
p310
sg10
S'i4'
p311
sg12
S'i4'
p312
sg13
Nsg14
(lp313
(i__main__
Token
p314
(dp315
g18
I36
sbasg21
I36
sbasg7
g309
sg49
Nsba(i__main__
Chain
p316
(dp317
g3
(lp318
(i__main__
Mention
p319
(dp320
g7
S't5'
p321
sg9
S'anaphora-?'
p322
sg10
S'i9'
p323
sg12
S'i9'
p324
sg13
Nsg14
(lp325
(i__main__
Token
p326
(dp327
g18
I64
sbasg21
I64
sbasg7
g321
sg49
Nsba(i__main__
Chain
p328
(dp329
g3
(lp330
(i__main__
Mention
p331
(dp332
g7
S't6'
p333
sg9
S'anaphora-?'
p334
sg10
S'i10'
p335
sg12
S'i10'
p336
sg13
Nsg14
(lp337
(i__main__
Token
p338
(dp339
g18
I66
sbasg21
I66
sbasg7
g333
sg49
Nsba(i__main__
Chain
p340
(dp341
g3
(lp342
(i__main__
Mention
p343
(dp344
g7
S't7'
p345
sg9
S'anaphora-?'
p346
sg10
S'i11'
p347
sg12
S'i11'
p348
sg13
Nsg14
(lp349
(i__main__
Token
p350
(dp351
g18
I68
sbasg21
I68
sbasg7
g345
sg49
Nsba(i__main__
Chain
p352
(dp353
g3
(lp354
(i__main__
Mention
p355
(dp356
g7
S't8'
p357
sg9
Nsg10
S'i18'
p358
sg12
Nsg13
Nsg14
(lp359
(i__main__
Token
p360
(dp361
g18
I140
sba(i__main__
Token
p362
(dp363
g18
I141
sbasg21
I141
sba(i__main__
Mention
p364
(dp365
g7
S't8'
p366
sg9
S'Coreference-NounComplement'
p367
sg10
S'i19'
p368
sg12
S'i18'
p369
sg13
Nsg14
(lp370
(i__main__
Token
p371
(dp372
g18
I142
sba(i__main__
Token
p373
(dp374
g18
I143
sbasg21
I143
sba(i__main__
Mention
p375
(dp376
g7
S't8'
p377
sg9
S'Coreference-Identity'
p378
sg10
S'i27'
p379
sg12
S'i19'
p380
sg13
Nsg14
(lp381
(i__main__
Token
p382
(dp383
g18
I189
sbasg21
I189
sba(i__main__
Mention
p384
(dp385
g7
S't8'
p386
sg9
S'Coreference-Identity'
p387
sg10
S'i32'
p388
sg12
S'i27'
p389
sg13
Nsg14
(lp390
(i__main__
Token
p391
(dp392
g18
I211
sbasg21
I211
sbasg7
g357
sg49
Nsba(i__main__
Chain
p393
(dp394
g3
(lp395
(i__main__
Mention
p396
(dp397
g7
S't9'
p398
sg9
Nsg10
S'i20'
p399
sg12
Nsg13
Nsg14
(lp400
(i__main__
Token
p401
(dp402
g18
I149
sba(i__main__
Token
p403
(dp404
g18
I150
sba(i__main__
Token
p405
(dp406
g18
I151
sbasg21
I151
sba(i__main__
Mention
p407
(dp408
g7
S't9'
p409
sg9
S'Coreference-NounComplement'
p410
sg10
S'i21'
p411
sg12
S'i20'
p412
sg13
Nsg14
(lp413
(i__main__
Token
p414
(dp415
g18
I152
sba(i__main__
Token
p416
(dp417
g18
I153
sba(i__main__
Token
p418
(dp419
g18
I154
sbasg21
I154
sbasg7
g398
sg49
Nsba(i__main__
Chain
p420
(dp421
g3
(lp422
(i__main__
Mention
p423
(dp424
g7
S't10'
p425
sg9
Nsg10
S'i28'
p426
sg12
Nsg13
Nsg14
(lp427
(i__main__
Token
p428
(dp429
g18
I193
sbasg21
I193
sba(i__main__
Mention
p430
(dp431
g7
S't10'
p432
sg9
S'Coreference-Identity'
p433
sg10
S'i42'
p434
sg12
S'i28'
p435
sg13
Nsg14
(lp436
(i__main__
Token
p437
(dp438
g18
I298
sbasg21
I298
sbasg7
g425
sg49
Nsba(i__main__
Chain
p439
(dp440
g3
(lp441
(i__main__
Mention
p442
(dp443
g7
S't11'
p444
sg9
Nsg10
S'i30'
p445
sg12
Nsg13
Nsg14
(lp446
(i__main__
Token
p447
(dp448
g18
I202
sbasg21
I202
sba(i__main__
Mention
p449
(dp450
g7
S't11'
p451
sg9
S'Coreference-NounComplement'
p452
sg10
S'i31'
p453
sg12
S'i30'
p454
sg13
Nsg14
(lp455
(i__main__
Token
p456
(dp457
g18
I203
sba(i__main__
Token
p458
(dp459
g18
I204
sbasg21
I204
sbasg7
g444
sg49
Nsba(i__main__
Chain
p460
(dp461
g3
(lp462
(i__main__
Mention
p463
(dp464
g7
S't12'
p465
sg9
S'anaphora-?'
p466
sg10
S'i33'
p467
sg12
S'i33'
p468
sg13
Nsg14
(lp469
(i__main__
Token
p470
(dp471
g18
I217
sbasg21
I217
sbasg7
g465
sg49
Nsba(i__main__
Chain
p472
(dp473
g3
(lp474
(i__main__
Mention
p475
(dp476
g7
S't13'
p477
sg9
S'anaphora-?'
p478
sg10
S'i36'
p479
sg12
S'i36'
p480
sg13
Nsg14
(lp481
(i__main__
Token
p482
(dp483
g18
I240
sbasg21
I240
sbasg7
g477
sg49
Nsba(i__main__
Chain
p484
(dp485
g3
(lp486
(i__main__
Mention
p487
(dp488
g7
S't14'
p489
sg9
Nsg10
S'i43'
p490
sg12
Nsg13
Nsg14
(lp491
(i__main__
Token
p492
(dp493
g18
I303
sba(i__main__
Token
p494
(dp495
g18
I304
sbasg21
I304
sba(i__main__
Mention
p496
(dp497
g7
S't14'
p498
sg9
S'Anaphora-C'
p499
sg10
S'i44'
p500
sg12
S'i43'
p501
sg13
Nsg14
(lp502
(i__main__
Token
p503
(dp504
g18
I313
sbasg21
I313
sbasg7
g489
sg49
Nsba.