(lp0
(i__main__
Chain
p1
(dp2
S'mentionList'
p3
(lp4
(i__main__
Mention
p5
(dp6
S'chainId'
p7
S't1'
p8
sS'relType'
p9
NsS'mentionId'
p10
S'i1'
p11
sS'antecedentId'
p12
NsS'crefMod'
p13
NsS'tokenList'
p14
(lp15
(i__main__
Token
p16
(dp17
S'tokenId'
p18
I0
sba(i__main__
Token
p19
(dp20
g18
I1
sba(i__main__
Token
p21
(dp22
g18
I2
sbasS'mentionHead'
p23
I2
sba(i__main__
Mention
p24
(dp25
g7
S't1'
p26
sg9
S'Coreference-Abbreviation'
p27
sg10
S'i2'
p28
sg12
S'i1'
p29
sg13
Nsg14
(lp30
(i__main__
Token
p31
(dp32
g18
I3
sbasg23
I3
sba(i__main__
Mention
p33
(dp34
g7
S't1'
p35
sg9
S'Coreference-Noun-Noun'
p36
sg10
S'i11'
p37
sg12
S'i2'
p38
sg13
Nsg14
(lp39
(i__main__
Token
p40
(dp41
g18
I28
sbasg23
I28
sba(i__main__
Mention
p42
(dp43
g7
S't1'
p44
sg9
S'Coreference-Identity'
p45
sg10
S'i14'
p46
sg12
S'i11'
p47
sg13
Nsg14
(lp48
(i__main__
Token
p49
(dp50
g18
I37
sbasg23
I37
sba(i__main__
Mention
p51
(dp52
g7
S't1'
p53
sg9
S'Coreference-Noun-Noun'
p54
sg10
S'i15'
p55
sg12
S'i14'
p56
sg13
Nsg14
(lp57
(i__main__
Token
p58
(dp59
g18
I49
sbasg23
I49
sba(i__main__
Mention
p60
(dp61
g7
S't1'
p62
sg9
S'Coreference-Noun-Noun'
p63
sg10
S'i25'
p64
sg12
S'i15'
p65
sg13
Nsg14
(lp66
(i__main__
Token
p67
(dp68
g18
I102
sbasg23
I102
sba(i__main__
Mention
p69
(dp70
g7
S't1'
p71
sg9
S'Coreference-Noun-Noun'
p72
sg10
S'i28'
p73
sg12
S'i25'
p74
sg13
Nsg14
(lp75
(i__main__
Token
p76
(dp77
g18
I107
sbasg23
I107
sba(i__main__
Mention
p78
(dp79
g7
S't1'
p80
sg9
S'Coreference-Identity'
p81
sg10
S'i30'
p82
sg12
S'i28'
p83
sg13
Nsg14
(lp84
(i__main__
Token
p85
(dp86
g18
I114
sbasg23
I114
sba(i__main__
Mention
p87
(dp88
g7
S't1'
p89
sg9
S'Coreference-Noun-Noun'
p90
sg10
S'i50'
p91
sg12
S'i30'
p92
sg13
Nsg14
(lp93
(i__main__
Token
p94
(dp95
g18
I177
sbasg23
I177
sba(i__main__
Mention
p96
(dp97
g7
S't1'
p98
sg9
S'Coreference-Noun-Noun'
p99
sg10
S'i54'
p100
sg12
S'i50'
p101
sg13
Nsg14
(lp102
(i__main__
Token
p103
(dp104
g18
I191
sbasg23
I191
sba(i__main__
Mention
p105
(dp106
g7
S't1'
p107
sg9
S'Coreference-Noun-Noun'
p108
sg10
S'i55'
p109
sg12
S'i54'
p110
sg13
Nsg14
(lp111
(i__main__
Token
p112
(dp113
g18
I200
sbasg23
I200
sba(i__main__
Mention
p114
(dp115
g7
S't1'
p116
sg9
S'Coreference-Noun-Noun'
p117
sg10
S'i64'
p118
sg12
S'i55'
p119
sg13
Nsg14
(lp120
(i__main__
Token
p121
(dp122
g18
I243
sbasg23
I243
sba(i__main__
Mention
p123
(dp124
g7
S't1'
p125
sg9
S'Coreference-Identity'
p126
sg10
S'i68'
p127
sg12
S'i64'
p128
sg13
Nsg14
(lp129
(i__main__
Token
p130
(dp131
g18
I271
sbasg23
I271
sba(i__main__
Mention
p132
(dp133
g7
S't1'
p134
sg9
S'Coreference-Identity'
p135
sg10
S'i71'
p136
sg12
S'i68'
p137
sg13
Nsg14
(lp138
(i__main__
Token
p139
(dp140
g18
I290
sbasg23
I290
sbasg7
g8
sS'chainHead'
p141
Nsba(i__main__
Chain
p142
(dp143
g3
(lp144
(i__main__
Mention
p145
(dp146
g7
S't2'
p147
sg9
Nsg10
S'i3'
p148
sg12
Nsg13
Nsg14
(lp149
(i__main__
Token
p150
(dp151
g18
I3
sba(i__main__
Token
p152
(dp153
g18
I4
sbasg23
I4
sba(i__main__
Mention
p154
(dp155
g7
S't2'
p156
sg9
S'Coreference-NounComplement'
p157
sg10
S'i4'
p158
sg12
S'i3'
p159
sg13
Nsg14
(lp160
(i__main__
Token
p161
(dp162
g18
I5
sba(i__main__
Token
p163
(dp164
g18
I6
sba(i__main__
Token
p165
(dp166
g18
I7
sbasg23
I7
sba(i__main__
Mention
p167
(dp168
g7
S't2'
p169
sg9
S'Anaphora-C'
p170
sg10
S'i7'
p171
sg12
S'i4'
p172
sg13
Nsg14
(lp173
(i__main__
Token
p174
(dp175
g18
I13
sbasg23
I13
sba(i__main__
Mention
p176
(dp177
g7
S't2'
p178
sg9
S'Coreference-Identity'
p179
sg10
S'i17'
p180
sg12
S'i81'
p181
sg13
Nsg14
(lp182
(i__main__
Token
p183
(dp184
g18
I64
sbasg23
I64
sba(i__main__
Mention
p185
(dp186
g7
S't2'
p187
sg9
S'Anaphora-C'
p188
sg10
S'i18'
p189
sg12
S'i17'
p190
sg13
Nsg14
(lp191
(i__main__
Token
p192
(dp193
g18
I65
sbasg23
I65
sba(i__main__
Mention
p194
(dp195
g7
S't2'
p196
sg9
S'Coreference-Noun-Noun'
p197
sg10
S'i33'
p198
sg12
S'i18'
p199
sg13
Nsg14
(lp200
(i__main__
Token
p201
(dp202
g18
I129
sba(i__main__
Token
p203
(dp204
g18
I130
sbasg23
I130
sba(i__main__
Mention
p205
(dp206
g7
S't2'
p207
sg9
S'Coreference-Noun-Noun'
p208
sg10
S'i42'
p209
sg12
S'i33'
p210
sg13
Nsg14
(lp211
(i__main__
Token
p212
(dp213
g18
I151
sbasg23
I151
sba(i__main__
Mention
p214
(dp215
g7
S't2'
p216
sg9
S'Anaphora-C'
p217
sg10
S'i43'
p218
sg12
S'i42'
p219
sg13
Nsg14
(lp220
(i__main__
Token
p221
(dp222
g18
I155
sbasg23
I155
sba(i__main__
Mention
p223
(dp224
g7
S't2'
p225
sg9
S'Coreference-Identity'
p226
sg10
S'i44'
p227
sg12
S'i43'
p228
sg13
Nsg14
(lp229
(i__main__
Token
p230
(dp231
g18
I164
sbasg23
I164
sba(i__main__
Mention
p232
(dp233
g7
S't2'
p234
sg9
S'Coreference-Identity'
p235
sg10
S'i59'
p236
sg12
S'i44'
p237
sg13
Nsg14
(lp238
(i__main__
Token
p239
(dp240
g18
I212
sbasg23
I212
sba(i__main__
Mention
p241
(dp242
g7
S't2'
p243
sg9
S'Coreference-Identity'
p244
sg10
S'i65'
p245
sg12
S'i59'
p246
sg13
Nsg14
(lp247
(i__main__
Token
p248
(dp249
g18
I260
sbasg23
I260
sbasg7
g147
sg141
Nsba(i__main__
Chain
p250
(dp251
g3
(lp252
(i__main__
Mention
p253
(dp254
g7
S't3'
p255
sg9
Nsg10
S'i5'
p256
sg12
Nsg13
Nsg14
(lp257
(i__main__
Token
p258
(dp259
g18
I9
sbasg23
I9
sba(i__main__
Mention
p260
(dp261
g7
S't3'
p262
sg9
S'Coreference-NounComplement'
p263
sg10
S'i6'
p264
sg12
S'i5'
p265
sg13
Nsg14
(lp266
(i__main__
Token
p267
(dp268
g18
I10
sba(i__main__
Token
p269
(dp270
g18
I11
sbasg23
I11
sba(i__main__
Mention
p271
(dp272
g7
S't3'
p273
sg9
S'Coreference-Identity'
p274
sg10
S'i10'
p275
sg12
S'i6'
p276
sg13
Nsg14
(lp277
(i__main__
Token
p278
(dp279
g18
I27
sbasg23
I27
sba(i__main__
Mention
p280
(dp281
g7
S't3'
p282
sg9
S'Coreference-Noun-Noun'
p283
sg10
S'i12'
p284
sg12
S'i10'
p285
sg13
Nsg14
(lp286
(i__main__
Token
p287
(dp288
g18
I30
sba(i__main__
Token
p289
(dp290
g18
I31
sbasg23
I31
sba(i__main__
Mention
p291
(dp292
g7
S't3'
p293
sg9
S'Anaphora-C'
p294
sg10
S'i13'
p295
sg12
S'i12'
p296
sg13
Nsg14
(lp297
(i__main__
Token
p298
(dp299
g18
I34
sbasg23
I34
sba(i__main__
Mention
p300
(dp301
g7
S't3'
p302
sg9
S'Anaphora-C'
p303
sg10
S'i19'
p304
sg12
S'i13'
p305
sg13
Nsg14
(lp306
(i__main__
Token
p307
(dp308
g18
I80
sbasg23
I80
sba(i__main__
Mention
p309
(dp310
g7
S't3'
p311
sg9
S'Coreference-Noun-Noun'
p312
sg10
S'i32'
p313
sg12
S'i19'
p314
sg13
Nsg14
(lp315
(i__main__
Token
p316
(dp317
g18
I124
sbasg23
I124
sba(i__main__
Mention
p318
(dp319
g7
S't3'
p320
sg9
S'Coreference-Noun-Noun'
p321
sg10
S'i48'
p322
sg12
S'i32'
p323
sg13
Nsg14
(lp324
(i__main__
Token
p325
(dp326
g18
I172
sba(i__main__
Token
p327
(dp328
g18
I173
sba(i__main__
Token
p329
(dp330
g18
I174
sbasg23
I174
sba(i__main__
Mention
p331
(dp332
g7
S't3'
p333
sg9
S'Coreference-NounComplement'
p334
sg10
S'i49'
p335
sg12
S'i48'
p336
sg13
Nsg14
(lp337
(i__main__
Token
p338
(dp339
g18
I175
sbasg23
I175
sba(i__main__
Mention
p340
(dp341
g7
S't3'
p342
sg9
S'Coreference-Identity'
p343
sg10
S'i58'
p344
sg12
S'i49'
p345
sg13
Nsg14
(lp346
(i__main__
Token
p347
(dp348
g18
I210
sbasg23
I210
sba(i__main__
Mention
p349
(dp350
g7
S't3'
p351
sg9
S'Coreference-Noun-Noun'
p352
sg10
S'i66'
p353
sg12
S'i58'
p354
sg13
Nsg14
(lp355
(i__main__
Token
p356
(dp357
g18
I262
sba(i__main__
Token
p358
(dp359
g18
I263
sba(i__main__
Token
p360
(dp361
g18
I264
sbasg23
I264
sba(i__main__
Mention
p362
(dp363
g7
S't3'
p364
sg9
S'Anaphora-C'
p365
sg10
S'i72'
p366
sg12
S'i66'
p367
sg13
Nsg14
(lp368
(i__main__
Token
p369
(dp370
g18
I306
sbasg23
I306
sba(i__main__
Mention
p371
(dp372
g7
S't3'
p373
sg9
S'Anaphora-C'
p374
sg10
S'i74'
p375
sg12
S'i72'
p376
sg13
Nsg14
(lp377
(i__main__
Token
p378
(dp379
g18
I315
sbasg23
I315
sba(i__main__
Mention
p380
(dp381
g7
S't3'
p382
sg9
S'Anaphora-C'
p383
sg10
S'i78'
p384
sg12
S'i74'
p385
sg13
Nsg14
(lp386
(i__main__
Token
p387
(dp388
g18
I323
sbasg23
I323
sba(i__main__
Mention
p389
(dp390
g7
S't3'
p391
sg9
S'Coreference-Noun-Noun'
p392
sg10
S'i79'
p393
sg12
S'i78'
p394
sg13
Nsg14
(lp395
(i__main__
Token
p396
(dp397
g18
I328
sbasg23
I328
sba(i__main__
Mention
p398
(dp399
g7
S't3'
p400
sg9
S'Anaphora-C'
p401
sg10
S'i80'
p402
sg12
S'i79'
p403
sg13
Nsg14
(lp404
(i__main__
Token
p405
(dp406
g18
I332
sbasg23
I332
sbasg7
g255
sg141
Nsba(i__main__
Chain
p407
(dp408
g3
(lp409
(i__main__
Mention
p410
(dp411
g7
S't4'
p412
sg9
Nsg10
S'i9'
p413
sg12
Nsg13
Nsg14
(lp414
(i__main__
Token
p415
(dp416
g18
I16
sbasg23
I16
sba(i__main__
Mention
p417
(dp418
g7
S't4'
p419
sg9
S'Coreference-Identity'
p420
sg10
S'i16'
p421
sg12
S'i9'
p422
sg13
Nsg14
(lp423
(i__main__
Token
p424
(dp425
g18
I51
sbasg23
I51
sba(i__main__
Mention
p426
(dp427
g7
S't4'
p428
sg9
S'Coreference-Identity'
p429
sg10
S'i23'
p430
sg12
S'i16'
p431
sg13
Nsg14
(lp432
(i__main__
Token
p433
(dp434
g18
I93
sbasg23
I93
sba(i__main__
Mention
p435
(dp436
g7
S't4'
p437
sg9
S'Coreference-Identity'
p438
sg10
S'i31'
p439
sg12
S'i23'
p440
sg13
Nsg14
(lp441
(i__main__
Token
p442
(dp443
g18
I114
sba(i__main__
Token
p444
(dp445
g18
I115
sbasg23
I115
sba(i__main__
Mention
p446
(dp447
g7
S't4'
p448
sg9
S'Coreference-Identity'
p449
sg10
S'i36'
p450
sg12
S'i31'
p451
sg13
Nsg14
(lp452
(i__main__
Token
p453
(dp454
g18
I134
sbasg23
I134
sba(i__main__
Mention
p455
(dp456
g7
S't4'
p457
sg9
S'Coreference-Identity'
p458
sg10
S'i70'
p459
sg12
S'i36'
p460
sg13
Nsg14
(lp461
(i__main__
Token
p462
(dp463
g18
I282
sbasg23
I282
sba(i__main__
Mention
p464
(dp465
g7
S't4'
p466
sg9
S'Coreference-Identity'
p467
sg10
S'i77'
p468
sg12
S'i70'
p469
sg13
Nsg14
(lp470
(i__main__
Token
p471
(dp472
g18
I320
sbasg23
I320
sbasg7
g412
sg141
Nsba(i__main__
Chain
p473
(dp474
g3
(lp475
(i__main__
Mention
p476
(dp477
g7
S't5'
p478
sg9
Nsg10
S'i20'
p479
sg12
Nsg13
Nsg14
(lp480
(i__main__
Token
p481
(dp482
g18
I86
sbasg23
I86
sba(i__main__
Mention
p483
(dp484
g7
S't5'
p485
sg9
S'Coreference-NounComplement'
p486
sg10
S'i21'
p487
sg12
S'i20'
p488
sg13
Nsg14
(lp489
(i__main__
Token
p490
(dp491
g18
I87
sba(i__main__
Token
p492
(dp493
g18
I88
sba(i__main__
Token
p494
(dp495
g18
I89
sbasg23
I89
sbasg7
g478
sg141
Nsba(i__main__
Chain
p496
(dp497
g3
(lp498
(i__main__
Mention
p499
(dp500
g7
S't6'
p501
sg9
Nsg10
S'i22'
p502
sg12
Nsg13
Nsg14
(lp503
(i__main__
Token
p504
(dp505
g18
I91
sbasg23
I91
sba(i__main__
Mention
p506
(dp507
g7
S't6'
p508
sg9
S'Coreference-NounComplement'
p509
sg10
S'i34'
p510
sg12
S'i22'
p511
sg13
Nsg14
(lp512
(i__main__
Token
p513
(dp514
g18
I131
sbasg23
I131
sba(i__main__
Mention
p515
(dp516
g7
S't6'
p517
sg9
S'Anaphora-C'
p518
sg10
S'i40'
p519
sg12
S'i34'
p520
sg13
Nsg14
(lp521
(i__main__
Token
p522
(dp523
g18
I143
sbasg23
I143
sbasg7
g501
sg141
Nsba(i__main__
Chain
p524
(dp525
g3
(lp526
(i__main__
Mention
p527
(dp528
g7
S't7'
p529
sg9
Nsg10
S'i24'
p530
sg12
Nsg13
Nsg14
(lp531
(i__main__
Token
p532
(dp533
g18
I101
sba(i__main__
Token
p534
(dp535
g18
I102
sba(i__main__
Token
p536
(dp537
g18
I103
sbasg23
I103
sba(i__main__
Mention
p538
(dp539
g7
S't7'
p540
sg9
S'Anaphora-C'
p541
sg10
S'i26'
p542
sg12
S'i24'
p543
sg13
Nsg14
(lp544
(i__main__
Token
p545
(dp546
g18
I106
sbasg23
I106
sba(i__main__
Mention
p547
(dp548
g7
S't7'
p549
sg9
S'Anaphora-C'
p550
sg10
S'i29'
p551
sg12
S'i26'
p552
sg13
Nsg14
(lp553
(i__main__
Token
p554
(dp555
g18
I113
sbasg23
I113
sbasg7
g529
sg141
Nsba(i__main__
Chain
p556
(dp557
g3
(lp558
(i__main__
Mention
p559
(dp560
g7
S't8'
p561
sg9
Nsg10
S'i35'
p562
sg12
Nsg13
Nsg14
(lp563
(i__main__
Token
p564
(dp565
g18
I133
sbasg23
I133
sba(i__main__
Mention
p566
(dp567
g7
S't8'
p568
sg9
S'Anaphora-RC'
p569
sg10
S'i38'
p570
sg12
S'i35'
p571
sg13
Nsg14
(lp572
(i__main__
Token
p573
(dp574
g18
I139
sba(i__main__
Token
p575
(dp576
g18
I140
sba(i__main__
Token
p577
(dp578
g18
I141
sba(i__main__
Token
p579
(dp580
g18
I142
sba(i__main__
Token
p581
(dp582
g18
I143
sba(i__main__
Token
p583
(dp584
g18
I144
sba(i__main__
Token
p585
(dp586
g18
I145
sba(i__main__
Token
p587
(dp588
g18
I146
sba(i__main__
Token
p589
(dp590
g18
I147
sba(i__main__
Token
p591
(dp592
g18
I148
sbasg23
I147
sbasg7
g561
sg141
Nsba(i__main__
Chain
p593
(dp594
g3
(lp595
(i__main__
Mention
p596
(dp597
g7
S't9'
p598
sg9
S'anaphora-E'
p599
sg10
S'i37'
p600
sg12
S'i39'
p601
sg13
Nsg14
(lp602
(i__main__
Token
p603
(dp604
g18
I139
sbasg23
I139
sbasg7
g598
sg141
Nsba(i__main__
Chain
p605
(dp606
g3
(lp607
(i__main__
Mention
p608
(dp609
g7
S't10'
p610
sg9
Nsg10
S'i45'
p611
sg12
Nsg13
Nsg14
(lp612
(i__main__
Token
p613
(dp614
g18
I166
sbasg23
I166
sba(i__main__
Mention
p615
(dp616
g7
S't10'
p617
sg9
S'Coreference-Noun-Noun'
p618
sg10
S'i46'
p619
sg12
S'i45'
p620
sg13
Nsg14
(lp621
(i__main__
Token
p622
(dp623
g18
I167
sba(i__main__
Token
p624
(dp625
g18
I168
sbasg23
I168
sba(i__main__
Mention
p626
(dp627
g7
S't10'
p628
sg9
S'Coreference-NounComplement'
p629
sg10
S'i47'
p630
sg12
S'i46'
p631
sg13
Nsg14
(lp632
(i__main__
Token
p633
(dp634
g18
I169
sba(i__main__
Token
p635
(dp636
g18
I170
sbasg23
I170
sbasg7
g610
sg141
Nsba(i__main__
Chain
p637
(dp638
g3
(lp639
(i__main__
Mention
p640
(dp641
g7
S't11'
p642
sg9
Nsg10
S'i51'
p643
sg12
Nsg13
Nsg14
(lp644
(i__main__
Token
p645
(dp646
g18
I179
sba(i__main__
Token
p647
(dp648
g18
I180
sba(i__main__
Token
p649
(dp650
g18
I181
sba(i__main__
Token
p651
(dp652
g18
I182
sba(i__main__
Token
p653
(dp654
g18
I183
sbasg23
I181
sba(i__main__
Mention
p655
(dp656
g7
S't11'
p657
sg9
S'Coreference-NounComplement'
p658
sg10
S'i52'
p659
sg12
S'i51'
p660
sg13
Nsg14
(lp661
(i__main__
Token
p662
(dp663
g18
I184
sba(i__main__
Token
p664
(dp665
g18
I185
sbasg23
I185
sba(i__main__
Mention
p666
(dp667
g7
S't11'
p668
sg9
S'Anaphora-C'
p669
sg10
S'i53'
p670
sg12
S'i52'
p671
sg13
Nsg14
(lp672
(i__main__
Token
p673
(dp674
g18
I190
sbasg23
I190
sbasg7
g642
sg141
Nsba(i__main__
Chain
p675
(dp676
g3
(lp677
(i__main__
Mention
p678
(dp679
g7
S't12'
p680
sg9
Nsg10
S'i56'
p681
sg12
Nsg13
Nsg14
(lp682
(i__main__
Token
p683
(dp684
g18
I202
sba(i__main__
Token
p685
(dp686
g18
I203
sbasg23
I203
sba(i__main__
Mention
p687
(dp688
g7
S't12'
p689
sg9
S'Coreference-NounComplement'
p690
sg10
S'i57'
p691
sg12
S'i56'
p692
sg13
Nsg14
(lp693
(i__main__
Token
p694
(dp695
g18
I204
sba(i__main__
Token
p696
(dp697
g18
I205
sbasg23
I205
sba(i__main__
Mention
p698
(dp699
g7
S't12'
p700
sg9
S'Anaphora-C'
p701
sg10
S'i60'
p702
sg12
S'i57'
p703
sg13
Nsg14
(lp704
(i__main__
Token
p705
(dp706
g18
I223
sbasg23
I223
sbasg7
g680
sg141
Nsba(i__main__
Chain
p707
(dp708
g3
(lp709
(i__main__
Mention
p710
(dp711
g7
S't13'
p712
sg9
Nsg10
S'i61'
p713
sg12
Nsg13
Nsg14
(lp714
(i__main__
Token
p715
(dp716
g18
I233
sba(i__main__
Token
p717
(dp718
g18
I234
sbasg23
I234
sba(i__main__
Mention
p719
(dp720
g7
S't13'
p721
sg9
S'Coreference-NounComplement'
p722
sg10
S'i62'
p723
sg12
S'i61'
p724
sg13
Nsg14
(lp725
(i__main__
Token
p726
(dp727
g18
I235
sba(i__main__
Token
p728
(dp729
g18
I236
sbasg23
I236
sba(i__main__
Mention
p730
(dp731
g7
S't13'
p732
sg9
S'Anaphora-C'
p733
sg10
S'i63'
p734
sg12
S'i62'
p735
sg13
Nsg14
(lp736
(i__main__
Token
p737
(dp738
g18
I241
sbasg23
I241
sbasg7
g712
sg141
Nsba(i__main__
Chain
p739
(dp740
g3
(lp741
(i__main__
Mention
p742
(dp743
g7
S't14'
p744
sg9
Nsg10
S'i67'
p745
sg12
Nsg13
Nsg14
(lp746
(i__main__
Token
p747
(dp748
g18
I268
sba(i__main__
Token
p749
(dp750
g18
I269
sbasg23
I269
sba(i__main__
Mention
p751
(dp752
g7
S't14'
p753
sg9
S'Anaphora-C'
p754
sg10
S'i69'
p755
sg12
S'i67'
p756
sg13
Nsg14
(lp757
(i__main__
Token
p758
(dp759
g18
I280
sbasg23
I280
sbasg7
g744
sg141
Nsba(i__main__
Chain
p760
(dp761
g3
(lp762
(i__main__
Mention
p763
(dp764
g7
S't15'
p765
sg9
Nsg10
S'i75'
p766
sg12
Nsg13
Nsg14
(lp767
(i__main__
Token
p768
(dp769
g18
I316
sbasg23
I316
sba(i__main__
Mention
p770
(dp771
g7
S't15'
p772
sg9
S'Coreference-NounComplement'
p773
sg10
S'i76'
p774
sg12
S'i75'
p775
sg13
Nsg14
(lp776
(i__main__
Token
p777
(dp778
g18
I317
sba(i__main__
Token
p779
(dp780
g18
I318
sbasg23
I318
sbasg7
g765
sg141
Nsba.