(lp0
(i__main__
Chain
p1
(dp2
S'mentionList'
p3
(lp4
(i__main__
Mention
p5
(dp6
S'chainId'
p7
S't1'
p8
sS'relType'
p9
NsS'mentionId'
p10
S'i1'
p11
sS'antecedentId'
p12
NsS'crefMod'
p13
NsS'tokenList'
p14
(lp15
(i__main__
Token
p16
(dp17
S'tokenId'
p18
I0
sba(i__main__
Token
p19
(dp20
g18
I1
sba(i__main__
Token
p21
(dp22
g18
I2
sba(i__main__
Token
p23
(dp24
g18
I3
sbasS'mentionHead'
p25
I3
sba(i__main__
Mention
p26
(dp27
g7
S't1'
p28
sg9
S'Coreference-Identity'
p29
sg10
S'i3'
p30
sg12
S'i1'
p31
sg13
Nsg14
(lp32
(i__main__
Token
p33
(dp34
g18
I18
sba(i__main__
Token
p35
(dp36
g18
I19
sbasg25
I19
sba(i__main__
Mention
p37
(dp38
g7
S't1'
p39
sg9
S'Coreference-Identity'
p40
sg10
S'i12'
p41
sg12
S'i3'
p42
sg13
Nsg14
(lp43
(i__main__
Token
p44
(dp45
g18
I65
sba(i__main__
Token
p46
(dp47
g18
I66
sbasg25
I66
sba(i__main__
Mention
p48
(dp49
g7
S't1'
p50
sg9
S'Coreference-Identity'
p51
sg10
S'i20'
p52
sg12
S'i12'
p53
sg13
Nsg14
(lp54
(i__main__
Token
p55
(dp56
g18
I99
sbasg25
I99
sba(i__main__
Mention
p57
(dp58
g7
S't1'
p59
sg9
S'Coreference-Identity'
p60
sg10
S'i30'
p61
sg12
S'i20'
p62
sg13
Nsg14
(lp63
(i__main__
Token
p64
(dp65
g18
I176
sbasg25
I176
sba(i__main__
Mention
p66
(dp67
g7
S't1'
p68
sg9
S'Coreference-Identity'
p69
sg10
S'i56'
p70
sg12
S'i30'
p71
sg13
Nsg14
(lp72
(i__main__
Token
p73
(dp74
g18
I312
sbasg25
I312
sbasg7
g8
sS'chainHead'
p75
Nsba(i__main__
Chain
p76
(dp77
g3
(lp78
(i__main__
Mention
p79
(dp80
g7
S't2'
p81
sg9
Nsg10
S'i2'
p82
sg12
Nsg13
Nsg14
(lp83
(i__main__
Token
p84
(dp85
g18
I6
sbasg25
I6
sba(i__main__
Mention
p86
(dp87
g7
S't2'
p88
sg9
Nsg10
S'i5'
p89
sg12
Nsg13
Nsg14
(lp90
(i__main__
Token
p91
(dp92
g18
I23
sba(i__main__
Token
p93
(dp94
g18
I24
sbasg25
Nsba(i__main__
Mention
p95
(dp96
g7
S't2'
p97
sg9
S'Coreference-Identity'
p98
sg10
S'i7'
p99
sg12
S'i5'
p100
sg13
Nsg14
(lp101
(i__main__
Token
p102
(dp103
g18
I44
sbasg25
I44
sba(i__main__
Mention
p104
(dp105
g7
S't2'
p106
sg9
S'Coreference-Identity'
p107
sg10
S'i10'
p108
sg12
S'i7'
p109
sg13
Nsg14
(lp110
(i__main__
Token
p111
(dp112
g18
I51
sbasg25
I51
sba(i__main__
Mention
p113
(dp114
g7
S't2'
p115
sg9
S'Coreference-Identity'
p116
sg10
S'i15'
p117
sg12
S'i10'
p118
sg13
Nsg14
(lp119
(i__main__
Token
p120
(dp121
g18
I69
sbasg25
I69
sba(i__main__
Mention
p122
(dp123
g7
S't2'
p124
sg9
S'Coreference-Identity'
p125
sg10
S'i16'
p126
sg12
S'i15'
p127
sg13
Nsg14
(lp128
(i__main__
Token
p129
(dp130
g18
I75
sbasg25
I75
sba(i__main__
Mention
p131
(dp132
g7
S't2'
p133
sg9
S'Coreference-Identity'
p134
sg10
S'i21'
p135
sg12
S'i16'
p136
sg13
Nsg14
(lp137
(i__main__
Token
p138
(dp139
g18
I100
sbasg25
I100
sba(i__main__
Mention
p140
(dp141
g7
S't2'
p142
sg9
S'Coreference-Identity'
p143
sg10
S'i24'
p144
sg12
S'i21'
p145
sg13
Nsg14
(lp146
(i__main__
Token
p147
(dp148
g18
I127
sbasg25
I127
sba(i__main__
Mention
p149
(dp150
g7
S't2'
p151
sg9
Nsg10
S'i25'
p152
sg12
Nsg13
Nsg14
(lp153
(i__main__
Token
p154
(dp155
g18
I136
sba(i__main__
Token
p156
(dp157
g18
I137
sbasg25
Nsba(i__main__
Mention
p158
(dp159
g7
S't2'
p160
sg9
Nsg10
S'i28'
p161
sg12
Nsg13
Nsg14
(lp162
(i__main__
Token
p163
(dp164
g18
I154
sba(i__main__
Token
p165
(dp166
g18
I155
sbasg25
Nsba(i__main__
Mention
p167
(dp168
g7
S't2'
p169
sg9
S'Coreference-Identity'
p170
sg10
S'i31'
p171
sg12
S'i28'
p172
sg13
Nsg14
(lp173
(i__main__
Token
p174
(dp175
g18
I178
sbasg25
I178
sba(i__main__
Mention
p176
(dp177
g7
S't2'
p178
sg9
S'Coreference-Identity'
p179
sg10
S'i36'
p180
sg12
S'i31'
p181
sg13
Nsg14
(lp182
(i__main__
Token
p183
(dp184
g18
I191
sbasg25
I191
sba(i__main__
Mention
p185
(dp186
g7
S't2'
p187
sg9
S'Coreference-Identity'
p188
sg10
S'i37'
p189
sg12
S'i36'
p190
sg13
Nsg14
(lp191
(i__main__
Token
p192
(dp193
g18
I204
sbasg25
I204
sba(i__main__
Mention
p194
(dp195
g7
S't2'
p196
sg9
S'Coreference-Identity'
p197
sg10
S'i40'
p198
sg12
S'i37'
p199
sg13
Nsg14
(lp200
(i__main__
Token
p201
(dp202
g18
I219
sbasg25
I219
sba(i__main__
Mention
p203
(dp204
g7
S't2'
p205
sg9
S'Coreference-Identity'
p206
sg10
S'i45'
p207
sg12
S'i40'
p208
sg13
Nsg14
(lp209
(i__main__
Token
p210
(dp211
g18
I239
sbasg25
I239
sba(i__main__
Mention
p212
(dp213
g7
S't2'
p214
sg9
S'Coreference-Identity'
p215
sg10
S'i54'
p216
sg12
S'i45'
p217
sg13
Nsg14
(lp218
(i__main__
Token
p219
(dp220
g18
I287
sbasg25
I287
sba(i__main__
Mention
p221
(dp222
g7
S't2'
p223
sg9
S'Coreference-Identity'
p224
sg10
S'i55'
p225
sg12
S'i54'
p226
sg13
Nsg14
(lp227
(i__main__
Token
p228
(dp229
g18
I298
sbasg25
I298
sba(i__main__
Mention
p230
(dp231
g7
S't2'
p232
sg9
Nsg10
S'i58'
p233
sg12
Nsg13
Nsg14
(lp234
(i__main__
Token
p235
(dp236
g18
I318
sba(i__main__
Token
p237
(dp238
g18
I319
sbasg25
Nsba(i__main__
Mention
p239
(dp240
g7
S't2'
p241
sg9
S'Coreference-Identity'
p242
sg10
S'i60'
p243
sg12
S'i58'
p244
sg13
Nsg14
(lp245
(i__main__
Token
p246
(dp247
g18
I332
sbasg25
I332
sbasg7
g81
sg75
Nsba(i__main__
Chain
p248
(dp249
g3
(lp250
(i__main__
Mention
p251
(dp252
g7
S't3'
p253
sg9
Nsg10
S'i4'
p254
sg12
Nsg13
Nsg14
(lp255
(i__main__
Token
p256
(dp257
g18
I21
sba(i__main__
Token
p258
(dp259
g18
I22
sbasg25
I22
sba(i__main__
Mention
p260
(dp261
g7
S't3'
p262
sg9
S'Coreference-Identity'
p263
sg10
S'i11'
p264
sg12
S'i4'
p265
sg13
Nsg14
(lp266
(i__main__
Token
p267
(dp268
g18
I62
sbasg25
I62
sba(i__main__
Mention
p269
(dp270
g7
S't3'
p271
sg9
S'Coreference-Identity'
p272
sg10
S'i32'
p273
sg12
S'i11'
p274
sg13
Nsg14
(lp275
(i__main__
Token
p276
(dp277
g18
I178
sba(i__main__
Token
p278
(dp279
g18
I179
sbasg25
I179
sba(i__main__
Mention
p280
(dp281
g7
S't3'
p282
sg9
S'Coreference-Identity'
p283
sg10
S'i57'
p284
sg12
S'i32'
p285
sg13
Nsg14
(lp286
(i__main__
Token
p287
(dp288
g18
I314
sba(i__main__
Token
p289
(dp290
g18
I315
sbasg25
I315
sbasg7
g253
sg75
Nsba(i__main__
Chain
p291
(dp292
g3
(lp293
(i__main__
Mention
p294
(dp295
g7
S't4'
p296
sg9
Nsg10
S'i6'
p297
sg12
Nsg13
Nsg14
(lp298
(i__main__
Token
p299
(dp300
g18
I23
sba(i__main__
Token
p301
(dp302
g18
I24
sbasg25
Nsba(i__main__
Mention
p303
(dp304
g7
S't4'
p305
sg9
S'Coreference-PartOf'
p306
sg10
S'i9'
p307
sg12
S'i6'
p308
sg13
Nsg14
(lp309
(i__main__
Token
p310
(dp311
g18
I50
sbasg25
I50
sba(i__main__
Mention
p312
(dp313
g7
S't4'
p314
sg9
S'Coreference-PartOf'
p315
sg10
S'i13'
p316
sg12
S'i9'
p317
sg13
Nsg14
(lp318
(i__main__
Token
p319
(dp320
g18
I67
sbasg25
I67
sba(i__main__
Mention
p321
(dp322
g7
S't4'
p323
sg9
S'Coreference-PartOf'
p324
sg10
S'i22'
p325
sg12
S'i13'
p326
sg13
Nsg14
(lp327
(i__main__
Token
p328
(dp329
g18
I125
sbasg25
I125
sba(i__main__
Mention
p330
(dp331
g7
S't4'
p332
sg9
Nsg10
S'i26'
p333
sg12
Nsg13
Nsg14
(lp334
(i__main__
Token
p335
(dp336
g18
I136
sba(i__main__
Token
p337
(dp338
g18
I137
sbasg25
Nsba(i__main__
Mention
p339
(dp340
g7
S't4'
p341
sg9
Nsg10
S'i29'
p342
sg12
Nsg13
Nsg14
(lp343
(i__main__
Token
p344
(dp345
g18
I154
sba(i__main__
Token
p346
(dp347
g18
I155
sbasg25
Nsba(i__main__
Mention
p348
(dp349
g7
S't4'
p350
sg9
S'Coreference-PartOf'
p351
sg10
S'i53'
p352
sg12
S'i29'
p353
sg13
Nsg14
(lp354
(i__main__
Token
p355
(dp356
g18
I286
sbasg25
I286
sba(i__main__
Mention
p357
(dp358
g7
S't4'
p359
sg9
Nsg10
S'i59'
p360
sg12
Nsg13
Nsg14
(lp361
(i__main__
Token
p362
(dp363
g18
I318
sba(i__main__
Token
p364
(dp365
g18
I319
sbasg25
Nsba(i__main__
Mention
p366
(dp367
g7
S't4'
p368
sg9
S'Coreference-PartOf'
p369
sg10
S'i62'
p370
sg12
S'i59'
p371
sg13
Nsg14
(lp372
(i__main__
Token
p373
(dp374
g18
I339
sbasg25
I339
sbasg7
g296
sg75
Nsba(i__main__
Chain
p375
(dp376
g3
(lp377
(i__main__
Mention
p378
(dp379
g7
S't5'
p380
sg9
Nsg10
S'i8'
p381
sg12
Nsg13
Nsg14
(lp382
(i__main__
Token
p383
(dp384
g18
I46
sba(i__main__
Token
p385
(dp386
g18
I47
sba(i__main__
Token
p387
(dp388
g18
I48
sbasg25
I48
sba(i__main__
Mention
p389
(dp390
g7
S't5'
p391
sg9
S'Coreference-Identity'
p392
sg10
S'i34'
p393
sg12
S'i8'
p394
sg13
Nsg14
(lp395
(i__main__
Token
p396
(dp397
g18
I187
sba(i__main__
Token
p398
(dp399
g18
I188
sba(i__main__
Token
p400
(dp401
g18
I189
sbasg25
I189
sba(i__main__
Mention
p402
(dp403
g7
S't5'
p404
sg9
S'Coreference-Identity'
p405
sg10
S'i38'
p406
sg12
S'i34'
p407
sg13
Nsg14
(lp408
(i__main__
Token
p409
(dp410
g18
I206
sba(i__main__
Token
p411
(dp412
g18
I207
sba(i__main__
Token
p413
(dp414
g18
I208
sbasg25
I208
sba(i__main__
Mention
p415
(dp416
g7
S't5'
p417
sg9
S'Coreference-Identity'
p418
sg10
S'i43'
p419
sg12
S'i38'
p420
sg13
Nsg14
(lp421
(i__main__
Token
p422
(dp423
g18
I228
sba(i__main__
Token
p424
(dp425
g18
I229
sba(i__main__
Token
p426
(dp427
g18
I230
sbasg25
I230
sba(i__main__
Mention
p428
(dp429
g7
S't5'
p430
sg9
S'Coreference-Identity'
p431
sg10
S'i47'
p432
sg12
S'i43'
p433
sg13
Nsg14
(lp434
(i__main__
Token
p435
(dp436
g18
I247
sba(i__main__
Token
p437
(dp438
g18
I248
sbasg25
I248
sba(i__main__
Mention
p439
(dp440
g7
S't5'
p441
sg9
S'Coreference-Identity'
p442
sg10
S'i49'
p443
sg12
S'i47'
p444
sg13
Nsg14
(lp445
(i__main__
Token
p446
(dp447
g18
I269
sba(i__main__
Token
p448
(dp449
g18
I270
sbasg25
I270
sba(i__main__
Mention
p450
(dp451
g7
S't5'
p452
sg9
S'Coreference-Identity'
p453
sg10
S'i61'
p454
sg12
S'i49'
p455
sg13
Nsg14
(lp456
(i__main__
Token
p457
(dp458
g18
I334
sba(i__main__
Token
p459
(dp460
g18
I335
sba(i__main__
Token
p461
(dp462
g18
I336
sbasg25
I336
sbasg7
g380
sg75
Nsba(i__main__
Chain
p463
(dp464
g3
(lp465
(i__main__
Mention
p466
(dp467
g7
S't6'
p468
sg9
Nsg10
S'i14'
p469
sg12
Nsg13
Nsg14
(lp470
(i__main__
Token
p471
(dp472
g18
I73
sbasg25
I73
sba(i__main__
Mention
p473
(dp474
g7
S't6'
p475
sg9
S'Coreference-Identity'
p476
sg10
S'i23'
p477
sg12
S'i14'
p478
sg13
Nsg14
(lp479
(i__main__
Token
p480
(dp481
g18
I131
sbasg25
I131
sbasg7
g468
sg75
Nsba(i__main__
Chain
p482
(dp483
g3
(lp484
(i__main__
Mention
p485
(dp486
g7
S't7'
p487
sg9
Nsg10
S'i17'
p488
sg12
Nsg13
Nsg14
(lp489
(i__main__
Token
p490
(dp491
g18
I77
sba(i__main__
Token
p492
(dp493
g18
I78
sbasg25
I78
sba(i__main__
Mention
p494
(dp495
g7
S't7'
p496
sg9
S'Coreference-NounComplement'
p497
sg10
S'i18'
p498
sg12
S'i17'
p499
sg13
Nsg14
(lp500
(i__main__
Token
p501
(dp502
g18
I79
sba(i__main__
Token
p503
(dp504
g18
I80
sba(i__main__
Token
p505
(dp506
g18
I81
sbasg25
I81
sbasg7
g487
sg75
Nsba(i__main__
Chain
p507
(dp508
g3
(lp509
(i__main__
Mention
p510
(dp511
g7
S't8'
p512
sg9
Nsg10
S'i19'
p513
sg12
Nsg13
Nsg14
(lp514
(i__main__
Token
p515
(dp516
g18
I88
sba(i__main__
Token
p517
(dp518
g18
I89
sba(i__main__
Token
p519
(dp520
g18
I90
sbasg25
I90
sba(i__main__
Mention
p521
(dp522
g7
S't8'
p523
sg9
S'Coreference-Identity'
p524
sg10
S'i27'
p525
sg12
S'i19'
p526
sg13
Nsg14
(lp527
(i__main__
Token
p528
(dp529
g18
I149
sba(i__main__
Token
p530
(dp531
g18
I150
sba(i__main__
Token
p532
(dp533
g18
I151
sbasg25
I151
sbasg7
g512
sg75
Nsba(i__main__
Chain
p534
(dp535
g3
(lp536
(i__main__
Mention
p537
(dp538
g7
S't9'
p539
sg9
Nsg10
S'i33'
p540
sg12
Nsg13
Nsg14
(lp541
(i__main__
Token
p542
(dp543
g18
I186
sbasg25
I186
sba(i__main__
Mention
p544
(dp545
g7
S't9'
p546
sg9
S'Anaphora-RT'
p547
sg10
S'i35'
p548
sg12
S'i33'
p549
sg13
Nsg14
(lp550
(i__main__
Token
p551
(dp552
g18
I187
sba(i__main__
Token
p553
(dp554
g18
I188
sba(i__main__
Token
p555
(dp556
g18
I189
sba(i__main__
Token
p557
(dp558
g18
I190
sba(i__main__
Token
p559
(dp560
g18
I191
sba(i__main__
Token
p561
(dp562
g18
I192
sba(i__main__
Token
p563
(dp564
g18
I193
sba(i__main__
Token
p565
(dp566
g18
I194
sba(i__main__
Token
p567
(dp568
g18
I195
sba(i__main__
Token
p569
(dp570
g18
I196
sba(i__main__
Token
p571
(dp572
g18
I197
sba(i__main__
Token
p573
(dp574
g18
I198
sba(i__main__
Token
p575
(dp576
g18
I199
sba(i__main__
Token
p577
(dp578
g18
I200
sba(i__main__
Token
p579
(dp580
g18
I201
sba(i__main__
Token
p581
(dp582
g18
I202
sbasg25
I199
sbasg7
g539
sg75
Nsba(i__main__
Chain
p583
(dp584
g3
(lp585
(i__main__
Mention
p586
(dp587
g7
S't10'
p588
sg9
Nsg10
S'i39'
p589
sg12
Nsg13
Nsg14
(lp590
(i__main__
Token
p591
(dp592
g18
I219
sba(i__main__
Token
p593
(dp594
g18
I220
sbasg25
I220
sba(i__main__
Mention
p595
(dp596
g7
S't10'
p597
sg9
S'Coreference-Identity'
p598
sg10
S'i46'
p599
sg12
S'i39'
p600
sg13
Nsg14
(lp601
(i__main__
Token
p602
(dp603
g18
I245
sbasg25
I245
sba(i__main__
Mention
p604
(dp605
g7
S't10'
p606
sg9
S'Coreference-Identity'
p607
sg10
S'i52'
p608
sg12
S'i46'
p609
sg13
Nsg14
(lp610
(i__main__
Token
p611
(dp612
g18
I280
sbasg25
I280
sbasg7
g588
sg75
Nsba(i__main__
Chain
p613
(dp614
g3
(lp615
(i__main__
Mention
p616
(dp617
g7
S't11'
p618
sg9
Nsg10
S'i41'
p619
sg12
Nsg13
Nsg14
(lp620
(i__main__
Token
p621
(dp622
g18
I221
sbasg25
I221
sba(i__main__
Mention
p623
(dp624
g7
S't11'
p625
sg9
S'Anaphora-E'
p626
sg10
S'i42'
p627
sg12
S'i41'
p628
sg13
Nsg14
(lp629
(i__main__
Token
p630
(dp631
g18
I225
sba(i__main__
Token
p632
(dp633
g18
I226
sba(i__main__
Token
p634
(dp635
g18
I227
sba(i__main__
Token
p636
(dp637
g18
I228
sba(i__main__
Token
p638
(dp639
g18
I229
sba(i__main__
Token
p640
(dp641
g18
I230
sba(i__main__
Token
p642
(dp643
g18
I231
sba(i__main__
Token
p644
(dp645
g18
I232
sba(i__main__
Token
p646
(dp647
g18
I233
sba(i__main__
Token
p648
(dp649
g18
I234
sba(i__main__
Token
p650
(dp651
g18
I235
sba(i__main__
Token
p652
(dp653
g18
I236
sbasg25
I236
sbasg7
g618
sg75
Nsba(i__main__
Chain
p654
(dp655
g3
(lp656
(i__main__
Mention
p657
(dp658
g7
S't12'
p659
sg9
Nsg10
S'i44'
p660
sg12
Nsg13
Nsg14
(lp661
(i__main__
Token
p662
(dp663
g18
I232
sba(i__main__
Token
p664
(dp665
g18
I233
sbasg25
I233
sba(i__main__
Mention
p666
(dp667
g7
S't12'
p668
sg9
S'Coreference-Identity'
p669
sg10
S'i50'
p670
sg12
S'i44'
p671
sg13
Nsg14
(lp672
(i__main__
Token
p673
(dp674
g18
I272
sba(i__main__
Token
p675
(dp676
g18
I273
sbasg25
I273
sbasg7
g659
sg75
Nsba(i__main__
Chain
p677
(dp678
g3
(lp679
(i__main__
Mention
p680
(dp681
g7
S't13'
p682
sg9
Nsg10
S'i48'
p683
sg12
Nsg13
Nsg14
(lp684
(i__main__
Token
p685
(dp686
g18
I260
sba(i__main__
Token
p687
(dp688
g18
I261
sba(i__main__
Token
p689
(dp690
g18
I262
sbasg25
I262
sba(i__main__
Mention
p691
(dp692
g7
S't13'
p693
sg9
S'Anaphora-C'
p694
sg10
S'i51'
p695
sg12
S'i48'
p696
sg13
Nsg14
(lp697
(i__main__
Token
p698
(dp699
g18
I279
sbasg25
I279
sbasg7
g682
sg75
Nsba.