(lp0
(i__main__
Chain
p1
(dp2
S'mentionList'
p3
(lp4
(i__main__
Mention
p5
(dp6
S'chainId'
p7
S't1'
p8
sS'relType'
p9
NsS'mentionId'
p10
S'i1'
p11
sS'antecedentId'
p12
NsS'crefMod'
p13
NsS'tokenList'
p14
(lp15
(i__main__
Token
p16
(dp17
S'tokenId'
p18
I0
sbasS'mentionHead'
p19
I0
sba(i__main__
Mention
p20
(dp21
g7
S't1'
p22
sg9
S'Coreference-Identity'
p23
sg10
S'i34'
p24
sg12
S'i1'
p25
sg13
Nsg14
(lp26
(i__main__
Token
p27
(dp28
g18
I179
sbasg19
I179
sba(i__main__
Mention
p29
(dp30
g7
S't1'
p31
sg9
S'Coreference-Identity'
p32
sg10
S'i54'
p33
sg12
S'i34'
p34
sg13
Nsg14
(lp35
(i__main__
Token
p36
(dp37
g18
I294
sbasg19
I294
sbasg7
g8
sS'chainHead'
p38
Nsba(i__main__
Chain
p39
(dp40
g3
(lp41
(i__main__
Mention
p42
(dp43
g7
S't2'
p44
sg9
Nsg10
S'i2'
p45
sg12
Nsg13
Nsg14
(lp46
(i__main__
Token
p47
(dp48
g18
I0
sba(i__main__
Token
p49
(dp50
g18
I1
sba(i__main__
Token
p51
(dp52
g18
I2
sbasg19
I2
sba(i__main__
Mention
p53
(dp54
g7
S't2'
p55
sg9
S'Coreference-Identity'
p56
sg10
S'i16'
p57
sg12
S'i2'
p58
sg13
Nsg14
(lp59
(i__main__
Token
p60
(dp61
g18
I82
sbasg19
I82
sba(i__main__
Mention
p62
(dp63
g7
S't2'
p64
sg9
S'Coreference-Identity'
p65
sg10
S'i28'
p66
sg12
S'i16'
p67
sg13
Nsg14
(lp68
(i__main__
Token
p69
(dp70
g18
I147
sbasg19
I147
sba(i__main__
Mention
p71
(dp72
g7
S't2'
p73
sg9
S'Coreference-Identity'
p74
sg10
S'i47'
p75
sg12
S'i28'
p76
sg13
Nsg14
(lp77
(i__main__
Token
p78
(dp79
g18
I264
sbasg19
I264
sba(i__main__
Mention
p80
(dp81
g7
S't2'
p82
sg9
S'Coreference-Identity'
p83
sg10
S'i63'
p84
sg12
S'i47'
p85
sg13
Nsg14
(lp86
(i__main__
Token
p87
(dp88
g18
I344
sba(i__main__
Token
p89
(dp90
g18
I345
sbasg19
I345
sbasg7
g44
sg38
Nsba(i__main__
Chain
p91
(dp92
g3
(lp93
(i__main__
Mention
p94
(dp95
g7
S't3'
p96
sg9
Nsg10
S'i3'
p97
sg12
Nsg13
Nsg14
(lp98
(i__main__
Token
p99
(dp100
g18
I8
sbasg19
I8
sba(i__main__
Mention
p101
(dp102
g7
S't3'
p103
sg9
S'Coreference-Identity'
p104
sg10
S'i5'
p105
sg12
S'i3'
p106
sg13
Nsg14
(lp107
(i__main__
Token
p108
(dp109
g18
I24
sbasg19
I24
sba(i__main__
Mention
p110
(dp111
g7
S't3'
p112
sg9
S'Coreference-Identity'
p113
sg10
S'i11'
p114
sg12
S'i5'
p115
sg13
Nsg14
(lp116
(i__main__
Token
p117
(dp118
g18
I57
sbasg19
I57
sba(i__main__
Mention
p119
(dp120
g7
S't3'
p121
sg9
S'Coreference-Identity'
p122
sg10
S'i19'
p123
sg12
S'i11'
p124
sg13
Nsg14
(lp125
(i__main__
Token
p126
(dp127
g18
I99
sbasg19
I99
sba(i__main__
Mention
p128
(dp129
g7
S't3'
p130
sg9
S'Coreference-Identity'
p131
sg10
S'i24'
p132
sg12
S'i19'
p133
sg13
Nsg14
(lp134
(i__main__
Token
p135
(dp136
g18
I126
sbasg19
I126
sba(i__main__
Mention
p137
(dp138
g7
S't3'
p139
sg9
S'Coreference-Identity'
p140
sg10
S'i30'
p141
sg12
S'i24'
p142
sg13
Nsg14
(lp143
(i__main__
Token
p144
(dp145
g18
I161
sbasg19
I161
sba(i__main__
Mention
p146
(dp147
g7
S't3'
p148
sg9
S'Coreference-Identity'
p149
sg10
S'i40'
p150
sg12
S'i30'
p151
sg13
Nsg14
(lp152
(i__main__
Token
p153
(dp154
g18
I221
sbasg19
I221
sbasg7
g96
sg38
Nsba(i__main__
Chain
p155
(dp156
g3
(lp157
(i__main__
Mention
p158
(dp159
g7
S't4'
p160
sg9
Nsg10
S'i4'
p161
sg12
Nsg13
Nsg14
(lp162
(i__main__
Token
p163
(dp164
g18
I10
sba(i__main__
Token
p165
(dp166
g18
I11
sba(i__main__
Token
p167
(dp168
g18
I12
sbasg19
I12
sba(i__main__
Mention
p169
(dp170
g7
S't4'
p171
sg9
S'Coreference-Bracketed/Abbraviation'
p172
sg10
S'i15'
p173
sg12
S'i34'
p174
sg13
Nsg14
(lp175
(i__main__
Token
p176
(dp177
g18
I78
sbasg19
I78
sba(i__main__
Mention
p178
(dp179
g7
S't4'
p180
sg9
S'Coreference-Identity'
p181
sg10
S'i20'
p182
sg12
S'i15'
p183
sg13
Nsg14
(lp184
(i__main__
Token
p185
(dp186
g18
I101
sbasg19
I101
sba(i__main__
Mention
p187
(dp188
g7
S't4'
p189
sg9
S'Coreference-Identity'
p190
sg10
S'i38'
p191
sg12
S'i20'
p192
sg13
Nsg14
(lp193
(i__main__
Token
p194
(dp195
g18
I191
sbasg19
I191
sba(i__main__
Mention
p196
(dp197
g7
S't4'
p198
sg9
S'Coreference-Identity'
p199
sg10
S'i45'
p200
sg12
S'i38'
p201
sg13
Nsg14
(lp202
(i__main__
Token
p203
(dp204
g18
I261
sbasg19
I261
sba(i__main__
Mention
p205
(dp206
g7
S't4'
p207
sg9
S'Coreference-Identity'
p208
sg10
S'i62'
p209
sg12
S'i45'
p210
sg13
Nsg14
(lp211
(i__main__
Token
p212
(dp213
g18
I341
sbasg19
I341
sbasg7
g160
sg38
Nsba(i__main__
Chain
p214
(dp215
g3
(lp216
(i__main__
Mention
p217
(dp218
g7
S't5'
p219
sg9
Nsg10
S'i6'
p220
sg12
Nsg13
Nsg14
(lp221
(i__main__
Token
p222
(dp223
g18
I26
sba(i__main__
Token
p224
(dp225
g18
I27
sba(i__main__
Token
p226
(dp227
g18
I28
sbasg19
I28
sba(i__main__
Mention
p228
(dp229
g7
S't5'
p230
sg9
S'Anaphora-C'
p231
sg10
S'i7'
p232
sg12
S'i6'
p233
sg13
Nsg14
(lp234
(i__main__
Token
p235
(dp236
g18
I35
sbasg19
I35
sba(i__main__
Mention
p237
(dp238
g7
S't5'
p239
sg9
S'Coreference-Bracketed/Abbraviation'
p240
sg10
S'i9'
p241
sg12
S'i59'
p242
sg13
Nsg14
(lp243
(i__main__
Token
p244
(dp245
g18
I51
sbasg19
I51
sba(i__main__
Mention
p246
(dp247
g7
S't5'
p248
sg9
S'Coreference-Identity'
p249
sg10
S'i31'
p250
sg12
S'i9'
p251
sg13
Nsg14
(lp252
(i__main__
Token
p253
(dp254
g18
I163
sbasg19
I163
sba(i__main__
Mention
p255
(dp256
g7
S't5'
p257
sg9
S'Coreference-Identity'
p258
sg10
S'i37'
p259
sg12
S'i31'
p260
sg13
Nsg14
(lp261
(i__main__
Token
p262
(dp263
g18
I189
sbasg19
I189
sbasg7
g219
sg38
Nsba(i__main__
Chain
p264
(dp265
g3
(lp266
(i__main__
Mention
p267
(dp268
g7
S't6'
p269
sg9
Nsg10
S'i8'
p270
sg12
Nsg13
Nsg14
(lp271
(i__main__
Token
p272
(dp273
g18
I41
sba(i__main__
Token
p274
(dp275
g18
I42
sbasg19
I42
sba(i__main__
Mention
p276
(dp277
g7
S't6'
p278
sg9
S'Coreference-Identity'
p279
sg10
S'i41'
p280
sg12
S'i8'
p281
sg13
Nsg14
(lp282
(i__main__
Token
p283
(dp284
g18
I230
sbasg19
I230
sbasg7
g269
sg38
Nsba(i__main__
Chain
p285
(dp286
g3
(lp287
(i__main__
Mention
p288
(dp289
g7
S't7'
p290
sg9
Nsg10
S'i10'
p291
sg12
Nsg13
Nsg14
(lp292
(i__main__
Token
p293
(dp294
g18
I54
sbasg19
I54
sba(i__main__
Mention
p295
(dp296
g7
S't7'
p297
sg9
S'Coreference-Identity'
p298
sg10
S'i12'
p299
sg12
S'i10'
p300
sg13
Nsg14
(lp301
(i__main__
Token
p302
(dp303
g18
I65
sbasg19
I65
sbasg7
g290
sg38
Nsba(i__main__
Chain
p304
(dp305
g3
(lp306
(i__main__
Mention
p307
(dp308
g7
S't8'
p309
sg9
Nsg10
S'i13'
p310
sg12
Nsg13
Nsg14
(lp311
(i__main__
Token
p312
(dp313
g18
I74
sba(i__main__
Token
p314
(dp315
g18
I75
sbasg19
I75
sba(i__main__
Mention
p316
(dp317
g7
S't8'
p318
sg9
S'Coreference-NounComplement'
p319
sg10
S'i14'
p320
sg12
S'i13'
p321
sg13
Nsg14
(lp322
(i__main__
Token
p323
(dp324
g18
I76
sba(i__main__
Token
p325
(dp326
g18
I77
sbasg19
I77
sba(i__main__
Mention
p327
(dp328
g7
S't8'
p329
sg9
S'Anaphora-C'
p330
sg10
S'i17'
p331
sg12
S'i14'
p332
sg13
Nsg14
(lp333
(i__main__
Token
p334
(dp335
g18
I89
sbasg19
I89
sba(i__main__
Mention
p336
(dp337
g7
S't8'
p338
sg9
S'Coreference-Identity'
p339
sg10
S'i21'
p340
sg12
S'i17'
p341
sg13
Nsg14
(lp342
(i__main__
Token
p343
(dp344
g18
I110
sbasg19
I110
sba(i__main__
Mention
p345
(dp346
g7
S't8'
p347
sg9
S'Anaphora-C'
p348
sg10
S'i25'
p349
sg12
S'i21'
p350
sg13
Nsg14
(lp351
(i__main__
Token
p352
(dp353
g18
I131
sbasg19
I131
sba(i__main__
Mention
p354
(dp355
g7
S't8'
p356
sg9
S'Anaphora-C'
p357
sg10
S'i27'
p358
sg12
S'i25'
p359
sg13
Nsg14
(lp360
(i__main__
Token
p361
(dp362
g18
I139
sbasg19
I139
sba(i__main__
Mention
p363
(dp364
g7
S't8'
p365
sg9
S'Coreference-Identity'
p366
sg10
S'i39'
p367
sg12
S'i27'
p368
sg13
Nsg14
(lp369
(i__main__
Token
p370
(dp371
g18
I210
sbasg19
I210
sba(i__main__
Mention
p372
(dp373
g7
S't8'
p374
sg9
S'Coreference-Noun-Noun'
p375
sg10
S'i42'
p376
sg12
S'i39'
p377
sg13
Nsg14
(lp378
(i__main__
Token
p379
(dp380
g18
I238
sba(i__main__
Token
p381
(dp382
g18
I239
sbasg19
I239
sba(i__main__
Mention
p383
(dp384
g7
S't8'
p385
sg9
S'Coreference-NounComplement'
p386
sg10
S'i43'
p387
sg12
S'i42'
p388
sg13
Nsg14
(lp389
(i__main__
Token
p390
(dp391
g18
I240
sbasg19
I240
sba(i__main__
Mention
p392
(dp393
g7
S't8'
p394
sg9
S'Coreference-Identity'
p395
sg10
S'i44'
p396
sg12
S'i43'
p397
sg13
Nsg14
(lp398
(i__main__
Token
p399
(dp400
g18
I259
sbasg19
I259
sba(i__main__
Mention
p401
(dp402
g7
S't8'
p403
sg9
S'Anaphora-C'
p404
sg10
S'i49'
p405
sg12
S'i44'
p406
sg13
Nsg14
(lp407
(i__main__
Token
p408
(dp409
g18
I272
sbasg19
I272
sba(i__main__
Mention
p410
(dp411
g7
S't8'
p412
sg9
S'Coreference-Identity'
p413
sg10
S'i50'
p414
sg12
S'i49'
p415
sg13
Nsg14
(lp416
(i__main__
Token
p417
(dp418
g18
I281
sbasg19
I281
sba(i__main__
Mention
p419
(dp420
g7
S't8'
p421
sg9
S'Coreference-Identity'
p422
sg10
S'i56'
p423
sg12
S'i50'
p424
sg13
Nsg14
(lp425
(i__main__
Token
p426
(dp427
g18
I305
sbasg19
I305
sba(i__main__
Mention
p428
(dp429
g7
S't8'
p430
sg9
S'Coreference-Identity'
p431
sg10
S'i58'
p432
sg12
S'i56'
p433
sg13
Nsg14
(lp434
(i__main__
Token
p435
(dp436
g18
I318
sbasg19
I318
sba(i__main__
Mention
p437
(dp438
g7
S't8'
p439
sg9
S'Coreference-Identity'
p440
sg10
S'i61'
p441
sg12
S'i58'
p442
sg13
Nsg14
(lp443
(i__main__
Token
p444
(dp445
g18
I340
sbasg19
I340
sba(i__main__
Mention
p446
(dp447
g7
S't8'
p448
sg9
S'Coreference-Identity'
p449
sg10
S'i66'
p450
sg12
S'i61'
p451
sg13
Nsg14
(lp452
(i__main__
Token
p453
(dp454
g18
I355
sba(i__main__
Token
p455
(dp456
g18
I356
sbasg19
I356
sbasg7
g309
sg38
Nsba(i__main__
Chain
p457
(dp458
g3
(lp459
(i__main__
Mention
p460
(dp461
g7
S't9'
p462
sg9
Nsg10
S'i18'
p463
sg12
Nsg13
Nsg14
(lp464
(i__main__
Token
p465
(dp466
g18
I90
sba(i__main__
Token
p467
(dp468
g18
I91
sbasg19
I91
sba(i__main__
Mention
p469
(dp470
g7
S't9'
p471
sg9
S'Coreference-Identity'
p472
sg10
S'i48'
p473
sg12
S'i18'
p474
sg13
Nsg14
(lp475
(i__main__
Token
p476
(dp477
g18
I269
sba(i__main__
Token
p478
(dp479
g18
I270
sbasg19
I270
sba(i__main__
Mention
p480
(dp481
g7
S't9'
p482
sg9
S'Coreference-Identity'
p483
sg10
S'i59'
p484
sg12
S'i48'
p485
sg13
Nsg14
(lp486
(i__main__
Token
p487
(dp488
g18
I320
sbasg19
I320
sbasg7
g462
sg38
Nsba(i__main__
Chain
p489
(dp490
g3
(lp491
(i__main__
Mention
p492
(dp493
g7
S't10'
p494
sg9
Nsg10
S'i22'
p495
sg12
Nsg13
Nsg14
(lp496
(i__main__
Token
p497
(dp498
g18
I114
sbasg19
I114
sba(i__main__
Mention
p499
(dp500
g7
S't10'
p501
sg9
S'Coreference-Identity'
p502
sg10
S'i26'
p503
sg12
S'i22'
p504
sg13
Nsg14
(lp505
(i__main__
Token
p506
(dp507
g18
I132
sba(i__main__
Token
p508
(dp509
g18
I133
sbasg19
I133
sba(i__main__
Mention
p510
(dp511
g7
S't10'
p512
sg9
S'Coreference-Identity'
p513
sg10
S'i60'
p514
sg12
S'i26'
p515
sg13
Nsg14
(lp516
(i__main__
Token
p517
(dp518
g18
I336
sbasg19
I336
sbasg7
g494
sg38
Nsba(i__main__
Chain
p519
(dp520
g3
(lp521
(i__main__
Mention
p522
(dp523
g7
S't11'
p524
sg9
Nsg10
S'i23'
p525
sg12
Nsg13
Nsg14
(lp526
(i__main__
Token
p527
(dp528
g18
I116
sbasg19
I116
sbasg7
g524
sg38
Nsba(i__main__
Chain
p529
(dp530
g3
(lp531
(i__main__
Mention
p532
(dp533
g7
S't12'
p534
sg9
Nsg10
S'i29'
p535
sg12
Nsg13
Nsg14
(lp536
(i__main__
Token
p537
(dp538
g18
I154
sbasg19
I154
sbasg7
g534
sg38
Nsba(i__main__
Chain
p539
(dp540
g3
(lp541
(i__main__
Mention
p542
(dp543
g7
S't13'
p544
sg9
Nsg10
S'i32'
p545
sg12
Nsg13
Nsg14
(lp546
(i__main__
Token
p547
(dp548
g18
I166
sbasg19
I166
sbasg7
g544
sg38
Nsba(i__main__
Chain
p549
(dp550
g3
(lp551
(i__main__
Mention
p552
(dp553
g7
S't14'
p554
sg9
Nsg10
S'i33'
p555
sg12
Nsg13
Nsg14
(lp556
(i__main__
Token
p557
(dp558
g18
I176
sba(i__main__
Token
p559
(dp560
g18
I177
sbasg19
I177
sba(i__main__
Mention
p561
(dp562
g7
S't14'
p563
sg9
S'Coreference-Noun-Noun'
p564
sg10
S'i35'
p565
sg12
S'i33'
p566
sg13
Nsg14
(lp567
(i__main__
Token
p568
(dp569
g18
I181
sbasg19
I181
sba(i__main__
Mention
p570
(dp571
g7
S't14'
p572
sg9
S'Coreference-NounComplement'
p573
sg10
S'i36'
p574
sg12
S'i35'
p575
sg13
Nsg14
(lp576
(i__main__
Token
p577
(dp578
g18
I182
sba(i__main__
Token
p579
(dp580
g18
I183
sbasg19
I183
sbasg7
g554
sg38
Nsba(i__main__
Chain
p581
(dp582
g3
(lp583
(i__main__
Mention
p584
(dp585
g7
S't15'
p586
sg9
Nsg10
S'i46'
p587
sg12
Nsg13
Nsg14
(lp588
(i__main__
Token
p589
(dp590
g18
I261
sba(i__main__
Token
p591
(dp592
g18
I262
sba(i__main__
Token
p593
(dp594
g18
I263
sba(i__main__
Token
p595
(dp596
g18
I264
sba(i__main__
Token
p597
(dp598
g18
I265
sba(i__main__
Token
p599
(dp600
g18
I266
sba(i__main__
Token
p601
(dp602
g18
I267
sba(i__main__
Token
p603
(dp604
g18
I268
sba(i__main__
Token
p605
(dp606
g18
I270
sba(i__main__
Token
p607
(dp608
g18
I271
sba(i__main__
Token
p609
(dp610
g18
I272
sba(i__main__
Token
p611
(dp612
g18
I273
sba(i__main__
Token
p613
(dp614
g18
I274
sba(i__main__
Token
p615
(dp616
g18
I275
sba(i__main__
Token
p617
(dp618
g18
I276
sba(i__main__
Token
p619
(dp620
g18
I277
sba(i__main__
Token
p621
(dp622
g18
I278
sba(i__main__
Token
p623
(dp624
g18
I279
sbasg19
I278
sba(i__main__
Mention
p625
(dp626
g7
S't15'
p627
sg9
S'Anaphora-E'
p628
sg10
S'i52'
p629
sg12
S'i46'
p630
sg13
Nsg14
(lp631
(i__main__
Token
p632
(dp633
g18
I285
sbasg19
I285
sbasg7
g586
sg38
Nsba(i__main__
Chain
p634
(dp635
g3
(lp636
(i__main__
Mention
p637
(dp638
g7
S't16'
p639
sg9
Nsg10
S'i51'
p640
sg12
Nsg13
Nsg14
(lp641
(i__main__
Token
p642
(dp643
g18
I283
sbasg19
I283
sbasg7
g639
sg38
Nsba(i__main__
Chain
p644
(dp645
g3
(lp646
(i__main__
Mention
p647
(dp648
g7
S't17'
p649
sg9
Nsg10
S'i53'
p650
sg12
Nsg13
Nsg14
(lp651
(i__main__
Token
p652
(dp653
g18
I288
sbasg19
I288
sbasg7
g649
sg38
Nsba(i__main__
Chain
p654
(dp655
g3
(lp656
(i__main__
Mention
p657
(dp658
g7
S't18'
p659
sg9
Nsg10
S'i55'
p660
sg12
Nsg13
Nsg14
(lp661
(i__main__
Token
p662
(dp663
g18
I304
sbasg19
I304
sba(i__main__
Mention
p664
(dp665
g7
S't18'
p666
sg9
S'Coreference-Identity'
p667
sg10
S'i64'
p668
sg12
S'i55'
p669
sg13
Nsg14
(lp670
(i__main__
Token
p671
(dp672
g18
I351
sbasg19
I351
sbasg7
g659
sg38
Nsba(i__main__
Chain
p673
(dp674
g3
(lp675
(i__main__
Mention
p676
(dp677
g7
S't19'
p678
sg9
Nsg10
S'i57'
p679
sg12
Nsg13
Nsg14
(lp680
(i__main__
Token
p681
(dp682
g18
I316
sbasg19
I316
sba(i__main__
Mention
p683
(dp684
g7
S't19'
p685
sg9
S'Coreference-Identity'
p686
sg10
S'i65'
p687
sg12
S'i57'
p688
sg13
Nsg14
(lp689
(i__main__
Token
p690
(dp691
g18
I353
sbasg19
I353
sbasg7
g678
sg38
Nsba.