(lp0
(i__main__
Chain
p1
(dp2
S'mentionList'
p3
(lp4
(i__main__
Mention
p5
(dp6
S'chainId'
p7
S't1'
p8
sS'relType'
p9
NsS'mentionId'
p10
S'i1'
p11
sS'antecedentId'
p12
NsS'crefMod'
p13
NsS'tokenList'
p14
(lp15
(i__main__
Token
p16
(dp17
S'tokenId'
p18
I0
sba(i__main__
Token
p19
(dp20
g18
I1
sba(i__main__
Token
p21
(dp22
g18
I2
sba(i__main__
Token
p23
(dp24
g18
I3
sbasS'mentionHead'
p25
I3
sba(i__main__
Mention
p26
(dp27
g7
S't1'
p28
sg9
S'Coreference-Identity'
p29
sg10
S'i18'
p30
sg12
S'i1'
p31
sg13
Nsg14
(lp32
(i__main__
Token
p33
(dp34
g18
I68
sba(i__main__
Token
p35
(dp36
g18
I69
sba(i__main__
Token
p37
(dp38
g18
I70
sba(i__main__
Token
p39
(dp40
g18
I71
sbasg25
I71
sbasg7
g8
sS'chainHead'
p41
Nsba(i__main__
Chain
p42
(dp43
g3
(lp44
(i__main__
Mention
p45
(dp46
g7
S't2'
p47
sg9
Nsg10
S'i2'
p48
sg12
Nsg13
Nsg14
(lp49
(i__main__
Token
p50
(dp51
g18
I0
sbasg25
I0
sba(i__main__
Mention
p52
(dp53
g7
S't2'
p54
sg9
S'Coreference-Identity'
p55
sg10
S'i19'
p56
sg12
S'i2'
p57
sg13
Nsg14
(lp58
(i__main__
Token
p59
(dp60
g18
I68
sbasg25
I68
sba(i__main__
Mention
p61
(dp62
g7
S't2'
p63
sg9
S'Coreference-Identity'
p64
sg10
S'i34'
p65
sg12
S'i19'
p66
sg13
Nsg14
(lp67
(i__main__
Token
p68
(dp69
g18
I144
sbasg25
I144
sbasg7
g47
sg41
Nsba(i__main__
Chain
p70
(dp71
g3
(lp72
(i__main__
Mention
p73
(dp74
g7
S't3'
p75
sg9
Nsg10
S'i3'
p76
sg12
Nsg13
Nsg14
(lp77
(i__main__
Token
p78
(dp79
g18
I8
sba(i__main__
Token
p80
(dp81
g18
I9
sba(i__main__
Token
p82
(dp83
g18
I10
sbasg25
I10
sba(i__main__
Mention
p84
(dp85
g7
S't3'
p86
sg9
S'Coreference-Abbreviation'
p87
sg10
S'i4'
p88
sg12
S'i3'
p89
sg13
Nsg14
(lp90
(i__main__
Token
p91
(dp92
g18
I12
sbasg25
I12
sba(i__main__
Mention
p93
(dp94
g7
S't3'
p95
sg9
S'Coreference-InferedRelation'
p96
sg10
S'i8'
p97
sg12
S'i4'
p98
sg13
Nsg14
(lp99
(i__main__
Token
p100
(dp101
g18
I33
sbasg25
I33
sba(i__main__
Mention
p102
(dp103
g7
S't3'
p104
sg9
S'Coreference-Noun-Noun'
p105
sg10
S'i22'
p106
sg12
S'i8'
p107
sg13
Nsg14
(lp108
(i__main__
Token
p109
(dp110
g18
I84
sbasg25
I84
sba(i__main__
Mention
p111
(dp112
g7
S't3'
p113
sg9
S'Coreference-Identity'
p114
sg10
S'i28'
p115
sg12
S'i22'
p116
sg13
Nsg14
(lp117
(i__main__
Token
p118
(dp119
g18
I120
sbasg25
I120
sba(i__main__
Mention
p120
(dp121
g7
S't3'
p122
sg9
S'Coreference-Identity'
p123
sg10
S'i30'
p124
sg12
S'i28'
p125
sg13
Nsg14
(lp126
(i__main__
Token
p127
(dp128
g18
I124
sbasg25
I124
sba(i__main__
Mention
p129
(dp130
g7
S't3'
p131
sg9
S'Coreference-Identity'
p132
sg10
S'i37'
p133
sg12
S'i30'
p134
sg13
Nsg14
(lp135
(i__main__
Token
p136
(dp137
g18
I169
sbasg25
I169
sba(i__main__
Mention
p138
(dp139
g7
S't3'
p140
sg9
S'Coreference-Identity'
p141
sg10
S'i40'
p142
sg12
S'i37'
p143
sg13
Nsg14
(lp144
(i__main__
Token
p145
(dp146
g18
I190
sbasg25
I190
sbasg7
g75
sg41
Nsba(i__main__
Chain
p147
(dp148
g3
(lp149
(i__main__
Mention
p150
(dp151
g7
S't4'
p152
sg9
Nsg10
S'i5'
p153
sg12
Nsg13
Nsg14
(lp154
(i__main__
Token
p155
(dp156
g18
I14
sba(i__main__
Token
p157
(dp158
g18
I15
sba(i__main__
Token
p159
(dp160
g18
I16
sba(i__main__
Token
p161
(dp162
g18
I17
sba(i__main__
Token
p163
(dp164
g18
I18
sba(i__main__
Token
p165
(dp166
g18
I19
sbasg25
I19
sba(i__main__
Mention
p167
(dp168
g7
S't4'
p169
sg9
S'Coreference-Identity'
p170
sg10
S'i38'
p171
sg12
S'i5'
p172
sg13
Nsg14
(lp173
(i__main__
Token
p174
(dp175
g18
I169
sba(i__main__
Token
p176
(dp177
g18
I170
sbasg25
I170
sbasg7
g152
sg41
Nsba(i__main__
Chain
p178
(dp179
g3
(lp180
(i__main__
Mention
p181
(dp182
g7
S't5'
p183
sg9
Nsg10
S'i6'
p184
sg12
Nsg13
Nsg14
(lp185
(i__main__
Token
p186
(dp187
g18
I21
sbasg25
I21
sba(i__main__
Mention
p188
(dp189
g7
S't5'
p190
sg9
S'Coreference-Identity'
p191
sg10
S'i41'
p192
sg12
S'i6'
p193
sg13
Nsg14
(lp194
(i__main__
Token
p195
(dp196
g18
I192
sbasg25
I192
sbasg7
g183
sg41
Nsba(i__main__
Chain
p197
(dp198
g3
(lp199
(i__main__
Mention
p200
(dp201
g7
S't6'
p202
sg9
Nsg10
S'i7'
p203
sg12
Nsg13
Nsg14
(lp204
(i__main__
Token
p205
(dp206
g18
I23
sba(i__main__
Token
p207
(dp208
g18
I24
sba(i__main__
Token
p209
(dp210
g18
I25
sbasg25
I25
sba(i__main__
Mention
p211
(dp212
g7
S't6'
p213
sg9
S'Coreference-Identity'
p214
sg10
S'i27'
p215
sg12
S'i7'
p216
sg13
Nsg14
(lp217
(i__main__
Token
p218
(dp219
g18
I110
sba(i__main__
Token
p220
(dp221
g18
I111
sbasg25
I111
sba(i__main__
Mention
p222
(dp223
g7
S't6'
p224
sg9
S'Coreference-Identity'
p225
sg10
S'i39'
p226
sg12
S'i27'
p227
sg13
Nsg14
(lp228
(i__main__
Token
p229
(dp230
g18
I173
sbasg25
I173
sbasg7
g202
sg41
Nsba(i__main__
Chain
p231
(dp232
g3
(lp233
(i__main__
Mention
p234
(dp235
g7
S't7'
p236
sg9
Nsg10
S'i9'
p237
sg12
Nsg13
Nsg14
(lp238
(i__main__
Token
p239
(dp240
g18
I36
sba(i__main__
Token
p241
(dp242
g18
I37
sbasg25
I37
sba(i__main__
Mention
p243
(dp244
g7
S't7'
p245
sg9
S'Coreference-NounComplement'
p246
sg10
S'i10'
p247
sg12
S'i9'
p248
sg13
Nsg14
(lp249
(i__main__
Token
p250
(dp251
g18
I38
sba(i__main__
Token
p252
(dp253
g18
I39
sba(i__main__
Token
p254
(dp255
g18
I40
sbasg25
I40
sba(i__main__
Mention
p256
(dp257
g7
S't7'
p258
sg9
S'Coreference-Noun-Noun'
p259
sg10
S'i21'
p260
sg12
S'i10'
p261
sg13
Nsg14
(lp262
(i__main__
Token
p263
(dp264
g18
I88
sbasg25
I88
sba(i__main__
Mention
p265
(dp266
g7
S't7'
p267
sg9
S'Coreference-NounComplement'
p268
sg10
S'i23'
p269
sg12
S'i21'
p270
sg13
Nsg14
(lp271
(i__main__
Token
p272
(dp273
g18
I89
sbasg25
I89
sba(i__main__
Mention
p274
(dp275
g7
S't7'
p276
sg9
S'Anaphora-C'
p277
sg10
S'i26'
p278
sg12
S'i23'
p279
sg13
Nsg14
(lp280
(i__main__
Token
p281
(dp282
g18
I106
sbasg25
I106
sbasg7
g236
sg41
Nsba(i__main__
Chain
p283
(dp284
g3
(lp285
(i__main__
Mention
p286
(dp287
g7
S't8'
p288
sg9
Nsg10
S'i11'
p289
sg12
Nsg13
Nsg14
(lp290
(i__main__
Token
p291
(dp292
g18
I44
sba(i__main__
Token
p293
(dp294
g18
I45
sbasg25
I45
sba(i__main__
Mention
p295
(dp296
g7
S't8'
p297
sg9
S'Coreference-NounComplement'
p298
sg10
S'i12'
p299
sg12
S'i11'
p300
sg13
Nsg14
(lp301
(i__main__
Token
p302
(dp303
g18
I46
sba(i__main__
Token
p304
(dp305
g18
I47
sbasg25
I47
sba(i__main__
Mention
p306
(dp307
g7
S't8'
p308
sg9
S'Anaphora-C'
p309
sg10
S'i13'
p310
sg12
S'i12'
p311
sg13
Nsg14
(lp312
(i__main__
Token
p313
(dp314
g18
I52
sbasg25
I52
sbasg7
g288
sg41
Nsba(i__main__
Chain
p315
(dp316
g3
(lp317
(i__main__
Mention
p318
(dp319
g7
S't9'
p320
sg9
Nsg10
S'i14'
p321
sg12
Nsg13
Nsg14
(lp322
(i__main__
Token
p323
(dp324
g18
I52
sba(i__main__
Token
p325
(dp326
g18
I53
sba(i__main__
Token
p327
(dp328
g18
I54
sba(i__main__
Token
p329
(dp330
g18
I55
sba(i__main__
Token
p331
(dp332
g18
I56
sba(i__main__
Token
p333
(dp334
g18
I57
sba(i__main__
Token
p335
(dp336
g18
I58
sba(i__main__
Token
p337
(dp338
g18
I59
sba(i__main__
Token
p339
(dp340
g18
I60
sbasg25
I60
sba(i__main__
Mention
p341
(dp342
g7
S't9'
p343
sg9
S'Anaphora-E'
p344
sg10
S'i16'
p345
sg12
S'i14'
p346
sg13
Nsg14
(lp347
(i__main__
Token
p348
(dp349
g18
I64
sbasg25
I64
sbasg7
g320
sg41
Nsba(i__main__
Chain
p350
(dp351
g3
(lp352
(i__main__
Mention
p353
(dp354
g7
S't10'
p355
sg9
Nsg10
S'i15'
p356
sg12
Nsg13
Nsg14
(lp357
(i__main__
Token
p358
(dp359
g18
I53
sbasg25
I53
sba(i__main__
Mention
p360
(dp361
g7
S't10'
p362
sg9
S'Coreference-Noun-Noun'
p363
sg10
S'i20'
p364
sg12
S'i15'
p365
sg13
Nsg14
(lp366
(i__main__
Token
p367
(dp368
g18
I73
sba(i__main__
Token
p369
(dp370
g18
I74
sbasg25
I74
sbasg7
g355
sg41
Nsba(i__main__
Chain
p371
(dp372
g3
(lp373
(i__main__
Mention
p374
(dp375
g7
S't11'
p376
sg9
Nsg10
S'i17'
p377
sg12
Nsg13
Nsg14
(lp378
(i__main__
Token
p379
(dp380
g18
I66
sbasg25
I66
sba(i__main__
Mention
p381
(dp382
g7
S't11'
p383
sg9
S'Coreference-Identity'
p384
sg10
S'i24'
p385
sg12
S'i17'
p386
sg13
Nsg14
(lp387
(i__main__
Token
p388
(dp389
g18
I94
sba(i__main__
Token
p390
(dp391
g18
I95
sbasg25
I95
sbasg7
g376
sg41
Nsba(i__main__
Chain
p392
(dp393
g3
(lp394
(i__main__
Mention
p395
(dp396
g7
S't12'
p397
sg9
S'anaphora-?'
p398
sg10
S'i25'
p399
sg12
S'i25'
p400
sg13
Nsg14
(lp401
(i__main__
Token
p402
(dp403
g18
I99
sbasg25
I99
sbasg7
g397
sg41
Nsba(i__main__
Chain
p404
(dp405
g3
(lp406
(i__main__
Mention
p407
(dp408
g7
S't13'
p409
sg9
Nsg10
S'i29'
p410
sg12
Nsg13
Nsg14
(lp411
(i__main__
Token
p412
(dp413
g18
I128
sbasg25
Nsba(i__main__
Mention
p414
(dp415
g7
S't13'
p416
sg9
S'Coreference-NounComplement'
p417
sg10
S'i32'
p418
sg12
S'i29'
p419
sg13
Nsg14
(lp420
(i__main__
Token
p421
(dp422
g18
I129
sba(i__main__
Token
p423
(dp424
g18
I130
sba(i__main__
Token
p425
(dp426
g18
I131
sbasg25
I131
sbasg7
g409
sg41
Nsba(i__main__
Chain
p427
(dp428
g3
(lp429
(i__main__
Mention
p430
(dp431
g7
S't14'
p432
sg9
Nsg10
S'i31'
p433
sg12
Nsg13
Nsg14
(lp434
(i__main__
Token
p435
(dp436
g18
I128
sbasg25
Nsba(i__main__
Mention
p437
(dp438
g7
S't14'
p439
sg9
S'Coreference-NounComplement'
p440
sg10
S'i33'
p441
sg12
S'i31'
p442
sg13
Nsg14
(lp443
(i__main__
Token
p444
(dp445
g18
I133
sba(i__main__
Token
p446
(dp447
g18
I134
sbasg25
I134
sbasg7
g432
sg41
Nsba(i__main__
Chain
p448
(dp449
g3
(lp450
(i__main__
Mention
p451
(dp452
g7
S't15'
p453
sg9
Nsg10
S'i35'
p454
sg12
Nsg13
Nsg14
(lp455
(i__main__
Token
p456
(dp457
g18
I144
sba(i__main__
Token
p458
(dp459
g18
I145
sba(i__main__
Token
p460
(dp461
g18
I146
sba(i__main__
Token
p462
(dp463
g18
I147
sba(i__main__
Token
p464
(dp465
g18
I148
sba(i__main__
Token
p466
(dp467
g18
I149
sba(i__main__
Token
p468
(dp469
g18
I150
sba(i__main__
Token
p470
(dp471
g18
I151
sba(i__main__
Token
p472
(dp473
g18
I152
sba(i__main__
Token
p474
(dp475
g18
I153
sba(i__main__
Token
p476
(dp477
g18
I154
sba(i__main__
Token
p478
(dp479
g18
I155
sba(i__main__
Token
p480
(dp481
g18
I156
sba(i__main__
Token
p482
(dp483
g18
I157
sba(i__main__
Token
p484
(dp485
g18
I158
sba(i__main__
Token
p486
(dp487
g18
I159
sba(i__main__
Token
p488
(dp489
g18
I160
sba(i__main__
Token
p490
(dp491
g18
I161
sba(i__main__
Token
p492
(dp493
g18
I162
sba(i__main__
Token
p494
(dp495
g18
I163
sba(i__main__
Token
p496
(dp497
g18
I164
sba(i__main__
Token
p498
(dp499
g18
I165
sba(i__main__
Token
p500
(dp501
g18
I166
sbasg25
I166
sba(i__main__
Mention
p502
(dp503
g7
S't15'
p504
sg9
S'Anaphora-E'
p505
sg10
S'i36'
p506
sg12
S'i35'
p507
sg13
Nsg14
(lp508
(i__main__
Token
p509
(dp510
g18
I168
sbasg25
I168
sbasg7
g453
sg41
Nsba.