(lp0
(i__main__
Chain
p1
(dp2
S'mentionList'
p3
(lp4
(i__main__
Mention
p5
(dp6
S'chainId'
p7
S't1'
p8
sS'relType'
p9
NsS'mentionId'
p10
S'i1'
p11
sS'antecedentId'
p12
NsS'crefMod'
p13
NsS'tokenList'
p14
(lp15
(i__main__
Token
p16
(dp17
S'tokenId'
p18
I0
sbasS'mentionHead'
p19
I0
sba(i__main__
Mention
p20
(dp21
g7
S't1'
p22
sg9
S'Coreference-Identity'
p23
sg10
S'i14'
p24
sg12
S'i1'
p25
sg13
Nsg14
(lp26
(i__main__
Token
p27
(dp28
g18
I51
sbasg19
I51
sbasg7
g8
sS'chainHead'
p29
Nsba(i__main__
Chain
p30
(dp31
g3
(lp32
(i__main__
Mention
p33
(dp34
g7
S't2'
p35
sg9
Nsg10
S'i2'
p36
sg12
Nsg13
Nsg14
(lp37
(i__main__
Token
p38
(dp39
g18
I0
sba(i__main__
Token
p40
(dp41
g18
I1
sbasg19
I1
sba(i__main__
Mention
p42
(dp43
g7
S't2'
p44
sg9
S'Anaphora-C'
p45
sg10
S'i3'
p46
sg12
S'i2'
p47
sg13
Nsg14
(lp48
(i__main__
Token
p49
(dp50
g18
I5
sbasg19
I5
sba(i__main__
Mention
p51
(dp52
g7
S't2'
p53
sg9
S'Coreference-Identity'
p54
sg10
S'i19'
p55
sg12
S'i3'
p56
sg13
Nsg14
(lp57
(i__main__
Token
p58
(dp59
g18
I65
sbasg19
I65
sbasg7
g35
sg29
Nsba(i__main__
Chain
p60
(dp61
g3
(lp62
(i__main__
Mention
p63
(dp64
g7
S't3'
p65
sg9
Nsg10
S'i4'
p66
sg12
Nsg13
Nsg14
(lp67
(i__main__
Token
p68
(dp69
g18
I6
sba(i__main__
Token
p70
(dp71
g18
I7
sba(i__main__
Token
p72
(dp73
g18
I8
sbasg19
I8
sba(i__main__
Mention
p74
(dp75
g7
S't3'
p76
sg9
S'Coreference-Identity'
p77
sg10
S'i20'
p78
sg12
S'i4'
p79
sg13
Nsg14
(lp80
(i__main__
Token
p81
(dp82
g18
I66
sbasg19
I66
sba(i__main__
Mention
p83
(dp84
g7
S't3'
p85
sg9
S'Coreference-Identity'
p86
sg10
S'i34'
p87
sg12
S'i20'
p88
sg13
Nsg14
(lp89
(i__main__
Token
p90
(dp91
g18
I144
sbasg19
I144
sbasg7
g65
sg29
Nsba(i__main__
Chain
p92
(dp93
g3
(lp94
(i__main__
Mention
p95
(dp96
g7
S't4'
p97
sg9
Nsg10
S'i5'
p98
sg12
Nsg13
Nsg14
(lp99
(i__main__
Token
p100
(dp101
g18
I12
sbasg19
I12
sba(i__main__
Mention
p102
(dp103
g7
S't4'
p104
sg9
S'Coreference-Identity'
p105
sg10
S'i32'
p106
sg12
S'i5'
p107
sg13
Nsg14
(lp108
(i__main__
Token
p109
(dp110
g18
I129
sbasg19
I129
sbasg7
g97
sg29
Nsba(i__main__
Chain
p111
(dp112
g3
(lp113
(i__main__
Mention
p114
(dp115
g7
S't5'
p116
sg9
Nsg10
S'i6'
p117
sg12
Nsg13
Nsg14
(lp118
(i__main__
Token
p119
(dp120
g18
I15
sbasg19
I15
sba(i__main__
Mention
p121
(dp122
g7
S't5'
p123
sg9
S'Coreference-Identity'
p124
sg10
S'i10'
p125
sg12
S'i6'
p126
sg13
Nsg14
(lp127
(i__main__
Token
p128
(dp129
g18
I30
sbasg19
I30
sba(i__main__
Mention
p130
(dp131
g7
S't5'
p132
sg9
S'Coreference-Identity'
p133
sg10
S'i22'
p134
sg12
S'i10'
p135
sg13
Nsg14
(lp136
(i__main__
Token
p137
(dp138
g18
I83
sbasg19
I83
sba(i__main__
Mention
p139
(dp140
g7
S't5'
p141
sg9
S'Coreference-Identity'
p142
sg10
S'i25'
p143
sg12
S'i22'
p144
sg13
Nsg14
(lp145
(i__main__
Token
p146
(dp147
g18
I104
sbasg19
I104
sba(i__main__
Mention
p148
(dp149
g7
S't5'
p150
sg9
S'Coreference-Noun-Noun'
p151
sg10
S'i29'
p152
sg12
S'i25'
p153
sg13
Nsg14
(lp154
(i__main__
Token
p155
(dp156
g18
I122
sbasg19
I122
sbasg7
g116
sg29
Nsba(i__main__
Chain
p157
(dp158
g3
(lp159
(i__main__
Mention
p160
(dp161
g7
S't6'
p162
sg9
Nsg10
S'i7'
p163
sg12
Nsg13
Nsg14
(lp164
(i__main__
Token
p165
(dp166
g18
I15
sba(i__main__
Token
p167
(dp168
g18
I16
sba(i__main__
Token
p169
(dp170
g18
I17
sbasg19
I17
sba(i__main__
Mention
p171
(dp172
g7
S't6'
p173
sg9
S'Coreference-Identity'
p174
sg10
S'i23'
p175
sg12
S'i7'
p176
sg13
Nsg14
(lp177
(i__main__
Token
p178
(dp179
g18
I85
sba(i__main__
Token
p180
(dp181
g18
I86
sbasg19
I86
sba(i__main__
Mention
p182
(dp183
g7
S't6'
p184
sg9
S'Coreference-Identity'
p185
sg10
S'i30'
p186
sg12
S'i23'
p187
sg13
Nsg14
(lp188
(i__main__
Token
p189
(dp190
g18
I123
sba(i__main__
Token
p191
(dp192
g18
I124
sba(i__main__
Token
p193
(dp194
g18
I125
sba(i__main__
Token
p195
(dp196
g18
I126
sbasg19
I126
sbasg7
g162
sg29
Nsba(i__main__
Chain
p197
(dp198
g3
(lp199
(i__main__
Mention
p200
(dp201
g7
S't7'
p202
sg9
Nsg10
S'i8'
p203
sg12
Nsg13
Nsg14
(lp204
(i__main__
Token
p205
(dp206
g18
I19
sbasg19
I19
sba(i__main__
Mention
p207
(dp208
g7
S't7'
p209
sg9
S'Anaphora-C'
p210
sg10
S'i12'
p211
sg12
S'i8'
p212
sg13
Nsg14
(lp213
(i__main__
Token
p214
(dp215
g18
I37
sbasg19
I37
sba(i__main__
Mention
p216
(dp217
g7
S't7'
p218
sg9
S'Coreference-Identity'
p219
sg10
S'i24'
p220
sg12
S'i12'
p221
sg13
Nsg14
(lp222
(i__main__
Token
p223
(dp224
g18
I93
sbasg19
I93
sba(i__main__
Mention
p225
(dp226
g7
S't7'
p227
sg9
S'Coreference-Identity'
p228
sg10
S'i31'
p229
sg12
S'i24'
p230
sg13
Nsg14
(lp231
(i__main__
Token
p232
(dp233
g18
I132
sba(i__main__
Token
p234
(dp235
g18
I133
sbasg19
I133
sbasg7
g202
sg29
Nsba(i__main__
Chain
p236
(dp237
g3
(lp238
(i__main__
Mention
p239
(dp240
g7
S't8'
p241
sg9
S'anaphora-?'
p242
sg10
S'i9'
p243
sg12
S'i9'
p244
sg13
Nsg14
(lp245
(i__main__
Token
p246
(dp247
g18
I27
sbasg19
I27
sbasg7
g241
sg29
Nsba(i__main__
Chain
p248
(dp249
g3
(lp250
(i__main__
Mention
p251
(dp252
g7
S't9'
p253
sg9
Nsg10
S'i11'
p254
sg12
Nsg13
Nsg14
(lp255
(i__main__
Token
p256
(dp257
g18
I32
sba(i__main__
Token
p258
(dp259
g18
I33
sbasg19
I33
sba(i__main__
Mention
p260
(dp261
g7
S't9'
p262
sg9
S'Coreference-Identity'
p263
sg10
S'i33'
p264
sg12
S'i11'
p265
sg13
Nsg14
(lp266
(i__main__
Token
p267
(dp268
g18
I140
sbasg19
I140
sbasg7
g253
sg29
Nsba(i__main__
Chain
p269
(dp270
g3
(lp271
(i__main__
Mention
p272
(dp273
g7
S't10'
p274
sg9
S'anaphora-?'
p275
sg10
S'i13'
p276
sg12
S'i13'
p277
sg13
Nsg14
(lp278
(i__main__
Token
p279
(dp280
g18
I42
sbasg19
I42
sbasg7
g274
sg29
Nsba(i__main__
Chain
p281
(dp282
g3
(lp283
(i__main__
Mention
p284
(dp285
g7
S't11'
p286
sg9
Nsg10
S'i15'
p287
sg12
Nsg13
Nsg14
(lp288
(i__main__
Token
p289
(dp290
g18
I53
sbasg19
I53
sba(i__main__
Mention
p291
(dp292
g7
S't11'
p293
sg9
S'Coreference-NounComplement'
p294
sg10
S'i16'
p295
sg12
S'i15'
p296
sg13
Nsg14
(lp297
(i__main__
Token
p298
(dp299
g18
I54
sba(i__main__
Token
p300
(dp301
g18
I55
sbasg19
I55
sba(i__main__
Mention
p302
(dp303
g7
S't11'
p304
sg9
S'Anaphora-C'
p305
sg10
S'i18'
p306
sg12
S'i16'
p307
sg13
Nsg14
(lp308
(i__main__
Token
p309
(dp310
g18
I64
sbasg19
I64
sbasg7
g286
sg29
Nsba(i__main__
Chain
p311
(dp312
g3
(lp313
(i__main__
Mention
p314
(dp315
g7
S't12'
p316
sg9
S'anaphora-?'
p317
sg10
S'i17'
p318
sg12
S'i17'
p319
sg13
Nsg14
(lp320
(i__main__
Token
p321
(dp322
g18
I59
sbasg19
I59
sbasg7
g316
sg29
Nsba(i__main__
Chain
p323
(dp324
g3
(lp325
(i__main__
Mention
p326
(dp327
g7
S't13'
p328
sg9
Nsg10
S'i21'
p329
sg12
Nsg13
Nsg14
(lp330
(i__main__
Token
p331
(dp332
g18
I77
sbasg19
I77
sba(i__main__
Mention
p333
(dp334
g7
S't13'
p335
sg9
S'Coreference-Identity'
p336
sg10
S'i35'
p337
sg12
S'i21'
p338
sg13
Nsg14
(lp339
(i__main__
Token
p340
(dp341
g18
I146
sbasg19
I146
sbasg7
g328
sg29
Nsba(i__main__
Chain
p342
(dp343
g3
(lp344
(i__main__
Mention
p345
(dp346
g7
S't14'
p347
sg9
Nsg10
S'i26'
p348
sg12
Nsg13
Nsg14
(lp349
(i__main__
Token
p350
(dp351
g18
I106
sba(i__main__
Token
p352
(dp353
g18
I107
sba(i__main__
Token
p354
(dp355
g18
I108
sbasg19
I108
sba(i__main__
Mention
p356
(dp357
g7
S't14'
p358
sg9
S'Coreference-NounComplement'
p359
sg10
S'i27'
p360
sg12
S'i26'
p361
sg13
Nsg14
(lp362
(i__main__
Token
p363
(dp364
g18
I109
sba(i__main__
Token
p365
(dp366
g18
I110
sbasg19
I110
sba(i__main__
Mention
p367
(dp368
g7
S't14'
p369
sg9
S'Anaphora-C'
p370
sg10
S'i28'
p371
sg12
S'i27'
p372
sg13
Nsg14
(lp373
(i__main__
Token
p374
(dp375
g18
I121
sbasg19
I121
sbasg7
g347
sg29
Nsba.