(lp0
(i__main__
Chain
p1
(dp2
S'mentionList'
p3
(lp4
(i__main__
Mention
p5
(dp6
S'chainId'
p7
S't1'
p8
sS'relType'
p9
NsS'mentionId'
p10
S'i1'
p11
sS'antecedentId'
p12
NsS'crefMod'
p13
NsS'tokenList'
p14
(lp15
(i__main__
Token
p16
(dp17
S'tokenId'
p18
I14
sba(i__main__
Token
p19
(dp20
g18
I15
sbasS'mentionHead'
p21
I15
sba(i__main__
Mention
p22
(dp23
g7
S't1'
p24
sg9
S'Anaphora-C'
p25
sg10
S'i3'
p26
sg12
S'i1'
p27
sg13
Nsg14
(lp28
(i__main__
Token
p29
(dp30
g18
I35
sbasg21
I35
sba(i__main__
Mention
p31
(dp32
g7
S't1'
p33
sg9
S'Coreference-Identity'
p34
sg10
S'i18'
p35
sg12
S'i3'
p36
sg13
Nsg14
(lp37
(i__main__
Token
p38
(dp39
g18
I120
sbasg21
I120
sba(i__main__
Mention
p40
(dp41
g7
S't1'
p42
sg9
S'Anaphora-C'
p43
sg10
S'i21'
p44
sg12
S'i18'
p45
sg13
Nsg14
(lp46
(i__main__
Token
p47
(dp48
g18
I131
sbasg21
I131
sba(i__main__
Mention
p49
(dp50
g7
S't1'
p51
sg9
S'Anaphora-C'
p52
sg10
S'i22'
p53
sg12
S'i21'
p54
sg13
Nsg14
(lp55
(i__main__
Token
p56
(dp57
g18
I132
sbasg21
I132
sba(i__main__
Mention
p58
(dp59
g7
S't1'
p60
sg9
S'Coreference-Identity'
p61
sg10
S'i24'
p62
sg12
S'i22'
p63
sg13
Nsg14
(lp64
(i__main__
Token
p65
(dp66
g18
I146
sba(i__main__
Token
p67
(dp68
g18
I147
sbasg21
I147
sba(i__main__
Mention
p69
(dp70
g7
S't1'
p71
sg9
S'Coreference-Noun-Noun'
p72
sg10
S'i25'
p73
sg12
S'i24'
p74
sg13
Nsg14
(lp75
(i__main__
Token
p76
(dp77
g18
I149
sbasg21
I149
sbasg7
g8
sS'chainHead'
p78
Nsba(i__main__
Chain
p79
(dp80
g3
(lp81
(i__main__
Mention
p82
(dp83
g7
S't2'
p84
sg9
Nsg10
S'i2'
p85
sg12
Nsg13
Nsg14
(lp86
(i__main__
Token
p87
(dp88
g18
I16
sba(i__main__
Token
p89
(dp90
g18
I17
sba(i__main__
Token
p91
(dp92
g18
I18
sba(i__main__
Token
p93
(dp94
g18
I19
sba(i__main__
Token
p95
(dp96
g18
I20
sba(i__main__
Token
p97
(dp98
g18
I21
sba(i__main__
Token
p99
(dp100
g18
I22
sba(i__main__
Token
p101
(dp102
g18
I23
sba(i__main__
Token
p103
(dp104
g18
I24
sba(i__main__
Token
p105
(dp106
g18
I25
sba(i__main__
Token
p107
(dp108
g18
I26
sba(i__main__
Token
p109
(dp110
g18
I27
sba(i__main__
Token
p111
(dp112
g18
I28
sba(i__main__
Token
p113
(dp114
g18
I29
sbasg21
I29
sba(i__main__
Mention
p115
(dp116
g7
S't2'
p117
sg9
S'Coreference-Identity'
p118
sg10
S'i12'
p119
sg12
S'i2'
p120
sg13
Nsg14
(lp121
(i__main__
Token
p122
(dp123
g18
I99
sba(i__main__
Token
p124
(dp125
g18
I100
sbasg21
I100
sbasg7
g84
sg78
Nsba(i__main__
Chain
p126
(dp127
g3
(lp128
(i__main__
Mention
p129
(dp130
g7
S't3'
p131
sg9
Nsg10
S'i4'
p132
sg12
Nsg13
Nsg14
(lp133
(i__main__
Token
p134
(dp135
g18
I42
sbasg21
I42
sba(i__main__
Mention
p136
(dp137
g7
S't3'
p138
sg9
S'Coreference-Identity'
p139
sg10
S'i10'
p140
sg12
S'i4'
p141
sg13
Nsg14
(lp142
(i__main__
Token
p143
(dp144
g18
I87
sbasg21
I87
sba(i__main__
Mention
p145
(dp146
g7
S't3'
p147
sg9
S'Coreference-Identity'
p148
sg10
S'i13'
p149
sg12
S'i10'
p150
sg13
Nsg14
(lp151
(i__main__
Token
p152
(dp153
g18
I103
sba(i__main__
Token
p154
(dp155
g18
I104
sba(i__main__
Token
p156
(dp157
g18
I105
sbasg21
I105
sba(i__main__
Mention
p158
(dp159
g7
S't3'
p160
sg9
S'Coreference-Identity'
p161
sg10
S'i23'
p162
sg12
S'i13'
p163
sg13
Nsg14
(lp164
(i__main__
Token
p165
(dp166
g18
I141
sbasg21
I141
sbasg7
g131
sg78
Nsba(i__main__
Chain
p167
(dp168
g3
(lp169
(i__main__
Mention
p170
(dp171
g7
S't4'
p172
sg9
Nsg10
S'i5'
p173
sg12
Nsg13
Nsg14
(lp174
(i__main__
Token
p175
(dp176
g18
I46
sba(i__main__
Token
p177
(dp178
g18
I47
sbasg21
I47
sba(i__main__
Mention
p179
(dp180
g7
S't4'
p181
sg9
S'Coreference-NounComplement'
p182
sg10
S'i27'
p183
sg12
S'i5'
p184
sg13
Nsg14
(lp185
(i__main__
Token
p186
(dp187
g18
I177
sba(i__main__
Token
p188
(dp189
g18
I178
sbasg21
I178
sbasg7
g172
sg78
Nsba(i__main__
Chain
p190
(dp191
g3
(lp192
(i__main__
Mention
p193
(dp194
g7
S't5'
p195
sg9
Nsg10
S'i6'
p196
sg12
Nsg13
Nsg14
(lp197
(i__main__
Token
p198
(dp199
g18
I49
sba(i__main__
Token
p200
(dp201
g18
I50
sbasg21
I50
sba(i__main__
Mention
p202
(dp203
g7
S't5'
p204
sg9
S'Coreference-NounComplement'
p205
sg10
S'i7'
p206
sg12
S'i6'
p207
sg13
Nsg14
(lp208
(i__main__
Token
p209
(dp210
g18
I51
sba(i__main__
Token
p211
(dp212
g18
I52
sbasg21
I52
sba(i__main__
Mention
p213
(dp214
g7
S't5'
p215
sg9
S'Coreference-Identity'
p216
sg10
S'i29'
p217
sg12
S'i7'
p218
sg13
Nsg14
(lp219
(i__main__
Token
p220
(dp221
g18
I198
sba(i__main__
Token
p222
(dp223
g18
I199
sbasg21
I199
sba(i__main__
Mention
p224
(dp225
g7
S't5'
p226
sg9
S'Coreference-Noun-Noun'
p227
sg10
S'i30'
p228
sg12
S'i29'
p229
sg13
Nsg14
(lp230
(i__main__
Token
p231
(dp232
g18
I201
sba(i__main__
Token
p233
(dp234
g18
I202
sbasg21
I202
sbasg7
g195
sg78
Nsba(i__main__
Chain
p235
(dp236
g3
(lp237
(i__main__
Mention
p238
(dp239
g7
S't6'
p240
sg9
Nsg10
S'i8'
p241
sg12
Nsg13
Nsg14
(lp242
(i__main__
Token
p243
(dp244
g18
I68
sba(i__main__
Token
p245
(dp246
g18
I69
sbasg21
I69
sba(i__main__
Mention
p247
(dp248
g7
S't6'
p249
sg9
S'Coreference-Identity'
p250
sg10
S'i26'
p251
sg12
S'i8'
p252
sg13
Nsg14
(lp253
(i__main__
Token
p254
(dp255
g18
I171
sba(i__main__
Token
p256
(dp257
g18
I172
sbasg21
I172
sbasg7
g240
sg78
Nsba(i__main__
Chain
p258
(dp259
g3
(lp260
(i__main__
Mention
p261
(dp262
g7
S't7'
p263
sg9
Nsg10
S'i9'
p264
sg12
Nsg13
Nsg14
(lp265
(i__main__
Token
p266
(dp267
g18
I84
sba(i__main__
Token
p268
(dp269
g18
I85
sbasg21
I85
sba(i__main__
Mention
p270
(dp271
g7
S't7'
p272
sg9
S'Coreference-Identity'
p273
sg10
S'i28'
p274
sg12
S'i9'
p275
sg13
Nsg14
(lp276
(i__main__
Token
p277
(dp278
g18
I189
sba(i__main__
Token
p279
(dp280
g18
I190
sbasg21
I190
sbasg7
g263
sg78
Nsba(i__main__
Chain
p281
(dp282
g3
(lp283
(i__main__
Mention
p284
(dp285
g7
S't8'
p286
sg9
Nsg10
S'i11'
p287
sg12
Nsg13
Nsg14
(lp288
(i__main__
Token
p289
(dp290
g18
I91
sbasg21
I91
sba(i__main__
Mention
p291
(dp292
g7
S't8'
p293
sg9
S'Coreference-Identity'
p294
sg10
S'i14'
p295
sg12
S'i11'
p296
sg13
Nsg14
(lp297
(i__main__
Token
p298
(dp299
g18
I110
sbasg21
I110
sba(i__main__
Mention
p300
(dp301
g7
S't8'
p302
sg9
S'Coreference-Identity'
p303
sg10
S'i17'
p304
sg12
S'i14'
p305
sg13
Nsg14
(lp306
(i__main__
Token
p307
(dp308
g18
I118
sbasg21
I118
sbasg7
g286
sg78
Nsba(i__main__
Chain
p309
(dp310
g3
(lp311
(i__main__
Mention
p312
(dp313
g7
S't9'
p314
sg9
Nsg10
S'i15'
p315
sg12
Nsg13
Nsg14
(lp316
(i__main__
Token
p317
(dp318
g18
I112
sbasg21
I112
sba(i__main__
Mention
p319
(dp320
g7
S't9'
p321
sg9
S'Coreference-NounComplement'
p322
sg10
S'i16'
p323
sg12
S'i15'
p324
sg13
Nsg14
(lp325
(i__main__
Token
p326
(dp327
g18
I113
sba(i__main__
Token
p328
(dp329
g18
I114
sbasg21
I114
sbasg7
g314
sg78
Nsba(i__main__
Chain
p330
(dp331
g3
(lp332
(i__main__
Mention
p333
(dp334
g7
S't10'
p335
sg9
Nsg10
S'i19'
p336
sg12
Nsg13
Nsg14
(lp337
(i__main__
Token
p338
(dp339
g18
I122
sba(i__main__
Token
p340
(dp341
g18
I123
sbasg21
I123
sba(i__main__
Mention
p342
(dp343
g7
S't10'
p344
sg9
S'Anaphora-C'
p345
sg10
S'i20'
p346
sg12
S'i19'
p347
sg13
Nsg14
(lp348
(i__main__
Token
p349
(dp350
g18
I130
sbasg21
I130
sbasg7
g335
sg78
Nsba.