(lp0
(i__main__
Chain
p1
(dp2
S'mentionList'
p3
(lp4
(i__main__
Mention
p5
(dp6
S'chainId'
p7
S't1'
p8
sS'relType'
p9
NsS'mentionId'
p10
S'i1'
p11
sS'antecedentId'
p12
NsS'crefMod'
p13
NsS'tokenList'
p14
(lp15
(i__main__
Token
p16
(dp17
S'tokenId'
p18
I0
sba(i__main__
Token
p19
(dp20
g18
I1
sba(i__main__
Token
p21
(dp22
g18
I2
sba(i__main__
Token
p23
(dp24
g18
I3
sbasS'mentionHead'
p25
I3
sba(i__main__
Mention
p26
(dp27
g7
S't1'
p28
sg9
S'Anaphora-C'
p29
sg10
S'i2'
p30
sg12
S'i1'
p31
sg13
Nsg14
(lp32
(i__main__
Token
p33
(dp34
g18
I5
sbasg25
I5
sba(i__main__
Mention
p35
(dp36
g7
S't1'
p37
sg9
S'Coreference-Abbreviation'
p38
sg10
S'i4'
p39
sg12
S'i2'
p40
sg13
Nsg14
(lp41
(i__main__
Token
p42
(dp43
g18
I15
sbasg25
I15
sba(i__main__
Mention
p44
(dp45
g7
S't1'
p46
sg9
S'Coreference-Identity'
p47
sg10
S'i16'
p48
sg12
S'i4'
p49
sg13
Nsg14
(lp50
(i__main__
Token
p51
(dp52
g18
I81
sbasg25
I81
sba(i__main__
Mention
p53
(dp54
g7
S't1'
p55
sg9
S'Coreference-Identity'
p56
sg10
S'i17'
p57
sg12
S'i16'
p58
sg13
Nsg14
(lp59
(i__main__
Token
p60
(dp61
g18
I91
sbasg25
I91
sba(i__main__
Mention
p62
(dp63
g7
S't1'
p64
sg9
S'Coreference-Identity'
p65
sg10
S'i20'
p66
sg12
S'i17'
p67
sg13
Nsg14
(lp68
(i__main__
Token
p69
(dp70
g18
I94
sbasg25
I94
sba(i__main__
Mention
p71
(dp72
g7
S't1'
p73
sg9
S'Coreference-Identity'
p74
sg10
S'i59'
p75
sg12
S'i20'
p76
sg13
Nsg14
(lp77
(i__main__
Token
p78
(dp79
g18
I310
sbasg25
I310
sba(i__main__
Mention
p80
(dp81
g7
S't1'
p82
sg9
S'Coreference-Identity'
p83
sg10
S'i61'
p84
sg12
S'i59'
p85
sg13
Nsg14
(lp86
(i__main__
Token
p87
(dp88
g18
I319
sbasg25
I319
sba(i__main__
Mention
p89
(dp90
g7
S't1'
p91
sg9
S'Coreference-Identity'
p92
sg10
S'i67'
p93
sg12
S'i61'
p94
sg13
Nsg14
(lp95
(i__main__
Token
p96
(dp97
g18
I361
sbasg25
I361
sbasg7
g8
sS'chainHead'
p98
Nsba(i__main__
Chain
p99
(dp100
g3
(lp101
(i__main__
Mention
p102
(dp103
g7
S't2'
p104
sg9
Nsg10
S'i3'
p105
sg12
Nsg13
Nsg14
(lp106
(i__main__
Token
p107
(dp108
g18
I6
sbasg25
I6
sba(i__main__
Mention
p109
(dp110
g7
S't2'
p111
sg9
S'Coreference-PartOf'
p112
sg10
S'i22'
p113
sg12
S'i3'
p114
sg13
Nsg14
(lp115
(i__main__
Token
p116
(dp117
g18
I113
sbasg25
I113
sba(i__main__
Mention
p118
(dp119
g7
S't2'
p120
sg9
S'Coreference-Identity'
p121
sg10
S'i26'
p122
sg12
S'i22'
p123
sg13
Nsg14
(lp124
(i__main__
Token
p125
(dp126
g18
I132
sbasg25
I132
sba(i__main__
Mention
p127
(dp128
g7
S't2'
p129
sg9
S'Coreference-Identity'
p130
sg10
S'i29'
p131
sg12
S'i26'
p132
sg13
Nsg14
(lp133
(i__main__
Token
p134
(dp135
g18
I149
sbasg25
I149
sba(i__main__
Mention
p136
(dp137
g7
S't2'
p138
sg9
S'Coreference-Identity'
p139
sg10
S'i39'
p140
sg12
S'i29'
p141
sg13
Nsg14
(lp142
(i__main__
Token
p143
(dp144
g18
I198
sbasg25
I198
sba(i__main__
Mention
p145
(dp146
g7
S't2'
p147
sg9
S'Coreference-PartOf'
p148
sg10
S'i41'
p149
sg12
S'i39'
p150
sg13
Nsg14
(lp151
(i__main__
Token
p152
(dp153
g18
I205
sba(i__main__
Token
p154
(dp155
g18
I206
sba(i__main__
Token
p156
(dp157
g18
I207
sba(i__main__
Token
p158
(dp159
g18
I208
sba(i__main__
Token
p160
(dp161
g18
I209
sbasg25
I209
sba(i__main__
Mention
p162
(dp163
g7
S't2'
p164
sg9
S'Coreference-RPartOf'
p165
sg10
S'i42'
p166
sg12
S'i41'
p167
sg13
Nsg14
(lp168
(i__main__
Token
p169
(dp170
g18
I219
sbasg25
I219
sba(i__main__
Mention
p171
(dp172
g7
S't2'
p173
sg9
S'Anaphora-C'
p174
sg10
S'i44'
p175
sg12
S'i42'
p176
sg13
Nsg14
(lp177
(i__main__
Token
p178
(dp179
g18
I234
sbasg25
I234
sba(i__main__
Mention
p180
(dp181
g7
S't2'
p182
sg9
S'Coreference-Identity'
p183
sg10
S'i47'
p184
sg12
S'i44'
p185
sg13
Nsg14
(lp186
(i__main__
Token
p187
(dp188
g18
I241
sbasg25
I241
sba(i__main__
Mention
p189
(dp190
g7
S't2'
p191
sg9
S'Coreference-Identity'
p192
sg10
S'i48'
p193
sg12
S'i47'
p194
sg13
Nsg14
(lp195
(i__main__
Token
p196
(dp197
g18
I253
sbasg25
I253
sba(i__main__
Mention
p198
(dp199
g7
S't2'
p200
sg9
S'Anaphora-C'
p201
sg10
S'i50'
p202
sg12
S'i48'
p203
sg13
Nsg14
(lp204
(i__main__
Token
p205
(dp206
g18
I261
sbasg25
I261
sba(i__main__
Mention
p207
(dp208
g7
S't2'
p209
sg9
S'Coreference-PartOf'
p210
sg10
S'i54'
p211
sg12
S'i50'
p212
sg13
Nsg14
(lp213
(i__main__
Token
p214
(dp215
g18
I274
sba(i__main__
Token
p216
(dp217
g18
I275
sbasg25
I275
sba(i__main__
Mention
p218
(dp219
g7
S't2'
p220
sg9
S'Anaphora-C'
p221
sg10
S'i55'
p222
sg12
S'i54'
p223
sg13
Nsg14
(lp224
(i__main__
Token
p225
(dp226
g18
I284
sbasg25
I284
sba(i__main__
Mention
p227
(dp228
g7
S't2'
p229
sg9
Nsg10
S'i64'
p230
sg12
Nsg13
Nsg14
(lp231
(i__main__
Token
p232
(dp233
g18
I359
sbasg25
Nsba(i__main__
Mention
p234
(dp235
g7
S't2'
p236
sg9
Nsg10
S'i65'
p237
sg12
Nsg13
Nsg14
(lp238
(i__main__
Token
p239
(dp240
g18
I359
sbasg25
Nsba(i__main__
Mention
p241
(dp242
g7
S't2'
p243
sg9
Nsg10
S'i66'
p244
sg12
Nsg13
Nsg14
(lp245
(i__main__
Token
p246
(dp247
g18
I359
sbasg25
Nsbasg7
g104
sg98
Nsba(i__main__
Chain
p248
(dp249
g3
(lp250
(i__main__
Mention
p251
(dp252
g7
S't3'
p253
sg9
Nsg10
S'i5'
p254
sg12
Nsg13
Nsg14
(lp255
(i__main__
Token
p256
(dp257
g18
I15
sba(i__main__
Token
p258
(dp259
g18
I16
sbasg25
I16
sba(i__main__
Mention
p260
(dp261
g7
S't3'
p262
sg9
S'Coreference-Identity'
p263
sg10
S'i18'
p264
sg12
S'i5'
p265
sg13
Nsg14
(lp266
(i__main__
Token
p267
(dp268
g18
I91
sba(i__main__
Token
p269
(dp270
g18
I92
sbasg25
I92
sbasg7
g253
sg98
Nsba(i__main__
Chain
p271
(dp272
g3
(lp273
(i__main__
Mention
p274
(dp275
g7
S't4'
p276
sg9
Nsg10
S'i6'
p277
sg12
Nsg13
Nsg14
(lp278
(i__main__
Token
p279
(dp280
g18
I18
sbasg25
I18
sba(i__main__
Mention
p281
(dp282
g7
S't4'
p283
sg9
S'Coreference-Identity'
p284
sg10
S'i11'
p285
sg12
S'i6'
p286
sg13
Nsg14
(lp287
(i__main__
Token
p288
(dp289
g18
I54
sbasg25
I54
sba(i__main__
Mention
p290
(dp291
g7
S't4'
p292
sg9
S'Coreference-Identity'
p293
sg10
S'i19'
p294
sg12
S'i11'
p295
sg13
Nsg14
(lp296
(i__main__
Token
p297
(dp298
g18
I97
sba(i__main__
Token
p299
(dp300
g18
I98
sbasg25
I98
sba(i__main__
Mention
p301
(dp302
g7
S't4'
p303
sg9
S'Coreference-Identity'
p304
sg10
S'i21'
p305
sg12
S'i19'
p306
sg13
Nsg14
(lp307
(i__main__
Token
p308
(dp309
g18
I105
sbasg25
I105
sbasg7
g276
sg98
Nsba(i__main__
Chain
p310
(dp311
g3
(lp312
(i__main__
Mention
p313
(dp314
g7
S't5'
p315
sg9
Nsg10
S'i7'
p316
sg12
Nsg13
Nsg14
(lp317
(i__main__
Token
p318
(dp319
g18
I26
sbasg25
I26
sba(i__main__
Mention
p320
(dp321
g7
S't5'
p322
sg9
S'Coreference-Identity'
p323
sg10
S'i8'
p324
sg12
S'i7'
p325
sg13
Nsg14
(lp326
(i__main__
Token
p327
(dp328
g18
I30
sba(i__main__
Token
p329
(dp330
g18
I31
sbasg25
I31
sbasg7
g315
sg98
Nsba(i__main__
Chain
p331
(dp332
g3
(lp333
(i__main__
Mention
p334
(dp335
g7
S't6'
p336
sg9
Nsg10
S'i9'
p337
sg12
Nsg13
Nsg14
(lp338
(i__main__
Token
p339
(dp340
g18
I32
sba(i__main__
Token
p341
(dp342
g18
I33
sbasg25
I33
sba(i__main__
Mention
p343
(dp344
g7
S't6'
p345
sg9
S'Coreference-Identity'
p346
sg10
S'i25'
p347
sg12
S'i9'
p348
sg13
Nsg14
(lp349
(i__main__
Token
p350
(dp351
g18
I123
sba(i__main__
Token
p352
(dp353
g18
I124
sbasg25
I124
sbasg7
g336
sg98
Nsba(i__main__
Chain
p354
(dp355
g3
(lp356
(i__main__
Mention
p357
(dp358
g7
S't7'
p359
sg9
Nsg10
S'i10'
p360
sg12
Nsg13
Nsg14
(lp361
(i__main__
Token
p362
(dp363
g18
I45
sbasg25
I45
sba(i__main__
Mention
p364
(dp365
g7
S't7'
p366
sg9
S'Coreference-Identity'
p367
sg10
S'i13'
p368
sg12
S'i10'
p369
sg13
Nsg14
(lp370
(i__main__
Token
p371
(dp372
g18
I62
sba(i__main__
Token
p373
(dp374
g18
I63
sba(i__main__
Token
p375
(dp376
g18
I64
sbasg25
I64
sba(i__main__
Mention
p377
(dp378
g7
S't7'
p379
sg9
S'Anaphora-C'
p380
sg10
S'i15'
p381
sg12
S'i13'
p382
sg13
Nsg14
(lp383
(i__main__
Token
p384
(dp385
g18
I75
sbasg25
I75
sbasg7
g359
sg98
Nsba(i__main__
Chain
p386
(dp387
g3
(lp388
(i__main__
Mention
p389
(dp390
g7
S't8'
p391
sg9
S'anaphora-?'
p392
sg10
S'i12'
p393
sg12
S'i12'
p394
sg13
Nsg14
(lp395
(i__main__
Token
p396
(dp397
g18
I56
sbasg25
I56
sba(i__main__
Mention
p398
(dp399
g7
S't8'
p400
sg9
S'Anaphora-RC'
p401
sg10
S'i14'
p402
sg12
S'i12'
p403
sg13
Nsg14
(lp404
(i__main__
Token
p405
(dp406
g18
I62
sba(i__main__
Token
p407
(dp408
g18
I63
sba(i__main__
Token
p409
(dp410
g18
I64
sba(i__main__
Token
p411
(dp412
g18
I65
sba(i__main__
Token
p413
(dp414
g18
I66
sba(i__main__
Token
p415
(dp416
g18
I67
sba(i__main__
Token
p417
(dp418
g18
I68
sba(i__main__
Token
p419
(dp420
g18
I69
sbasg25
I69
sbasg7
g391
sg98
Nsba(i__main__
Chain
p421
(dp422
g3
(lp423
(i__main__
Mention
p424
(dp425
g7
S't9'
p426
sg9
Nsg10
S'i23'
p427
sg12
Nsg13
Nsg14
(lp428
(i__main__
Token
p429
(dp430
g18
I116
sba(i__main__
Token
p431
(dp432
g18
I117
sba(i__main__
Token
p433
(dp434
g18
I118
sbasg25
I118
sba(i__main__
Mention
p435
(dp436
g7
S't9'
p437
sg9
S'Anaphora-C'
p438
sg10
S'i24'
p439
sg12
S'i23'
p440
sg13
Nsg14
(lp441
(i__main__
Token
p442
(dp443
g18
I122
sbasg25
I122
sbasg7
g426
sg98
Nsba(i__main__
Chain
p444
(dp445
g3
(lp446
(i__main__
Mention
p447
(dp448
g7
S't10'
p449
sg9
Nsg10
S'i27'
p450
sg12
Nsg13
Nsg14
(lp451
(i__main__
Token
p452
(dp453
g18
I134
sba(i__main__
Token
p454
(dp455
g18
I135
sbasg25
I135
sba(i__main__
Mention
p456
(dp457
g7
S't10'
p458
sg9
S'Anaphora-C'
p459
sg10
S'i28'
p460
sg12
S'i27'
p461
sg13
Nsg14
(lp462
(i__main__
Token
p463
(dp464
g18
I144
sbasg25
I144
sbasg7
g449
sg98
Nsba(i__main__
Chain
p465
(dp466
g3
(lp467
(i__main__
Mention
p468
(dp469
g7
S't11'
p470
sg9
Nsg10
S'i30'
p471
sg12
Nsg13
Nsg14
(lp472
(i__main__
Token
p473
(dp474
g18
I149
sba(i__main__
Token
p475
(dp476
g18
I150
sba(i__main__
Token
p477
(dp478
g18
I151
sba(i__main__
Token
p479
(dp480
g18
I152
sba(i__main__
Token
p481
(dp482
g18
I153
sba(i__main__
Token
p483
(dp484
g18
I154
sba(i__main__
Token
p485
(dp486
g18
I155
sba(i__main__
Token
p487
(dp488
g18
I156
sbasg25
I156
sba(i__main__
Mention
p489
(dp490
g7
S't11'
p491
sg9
S'Anaphora-E'
p492
sg10
S'i36'
p493
sg12
S'i30'
p494
sg13
Nsg14
(lp495
(i__main__
Token
p496
(dp497
g18
I179
sbasg25
I179
sbasg7
g470
sg98
Nsba(i__main__
Chain
p498
(dp499
g3
(lp500
(i__main__
Mention
p501
(dp502
g7
S't12'
p503
sg9
S'anaphora-?'
p504
sg10
S'i31'
p505
sg12
S'i31'
p506
sg13
Nsg14
(lp507
(i__main__
Token
p508
(dp509
g18
I150
sbasg25
I150
sbasg7
g503
sg98
Nsba(i__main__
Chain
p510
(dp511
g3
(lp512
(i__main__
Mention
p513
(dp514
g7
S't13'
p515
sg9
Nsg10
S'i32'
p516
sg12
Nsg13
Nsg14
(lp517
(i__main__
Token
p518
(dp519
g18
I151
sba(i__main__
Token
p520
(dp521
g18
I152
sba(i__main__
Token
p522
(dp523
g18
I153
sba(i__main__
Token
p524
(dp525
g18
I154
sba(i__main__
Token
p526
(dp527
g18
I155
sbasg25
Nsba(i__main__
Mention
p528
(dp529
g7
S't13'
p530
sg9
S'Coreference-Identity'
p531
sg10
S'i34'
p532
sg12
S'i32'
p533
sg13
Nsg14
(lp534
(i__main__
Token
p535
(dp536
g18
I158
sba(i__main__
Token
p537
(dp538
g18
I159
sbasg25
I159
sbasg7
g515
sg98
Nsba(i__main__
Chain
p539
(dp540
g3
(lp541
(i__main__
Mention
p542
(dp543
g7
S't14'
p544
sg9
Nsg10
S'i33'
p545
sg12
Nsg13
Nsg14
(lp546
(i__main__
Token
p547
(dp548
g18
I154
sba(i__main__
Token
p549
(dp550
g18
I155
sbasg25
Nsba(i__main__
Mention
p551
(dp552
g7
S't14'
p553
sg9
S'Coreference-Identity'
p554
sg10
S'i35'
p555
sg12
S'i33'
p556
sg13
Nsg14
(lp557
(i__main__
Token
p558
(dp559
g18
I172
sba(i__main__
Token
p560
(dp561
g18
I173
sbasg25
I173
sbasg7
g544
sg98
Nsba(i__main__
Chain
p562
(dp563
g3
(lp564
(i__main__
Mention
p565
(dp566
g7
S't15'
p567
sg9
Nsg10
S'i37'
p568
sg12
Nsg13
Nsg14
(lp569
(i__main__
Token
p570
(dp571
g18
I181
sba(i__main__
Token
p572
(dp573
g18
I182
sba(i__main__
Token
p574
(dp575
g18
I183
sba(i__main__
Token
p576
(dp577
g18
I184
sba(i__main__
Token
p578
(dp579
g18
I185
sba(i__main__
Token
p580
(dp581
g18
I186
sba(i__main__
Token
p582
(dp583
g18
I187
sba(i__main__
Token
p584
(dp585
g18
I188
sba(i__main__
Token
p586
(dp587
g18
I189
sba(i__main__
Token
p588
(dp589
g18
I190
sba(i__main__
Token
p590
(dp591
g18
I191
sbasg25
I191
sba(i__main__
Mention
p592
(dp593
g7
S't15'
p594
sg9
S'Anaphora-E'
p595
sg10
S'i40'
p596
sg12
S'i37'
p597
sg13
Nsg14
(lp598
(i__main__
Token
p599
(dp600
g18
I203
sbasg25
I203
sbasg7
g567
sg98
Nsba(i__main__
Chain
p601
(dp602
g3
(lp603
(i__main__
Mention
p604
(dp605
g7
S't16'
p606
sg9
S'anaphora-?'
p607
sg10
S'i38'
p608
sg12
S'i38'
p609
sg13
Nsg14
(lp610
(i__main__
Token
p611
(dp612
g18
I185
sbasg25
I185
sbasg7
g606
sg98
Nsba(i__main__
Chain
p613
(dp614
g3
(lp615
(i__main__
Mention
p616
(dp617
g7
S't17'
p618
sg9
S'anaphora-?'
p619
sg10
S'i43'
p620
sg12
S'i43'
p621
sg13
Nsg14
(lp622
(i__main__
Token
p623
(dp624
g18
I233
sbasg25
I233
sbasg7
g618
sg98
Nsba(i__main__
Chain
p625
(dp626
g3
(lp627
(i__main__
Mention
p628
(dp629
g7
S't18'
p630
sg9
Nsg10
S'i45'
p631
sg12
Nsg13
Nsg14
(lp632
(i__main__
Token
p633
(dp634
g18
I235
sba(i__main__
Token
p635
(dp636
g18
I236
sbasg25
I236
sba(i__main__
Mention
p637
(dp638
g7
S't18'
p639
sg9
S'Anaphora-C'
p640
sg10
S'i46'
p641
sg12
S'i45'
p642
sg13
Nsg14
(lp643
(i__main__
Token
p644
(dp645
g18
I240
sbasg25
I240
sbasg7
g630
sg98
Nsba(i__main__
Chain
p646
(dp647
g3
(lp648
(i__main__
Mention
p649
(dp650
g7
S't19'
p651
sg9
S'anaphora-?'
p652
sg10
S'i49'
p653
sg12
S'i49'
p654
sg13
Nsg14
(lp655
(i__main__
Token
p656
(dp657
g18
I260
sbasg25
I260
sbasg7
g651
sg98
Nsba(i__main__
Chain
p658
(dp659
g3
(lp660
(i__main__
Mention
p661
(dp662
g7
S't20'
p663
sg9
Nsg10
S'i51'
p664
sg12
Nsg13
Nsg14
(lp665
(i__main__
Token
p666
(dp667
g18
I261
sba(i__main__
Token
p668
(dp669
g18
I262
sba(i__main__
Token
p670
(dp671
g18
I263
sba(i__main__
Token
p672
(dp673
g18
I264
sba(i__main__
Token
p674
(dp675
g18
I265
sba(i__main__
Token
p676
(dp677
g18
I266
sba(i__main__
Token
p678
(dp679
g18
I267
sba(i__main__
Token
p680
(dp681
g18
I268
sba(i__main__
Token
p682
(dp683
g18
I269
sba(i__main__
Token
p684
(dp685
g18
I270
sba(i__main__
Token
p686
(dp687
g18
I271
sbasg25
I271
sba(i__main__
Mention
p688
(dp689
g7
S't20'
p690
sg9
S'Anaphora-E'
p691
sg10
S'i62'
p692
sg12
S'i51'
p693
sg13
Nsg14
(lp694
(i__main__
Token
p695
(dp696
g18
I327
sbasg25
I327
sbasg7
g663
sg98
Nsba(i__main__
Chain
p697
(dp698
g3
(lp699
(i__main__
Mention
p700
(dp701
g7
S't21'
p702
sg9
Nsg10
S'i52'
p703
sg12
Nsg13
Nsg14
(lp704
(i__main__
Token
p705
(dp706
g18
I266
sba(i__main__
Token
p707
(dp708
g18
I267
sba(i__main__
Token
p709
(dp710
g18
I268
sba(i__main__
Token
p711
(dp712
g18
I269
sba(i__main__
Token
p713
(dp714
g18
I270
sbasg25
I266
sba(i__main__
Mention
p715
(dp716
g7
S't21'
p717
sg9
S'Coreference-Identity'
p718
sg10
S'i56'
p719
sg12
S'i52'
p720
sg13
Nsg14
(lp721
(i__main__
Token
p722
(dp723
g18
I289
sba(i__main__
Token
p724
(dp725
g18
I290
sba(i__main__
Token
p726
(dp727
g18
I291
sba(i__main__
Token
p728
(dp729
g18
I292
sba(i__main__
Token
p730
(dp731
g18
I293
sbasg25
I289
sba(i__main__
Mention
p732
(dp733
g7
S't21'
p734
sg9
S'Coreference-Identity'
p735
sg10
S'i57'
p736
sg12
S'i56'
p737
sg13
Nsg14
(lp738
(i__main__
Token
p739
(dp740
g18
I299
sba(i__main__
Token
p741
(dp742
g18
I300
sbasg25
I300
sba(i__main__
Mention
p743
(dp744
g7
S't21'
p745
sg9
S'Coreference-Identity'
p746
sg10
S'i58'
p747
sg12
S'i57'
p748
sg13
Nsg14
(lp749
(i__main__
Token
p750
(dp751
g18
I308
sba(i__main__
Token
p752
(dp753
g18
I309
sbasg25
I309
sbasg7
g702
sg98
Nsba(i__main__
Chain
p754
(dp755
g3
(lp756
(i__main__
Mention
p757
(dp758
g7
S't22'
p759
sg9
S'anaphora-?'
p760
sg10
S'i53'
p761
sg12
S'i53'
p762
sg13
Nsg14
(lp763
(i__main__
Token
p764
(dp765
g18
I274
sbasg25
I274
sbasg7
g759
sg98
Nsba(i__main__
Chain
p766
(dp767
g3
(lp768
(i__main__
Mention
p769
(dp770
g7
S't23'
p771
sg9
S'anaphora-?'
p772
sg10
S'i60'
p773
sg12
S'i60'
p774
sg13
Nsg14
(lp775
(i__main__
Token
p776
(dp777
g18
I311
sbasg25
I311
sbasg7
g771
sg98
Nsba(i__main__
Chain
p778
(dp779
g3
(lp780
(i__main__
Mention
p781
(dp782
g7
S't24'
p783
sg9
S'anaphora-?'
p784
sg10
S'i63'
p785
sg12
S'i63'
p786
sg13
Nsg14
(lp787
(i__main__
Token
p788
(dp789
g18
I355
sbasg25
I355
sbasg7
g783
sg98
Nsba.