(lp0
(i__main__
Chain
p1
(dp2
S'mentionList'
p3
(lp4
(i__main__
Mention
p5
(dp6
S'chainId'
p7
S't1'
p8
sS'relType'
p9
NsS'mentionId'
p10
S'i1'
p11
sS'antecedentId'
p12
NsS'crefMod'
p13
NsS'tokenList'
p14
(lp15
(i__main__
Token
p16
(dp17
S'tokenId'
p18
I3
sbasS'mentionHead'
p19
I3
sba(i__main__
Mention
p20
(dp21
g7
S't1'
p22
sg9
S'Anaphora-C'
p23
sg10
S'i2'
p24
sg12
S'i1'
p25
sg13
Nsg14
(lp26
(i__main__
Token
p27
(dp28
g18
I12
sbasg19
I12
sba(i__main__
Mention
p29
(dp30
g7
S't1'
p31
sg9
S'Coreference-Noun-Noun'
p32
sg10
S'i11'
p33
sg12
S'i2'
p34
sg13
Nsg14
(lp35
(i__main__
Token
p36
(dp37
g18
I39
sba(i__main__
Token
p38
(dp39
g18
I40
sbasg19
I40
sba(i__main__
Mention
p40
(dp41
g7
S't1'
p42
sg9
S'Coreference-NounComplement'
p43
sg10
S'i12'
p44
sg12
S'i11'
p45
sg13
Nsg14
(lp46
(i__main__
Token
p47
(dp48
g18
I41
sba(i__main__
Token
p49
(dp50
g18
I42
sbasg19
I42
sba(i__main__
Mention
p51
(dp52
g7
S't1'
p53
sg9
S'Coreference-Noun-Noun'
p54
sg10
S'i27'
p55
sg12
S'i12'
p56
sg13
Nsg14
(lp57
(i__main__
Token
p58
(dp59
g18
I129
sbasg19
I129
sbasg7
g8
sS'chainHead'
p60
Nsba(i__main__
Chain
p61
(dp62
g3
(lp63
(i__main__
Mention
p64
(dp65
g7
S't2'
p66
sg9
Nsg10
S'i3'
p67
sg12
Nsg13
Nsg14
(lp68
(i__main__
Token
p69
(dp70
g18
I17
sbasg19
I17
sba(i__main__
Mention
p71
(dp72
g7
S't2'
p73
sg9
S'Coreference-Identity'
p74
sg10
S'i33'
p75
sg12
S'i3'
p76
sg13
Nsg14
(lp77
(i__main__
Token
p78
(dp79
g18
I169
sbasg19
I169
sbasg7
g66
sg60
Nsba(i__main__
Chain
p80
(dp81
g3
(lp82
(i__main__
Mention
p83
(dp84
g7
S't3'
p85
sg9
Nsg10
S'i4'
p86
sg12
Nsg13
Nsg14
(lp87
(i__main__
Token
p88
(dp89
g18
I20
sbasg19
I20
sba(i__main__
Mention
p90
(dp91
g7
S't3'
p92
sg9
S'Coreference-Identity'
p93
sg10
S'i6'
p94
sg12
S'i4'
p95
sg13
Nsg14
(lp96
(i__main__
Token
p97
(dp98
g18
I28
sbasg19
I28
sba(i__main__
Mention
p99
(dp100
g7
S't3'
p101
sg9
S'Coreference-Identity'
p102
sg10
S'i15'
p103
sg12
S'i6'
p104
sg13
Nsg14
(lp105
(i__main__
Token
p106
(dp107
g18
I55
sbasg19
I55
sba(i__main__
Mention
p108
(dp109
g7
S't3'
p110
sg9
S'Coreference-Identity'
p111
sg10
S'i20'
p112
sg12
S'i15'
p113
sg13
Nsg14
(lp114
(i__main__
Token
p115
(dp116
g18
I81
sbasg19
I81
sba(i__main__
Mention
p117
(dp118
g7
S't3'
p119
sg9
S'Coreference-Identity'
p120
sg10
S'i21'
p121
sg12
S'i20'
p122
sg13
Nsg14
(lp123
(i__main__
Token
p124
(dp125
g18
I95
sbasg19
I95
sba(i__main__
Mention
p126
(dp127
g7
S't3'
p128
sg9
S'Coreference-Identity'
p129
sg10
S'i25'
p130
sg12
S'i21'
p131
sg13
Nsg14
(lp132
(i__main__
Token
p133
(dp134
g18
I118
sbasg19
I118
sbasg7
g85
sg60
Nsba(i__main__
Chain
p135
(dp136
g3
(lp137
(i__main__
Mention
p138
(dp139
g7
S't4'
p140
sg9
Nsg10
S'i5'
p141
sg12
Nsg13
Nsg14
(lp142
(i__main__
Token
p143
(dp144
g18
I23
sbasg19
I23
sba(i__main__
Mention
p145
(dp146
g7
S't4'
p147
sg9
S'Coreference-Identity'
p148
sg10
S'i16'
p149
sg12
S'i5'
p150
sg13
Nsg14
(lp151
(i__main__
Token
p152
(dp153
g18
I58
sbasg19
I58
sba(i__main__
Mention
p154
(dp155
g7
S't4'
p156
sg9
S'Coreference-Identity'
p157
sg10
S'i26'
p158
sg12
S'i16'
p159
sg13
Nsg14
(lp160
(i__main__
Token
p161
(dp162
g18
I120
sbasg19
I120
sba(i__main__
Mention
p163
(dp164
g7
S't4'
p165
sg9
S'Coreference-Identity'
p166
sg10
S'i32'
p167
sg12
S'i26'
p168
sg13
Nsg14
(lp169
(i__main__
Token
p170
(dp171
g18
I167
sbasg19
I167
sbasg7
g140
sg60
Nsba(i__main__
Chain
p172
(dp173
g3
(lp174
(i__main__
Mention
p175
(dp176
g7
S't5'
p177
sg9
Nsg10
S'i7'
p178
sg12
Nsg13
Nsg14
(lp179
(i__main__
Token
p180
(dp181
g18
I34
sbasg19
I34
sba(i__main__
Mention
p182
(dp183
g7
S't5'
p184
sg9
S'Coreference-NounComplement'
p185
sg10
S'i8'
p186
sg12
S'i7'
p187
sg13
Nsg14
(lp188
(i__main__
Token
p189
(dp190
g18
I35
sba(i__main__
Token
p191
(dp192
g18
I36
sbasg19
I36
sba(i__main__
Mention
p193
(dp194
g7
S't5'
p195
sg9
S'Anaphora-C'
p196
sg10
S'i14'
p197
sg12
S'i8'
p198
sg13
Nsg14
(lp199
(i__main__
Token
p200
(dp201
g18
I51
sbasg19
I51
sba(i__main__
Mention
p202
(dp203
g7
S't5'
p204
sg9
S'Coreference-Noun-Noun'
p205
sg10
S'i17'
p206
sg12
S'i14'
p207
sg13
Nsg14
(lp208
(i__main__
Token
p209
(dp210
g18
I64
sbasg19
I64
sba(i__main__
Mention
p211
(dp212
g7
S't5'
p213
sg9
S'Coreference-Identity'
p214
sg10
S'i23'
p215
sg12
S'i17'
p216
sg13
Nsg14
(lp217
(i__main__
Token
p218
(dp219
g18
I101
sbasg19
I101
sba(i__main__
Mention
p220
(dp221
g7
S't5'
p222
sg9
S'Anaphora-C'
p223
sg10
S'i24'
p224
sg12
S'i23'
p225
sg13
Nsg14
(lp226
(i__main__
Token
p227
(dp228
g18
I110
sbasg19
I110
sbasg7
g177
sg60
Nsba(i__main__
Chain
p229
(dp230
g3
(lp231
(i__main__
Mention
p232
(dp233
g7
S't6'
p234
sg9
Nsg10
S'i9'
p235
sg12
Nsg13
Nsg14
(lp236
(i__main__
Token
p237
(dp238
g18
I38
sbasg19
I38
sba(i__main__
Mention
p239
(dp240
g7
S't6'
p241
sg9
S'Anaphora-RT'
p242
sg10
S'i10'
p243
sg12
S'i9'
p244
sg13
Nsg14
(lp245
(i__main__
Token
p246
(dp247
g18
I39
sba(i__main__
Token
p248
(dp249
g18
I40
sba(i__main__
Token
p250
(dp251
g18
I41
sba(i__main__
Token
p252
(dp253
g18
I42
sba(i__main__
Token
p254
(dp255
g18
I43
sba(i__main__
Token
p256
(dp257
g18
I44
sba(i__main__
Token
p258
(dp259
g18
I45
sba(i__main__
Token
p260
(dp261
g18
I46
sba(i__main__
Token
p262
(dp263
g18
I47
sba(i__main__
Token
p264
(dp265
g18
I48
sba(i__main__
Token
p266
(dp267
g18
I49
sbasg19
I49
sbasg7
g234
sg60
Nsba(i__main__
Chain
p268
(dp269
g3
(lp270
(i__main__
Mention
p271
(dp272
g7
S't7'
p273
sg9
Nsg10
S'i13'
p274
sg12
Nsg13
Nsg14
(lp275
(i__main__
Token
p276
(dp277
g18
I50
sbasg19
I50
sbasg7
g273
sg60
Nsba(i__main__
Chain
p278
(dp279
g3
(lp280
(i__main__
Mention
p281
(dp282
g7
S't8'
p283
sg9
Nsg10
S'i18'
p284
sg12
Nsg13
Nsg14
(lp285
(i__main__
Token
p286
(dp287
g18
I69
sbasg19
I69
sbasg7
g283
sg60
Nsba(i__main__
Chain
p288
(dp289
g3
(lp290
(i__main__
Mention
p291
(dp292
g7
S't9'
p293
sg9
Nsg10
S'i19'
p294
sg12
Nsg13
Nsg14
(lp295
(i__main__
Token
p296
(dp297
g18
I71
sbasg19
I71
sba(i__main__
Mention
p298
(dp299
g7
S't9'
p300
sg9
S'Coreference-Identity'
p301
sg10
S'i22'
p302
sg12
S'i19'
p303
sg13
Nsg14
(lp304
(i__main__
Token
p305
(dp306
g18
I98
sba(i__main__
Token
p307
(dp308
g18
I99
sbasg19
I99
sbasg7
g293
sg60
Nsba(i__main__
Chain
p309
(dp310
g3
(lp311
(i__main__
Mention
p312
(dp313
g7
S't10'
p314
sg9
Nsg10
S'i28'
p315
sg12
Nsg13
Nsg14
(lp316
(i__main__
Token
p317
(dp318
g18
I131
sbasg19
I131
sba(i__main__
Mention
p319
(dp320
g7
S't10'
p321
sg9
S'Coreference-NounComplement'
p322
sg10
S'i29'
p323
sg12
S'i28'
p324
sg13
Nsg14
(lp325
(i__main__
Token
p326
(dp327
g18
I132
sba(i__main__
Token
p328
(dp329
g18
I133
sbasg19
I133
sbasg7
g314
sg60
Nsba(i__main__
Chain
p330
(dp331
g3
(lp332
(i__main__
Mention
p333
(dp334
g7
S't11'
p335
sg9
Nsg10
S'i30'
p336
sg12
Nsg13
Nsg14
(lp337
(i__main__
Token
p338
(dp339
g18
I135
sbasg19
I135
sba(i__main__
Mention
p340
(dp341
g7
S't11'
p342
sg9
S'Coreference-NounComplement'
p343
sg10
S'i31'
p344
sg12
S'i30'
p345
sg13
Nsg14
(lp346
(i__main__
Token
p347
(dp348
g18
I136
sba(i__main__
Token
p349
(dp350
g18
I137
sbasg19
I137
sbasg7
g335
sg60
Nsba.