(lp0
(i__main__
Chain
p1
(dp2
S'mentionList'
p3
(lp4
(i__main__
Mention
p5
(dp6
S'chainId'
p7
S't1'
p8
sS'relType'
p9
NsS'mentionId'
p10
S'i1'
p11
sS'antecedentId'
p12
NsS'crefMod'
p13
NsS'tokenList'
p14
(lp15
(i__main__
Token
p16
(dp17
S'tokenId'
p18
I0
sbasS'mentionHead'
p19
I0
sba(i__main__
Mention
p20
(dp21
g7
S't1'
p22
sg9
S'Coreference-Identity'
p23
sg10
S'i5'
p24
sg12
S'i1'
p25
sg13
Nsg14
(lp26
(i__main__
Token
p27
(dp28
g18
I6
sbasg19
I6
sba(i__main__
Mention
p29
(dp30
g7
S't1'
p31
sg9
S'Coreference-Identity'
p32
sg10
S'i11'
p33
sg12
S'i5'
p34
sg13
Nsg14
(lp35
(i__main__
Token
p36
(dp37
g18
I47
sbasg19
I47
sba(i__main__
Mention
p38
(dp39
g7
S't1'
p40
sg9
S'Coreference-Noun-Noun'
p41
sg10
S'i26'
p42
sg12
S'i11'
p43
sg13
Nsg14
(lp44
(i__main__
Token
p45
(dp46
g18
I178
sbasg19
I178
sba(i__main__
Mention
p47
(dp48
g7
S't1'
p49
sg9
S'Coreference-Identity'
p50
sg10
S'i28'
p51
sg12
S'i26'
p52
sg13
Nsg14
(lp53
(i__main__
Token
p54
(dp55
g18
I198
sbasg19
I198
sba(i__main__
Mention
p56
(dp57
g7
S't1'
p58
sg9
S'Coreference-Identity'
p59
sg10
S'i47'
p60
sg12
S'i28'
p61
sg13
Nsg14
(lp62
(i__main__
Token
p63
(dp64
g18
I290
sbasg19
I290
sba(i__main__
Mention
p65
(dp66
g7
S't1'
p67
sg9
S'Coreference-Identity'
p68
sg10
S'i63'
p69
sg12
S'i47'
p70
sg13
Nsg14
(lp71
(i__main__
Token
p72
(dp73
g18
I359
sbasg19
I359
sbasg7
g8
sS'chainHead'
p74
Nsba(i__main__
Chain
p75
(dp76
g3
(lp77
(i__main__
Mention
p78
(dp79
g7
S't2'
p80
sg9
Nsg10
S'i2'
p81
sg12
Nsg13
Nsg14
(lp82
(i__main__
Token
p83
(dp84
g18
I0
sba(i__main__
Token
p85
(dp86
g18
I1
sba(i__main__
Token
p87
(dp88
g18
I2
sba(i__main__
Token
p89
(dp90
g18
I3
sbasg19
I3
sba(i__main__
Mention
p91
(dp92
g7
S't2'
p93
sg9
Nsg10
S'i3'
p94
sg12
Nsg13
Nsg14
(lp95
(i__main__
Token
p96
(dp97
g18
I1
sbasg19
I1
sba(i__main__
Mention
p98
(dp99
g7
S't2'
p100
sg9
S'Coreference-Identity'
p101
sg10
S'i10'
p102
sg12
S'i3'
p103
sg13
Nsg14
(lp104
(i__main__
Token
p105
(dp106
g18
I47
sba(i__main__
Token
p107
(dp108
g18
I48
sbasg19
I48
sba(i__main__
Mention
p109
(dp110
g7
S't2'
p111
sg9
S'Coreference-Noun-Noun'
p112
sg10
S'i16'
p113
sg12
S'i10'
p114
sg13
Nsg14
(lp115
(i__main__
Token
p116
(dp117
g18
I104
sbasg19
I104
sba(i__main__
Mention
p118
(dp119
g7
S't2'
p120
sg9
S'Coreference-Noun-Noun'
p121
sg10
S'i22'
p122
sg12
S'i16'
p123
sg13
Nsg14
(lp124
(i__main__
Token
p125
(dp126
g18
I156
sbasg19
I156
sba(i__main__
Mention
p127
(dp128
g7
S't2'
p129
sg9
S'Coreference-Identity'
p130
sg10
S'i31'
p131
sg12
S'i22'
p132
sg13
Nsg14
(lp133
(i__main__
Token
p134
(dp135
g18
I217
sbasg19
I217
sbasg7
g80
sg74
Nsba(i__main__
Chain
p136
(dp137
g3
(lp138
(i__main__
Mention
p139
(dp140
g7
S't3'
p141
sg9
Nsg10
S'i4'
p142
sg12
Nsg13
Nsg14
(lp143
(i__main__
Token
p144
(dp145
g18
I4
sba(i__main__
Token
p146
(dp147
g18
I5
sba(i__main__
Token
p148
(dp149
g18
I6
sba(i__main__
Token
p150
(dp151
g18
I7
sbasg19
I7
sba(i__main__
Mention
p152
(dp153
g7
S't3'
p154
sg9
S'Coreference-Bracketed/Abbraviation'
p155
sg10
S'i6'
p156
sg12
S'i7'
p157
sg13
Nsg14
(lp158
(i__main__
Token
p159
(dp160
g18
I9
sbasg19
I9
sba(i__main__
Mention
p161
(dp162
g7
S't3'
p163
sg9
S'Coreference-Identity'
p164
sg10
S'i7'
p165
sg12
S'i6'
p166
sg13
Nsg14
(lp167
(i__main__
Token
p168
(dp169
g18
I30
sbasg19
I30
sba(i__main__
Mention
p170
(dp171
g7
S't3'
p172
sg9
S'Coreference-Noun-Noun'
p173
sg10
S'i13'
p174
sg12
S'i7'
p175
sg13
Nsg14
(lp176
(i__main__
Token
p177
(dp178
g18
I63
sbasg19
I63
sba(i__main__
Mention
p179
(dp180
g7
S't3'
p181
sg9
S'Coreference-Noun-Noun'
p182
sg10
S'i17'
p183
sg12
S'i13'
p184
sg13
Nsg14
(lp185
(i__main__
Token
p186
(dp187
g18
I110
sba(i__main__
Token
p188
(dp189
g18
I111
sbasg19
I111
sba(i__main__
Mention
p190
(dp191
g7
S't3'
p192
sg9
S'Coreference-Noun-Noun'
p193
sg10
S'i21'
p194
sg12
S'i17'
p195
sg13
Nsg14
(lp196
(i__main__
Token
p197
(dp198
g18
I148
sbasg19
I148
sba(i__main__
Mention
p199
(dp200
g7
S't3'
p201
sg9
S'Coreference-Noun-Noun'
p202
sg10
S'i24'
p203
sg12
S'i21'
p204
sg13
Nsg14
(lp205
(i__main__
Token
p206
(dp207
g18
I158
sbasg19
I158
sba(i__main__
Mention
p208
(dp209
g7
S't3'
p210
sg9
S'Coreference-Noun-Noun'
p211
sg10
S'i34'
p212
sg12
S'i24'
p213
sg13
Nsg14
(lp214
(i__main__
Token
p215
(dp216
g18
I236
sbasg19
I236
sba(i__main__
Mention
p217
(dp218
g7
S't3'
p219
sg9
S'Coreference-Identity'
p220
sg10
S'i38'
p221
sg12
S'i34'
p222
sg13
Nsg14
(lp223
(i__main__
Token
p224
(dp225
g18
I266
sbasg19
I266
sba(i__main__
Mention
p226
(dp227
g7
S't3'
p228
sg9
S'Coreference-Noun-Noun'
p229
sg10
S'i48'
p230
sg12
S'i38'
p231
sg13
Nsg14
(lp232
(i__main__
Token
p233
(dp234
g18
I294
sbasg19
I294
sba(i__main__
Mention
p235
(dp236
g7
S't3'
p237
sg9
S'Coreference-Noun-Noun'
p238
sg10
S'i49'
p239
sg12
S'i48'
p240
sg13
Nsg14
(lp241
(i__main__
Token
p242
(dp243
g18
I315
sbasg19
I315
sba(i__main__
Mention
p244
(dp245
g7
S't3'
p246
sg9
S'Coreference-Identity'
p247
sg10
S'i54'
p248
sg12
S'i49'
p249
sg13
Nsg14
(lp250
(i__main__
Token
p251
(dp252
g18
I334
sbasg19
I334
sbasg7
g141
sg74
Nsba(i__main__
Chain
p253
(dp254
g3
(lp255
(i__main__
Mention
p256
(dp257
g7
S't4'
p258
sg9
Nsg10
S'i8'
p259
sg12
Nsg13
Nsg14
(lp260
(i__main__
Token
p261
(dp262
g18
I32
sba(i__main__
Token
p263
(dp264
g18
I33
sba(i__main__
Token
p265
(dp266
g18
I34
sba(i__main__
Token
p267
(dp268
g18
I35
sba(i__main__
Token
p269
(dp270
g18
I36
sba(i__main__
Token
p271
(dp272
g18
I37
sbasg19
I37
sba(i__main__
Mention
p273
(dp274
g7
S't4'
p275
sg9
S'Anaphora-C'
p276
sg10
S'i9'
p277
sg12
S'i8'
p278
sg13
Nsg14
(lp279
(i__main__
Token
p280
(dp281
g18
I45
sbasg19
I45
sba(i__main__
Mention
p282
(dp283
g7
S't4'
p284
sg9
S'Coreference-Identity'
p285
sg10
S'i35'
p286
sg12
S'i9'
p287
sg13
Nsg14
(lp288
(i__main__
Token
p289
(dp290
g18
I238
sba(i__main__
Token
p291
(dp292
g18
I239
sba(i__main__
Token
p293
(dp294
g18
I240
sba(i__main__
Token
p295
(dp296
g18
I241
sbasg19
I241
sba(i__main__
Mention
p297
(dp298
g7
S't4'
p299
sg9
S'Anaphora-C'
p300
sg10
S'i37'
p301
sg12
S'i35'
p302
sg13
Nsg14
(lp303
(i__main__
Token
p304
(dp305
g18
I254
sbasg19
I254
sba(i__main__
Mention
p306
(dp307
g7
S't4'
p308
sg9
S'Coreference-Identity'
p309
sg10
S'i39'
p310
sg12
S'i37'
p311
sg13
Nsg14
(lp312
(i__main__
Token
p313
(dp314
g18
I268
sba(i__main__
Token
p315
(dp316
g18
I269
sbasg19
I269
sba(i__main__
Mention
p317
(dp318
g7
S't4'
p319
sg9
S'Coreference-Identity'
p320
sg10
S'i40'
p321
sg12
S'i39'
p322
sg13
Nsg14
(lp323
(i__main__
Token
p324
(dp325
g18
I274
sbasg19
I274
sbasg7
g258
sg74
Nsba(i__main__
Chain
p326
(dp327
g3
(lp328
(i__main__
Mention
p329
(dp330
g7
S't5'
p331
sg9
Nsg10
S'i12'
p332
sg12
Nsg13
Nsg14
(lp333
(i__main__
Token
p334
(dp335
g18
I49
sbasg19
I49
sba(i__main__
Mention
p336
(dp337
g7
S't5'
p338
sg9
S'Coreference-Identity'
p339
sg10
S'i14'
p340
sg12
S'i12'
p341
sg13
Nsg14
(lp342
(i__main__
Token
p343
(dp344
g18
I65
sbasg19
I65
sba(i__main__
Mention
p345
(dp346
g7
S't5'
p347
sg9
S'Coreference-Identity'
p348
sg10
S'i18'
p349
sg12
S'i14'
p350
sg13
Nsg14
(lp351
(i__main__
Token
p352
(dp353
g18
I113
sbasg19
I113
sba(i__main__
Mention
p354
(dp355
g7
S't5'
p356
sg9
S'Anaphora-C'
p357
sg10
S'i20'
p358
sg12
S'i18'
p359
sg13
Nsg14
(lp360
(i__main__
Token
p361
(dp362
g18
I121
sbasg19
I121
sbasg7
g331
sg74
Nsba(i__main__
Chain
p363
(dp364
g3
(lp365
(i__main__
Mention
p366
(dp367
g7
S't6'
p368
sg9
Nsg10
S'i15'
p369
sg12
Nsg13
Nsg14
(lp370
(i__main__
Token
p371
(dp372
g18
I90
sbasg19
I90
sbasg7
g368
sg74
Nsba(i__main__
Chain
p373
(dp374
g3
(lp375
(i__main__
Mention
p376
(dp377
g7
S't7'
p378
sg9
Nsg10
S'i19'
p379
sg12
Nsg13
Nsg14
(lp380
(i__main__
Token
p381
(dp382
g18
I115
sbasg19
I115
sbasg7
g378
sg74
Nsba(i__main__
Chain
p383
(dp384
g3
(lp385
(i__main__
Mention
p386
(dp387
g7
S't8'
p388
sg9
Nsg10
S'i23'
p389
sg12
Nsg13
Nsg14
(lp390
(i__main__
Token
p391
(dp392
g18
I157
sbasg19
I157
sbasg7
g388
sg74
Nsba(i__main__
Chain
p393
(dp394
g3
(lp395
(i__main__
Mention
p396
(dp397
g7
S't9'
p398
sg9
Nsg10
S'i25'
p399
sg12
Nsg13
Nsg14
(lp400
(i__main__
Token
p401
(dp402
g18
I175
sba(i__main__
Token
p403
(dp404
g18
I176
sbasg19
I176
sba(i__main__
Mention
p405
(dp406
g7
S't9'
p407
sg9
S'Anaphora-C'
p408
sg10
S'i27'
p409
sg12
S'i25'
p410
sg13
Nsg14
(lp411
(i__main__
Token
p412
(dp413
g18
I186
sbasg19
I186
sbasg7
g398
sg74
Nsba(i__main__
Chain
p414
(dp415
g3
(lp416
(i__main__
Mention
p417
(dp418
g7
S't10'
p419
sg9
Nsg10
S'i29'
p420
sg12
Nsg13
Nsg14
(lp421
(i__main__
Token
p422
(dp423
g18
I205
sba(i__main__
Token
p424
(dp425
g18
I206
sbasg19
I206
sba(i__main__
Mention
p426
(dp427
g7
S't10'
p428
sg9
S'Coreference-NounComplement'
p429
sg10
S'i30'
p430
sg12
S'i29'
p431
sg13
Nsg14
(lp432
(i__main__
Token
p433
(dp434
g18
I207
sbasg19
I207
sba(i__main__
Mention
p435
(dp436
g7
S't10'
p437
sg9
S'Anaphora-C'
p438
sg10
S'i33'
p439
sg12
S'i30'
p440
sg13
Nsg14
(lp441
(i__main__
Token
p442
(dp443
g18
I224
sbasg19
I224
sbasg7
g419
sg74
Nsba(i__main__
Chain
p444
(dp445
g3
(lp446
(i__main__
Mention
p447
(dp448
g7
S't11'
p449
sg9
Nsg10
S'i32'
p450
sg12
Nsg13
Nsg14
(lp451
(i__main__
Token
p452
(dp453
g18
I223
sbasg19
I223
sbasg7
g449
sg74
Nsba(i__main__
Chain
p454
(dp455
g3
(lp456
(i__main__
Mention
p457
(dp458
g7
S't12'
p459
sg9
Nsg10
S'i36'
p460
sg12
Nsg13
Nsg14
(lp461
(i__main__
Token
p462
(dp463
g18
I253
sbasg19
I253
sbasg7
g459
sg74
Nsba(i__main__
Chain
p464
(dp465
g3
(lp466
(i__main__
Mention
p467
(dp468
g7
S't13'
p469
sg9
Nsg10
S'i41'
p470
sg12
Nsg13
Nsg14
(lp471
(i__main__
Token
p472
(dp473
g18
I276
sbasg19
I276
sba(i__main__
Mention
p474
(dp475
g7
S't13'
p476
sg9
Nsg10
S'i58'
p477
sg12
Nsg13
Nsg14
(lp478
(i__main__
Token
p479
(dp480
g18
I349
sba(i__main__
Token
p481
(dp482
g18
I350
sbasg19
Nsbasg7
g469
sg74
Nsba(i__main__
Chain
p483
(dp484
g3
(lp485
(i__main__
Mention
p486
(dp487
g7
S't14'
p488
sg9
Nsg10
S'i42'
p489
sg12
Nsg13
Nsg14
(lp490
(i__main__
Token
p491
(dp492
g18
I278
sbasg19
I278
sba(i__main__
Mention
p493
(dp494
g7
S't14'
p495
sg9
Nsg10
S'i57'
p496
sg12
Nsg13
Nsg14
(lp497
(i__main__
Token
p498
(dp499
g18
I349
sba(i__main__
Token
p500
(dp501
g18
I350
sbasg19
Nsbasg7
g488
sg74
Nsba(i__main__
Chain
p502
(dp503
g3
(lp504
(i__main__
Mention
p505
(dp506
g7
S't15'
p507
sg9
Nsg10
S'i43'
p508
sg12
Nsg13
Nsg14
(lp509
(i__main__
Token
p510
(dp511
g18
I280
sbasg19
I280
sba(i__main__
Mention
p512
(dp513
g7
S't15'
p514
sg9
Nsg10
S'i59'
p515
sg12
Nsg13
Nsg14
(lp516
(i__main__
Token
p517
(dp518
g18
I349
sba(i__main__
Token
p519
(dp520
g18
I350
sbasg19
Nsbasg7
g507
sg74
Nsba(i__main__
Chain
p521
(dp522
g3
(lp523
(i__main__
Mention
p524
(dp525
g7
S't16'
p526
sg9
Nsg10
S'i44'
p527
sg12
Nsg13
Nsg14
(lp528
(i__main__
Token
p529
(dp530
g18
I282
sbasg19
I282
sba(i__main__
Mention
p531
(dp532
g7
S't16'
p533
sg9
Nsg10
S'i60'
p534
sg12
Nsg13
Nsg14
(lp535
(i__main__
Token
p536
(dp537
g18
I349
sba(i__main__
Token
p538
(dp539
g18
I350
sbasg19
Nsbasg7
g526
sg74
Nsba(i__main__
Chain
p540
(dp541
g3
(lp542
(i__main__
Mention
p543
(dp544
g7
S't17'
p545
sg9
Nsg10
S'i45'
p546
sg12
Nsg13
Nsg14
(lp547
(i__main__
Token
p548
(dp549
g18
I284
sbasg19
I284
sba(i__main__
Mention
p550
(dp551
g7
S't17'
p552
sg9
Nsg10
S'i61'
p553
sg12
Nsg13
Nsg14
(lp554
(i__main__
Token
p555
(dp556
g18
I349
sba(i__main__
Token
p557
(dp558
g18
I350
sbasg19
Nsbasg7
g545
sg74
Nsba(i__main__
Chain
p559
(dp560
g3
(lp561
(i__main__
Mention
p562
(dp563
g7
S't18'
p564
sg9
Nsg10
S'i46'
p565
sg12
Nsg13
Nsg14
(lp566
(i__main__
Token
p567
(dp568
g18
I286
sba(i__main__
Token
p569
(dp570
g18
I287
sba(i__main__
Token
p571
(dp572
g18
I288
sbasg19
I288
sba(i__main__
Mention
p573
(dp574
g7
S't18'
p575
sg9
S'Coreference-Identity'
p576
sg10
S'i62'
p577
sg12
S'i46'
p578
sg13
Nsg14
(lp579
(i__main__
Token
p580
(dp581
g18
I352
sba(i__main__
Token
p582
(dp583
g18
I353
sbasg19
I353
sbasg7
g564
sg74
Nsba(i__main__
Chain
p584
(dp585
g3
(lp586
(i__main__
Mention
p587
(dp588
g7
S't19'
p589
sg9
Nsg10
S'i50'
p590
sg12
Nsg13
Nsg14
(lp591
(i__main__
Token
p592
(dp593
g18
I317
sba(i__main__
Token
p594
(dp595
g18
I318
sbasg19
I318
sba(i__main__
Mention
p596
(dp597
g7
S't19'
p598
sg9
S'Coreference-Identity'
p599
sg10
S'i55'
p600
sg12
S'i50'
p601
sg13
Nsg14
(lp602
(i__main__
Token
p603
(dp604
g18
I336
sba(i__main__
Token
p605
(dp606
g18
I337
sbasg19
I337
sba(i__main__
Mention
p607
(dp608
g7
S't19'
p609
sg9
S'Coreference-Identity'
p610
sg10
S'i64'
p611
sg12
S'i55'
p612
sg13
Nsg14
(lp613
(i__main__
Token
p614
(dp615
g18
I361
sbasg19
I361
sbasg7
g589
sg74
Nsba(i__main__
Chain
p616
(dp617
g3
(lp618
(i__main__
Mention
p619
(dp620
g7
S't20'
p621
sg9
Nsg10
S'i51'
p622
sg12
Nsg13
Nsg14
(lp623
(i__main__
Token
p624
(dp625
g18
I320
sba(i__main__
Token
p626
(dp627
g18
I321
sbasg19
I321
sba(i__main__
Mention
p628
(dp629
g7
S't20'
p630
sg9
S'Coreference-Identity'
p631
sg10
S'i52'
p632
sg12
S'i51'
p633
sg13
Nsg14
(lp634
(i__main__
Token
p635
(dp636
g18
I329
sba(i__main__
Token
p637
(dp638
g18
I330
sbasg19
I330
sbasg7
g621
sg74
Nsba(i__main__
Chain
p639
(dp640
g3
(lp641
(i__main__
Mention
p642
(dp643
g7
S't21'
p644
sg9
Nsg10
S'i53'
p645
sg12
Nsg13
Nsg14
(lp646
(i__main__
Token
p647
(dp648
g18
I330
sba(i__main__
Token
p649
(dp650
g18
I331
sba(i__main__
Token
p651
(dp652
g18
I332
sba(i__main__
Token
p653
(dp654
g18
I333
sba(i__main__
Token
p655
(dp656
g18
I334
sba(i__main__
Token
p657
(dp658
g18
I335
sba(i__main__
Token
p659
(dp660
g18
I337
sba(i__main__
Token
p661
(dp662
g18
I338
sba(i__main__
Token
p663
(dp664
g18
I339
sba(i__main__
Token
p665
(dp666
g18
I340
sba(i__main__
Token
p667
(dp668
g18
I341
sba(i__main__
Token
p669
(dp670
g18
I342
sbasg19
I342
sba(i__main__
Mention
p671
(dp672
g7
S't21'
p673
sg9
S'Anaphora-E'
p674
sg10
S'i56'
p675
sg12
S'i53'
p676
sg13
Nsg14
(lp677
(i__main__
Token
p678
(dp679
g18
I344
sbasg19
I344
sbasg7
g644
sg74
Nsba.