(lp0
(i__main__
Chain
p1
(dp2
S'mentionList'
p3
(lp4
(i__main__
Mention
p5
(dp6
S'chainId'
p7
S't1'
p8
sS'relType'
p9
NsS'mentionId'
p10
S'i1'
p11
sS'antecedentId'
p12
NsS'crefMod'
p13
NsS'tokenList'
p14
(lp15
(i__main__
Token
p16
(dp17
S'tokenId'
p18
I0
sba(i__main__
Token
p19
(dp20
g18
I1
sba(i__main__
Token
p21
(dp22
g18
I2
sbasS'mentionHead'
p23
I2
sba(i__main__
Mention
p24
(dp25
g7
S't1'
p26
sg9
S'Coreference-Identity'
p27
sg10
S'i6'
p28
sg12
S'i1'
p29
sg13
Nsg14
(lp30
(i__main__
Token
p31
(dp32
g18
I32
sba(i__main__
Token
p33
(dp34
g18
I33
sbasg23
I33
sba(i__main__
Mention
p35
(dp36
g7
S't1'
p37
sg9
S'Coreference-Identity'
p38
sg10
S'i15'
p39
sg12
S'i6'
p40
sg13
Nsg14
(lp41
(i__main__
Token
p42
(dp43
g18
I63
sba(i__main__
Token
p44
(dp45
g18
I64
sbasg23
I64
sba(i__main__
Mention
p46
(dp47
g7
S't1'
p48
sg9
S'Coreference-Identity'
p49
sg10
S'i19'
p50
sg12
S'i15'
p51
sg13
Nsg14
(lp52
(i__main__
Token
p53
(dp54
g18
I79
sba(i__main__
Token
p55
(dp56
g18
I80
sbasg23
I80
sba(i__main__
Mention
p57
(dp58
g7
S't1'
p59
sg9
S'Coreference-Identity'
p60
sg10
S'i34'
p61
sg12
S'i19'
p62
sg13
Nsg14
(lp63
(i__main__
Token
p64
(dp65
g18
I182
sba(i__main__
Token
p66
(dp67
g18
I183
sbasg23
I183
sba(i__main__
Mention
p68
(dp69
g7
S't1'
p70
sg9
S'Anaphora-C'
p71
sg10
S'i35'
p72
sg12
S'i34'
p73
sg13
Nsg14
(lp74
(i__main__
Token
p75
(dp76
g18
I185
sbasg23
I185
sba(i__main__
Mention
p77
(dp78
g7
S't1'
p79
sg9
S'Coreference-Identity'
p80
sg10
S'i50'
p81
sg12
S'i35'
p82
sg13
Nsg14
(lp83
(i__main__
Token
p84
(dp85
g18
I269
sbasg23
I269
sba(i__main__
Mention
p86
(dp87
g7
S't1'
p88
sg9
S'Coreference-Identity'
p89
sg10
S'i56'
p90
sg12
S'i50'
p91
sg13
Nsg14
(lp92
(i__main__
Token
p93
(dp94
g18
I308
sba(i__main__
Token
p95
(dp96
g18
I309
sbasg23
I309
sba(i__main__
Mention
p97
(dp98
g7
S't1'
p99
sg9
S'Coreference-Identity'
p100
sg10
S'i57'
p101
sg12
S'i56'
p102
sg13
Nsg14
(lp103
(i__main__
Token
p104
(dp105
g18
I316
sba(i__main__
Token
p106
(dp107
g18
I317
sbasg23
I317
sba(i__main__
Mention
p108
(dp109
g7
S't1'
p110
sg9
S'Coreference-Identity'
p111
sg10
S'i66'
p112
sg12
S'i57'
p113
sg13
Nsg14
(lp114
(i__main__
Token
p115
(dp116
g18
I374
sba(i__main__
Token
p117
(dp118
g18
I375
sbasg23
I375
sba(i__main__
Mention
p119
(dp120
g7
S't1'
p121
sg9
S'Coreference-Identity'
p122
sg10
S'i69'
p123
sg12
S'i66'
p124
sg13
Nsg14
(lp125
(i__main__
Token
p126
(dp127
g18
I388
sba(i__main__
Token
p128
(dp129
g18
I389
sbasg23
I389
sba(i__main__
Mention
p130
(dp131
g7
S't1'
p132
sg9
S'Coreference-Identity'
p133
sg10
S'i77'
p134
sg12
S'i69'
p135
sg13
Nsg14
(lp136
(i__main__
Token
p137
(dp138
g18
I426
sba(i__main__
Token
p139
(dp140
g18
I427
sbasg23
I427
sba(i__main__
Mention
p141
(dp142
g7
S't1'
p143
sg9
S'Coreference-Identity'
p144
sg10
S'i82'
p145
sg12
S'i77'
p146
sg13
Nsg14
(lp147
(i__main__
Token
p148
(dp149
g18
I441
sba(i__main__
Token
p150
(dp151
g18
I442
sbasg23
I442
sbasg7
g8
sS'chainHead'
p152
Nsba(i__main__
Chain
p153
(dp154
g3
(lp155
(i__main__
Mention
p156
(dp157
g7
S't2'
p158
sg9
Nsg10
S'i2'
p159
sg12
Nsg13
Nsg14
(lp160
(i__main__
Token
p161
(dp162
g18
I4
sbasg23
I4
sba(i__main__
Mention
p163
(dp164
g7
S't2'
p165
sg9
S'Coreference-Identity'
p166
sg10
S'i13'
p167
sg12
S'i2'
p168
sg13
Nsg14
(lp169
(i__main__
Token
p170
(dp171
g18
I50
sbasg23
I50
sba(i__main__
Mention
p172
(dp173
g7
S't2'
p174
sg9
S'Coreference-Identity'
p175
sg10
S'i61'
p176
sg12
S'i13'
p177
sg13
Nsg14
(lp178
(i__main__
Token
p179
(dp180
g18
I352
sbasg23
I352
sba(i__main__
Mention
p181
(dp182
g7
S't2'
p183
sg9
S'Coreference-Identity'
p184
sg10
S'i79'
p185
sg12
S'i61'
p186
sg13
Nsg14
(lp187
(i__main__
Token
p188
(dp189
g18
I433
sbasg23
I433
sbasg7
g158
sg152
Nsba(i__main__
Chain
p190
(dp191
g3
(lp192
(i__main__
Mention
p193
(dp194
g7
S't3'
p195
sg9
Nsg10
S'i3'
p196
sg12
Nsg13
Nsg14
(lp197
(i__main__
Token
p198
(dp199
g18
I13
sba(i__main__
Token
p200
(dp201
g18
I14
sbasg23
I14
sba(i__main__
Mention
p202
(dp203
g7
S't3'
p204
sg9
S'Coreference-Identity'
p205
sg10
S'i7'
p206
sg12
S'i3'
p207
sg13
Nsg14
(lp208
(i__main__
Token
p209
(dp210
g18
I35
sba(i__main__
Token
p211
(dp212
g18
I36
sbasg23
I36
sba(i__main__
Mention
p213
(dp214
g7
S't3'
p215
sg9
S'Coreference-Identity'
p216
sg10
S'i36'
p217
sg12
S'i7'
p218
sg13
Nsg14
(lp219
(i__main__
Token
p220
(dp221
g18
I189
sba(i__main__
Token
p222
(dp223
g18
I190
sbasg23
I190
sba(i__main__
Mention
p224
(dp225
g7
S't3'
p226
sg9
S'Coreference-Identity'
p227
sg10
S'i52'
p228
sg12
S'i36'
p229
sg13
Nsg14
(lp230
(i__main__
Token
p231
(dp232
g18
I292
sba(i__main__
Token
p233
(dp234
g18
I293
sbasg23
I293
sbasg7
g195
sg152
Nsba(i__main__
Chain
p235
(dp236
g3
(lp237
(i__main__
Mention
p238
(dp239
g7
S't4'
p240
sg9
Nsg10
S'i4'
p241
sg12
Nsg13
Nsg14
(lp242
(i__main__
Token
p243
(dp244
g18
I16
sbasg23
I16
sba(i__main__
Mention
p245
(dp246
g7
S't4'
p247
sg9
S'Coreference-Identity'
p248
sg10
S'i8'
p249
sg12
S'i4'
p250
sg13
Nsg14
(lp251
(i__main__
Token
p252
(dp253
g18
I38
sbasg23
I38
sba(i__main__
Mention
p254
(dp255
g7
S't4'
p256
sg9
S'Coreference-Identity'
p257
sg10
S'i27'
p258
sg12
S'i8'
p259
sg13
Nsg14
(lp260
(i__main__
Token
p261
(dp262
g18
I132
sbasg23
I132
sba(i__main__
Mention
p263
(dp264
g7
S't4'
p265
sg9
S'Coreference-Identity'
p266
sg10
S'i33'
p267
sg12
S'i27'
p268
sg13
Nsg14
(lp269
(i__main__
Token
p270
(dp271
g18
I165
sbasg23
I165
sba(i__main__
Mention
p272
(dp273
g7
S't4'
p274
sg9
S'Coreference-Identity'
p275
sg10
S'i37'
p276
sg12
S'i33'
p277
sg13
Nsg14
(lp278
(i__main__
Token
p279
(dp280
g18
I192
sbasg23
I192
sba(i__main__
Mention
p281
(dp282
g7
S't4'
p283
sg9
S'Coreference-Identity'
p284
sg10
S'i43'
p285
sg12
S'i37'
p286
sg13
Nsg14
(lp287
(i__main__
Token
p288
(dp289
g18
I237
sbasg23
I237
sba(i__main__
Mention
p290
(dp291
g7
S't4'
p292
sg9
S'Coreference-Identity'
p293
sg10
S'i49'
p294
sg12
S'i43'
p295
sg13
Nsg14
(lp296
(i__main__
Token
p297
(dp298
g18
I261
sbasg23
I261
sba(i__main__
Mention
p299
(dp300
g7
S't4'
p301
sg9
S'Coreference-Identity'
p302
sg10
S'i51'
p303
sg12
S'i49'
p304
sg13
Nsg14
(lp305
(i__main__
Token
p306
(dp307
g18
I277
sbasg23
I277
sba(i__main__
Mention
p308
(dp309
g7
S't4'
p310
sg9
S'Coreference-Identity'
p311
sg10
S'i54'
p312
sg12
S'i51'
p313
sg13
Nsg14
(lp314
(i__main__
Token
p315
(dp316
g18
I297
sbasg23
I297
sba(i__main__
Mention
p317
(dp318
g7
S't4'
p319
sg9
S'Coreference-Identity'
p320
sg10
S'i58'
p321
sg12
S'i54'
p322
sg13
Nsg14
(lp323
(i__main__
Token
p324
(dp325
g18
I319
sbasg23
I319
sba(i__main__
Mention
p326
(dp327
g7
S't4'
p328
sg9
Nsg10
S'i71'
p329
sg12
Nsg13
Nsg14
(lp330
(i__main__
Token
p331
(dp332
g18
I403
sbasg23
Nsba(i__main__
Mention
p333
(dp334
g7
S't4'
p335
sg9
S'Coreference-Identity'
p336
sg10
S'i89'
p337
sg12
S'i71'
p338
sg13
Nsg14
(lp339
(i__main__
Token
p340
(dp341
g18
I461
sbasg23
I461
sbasg7
g240
sg152
Nsba(i__main__
Chain
p342
(dp343
g3
(lp344
(i__main__
Mention
p345
(dp346
g7
S't5'
p347
sg9
Nsg10
S'i5'
p348
sg12
Nsg13
Nsg14
(lp349
(i__main__
Token
p350
(dp351
g18
I18
sbasg23
I18
sba(i__main__
Mention
p352
(dp353
g7
S't5'
p354
sg9
S'Coreference-Identity'
p355
sg10
S'i44'
p356
sg12
S'i5'
p357
sg13
Nsg14
(lp358
(i__main__
Token
p359
(dp360
g18
I239
sbasg23
I239
sba(i__main__
Mention
p361
(dp362
g7
S't5'
p363
sg9
S'Coreference-Identity'
p364
sg10
S'i55'
p365
sg12
S'i44'
p366
sg13
Nsg14
(lp367
(i__main__
Token
p368
(dp369
g18
I299
sbasg23
I299
sba(i__main__
Mention
p370
(dp371
g7
S't5'
p372
sg9
S'Coreference-Identity'
p373
sg10
S'i59'
p374
sg12
S'i55'
p375
sg13
Nsg14
(lp376
(i__main__
Token
p377
(dp378
g18
I321
sbasg23
I321
sbasg7
g347
sg152
Nsba(i__main__
Chain
p379
(dp380
g3
(lp381
(i__main__
Mention
p382
(dp383
g7
S't6'
p384
sg9
Nsg10
S'i9'
p385
sg12
Nsg13
Nsg14
(lp386
(i__main__
Token
p387
(dp388
g18
I40
sbasg23
I40
sba(i__main__
Mention
p389
(dp390
g7
S't6'
p391
sg9
S'Coreference-Identity'
p392
sg10
S'i18'
p393
sg12
S'i9'
p394
sg13
Nsg14
(lp395
(i__main__
Token
p396
(dp397
g18
I75
sbasg23
I75
sba(i__main__
Mention
p398
(dp399
g7
S't6'
p400
sg9
S'Coreference-Identity'
p401
sg10
S'i41'
p402
sg12
S'i18'
p403
sg13
Nsg14
(lp404
(i__main__
Token
p405
(dp406
g18
I231
sbasg23
I231
sba(i__main__
Mention
p407
(dp408
g7
S't6'
p409
sg9
S'Coreference-Identity'
p410
sg10
S'i84'
p411
sg12
S'i41'
p412
sg13
Nsg14
(lp413
(i__main__
Token
p414
(dp415
g18
I447
sbasg23
I447
sba(i__main__
Mention
p416
(dp417
g7
S't6'
p418
sg9
S'Coreference-Identity'
p419
sg10
S'i91'
p420
sg12
S'i84'
p421
sg13
Nsg14
(lp422
(i__main__
Token
p423
(dp424
g18
I482
sba(i__main__
Token
p425
(dp426
g18
I483
sbasg23
I483
sbasg7
g384
sg152
Nsba(i__main__
Chain
p427
(dp428
g3
(lp429
(i__main__
Mention
p430
(dp431
g7
S't7'
p432
sg9
Nsg10
S'i10'
p433
sg12
Nsg13
Nsg14
(lp434
(i__main__
Token
p435
(dp436
g18
I44
sbasg23
I44
sba(i__main__
Mention
p437
(dp438
g7
S't7'
p439
sg9
S'Coreference-Identity'
p440
sg10
S'i38'
p441
sg12
S'i10'
p442
sg13
Nsg14
(lp443
(i__main__
Token
p444
(dp445
g18
I198
sbasg23
I198
sba(i__main__
Mention
p446
(dp447
g7
S't7'
p448
sg9
S'Coreference-Identity'
p449
sg10
S'i45'
p450
sg12
S'i38'
p451
sg13
Nsg14
(lp452
(i__main__
Token
p453
(dp454
g18
I245
sbasg23
I245
sba(i__main__
Mention
p455
(dp456
g7
S't7'
p457
sg9
S'Anaphora-C'
p458
sg10
S'i47'
p459
sg12
S'i45'
p460
sg13
Nsg14
(lp461
(i__main__
Token
p462
(dp463
g18
I258
sbasg23
I258
sba(i__main__
Mention
p464
(dp465
g7
S't7'
p466
sg9
S'Coreference-Identity'
p467
sg10
S'i53'
p468
sg12
S'i47'
p469
sg13
Nsg14
(lp470
(i__main__
Token
p471
(dp472
g18
I295
sbasg23
I295
sba(i__main__
Mention
p473
(dp474
g7
S't7'
p475
sg9
S'Coreference-Identity'
p476
sg10
S'i81'
p477
sg12
S'i53'
p478
sg13
Nsg14
(lp479
(i__main__
Token
p480
(dp481
g18
I435
sbasg23
I435
sbasg7
g432
sg152
Nsba(i__main__
Chain
p482
(dp483
g3
(lp484
(i__main__
Mention
p485
(dp486
g7
S't8'
p487
sg9
S'anaphora-?'
p488
sg10
S'i11'
p489
sg12
S'i11'
p490
sg13
Nsg14
(lp491
(i__main__
Token
p492
(dp493
g18
I49
sbasg23
I49
sba(i__main__
Mention
p494
(dp495
g7
S't8'
p496
sg9
S'Anaphora-RT'
p497
sg10
S'i12'
p498
sg12
S'i11'
p499
sg13
Nsg14
(lp500
(i__main__
Token
p501
(dp502
g18
I50
sba(i__main__
Token
p503
(dp504
g18
I51
sba(i__main__
Token
p505
(dp506
g18
I52
sba(i__main__
Token
p507
(dp508
g18
I53
sba(i__main__
Token
p509
(dp510
g18
I54
sba(i__main__
Token
p511
(dp512
g18
I55
sba(i__main__
Token
p513
(dp514
g18
I56
sba(i__main__
Token
p515
(dp516
g18
I57
sba(i__main__
Token
p517
(dp518
g18
I58
sba(i__main__
Token
p519
(dp520
g18
I59
sba(i__main__
Token
p521
(dp522
g18
I60
sba(i__main__
Token
p523
(dp524
g18
I61
sbasg23
I59
sbasg7
g487
sg152
Nsba(i__main__
Chain
p525
(dp526
g3
(lp527
(i__main__
Mention
p528
(dp529
g7
S't9'
p530
sg9
Nsg10
S'i14'
p531
sg12
Nsg13
Nsg14
(lp532
(i__main__
Token
p533
(dp534
g18
I50
sba(i__main__
Token
p535
(dp536
g18
I51
sbasg23
I51
sba(i__main__
Mention
p537
(dp538
g7
S't9'
p539
sg9
S'Coreference-Identity'
p540
sg10
S'i80'
p541
sg12
S'i14'
p542
sg13
Nsg14
(lp543
(i__main__
Token
p544
(dp545
g18
I433
sba(i__main__
Token
p546
(dp547
g18
I434
sbasg23
I434
sbasg7
g530
sg152
Nsba(i__main__
Chain
p548
(dp549
g3
(lp550
(i__main__
Mention
p551
(dp552
g7
S't10'
p553
sg9
Nsg10
S'i16'
p554
sg12
Nsg13
Nsg14
(lp555
(i__main__
Token
p556
(dp557
g18
I65
sbasg23
I65
sba(i__main__
Mention
p558
(dp559
g7
S't10'
p560
sg9
S'Coreference-Identity'
p561
sg10
S'i29'
p562
sg12
S'i16'
p563
sg13
Nsg14
(lp564
(i__main__
Token
p565
(dp566
g18
I144
sba(i__main__
Token
p567
(dp568
g18
I145
sbasg23
I145
sba(i__main__
Mention
p569
(dp570
g7
S't10'
p571
sg9
S'Coreference-Identity'
p572
sg10
S'i67'
p573
sg12
S'i29'
p574
sg13
Nsg14
(lp575
(i__main__
Token
p576
(dp577
g18
I377
sbasg23
I377
sba(i__main__
Mention
p578
(dp579
g7
S't10'
p580
sg9
S'Coreference-Identity'
p581
sg10
S'i76'
p582
sg12
S'i67'
p583
sg13
Nsg14
(lp584
(i__main__
Token
p585
(dp586
g18
I419
sbasg23
I419
sba(i__main__
Mention
p587
(dp588
g7
S't10'
p589
sg9
S'Coreference-Identity'
p590
sg10
S'i78'
p591
sg12
S'i76'
p592
sg13
Nsg14
(lp593
(i__main__
Token
p594
(dp595
g18
I428
sbasg23
I428
sbasg7
g553
sg152
Nsba(i__main__
Chain
p596
(dp597
g3
(lp598
(i__main__
Mention
p599
(dp600
g7
S't11'
p601
sg9
Nsg10
S'i17'
p602
sg12
Nsg13
Nsg14
(lp603
(i__main__
Token
p604
(dp605
g18
I72
sba(i__main__
Token
p606
(dp607
g18
I73
sbasg23
I73
sba(i__main__
Mention
p608
(dp609
g7
S't11'
p610
sg9
S'Coreference-Identity'
p611
sg10
S'i83'
p612
sg12
S'i17'
p613
sg13
Nsg14
(lp614
(i__main__
Token
p615
(dp616
g18
I444
sba(i__main__
Token
p617
(dp618
g18
I445
sbasg23
I445
sba(i__main__
Mention
p619
(dp620
g7
S't11'
p621
sg9
S'Coreference-Identity'
p622
sg10
S'i90'
p623
sg12
S'i83'
p624
sg13
Nsg14
(lp625
(i__main__
Token
p626
(dp627
g18
I478
sba(i__main__
Token
p628
(dp629
g18
I479
sbasg23
I479
sbasg7
g601
sg152
Nsba(i__main__
Chain
p630
(dp631
g3
(lp632
(i__main__
Mention
p633
(dp634
g7
S't12'
p635
sg9
S'anaphora-?'
p636
sg10
S'i20'
p637
sg12
S'i20'
p638
sg13
Nsg14
(lp639
(i__main__
Token
p640
(dp641
g18
I82
sbasg23
I82
sbasg7
g635
sg152
Nsba(i__main__
Chain
p642
(dp643
g3
(lp644
(i__main__
Mention
p645
(dp646
g7
S't13'
p647
sg9
Nsg10
S'i21'
p648
sg12
Nsg13
Nsg14
(lp649
(i__main__
Token
p650
(dp651
g18
I89
sba(i__main__
Token
p652
(dp653
g18
I90
sba(i__main__
Token
p654
(dp655
g18
I91
sba(i__main__
Token
p656
(dp657
g18
I92
sba(i__main__
Token
p658
(dp659
g18
I93
sba(i__main__
Token
p660
(dp661
g18
I94
sbasg23
I94
sba(i__main__
Mention
p662
(dp663
g7
S't13'
p664
sg9
S'Coreference-Identity'
p665
sg10
S'i23'
p666
sg12
S'i21'
p667
sg13
Nsg14
(lp668
(i__main__
Token
p669
(dp670
g18
I102
sba(i__main__
Token
p671
(dp672
g18
I103
sbasg23
I103
sbasg7
g647
sg152
Nsba(i__main__
Chain
p673
(dp674
g3
(lp675
(i__main__
Mention
p676
(dp677
g7
S't14'
p678
sg9
Nsg10
S'i22'
p679
sg12
Nsg13
Nsg14
(lp680
(i__main__
Token
p681
(dp682
g18
I97
sbasg23
I97
sba(i__main__
Mention
p683
(dp684
g7
S't14'
p685
sg9
S'Coreference-Identity'
p686
sg10
S'i24'
p687
sg12
S'i22'
p688
sg13
Nsg14
(lp689
(i__main__
Token
p690
(dp691
g18
I107
sbasg23
I107
sba(i__main__
Mention
p692
(dp693
g7
S't14'
p694
sg9
S'Coreference-Noun-Noun'
p695
sg10
S'i39'
p696
sg12
S'i24'
p697
sg13
Nsg14
(lp698
(i__main__
Token
p699
(dp700
g18
I206
sbasg23
I206
sba(i__main__
Mention
p701
(dp702
g7
S't14'
p703
sg9
S'Coreference-Identity'
p704
sg10
S'i68'
p705
sg12
S'i39'
p706
sg13
Nsg14
(lp707
(i__main__
Token
p708
(dp709
g18
I384
sbasg23
I384
sba(i__main__
Mention
p710
(dp711
g7
S't14'
p712
sg9
S'Coreference-Identity'
p713
sg10
S'i85'
p714
sg12
S'i68'
p715
sg13
Nsg14
(lp716
(i__main__
Token
p717
(dp718
g18
I452
sbasg23
I452
sbasg7
g678
sg152
Nsba(i__main__
Chain
p719
(dp720
g3
(lp721
(i__main__
Mention
p722
(dp723
g7
S't15'
p724
sg9
Nsg10
S'i25'
p725
sg12
Nsg13
Nsg14
(lp726
(i__main__
Token
p727
(dp728
g18
I113
sba(i__main__
Token
p729
(dp730
g18
I114
sbasg23
I114
sba(i__main__
Mention
p731
(dp732
g7
S't15'
p733
sg9
S'Coreference-Identity'
p734
sg10
S'i86'
p735
sg12
S'i25'
p736
sg13
Nsg14
(lp737
(i__main__
Token
p738
(dp739
g18
I457
sba(i__main__
Token
p740
(dp741
g18
I458
sbasg23
I458
sbasg7
g724
sg152
Nsba(i__main__
Chain
p742
(dp743
g3
(lp744
(i__main__
Mention
p745
(dp746
g7
S't16'
p747
sg9
Nsg10
S'i26'
p748
sg12
Nsg13
Nsg14
(lp749
(i__main__
Token
p750
(dp751
g18
I122
sba(i__main__
Token
p752
(dp753
g18
I123
sba(i__main__
Token
p754
(dp755
g18
I124
sbasg23
I124
sba(i__main__
Mention
p756
(dp757
g7
S't16'
p758
sg9
S'Coreference-Identity'
p759
sg10
S'i87'
p760
sg12
S'i89'
p761
sg13
Nsg14
(lp762
(i__main__
Token
p763
(dp764
g18
I460
sbasg23
I460
sbasg7
g747
sg152
Nsba(i__main__
Chain
p765
(dp766
g3
(lp767
(i__main__
Mention
p768
(dp769
g7
S't17'
p770
sg9
Nsg10
S'i28'
p771
sg12
Nsg13
Nsg14
(lp772
(i__main__
Token
p773
(dp774
g18
I144
sba(i__main__
Token
p775
(dp776
g18
I145
sba(i__main__
Token
p777
(dp778
g18
I146
sba(i__main__
Token
p779
(dp780
g18
I147
sba(i__main__
Token
p781
(dp782
g18
I148
sbasg23
I147
sba(i__main__
Mention
p783
(dp784
g7
S't17'
p785
sg9
S'Anaphora-E'
p786
sg10
S'i30'
p787
sg12
S'i28'
p788
sg13
Nsg14
(lp789
(i__main__
Token
p790
(dp791
g18
I150
sbasg23
I150
sbasg7
g770
sg152
Nsba(i__main__
Chain
p792
(dp793
g3
(lp794
(i__main__
Mention
p795
(dp796
g7
S't18'
p797
sg9
Nsg10
S'i32'
p798
sg12
Nsg13
Nsg14
(lp799
(i__main__
Token
p800
(dp801
g18
I162
sba(i__main__
Token
p802
(dp803
g18
I163
sbasg23
I163
sba(i__main__
Mention
p804
(dp805
g7
S't18'
p806
sg9
S'Coreference-Identity'
p807
sg10
S'i60'
p808
sg12
S'i32'
p809
sg13
Nsg14
(lp810
(i__main__
Token
p811
(dp812
g18
I349
sba(i__main__
Token
p813
(dp814
g18
I350
sbasg23
I350
sbasg7
g797
sg152
Nsba(i__main__
Chain
p815
(dp816
g3
(lp817
(i__main__
Mention
p818
(dp819
g7
S't19'
p820
sg9
Nsg10
S'i40'
p821
sg12
Nsg13
Nsg14
(lp822
(i__main__
Token
p823
(dp824
g18
I226
sba(i__main__
Token
p825
(dp826
g18
I227
sbasg23
I227
sba(i__main__
Mention
p827
(dp828
g7
S't19'
p829
sg9
S'Anaphora-C'
p830
sg10
S'i42'
p831
sg12
S'i40'
p832
sg13
Nsg14
(lp833
(i__main__
Token
p834
(dp835
g18
I234
sbasg23
I234
sbasg7
g820
sg152
Nsba(i__main__
Chain
p836
(dp837
g3
(lp838
(i__main__
Mention
p839
(dp840
g7
S't20'
p841
sg9
Nsg10
S'i46'
p842
sg12
Nsg13
Nsg14
(lp843
(i__main__
Token
p844
(dp845
g18
I252
sbasg23
I252
sba(i__main__
Mention
p846
(dp847
g7
S't20'
p848
sg9
S'Anaphora-RC'
p849
sg10
S'i48'
p850
sg12
S'i46'
p851
sg13
Nsg14
(lp852
(i__main__
Token
p853
(dp854
g18
I258
sba(i__main__
Token
p855
(dp856
g18
I259
sba(i__main__
Token
p857
(dp858
g18
I260
sba(i__main__
Token
p859
(dp860
g18
I261
sba(i__main__
Token
p861
(dp862
g18
I262
sba(i__main__
Token
p863
(dp864
g18
I263
sba(i__main__
Token
p865
(dp866
g18
I264
sba(i__main__
Token
p867
(dp868
g18
I265
sba(i__main__
Token
p869
(dp870
g18
I266
sbasg23
I266
sbasg7
g841
sg152
Nsba(i__main__
Chain
p871
(dp872
g3
(lp873
(i__main__
Mention
p874
(dp875
g7
S't21'
p876
sg9
Nsg10
S'i62'
p877
sg12
Nsg13
Nsg14
(lp878
(i__main__
Token
p879
(dp880
g18
I364
sba(i__main__
Token
p881
(dp882
g18
I365
sba(i__main__
Token
p883
(dp884
g18
I366
sbasg23
I366
sba(i__main__
Mention
p885
(dp886
g7
S't21'
p887
sg9
S'Anaphora-C'
p888
sg10
S'i64'
p889
sg12
S'i62'
p890
sg13
Nsg14
(lp891
(i__main__
Token
p892
(dp893
g18
I367
sbasg23
I367
sbasg7
g876
sg152
Nsba(i__main__
Chain
p894
(dp895
g3
(lp896
(i__main__
Mention
p897
(dp898
g7
S't22'
p899
sg9
S'anaphora-?'
p900
sg10
S'i63'
p901
sg12
S'i63'
p902
sg13
Nsg14
(lp903
(i__main__
Token
p904
(dp905
g18
I365
sbasg23
I365
sbasg7
g899
sg152
Nsba(i__main__
Chain
p906
(dp907
g3
(lp908
(i__main__
Mention
p909
(dp910
g7
S't23'
p911
sg9
Nsg10
S'i70'
p912
sg12
Nsg13
Nsg14
(lp913
(i__main__
Token
p914
(dp915
g18
I398
sba(i__main__
Token
p916
(dp917
g18
I399
sba(i__main__
Token
p918
(dp919
g18
I400
sba(i__main__
Token
p920
(dp921
g18
I401
sba(i__main__
Token
p922
(dp923
g18
I402
sba(i__main__
Token
p924
(dp925
g18
I403
sbasg23
Nsba(i__main__
Mention
p926
(dp927
g7
S't23'
p928
sg9
S'Anaphora-C'
p929
sg10
S'i73'
p930
sg12
S'i70'
p931
sg13
Nsg14
(lp932
(i__main__
Token
p933
(dp934
g18
I410
sbasg23
I410
sbasg7
g911
sg152
Nsba(i__main__
Chain
p935
(dp936
g3
(lp937
(i__main__
Mention
p938
(dp939
g7
S't24'
p940
sg9
Nsg10
S'i72'
p941
sg12
Nsg13
Nsg14
(lp942
(i__main__
Token
p943
(dp944
g18
I405
sbasg23
I405
sba(i__main__
Mention
p945
(dp946
g7
S't24'
p947
sg9
S'Coreference-Identity'
p948
sg10
S'i75'
p949
sg12
S'i72'
p950
sg13
Nsg14
(lp951
(i__main__
Token
p952
(dp953
g18
I411
sbasg23
I411
sbasg7
g940
sg152
Nsba.