(lp0
(i__main__
Chain
p1
(dp2
S'mentionList'
p3
(lp4
(i__main__
Mention
p5
(dp6
S'chainId'
p7
S't1'
p8
sS'relType'
p9
NsS'mentionId'
p10
S'i1'
p11
sS'antecedentId'
p12
NsS'crefMod'
p13
NsS'tokenList'
p14
(lp15
(i__main__
Token
p16
(dp17
S'tokenId'
p18
I0
sbasS'mentionHead'
p19
I0
sba(i__main__
Mention
p20
(dp21
g7
S't1'
p22
sg9
S'Coreference-Identity'
p23
sg10
S'i14'
p24
sg12
S'i1'
p25
sg13
Nsg14
(lp26
(i__main__
Token
p27
(dp28
g18
I76
sbasg19
I76
sba(i__main__
Mention
p29
(dp30
g7
S't1'
p31
sg9
S'Coreference-Identity'
p32
sg10
S'i33'
p33
sg12
S'i14'
p34
sg13
Nsg14
(lp35
(i__main__
Token
p36
(dp37
g18
I181
sbasg19
I181
sbasg7
g8
sS'chainHead'
p38
Nsba(i__main__
Chain
p39
(dp40
g3
(lp41
(i__main__
Mention
p42
(dp43
g7
S't2'
p44
sg9
Nsg10
S'i2'
p45
sg12
Nsg13
Nsg14
(lp46
(i__main__
Token
p47
(dp48
g18
I2
sbasg19
I2
sba(i__main__
Mention
p49
(dp50
g7
S't2'
p51
sg9
S'Coreference-Identity'
p52
sg10
S'i10'
p53
sg12
S'i2'
p54
sg13
Nsg14
(lp55
(i__main__
Token
p56
(dp57
g18
I40
sbasg19
I40
sbasg7
g44
sg38
Nsba(i__main__
Chain
p58
(dp59
g3
(lp60
(i__main__
Mention
p61
(dp62
g7
S't3'
p63
sg9
Nsg10
S'i3'
p64
sg12
Nsg13
Nsg14
(lp65
(i__main__
Token
p66
(dp67
g18
I8
sba(i__main__
Token
p68
(dp69
g18
I9
sbasg19
I9
sba(i__main__
Mention
p70
(dp71
g7
S't3'
p72
sg9
S'Coreference-Identity'
p73
sg10
S'i22'
p74
sg12
S'i3'
p75
sg13
Nsg14
(lp76
(i__main__
Token
p77
(dp78
g18
I110
sba(i__main__
Token
p79
(dp80
g18
I111
sbasg19
I111
sba(i__main__
Mention
p81
(dp82
g7
S't3'
p83
sg9
S'Coreference-Identity'
p84
sg10
S'i30'
p85
sg12
S'i22'
p86
sg13
Nsg14
(lp87
(i__main__
Token
p88
(dp89
g18
I170
sba(i__main__
Token
p90
(dp91
g18
I171
sbasg19
I171
sbasg7
g63
sg38
Nsba(i__main__
Chain
p92
(dp93
g3
(lp94
(i__main__
Mention
p95
(dp96
g7
S't4'
p97
sg9
Nsg10
S'i4'
p98
sg12
Nsg13
Nsg14
(lp99
(i__main__
Token
p100
(dp101
g18
I11
sba(i__main__
Token
p102
(dp103
g18
I12
sba(i__main__
Token
p104
(dp105
g18
I13
sbasg19
I13
sba(i__main__
Mention
p106
(dp107
g7
S't4'
p108
sg9
Nsg10
S'i7'
p109
sg12
Nsg13
Nsg14
(lp110
(i__main__
Token
p111
(dp112
g18
I25
sba(i__main__
Token
p113
(dp114
g18
I26
sbasg19
Nsba(i__main__
Mention
p115
(dp116
g7
S't4'
p117
sg9
Nsg10
S'i8'
p118
sg12
Nsg13
Nsg14
(lp119
(i__main__
Token
p120
(dp121
g18
I25
sba(i__main__
Token
p122
(dp123
g18
I26
sbasg19
Nsba(i__main__
Mention
p124
(dp125
g7
S't4'
p126
sg9
S'Coreference-Identity'
p127
sg10
S'i11'
p128
sg12
S'i8'
p129
sg13
Nsg14
(lp130
(i__main__
Token
p131
(dp132
g18
I50
sba(i__main__
Token
p133
(dp134
g18
I51
sbasg19
I51
sba(i__main__
Mention
p135
(dp136
g7
S't4'
p137
sg9
S'Coreference-Identity'
p138
sg10
S'i18'
p139
sg12
S'i11'
p140
sg13
Nsg14
(lp141
(i__main__
Token
p142
(dp143
g18
I93
sbasg19
I93
sba(i__main__
Mention
p144
(dp145
g7
S't4'
p146
sg9
S'Coreference-Identity'
p147
sg10
S'i23'
p148
sg12
S'i18'
p149
sg13
Nsg14
(lp150
(i__main__
Token
p151
(dp152
g18
I113
sba(i__main__
Token
p153
(dp154
g18
I114
sbasg19
I114
sba(i__main__
Mention
p155
(dp156
g7
S't4'
p157
sg9
S'Coreference-Identity'
p158
sg10
S'i31'
p159
sg12
S'i23'
p160
sg13
Nsg14
(lp161
(i__main__
Token
p162
(dp163
g18
I172
sba(i__main__
Token
p164
(dp165
g18
I173
sbasg19
I173
sbasg7
g97
sg38
Nsba(i__main__
Chain
p166
(dp167
g3
(lp168
(i__main__
Mention
p169
(dp170
g7
S't5'
p171
sg9
Nsg10
S'i5'
p172
sg12
Nsg13
Nsg14
(lp173
(i__main__
Token
p174
(dp175
g18
I15
sba(i__main__
Token
p176
(dp177
g18
I16
sbasg19
I16
sba(i__main__
Mention
p178
(dp179
g7
S't5'
p180
sg9
S'Coreference-Identity'
p181
sg10
S'i12'
p182
sg12
S'i5'
p183
sg13
Nsg14
(lp184
(i__main__
Token
p185
(dp186
g18
I53
sba(i__main__
Token
p187
(dp188
g18
I54
sbasg19
I54
sba(i__main__
Mention
p189
(dp190
g7
S't5'
p191
sg9
S'Coreference-Noun-Noun'
p192
sg10
S'i13'
p193
sg12
S'i12'
p194
sg13
Nsg14
(lp195
(i__main__
Token
p196
(dp197
g18
I63
sbasg19
I63
sbasg7
g171
sg38
Nsba(i__main__
Chain
p198
(dp199
g3
(lp200
(i__main__
Mention
p201
(dp202
g7
S't6'
p203
sg9
Nsg10
S'i6'
p204
sg12
Nsg13
Nsg14
(lp205
(i__main__
Token
p206
(dp207
g18
I20
sba(i__main__
Token
p208
(dp209
g18
I21
sba(i__main__
Token
p210
(dp211
g18
I22
sba(i__main__
Token
p212
(dp213
g18
I23
sbasg19
I23
sba(i__main__
Mention
p214
(dp215
g7
S't6'
p216
sg9
S'Coreference-Identity'
p217
sg10
S'i17'
p218
sg12
S'i6'
p219
sg13
Nsg14
(lp220
(i__main__
Token
p221
(dp222
g18
I86
sba(i__main__
Token
p223
(dp224
g18
I87
sbasg19
I87
sba(i__main__
Mention
p225
(dp226
g7
S't6'
p227
sg9
S'Coreference-Identity'
p228
sg10
S'i21'
p229
sg12
S'i17'
p230
sg13
Nsg14
(lp231
(i__main__
Token
p232
(dp233
g18
I106
sba(i__main__
Token
p234
(dp235
g18
I107
sbasg19
I107
sba(i__main__
Mention
p236
(dp237
g7
S't6'
p238
sg9
S'Coreference-Identity'
p239
sg10
S'i26'
p240
sg12
S'i21'
p241
sg13
Nsg14
(lp242
(i__main__
Token
p243
(dp244
g18
I131
sba(i__main__
Token
p245
(dp246
g18
I132
sbasg19
I132
sba(i__main__
Mention
p247
(dp248
g7
S't6'
p249
sg9
S'Coreference-Identity'
p250
sg10
S'i28'
p251
sg12
S'i26'
p252
sg13
Nsg14
(lp253
(i__main__
Token
p254
(dp255
g18
I155
sba(i__main__
Token
p256
(dp257
g18
I156
sba(i__main__
Token
p258
(dp259
g18
I157
sba(i__main__
Token
p260
(dp261
g18
I158
sbasg19
I158
sbasg7
g203
sg38
Nsba(i__main__
Chain
p262
(dp263
g3
(lp264
(i__main__
Mention
p265
(dp266
g7
S't7'
p267
sg9
Nsg10
S'i9'
p268
sg12
Nsg13
Nsg14
(lp269
(i__main__
Token
p270
(dp271
g18
I27
sba(i__main__
Token
p272
(dp273
g18
I28
sba(i__main__
Token
p274
(dp275
g18
I29
sba(i__main__
Token
p276
(dp277
g18
I30
sba(i__main__
Token
p278
(dp279
g18
I31
sba(i__main__
Token
p280
(dp281
g18
I32
sbasg19
I32
sba(i__main__
Mention
p282
(dp283
g7
S't7'
p284
sg9
S'Coreference-Identity'
p285
sg10
S'i29'
p286
sg12
S'i9'
p287
sg13
Nsg14
(lp288
(i__main__
Token
p289
(dp290
g18
I164
sba(i__main__
Token
p291
(dp292
g18
I165
sbasg19
I165
sba(i__main__
Mention
p293
(dp294
g7
S't7'
p295
sg9
S'Coreference-Identity'
p296
sg10
S'i32'
p297
sg12
S'i29'
p298
sg13
Nsg14
(lp299
(i__main__
Token
p300
(dp301
g18
I179
sbasg19
I179
sba(i__main__
Mention
p302
(dp303
g7
S't7'
p304
sg9
S'Coreference-Identity'
p305
sg10
S'i40'
p306
sg12
S'i32'
p307
sg13
Nsg14
(lp308
(i__main__
Token
p309
(dp310
g18
I213
sbasg19
I213
sbasg7
g267
sg38
Nsba(i__main__
Chain
p311
(dp312
g3
(lp313
(i__main__
Mention
p314
(dp315
g7
S't8'
p316
sg9
Nsg10
S'i15'
p317
sg12
Nsg13
Nsg14
(lp318
(i__main__
Token
p319
(dp320
g18
I78
sbasg19
I78
sba(i__main__
Mention
p321
(dp322
g7
S't8'
p323
sg9
S'Coreference-NounComplement'
p324
sg10
S'i16'
p325
sg12
S'i15'
p326
sg13
Nsg14
(lp327
(i__main__
Token
p328
(dp329
g18
I79
sba(i__main__
Token
p330
(dp331
g18
I80
sbasg19
I80
sbasg7
g316
sg38
Nsba(i__main__
Chain
p332
(dp333
g3
(lp334
(i__main__
Mention
p335
(dp336
g7
S't9'
p337
sg9
Nsg10
S'i19'
p338
sg12
Nsg13
Nsg14
(lp339
(i__main__
Token
p340
(dp341
g18
I95
sbasg19
I95
sba(i__main__
Mention
p342
(dp343
g7
S't9'
p344
sg9
S'Anaphora-C'
p345
sg10
S'i20'
p346
sg12
S'i19'
p347
sg13
Nsg14
(lp348
(i__main__
Token
p349
(dp350
g18
I99
sbasg19
I99
sbasg7
g337
sg38
Nsba(i__main__
Chain
p351
(dp352
g3
(lp353
(i__main__
Mention
p354
(dp355
g7
S't10'
p356
sg9
Nsg10
S'i24'
p357
sg12
Nsg13
Nsg14
(lp358
(i__main__
Token
p359
(dp360
g18
I123
sbasg19
I123
sba(i__main__
Mention
p361
(dp362
g7
S't10'
p363
sg9
S'Coreference-Noun-Noun'
p364
sg10
S'i27'
p365
sg12
S'i24'
p366
sg13
Nsg14
(lp367
(i__main__
Token
p368
(dp369
g18
I139
sba(i__main__
Token
p370
(dp371
g18
I140
sbasg19
I140
sbasg7
g356
sg38
Nsba(i__main__
Chain
p372
(dp373
g3
(lp374
(i__main__
Mention
p375
(dp376
g7
S't11'
p377
sg9
S'anaphora-?'
p378
sg10
S'i25'
p379
sg12
S'i25'
p380
sg13
Nsg14
(lp381
(i__main__
Token
p382
(dp383
g18
I127
sbasg19
I127
sbasg7
g377
sg38
Nsba(i__main__
Chain
p384
(dp385
g3
(lp386
(i__main__
Mention
p387
(dp388
g7
S't12'
p389
sg9
Nsg10
S'i34'
p390
sg12
Nsg13
Nsg14
(lp391
(i__main__
Token
p392
(dp393
g18
I183
sba(i__main__
Token
p394
(dp395
g18
I184
sbasg19
I184
sba(i__main__
Mention
p396
(dp397
g7
S't12'
p398
sg9
S'Coreference-NounComplement'
p399
sg10
S'i35'
p400
sg12
S'i34'
p401
sg13
Nsg14
(lp402
(i__main__
Token
p403
(dp404
g18
I185
sba(i__main__
Token
p405
(dp406
g18
I186
sbasg19
I186
sba(i__main__
Mention
p407
(dp408
g7
S't12'
p409
sg9
S'Coreference-Identity'
p410
sg10
S'i38'
p411
sg12
S'i35'
p412
sg13
Nsg14
(lp413
(i__main__
Token
p414
(dp415
g18
I199
sbasg19
I199
sba(i__main__
Mention
p416
(dp417
g7
S't12'
p418
sg9
S'Anaphora-C'
p419
sg10
S'i39'
p420
sg12
S'i38'
p421
sg13
Nsg14
(lp422
(i__main__
Token
p423
(dp424
g18
I204
sbasg19
I204
sbasg7
g389
sg38
Nsba(i__main__
Chain
p425
(dp426
g3
(lp427
(i__main__
Mention
p428
(dp429
g7
S't13'
p430
sg9
Nsg10
S'i36'
p431
sg12
Nsg13
Nsg14
(lp432
(i__main__
Token
p433
(dp434
g18
I189
sba(i__main__
Token
p435
(dp436
g18
I190
sbasg19
I190
sba(i__main__
Mention
p437
(dp438
g7
S't13'
p439
sg9
S'Coreference-Identity'
p440
sg10
S'i37'
p441
sg12
S'i36'
p442
sg13
Nsg14
(lp443
(i__main__
Token
p444
(dp445
g18
I196
sba(i__main__
Token
p446
(dp447
g18
I197
sbasg19
I197
sbasg7
g430
sg38
Nsba.