(lp0
(i__main__
Chain
p1
(dp2
S'mentionList'
p3
(lp4
(i__main__
Mention
p5
(dp6
S'chainId'
p7
S't1'
p8
sS'relType'
p9
NsS'mentionId'
p10
S'i1'
p11
sS'antecedentId'
p12
NsS'crefMod'
p13
NsS'tokenList'
p14
(lp15
(i__main__
Token
p16
(dp17
S'tokenId'
p18
I0
sba(i__main__
Token
p19
(dp20
g18
I1
sba(i__main__
Token
p21
(dp22
g18
I2
sbasS'mentionHead'
p23
I2
sba(i__main__
Mention
p24
(dp25
g7
S't1'
p26
sg9
S'Coreference-Abbreviation'
p27
sg10
S'i3'
p28
sg12
S'i1'
p29
sg13
Nsg14
(lp30
(i__main__
Token
p31
(dp32
g18
I4
sbasg23
I4
sba(i__main__
Mention
p33
(dp34
g7
S't1'
p35
sg9
S'Coreference-Noun-Noun'
p36
sg10
S'i14'
p37
sg12
S'i3'
p38
sg13
Nsg14
(lp39
(i__main__
Token
p40
(dp41
g18
I54
sbasg23
I54
sba(i__main__
Mention
p42
(dp43
g7
S't1'
p44
sg9
S'Coreference-Identity'
p45
sg10
S'i35'
p46
sg12
S'i14'
p47
sg13
Nsg14
(lp48
(i__main__
Token
p49
(dp50
g18
I145
sbasg23
I145
sbasg7
g8
sS'chainHead'
p51
Nsba(i__main__
Chain
p52
(dp53
g3
(lp54
(i__main__
Mention
p55
(dp56
g7
S't2'
p57
sg9
Nsg10
S'i2'
p58
sg12
Nsg13
Nsg14
(lp59
(i__main__
Token
p60
(dp61
g18
I0
sba(i__main__
Token
p62
(dp63
g18
I1
sba(i__main__
Token
p64
(dp65
g18
I2
sba(i__main__
Token
p66
(dp67
g18
I6
sbasg23
I6
sba(i__main__
Mention
p68
(dp69
g7
S't2'
p70
sg9
S'Coreference-NounComplement'
p71
sg10
S'i4'
p72
sg12
S'i2'
p73
sg13
Nsg14
(lp74
(i__main__
Token
p75
(dp76
g18
I7
sba(i__main__
Token
p77
(dp78
g18
I8
sba(i__main__
Token
p79
(dp80
g18
I9
sbasg23
I9
sba(i__main__
Mention
p81
(dp82
g7
S't2'
p83
sg9
S'Anaphora-C'
p84
sg10
S'i12'
p85
sg12
S'i4'
p86
sg13
Nsg14
(lp87
(i__main__
Token
p88
(dp89
g18
I50
sbasg23
I50
sba(i__main__
Mention
p90
(dp91
g7
S't2'
p92
sg9
S'Anaphora-C'
p93
sg10
S'i13'
p94
sg12
S'i12'
p95
sg13
Nsg14
(lp96
(i__main__
Token
p97
(dp98
g18
I53
sbasg23
I53
sba(i__main__
Mention
p99
(dp100
g7
S't2'
p101
sg9
S'Coreference-Identity'
p102
sg10
S'i19'
p103
sg12
S'i13'
p104
sg13
Nsg14
(lp105
(i__main__
Token
p106
(dp107
g18
I87
sba(i__main__
Token
p108
(dp109
g18
I88
sbasg23
I88
sba(i__main__
Mention
p110
(dp111
g7
S't2'
p112
sg9
S'Anaphora-C'
p113
sg10
S'i22'
p114
sg12
S'i19'
p115
sg13
Nsg14
(lp116
(i__main__
Token
p117
(dp118
g18
I97
sbasg23
I97
sba(i__main__
Mention
p119
(dp120
g7
S't2'
p121
sg9
S'Anaphora-C'
p122
sg10
S'i23'
p123
sg12
S'i22'
p124
sg13
Nsg14
(lp125
(i__main__
Token
p126
(dp127
g18
I98
sbasg23
I98
sba(i__main__
Mention
p128
(dp129
g7
S't2'
p130
sg9
S'Coreference-Identity'
p131
sg10
S'i27'
p132
sg12
S'i23'
p133
sg13
Nsg14
(lp134
(i__main__
Token
p135
(dp136
g18
I121
sbasg23
I121
sba(i__main__
Mention
p137
(dp138
g7
S't2'
p139
sg9
S'Anaphora-C'
p140
sg10
S'i34'
p141
sg12
S'i27'
p142
sg13
Nsg14
(lp143
(i__main__
Token
p144
(dp145
g18
I144
sbasg23
I144
sba(i__main__
Mention
p146
(dp147
g7
S't2'
p148
sg9
S'Coreference-Identity'
p149
sg10
S'i37'
p150
sg12
S'i34'
p151
sg13
Nsg14
(lp152
(i__main__
Token
p153
(dp154
g18
I155
sbasg23
I155
sba(i__main__
Mention
p155
(dp156
g7
S't2'
p157
sg9
S'Coreference-Identity'
p158
sg10
S'i38'
p159
sg12
S'i37'
p160
sg13
Nsg14
(lp161
(i__main__
Token
p162
(dp163
g18
I162
sbasg23
I162
sba(i__main__
Mention
p164
(dp165
g7
S't2'
p166
sg9
S'Anaphora-C'
p167
sg10
S'i39'
p168
sg12
S'i38'
p169
sg13
Nsg14
(lp170
(i__main__
Token
p171
(dp172
g18
I166
sbasg23
I166
sba(i__main__
Mention
p173
(dp174
g7
S't2'
p175
sg9
S'Coreference-Identity'
p176
sg10
S'i45'
p177
sg12
S'i39'
p178
sg13
Nsg14
(lp179
(i__main__
Token
p180
(dp181
g18
I192
sbasg23
I192
sba(i__main__
Mention
p182
(dp183
g7
S't2'
p184
sg9
S'Anaphora-C'
p185
sg10
S'i46'
p186
sg12
S'i45'
p187
sg13
Nsg14
(lp188
(i__main__
Token
p189
(dp190
g18
I196
sbasg23
I196
sba(i__main__
Mention
p191
(dp192
g7
S't2'
p193
sg9
S'Anaphora-C'
p194
sg10
S'i47'
p195
sg12
S'i46'
p196
sg13
Nsg14
(lp197
(i__main__
Token
p198
(dp199
g18
I197
sbasg23
I197
sba(i__main__
Mention
p200
(dp201
g7
S't2'
p202
sg9
S'Anaphora-C'
p203
sg10
S'i50'
p204
sg12
S'i47'
p205
sg13
Nsg14
(lp206
(i__main__
Token
p207
(dp208
g18
I217
sbasg23
I217
sbasg7
g57
sg51
Nsba(i__main__
Chain
p209
(dp210
g3
(lp211
(i__main__
Mention
p212
(dp213
g7
S't3'
p214
sg9
Nsg10
S'i5'
p215
sg12
Nsg13
Nsg14
(lp216
(i__main__
Token
p217
(dp218
g18
I11
sbasg23
I11
sba(i__main__
Mention
p219
(dp220
g7
S't3'
p221
sg9
S'Coreference-Noun-Noun'
p222
sg10
S'i24'
p223
sg12
S'i5'
p224
sg13
Nsg14
(lp225
(i__main__
Token
p226
(dp227
g18
I106
sbasg23
I106
sba(i__main__
Mention
p228
(dp229
g7
S't3'
p230
sg9
S'Coreference-Noun-Noun'
p231
sg10
S'i28'
p232
sg12
S'i24'
p233
sg13
Nsg14
(lp234
(i__main__
Token
p235
(dp236
g18
I125
sbasg23
I125
sba(i__main__
Mention
p237
(dp238
g7
S't3'
p239
sg9
S'Coreference-Noun-Noun'
p240
sg10
S'i48'
p241
sg12
S'i28'
p242
sg13
Nsg14
(lp243
(i__main__
Token
p244
(dp245
g18
I200
sbasg23
I200
sbasg7
g214
sg51
Nsba(i__main__
Chain
p246
(dp247
g3
(lp248
(i__main__
Mention
p249
(dp250
g7
S't4'
p251
sg9
Nsg10
S'i6'
p252
sg12
Nsg13
Nsg14
(lp253
(i__main__
Token
p254
(dp255
g18
I15
sba(i__main__
Token
p256
(dp257
g18
I16
sbasg23
I16
sba(i__main__
Mention
p258
(dp259
g7
S't4'
p260
sg9
S'Coreference-Identity'
p261
sg10
S'i49'
p262
sg12
S'i6'
p263
sg13
Nsg14
(lp264
(i__main__
Token
p265
(dp266
g18
I206
sbasg23
I206
sbasg7
g251
sg51
Nsba(i__main__
Chain
p267
(dp268
g3
(lp269
(i__main__
Mention
p270
(dp271
g7
S't5'
p272
sg9
Nsg10
S'i7'
p273
sg12
Nsg13
Nsg14
(lp274
(i__main__
Token
p275
(dp276
g18
I22
sba(i__main__
Token
p277
(dp278
g18
I23
sba(i__main__
Token
p279
(dp280
g18
I24
sbasg23
I24
sba(i__main__
Mention
p281
(dp282
g7
S't5'
p283
sg9
S'Coreference-Abbreviation'
p284
sg10
S'i8'
p285
sg12
S'i7'
p286
sg13
Nsg14
(lp287
(i__main__
Token
p288
(dp289
g18
I26
sbasg23
I26
sba(i__main__
Mention
p290
(dp291
g7
S't5'
p292
sg9
S'Coreference-Identity'
p293
sg10
S'i20'
p294
sg12
S'i8'
p295
sg13
Nsg14
(lp296
(i__main__
Token
p297
(dp298
g18
I92
sbasg23
I92
sba(i__main__
Mention
p299
(dp300
g7
S't5'
p301
sg9
S'Coreference-Identity'
p302
sg10
S'i36'
p303
sg12
S'i20'
p304
sg13
Nsg14
(lp305
(i__main__
Token
p306
(dp307
g18
I146
sbasg23
I146
sbasg7
g272
sg51
Nsba(i__main__
Chain
p308
(dp309
g3
(lp310
(i__main__
Mention
p311
(dp312
g7
S't6'
p313
sg9
Nsg10
S'i9'
p314
sg12
Nsg13
Nsg14
(lp315
(i__main__
Token
p316
(dp317
g18
I29
sba(i__main__
Token
p318
(dp319
g18
I30
sba(i__main__
Token
p320
(dp321
g18
I31
sbasg23
I31
sba(i__main__
Mention
p322
(dp323
g7
S't6'
p324
sg9
S'Coreference-Abbreviation'
p325
sg10
S'i10'
p326
sg12
S'i9'
p327
sg13
Nsg14
(lp328
(i__main__
Token
p329
(dp330
g18
I33
sbasg23
I33
sba(i__main__
Mention
p331
(dp332
g7
S't6'
p333
sg9
S'Coreference-Identity'
p334
sg10
S'i21'
p335
sg12
S'i10'
p336
sg13
Nsg14
(lp337
(i__main__
Token
p338
(dp339
g18
I94
sbasg23
I94
sbasg7
g313
sg51
Nsba(i__main__
Chain
p340
(dp341
g3
(lp342
(i__main__
Mention
p343
(dp344
g7
S't7'
p345
sg9
S'anaphora-?'
p346
sg10
S'i11'
p347
sg12
S'i11'
p348
sg13
Nsg14
(lp349
(i__main__
Token
p350
(dp351
g18
I37
sbasg23
I37
sbasg7
g345
sg51
Nsba(i__main__
Chain
p352
(dp353
g3
(lp354
(i__main__
Mention
p355
(dp356
g7
S't8'
p357
sg9
Nsg10
S'i15'
p358
sg12
Nsg13
Nsg14
(lp359
(i__main__
Token
p360
(dp361
g18
I55
sbasg23
I55
sba(i__main__
Mention
p362
(dp363
g7
S't8'
p364
sg9
S'Coreference-Identity'
p365
sg10
S'i51'
p366
sg12
S'i15'
p367
sg13
Nsg14
(lp368
(i__main__
Token
p369
(dp370
g18
I218
sbasg23
I218
sbasg7
g357
sg51
Nsba(i__main__
Chain
p371
(dp372
g3
(lp373
(i__main__
Mention
p374
(dp375
g7
S't9'
p376
sg9
Nsg10
S'i16'
p377
sg12
Nsg13
Nsg14
(lp378
(i__main__
Token
p379
(dp380
g18
I58
sbasg23
I58
sba(i__main__
Mention
p381
(dp382
g7
S't9'
p383
sg9
S'Coreference-Identity'
p384
sg10
S'i17'
p385
sg12
S'i16'
p386
sg13
Nsg14
(lp387
(i__main__
Token
p388
(dp389
g18
I61
sbasg23
I61
sbasg7
g376
sg51
Nsba(i__main__
Chain
p390
(dp391
g3
(lp392
(i__main__
Mention
p393
(dp394
g7
S't10'
p395
sg9
Nsg10
S'i18'
p396
sg12
Nsg13
Nsg14
(lp397
(i__main__
Token
p398
(dp399
g18
I66
sba(i__main__
Token
p400
(dp401
g18
I67
sbasg23
I67
sba(i__main__
Mention
p402
(dp403
g7
S't10'
p404
sg9
S'Coreference-Identity'
p405
sg10
S'i26'
p406
sg12
S'i18'
p407
sg13
Nsg14
(lp408
(i__main__
Token
p409
(dp410
g18
I113
sba(i__main__
Token
p411
(dp412
g18
I114
sbasg23
I114
sba(i__main__
Mention
p413
(dp414
g7
S't10'
p415
sg9
S'Coreference-Identity'
p416
sg10
S'i30'
p417
sg12
S'i26'
p418
sg13
Nsg14
(lp419
(i__main__
Token
p420
(dp421
g18
I128
sbasg23
I128
sba(i__main__
Mention
p422
(dp423
g7
S't10'
p424
sg9
S'Coreference-Identity'
p425
sg10
S'i43'
p426
sg12
S'i30'
p427
sg13
Nsg14
(lp428
(i__main__
Token
p429
(dp430
g18
I184
sbasg23
I184
sbasg7
g395
sg51
Nsba(i__main__
Chain
p431
(dp432
g3
(lp433
(i__main__
Mention
p434
(dp435
g7
S't11'
p436
sg9
Nsg10
S'i25'
p437
sg12
Nsg13
Nsg14
(lp438
(i__main__
Token
p439
(dp440
g18
I108
sbasg23
I108
sba(i__main__
Mention
p441
(dp442
g7
S't11'
p443
sg9
S'Coreference-Identity'
p444
sg10
S'i29'
p445
sg12
S'i25'
p446
sg13
Nsg14
(lp447
(i__main__
Token
p448
(dp449
g18
I127
sbasg23
I127
sbasg7
g436
sg51
Nsba(i__main__
Chain
p450
(dp451
g3
(lp452
(i__main__
Mention
p453
(dp454
g7
S't12'
p455
sg9
S'anaphora-?'
p456
sg10
S'i31'
p457
sg12
S'i31'
p458
sg13
Nsg14
(lp459
(i__main__
Token
p460
(dp461
g18
I133
sbasg23
I133
sba(i__main__
Mention
p462
(dp463
g7
S't12'
p464
sg9
S'Anaphora-RC'
p465
sg10
S'i32'
p466
sg12
S'i31'
p467
sg13
Nsg14
(lp468
(i__main__
Token
p469
(dp470
g18
I138
sba(i__main__
Token
p471
(dp472
g18
I139
sba(i__main__
Token
p473
(dp474
g18
I140
sba(i__main__
Token
p475
(dp476
g18
I141
sba(i__main__
Token
p477
(dp478
g18
I142
sba(i__main__
Token
p479
(dp480
g18
I143
sba(i__main__
Token
p481
(dp482
g18
I144
sba(i__main__
Token
p483
(dp484
g18
I145
sba(i__main__
Token
p485
(dp486
g18
I146
sba(i__main__
Token
p487
(dp488
g18
I147
sba(i__main__
Token
p489
(dp490
g18
I148
sba(i__main__
Token
p491
(dp492
g18
I149
sba(i__main__
Token
p493
(dp494
g18
I150
sba(i__main__
Token
p495
(dp496
g18
I151
sbasg23
I151
sbasg7
g455
sg51
Nsba(i__main__
Chain
p497
(dp498
g3
(lp499
(i__main__
Mention
p500
(dp501
g7
S't13'
p502
sg9
Nsg10
S'i33'
p503
sg12
Nsg13
Nsg14
(lp504
(i__main__
Token
p505
(dp506
g18
I139
sba(i__main__
Token
p507
(dp508
g18
I140
sbasg23
I140
sba(i__main__
Mention
p509
(dp510
g7
S't13'
p511
sg9
S'Coreference-Identity'
p512
sg10
S'i40'
p513
sg12
S'i33'
p514
sg13
Nsg14
(lp515
(i__main__
Token
p516
(dp517
g18
I169
sba(i__main__
Token
p518
(dp519
g18
I170
sbasg23
I170
sbasg7
g502
sg51
Nsba(i__main__
Chain
p520
(dp521
g3
(lp522
(i__main__
Mention
p523
(dp524
g7
S't14'
p525
sg9
Nsg10
S'i41'
p526
sg12
Nsg13
Nsg14
(lp527
(i__main__
Token
p528
(dp529
g18
I172
sbasg23
I172
sba(i__main__
Mention
p530
(dp531
g7
S't14'
p532
sg9
S'Coreference-NounComplement'
p533
sg10
S'i42'
p534
sg12
S'i41'
p535
sg13
Nsg14
(lp536
(i__main__
Token
p537
(dp538
g18
I173
sba(i__main__
Token
p539
(dp540
g18
I174
sbasg23
I174
sbasg7
g525
sg51
Nsba(i__main__
Chain
p541
(dp542
g3
(lp543
(i__main__
Mention
p544
(dp545
g7
S't15'
p546
sg9
S'anaphora-?'
p547
sg10
S'i44'
p548
sg12
S'i44'
p549
sg13
Nsg14
(lp550
(i__main__
Token
p551
(dp552
g18
I187
sbasg23
I187
sbasg7
g546
sg51
Nsba.