(lp0
(i__main__
Chain
p1
(dp2
S'mentionList'
p3
(lp4
(i__main__
Mention
p5
(dp6
S'chainId'
p7
S't1'
p8
sS'relType'
p9
S'anaphora-?'
p10
sS'mentionId'
p11
S'i1'
p12
sS'antecedentId'
p13
S'i1'
p14
sS'crefMod'
p15
NsS'tokenList'
p16
(lp17
(i__main__
Token
p18
(dp19
S'tokenId'
p20
I5
sbasS'mentionHead'
p21
I5
sbasg7
g8
sS'chainHead'
p22
Nsba(i__main__
Chain
p23
(dp24
g3
(lp25
(i__main__
Mention
p26
(dp27
g7
S't2'
p28
sg9
Nsg11
S'i2'
p29
sg13
Nsg15
Nsg16
(lp30
(i__main__
Token
p31
(dp32
g20
I5
sba(i__main__
Token
p33
(dp34
g20
I6
sba(i__main__
Token
p35
(dp36
g20
I7
sba(i__main__
Token
p37
(dp38
g20
I8
sba(i__main__
Token
p39
(dp40
g20
I9
sba(i__main__
Token
p41
(dp42
g20
I10
sba(i__main__
Token
p43
(dp44
g20
I11
sba(i__main__
Token
p45
(dp46
g20
I12
sba(i__main__
Token
p47
(dp48
g20
I13
sba(i__main__
Token
p49
(dp50
g20
I14
sba(i__main__
Token
p51
(dp52
g20
I15
sba(i__main__
Token
p53
(dp54
g20
I16
sbasg21
I15
sba(i__main__
Mention
p55
(dp56
g7
S't2'
p57
sg9
S'Anaphora-E'
p58
sg11
S'i3'
p59
sg13
S'i2'
p60
sg15
Nsg16
(lp61
(i__main__
Token
p62
(dp63
g20
I18
sbasg21
I18
sbasg7
g28
sg22
Nsba(i__main__
Chain
p64
(dp65
g3
(lp66
(i__main__
Mention
p67
(dp68
g7
S't3'
p69
sg9
Nsg11
S'i5'
p70
sg13
Nsg15
Nsg16
(lp71
(i__main__
Token
p72
(dp73
g20
I25
sba(i__main__
Token
p74
(dp75
g20
I26
sbasg21
I26
sba(i__main__
Mention
p76
(dp77
g7
S't3'
p78
sg9
S'Coreference-Identity'
p79
sg11
S'i7'
p80
sg13
S'i5'
p81
sg15
Nsg16
(lp82
(i__main__
Token
p83
(dp84
g20
I39
sbasg21
I39
sba(i__main__
Mention
p85
(dp86
g7
S't3'
p87
sg9
S'Coreference-Noun-Noun'
p88
sg11
S'i10'
p89
sg13
S'i7'
p90
sg15
Nsg16
(lp91
(i__main__
Token
p92
(dp93
g20
I52
sbasg21
I52
sba(i__main__
Mention
p94
(dp95
g7
S't3'
p96
sg9
S'Coreference-Identity'
p97
sg11
S'i17'
p98
sg13
S'i10'
p99
sg15
Nsg16
(lp100
(i__main__
Token
p101
(dp102
g20
I92
sbasg21
I92
sba(i__main__
Mention
p103
(dp104
g7
S't3'
p105
sg9
S'Coreference-Noun-Noun'
p106
sg11
S'i18'
p107
sg13
S'i17'
p108
sg15
Nsg16
(lp109
(i__main__
Token
p110
(dp111
g20
I116
sbasg21
I116
sba(i__main__
Mention
p112
(dp113
g7
S't3'
p114
sg9
S'Coreference-Identity'
p115
sg11
S'i21'
p116
sg13
S'i18'
p117
sg15
Nsg16
(lp118
(i__main__
Token
p119
(dp120
g20
I129
sbasg21
I129
sba(i__main__
Mention
p121
(dp122
g7
S't3'
p123
sg9
S'Coreference-Noun-Noun'
p124
sg11
S'i26'
p125
sg13
S'i21'
p126
sg15
Nsg16
(lp127
(i__main__
Token
p128
(dp129
g20
I168
sbasg21
I168
sbasg7
g69
sg22
Nsba(i__main__
Chain
p130
(dp131
g3
(lp132
(i__main__
Mention
p133
(dp134
g7
S't4'
p135
sg9
Nsg11
S'i6'
p136
sg13
Nsg15
Nsg16
(lp137
(i__main__
Token
p138
(dp139
g20
I29
sba(i__main__
Token
p140
(dp141
g20
I30
sbasg21
I30
sba(i__main__
Mention
p142
(dp143
g7
S't4'
p144
sg9
S'Coreference-Identity'
p145
sg11
S'i15'
p146
sg13
S'i6'
p147
sg15
Nsg16
(lp148
(i__main__
Token
p149
(dp150
g20
I73
sba(i__main__
Token
p151
(dp152
g20
I74
sbasg21
I74
sbasg7
g135
sg22
Nsba(i__main__
Chain
p153
(dp154
g3
(lp155
(i__main__
Mention
p156
(dp157
g7
S't5'
p158
sg9
Nsg11
S'i8'
p159
sg13
Nsg15
Nsg16
(lp160
(i__main__
Token
p161
(dp162
g20
I41
sba(i__main__
Token
p163
(dp164
g20
I42
sba(i__main__
Token
p165
(dp166
g20
I43
sbasg21
I43
sba(i__main__
Mention
p167
(dp168
g7
S't5'
p169
sg9
S'Coreference-Identity'
p170
sg11
S'i16'
p171
sg13
S'i8'
p172
sg15
Nsg16
(lp173
(i__main__
Token
p174
(dp175
g20
I81
sba(i__main__
Token
p176
(dp177
g20
I82
sba(i__main__
Token
p178
(dp179
g20
I83
sbasg21
I83
sba(i__main__
Mention
p180
(dp181
g7
S't5'
p182
sg9
S'Coreference-Identity'
p183
sg11
S'i22'
p184
sg13
S'i16'
p185
sg15
Nsg16
(lp186
(i__main__
Token
p187
(dp188
g20
I143
sbasg21
I143
sba(i__main__
Mention
p189
(dp190
g7
S't5'
p191
sg9
S'Anaphora-C'
p192
sg11
S'i23'
p193
sg13
S'i22'
p194
sg15
Nsg16
(lp195
(i__main__
Token
p196
(dp197
g20
I152
sbasg21
I152
sba(i__main__
Mention
p198
(dp199
g7
S't5'
p200
sg9
Nsg11
S'i28'
p201
sg13
Nsg15
Nsg16
(lp202
(i__main__
Token
p203
(dp204
g20
I185
sbasg21
Nsba(i__main__
Mention
p205
(dp206
g7
S't5'
p207
sg9
S'Coreference-PartOf'
p208
sg11
S'i31'
p209
sg13
S'i37'
p210
sg15
Nsg16
(lp211
(i__main__
Token
p212
(dp213
g20
I206
sba(i__main__
Token
p214
(dp215
g20
I207
sba(i__main__
Token
p216
(dp217
g20
I208
sba(i__main__
Token
p218
(dp219
g20
I209
sbasg21
I209
sba(i__main__
Mention
p220
(dp221
g7
S't5'
p222
sg9
S'Anaphora-C'
p223
sg11
S'i32'
p224
sg13
S'i31'
p225
sg15
Nsg16
(lp226
(i__main__
Token
p227
(dp228
g20
I211
sbasg21
I211
sbasg7
g158
sg22
Nsba(i__main__
Chain
p229
(dp230
g3
(lp231
(i__main__
Mention
p232
(dp233
g7
S't6'
p234
sg9
Nsg11
S'i9'
p235
sg13
Nsg15
Nsg16
(lp236
(i__main__
Token
p237
(dp238
g20
I45
sba(i__main__
Token
p239
(dp240
g20
I46
sbasg21
I46
sba(i__main__
Mention
p241
(dp242
g7
S't6'
p243
sg9
Nsg11
S'i27'
p244
sg13
Nsg15
Nsg16
(lp245
(i__main__
Token
p246
(dp247
g20
I185
sbasg21
Nsba(i__main__
Mention
p248
(dp249
g7
S't6'
p250
sg9
S'Coreference-PartOf'
p251
sg11
S'i33'
p252
sg13
S'i27'
p253
sg15
Nsg16
(lp254
(i__main__
Token
p255
(dp256
g20
I212
sba(i__main__
Token
p257
(dp258
g20
I213
sbasg21
I213
sba(i__main__
Mention
p259
(dp260
g7
S't6'
p261
sg9
S'Anaphora-C'
p262
sg11
S'i34'
p263
sg13
S'i33'
p264
sg15
Nsg16
(lp265
(i__main__
Token
p266
(dp267
g20
I218
sbasg21
I218
sbasg7
g234
sg22
Nsba(i__main__
Chain
p268
(dp269
g3
(lp270
(i__main__
Mention
p271
(dp272
g7
S't7'
p273
sg9
Nsg11
S'i11'
p274
sg13
Nsg15
Nsg16
(lp275
(i__main__
Token
p276
(dp277
g20
I52
sba(i__main__
Token
p278
(dp279
g20
I53
sbasg21
I53
sba(i__main__
Mention
p280
(dp281
g7
S't7'
p282
sg9
S'Coreference-Identity'
p283
sg11
S'i13'
p284
sg13
S'i11'
p285
sg15
Nsg16
(lp286
(i__main__
Token
p287
(dp288
g20
I61
sbasg21
I61
sbasg7
g273
sg22
Nsba(i__main__
Chain
p289
(dp290
g3
(lp291
(i__main__
Mention
p292
(dp293
g7
S't8'
p294
sg9
Nsg11
S'i12'
p295
sg13
Nsg15
Nsg16
(lp296
(i__main__
Token
p297
(dp298
g20
I55
sbasg21
I55
sba(i__main__
Mention
p299
(dp300
g7
S't8'
p301
sg9
S'Coreference-Identity'
p302
sg11
S'i30'
p303
sg13
S'i12'
p304
sg15
Nsg16
(lp305
(i__main__
Token
p306
(dp307
g20
I200
sbasg21
I200
sbasg7
g294
sg22
Nsba(i__main__
Chain
p308
(dp309
g3
(lp310
(i__main__
Mention
p311
(dp312
g7
S't9'
p313
sg9
S'anaphora-?'
p314
sg11
S'i14'
p315
sg13
S'i14'
p316
sg15
Nsg16
(lp317
(i__main__
Token
p318
(dp319
g20
I67
sbasg21
I67
sbasg7
g313
sg22
Nsba(i__main__
Chain
p320
(dp321
g3
(lp322
(i__main__
Mention
p323
(dp324
g7
S't10'
p325
sg9
Nsg11
S'i19'
p326
sg13
Nsg15
Nsg16
(lp327
(i__main__
Token
p328
(dp329
g20
I118
sba(i__main__
Token
p330
(dp331
g20
I119
sbasg21
I119
sba(i__main__
Mention
p332
(dp333
g7
S't10'
p334
sg9
S'Coreference-NounComplement'
p335
sg11
S'i20'
p336
sg13
S'i19'
p337
sg15
Nsg16
(lp338
(i__main__
Token
p339
(dp340
g20
I120
sba(i__main__
Token
p341
(dp342
g20
I121
sbasg21
I121
sba(i__main__
Mention
p343
(dp344
g7
S't10'
p345
sg9
S'Coreference-Identity'
p346
sg11
S'i24'
p347
sg13
S'i20'
p348
sg15
Nsg16
(lp349
(i__main__
Token
p350
(dp351
g20
I163
sbasg21
I163
sba(i__main__
Mention
p352
(dp353
g7
S't10'
p354
sg9
S'Anaphora-C'
p355
sg11
S'i25'
p356
sg13
S'i24'
p357
sg15
Nsg16
(lp358
(i__main__
Token
p359
(dp360
g20
I167
sbasg21
I167
sbasg7
g325
sg22
Nsba(i__main__
Chain
p361
(dp362
g3
(lp363
(i__main__
Mention
p364
(dp365
g7
S't11'
p366
sg9
S'anaphora-?'
p367
sg11
S'i29'
p368
sg13
S'i29'
p369
sg15
Nsg16
(lp370
(i__main__
Token
p371
(dp372
g20
I188
sbasg21
I188
sbasg7
g366
sg22
Nsba.