(lp0
(i__main__
Chain
p1
(dp2
S'mentionList'
p3
(lp4
(i__main__
Mention
p5
(dp6
S'chainId'
p7
S't1'
p8
sS'relType'
p9
NsS'mentionId'
p10
S'i1'
p11
sS'antecedentId'
p12
NsS'crefMod'
p13
NsS'tokenList'
p14
(lp15
(i__main__
Token
p16
(dp17
S'tokenId'
p18
I0
sba(i__main__
Token
p19
(dp20
g18
I1
sbasS'mentionHead'
p21
I1
sba(i__main__
Mention
p22
(dp23
g7
S't1'
p24
sg9
S'Coreference-Identity'
p25
sg10
S'i7'
p26
sg12
S'i1'
p27
sg13
Nsg14
(lp28
(i__main__
Token
p29
(dp30
g18
I41
sba(i__main__
Token
p31
(dp32
g18
I42
sbasg21
I42
sba(i__main__
Mention
p33
(dp34
g7
S't1'
p35
sg9
S'Coreference-Identity'
p36
sg10
S'i11'
p37
sg12
S'i7'
p38
sg13
Nsg14
(lp39
(i__main__
Token
p40
(dp41
g18
I63
sba(i__main__
Token
p42
(dp43
g18
I64
sbasg21
I64
sba(i__main__
Mention
p44
(dp45
g7
S't1'
p46
sg9
S'Coreference-Identity'
p47
sg10
S'i16'
p48
sg12
S'i11'
p49
sg13
Nsg14
(lp50
(i__main__
Token
p51
(dp52
g18
I82
sba(i__main__
Token
p53
(dp54
g18
I83
sbasg21
I83
sba(i__main__
Mention
p55
(dp56
g7
S't1'
p57
sg9
S'Coreference-Identity'
p58
sg10
S'i23'
p59
sg12
S'i16'
p60
sg13
Nsg14
(lp61
(i__main__
Token
p62
(dp63
g18
I125
sba(i__main__
Token
p64
(dp65
g18
I126
sbasg21
I126
sba(i__main__
Mention
p66
(dp67
g7
S't1'
p68
sg9
S'Coreference-Identity'
p69
sg10
S'i34'
p70
sg12
S'i23'
p71
sg13
Nsg14
(lp72
(i__main__
Token
p73
(dp74
g18
I200
sba(i__main__
Token
p75
(dp76
g18
I201
sbasg21
I201
sbasg7
g8
sS'chainHead'
p77
Nsba(i__main__
Chain
p78
(dp79
g3
(lp80
(i__main__
Mention
p81
(dp82
g7
S't2'
p83
sg9
Nsg10
S'i2'
p84
sg12
Nsg13
Nsg14
(lp85
(i__main__
Token
p86
(dp87
g18
I0
sba(i__main__
Token
p88
(dp89
g18
I1
sba(i__main__
Token
p90
(dp91
g18
I2
sba(i__main__
Token
p92
(dp93
g18
I3
sbasg21
I3
sba(i__main__
Mention
p94
(dp95
g7
S't2'
p96
sg9
S'Coreference-Identity'
p97
sg10
S'i8'
p98
sg12
S'i2'
p99
sg13
Nsg14
(lp100
(i__main__
Token
p101
(dp102
g18
I41
sba(i__main__
Token
p103
(dp104
g18
I42
sba(i__main__
Token
p105
(dp106
g18
I43
sba(i__main__
Token
p107
(dp108
g18
I44
sbasg21
I44
sba(i__main__
Mention
p109
(dp110
g7
S't2'
p111
sg9
S'Coreference-Identity'
p112
sg10
S'i12'
p113
sg12
S'i8'
p114
sg13
Nsg14
(lp115
(i__main__
Token
p116
(dp117
g18
I63
sba(i__main__
Token
p118
(dp119
g18
I64
sba(i__main__
Token
p120
(dp121
g18
I65
sba(i__main__
Token
p122
(dp123
g18
I66
sbasg21
I66
sba(i__main__
Mention
p124
(dp125
g7
S't2'
p126
sg9
S'Coreference-Identity'
p127
sg10
S'i17'
p128
sg12
S'i12'
p129
sg13
Nsg14
(lp130
(i__main__
Token
p131
(dp132
g18
I82
sba(i__main__
Token
p133
(dp134
g18
I83
sba(i__main__
Token
p135
(dp136
g18
I84
sba(i__main__
Token
p137
(dp138
g18
I85
sbasg21
I85
sba(i__main__
Mention
p139
(dp140
g7
S't2'
p141
sg9
S'Coreference-Identity'
p142
sg10
S'i20'
p143
sg12
S'i17'
p144
sg13
Nsg14
(lp145
(i__main__
Token
p146
(dp147
g18
I105
sbasg21
I105
sba(i__main__
Mention
p148
(dp149
g7
S't2'
p150
sg9
S'Coreference-Identity'
p151
sg10
S'i24'
p152
sg12
S'i20'
p153
sg13
Nsg14
(lp154
(i__main__
Token
p155
(dp156
g18
I125
sba(i__main__
Token
p157
(dp158
g18
I126
sba(i__main__
Token
p159
(dp160
g18
I127
sba(i__main__
Token
p161
(dp162
g18
I128
sbasg21
I128
sba(i__main__
Mention
p163
(dp164
g7
S't2'
p165
sg9
S'Coreference-Identity'
p166
sg10
S'i28'
p167
sg12
S'i24'
p168
sg13
Nsg14
(lp169
(i__main__
Token
p170
(dp171
g18
I153
sbasg21
I153
sba(i__main__
Mention
p172
(dp173
g7
S't2'
p174
sg9
S'Coreference-Identity'
p175
sg10
S'i30'
p176
sg12
S'i28'
p177
sg13
Nsg14
(lp178
(i__main__
Token
p179
(dp180
g18
I170
sbasg21
I170
sbasg7
g83
sg77
Nsba(i__main__
Chain
p181
(dp182
g3
(lp183
(i__main__
Mention
p184
(dp185
g7
S't3'
p186
sg9
Nsg10
S'i3'
p187
sg12
Nsg13
Nsg14
(lp188
(i__main__
Token
p189
(dp190
g18
I8
sba(i__main__
Token
p191
(dp192
g18
I9
sba(i__main__
Token
p193
(dp194
g18
I10
sbasg21
I10
sba(i__main__
Mention
p195
(dp196
g7
S't3'
p197
sg9
S'Coreference-Bracketed/Abbraviation'
p198
sg10
S'i4'
p199
sg12
S'i1'
p200
sg13
Nsg14
(lp201
(i__main__
Token
p202
(dp203
g18
I12
sbasg21
I12
sba(i__main__
Mention
p204
(dp205
g7
S't3'
p206
sg9
S'Coreference-Noun-Noun'
p207
sg10
S'i10'
p208
sg12
S'i4'
p209
sg13
Nsg14
(lp210
(i__main__
Token
p211
(dp212
g18
I57
sba(i__main__
Token
p213
(dp214
g18
I58
sba(i__main__
Token
p215
(dp216
g18
I59
sbasg21
I59
sba(i__main__
Mention
p217
(dp218
g7
S't3'
p219
sg9
S'Coreference-Bracketed/Abbraviation'
p220
sg10
S'i13'
p221
sg12
S'i10'
p222
sg13
Nsg14
(lp223
(i__main__
Token
p224
(dp225
g18
I76
sbasg21
I76
sba(i__main__
Mention
p226
(dp227
g7
S't3'
p228
sg9
S'Coreference-Noun-Noun'
p229
sg10
S'i26'
p230
sg12
S'i13'
p231
sg13
Nsg14
(lp232
(i__main__
Token
p233
(dp234
g18
I139
sbasg21
I139
sba(i__main__
Mention
p235
(dp236
g7
S't3'
p237
sg9
S'Coreference-Identity'
p238
sg10
S'i32'
p239
sg12
S'i26'
p240
sg13
Nsg14
(lp241
(i__main__
Token
p242
(dp243
g18
I176
sba(i__main__
Token
p244
(dp245
g18
I177
sba(i__main__
Token
p246
(dp247
g18
I178
sbasg21
I178
sbasg7
g186
sg77
Nsba(i__main__
Chain
p248
(dp249
g3
(lp250
(i__main__
Mention
p251
(dp252
g7
S't4'
p253
sg9
Nsg10
S'i5'
p254
sg12
Nsg13
Nsg14
(lp255
(i__main__
Token
p256
(dp257
g18
I17
sba(i__main__
Token
p258
(dp259
g18
I18
sba(i__main__
Token
p260
(dp261
g18
I19
sbasg21
I19
sba(i__main__
Mention
p262
(dp263
g7
S't4'
p264
sg9
S'Coreference-Noun-Noun'
p265
sg10
S'i6'
p266
sg12
S'i5'
p267
sg13
Nsg14
(lp268
(i__main__
Token
p269
(dp270
g18
I33
sba(i__main__
Token
p271
(dp272
g18
I34
sbasg21
I34
sba(i__main__
Mention
p273
(dp274
g7
S't4'
p275
sg9
S'Coreference-Identity'
p276
sg10
S'i22'
p277
sg12
S'i6'
p278
sg13
Nsg14
(lp279
(i__main__
Token
p280
(dp281
g18
I119
sba(i__main__
Token
p282
(dp283
g18
I120
sbasg21
I120
sba(i__main__
Mention
p284
(dp285
g7
S't4'
p286
sg9
S'Coreference-Noun-Noun'
p287
sg10
S'i27'
p288
sg12
S'i22'
p289
sg13
Nsg14
(lp290
(i__main__
Token
p291
(dp292
g18
I147
sba(i__main__
Token
p293
(dp294
g18
I148
sbasg21
I148
sba(i__main__
Mention
p295
(dp296
g7
S't4'
p297
sg9
S'Coreference-Noun-Noun'
p298
sg10
S'i33'
p299
sg12
S'i27'
p300
sg13
Nsg14
(lp301
(i__main__
Token
p302
(dp303
g18
I183
sba(i__main__
Token
p304
(dp305
g18
I184
sbasg21
I184
sbasg7
g253
sg77
Nsba(i__main__
Chain
p306
(dp307
g3
(lp308
(i__main__
Mention
p309
(dp310
g7
S't5'
p311
sg9
Nsg10
S'i9'
p312
sg12
Nsg13
Nsg14
(lp313
(i__main__
Token
p314
(dp315
g18
I51
sbasg21
I51
sba(i__main__
Mention
p316
(dp317
g7
S't5'
p318
sg9
S'Coreference-Identity'
p319
sg10
S'i18'
p320
sg12
S'i9'
p321
sg13
Nsg14
(lp322
(i__main__
Token
p323
(dp324
g18
I87
sbasg21
I87
sba(i__main__
Mention
p325
(dp326
g7
S't5'
p327
sg9
S'Coreference-Identity'
p328
sg10
S'i25'
p329
sg12
S'i18'
p330
sg13
Nsg14
(lp331
(i__main__
Token
p332
(dp333
g18
I130
sbasg21
I130
sba(i__main__
Mention
p334
(dp335
g7
S't5'
p336
sg9
S'Coreference-Identity'
p337
sg10
S'i29'
p338
sg12
S'i25'
p339
sg13
Nsg14
(lp340
(i__main__
Token
p341
(dp342
g18
I161
sbasg21
I161
sba(i__main__
Mention
p343
(dp344
g7
S't5'
p345
sg9
S'Coreference-Identity'
p346
sg10
S'i31'
p347
sg12
S'i29'
p348
sg13
Nsg14
(lp349
(i__main__
Token
p350
(dp351
g18
I172
sbasg21
I172
sba(i__main__
Mention
p352
(dp353
g7
S't5'
p354
sg9
S'Coreference-Identity'
p355
sg10
S'i35'
p356
sg12
S'i31'
p357
sg13
Nsg14
(lp358
(i__main__
Token
p359
(dp360
g18
I203
sbasg21
I203
sbasg7
g311
sg77
Nsba(i__main__
Chain
p361
(dp362
g3
(lp363
(i__main__
Mention
p364
(dp365
g7
S't6'
p366
sg9
Nsg10
S'i14'
p367
sg12
Nsg13
Nsg14
(lp368
(i__main__
Token
p369
(dp370
g18
I78
sbasg21
I78
sba(i__main__
Mention
p371
(dp372
g7
S't6'
p373
sg9
S'Anaphora-C'
p374
sg10
S'i15'
p375
sg12
S'i14'
p376
sg13
Nsg14
(lp377
(i__main__
Token
p378
(dp379
g18
I81
sbasg21
I81
sbasg7
g366
sg77
Nsba(i__main__
Chain
p380
(dp381
g3
(lp382
(i__main__
Mention
p383
(dp384
g7
S't7'
p385
sg9
Nsg10
S'i19'
p386
sg12
Nsg13
Nsg14
(lp387
(i__main__
Token
p388
(dp389
g18
I96
sbasg21
I96
sbasg7
g385
sg77
Nsba(i__main__
Chain
p390
(dp391
g3
(lp392
(i__main__
Mention
p393
(dp394
g7
S't8'
p395
sg9
Nsg10
S'i21'
p396
sg12
Nsg13
Nsg14
(lp397
(i__main__
Token
p398
(dp399
g18
I118
sbasg21
I118
sbasg7
g395
sg77
Nsba.