(lp0
(i__main__
Chain
p1
(dp2
S'mentionList'
p3
(lp4
(i__main__
Mention
p5
(dp6
S'chainId'
p7
S't1'
p8
sS'relType'
p9
NsS'mentionId'
p10
S'i1'
p11
sS'antecedentId'
p12
NsS'crefMod'
p13
NsS'tokenList'
p14
(lp15
(i__main__
Token
p16
(dp17
S'tokenId'
p18
I0
sba(i__main__
Token
p19
(dp20
g18
I1
sbasS'mentionHead'
p21
I1
sba(i__main__
Mention
p22
(dp23
g7
S't1'
p24
sg9
S'Coreference-Identity'
p25
sg10
S'i24'
p26
sg12
S'i1'
p27
sg13
Nsg14
(lp28
(i__main__
Token
p29
(dp30
g18
I138
sbasg21
I138
sbasg7
g8
sS'chainHead'
p31
Nsba(i__main__
Chain
p32
(dp33
g3
(lp34
(i__main__
Mention
p35
(dp36
g7
S't2'
p37
sg9
Nsg10
S'i2'
p38
sg12
Nsg13
Nsg14
(lp39
(i__main__
Token
p40
(dp41
g18
I7
sbasg21
I7
sba(i__main__
Mention
p42
(dp43
g7
S't2'
p44
sg9
S'Coreference-Identity'
p45
sg10
S'i15'
p46
sg12
S'i2'
p47
sg13
Nsg14
(lp48
(i__main__
Token
p49
(dp50
g18
I100
sbasg21
I100
sbasg7
g37
sg31
Nsba(i__main__
Chain
p51
(dp52
g3
(lp53
(i__main__
Mention
p54
(dp55
g7
S't3'
p56
sg9
Nsg10
S'i3'
p57
sg12
Nsg13
Nsg14
(lp58
(i__main__
Token
p59
(dp60
g18
I9
sba(i__main__
Token
p61
(dp62
g18
I10
sbasg21
I10
sba(i__main__
Mention
p63
(dp64
g7
S't3'
p65
sg9
S'Coreference-NounComplement'
p66
sg10
S'i4'
p67
sg12
S'i3'
p68
sg13
Nsg14
(lp69
(i__main__
Token
p70
(dp71
g18
I11
sba(i__main__
Token
p72
(dp73
g18
I12
sbasg21
I12
sba(i__main__
Mention
p74
(dp75
g7
S't3'
p76
sg9
S'Coreference-Identity'
p77
sg10
S'i8'
p78
sg12
S'i4'
p79
sg13
Nsg14
(lp80
(i__main__
Token
p81
(dp82
g18
I45
sbasg21
I45
sba(i__main__
Mention
p83
(dp84
g7
S't3'
p85
sg9
S'Coreference-Identity'
p86
sg10
S'i27'
p87
sg12
S'i8'
p88
sg13
Nsg14
(lp89
(i__main__
Token
p90
(dp91
g18
I148
sbasg21
I148
sba(i__main__
Mention
p92
(dp93
g7
S't3'
p94
sg9
S'Coreference-Identity'
p95
sg10
S'i32'
p96
sg12
S'i27'
p97
sg13
Nsg14
(lp98
(i__main__
Token
p99
(dp100
g18
I178
sbasg21
I178
sba(i__main__
Mention
p101
(dp102
g7
S't3'
p103
sg9
S'Coreference-Identity'
p104
sg10
S'i46'
p105
sg12
S'i32'
p106
sg13
Nsg14
(lp107
(i__main__
Token
p108
(dp109
g18
I238
sbasg21
I238
sbasg7
g56
sg31
Nsba(i__main__
Chain
p110
(dp111
g3
(lp112
(i__main__
Mention
p113
(dp114
g7
S't4'
p115
sg9
Nsg10
S'i5'
p116
sg12
Nsg13
Nsg14
(lp117
(i__main__
Token
p118
(dp119
g18
I30
sbasg21
I30
sba(i__main__
Mention
p120
(dp121
g7
S't4'
p122
sg9
S'Coreference-Identity'
p123
sg10
S'i30'
p124
sg12
S'i5'
p125
sg13
Nsg14
(lp126
(i__main__
Token
p127
(dp128
g18
I169
sbasg21
I169
sbasg7
g115
sg31
Nsba(i__main__
Chain
p129
(dp130
g3
(lp131
(i__main__
Mention
p132
(dp133
g7
S't5'
p134
sg9
Nsg10
S'i6'
p135
sg12
Nsg13
Nsg14
(lp136
(i__main__
Token
p137
(dp138
g18
I34
sba(i__main__
Token
p139
(dp140
g18
I35
sbasg21
I35
sba(i__main__
Mention
p141
(dp142
g7
S't5'
p143
sg9
S'Coreference-NounComplement'
p144
sg10
S'i7'
p145
sg12
S'i6'
p146
sg13
Nsg14
(lp147
(i__main__
Token
p148
(dp149
g18
I36
sba(i__main__
Token
p150
(dp151
g18
I37
sba(i__main__
Token
p152
(dp153
g18
I38
sbasg21
I38
sba(i__main__
Mention
p154
(dp155
g7
S't5'
p156
sg9
S'Coreference-Identity'
p157
sg10
S'i13'
p158
sg12
S'i7'
p159
sg13
Nsg14
(lp160
(i__main__
Token
p161
(dp162
g18
I88
sbasg21
I88
sba(i__main__
Mention
p163
(dp164
g7
S't5'
p165
sg9
S'Coreference-Identity'
p166
sg10
S'i14'
p167
sg12
S'i13'
p168
sg13
Nsg14
(lp169
(i__main__
Token
p170
(dp171
g18
I97
sbasg21
I97
sba(i__main__
Mention
p172
(dp173
g7
S't5'
p174
sg9
S'Anaphora-C'
p175
sg10
S'i18'
p176
sg12
S'i14'
p177
sg13
Nsg14
(lp178
(i__main__
Token
p179
(dp180
g18
I115
sbasg21
I115
sba(i__main__
Mention
p181
(dp182
g7
S't5'
p183
sg9
S'Coreference-Noun-Noun'
p184
sg10
S'i22'
p185
sg12
S'i18'
p186
sg13
Nsg14
(lp187
(i__main__
Token
p188
(dp189
g18
I134
sba(i__main__
Token
p190
(dp191
g18
I135
sbasg21
I135
sba(i__main__
Mention
p192
(dp193
g7
S't5'
p194
sg9
S'Coreference-NounComplement'
p195
sg10
S'i23'
p196
sg12
S'i22'
p197
sg13
Nsg14
(lp198
(i__main__
Token
p199
(dp200
g18
I136
sbasg21
I136
sba(i__main__
Mention
p201
(dp202
g7
S't5'
p203
sg9
S'Coreference-Identity'
p204
sg10
S'i29'
p205
sg12
S'i23'
p206
sg13
Nsg14
(lp207
(i__main__
Token
p208
(dp209
g18
I165
sbasg21
I165
sba(i__main__
Mention
p210
(dp211
g7
S't5'
p212
sg9
S'Anaphora-C'
p213
sg10
S'i37'
p214
sg12
S'i29'
p215
sg13
Nsg14
(lp216
(i__main__
Token
p217
(dp218
g18
I203
sbasg21
I203
sba(i__main__
Mention
p219
(dp220
g7
S't5'
p221
sg9
S'Anaphora-C'
p222
sg10
S'i38'
p223
sg12
S'i37'
p224
sg13
Nsg14
(lp225
(i__main__
Token
p226
(dp227
g18
I215
sbasg21
I215
sba(i__main__
Mention
p228
(dp229
g7
S't5'
p230
sg9
S'Anaphora-C'
p231
sg10
S'i43'
p232
sg12
S'i38'
p233
sg13
Nsg14
(lp234
(i__main__
Token
p235
(dp236
g18
I224
sbasg21
I224
sbasg7
g134
sg31
Nsba(i__main__
Chain
p237
(dp238
g3
(lp239
(i__main__
Mention
p240
(dp241
g7
S't6'
p242
sg9
Nsg10
S'i9'
p243
sg12
Nsg13
Nsg14
(lp244
(i__main__
Token
p245
(dp246
g18
I47
sbasg21
I47
sba(i__main__
Mention
p247
(dp248
g7
S't6'
p249
sg9
S'Coreference-Noun-Noun'
p250
sg10
S'i10'
p251
sg12
S'i9'
p252
sg13
Nsg14
(lp253
(i__main__
Token
p254
(dp255
g18
I53
sba(i__main__
Token
p256
(dp257
g18
I54
sba(i__main__
Token
p258
(dp259
g18
I55
sba(i__main__
Token
p260
(dp261
g18
I56
sba(i__main__
Token
p262
(dp263
g18
I57
sba(i__main__
Token
p264
(dp265
g18
I58
sbasg21
I58
sba(i__main__
Mention
p266
(dp267
g7
S't6'
p268
sg9
S'Coreference-Noun-Noun'
p269
sg10
S'i11'
p270
sg12
S'i10'
p271
sg13
Nsg14
(lp272
(i__main__
Token
p273
(dp274
g18
I62
sbasg21
I62
sba(i__main__
Mention
p275
(dp276
g7
S't6'
p277
sg9
S'Coreference-Noun-Noun'
p278
sg10
S'i28'
p279
sg12
S'i11'
p280
sg13
Nsg14
(lp281
(i__main__
Token
p282
(dp283
g18
I150
sbasg21
I150
sba(i__main__
Mention
p284
(dp285
g7
S't6'
p286
sg9
S'Coreference-Identity'
p287
sg10
S'i33'
p288
sg12
S'i28'
p289
sg13
Nsg14
(lp290
(i__main__
Token
p291
(dp292
g18
I180
sba(i__main__
Token
p293
(dp294
g18
I181
sbasg21
I181
sba(i__main__
Mention
p295
(dp296
g7
S't6'
p297
sg9
S'Coreference-Identity'
p298
sg10
S'i36'
p299
sg12
S'i33'
p300
sg13
Nsg14
(lp301
(i__main__
Token
p302
(dp303
g18
I196
sba(i__main__
Token
p304
(dp305
g18
I197
sbasg21
I197
sba(i__main__
Mention
p306
(dp307
g7
S't6'
p308
sg9
S'Anaphora-C'
p309
sg10
S'i40'
p310
sg12
S'i36'
p311
sg13
Nsg14
(lp312
(i__main__
Token
p313
(dp314
g18
I219
sbasg21
I219
sba(i__main__
Mention
p315
(dp316
g7
S't6'
p317
sg9
S'Coreference-Identity'
p318
sg10
S'i44'
p319
sg12
S'i40'
p320
sg13
Nsg14
(lp321
(i__main__
Token
p322
(dp323
g18
I229
sba(i__main__
Token
p324
(dp325
g18
I230
sbasg21
I230
sbasg7
g242
sg31
Nsba(i__main__
Chain
p326
(dp327
g3
(lp328
(i__main__
Mention
p329
(dp330
g7
S't7'
p331
sg9
Nsg10
S'i12'
p332
sg12
Nsg13
Nsg14
(lp333
(i__main__
Token
p334
(dp335
g18
I79
sba(i__main__
Token
p336
(dp337
g18
I80
sba(i__main__
Token
p338
(dp339
g18
I81
sba(i__main__
Token
p340
(dp341
g18
I82
sba(i__main__
Token
p342
(dp343
g18
I83
sba(i__main__
Token
p344
(dp345
g18
I84
sba(i__main__
Token
p346
(dp347
g18
I85
sbasg21
I85
sba(i__main__
Mention
p348
(dp349
g7
S't7'
p350
sg9
S'Coreference-Identity'
p351
sg10
S'i31'
p352
sg12
S'i12'
p353
sg13
Nsg14
(lp354
(i__main__
Token
p355
(dp356
g18
I169
sba(i__main__
Token
p357
(dp358
g18
I170
sba(i__main__
Token
p359
(dp360
g18
I171
sba(i__main__
Token
p361
(dp362
g18
I172
sba(i__main__
Token
p363
(dp364
g18
I173
sba(i__main__
Token
p365
(dp366
g18
I174
sba(i__main__
Token
p367
(dp368
g18
I175
sba(i__main__
Token
p369
(dp370
g18
I176
sbasg21
I176
sba(i__main__
Mention
p371
(dp372
g7
S't7'
p373
sg9
S'Anaphora-C'
p374
sg10
S'i34'
p375
sg12
S'i31'
p376
sg13
Nsg14
(lp377
(i__main__
Token
p378
(dp379
g18
I191
sbasg21
I191
sbasg7
g331
sg31
Nsba(i__main__
Chain
p380
(dp381
g3
(lp382
(i__main__
Mention
p383
(dp384
g7
S't8'
p385
sg9
Nsg10
S'i16'
p386
sg12
Nsg13
Nsg14
(lp387
(i__main__
Token
p388
(dp389
g18
I102
sba(i__main__
Token
p390
(dp391
g18
I103
sba(i__main__
Token
p392
(dp393
g18
I104
sbasg21
I104
sba(i__main__
Mention
p394
(dp395
g7
S't8'
p396
sg9
S'Coreference-NounComplement'
p397
sg10
S'i17'
p398
sg12
S'i16'
p399
sg13
Nsg14
(lp400
(i__main__
Token
p401
(dp402
g18
I105
sba(i__main__
Token
p403
(dp404
g18
I106
sba(i__main__
Token
p405
(dp406
g18
I107
sbasg21
I107
sbasg7
g385
sg31
Nsba(i__main__
Chain
p407
(dp408
g3
(lp409
(i__main__
Mention
p410
(dp411
g7
S't9'
p412
sg9
Nsg10
S'i20'
p413
sg12
Nsg13
Nsg14
(lp414
(i__main__
Token
p415
(dp416
g18
I126
sba(i__main__
Token
p417
(dp418
g18
I127
sbasg21
I127
sba(i__main__
Mention
p419
(dp420
g7
S't9'
p421
sg9
S'Coreference-NounComplement'
p422
sg10
S'i21'
p423
sg12
S'i20'
p424
sg13
Nsg14
(lp425
(i__main__
Token
p426
(dp427
g18
I128
sba(i__main__
Token
p428
(dp429
g18
I129
sbasg21
I129
sbasg7
g412
sg31
Nsba(i__main__
Chain
p430
(dp431
g3
(lp432
(i__main__
Mention
p433
(dp434
g7
S't10'
p435
sg9
Nsg10
S'i25'
p436
sg12
Nsg13
Nsg14
(lp437
(i__main__
Token
p438
(dp439
g18
I140
sbasg21
I140
sba(i__main__
Mention
p440
(dp441
g7
S't10'
p442
sg9
S'Coreference-NounComplement'
p443
sg10
S'i26'
p444
sg12
S'i25'
p445
sg13
Nsg14
(lp446
(i__main__
Token
p447
(dp448
g18
I142
sba(i__main__
Token
p449
(dp450
g18
I143
sbasg21
I143
sbasg7
g435
sg31
Nsba(i__main__
Chain
p451
(dp452
g3
(lp453
(i__main__
Mention
p454
(dp455
g7
S't11'
p456
sg9
Nsg10
S'i39'
p457
sg12
Nsg13
Nsg14
(lp458
(i__main__
Token
p459
(dp460
g18
I215
sba(i__main__
Token
p461
(dp462
g18
I216
sba(i__main__
Token
p463
(dp464
g18
I217
sba(i__main__
Token
p465
(dp466
g18
I218
sba(i__main__
Token
p467
(dp468
g18
I219
sba(i__main__
Token
p469
(dp470
g18
I220
sbasg21
I220
sba(i__main__
Mention
p471
(dp472
g7
S't11'
p473
sg9
S'Anaphora-T'
p474
sg10
S'i41'
p475
sg12
S'i39'
p476
sg13
Nsg14
(lp477
(i__main__
Token
p478
(dp479
g18
I222
sbasg21
I222
sbasg7
g456
sg31
Nsba.