(lp0
(i__main__
Chain
p1
(dp2
S'mentionList'
p3
(lp4
(i__main__
Mention
p5
(dp6
S'chainId'
p7
S't1'
p8
sS'relType'
p9
NsS'mentionId'
p10
S'i1'
p11
sS'antecedentId'
p12
NsS'crefMod'
p13
NsS'tokenList'
p14
(lp15
(i__main__
Token
p16
(dp17
S'tokenId'
p18
I0
sba(i__main__
Token
p19
(dp20
g18
I1
sba(i__main__
Token
p21
(dp22
g18
I2
sbasS'mentionHead'
p23
I2
sba(i__main__
Mention
p24
(dp25
g7
S't1'
p26
sg9
S'Coreference-Identity'
p27
sg10
S'i7'
p28
sg12
S'i1'
p29
sg13
Nsg14
(lp30
(i__main__
Token
p31
(dp32
g18
I32
sba(i__main__
Token
p33
(dp34
g18
I33
sbasg23
I33
sba(i__main__
Mention
p35
(dp36
g7
S't1'
p37
sg9
S'Coreference-Identity'
p38
sg10
S'i9'
p39
sg12
S'i7'
p40
sg13
Nsg14
(lp41
(i__main__
Token
p42
(dp43
g18
I54
sbasg23
I54
sba(i__main__
Mention
p44
(dp45
g7
S't1'
p46
sg9
Nsg10
S'i14'
p47
sg12
Nsg13
Nsg14
(lp48
(i__main__
Token
p49
(dp50
g18
I77
sbasg23
Nsba(i__main__
Mention
p51
(dp52
g7
S't1'
p53
sg9
Nsg10
S'i15'
p54
sg12
Nsg13
Nsg14
(lp55
(i__main__
Token
p56
(dp57
g18
I77
sbasg23
Nsba(i__main__
Mention
p58
(dp59
g7
S't1'
p60
sg9
S'Coreference-Noun-Noun'
p61
sg10
S'i21'
p62
sg12
S'i15'
p63
sg13
Nsg14
(lp64
(i__main__
Token
p65
(dp66
g18
I130
sbasg23
I130
sba(i__main__
Mention
p67
(dp68
g7
S't1'
p69
sg9
S'Coreference-Noun-Noun'
p70
sg10
S'i22'
p71
sg12
S'i21'
p72
sg13
Nsg14
(lp73
(i__main__
Token
p74
(dp75
g18
I153
sba(i__main__
Token
p76
(dp77
g18
I154
sbasg23
I154
sba(i__main__
Mention
p78
(dp79
g7
S't1'
p80
sg9
S'Coreference-Identity'
p81
sg10
S'i28'
p82
sg12
S'i22'
p83
sg13
Nsg14
(lp84
(i__main__
Token
p85
(dp86
g18
I197
sba(i__main__
Token
p87
(dp88
g18
I198
sbasg23
I198
sba(i__main__
Mention
p89
(dp90
g7
S't1'
p91
sg9
S'Coreference-Identity'
p92
sg10
S'i30'
p93
sg12
S'i28'
p94
sg13
Nsg14
(lp95
(i__main__
Token
p96
(dp97
g18
I211
sbasg23
I211
sba(i__main__
Mention
p98
(dp99
g7
S't1'
p100
sg9
S'Coreference-Identity'
p101
sg10
S'i32'
p102
sg12
S'i30'
p103
sg13
Nsg14
(lp104
(i__main__
Token
p105
(dp106
g18
I221
sbasg23
I221
sbasg7
g8
sS'chainHead'
p107
Nsba(i__main__
Chain
p108
(dp109
g3
(lp110
(i__main__
Mention
p111
(dp112
g7
S't2'
p113
sg9
Nsg10
S'i2'
p114
sg12
Nsg13
Nsg14
(lp115
(i__main__
Token
p116
(dp117
g18
I6
sbasg23
I6
sba(i__main__
Mention
p118
(dp119
g7
S't2'
p120
sg9
S'Coreference-Apposition'
p121
sg10
S'i3'
p122
sg12
S'i2'
p123
sg13
Nsg14
(lp124
(i__main__
Token
p125
(dp126
g18
I8
sba(i__main__
Token
p127
(dp128
g18
I9
sbasg23
I9
sba(i__main__
Mention
p129
(dp130
g7
S't2'
p131
sg9
S'Anaphora-C'
p132
sg10
S'i5'
p133
sg12
S'i3'
p134
sg13
Nsg14
(lp135
(i__main__
Token
p136
(dp137
g18
I23
sbasg23
I23
sba(i__main__
Mention
p138
(dp139
g7
S't2'
p140
sg9
S'Coreference-Noun-Noun'
p141
sg10
S'i13'
p142
sg12
S'i5'
p143
sg13
Nsg14
(lp144
(i__main__
Token
p145
(dp146
g18
I72
sbasg23
I72
sba(i__main__
Mention
p147
(dp148
g7
S't2'
p149
sg9
S'Coreference-Identity'
p150
sg10
S'i16'
p151
sg12
S'i13'
p152
sg13
Nsg14
(lp153
(i__main__
Token
p154
(dp155
g18
I80
sbasg23
I80
sba(i__main__
Mention
p156
(dp157
g7
S't2'
p158
sg9
S'Coreference-Apposition'
p159
sg10
S'i17'
p160
sg12
S'i16'
p161
sg13
Nsg14
(lp162
(i__main__
Token
p163
(dp164
g18
I81
sba(i__main__
Token
p165
(dp166
g18
I82
sbasg23
I82
sba(i__main__
Mention
p167
(dp168
g7
S't2'
p169
sg9
S'Anaphora-C'
p170
sg10
S'i18'
p171
sg12
S'i17'
p172
sg13
Nsg14
(lp173
(i__main__
Token
p174
(dp175
g18
I85
sbasg23
I85
sba(i__main__
Mention
p176
(dp177
g7
S't2'
p178
sg9
S'Coreference-Noun-Noun'
p179
sg10
S'i23'
p180
sg12
S'i18'
p181
sg13
Nsg14
(lp182
(i__main__
Token
p183
(dp184
g18
I158
sbasg23
I158
sba(i__main__
Mention
p185
(dp186
g7
S't2'
p187
sg9
S'Anaphora-C'
p188
sg10
S'i24'
p189
sg12
S'i23'
p190
sg13
Nsg14
(lp191
(i__main__
Token
p192
(dp193
g18
I170
sbasg23
I170
sba(i__main__
Mention
p194
(dp195
g7
S't2'
p196
sg9
S'Anaphora-C'
p197
sg10
S'i26'
p198
sg12
S'i24'
p199
sg13
Nsg14
(lp200
(i__main__
Token
p201
(dp202
g18
I183
sbasg23
I183
sbasg7
g113
sg107
Nsba(i__main__
Chain
p203
(dp204
g3
(lp205
(i__main__
Mention
p206
(dp207
g7
S't3'
p208
sg9
Nsg10
S'i4'
p209
sg12
Nsg13
Nsg14
(lp210
(i__main__
Token
p211
(dp212
g18
I15
sbasg23
I15
sba(i__main__
Mention
p213
(dp214
g7
S't3'
p215
sg9
S'Coreference-Identity'
p216
sg10
S'i10'
p217
sg12
S'i4'
p218
sg13
Nsg14
(lp219
(i__main__
Token
p220
(dp221
g18
I58
sbasg23
I58
sbasg7
g208
sg107
Nsba(i__main__
Chain
p222
(dp223
g3
(lp224
(i__main__
Mention
p225
(dp226
g7
S't4'
p227
sg9
Nsg10
S'i6'
p228
sg12
Nsg13
Nsg14
(lp229
(i__main__
Token
p230
(dp231
g18
I28
sba(i__main__
Token
p232
(dp233
g18
I29
sbasg23
I29
sba(i__main__
Mention
p234
(dp235
g7
S't4'
p236
sg9
S'Coreference-Identity'
p237
sg10
S'i27'
p238
sg12
S'i6'
p239
sg13
Nsg14
(lp240
(i__main__
Token
p241
(dp242
g18
I191
sba(i__main__
Token
p243
(dp244
g18
I192
sbasg23
I192
sba(i__main__
Mention
p245
(dp246
g7
S't4'
p247
sg9
S'Coreference-Identity'
p248
sg10
S'i31'
p249
sg12
S'i27'
p250
sg13
Nsg14
(lp251
(i__main__
Token
p252
(dp253
g18
I215
sbasg23
I215
sba(i__main__
Mention
p254
(dp255
g7
S't4'
p256
sg9
S'Coreference-Identity'
p257
sg10
S'i33'
p258
sg12
S'i31'
p259
sg13
Nsg14
(lp260
(i__main__
Token
p261
(dp262
g18
I225
sbasg23
I225
sbasg7
g227
sg107
Nsba(i__main__
Chain
p263
(dp264
g3
(lp265
(i__main__
Mention
p266
(dp267
g7
S't5'
p268
sg9
Nsg10
S'i8'
p269
sg12
Nsg13
Nsg14
(lp270
(i__main__
Token
p271
(dp272
g18
I40
sba(i__main__
Token
p273
(dp274
g18
I41
sbasg23
I41
sba(i__main__
Mention
p275
(dp276
g7
S't5'
p277
sg9
S'Coreference-Identity'
p278
sg10
S'i29'
p279
sg12
S'i8'
p280
sg13
Nsg14
(lp281
(i__main__
Token
p282
(dp283
g18
I205
sba(i__main__
Token
p284
(dp285
g18
I206
sbasg23
I206
sbasg7
g268
sg107
Nsba(i__main__
Chain
p286
(dp287
g3
(lp288
(i__main__
Mention
p289
(dp290
g7
S't6'
p291
sg9
Nsg10
S'i11'
p292
sg12
Nsg13
Nsg14
(lp293
(i__main__
Token
p294
(dp295
g18
I58
sba(i__main__
Token
p296
(dp297
g18
I59
sba(i__main__
Token
p298
(dp299
g18
I60
sba(i__main__
Token
p300
(dp301
g18
I61
sba(i__main__
Token
p302
(dp303
g18
I62
sba(i__main__
Token
p304
(dp305
g18
I63
sba(i__main__
Token
p306
(dp307
g18
I64
sba(i__main__
Token
p308
(dp309
g18
I65
sba(i__main__
Token
p310
(dp311
g18
I66
sbasg23
I65
sba(i__main__
Mention
p312
(dp313
g7
S't6'
p314
sg9
S'Anaphora-C'
p315
sg10
S'i12'
p316
sg12
S'i11'
p317
sg13
Nsg14
(lp318
(i__main__
Token
p319
(dp320
g18
I70
sbasg23
I70
sbasg7
g291
sg107
Nsba(i__main__
Chain
p321
(dp322
g3
(lp323
(i__main__
Mention
p324
(dp325
g7
S't7'
p326
sg9
Nsg10
S'i19'
p327
sg12
Nsg13
Nsg14
(lp328
(i__main__
Token
p329
(dp330
g18
I95
sbasg23
I95
sba(i__main__
Mention
p331
(dp332
g7
S't7'
p333
sg9
S'Anaphora-C'
p334
sg10
S'i20'
p335
sg12
S'i19'
p336
sg13
Nsg14
(lp337
(i__main__
Token
p338
(dp339
g18
I109
sbasg23
I109
sbasg7
g326
sg107
Nsba(i__main__
Chain
p340
(dp341
g3
(lp342
(i__main__
Mention
p343
(dp344
g7
S't8'
p345
sg9
Nsg10
S'i25'
p346
sg12
Nsg13
Nsg14
(lp347
(i__main__
Token
p348
(dp349
g18
I182
sbasg23
I182
sbasg7
g345
sg107
Nsba.