(lp0
(i__main__
Chain
p1
(dp2
S'mentionList'
p3
(lp4
(i__main__
Mention
p5
(dp6
S'chainId'
p7
S't1'
p8
sS'relType'
p9
NsS'mentionId'
p10
S'i1'
p11
sS'antecedentId'
p12
NsS'crefMod'
p13
NsS'tokenList'
p14
(lp15
(i__main__
Token
p16
(dp17
S'tokenId'
p18
I12
sbasS'mentionHead'
p19
I12
sba(i__main__
Mention
p20
(dp21
g7
S't1'
p22
sg9
S'Anaphora-C'
p23
sg10
S'i3'
p24
sg12
S'i1'
p25
sg13
Nsg14
(lp26
(i__main__
Token
p27
(dp28
g18
I15
sbasg19
I15
sba(i__main__
Mention
p29
(dp30
g7
S't1'
p31
sg9
S'Coreference-Identity'
p32
sg10
S'i4'
p33
sg12
S'i3'
p34
sg13
Nsg14
(lp35
(i__main__
Token
p36
(dp37
g18
I22
sbasg19
I22
sba(i__main__
Mention
p38
(dp39
g7
S't1'
p40
sg9
S'Coreference-Identity'
p41
sg10
S'i13'
p42
sg12
S'i4'
p43
sg13
Nsg14
(lp44
(i__main__
Token
p45
(dp46
g18
I53
sbasg19
I53
sba(i__main__
Mention
p47
(dp48
g7
S't1'
p49
sg9
Nsg10
S'i33'
p50
sg12
Nsg13
Nsg14
(lp51
(i__main__
Token
p52
(dp53
g18
I140
sba(i__main__
Token
p54
(dp55
g18
I141
sbasg19
Nsba(i__main__
Mention
p56
(dp57
g7
S't1'
p58
sg9
S'Coreference-PartOf'
p59
sg10
S'i44'
p60
sg12
S'i33'
p61
sg13
Nsg14
(lp62
(i__main__
Token
p63
(dp64
g18
I182
sbasg19
I182
sba(i__main__
Mention
p65
(dp66
g7
S't1'
p67
sg9
Nsg10
S'i50'
p68
sg12
Nsg13
Nsg14
(lp69
(i__main__
Token
p70
(dp71
g18
I204
sba(i__main__
Token
p72
(dp73
g18
I205
sbasg19
Nsba(i__main__
Mention
p74
(dp75
g7
S't1'
p76
sg9
S'Coreference-PartOf'
p77
sg10
S'i59'
p78
sg12
S'i50'
p79
sg13
Nsg14
(lp80
(i__main__
Token
p81
(dp82
g18
I244
sbasg19
I244
sba(i__main__
Mention
p83
(dp84
g7
S't1'
p85
sg9
S'Coreference-Identity'
p86
sg10
S'i62'
p87
sg12
S'i59'
p88
sg13
Nsg14
(lp89
(i__main__
Token
p90
(dp91
g18
I265
sbasg19
I265
sbasg7
g8
sS'chainHead'
p92
Nsba(i__main__
Chain
p93
(dp94
g3
(lp95
(i__main__
Mention
p96
(dp97
g7
S't2'
p98
sg9
Nsg10
S'i2'
p99
sg12
Nsg13
Nsg14
(lp100
(i__main__
Token
p101
(dp102
g18
I13
sbasg19
I13
sba(i__main__
Mention
p103
(dp104
g7
S't2'
p105
sg9
S'Coreference-Identity'
p106
sg10
S'i8'
p107
sg12
S'i2'
p108
sg13
Nsg14
(lp109
(i__main__
Token
p110
(dp111
g18
I44
sbasg19
I44
sba(i__main__
Mention
p112
(dp113
g7
S't2'
p114
sg9
S'Coreference-Identity'
p115
sg10
S'i23'
p116
sg12
S'i8'
p117
sg13
Nsg14
(lp118
(i__main__
Token
p119
(dp120
g18
I97
sbasg19
I97
sba(i__main__
Mention
p121
(dp122
g7
S't2'
p123
sg9
S'Coreference-Identity'
p124
sg10
S'i29'
p125
sg12
S'i23'
p126
sg13
Nsg14
(lp127
(i__main__
Token
p128
(dp129
g18
I132
sbasg19
I132
sba(i__main__
Mention
p130
(dp131
g7
S't2'
p132
sg9
S'Coreference-Identity'
p133
sg10
S'i40'
p134
sg12
S'i29'
p135
sg13
Nsg14
(lp136
(i__main__
Token
p137
(dp138
g18
I165
sbasg19
I165
sba(i__main__
Mention
p139
(dp140
g7
S't2'
p141
sg9
S'Coreference-Identity'
p142
sg10
S'i57'
p143
sg12
S'i40'
p144
sg13
Nsg14
(lp145
(i__main__
Token
p146
(dp147
g18
I240
sbasg19
I240
sbasg7
g98
sg92
Nsba(i__main__
Chain
p148
(dp149
g3
(lp150
(i__main__
Mention
p151
(dp152
g7
S't3'
p153
sg9
Nsg10
S'i5'
p154
sg12
Nsg13
Nsg14
(lp155
(i__main__
Token
p156
(dp157
g18
I24
sba(i__main__
Token
p158
(dp159
g18
I25
sbasg19
I25
sba(i__main__
Mention
p160
(dp161
g7
S't3'
p162
sg9
S'Coreference-Noun-Noun'
p163
sg10
S'i9'
p164
sg12
S'i5'
p165
sg13
Nsg14
(lp166
(i__main__
Token
p167
(dp168
g18
I44
sba(i__main__
Token
p169
(dp170
g18
I45
sbasg19
I45
sba(i__main__
Mention
p171
(dp172
g7
S't3'
p173
sg9
S'Coreference-Identity'
p174
sg10
S'i24'
p175
sg12
S'i9'
p176
sg13
Nsg14
(lp177
(i__main__
Token
p178
(dp179
g18
I97
sba(i__main__
Token
p180
(dp181
g18
I98
sbasg19
I98
sba(i__main__
Mention
p182
(dp183
g7
S't3'
p184
sg9
S'Coreference-Noun-Noun'
p185
sg10
S'i30'
p186
sg12
S'i24'
p187
sg13
Nsg14
(lp188
(i__main__
Token
p189
(dp190
g18
I132
sba(i__main__
Token
p191
(dp192
g18
I133
sbasg19
I133
sba(i__main__
Mention
p193
(dp194
g7
S't3'
p195
sg9
S'Coreference-Noun-Noun'
p196
sg10
S'i41'
p197
sg12
S'i30'
p198
sg13
Nsg14
(lp199
(i__main__
Token
p200
(dp201
g18
I165
sba(i__main__
Token
p202
(dp203
g18
I166
sbasg19
I166
sba(i__main__
Mention
p204
(dp205
g7
S't3'
p206
sg9
S'Coreference-Noun-Noun'
p207
sg10
S'i47'
p208
sg12
S'i41'
p209
sg13
Nsg14
(lp210
(i__main__
Token
p211
(dp212
g18
I194
sba(i__main__
Token
p213
(dp214
g18
I195
sbasg19
I195
sba(i__main__
Mention
p215
(dp216
g7
S't3'
p217
sg9
S'Coreference-Identity'
p218
sg10
S'i63'
p219
sg12
S'i47'
p220
sg13
Nsg14
(lp221
(i__main__
Token
p222
(dp223
g18
I268
sba(i__main__
Token
p224
(dp225
g18
I269
sbasg19
I269
sbasg7
g153
sg92
Nsba(i__main__
Chain
p226
(dp227
g3
(lp228
(i__main__
Mention
p229
(dp230
g7
S't4'
p231
sg9
Nsg10
S'i6'
p232
sg12
Nsg13
Nsg14
(lp233
(i__main__
Token
p234
(dp235
g18
I28
sba(i__main__
Token
p236
(dp237
g18
I29
sbasg19
I29
sba(i__main__
Mention
p238
(dp239
g7
S't4'
p240
sg9
S'Anaphora-C'
p241
sg10
S'i7'
p242
sg12
S'i6'
p243
sg13
Nsg14
(lp244
(i__main__
Token
p245
(dp246
g18
I35
sbasg19
I35
sbasg7
g231
sg92
Nsba(i__main__
Chain
p247
(dp248
g3
(lp249
(i__main__
Mention
p250
(dp251
g7
S't5'
p252
sg9
Nsg10
S'i10'
p253
sg12
Nsg13
Nsg14
(lp254
(i__main__
Token
p255
(dp256
g18
I47
sba(i__main__
Token
p257
(dp258
g18
I48
sbasg19
I48
sba(i__main__
Mention
p259
(dp260
g7
S't5'
p261
sg9
S'Coreference-Identity'
p262
sg10
S'i25'
p263
sg12
S'i10'
p264
sg13
Nsg14
(lp265
(i__main__
Token
p266
(dp267
g18
I100
sbasg19
I100
sba(i__main__
Mention
p268
(dp269
g7
S't5'
p270
sg9
S'Coreference-Identity'
p271
sg10
S'i31'
p272
sg12
S'i25'
p273
sg13
Nsg14
(lp274
(i__main__
Token
p275
(dp276
g18
I135
sba(i__main__
Token
p277
(dp278
g18
I136
sbasg19
I136
sba(i__main__
Mention
p279
(dp280
g7
S't5'
p281
sg9
S'Coreference-Identity'
p282
sg10
S'i55'
p283
sg12
S'i31'
p284
sg13
Nsg14
(lp285
(i__main__
Token
p286
(dp287
g18
I216
sba(i__main__
Token
p288
(dp289
g18
I217
sbasg19
I217
sbasg7
g252
sg92
Nsba(i__main__
Chain
p290
(dp291
g3
(lp292
(i__main__
Mention
p293
(dp294
g7
S't6'
p295
sg9
Nsg10
S'i11'
p296
sg12
Nsg13
Nsg14
(lp297
(i__main__
Token
p298
(dp299
g18
I51
sbasg19
I51
sba(i__main__
Mention
p300
(dp301
g7
S't6'
p302
sg9
S'Coreference-Identity'
p303
sg10
S'i21'
p304
sg12
S'i11'
p305
sg13
Nsg14
(lp306
(i__main__
Token
p307
(dp308
g18
I88
sbasg19
I88
sba(i__main__
Mention
p309
(dp310
g7
S't6'
p311
sg9
Nsg10
S'i32'
p312
sg12
Nsg13
Nsg14
(lp313
(i__main__
Token
p314
(dp315
g18
I140
sba(i__main__
Token
p316
(dp317
g18
I141
sbasg19
Nsba(i__main__
Mention
p318
(dp319
g7
S't6'
p320
sg9
S'Coreference-PartOf'
p321
sg10
S'i39'
p322
sg12
S'i32'
p323
sg13
Nsg14
(lp324
(i__main__
Token
p325
(dp326
g18
I162
sbasg19
I162
sba(i__main__
Mention
p327
(dp328
g7
S't6'
p329
sg9
Nsg10
S'i49'
p330
sg12
Nsg13
Nsg14
(lp331
(i__main__
Token
p332
(dp333
g18
I204
sba(i__main__
Token
p334
(dp335
g18
I205
sbasg19
Nsba(i__main__
Mention
p336
(dp337
g7
S't6'
p338
sg9
S'Coreference-PartOf'
p339
sg10
S'i58'
p340
sg12
S'i49'
p341
sg13
Nsg14
(lp342
(i__main__
Token
p343
(dp344
g18
I242
sbasg19
I242
sbasg7
g295
sg92
Nsba(i__main__
Chain
p345
(dp346
g3
(lp347
(i__main__
Mention
p348
(dp349
g7
S't7'
p350
sg9
Nsg10
S'i12'
p351
sg12
Nsg13
Nsg14
(lp352
(i__main__
Token
p353
(dp354
g18
I55
sba(i__main__
Token
p355
(dp356
g18
I56
sbasg19
I56
sba(i__main__
Mention
p357
(dp358
g7
S't7'
p359
sg9
S'Coreference-Identity'
p360
sg10
S'i34'
p361
sg12
S'i12'
p362
sg13
Nsg14
(lp363
(i__main__
Token
p364
(dp365
g18
I143
sba(i__main__
Token
p366
(dp367
g18
I144
sbasg19
I144
sba(i__main__
Mention
p368
(dp369
g7
S't7'
p370
sg9
S'Coreference-Identity'
p371
sg10
S'i51'
p372
sg12
S'i34'
p373
sg13
Nsg14
(lp374
(i__main__
Token
p375
(dp376
g18
I207
sba(i__main__
Token
p377
(dp378
g18
I208
sbasg19
I208
sbasg7
g350
sg92
Nsba(i__main__
Chain
p379
(dp380
g3
(lp381
(i__main__
Mention
p382
(dp383
g7
S't8'
p384
sg9
Nsg10
S'i14'
p385
sg12
Nsg13
Nsg14
(lp386
(i__main__
Token
p387
(dp388
g18
I58
sbasg19
I58
sba(i__main__
Mention
p389
(dp390
g7
S't8'
p391
sg9
S'Coreference-Identity'
p392
sg10
S'i35'
p393
sg12
S'i14'
p394
sg13
Nsg14
(lp395
(i__main__
Token
p396
(dp397
g18
I146
sbasg19
I146
sba(i__main__
Mention
p398
(dp399
g7
S't8'
p400
sg9
S'Coreference-Identity'
p401
sg10
S'i54'
p402
sg12
S'i35'
p403
sg13
Nsg14
(lp404
(i__main__
Token
p405
(dp406
g18
I214
sbasg19
I214
sbasg7
g384
sg92
Nsba(i__main__
Chain
p407
(dp408
g3
(lp409
(i__main__
Mention
p410
(dp411
g7
S't9'
p412
sg9
Nsg10
S'i15'
p413
sg12
Nsg13
Nsg14
(lp414
(i__main__
Token
p415
(dp416
g18
I59
sbasg19
I59
sba(i__main__
Mention
p417
(dp418
g7
S't9'
p419
sg9
S'Coreference-Identity'
p420
sg10
S'i52'
p421
sg12
S'i15'
p422
sg13
Nsg14
(lp423
(i__main__
Token
p424
(dp425
g18
I210
sbasg19
I210
sbasg7
g412
sg92
Nsba(i__main__
Chain
p426
(dp427
g3
(lp428
(i__main__
Mention
p429
(dp430
g7
S't10'
p431
sg9
Nsg10
S'i16'
p432
sg12
Nsg13
Nsg14
(lp433
(i__main__
Token
p434
(dp435
g18
I61
sbasg19
I61
sba(i__main__
Mention
p436
(dp437
g7
S't10'
p438
sg9
S'Coreference-Identity'
p439
sg10
S'i53'
p440
sg12
S'i16'
p441
sg13
Nsg14
(lp442
(i__main__
Token
p443
(dp444
g18
I212
sbasg19
I212
sbasg7
g431
sg92
Nsba(i__main__
Chain
p445
(dp446
g3
(lp447
(i__main__
Mention
p448
(dp449
g7
S't11'
p450
sg9
Nsg10
S'i17'
p451
sg12
Nsg13
Nsg14
(lp452
(i__main__
Token
p453
(dp454
g18
I75
sba(i__main__
Token
p455
(dp456
g18
I76
sbasg19
I76
sba(i__main__
Mention
p457
(dp458
g7
S't11'
p459
sg9
S'Coreference-NounComplement'
p460
sg10
S'i18'
p461
sg12
S'i17'
p462
sg13
Nsg14
(lp463
(i__main__
Token
p464
(dp465
g18
I77
sba(i__main__
Token
p466
(dp467
g18
I78
sbasg19
I78
sba(i__main__
Mention
p468
(dp469
g7
S't11'
p470
sg9
S'Coreference-Identity'
p471
sg10
S'i28'
p472
sg12
S'i18'
p473
sg13
Nsg14
(lp474
(i__main__
Token
p475
(dp476
g18
I127
sba(i__main__
Token
p477
(dp478
g18
I128
sbasg19
I128
sba(i__main__
Mention
p479
(dp480
g7
S't11'
p481
sg9
S'Coreference-Identity'
p482
sg10
S'i36'
p483
sg12
S'i28'
p484
sg13
Nsg14
(lp485
(i__main__
Token
p486
(dp487
g18
I154
sba(i__main__
Token
p488
(dp489
g18
I155
sbasg19
I155
sba(i__main__
Mention
p490
(dp491
g7
S't11'
p492
sg9
S'Coreference-Identity'
p493
sg10
S'i42'
p494
sg12
S'i36'
p495
sg13
Nsg14
(lp496
(i__main__
Token
p497
(dp498
g18
I176
sbasg19
I176
sba(i__main__
Mention
p499
(dp500
g7
S't11'
p501
sg9
S'Anaphora-C'
p502
sg10
S'i43'
p503
sg12
S'i42'
p504
sg13
Nsg14
(lp505
(i__main__
Token
p506
(dp507
g18
I180
sbasg19
I180
sba(i__main__
Mention
p508
(dp509
g7
S't11'
p510
sg9
S'Anaphora-C'
p511
sg10
S'i48'
p512
sg12
S'i43'
p513
sg13
Nsg14
(lp514
(i__main__
Token
p515
(dp516
g18
I201
sbasg19
I201
sba(i__main__
Mention
p517
(dp518
g7
S't11'
p519
sg9
S'Coreference-Identity'
p520
sg10
S'i56'
p521
sg12
S'i48'
p522
sg13
Nsg14
(lp523
(i__main__
Token
p524
(dp525
g18
I224
sba(i__main__
Token
p526
(dp527
g18
I225
sbasg19
I225
sba(i__main__
Mention
p528
(dp529
g7
S't11'
p530
sg9
S'Coreference-Identity'
p531
sg10
S'i61'
p532
sg12
S'i56'
p533
sg13
Nsg14
(lp534
(i__main__
Token
p535
(dp536
g18
I259
sbasg19
I259
sbasg7
g450
sg92
Nsba(i__main__
Chain
p537
(dp538
g3
(lp539
(i__main__
Mention
p540
(dp541
g7
S't12'
p542
sg9
Nsg10
S'i19'
p543
sg12
Nsg13
Nsg14
(lp544
(i__main__
Token
p545
(dp546
g18
I82
sba(i__main__
Token
p547
(dp548
g18
I83
sbasg19
I83
sba(i__main__
Mention
p549
(dp550
g7
S't12'
p551
sg9
S'Coreference-NounComplement'
p552
sg10
S'i20'
p553
sg12
S'i19'
p554
sg13
Nsg14
(lp555
(i__main__
Token
p556
(dp557
g18
I84
sba(i__main__
Token
p558
(dp559
g18
I85
sbasg19
I85
sba(i__main__
Mention
p560
(dp561
g7
S't12'
p562
sg9
S'Coreference-Identity'
p563
sg10
S'i37'
p564
sg12
S'i20'
p565
sg13
Nsg14
(lp566
(i__main__
Token
p567
(dp568
g18
I159
sba(i__main__
Token
p569
(dp570
g18
I160
sbasg19
I160
sbasg7
g542
sg92
Nsba(i__main__
Chain
p571
(dp572
g3
(lp573
(i__main__
Mention
p574
(dp575
g7
S't13'
p576
sg9
Nsg10
S'i22'
p577
sg12
Nsg13
Nsg14
(lp578
(i__main__
Token
p579
(dp580
g18
I88
sba(i__main__
Token
p581
(dp582
g18
I89
sbasg19
I89
sba(i__main__
Mention
p583
(dp584
g7
S't13'
p585
sg9
S'Coreference-Identity'
p586
sg10
S'i38'
p587
sg12
S'i22'
p588
sg13
Nsg14
(lp589
(i__main__
Token
p590
(dp591
g18
I162
sba(i__main__
Token
p592
(dp593
g18
I163
sbasg19
I163
sbasg7
g576
sg92
Nsba(i__main__
Chain
p594
(dp595
g3
(lp596
(i__main__
Mention
p597
(dp598
g7
S't14'
p599
sg9
Nsg10
S'i26'
p600
sg12
Nsg13
Nsg14
(lp601
(i__main__
Token
p602
(dp603
g18
I117
sbasg19
I117
sba(i__main__
Mention
p604
(dp605
g7
S't14'
p606
sg9
S'Coreference-NounComplement'
p607
sg10
S'i27'
p608
sg12
S'i26'
p609
sg13
Nsg14
(lp610
(i__main__
Token
p611
(dp612
g18
I118
sba(i__main__
Token
p613
(dp614
g18
I119
sbasg19
I119
sbasg7
g599
sg92
Nsba(i__main__
Chain
p615
(dp616
g3
(lp617
(i__main__
Mention
p618
(dp619
g7
S't15'
p620
sg9
Nsg10
S'i45'
p621
sg12
Nsg13
Nsg14
(lp622
(i__main__
Token
p623
(dp624
g18
I184
sba(i__main__
Token
p625
(dp626
g18
I185
sbasg19
I185
sba(i__main__
Mention
p627
(dp628
g7
S't15'
p629
sg9
S'Coreference-NounComplement'
p630
sg10
S'i46'
p631
sg12
S'i45'
p632
sg13
Nsg14
(lp633
(i__main__
Token
p634
(dp635
g18
I186
sba(i__main__
Token
p636
(dp637
g18
I187
sba(i__main__
Token
p638
(dp639
g18
I188
sbasg19
I188
sbasg7
g620
sg92
Nsba(i__main__
Chain
p640
(dp641
g3
(lp642
(i__main__
Mention
p643
(dp644
g7
S't16'
p645
sg9
Nsg10
S'i60'
p646
sg12
Nsg13
Nsg14
(lp647
(i__main__
Token
p648
(dp649
g18
I247
sbasg19
I247
sbasg7
g645
sg92
Nsba.