(lp0
(i__main__
Chain
p1
(dp2
S'mentionList'
p3
(lp4
(i__main__
Mention
p5
(dp6
S'chainId'
p7
S't1'
p8
sS'relType'
p9
NsS'mentionId'
p10
S'i1'
p11
sS'antecedentId'
p12
NsS'crefMod'
p13
NsS'tokenList'
p14
(lp15
(i__main__
Token
p16
(dp17
S'tokenId'
p18
I0
sbasS'mentionHead'
p19
I0
sba(i__main__
Mention
p20
(dp21
g7
S't1'
p22
sg9
S'Anaphora-C'
p23
sg10
S'i3'
p24
sg12
S'i1'
p25
sg13
Nsg14
(lp26
(i__main__
Token
p27
(dp28
g18
I14
sbasg19
I14
sba(i__main__
Mention
p29
(dp30
g7
S't1'
p31
sg9
S'Coreference-Noun-Noun'
p32
sg10
S'i6'
p33
sg12
S'i3'
p34
sg13
Nsg14
(lp35
(i__main__
Token
p36
(dp37
g18
I19
sbasg19
I19
sba(i__main__
Mention
p38
(dp39
g7
S't1'
p40
sg9
S'Coreference-Noun-Noun'
p41
sg10
S'i12'
p42
sg12
S'i6'
p43
sg13
Nsg14
(lp44
(i__main__
Token
p45
(dp46
g18
I57
sbasg19
I57
sba(i__main__
Mention
p47
(dp48
g7
S't1'
p49
sg9
S'Coreference-Noun-Noun'
p50
sg10
S'i18'
p51
sg12
S'i12'
p52
sg13
Nsg14
(lp53
(i__main__
Token
p54
(dp55
g18
I66
sbasg19
I66
sba(i__main__
Mention
p56
(dp57
g7
S't1'
p58
sg9
S'Coreference-Noun-Noun'
p59
sg10
S'i22'
p60
sg12
S'i18'
p61
sg13
Nsg14
(lp62
(i__main__
Token
p63
(dp64
g18
I102
sbasg19
I102
sba(i__main__
Mention
p65
(dp66
g7
S't1'
p67
sg9
S'Coreference-Identity'
p68
sg10
S'i24'
p69
sg12
S'i22'
p70
sg13
Nsg14
(lp71
(i__main__
Token
p72
(dp73
g18
I116
sbasg19
I116
sba(i__main__
Mention
p74
(dp75
g7
S't1'
p76
sg9
S'Coreference-Noun-Noun'
p77
sg10
S'i27'
p78
sg12
S'i24'
p79
sg13
Nsg14
(lp80
(i__main__
Token
p81
(dp82
g18
I120
sbasg19
I120
sba(i__main__
Mention
p83
(dp84
g7
S't1'
p85
sg9
S'Anaphora-C'
p86
sg10
S'i33'
p87
sg12
S'i27'
p88
sg13
Nsg14
(lp89
(i__main__
Token
p90
(dp91
g18
I171
sbasg19
I171
sba(i__main__
Mention
p92
(dp93
g7
S't1'
p94
sg9
S'Coreference-Noun-Noun'
p95
sg10
S'i36'
p96
sg12
S'i33'
p97
sg13
Nsg14
(lp98
(i__main__
Token
p99
(dp100
g18
I180
sbasg19
I180
sbasg7
g8
sS'chainHead'
p101
Nsba(i__main__
Chain
p102
(dp103
g3
(lp104
(i__main__
Mention
p105
(dp106
g7
S't2'
p107
sg9
Nsg10
S'i2'
p108
sg12
Nsg13
Nsg14
(lp109
(i__main__
Token
p110
(dp111
g18
I9
sbasg19
I9
sba(i__main__
Mention
p112
(dp113
g7
S't2'
p114
sg9
S'Coreference-Identity'
p115
sg10
S'i35'
p116
sg12
S'i2'
p117
sg13
Nsg14
(lp118
(i__main__
Token
p119
(dp120
g18
I178
sbasg19
I178
sbasg7
g107
sg101
Nsba(i__main__
Chain
p121
(dp122
g3
(lp123
(i__main__
Mention
p124
(dp125
g7
S't3'
p126
sg9
Nsg10
S'i4'
p127
sg12
Nsg13
Nsg14
(lp128
(i__main__
Token
p129
(dp130
g18
I16
sbasg19
I16
sba(i__main__
Mention
p131
(dp132
g7
S't3'
p133
sg9
S'Coreference-NounComplement'
p134
sg10
S'i5'
p135
sg12
S'i4'
p136
sg13
Nsg14
(lp137
(i__main__
Token
p138
(dp139
g18
I17
sbasg19
I17
sba(i__main__
Mention
p140
(dp141
g7
S't3'
p142
sg9
S'Coreference-Noun-Noun'
p143
sg10
S'i13'
p144
sg12
S'i5'
p145
sg13
Nsg14
(lp146
(i__main__
Token
p147
(dp148
g18
I57
sba(i__main__
Token
p149
(dp150
g18
I58
sbasg19
I58
sba(i__main__
Mention
p151
(dp152
g7
S't3'
p153
sg9
S'Coreference-NounComplement'
p154
sg10
S'i14'
p155
sg12
S'i13'
p156
sg13
Nsg14
(lp157
(i__main__
Token
p158
(dp159
g18
I59
sbasg19
I59
sba(i__main__
Mention
p160
(dp161
g7
S't3'
p162
sg9
S'Coreference-Noun-Noun'
p163
sg10
S'i25'
p164
sg12
S'i14'
p165
sg13
Nsg14
(lp166
(i__main__
Token
p167
(dp168
g18
I116
sba(i__main__
Token
p169
(dp170
g18
I117
sbasg19
I117
sba(i__main__
Mention
p171
(dp172
g7
S't3'
p173
sg9
S'Anaphora-C'
p174
sg10
S'i26'
p175
sg12
S'i25'
p176
sg13
Nsg14
(lp177
(i__main__
Token
p178
(dp179
g18
I119
sbasg19
I119
sbasg7
g126
sg101
Nsba(i__main__
Chain
p180
(dp181
g3
(lp182
(i__main__
Mention
p183
(dp184
g7
S't4'
p185
sg9
Nsg10
S'i7'
p186
sg12
Nsg13
Nsg14
(lp187
(i__main__
Token
p188
(dp189
g18
I21
sbasg19
I21
sba(i__main__
Mention
p190
(dp191
g7
S't4'
p192
sg9
S'Coreference-Identity'
p193
sg10
S'i19'
p194
sg12
S'i7'
p195
sg13
Nsg14
(lp196
(i__main__
Token
p197
(dp198
g18
I68
sbasg19
I68
sbasg7
g185
sg101
Nsba(i__main__
Chain
p199
(dp200
g3
(lp201
(i__main__
Mention
p202
(dp203
g7
S't5'
p204
sg9
Nsg10
S'i8'
p205
sg12
Nsg13
Nsg14
(lp206
(i__main__
Token
p207
(dp208
g18
I34
sbasg19
I34
sbasg7
g204
sg101
Nsba(i__main__
Chain
p209
(dp210
g3
(lp211
(i__main__
Mention
p212
(dp213
g7
S't6'
p214
sg9
Nsg10
S'i9'
p215
sg12
Nsg13
Nsg14
(lp216
(i__main__
Token
p217
(dp218
g18
I40
sbasg19
I40
sbasg7
g214
sg101
Nsba(i__main__
Chain
p219
(dp220
g3
(lp221
(i__main__
Mention
p222
(dp223
g7
S't7'
p224
sg9
Nsg10
S'i10'
p225
sg12
Nsg13
Nsg14
(lp226
(i__main__
Token
p227
(dp228
g18
I50
sba(i__main__
Token
p229
(dp230
g18
I51
sbasg19
I51
sba(i__main__
Mention
p231
(dp232
g7
S't7'
p233
sg9
S'Coreference-NounComplement'
p234
sg10
S'i11'
p235
sg12
S'i10'
p236
sg13
Nsg14
(lp237
(i__main__
Token
p238
(dp239
g18
I52
sba(i__main__
Token
p240
(dp241
g18
I53
sbasg19
I53
sba(i__main__
Mention
p242
(dp243
g7
S't7'
p244
sg9
S'Coreference-Identity'
p245
sg10
S'i21'
p246
sg12
S'i11'
p247
sg13
Nsg14
(lp248
(i__main__
Token
p249
(dp250
g18
I96
sba(i__main__
Token
p251
(dp252
g18
I97
sbasg19
I97
sba(i__main__
Mention
p253
(dp254
g7
S't7'
p255
sg9
S'Anaphora-C'
p256
sg10
S'i23'
p257
sg12
S'i21'
p258
sg13
Nsg14
(lp259
(i__main__
Token
p260
(dp261
g18
I113
sbasg19
I113
sba(i__main__
Mention
p262
(dp263
g7
S't7'
p264
sg9
S'Coreference-Identity'
p265
sg10
S'i28'
p266
sg12
S'i23'
p267
sg13
Nsg14
(lp268
(i__main__
Token
p269
(dp270
g18
I138
sbasg19
I138
sbasg7
g224
sg101
Nsba(i__main__
Chain
p271
(dp272
g3
(lp273
(i__main__
Mention
p274
(dp275
g7
S't8'
p276
sg9
Nsg10
S'i15'
p277
sg12
Nsg13
Nsg14
(lp278
(i__main__
Token
p279
(dp280
g18
I61
sbasg19
I61
sba(i__main__
Mention
p281
(dp282
g7
S't8'
p283
sg9
S'Coreference-NounComplement'
p284
sg10
S'i16'
p285
sg12
S'i15'
p286
sg13
Nsg14
(lp287
(i__main__
Token
p288
(dp289
g18
I62
sba(i__main__
Token
p290
(dp291
g18
I63
sbasg19
I63
sba(i__main__
Mention
p292
(dp293
g7
S't8'
p294
sg9
S'Anaphora-C'
p295
sg10
S'i17'
p296
sg12
S'i16'
p297
sg13
Nsg14
(lp298
(i__main__
Token
p299
(dp300
g18
I65
sbasg19
I65
sbasg7
g276
sg101
Nsba(i__main__
Chain
p301
(dp302
g3
(lp303
(i__main__
Mention
p304
(dp305
g7
S't9'
p306
sg9
Nsg10
S'i20'
p307
sg12
Nsg13
Nsg14
(lp308
(i__main__
Token
p309
(dp310
g18
I89
sba(i__main__
Token
p311
(dp312
g18
I90
sbasg19
I90
sba(i__main__
Mention
p313
(dp314
g7
S't9'
p315
sg9
S'Coreference-Identity'
p316
sg10
S'i34'
p317
sg12
S'i20'
p318
sg13
Nsg14
(lp319
(i__main__
Token
p320
(dp321
g18
I174
sbasg19
I174
sbasg7
g306
sg101
Nsba(i__main__
Chain
p322
(dp323
g3
(lp324
(i__main__
Mention
p325
(dp326
g7
S't10'
p327
sg9
Nsg10
S'i29'
p328
sg12
Nsg13
Nsg14
(lp329
(i__main__
Token
p330
(dp331
g18
I141
sba(i__main__
Token
p332
(dp333
g18
I142
sbasg19
I142
sba(i__main__
Mention
p334
(dp335
g7
S't10'
p336
sg9
S'Coreference-Identity'
p337
sg10
S'i30'
p338
sg12
S'i29'
p339
sg13
Nsg14
(lp340
(i__main__
Token
p341
(dp342
g18
I153
sbasg19
I153
sbasg7
g327
sg101
Nsba(i__main__
Chain
p343
(dp344
g3
(lp345
(i__main__
Mention
p346
(dp347
g7
S't11'
p348
sg9
Nsg10
S'i31'
p349
sg12
Nsg13
Nsg14
(lp350
(i__main__
Token
p351
(dp352
g18
I157
sba(i__main__
Token
p353
(dp354
g18
I158
sbasg19
I158
sba(i__main__
Mention
p355
(dp356
g7
S't11'
p357
sg9
S'Coreference-NounComplement'
p358
sg10
S'i32'
p359
sg12
S'i31'
p360
sg13
Nsg14
(lp361
(i__main__
Token
p362
(dp363
g18
I159
sbasg19
I159
sbasg7
g348
sg101
Nsba.