(lp0
(i__main__
Chain
p1
(dp2
S'mentionList'
p3
(lp4
(i__main__
Mention
p5
(dp6
S'chainId'
p7
S't1'
p8
sS'relType'
p9
NsS'mentionId'
p10
S'i1'
p11
sS'antecedentId'
p12
NsS'crefMod'
p13
NsS'tokenList'
p14
(lp15
(i__main__
Token
p16
(dp17
S'tokenId'
p18
I0
sbasS'mentionHead'
p19
I0
sba(i__main__
Mention
p20
(dp21
g7
S't1'
p22
sg9
S'Coreference-Identity'
p23
sg10
S'i19'
p24
sg12
S'i1'
p25
sg13
Nsg14
(lp26
(i__main__
Token
p27
(dp28
g18
I66
sbasg19
I66
sbasg7
g8
sS'chainHead'
p29
Nsba(i__main__
Chain
p30
(dp31
g3
(lp32
(i__main__
Mention
p33
(dp34
g7
S't2'
p35
sg9
Nsg10
S'i2'
p36
sg12
Nsg13
Nsg14
(lp37
(i__main__
Token
p38
(dp39
g18
I2
sba(i__main__
Token
p40
(dp41
g18
I3
sba(i__main__
Token
p42
(dp43
g18
I4
sbasg19
I4
sba(i__main__
Mention
p44
(dp45
g7
S't2'
p46
sg9
S'Coreference-Noun-Noun'
p47
sg10
S'i3'
p48
sg12
S'i2'
p49
sg13
Nsg14
(lp50
(i__main__
Token
p51
(dp52
g18
I6
sba(i__main__
Token
p53
(dp54
g18
I7
sbasg19
I7
sba(i__main__
Mention
p55
(dp56
g7
S't2'
p57
sg9
S'Coreference-Noun-Noun'
p58
sg10
S'i4'
p59
sg12
S'i3'
p60
sg13
Nsg14
(lp61
(i__main__
Token
p62
(dp63
g18
I14
sbasg19
I14
sba(i__main__
Mention
p64
(dp65
g7
S't2'
p66
sg9
S'Coreference-NounComplement'
p67
sg10
S'i5'
p68
sg12
S'i4'
p69
sg13
Nsg14
(lp70
(i__main__
Token
p71
(dp72
g18
I15
sba(i__main__
Token
p73
(dp74
g18
I16
sbasg19
I16
sba(i__main__
Mention
p75
(dp76
g7
S't2'
p77
sg9
S'Anaphora-C'
p78
sg10
S'i7'
p79
sg12
S'i5'
p80
sg13
Nsg14
(lp81
(i__main__
Token
p82
(dp83
g18
I24
sbasg19
I24
sba(i__main__
Mention
p84
(dp85
g7
S't2'
p86
sg9
S'Anaphora-C'
p87
sg10
S'i11'
p88
sg12
S'i7'
p89
sg13
Nsg14
(lp90
(i__main__
Token
p91
(dp92
g18
I41
sbasg19
I41
sba(i__main__
Mention
p93
(dp94
g7
S't2'
p95
sg9
S'Coreference-Identity'
p96
sg10
S'i14'
p97
sg12
S'i11'
p98
sg13
Nsg14
(lp99
(i__main__
Token
p100
(dp101
g18
I52
sbasg19
I52
sba(i__main__
Mention
p102
(dp103
g7
S't2'
p104
sg9
S'Anaphora-C'
p105
sg10
S'i15'
p106
sg12
S'i14'
p107
sg13
Nsg14
(lp108
(i__main__
Token
p109
(dp110
g18
I54
sbasg19
I54
sba(i__main__
Mention
p111
(dp112
g7
S't2'
p113
sg9
S'Anaphora-C'
p114
sg10
S'i17'
p115
sg12
S'i15'
p116
sg13
Nsg14
(lp117
(i__main__
Token
p118
(dp119
g18
I63
sbasg19
I63
sba(i__main__
Mention
p120
(dp121
g7
S't2'
p122
sg9
S'Anaphora-C'
p123
sg10
S'i23'
p124
sg12
S'i17'
p125
sg13
Nsg14
(lp126
(i__main__
Token
p127
(dp128
g18
I91
sbasg19
I91
sba(i__main__
Mention
p129
(dp130
g7
S't2'
p131
sg9
S'Anaphora-C'
p132
sg10
S'i29'
p133
sg12
S'i23'
p134
sg13
Nsg14
(lp135
(i__main__
Token
p136
(dp137
g18
I98
sbasg19
I98
sba(i__main__
Mention
p138
(dp139
g7
S't2'
p140
sg9
S'Coreference-Noun-Noun'
p141
sg10
S'i33'
p142
sg12
S'i29'
p143
sg13
Nsg14
(lp144
(i__main__
Token
p145
(dp146
g18
I122
sbasg19
I122
sba(i__main__
Mention
p147
(dp148
g7
S't2'
p149
sg9
S'Coreference-NounComplement'
p150
sg10
S'i34'
p151
sg12
S'i33'
p152
sg13
Nsg14
(lp153
(i__main__
Token
p154
(dp155
g18
I123
sbasg19
I123
sba(i__main__
Mention
p156
(dp157
g7
S't2'
p158
sg9
S'Coreference-Identity'
p159
sg10
S'i37'
p160
sg12
S'i34'
p161
sg13
Nsg14
(lp162
(i__main__
Token
p163
(dp164
g18
I143
sbasg19
I143
sba(i__main__
Mention
p165
(dp166
g7
S't2'
p167
sg9
S'Anaphora-C'
p168
sg10
S'i41'
p169
sg12
S'i37'
p170
sg13
Nsg14
(lp171
(i__main__
Token
p172
(dp173
g18
I159
sbasg19
I159
sba(i__main__
Mention
p174
(dp175
g7
S't2'
p176
sg9
S'Coreference-Noun-Noun'
p177
sg10
S'i42'
p178
sg12
S'i41'
p179
sg13
Nsg14
(lp180
(i__main__
Token
p181
(dp182
g18
I160
sba(i__main__
Token
p183
(dp184
g18
I161
sba(i__main__
Token
p185
(dp186
g18
I162
sbasg19
I162
sba(i__main__
Mention
p187
(dp188
g7
S't2'
p189
sg9
S'Coreference-Noun-Noun'
p190
sg10
S'i43'
p191
sg12
S'i42'
p192
sg13
Nsg14
(lp193
(i__main__
Token
p194
(dp195
g18
I165
sba(i__main__
Token
p196
(dp197
g18
I166
sbasg19
I166
sba(i__main__
Mention
p198
(dp199
g7
S't2'
p200
sg9
S'Anaphora-C'
p201
sg10
S'i44'
p202
sg12
S'i43'
p203
sg13
Nsg14
(lp204
(i__main__
Token
p205
(dp206
g18
I170
sbasg19
I170
sba(i__main__
Mention
p207
(dp208
g7
S't2'
p209
sg9
S'Anaphora-C'
p210
sg10
S'i45'
p211
sg12
S'i44'
p212
sg13
Nsg14
(lp213
(i__main__
Token
p214
(dp215
g18
I178
sbasg19
I178
sba(i__main__
Mention
p216
(dp217
g7
S't2'
p218
sg9
S'Coreference-Noun-Noun'
p219
sg10
S'i48'
p220
sg12
S'i45'
p221
sg13
Nsg14
(lp222
(i__main__
Token
p223
(dp224
g18
I192
sbasg19
I192
sba(i__main__
Mention
p225
(dp226
g7
S't2'
p227
sg9
S'Coreference-Noun-Noun'
p228
sg10
S'i50'
p229
sg12
S'i48'
p230
sg13
Nsg14
(lp231
(i__main__
Token
p232
(dp233
g18
I196
sba(i__main__
Token
p234
(dp235
g18
I197
sba(i__main__
Token
p236
(dp237
g18
I198
sbasg19
I198
sbasg7
g35
sg29
Nsba(i__main__
Chain
p238
(dp239
g3
(lp240
(i__main__
Mention
p241
(dp242
g7
S't3'
p243
sg9
Nsg10
S'i6'
p244
sg12
Nsg13
Nsg14
(lp245
(i__main__
Token
p246
(dp247
g18
I20
sbasg19
I20
sba(i__main__
Mention
p248
(dp249
g7
S't3'
p250
sg9
S'Coreference-InferedRelation'
p251
sg10
S'i18'
p252
sg12
S'i6'
p253
sg13
Nsg14
(lp254
(i__main__
Token
p255
(dp256
g18
I64
sbasg19
I64
sba(i__main__
Mention
p257
(dp258
g7
S't3'
p259
sg9
S'Coreference-Identity'
p260
sg10
S'i35'
p261
sg12
S'i18'
p262
sg13
Nsg14
(lp263
(i__main__
Token
p264
(dp265
g18
I125
sbasg19
I125
sbasg7
g243
sg29
Nsba(i__main__
Chain
p266
(dp267
g3
(lp268
(i__main__
Mention
p269
(dp270
g7
S't4'
p271
sg9
Nsg10
S'i8'
p272
sg12
Nsg13
Nsg14
(lp273
(i__main__
Token
p274
(dp275
g18
I30
sbasg19
I30
sba(i__main__
Mention
p276
(dp277
g7
S't4'
p278
sg9
S'Coreference-Identity'
p279
sg10
S'i16'
p280
sg12
S'i8'
p281
sg13
Nsg14
(lp282
(i__main__
Token
p283
(dp284
g18
I55
sbasg19
I55
sba(i__main__
Mention
p285
(dp286
g7
S't4'
p287
sg9
S'Coreference-Identity'
p288
sg10
S'i36'
p289
sg12
S'i16'
p290
sg13
Nsg14
(lp291
(i__main__
Token
p292
(dp293
g18
I137
sbasg19
I137
sbasg7
g271
sg29
Nsba(i__main__
Chain
p294
(dp295
g3
(lp296
(i__main__
Mention
p297
(dp298
g7
S't5'
p299
sg9
Nsg10
S'i9'
p300
sg12
Nsg13
Nsg14
(lp301
(i__main__
Token
p302
(dp303
g18
I34
sbasg19
I34
sba(i__main__
Mention
p304
(dp305
g7
S't5'
p306
sg9
S'Coreference-NounComplement'
p307
sg10
S'i10'
p308
sg12
S'i9'
p309
sg13
Nsg14
(lp310
(i__main__
Token
p311
(dp312
g18
I35
sba(i__main__
Token
p313
(dp314
g18
I36
sba(i__main__
Token
p315
(dp316
g18
I37
sbasg19
I37
sbasg7
g299
sg29
Nsba(i__main__
Chain
p317
(dp318
g3
(lp319
(i__main__
Mention
p320
(dp321
g7
S't6'
p322
sg9
Nsg10
S'i12'
p323
sg12
Nsg13
Nsg14
(lp324
(i__main__
Token
p325
(dp326
g18
I42
sbasg19
I42
sba(i__main__
Mention
p327
(dp328
g7
S't6'
p329
sg9
S'Coreference-NounComplement'
p330
sg10
S'i13'
p331
sg12
S'i12'
p332
sg13
Nsg14
(lp333
(i__main__
Token
p334
(dp335
g18
I43
sbasg19
I43
sba(i__main__
Mention
p336
(dp337
g7
S't6'
p338
sg9
S'Coreference-Noun-Noun'
p339
sg10
S'i24'
p340
sg12
S'i13'
p341
sg13
Nsg14
(lp342
(i__main__
Token
p343
(dp344
g18
I92
sbasg19
I92
sbasg7
g322
sg29
Nsba(i__main__
Chain
p345
(dp346
g3
(lp347
(i__main__
Mention
p348
(dp349
g7
S't7'
p350
sg9
Nsg10
S'i20'
p351
sg12
Nsg13
Nsg14
(lp352
(i__main__
Token
p353
(dp354
g18
I68
sbasg19
I68
sba(i__main__
Mention
p355
(dp356
g7
S't7'
p357
sg9
S'Coreference-NounComplement'
p358
sg10
S'i21'
p359
sg12
S'i20'
p360
sg13
Nsg14
(lp361
(i__main__
Token
p362
(dp363
g18
I69
sba(i__main__
Token
p364
(dp365
g18
I70
sbasg19
I70
sba(i__main__
Mention
p366
(dp367
g7
S't7'
p368
sg9
S'Coreference-Noun-Noun'
p369
sg10
S'i38'
p370
sg12
S'i21'
p371
sg13
Nsg14
(lp372
(i__main__
Token
p373
(dp374
g18
I151
sbasg19
I151
sba(i__main__
Mention
p375
(dp376
g7
S't7'
p377
sg9
S'Coreference-NounComplement'
p378
sg10
S'i39'
p379
sg12
S'i38'
p380
sg13
Nsg14
(lp381
(i__main__
Token
p382
(dp383
g18
I152
sba(i__main__
Token
p384
(dp385
g18
I153
sbasg19
I153
sba(i__main__
Mention
p386
(dp387
g7
S't7'
p388
sg9
S'Anaphora-C'
p389
sg10
S'i40'
p390
sg12
S'i39'
p391
sg13
Nsg14
(lp392
(i__main__
Token
p393
(dp394
g18
I155
sbasg19
I155
sbasg7
g350
sg29
Nsba(i__main__
Chain
p395
(dp396
g3
(lp397
(i__main__
Mention
p398
(dp399
g7
S't8'
p400
sg9
Nsg10
S'i22'
p401
sg12
Nsg13
Nsg14
(lp402
(i__main__
Token
p403
(dp404
g18
I80
sba(i__main__
Token
p405
(dp406
g18
I81
sba(i__main__
Token
p407
(dp408
g18
I82
sba(i__main__
Token
p409
(dp410
g18
I83
sbasg19
I83
sba(i__main__
Mention
p411
(dp412
g7
S't8'
p413
sg9
S'Coreference-Identity'
p414
sg10
S'i30'
p415
sg12
S'i22'
p416
sg13
Nsg14
(lp417
(i__main__
Token
p418
(dp419
g18
I103
sbasg19
I103
sbasg7
g400
sg29
Nsba(i__main__
Chain
p420
(dp421
g3
(lp422
(i__main__
Mention
p423
(dp424
g7
S't9'
p425
sg9
Nsg10
S'i25'
p426
sg12
Nsg13
Nsg14
(lp427
(i__main__
Token
p428
(dp429
g18
I94
sbasg19
Nsba(i__main__
Mention
p430
(dp431
g7
S't9'
p432
sg9
S'Coreference-PartOf'
p433
sg10
S'i27'
p434
sg12
S'i25'
p435
sg13
Nsg14
(lp436
(i__main__
Token
p437
(dp438
g18
I95
sbasg19
I95
sbasg7
g425
sg29
Nsba(i__main__
Chain
p439
(dp440
g3
(lp441
(i__main__
Mention
p442
(dp443
g7
S't10'
p444
sg9
Nsg10
S'i26'
p445
sg12
Nsg13
Nsg14
(lp446
(i__main__
Token
p447
(dp448
g18
I94
sbasg19
Nsba(i__main__
Mention
p449
(dp450
g7
S't10'
p451
sg9
S'Coreference-PartOf'
p452
sg10
S'i28'
p453
sg12
S'i26'
p454
sg13
Nsg14
(lp455
(i__main__
Token
p456
(dp457
g18
I97
sbasg19
I97
sbasg7
g444
sg29
Nsba(i__main__
Chain
p458
(dp459
g3
(lp460
(i__main__
Mention
p461
(dp462
g7
S't11'
p463
sg9
Nsg10
S'i31'
p464
sg12
Nsg13
Nsg14
(lp465
(i__main__
Token
p466
(dp467
g18
I105
sba(i__main__
Token
p468
(dp469
g18
I106
sbasg19
I106
sba(i__main__
Mention
p470
(dp471
g7
S't11'
p472
sg9
S'Coreference-Noun-Noun'
p473
sg10
S'i32'
p474
sg12
S'i31'
p475
sg13
Nsg14
(lp476
(i__main__
Token
p477
(dp478
g18
I114
sba(i__main__
Token
p479
(dp480
g18
I115
sba(i__main__
Token
p481
(dp482
g18
I116
sba(i__main__
Token
p483
(dp484
g18
I117
sba(i__main__
Token
p485
(dp486
g18
I118
sba(i__main__
Token
p487
(dp488
g18
I119
sba(i__main__
Token
p489
(dp490
g18
I120
sba(i__main__
Token
p491
(dp492
g18
I121
sba(i__main__
Token
p493
(dp494
g18
I122
sba(i__main__
Token
p495
(dp496
g18
I123
sba(i__main__
Token
p497
(dp498
g18
I124
sba(i__main__
Token
p499
(dp500
g18
I125
sba(i__main__
Token
p501
(dp502
g18
I126
sba(i__main__
Token
p503
(dp504
g18
I127
sba(i__main__
Token
p505
(dp506
g18
I128
sba(i__main__
Token
p507
(dp508
g18
I129
sbasg19
I129
sbasg7
g463
sg29
Nsba(i__main__
Chain
p509
(dp510
g3
(lp511
(i__main__
Mention
p512
(dp513
g7
S't12'
p514
sg9
Nsg10
S'i46'
p515
sg12
Nsg13
Nsg14
(lp516
(i__main__
Token
p517
(dp518
g18
I179
sba(i__main__
Token
p519
(dp520
g18
I180
sbasg19
I180
sba(i__main__
Mention
p521
(dp522
g7
S't12'
p523
sg9
S'Coreference-NounComplement'
p524
sg10
S'i47'
p525
sg12
S'i46'
p526
sg13
Nsg14
(lp527
(i__main__
Token
p528
(dp529
g18
I181
sba(i__main__
Token
p530
(dp531
g18
I182
sbasg19
I182
sba(i__main__
Mention
p532
(dp533
g7
S't12'
p534
sg9
S'Anaphora-C'
p535
sg10
S'i49'
p536
sg12
S'i47'
p537
sg13
Nsg14
(lp538
(i__main__
Token
p539
(dp540
g18
I193
sbasg19
I193
sbasg7
g514
sg29
Nsba.