(lp0
(i__main__
Chain
p1
(dp2
S'mentionList'
p3
(lp4
(i__main__
Mention
p5
(dp6
S'chainId'
p7
S't1'
p8
sS'relType'
p9
NsS'mentionId'
p10
S'i1'
p11
sS'antecedentId'
p12
NsS'crefMod'
p13
NsS'tokenList'
p14
(lp15
(i__main__
Token
p16
(dp17
S'tokenId'
p18
I0
sbasS'mentionHead'
p19
I0
sba(i__main__
Mention
p20
(dp21
g7
S't1'
p22
sg9
S'Coreference-Identity'
p23
sg10
S'i32'
p24
sg12
S'i1'
p25
sg13
Nsg14
(lp26
(i__main__
Token
p27
(dp28
g18
I164
sbasg19
I164
sba(i__main__
Mention
p29
(dp30
g7
S't1'
p31
sg9
S'Coreference-Identity'
p32
sg10
S'i53'
p33
sg12
S'i32'
p34
sg13
Nsg14
(lp35
(i__main__
Token
p36
(dp37
g18
I293
sbasg19
I293
sbasg7
g8
sS'chainHead'
p38
Nsba(i__main__
Chain
p39
(dp40
g3
(lp41
(i__main__
Mention
p42
(dp43
g7
S't2'
p44
sg9
Nsg10
S'i2'
p45
sg12
Nsg13
Nsg14
(lp46
(i__main__
Token
p47
(dp48
g18
I2
sba(i__main__
Token
p49
(dp50
g18
I3
sba(i__main__
Token
p51
(dp52
g18
I4
sbasg19
I4
sba(i__main__
Mention
p53
(dp54
g7
S't2'
p55
sg9
S'Coreference-Noun-Noun'
p56
sg10
S'i4'
p57
sg12
S'i2'
p58
sg13
Nsg14
(lp59
(i__main__
Token
p60
(dp61
g18
I13
sba(i__main__
Token
p62
(dp63
g18
I14
sbasg19
I14
sba(i__main__
Mention
p64
(dp65
g7
S't2'
p66
sg9
S'Coreference-NounComplement'
p67
sg10
S'i5'
p68
sg12
S'i4'
p69
sg13
Nsg14
(lp70
(i__main__
Token
p71
(dp72
g18
I15
sba(i__main__
Token
p73
(dp74
g18
I16
sbasg19
I16
sba(i__main__
Mention
p75
(dp76
g7
S't2'
p77
sg9
S'Anaphora-C'
p78
sg10
S'i7'
p79
sg12
S'i5'
p80
sg13
Nsg14
(lp81
(i__main__
Token
p82
(dp83
g18
I29
sbasg19
I29
sba(i__main__
Mention
p84
(dp85
g7
S't2'
p86
sg9
S'Coreference-Identity'
p87
sg10
S'i16'
p88
sg12
S'i7'
p89
sg13
Nsg14
(lp90
(i__main__
Token
p91
(dp92
g18
I77
sbasg19
I77
sba(i__main__
Mention
p93
(dp94
g7
S't2'
p95
sg9
S'Anaphora-C'
p96
sg10
S'i20'
p97
sg12
S'i16'
p98
sg13
Nsg14
(lp99
(i__main__
Token
p100
(dp101
g18
I93
sbasg19
I93
sba(i__main__
Mention
p102
(dp103
g7
S't2'
p104
sg9
S'Coreference-Identity'
p105
sg10
S'i21'
p106
sg12
S'i20'
p107
sg13
Nsg14
(lp108
(i__main__
Token
p109
(dp110
g18
I99
sbasg19
I99
sba(i__main__
Mention
p111
(dp112
g7
S't2'
p113
sg9
S'Anaphora-C'
p114
sg10
S'i22'
p115
sg12
S'i21'
p116
sg13
Nsg14
(lp117
(i__main__
Token
p118
(dp119
g18
I113
sbasg19
I113
sba(i__main__
Mention
p120
(dp121
g7
S't2'
p122
sg9
S'Coreference-Identity'
p123
sg10
S'i41'
p124
sg12
S'i22'
p125
sg13
Nsg14
(lp126
(i__main__
Token
p127
(dp128
g18
I204
sbasg19
I204
sba(i__main__
Mention
p129
(dp130
g7
S't2'
p131
sg9
S'Coreference-Identity'
p132
sg10
S'i43'
p133
sg12
S'i41'
p134
sg13
Nsg14
(lp135
(i__main__
Token
p136
(dp137
g18
I212
sbasg19
I212
sba(i__main__
Mention
p138
(dp139
g7
S't2'
p140
sg9
S'Coreference-Identity'
p141
sg10
S'i46'
p142
sg12
S'i43'
p143
sg13
Nsg14
(lp144
(i__main__
Token
p145
(dp146
g18
I245
sbasg19
I245
sba(i__main__
Mention
p147
(dp148
g7
S't2'
p149
sg9
S'Coreference-Identity'
p150
sg10
S'i47'
p151
sg12
S'i46'
p152
sg13
Nsg14
(lp153
(i__main__
Token
p154
(dp155
g18
I260
sbasg19
I260
sba(i__main__
Mention
p156
(dp157
g7
S't2'
p158
sg9
S'Anaphora-C'
p159
sg10
S'i51'
p160
sg12
S'i47'
p161
sg13
Nsg14
(lp162
(i__main__
Token
p163
(dp164
g18
I275
sbasg19
I275
sba(i__main__
Mention
p165
(dp166
g7
S't2'
p167
sg9
S'Anaphora-C'
p168
sg10
S'i52'
p169
sg12
S'i51'
p170
sg13
Nsg14
(lp171
(i__main__
Token
p172
(dp173
g18
I284
sbasg19
I284
sba(i__main__
Mention
p174
(dp175
g7
S't2'
p176
sg9
S'Coreference-Identity'
p177
sg10
S'i54'
p178
sg12
S'i52'
p179
sg13
Nsg14
(lp180
(i__main__
Token
p181
(dp182
g18
I298
sbasg19
I298
sba(i__main__
Mention
p183
(dp184
g7
S't2'
p185
sg9
S'Anaphora-C'
p186
sg10
S'i58'
p187
sg12
S'i54'
p188
sg13
Nsg14
(lp189
(i__main__
Token
p190
(dp191
g18
I310
sbasg19
I310
sba(i__main__
Mention
p192
(dp193
g7
S't2'
p194
sg9
S'Anaphora-C'
p195
sg10
S'i60'
p196
sg12
S'i58'
p197
sg13
Nsg14
(lp198
(i__main__
Token
p199
(dp200
g18
I321
sbasg19
I321
sba(i__main__
Mention
p201
(dp202
g7
S't2'
p203
sg9
S'Coreference-Identity'
p204
sg10
S'i61'
p205
sg12
S'i60'
p206
sg13
Nsg14
(lp207
(i__main__
Token
p208
(dp209
g18
I332
sbasg19
I332
sba(i__main__
Mention
p210
(dp211
g7
S't2'
p212
sg9
S'Coreference-Noun-Noun'
p213
sg10
S'i64'
p214
sg12
S'i61'
p215
sg13
Nsg14
(lp216
(i__main__
Token
p217
(dp218
g18
I338
sba(i__main__
Token
p219
(dp220
g18
I339
sba(i__main__
Token
p221
(dp222
g18
I340
sba(i__main__
Token
p223
(dp224
g18
I341
sba(i__main__
Token
p225
(dp226
g18
I342
sbasg19
I342
sba(i__main__
Mention
p227
(dp228
g7
S't2'
p229
sg9
S'Anaphora-C'
p230
sg10
S'i67'
p231
sg12
S'i64'
p232
sg13
Nsg14
(lp233
(i__main__
Token
p234
(dp235
g18
I352
sbasg19
I352
sba(i__main__
Mention
p236
(dp237
g7
S't2'
p238
sg9
S'Coreference-Noun-Noun'
p239
sg10
S'i70'
p240
sg12
S'i67'
p241
sg13
Nsg14
(lp242
(i__main__
Token
p243
(dp244
g18
I368
sbasg19
I368
sbasg7
g44
sg38
Nsba(i__main__
Chain
p245
(dp246
g3
(lp247
(i__main__
Mention
p248
(dp249
g7
S't3'
p250
sg9
Nsg10
S'i3'
p251
sg12
Nsg13
Nsg14
(lp252
(i__main__
Token
p253
(dp254
g18
I9
sbasg19
I9
sba(i__main__
Mention
p255
(dp256
g7
S't3'
p257
sg9
S'Coreference-Identity'
p258
sg10
S'i36'
p259
sg12
S'i3'
p260
sg13
Nsg14
(lp261
(i__main__
Token
p262
(dp263
g18
I183
sbasg19
I183
sba(i__main__
Mention
p264
(dp265
g7
S't3'
p266
sg9
S'Coreference-Identity'
p267
sg10
S'i38'
p268
sg12
S'i36'
p269
sg13
Nsg14
(lp270
(i__main__
Token
p271
(dp272
g18
I190
sbasg19
I190
sba(i__main__
Mention
p273
(dp274
g7
S't3'
p275
sg9
S'Anaphora-C'
p276
sg10
S'i39'
p277
sg12
S'i38'
p278
sg13
Nsg14
(lp279
(i__main__
Token
p280
(dp281
g18
I196
sbasg19
I196
sba(i__main__
Mention
p282
(dp283
g7
S't3'
p284
sg9
S'Anaphora-C'
p285
sg10
S'i40'
p286
sg12
S'i39'
p287
sg13
Nsg14
(lp288
(i__main__
Token
p289
(dp290
g18
I197
sbasg19
I197
sba(i__main__
Mention
p291
(dp292
g7
S't3'
p293
sg9
S'Coreference-Identity'
p294
sg10
S'i55'
p295
sg12
S'i40'
p296
sg13
Nsg14
(lp297
(i__main__
Token
p298
(dp299
g18
I299
sbasg19
I299
sba(i__main__
Mention
p300
(dp301
g7
S't3'
p302
sg9
S'Coreference-Identity'
p303
sg10
S'i72'
p304
sg12
S'i55'
p305
sg13
Nsg14
(lp306
(i__main__
Token
p307
(dp308
g18
I378
sbasg19
I378
sbasg7
g250
sg38
Nsba(i__main__
Chain
p309
(dp310
g3
(lp311
(i__main__
Mention
p312
(dp313
g7
S't4'
p314
sg9
Nsg10
S'i6'
p315
sg12
Nsg13
Nsg14
(lp316
(i__main__
Token
p317
(dp318
g18
I27
sbasg19
I27
sba(i__main__
Mention
p319
(dp320
g7
S't4'
p321
sg9
S'Coreference-Identity'
p322
sg10
S'i26'
p323
sg12
S'i6'
p324
sg13
Nsg14
(lp325
(i__main__
Token
p326
(dp327
g18
I130
sbasg19
I130
sba(i__main__
Mention
p328
(dp329
g7
S't4'
p330
sg9
S'Coreference-Identity'
p331
sg10
S'i69'
p332
sg12
S'i26'
p333
sg13
Nsg14
(lp334
(i__main__
Token
p335
(dp336
g18
I365
sbasg19
I365
sbasg7
g314
sg38
Nsba(i__main__
Chain
p337
(dp338
g3
(lp339
(i__main__
Mention
p340
(dp341
g7
S't5'
p342
sg9
Nsg10
S'i8'
p343
sg12
Nsg13
Nsg14
(lp344
(i__main__
Token
p345
(dp346
g18
I32
sba(i__main__
Token
p347
(dp348
g18
I33
sba(i__main__
Token
p349
(dp350
g18
I34
sba(i__main__
Token
p351
(dp352
g18
I35
sbasg19
I35
sba(i__main__
Mention
p353
(dp354
g7
S't5'
p355
sg9
S'Coreference-Identity'
p356
sg10
S'i9'
p357
sg12
S'i8'
p358
sg13
Nsg14
(lp359
(i__main__
Token
p360
(dp361
g18
I43
sba(i__main__
Token
p362
(dp363
g18
I44
sbasg19
I44
sba(i__main__
Mention
p364
(dp365
g7
S't5'
p366
sg9
S'Coreference-Identity'
p367
sg10
S'i15'
p368
sg12
S'i9'
p369
sg13
Nsg14
(lp370
(i__main__
Token
p371
(dp372
g18
I71
sba(i__main__
Token
p373
(dp374
g18
I72
sbasg19
I72
sba(i__main__
Mention
p375
(dp376
g7
S't5'
p377
sg9
S'Coreference-Identity'
p378
sg10
S'i30'
p379
sg12
S'i15'
p380
sg13
Nsg14
(lp381
(i__main__
Token
p382
(dp383
g18
I151
sba(i__main__
Token
p384
(dp385
g18
I152
sba(i__main__
Token
p386
(dp387
g18
I153
sba(i__main__
Token
p388
(dp389
g18
I154
sbasg19
I154
sba(i__main__
Mention
p390
(dp391
g7
S't5'
p392
sg9
S'Coreference-Identity'
p393
sg10
S'i33'
p394
sg12
S'i30'
p395
sg13
Nsg14
(lp396
(i__main__
Token
p397
(dp398
g18
I170
sba(i__main__
Token
p399
(dp400
g18
I171
sbasg19
I171
sba(i__main__
Mention
p401
(dp402
g7
S't5'
p403
sg9
S'Coreference-Identity'
p404
sg10
S'i71'
p405
sg12
S'i33'
p406
sg13
Nsg14
(lp407
(i__main__
Token
p408
(dp409
g18
I371
sba(i__main__
Token
p410
(dp411
g18
I372
sba(i__main__
Token
p412
(dp413
g18
I373
sbasg19
I373
sbasg7
g342
sg38
Nsba(i__main__
Chain
p414
(dp415
g3
(lp416
(i__main__
Mention
p417
(dp418
g7
S't6'
p419
sg9
Nsg10
S'i10'
p420
sg12
Nsg13
Nsg14
(lp421
(i__main__
Token
p422
(dp423
g18
I45
sba(i__main__
Token
p424
(dp425
g18
I46
sbasg19
I46
sba(i__main__
Mention
p426
(dp427
g7
S't6'
p428
sg9
S'Anaphora-C'
p429
sg10
S'i11'
p430
sg12
S'i10'
p431
sg13
Nsg14
(lp432
(i__main__
Token
p433
(dp434
g18
I54
sbasg19
I54
sbasg7
g419
sg38
Nsba(i__main__
Chain
p435
(dp436
g3
(lp437
(i__main__
Mention
p438
(dp439
g7
S't7'
p440
sg9
Nsg10
S'i12'
p441
sg12
Nsg13
Nsg14
(lp442
(i__main__
Token
p443
(dp444
g18
I55
sba(i__main__
Token
p445
(dp446
g18
I56
sba(i__main__
Token
p447
(dp448
g18
I57
sbasg19
I57
sba(i__main__
Mention
p449
(dp450
g7
S't7'
p451
sg9
S'Coreference-Identity'
p452
sg10
S'i28'
p453
sg12
S'i12'
p454
sg13
Nsg14
(lp455
(i__main__
Token
p456
(dp457
g18
I142
sba(i__main__
Token
p458
(dp459
g18
I143
sbasg19
I143
sbasg7
g440
sg38
Nsba(i__main__
Chain
p460
(dp461
g3
(lp462
(i__main__
Mention
p463
(dp464
g7
S't8'
p465
sg9
Nsg10
S'i13'
p466
sg12
Nsg13
Nsg14
(lp467
(i__main__
Token
p468
(dp469
g18
I59
sbasg19
I59
sba(i__main__
Mention
p470
(dp471
g7
S't8'
p472
sg9
S'Coreference-Identity'
p473
sg10
S'i29'
p474
sg12
S'i13'
p475
sg13
Nsg14
(lp476
(i__main__
Token
p477
(dp478
g18
I145
sbasg19
I145
sbasg7
g465
sg38
Nsba(i__main__
Chain
p479
(dp480
g3
(lp481
(i__main__
Mention
p482
(dp483
g7
S't9'
p484
sg9
Nsg10
S'i14'
p485
sg12
Nsg13
Nsg14
(lp486
(i__main__
Token
p487
(dp488
g18
I65
sba(i__main__
Token
p489
(dp490
g18
I66
sbasg19
I66
sba(i__main__
Mention
p491
(dp492
g7
S't9'
p493
sg9
S'Coreference-Identity'
p494
sg10
S'i44'
p495
sg12
S'i14'
p496
sg13
Nsg14
(lp497
(i__main__
Token
p498
(dp499
g18
I233
sba(i__main__
Token
p500
(dp501
g18
I234
sbasg19
I234
sba(i__main__
Mention
p502
(dp503
g7
S't9'
p504
sg9
S'Coreference-Identity'
p505
sg10
S'i48'
p506
sg12
S'i44'
p507
sg13
Nsg14
(lp508
(i__main__
Token
p509
(dp510
g18
I262
sba(i__main__
Token
p511
(dp512
g18
I263
sbasg19
I263
sba(i__main__
Mention
p513
(dp514
g7
S't9'
p515
sg9
S'Coreference-Identity'
p516
sg10
S'i68'
p517
sg12
S'i48'
p518
sg13
Nsg14
(lp519
(i__main__
Token
p520
(dp521
g18
I358
sba(i__main__
Token
p522
(dp523
g18
I359
sbasg19
I359
sbasg7
g484
sg38
Nsba(i__main__
Chain
p524
(dp525
g3
(lp526
(i__main__
Mention
p527
(dp528
g7
S't10'
p529
sg9
Nsg10
S'i17'
p530
sg12
Nsg13
Nsg14
(lp531
(i__main__
Token
p532
(dp533
g18
I79
sba(i__main__
Token
p534
(dp535
g18
I80
sbasg19
I80
sba(i__main__
Mention
p536
(dp537
g7
S't10'
p538
sg9
S'Coreference-Noun-Noun'
p539
sg10
S'i18'
p540
sg12
S'i17'
p541
sg13
Nsg14
(lp542
(i__main__
Token
p543
(dp544
g18
I89
sba(i__main__
Token
p545
(dp546
g18
I90
sba(i__main__
Token
p547
(dp548
g18
I91
sbasg19
I91
sba(i__main__
Mention
p549
(dp550
g7
S't10'
p551
sg9
S'Coreference-Noun-Noun'
p552
sg10
S'i34'
p553
sg12
S'i18'
p554
sg13
Nsg14
(lp555
(i__main__
Token
p556
(dp557
g18
I173
sba(i__main__
Token
p558
(dp559
g18
I174
sba(i__main__
Token
p560
(dp561
g18
I175
sbasg19
I175
sba(i__main__
Mention
p562
(dp563
g7
S't10'
p564
sg9
S'Coreference-Identity'
p565
sg10
S'i35'
p566
sg12
S'i34'
p567
sg13
Nsg14
(lp568
(i__main__
Token
p569
(dp570
g18
I180
sba(i__main__
Token
p571
(dp572
g18
I181
sbasg19
I181
sbasg7
g529
sg38
Nsba(i__main__
Chain
p573
(dp574
g3
(lp575
(i__main__
Mention
p576
(dp577
g7
S't11'
p578
sg9
Nsg10
S'i19'
p579
sg12
Nsg13
Nsg14
(lp580
(i__main__
Token
p581
(dp582
g18
I92
sbasg19
I92
sbasg7
g578
sg38
Nsba(i__main__
Chain
p583
(dp584
g3
(lp585
(i__main__
Mention
p586
(dp587
g7
S't12'
p588
sg9
Nsg10
S'i23'
p589
sg12
Nsg13
Nsg14
(lp590
(i__main__
Token
p591
(dp592
g18
I114
sbasg19
I114
sba(i__main__
Mention
p593
(dp594
g7
S't12'
p595
sg9
S'Anaphora-C'
p596
sg10
S'i24'
p597
sg12
S'i23'
p598
sg13
Nsg14
(lp599
(i__main__
Token
p600
(dp601
g18
I116
sbasg19
I116
sba(i__main__
Mention
p602
(dp603
g7
S't12'
p604
sg9
S'Coreference-Identity'
p605
sg10
S'i62'
p606
sg12
S'i24'
p607
sg13
Nsg14
(lp608
(i__main__
Token
p609
(dp610
g18
I334
sbasg19
I334
sba(i__main__
Mention
p611
(dp612
g7
S't12'
p613
sg9
S'Coreference-Identity'
p614
sg10
S'i66'
p615
sg12
S'i62'
p616
sg13
Nsg14
(lp617
(i__main__
Token
p618
(dp619
g18
I350
sbasg19
I350
sbasg7
g588
sg38
Nsba(i__main__
Chain
p620
(dp621
g3
(lp622
(i__main__
Mention
p623
(dp624
g7
S't13'
p625
sg9
Nsg10
S'i25'
p626
sg12
Nsg13
Nsg14
(lp627
(i__main__
Token
p628
(dp629
g18
I127
sbasg19
I127
sbasg7
g625
sg38
Nsba(i__main__
Chain
p630
(dp631
g3
(lp632
(i__main__
Mention
p633
(dp634
g7
S't14'
p635
sg9
Nsg10
S'i27'
p636
sg12
Nsg13
Nsg14
(lp637
(i__main__
Token
p638
(dp639
g18
I132
sbasg19
I132
sba(i__main__
Mention
p640
(dp641
g7
S't14'
p642
sg9
S'Coreference-Noun-Noun'
p643
sg10
S'i31'
p644
sg12
S'i27'
p645
sg13
Nsg14
(lp646
(i__main__
Token
p647
(dp648
g18
I161
sba(i__main__
Token
p649
(dp650
g18
I162
sbasg19
I162
sbasg7
g635
sg38
Nsba(i__main__
Chain
p651
(dp652
g3
(lp653
(i__main__
Mention
p654
(dp655
g7
S't15'
p656
sg9
Nsg10
S'i37'
p657
sg12
Nsg13
Nsg14
(lp658
(i__main__
Token
p659
(dp660
g18
I188
sbasg19
I188
sbasg7
g656
sg38
Nsba(i__main__
Chain
p661
(dp662
g3
(lp663
(i__main__
Mention
p664
(dp665
g7
S't16'
p666
sg9
Nsg10
S'i42'
p667
sg12
Nsg13
Nsg14
(lp668
(i__main__
Token
p669
(dp670
g18
I209
sbasg19
I209
sbasg7
g666
sg38
Nsba(i__main__
Chain
p671
(dp672
g3
(lp673
(i__main__
Mention
p674
(dp675
g7
S't17'
p676
sg9
Nsg10
S'i45'
p677
sg12
Nsg13
Nsg14
(lp678
(i__main__
Token
p679
(dp680
g18
I243
sbasg19
I243
sba(i__main__
Mention
p681
(dp682
g7
S't17'
p683
sg9
S'Coreference-Identity'
p684
sg10
S'i49'
p685
sg12
S'i45'
p686
sg13
Nsg14
(lp687
(i__main__
Token
p688
(dp689
g18
I265
sba(i__main__
Token
p690
(dp691
g18
I266
sbasg19
I266
sba(i__main__
Mention
p692
(dp693
g7
S't17'
p694
sg9
S'Anaphora-C'
p695
sg10
S'i50'
p696
sg12
S'i49'
p697
sg13
Nsg14
(lp698
(i__main__
Token
p699
(dp700
g18
I274
sbasg19
I274
sbasg7
g676
sg38
Nsba(i__main__
Chain
p701
(dp702
g3
(lp703
(i__main__
Mention
p704
(dp705
g7
S't18'
p706
sg9
Nsg10
S'i56'
p707
sg12
Nsg13
Nsg14
(lp708
(i__main__
Token
p709
(dp710
g18
I301
sba(i__main__
Token
p711
(dp712
g18
I302
sbasg19
I302
sba(i__main__
Mention
p713
(dp714
g7
S't18'
p715
sg9
S'Anaphora-C'
p716
sg10
S'i57'
p717
sg12
S'i56'
p718
sg13
Nsg14
(lp719
(i__main__
Token
p720
(dp721
g18
I308
sbasg19
I308
sbasg7
g706
sg38
Nsba(i__main__
Chain
p722
(dp723
g3
(lp724
(i__main__
Mention
p725
(dp726
g7
S't19'
p727
sg9
Nsg10
S'i59'
p728
sg12
Nsg13
Nsg14
(lp729
(i__main__
Token
p730
(dp731
g18
I319
sbasg19
I319
sbasg7
g727
sg38
Nsba(i__main__
Chain
p732
(dp733
g3
(lp734
(i__main__
Mention
p735
(dp736
g7
S't20'
p737
sg9
Nsg10
S'i63'
p738
sg12
Nsg13
Nsg14
(lp739
(i__main__
Token
p740
(dp741
g18
I336
sba(i__main__
Token
p742
(dp743
g18
I337
sba(i__main__
Token
p744
(dp745
g18
I338
sba(i__main__
Token
p746
(dp747
g18
I339
sba(i__main__
Token
p748
(dp749
g18
I340
sba(i__main__
Token
p750
(dp751
g18
I341
sba(i__main__
Token
p752
(dp753
g18
I342
sba(i__main__
Token
p754
(dp755
g18
I343
sba(i__main__
Token
p756
(dp757
g18
I344
sba(i__main__
Token
p758
(dp759
g18
I345
sbasg19
I344
sba(i__main__
Mention
p760
(dp761
g7
S't20'
p762
sg9
S'Anaphora-E'
p763
sg10
S'i65'
p764
sg12
S'i63'
p765
sg13
Nsg14
(lp766
(i__main__
Token
p767
(dp768
g18
I347
sbasg19
I347
sbasg7
g737
sg38
Nsba.