(lp0
(i__main__
Chain
p1
(dp2
S'mentionList'
p3
(lp4
(i__main__
Mention
p5
(dp6
S'chainId'
p7
S't1'
p8
sS'relType'
p9
NsS'mentionId'
p10
S'i1'
p11
sS'antecedentId'
p12
NsS'crefMod'
p13
NsS'tokenList'
p14
(lp15
(i__main__
Token
p16
(dp17
S'tokenId'
p18
I0
sbasS'mentionHead'
p19
I0
sba(i__main__
Mention
p20
(dp21
g7
S't1'
p22
sg9
S'Coreference-Identity'
p23
sg10
S'i23'
p24
sg12
S'i1'
p25
sg13
Nsg14
(lp26
(i__main__
Token
p27
(dp28
g18
I184
sbasg19
I184
sba(i__main__
Mention
p29
(dp30
g7
S't1'
p31
sg9
S'Anaphora-C'
p32
sg10
S'i27'
p33
sg12
S'i23'
p34
sg13
Nsg14
(lp35
(i__main__
Token
p36
(dp37
g18
I228
sbasg19
I228
sba(i__main__
Mention
p38
(dp39
g7
S't1'
p40
sg9
S'Coreference-Identity'
p41
sg10
S'i51'
p42
sg12
S'i27'
p43
sg13
Nsg14
(lp44
(i__main__
Token
p45
(dp46
g18
I361
sbasg19
I361
sbasg7
g8
sS'chainHead'
p47
Nsba(i__main__
Chain
p48
(dp49
g3
(lp50
(i__main__
Mention
p51
(dp52
g7
S't2'
p53
sg9
Nsg10
S'i2'
p54
sg12
Nsg13
Nsg14
(lp55
(i__main__
Token
p56
(dp57
g18
I9
sba(i__main__
Token
p58
(dp59
g18
I10
sbasg19
I10
sba(i__main__
Mention
p60
(dp61
g7
S't2'
p62
sg9
S'Coreference-Identity'
p63
sg10
S'i6'
p64
sg12
S'i2'
p65
sg13
Nsg14
(lp66
(i__main__
Token
p67
(dp68
g18
I36
sbasg19
I36
sba(i__main__
Mention
p69
(dp70
g7
S't2'
p71
sg9
S'Coreference-Identity'
p72
sg10
S'i7'
p73
sg12
S'i6'
p74
sg13
Nsg14
(lp75
(i__main__
Token
p76
(dp77
g18
I47
sbasg19
I47
sba(i__main__
Mention
p78
(dp79
g7
S't2'
p80
sg9
S'Coreference-Identity'
p81
sg10
S'i11'
p82
sg12
S'i7'
p83
sg13
Nsg14
(lp84
(i__main__
Token
p85
(dp86
g18
I97
sba(i__main__
Token
p87
(dp88
g18
I98
sbasg19
I98
sba(i__main__
Mention
p89
(dp90
g7
S't2'
p91
sg9
S'Coreference-Identity'
p92
sg10
S'i12'
p93
sg12
S'i11'
p94
sg13
Nsg14
(lp95
(i__main__
Token
p96
(dp97
g18
I118
sbasg19
I118
sba(i__main__
Mention
p98
(dp99
g7
S't2'
p100
sg9
S'Coreference-Identity'
p101
sg10
S'i24'
p102
sg12
S'i12'
p103
sg13
Nsg14
(lp104
(i__main__
Token
p105
(dp106
g18
I189
sbasg19
I189
sba(i__main__
Mention
p107
(dp108
g7
S't2'
p109
sg9
S'Coreference-Noun-Noun'
p110
sg10
S'i25'
p111
sg12
S'i24'
p112
sg13
Nsg14
(lp113
(i__main__
Token
p114
(dp115
g18
I212
sbasg19
I212
sba(i__main__
Mention
p116
(dp117
g7
S't2'
p118
sg9
S'Coreference-Identity'
p119
sg10
S'i41'
p120
sg12
S'i25'
p121
sg13
Nsg14
(lp122
(i__main__
Token
p123
(dp124
g18
I307
sba(i__main__
Token
p125
(dp126
g18
I308
sbasg19
I308
sba(i__main__
Mention
p127
(dp128
g7
S't2'
p129
sg9
S'Coreference-Identity'
p130
sg10
S'i46'
p131
sg12
S'i41'
p132
sg13
Nsg14
(lp133
(i__main__
Token
p134
(dp135
g18
I323
sbasg19
I323
sbasg7
g53
sg47
Nsba(i__main__
Chain
p136
(dp137
g3
(lp138
(i__main__
Mention
p139
(dp140
g7
S't3'
p141
sg9
Nsg10
S'i3'
p142
sg12
Nsg13
Nsg14
(lp143
(i__main__
Token
p144
(dp145
g18
I20
sbasg19
I20
sba(i__main__
Mention
p146
(dp147
g7
S't3'
p148
sg9
S'Coreference-Identity'
p149
sg10
S'i28'
p150
sg12
S'i3'
p151
sg13
Nsg14
(lp152
(i__main__
Token
p153
(dp154
g18
I233
sbasg19
I233
sbasg7
g141
sg47
Nsba(i__main__
Chain
p155
(dp156
g3
(lp157
(i__main__
Mention
p158
(dp159
g7
S't4'
p160
sg9
Nsg10
S'i4'
p161
sg12
Nsg13
Nsg14
(lp162
(i__main__
Token
p163
(dp164
g18
I26
sba(i__main__
Token
p165
(dp166
g18
I27
sba(i__main__
Token
p167
(dp168
g18
I28
sba(i__main__
Token
p169
(dp170
g18
I29
sba(i__main__
Token
p171
(dp172
g18
I30
sba(i__main__
Token
p173
(dp174
g18
I31
sba(i__main__
Token
p175
(dp176
g18
I32
sba(i__main__
Token
p177
(dp178
g18
I33
sbasg19
I32
sba(i__main__
Mention
p179
(dp180
g7
S't4'
p181
sg9
S'Anaphora-C'
p182
sg10
S'i5'
p183
sg12
S'i4'
p184
sg13
Nsg14
(lp185
(i__main__
Token
p186
(dp187
g18
I35
sbasg19
I35
sbasg7
g160
sg47
Nsba(i__main__
Chain
p188
(dp189
g3
(lp190
(i__main__
Mention
p191
(dp192
g7
S't5'
p193
sg9
Nsg10
S'i8'
p194
sg12
Nsg13
Nsg14
(lp195
(i__main__
Token
p196
(dp197
g18
I47
sba(i__main__
Token
p198
(dp199
g18
I48
sba(i__main__
Token
p200
(dp201
g18
I49
sba(i__main__
Token
p202
(dp203
g18
I50
sba(i__main__
Token
p204
(dp205
g18
I51
sba(i__main__
Token
p206
(dp207
g18
I52
sba(i__main__
Token
p208
(dp209
g18
I53
sba(i__main__
Token
p210
(dp211
g18
I54
sba(i__main__
Token
p212
(dp213
g18
I55
sba(i__main__
Token
p214
(dp215
g18
I56
sba(i__main__
Token
p216
(dp217
g18
I57
sba(i__main__
Token
p218
(dp219
g18
I58
sbasg19
I57
sba(i__main__
Mention
p220
(dp221
g7
S't5'
p222
sg9
S'Anaphora-C'
p223
sg10
S'i9'
p224
sg12
S'i8'
p225
sg13
Nsg14
(lp226
(i__main__
Token
p227
(dp228
g18
I60
sbasg19
I60
sbasg7
g193
sg47
Nsba(i__main__
Chain
p229
(dp230
g3
(lp231
(i__main__
Mention
p232
(dp233
g7
S't6'
p234
sg9
Nsg10
S'i10'
p235
sg12
Nsg13
Nsg14
(lp236
(i__main__
Token
p237
(dp238
g18
I72
sba(i__main__
Token
p239
(dp240
g18
I73
sbasg19
I73
sba(i__main__
Mention
p241
(dp242
g7
S't6'
p243
sg9
S'Coreference-Identity'
p244
sg10
S'i50'
p245
sg12
S'i10'
p246
sg13
Nsg14
(lp247
(i__main__
Token
p248
(dp249
g18
I351
sba(i__main__
Token
p250
(dp251
g18
I352
sbasg19
I352
sbasg7
g234
sg47
Nsba(i__main__
Chain
p252
(dp253
g3
(lp254
(i__main__
Mention
p255
(dp256
g7
S't7'
p257
sg9
Nsg10
S'i13'
p258
sg12
Nsg13
Nsg14
(lp259
(i__main__
Token
p260
(dp261
g18
I133
sbasg19
I133
sba(i__main__
Mention
p262
(dp263
g7
S't7'
p264
sg9
S'Anaphora-C'
p265
sg10
S'i14'
p266
sg12
S'i13'
p267
sg13
Nsg14
(lp268
(i__main__
Token
p269
(dp270
g18
I142
sbasg19
I142
sbasg7
g257
sg47
Nsba(i__main__
Chain
p271
(dp272
g3
(lp273
(i__main__
Mention
p274
(dp275
g7
S't8'
p276
sg9
Nsg10
S'i15'
p277
sg12
Nsg13
Nsg14
(lp278
(i__main__
Token
p279
(dp280
g18
I157
sbasg19
I157
sba(i__main__
Mention
p281
(dp282
g7
S't8'
p283
sg9
S'Anaphora-C'
p284
sg10
S'i16'
p285
sg12
S'i15'
p286
sg13
Nsg14
(lp287
(i__main__
Token
p288
(dp289
g18
I163
sbasg19
I163
sbasg7
g276
sg47
Nsba(i__main__
Chain
p290
(dp291
g3
(lp292
(i__main__
Mention
p293
(dp294
g7
S't9'
p295
sg9
Nsg10
S'i17'
p296
sg12
Nsg13
Nsg14
(lp297
(i__main__
Token
p298
(dp299
g18
I168
sbasg19
Nsba(i__main__
Mention
p300
(dp301
g7
S't9'
p302
sg9
S'Coreference-Identity'
p303
sg10
S'i22'
p304
sg12
S'i17'
p305
sg13
Nsg14
(lp306
(i__main__
Token
p307
(dp308
g18
I179
sbasg19
I179
sba(i__main__
Mention
p309
(dp310
g7
S't9'
p311
sg9
Nsg10
S'i36'
p312
sg12
Nsg13
Nsg14
(lp313
(i__main__
Token
p314
(dp315
g18
I268
sbasg19
Nsba(i__main__
Mention
p316
(dp317
g7
S't9'
p318
sg9
S'Coreference-Identity'
p319
sg10
S'i49'
p320
sg12
S'i36'
p321
sg13
Nsg14
(lp322
(i__main__
Token
p323
(dp324
g18
I347
sbasg19
I347
sbasg7
g295
sg47
Nsba(i__main__
Chain
p325
(dp326
g3
(lp327
(i__main__
Mention
p328
(dp329
g7
S't10'
p330
sg9
Nsg10
S'i18'
p331
sg12
Nsg13
Nsg14
(lp332
(i__main__
Token
p333
(dp334
g18
I168
sba(i__main__
Token
p335
(dp336
g18
I169
sbasg19
Nsba(i__main__
Mention
p337
(dp338
g7
S't10'
p339
sg9
S'Anaphora-C'
p340
sg10
S'i19'
p341
sg12
S'i18'
p342
sg13
Nsg14
(lp343
(i__main__
Token
p344
(dp345
g18
I171
sbasg19
I171
sba(i__main__
Mention
p346
(dp347
g7
S't10'
p348
sg9
S'Anaphora-C'
p349
sg10
S'i20'
p350
sg12
S'i19'
p351
sg13
Nsg14
(lp352
(i__main__
Token
p353
(dp354
g18
I172
sbasg19
I172
sba(i__main__
Mention
p355
(dp356
g7
S't10'
p357
sg9
S'Anaphora-C'
p358
sg10
S'i21'
p359
sg12
S'i20'
p360
sg13
Nsg14
(lp361
(i__main__
Token
p362
(dp363
g18
I178
sbasg19
I178
sba(i__main__
Mention
p364
(dp365
g7
S't10'
p366
sg9
Nsg10
S'i37'
p367
sg12
Nsg13
Nsg14
(lp368
(i__main__
Token
p369
(dp370
g18
I268
sba(i__main__
Token
p371
(dp372
g18
I269
sbasg19
Nsbasg7
g330
sg47
Nsba(i__main__
Chain
p373
(dp374
g3
(lp375
(i__main__
Mention
p376
(dp377
g7
S't11'
p378
sg9
Nsg10
S'i26'
p379
sg12
Nsg13
Nsg14
(lp380
(i__main__
Token
p381
(dp382
g18
I226
sbasg19
I226
sbasg7
g378
sg47
Nsba(i__main__
Chain
p383
(dp384
g3
(lp385
(i__main__
Mention
p386
(dp387
g7
S't12'
p388
sg9
Nsg10
S'i29'
p389
sg12
Nsg13
Nsg14
(lp390
(i__main__
Token
p391
(dp392
g18
I240
sba(i__main__
Token
p393
(dp394
g18
I241
sbasg19
I241
sba(i__main__
Mention
p395
(dp396
g7
S't12'
p397
sg9
Nsg10
S'i32'
p398
sg12
Nsg13
Nsg14
(lp399
(i__main__
Token
p400
(dp401
g18
I250
sbasg19
Nsba(i__main__
Mention
p402
(dp403
g7
S't12'
p404
sg9
Nsg10
S'i35'
p405
sg12
Nsg13
Nsg14
(lp406
(i__main__
Token
p407
(dp408
g18
I264
sbasg19
Nsbasg7
g388
sg47
Nsba(i__main__
Chain
p409
(dp410
g3
(lp411
(i__main__
Mention
p412
(dp413
g7
S't13'
p414
sg9
Nsg10
S'i30'
p415
sg12
Nsg13
Nsg14
(lp416
(i__main__
Token
p417
(dp418
g18
I243
sba(i__main__
Token
p419
(dp420
g18
I244
sbasg19
I244
sba(i__main__
Mention
p421
(dp422
g7
S't13'
p423
sg9
Nsg10
S'i31'
p424
sg12
Nsg13
Nsg14
(lp425
(i__main__
Token
p426
(dp427
g18
I250
sbasg19
Nsba(i__main__
Mention
p428
(dp429
g7
S't13'
p430
sg9
Nsg10
S'i34'
p431
sg12
Nsg13
Nsg14
(lp432
(i__main__
Token
p433
(dp434
g18
I264
sbasg19
Nsbasg7
g414
sg47
Nsba(i__main__
Chain
p435
(dp436
g3
(lp437
(i__main__
Mention
p438
(dp439
g7
S't14'
p440
sg9
Nsg10
S'i33'
p441
sg12
Nsg13
Nsg14
(lp442
(i__main__
Token
p443
(dp444
g18
I256
sbasg19
I256
sbasg7
g440
sg47
Nsba(i__main__
Chain
p445
(dp446
g3
(lp447
(i__main__
Mention
p448
(dp449
g7
S't15'
p450
sg9
Nsg10
S'i38'
p451
sg12
Nsg13
Nsg14
(lp452
(i__main__
Token
p453
(dp454
g18
I280
sbasg19
I280
sbasg7
g450
sg47
Nsba(i__main__
Chain
p455
(dp456
g3
(lp457
(i__main__
Mention
p458
(dp459
g7
S't16'
p460
sg9
Nsg10
S'i39'
p461
sg12
Nsg13
Nsg14
(lp462
(i__main__
Token
p463
(dp464
g18
I305
sba(i__main__
Token
p465
(dp466
g18
I307
sba(i__main__
Token
p467
(dp468
g18
I308
sba(i__main__
Token
p469
(dp470
g18
I309
sba(i__main__
Token
p471
(dp472
g18
I310
sba(i__main__
Token
p473
(dp474
g18
I311
sba(i__main__
Token
p475
(dp476
g18
I312
sba(i__main__
Token
p477
(dp478
g18
I313
sba(i__main__
Token
p479
(dp480
g18
I314
sba(i__main__
Token
p481
(dp482
g18
I315
sba(i__main__
Token
p483
(dp484
g18
I316
sba(i__main__
Token
p485
(dp486
g18
I317
sba(i__main__
Token
p487
(dp488
g18
I318
sba(i__main__
Token
p489
(dp490
g18
I319
sba(i__main__
Token
p491
(dp492
g18
I320
sbasg19
I320
sba(i__main__
Mention
p493
(dp494
g7
S't16'
p495
sg9
S'Anaphora-T'
p496
sg10
S'i40'
p497
sg12
S'i39'
p498
sg13
Nsg14
(lp499
(i__main__
Token
p500
(dp501
g18
I306
sbasg19
I306
sbasg7
g460
sg47
Nsba(i__main__
Chain
p502
(dp503
g3
(lp504
(i__main__
Mention
p505
(dp506
g7
S't17'
p507
sg9
Nsg10
S'i42'
p508
sg12
Nsg13
Nsg14
(lp509
(i__main__
Token
p510
(dp511
g18
I307
sba(i__main__
Token
p512
(dp513
g18
I308
sba(i__main__
Token
p514
(dp515
g18
I309
sba(i__main__
Token
p516
(dp517
g18
I310
sba(i__main__
Token
p518
(dp519
g18
I311
sba(i__main__
Token
p520
(dp521
g18
I312
sbasg19
I312
sba(i__main__
Mention
p522
(dp523
g7
S't17'
p524
sg9
S'Anaphora-C'
p525
sg10
S'i43'
p526
sg12
S'i42'
p527
sg13
Nsg14
(lp528
(i__main__
Token
p529
(dp530
g18
I313
sbasg19
I313
sba(i__main__
Mention
p531
(dp532
g7
S't17'
p533
sg9
S'Anaphora-C'
p534
sg10
S'i45'
p535
sg12
S'i43'
p536
sg13
Nsg14
(lp537
(i__main__
Token
p538
(dp539
g18
I322
sbasg19
I322
sba(i__main__
Mention
p540
(dp541
g7
S't17'
p542
sg9
S'Anaphora-C'
p543
sg10
S'i47'
p544
sg12
S'i45'
p545
sg13
Nsg14
(lp546
(i__main__
Token
p547
(dp548
g18
I343
sbasg19
I343
sba(i__main__
Mention
p549
(dp550
g7
S't17'
p551
sg9
S'Anaphora-C'
p552
sg10
S'i48'
p553
sg12
S'i47'
p554
sg13
Nsg14
(lp555
(i__main__
Token
p556
(dp557
g18
I344
sbasg19
I344
sbasg7
g507
sg47
Nsba(i__main__
Chain
p558
(dp559
g3
(lp560
(i__main__
Mention
p561
(dp562
g7
S't18'
p563
sg9
Nsg10
S'i44'
p564
sg12
Nsg13
Nsg14
(lp565
(i__main__
Token
p566
(dp567
g18
I321
sbasg19
I321
sbasg7
g563
sg47
Nsba.