(lp0
(i__main__
Chain
p1
(dp2
S'mentionList'
p3
(lp4
(i__main__
Mention
p5
(dp6
S'chainId'
p7
S't1'
p8
sS'relType'
p9
NsS'mentionId'
p10
S'i1'
p11
sS'antecedentId'
p12
NsS'crefMod'
p13
NsS'tokenList'
p14
(lp15
(i__main__
Token
p16
(dp17
S'tokenId'
p18
I14
sbasS'mentionHead'
p19
I14
sba(i__main__
Mention
p20
(dp21
g7
S't1'
p22
sg9
S'Coreference-NounComplement'
p23
sg10
S'i2'
p24
sg12
S'i1'
p25
sg13
Nsg14
(lp26
(i__main__
Token
p27
(dp28
g18
I15
sba(i__main__
Token
p29
(dp30
g18
I16
sbasg19
I16
sba(i__main__
Mention
p31
(dp32
g7
S't1'
p33
sg9
S'Coreference-Noun-Noun'
p34
sg10
S'i43'
p35
sg12
S'i2'
p36
sg13
Nsg14
(lp37
(i__main__
Token
p38
(dp39
g18
I160
sbasg19
I160
sba(i__main__
Mention
p40
(dp41
g7
S't1'
p42
sg9
S'Coreference-NounComplement'
p43
sg10
S'i44'
p44
sg12
S'i43'
p45
sg13
Nsg14
(lp46
(i__main__
Token
p47
(dp48
g18
I161
sbasg19
I161
sbasg7
g8
sS'chainHead'
p49
Nsba(i__main__
Chain
p50
(dp51
g3
(lp52
(i__main__
Mention
p53
(dp54
g7
S't2'
p55
sg9
Nsg10
S'i3'
p56
sg12
Nsg13
Nsg14
(lp57
(i__main__
Token
p58
(dp59
g18
I19
sba(i__main__
Token
p60
(dp61
g18
I20
sbasg19
I20
sba(i__main__
Mention
p62
(dp63
g7
S't2'
p64
sg9
S'Coreference-Identity'
p65
sg10
S'i33'
p66
sg12
S'i3'
p67
sg13
Nsg14
(lp68
(i__main__
Token
p69
(dp70
g18
I117
sba(i__main__
Token
p71
(dp72
g18
I118
sbasg19
I118
sba(i__main__
Mention
p73
(dp74
g7
S't2'
p75
sg9
S'Anaphora-C'
p76
sg10
S'i37'
p77
sg12
S'i33'
p78
sg13
Nsg14
(lp79
(i__main__
Token
p80
(dp81
g18
I125
sbasg19
I125
sbasg7
g55
sg49
Nsba(i__main__
Chain
p82
(dp83
g3
(lp84
(i__main__
Mention
p85
(dp86
g7
S't3'
p87
sg9
Nsg10
S'i4'
p88
sg12
Nsg13
Nsg14
(lp89
(i__main__
Token
p90
(dp91
g18
I22
sbasg19
I22
sba(i__main__
Mention
p92
(dp93
g7
S't3'
p94
sg9
S'Coreference-NounComplement'
p95
sg10
S'i5'
p96
sg12
S'i4'
p97
sg13
Nsg14
(lp98
(i__main__
Token
p99
(dp100
g18
I23
sba(i__main__
Token
p101
(dp102
g18
I24
sbasg19
I24
sba(i__main__
Mention
p103
(dp104
g7
S't3'
p105
sg9
Nsg10
S'i8'
p106
sg12
Nsg13
Nsg14
(lp107
(i__main__
Token
p108
(dp109
g18
I33
sbasg19
Nsba(i__main__
Mention
p110
(dp111
g7
S't3'
p112
sg9
Nsg10
S'i9'
p113
sg12
Nsg13
Nsg14
(lp114
(i__main__
Token
p115
(dp116
g18
I38
sbasg19
Nsba(i__main__
Mention
p117
(dp118
g7
S't3'
p119
sg9
S'Coreference-PartOf'
p120
sg10
S'i13'
p121
sg12
S'i9'
p122
sg13
Nsg14
(lp123
(i__main__
Token
p124
(dp125
g18
I52
sbasg19
I52
sba(i__main__
Mention
p126
(dp127
g7
S't3'
p128
sg9
S'Anaphora-C'
p129
sg10
S'i19'
p130
sg12
S'i13'
p131
sg13
Nsg14
(lp132
(i__main__
Token
p133
(dp134
g18
I65
sbasg19
I65
sba(i__main__
Mention
p135
(dp136
g7
S't3'
p137
sg9
S'Anaphora-C'
p138
sg10
S'i22'
p139
sg12
S'i19'
p140
sg13
Nsg14
(lp141
(i__main__
Token
p142
(dp143
g18
I79
sbasg19
I79
sba(i__main__
Mention
p144
(dp145
g7
S't3'
p146
sg9
S'Anaphora-C'
p147
sg10
S'i23'
p148
sg12
S'i22'
p149
sg13
Nsg14
(lp150
(i__main__
Token
p151
(dp152
g18
I88
sbasg19
I88
sba(i__main__
Mention
p153
(dp154
g7
S't3'
p155
sg9
Nsg10
S'i24'
p156
sg12
Nsg13
Nsg14
(lp157
(i__main__
Token
p158
(dp159
g18
I91
sbasg19
Nsba(i__main__
Mention
p160
(dp161
g7
S't3'
p162
sg9
Nsg10
S'i27'
p163
sg12
Nsg13
Nsg14
(lp164
(i__main__
Token
p165
(dp166
g18
I93
sbasg19
Nsba(i__main__
Mention
p167
(dp168
g7
S't3'
p169
sg9
Nsg10
S'i28'
p170
sg12
Nsg13
Nsg14
(lp171
(i__main__
Token
p172
(dp173
g18
I100
sba(i__main__
Token
p174
(dp175
g18
I101
sba(i__main__
Token
p176
(dp177
g18
I102
sbasg19
Nsba(i__main__
Mention
p178
(dp179
g7
S't3'
p180
sg9
Nsg10
S'i46'
p181
sg12
Nsg13
Nsg14
(lp182
(i__main__
Token
p183
(dp184
g18
I164
sbasg19
Nsba(i__main__
Mention
p185
(dp186
g7
S't3'
p187
sg9
S'Coreference-PartOf'
p188
sg10
S'i50'
p189
sg12
S'i46'
p190
sg13
Nsg14
(lp191
(i__main__
Token
p192
(dp193
g18
I184
sbasg19
I184
sbasg7
g87
sg49
Nsba(i__main__
Chain
p194
(dp195
g3
(lp196
(i__main__
Mention
p197
(dp198
g7
S't4'
p199
sg9
Nsg10
S'i6'
p200
sg12
Nsg13
Nsg14
(lp201
(i__main__
Token
p202
(dp203
g18
I31
sba(i__main__
Token
p204
(dp205
g18
I32
sbasg19
I32
sba(i__main__
Mention
p206
(dp207
g7
S't4'
p208
sg9
Nsg10
S'i7'
p209
sg12
Nsg13
Nsg14
(lp210
(i__main__
Token
p211
(dp212
g18
I33
sbasg19
Nsba(i__main__
Mention
p213
(dp214
g7
S't4'
p215
sg9
Nsg10
S'i10'
p216
sg12
Nsg13
Nsg14
(lp217
(i__main__
Token
p218
(dp219
g18
I38
sbasg19
Nsba(i__main__
Mention
p220
(dp221
g7
S't4'
p222
sg9
S'Coreference-PartOf'
p223
sg10
S'i21'
p224
sg12
S'i10'
p225
sg13
Nsg14
(lp226
(i__main__
Token
p227
(dp228
g18
I74
sbasg19
I74
sba(i__main__
Mention
p229
(dp230
g7
S't4'
p231
sg9
Nsg10
S'i25'
p232
sg12
Nsg13
Nsg14
(lp233
(i__main__
Token
p234
(dp235
g18
I91
sbasg19
Nsba(i__main__
Mention
p236
(dp237
g7
S't4'
p238
sg9
Nsg10
S'i26'
p239
sg12
Nsg13
Nsg14
(lp240
(i__main__
Token
p241
(dp242
g18
I93
sbasg19
Nsba(i__main__
Mention
p243
(dp244
g7
S't4'
p245
sg9
Nsg10
S'i29'
p246
sg12
Nsg13
Nsg14
(lp247
(i__main__
Token
p248
(dp249
g18
I100
sba(i__main__
Token
p250
(dp251
g18
I101
sba(i__main__
Token
p252
(dp253
g18
I102
sbasg19
Nsba(i__main__
Mention
p254
(dp255
g7
S't4'
p256
sg9
Nsg10
S'i45'
p257
sg12
Nsg13
Nsg14
(lp258
(i__main__
Token
p259
(dp260
g18
I164
sbasg19
Nsbasg7
g199
sg49
Nsba(i__main__
Chain
p261
(dp262
g3
(lp263
(i__main__
Mention
p264
(dp265
g7
S't5'
p266
sg9
Nsg10
S'i11'
p267
sg12
Nsg13
Nsg14
(lp268
(i__main__
Token
p269
(dp270
g18
I49
sbasg19
I49
sba(i__main__
Mention
p271
(dp272
g7
S't5'
p273
sg9
S'Anaphora-RT'
p274
sg10
S'i12'
p275
sg12
S'i11'
p276
sg13
Nsg14
(lp277
(i__main__
Token
p278
(dp279
g18
I51
sbasg19
I51
sba(i__main__
Mention
p280
(dp281
g7
S't5'
p282
sg9
Nsg10
S'i14'
p283
sg12
Nsg13
Nsg14
(lp284
(i__main__
Token
p285
(dp286
g18
I52
sba(i__main__
Token
p287
(dp288
g18
I53
sba(i__main__
Token
p289
(dp290
g18
I54
sba(i__main__
Token
p291
(dp292
g18
I55
sba(i__main__
Token
p293
(dp294
g18
I56
sba(i__main__
Token
p295
(dp296
g18
I57
sba(i__main__
Token
p297
(dp298
g18
I58
sba(i__main__
Token
p299
(dp300
g18
I59
sba(i__main__
Token
p301
(dp302
g18
I60
sba(i__main__
Token
p303
(dp304
g18
I61
sba(i__main__
Token
p305
(dp306
g18
I62
sba(i__main__
Token
p307
(dp308
g18
I63
sba(i__main__
Token
p309
(dp310
g18
I64
sba(i__main__
Token
p311
(dp312
g18
I65
sba(i__main__
Token
p313
(dp314
g18
I66
sba(i__main__
Token
p315
(dp316
g18
I67
sba(i__main__
Token
p317
(dp318
g18
I68
sba(i__main__
Token
p319
(dp320
g18
I69
sba(i__main__
Token
p321
(dp322
g18
I70
sbasg19
Nsbasg7
g266
sg49
Nsba(i__main__
Chain
p323
(dp324
g3
(lp325
(i__main__
Mention
p326
(dp327
g7
S't6'
p328
sg9
Nsg10
S'i15'
p329
sg12
Nsg13
Nsg14
(lp330
(i__main__
Token
p331
(dp332
g18
I52
sba(i__main__
Token
p333
(dp334
g18
I53
sba(i__main__
Token
p335
(dp336
g18
I54
sba(i__main__
Token
p337
(dp338
g18
I55
sba(i__main__
Token
p339
(dp340
g18
I56
sba(i__main__
Token
p341
(dp342
g18
I57
sba(i__main__
Token
p343
(dp344
g18
I58
sba(i__main__
Token
p345
(dp346
g18
I59
sba(i__main__
Token
p347
(dp348
g18
I60
sba(i__main__
Token
p349
(dp350
g18
I61
sba(i__main__
Token
p351
(dp352
g18
I62
sba(i__main__
Token
p353
(dp354
g18
I63
sba(i__main__
Token
p355
(dp356
g18
I64
sba(i__main__
Token
p357
(dp358
g18
I65
sba(i__main__
Token
p359
(dp360
g18
I66
sba(i__main__
Token
p361
(dp362
g18
I67
sba(i__main__
Token
p363
(dp364
g18
I68
sba(i__main__
Token
p365
(dp366
g18
I69
sba(i__main__
Token
p367
(dp368
g18
I70
sbasg19
Nsba(i__main__
Mention
p369
(dp370
g7
S't6'
p371
sg9
S'Anaphora-E'
p372
sg10
S'i20'
p373
sg12
S'i15'
p374
sg13
Nsg14
(lp375
(i__main__
Token
p376
(dp377
g18
I72
sbasg19
I72
sbasg7
g328
sg49
Nsba(i__main__
Chain
p378
(dp379
g3
(lp380
(i__main__
Mention
p381
(dp382
g7
S't7'
p383
sg9
Nsg10
S'i16'
p384
sg12
Nsg13
Nsg14
(lp385
(i__main__
Token
p386
(dp387
g18
I57
sba(i__main__
Token
p388
(dp389
g18
I58
sbasg19
I58
sba(i__main__
Mention
p390
(dp391
g7
S't7'
p392
sg9
Nsg10
S'i18'
p393
sg12
Nsg13
Nsg14
(lp394
(i__main__
Token
p395
(dp396
g18
I63
sba(i__main__
Token
p397
(dp398
g18
I64
sba(i__main__
Token
p399
(dp400
g18
I65
sba(i__main__
Token
p401
(dp402
g18
I66
sba(i__main__
Token
p403
(dp404
g18
I67
sba(i__main__
Token
p405
(dp406
g18
I68
sba(i__main__
Token
p407
(dp408
g18
I69
sba(i__main__
Token
p409
(dp410
g18
I70
sbasg19
Nsbasg7
g383
sg49
Nsba(i__main__
Chain
p411
(dp412
g3
(lp413
(i__main__
Mention
p414
(dp415
g7
S't8'
p416
sg9
Nsg10
S'i17'
p417
sg12
Nsg13
Nsg14
(lp418
(i__main__
Token
p419
(dp420
g18
I63
sbasg19
I63
sba(i__main__
Mention
p421
(dp422
g7
S't8'
p423
sg9
S'Coreference-Identity'
p424
sg10
S'i51'
p425
sg12
S'i17'
p426
sg13
Nsg14
(lp427
(i__main__
Token
p428
(dp429
g18
I185
sbasg19
I185
sba(i__main__
Mention
p430
(dp431
g7
S't8'
p432
sg9
S'Coreference-Identity'
p433
sg10
S'i54'
p434
sg12
S'i51'
p435
sg13
Nsg14
(lp436
(i__main__
Token
p437
(dp438
g18
I194
sbasg19
I194
sbasg7
g416
sg49
Nsba(i__main__
Chain
p439
(dp440
g3
(lp441
(i__main__
Mention
p442
(dp443
g7
S't9'
p444
sg9
Nsg10
S'i31'
p445
sg12
Nsg13
Nsg14
(lp446
(i__main__
Token
p447
(dp448
g18
I111
sba(i__main__
Token
p449
(dp450
g18
I112
sbasg19
I112
sba(i__main__
Mention
p451
(dp452
g7
S't9'
p453
sg9
S'Anaphora-C'
p454
sg10
S'i34'
p455
sg12
S'i31'
p456
sg13
Nsg14
(lp457
(i__main__
Token
p458
(dp459
g18
I124
sbasg19
I124
sbasg7
g444
sg49
Nsba(i__main__
Chain
p460
(dp461
g3
(lp462
(i__main__
Mention
p463
(dp464
g7
S't10'
p465
sg9
Nsg10
S'i32'
p466
sg12
Nsg13
Nsg14
(lp467
(i__main__
Token
p468
(dp469
g18
I114
sbasg19
I114
sba(i__main__
Mention
p470
(dp471
g7
S't10'
p472
sg9
Nsg10
S'i35'
p473
sg12
Nsg13
Nsg14
(lp474
(i__main__
Token
p475
(dp476
g18
I124
sba(i__main__
Token
p477
(dp478
g18
I125
sba(i__main__
Token
p479
(dp480
g18
I126
sba(i__main__
Token
p481
(dp482
g18
I127
sba(i__main__
Token
p483
(dp484
g18
I128
sba(i__main__
Token
p485
(dp486
g18
I129
sba(i__main__
Token
p487
(dp488
g18
I130
sba(i__main__
Token
p489
(dp490
g18
I131
sba(i__main__
Token
p491
(dp492
g18
I132
sba(i__main__
Token
p493
(dp494
g18
I133
sba(i__main__
Token
p495
(dp496
g18
I134
sba(i__main__
Token
p497
(dp498
g18
I135
sba(i__main__
Token
p499
(dp500
g18
I136
sba(i__main__
Token
p501
(dp502
g18
I137
sba(i__main__
Token
p503
(dp504
g18
I138
sba(i__main__
Token
p505
(dp506
g18
I139
sbasg19
Nsbasg7
g465
sg49
Nsba(i__main__
Chain
p507
(dp508
g3
(lp509
(i__main__
Mention
p510
(dp511
g7
S't11'
p512
sg9
Nsg10
S'i36'
p513
sg12
Nsg13
Nsg14
(lp514
(i__main__
Token
p515
(dp516
g18
I124
sba(i__main__
Token
p517
(dp518
g18
I125
sba(i__main__
Token
p519
(dp520
g18
I126
sba(i__main__
Token
p521
(dp522
g18
I127
sba(i__main__
Token
p523
(dp524
g18
I128
sba(i__main__
Token
p525
(dp526
g18
I129
sba(i__main__
Token
p527
(dp528
g18
I130
sba(i__main__
Token
p529
(dp530
g18
I131
sba(i__main__
Token
p531
(dp532
g18
I132
sba(i__main__
Token
p533
(dp534
g18
I133
sba(i__main__
Token
p535
(dp536
g18
I134
sba(i__main__
Token
p537
(dp538
g18
I135
sba(i__main__
Token
p539
(dp540
g18
I136
sba(i__main__
Token
p541
(dp542
g18
I137
sba(i__main__
Token
p543
(dp544
g18
I138
sba(i__main__
Token
p545
(dp546
g18
I139
sbasg19
Nsba(i__main__
Mention
p547
(dp548
g7
S't11'
p549
sg9
S'Anaphora-E'
p550
sg10
S'i38'
p551
sg12
S'i36'
p552
sg13
Nsg14
(lp553
(i__main__
Token
p554
(dp555
g18
I141
sbasg19
I141
sbasg7
g512
sg49
Nsba(i__main__
Chain
p556
(dp557
g3
(lp558
(i__main__
Mention
p559
(dp560
g7
S't12'
p561
sg9
Nsg10
S'i39'
p562
sg12
Nsg13
Nsg14
(lp563
(i__main__
Token
p564
(dp565
g18
I143
sba(i__main__
Token
p566
(dp567
g18
I144
sbasg19
I144
sba(i__main__
Mention
p568
(dp569
g7
S't12'
p570
sg9
S'Coreference-NounComplement'
p571
sg10
S'i40'
p572
sg12
S'i39'
p573
sg13
Nsg14
(lp574
(i__main__
Token
p575
(dp576
g18
I145
sba(i__main__
Token
p577
(dp578
g18
I146
sbasg19
I146
sbasg7
g561
sg49
Nsba(i__main__
Chain
p579
(dp580
g3
(lp581
(i__main__
Mention
p582
(dp583
g7
S't13'
p584
sg9
Nsg10
S'i41'
p585
sg12
Nsg13
Nsg14
(lp586
(i__main__
Token
p587
(dp588
g18
I148
sbasg19
I148
sba(i__main__
Mention
p589
(dp590
g7
S't13'
p591
sg9
S'Coreference-NounComplement'
p592
sg10
S'i42'
p593
sg12
S'i41'
p594
sg13
Nsg14
(lp595
(i__main__
Token
p596
(dp597
g18
I149
sba(i__main__
Token
p598
(dp599
g18
I150
sbasg19
I150
sbasg7
g584
sg49
Nsba(i__main__
Chain
p600
(dp601
g3
(lp602
(i__main__
Mention
p603
(dp604
g7
S't14'
p605
sg9
Nsg10
S'i47'
p606
sg12
Nsg13
Nsg14
(lp607
(i__main__
Token
p608
(dp609
g18
I168
sba(i__main__
Token
p610
(dp611
g18
I169
sbasg19
I169
sba(i__main__
Mention
p612
(dp613
g7
S't14'
p614
sg9
S'Anaphora-C'
p615
sg10
S'i48'
p616
sg12
S'i47'
p617
sg13
Nsg14
(lp618
(i__main__
Token
p619
(dp620
g18
I174
sbasg19
I174
sbasg7
g605
sg49
Nsba(i__main__
Chain
p621
(dp622
g3
(lp623
(i__main__
Mention
p624
(dp625
g7
S't15'
p626
sg9
S'anaphora-?'
p627
sg10
S'i49'
p628
sg12
S'i49'
p629
sg13
Nsg14
(lp630
(i__main__
Token
p631
(dp632
g18
I178
sbasg19
I178
sbasg7
g626
sg49
Nsba(i__main__
Chain
p633
(dp634
g3
(lp635
(i__main__
Mention
p636
(dp637
g7
S't16'
p638
sg9
Nsg10
S'i52'
p639
sg12
Nsg13
Nsg14
(lp640
(i__main__
Token
p641
(dp642
g18
I188
sbasg19
I188
sba(i__main__
Mention
p643
(dp644
g7
S't16'
p645
sg9
S'Anaphora-RC'
p646
sg10
S'i53'
p647
sg12
S'i52'
p648
sg13
Nsg14
(lp649
(i__main__
Token
p650
(dp651
g18
I193
sba(i__main__
Token
p652
(dp653
g18
I194
sba(i__main__
Token
p654
(dp655
g18
I195
sba(i__main__
Token
p656
(dp657
g18
I196
sba(i__main__
Token
p658
(dp659
g18
I197
sbasg19
I197
sbasg7
g638
sg49
Nsba.