(lp0
(i__main__
Chain
p1
(dp2
S'mentionList'
p3
(lp4
(i__main__
Mention
p5
(dp6
S'chainId'
p7
S't1'
p8
sS'relType'
p9
NsS'mentionId'
p10
S'i1'
p11
sS'antecedentId'
p12
NsS'crefMod'
p13
NsS'tokenList'
p14
(lp15
(i__main__
Token
p16
(dp17
S'tokenId'
p18
I0
sba(i__main__
Token
p19
(dp20
g18
I1
sbasS'mentionHead'
p21
I1
sba(i__main__
Mention
p22
(dp23
g7
S't1'
p24
sg9
S'Coreference-Noun-Noun'
p25
sg10
S'i5'
p26
sg12
S'i1'
p27
sg13
Nsg14
(lp28
(i__main__
Token
p29
(dp30
g18
I18
sba(i__main__
Token
p31
(dp32
g18
I19
sbasg21
I19
sba(i__main__
Mention
p33
(dp34
g7
S't1'
p35
sg9
S'Coreference-Identity'
p36
sg10
S'i16'
p37
sg12
S'i5'
p38
sg13
Nsg14
(lp39
(i__main__
Token
p40
(dp41
g18
I73
sba(i__main__
Token
p42
(dp43
g18
I74
sbasg21
I74
sba(i__main__
Mention
p44
(dp45
g7
S't1'
p46
sg9
S'Coreference-Identity'
p47
sg10
S'i40'
p48
sg12
S'i16'
p49
sg13
Nsg14
(lp50
(i__main__
Token
p51
(dp52
g18
I188
sbasg21
I188
sbasg7
g8
sS'chainHead'
p53
Nsba(i__main__
Chain
p54
(dp55
g3
(lp56
(i__main__
Mention
p57
(dp58
g7
S't2'
p59
sg9
Nsg10
S'i2'
p60
sg12
Nsg13
Nsg14
(lp61
(i__main__
Token
p62
(dp63
g18
I3
sbasg21
I3
sba(i__main__
Mention
p64
(dp65
g7
S't2'
p66
sg9
S'Coreference-NounComplement'
p67
sg10
S'i3'
p68
sg12
S'i2'
p69
sg13
Nsg14
(lp70
(i__main__
Token
p71
(dp72
g18
I4
sba(i__main__
Token
p73
(dp74
g18
I5
sbasg21
I5
sba(i__main__
Mention
p75
(dp76
g7
S't2'
p77
sg9
S'Coreference-Identity'
p78
sg10
S'i6'
p79
sg12
S'i3'
p80
sg13
Nsg14
(lp81
(i__main__
Token
p82
(dp83
g18
I26
sbasg21
I26
sba(i__main__
Mention
p84
(dp85
g7
S't2'
p86
sg9
S'Anaphora-C'
p87
sg10
S'i9'
p88
sg12
S'i6'
p89
sg13
Nsg14
(lp90
(i__main__
Token
p91
(dp92
g18
I36
sbasg21
I36
sba(i__main__
Mention
p93
(dp94
g7
S't2'
p95
sg9
S'Anaphora-C'
p96
sg10
S'i13'
p97
sg12
S'i9'
p98
sg13
Nsg14
(lp99
(i__main__
Token
p100
(dp101
g18
I43
sbasg21
I43
sba(i__main__
Mention
p102
(dp103
g7
S't2'
p104
sg9
S'Coreference-Identity'
p105
sg10
S'i15'
p106
sg12
S'i13'
p107
sg13
Nsg14
(lp108
(i__main__
Token
p109
(dp110
g18
I63
sbasg21
I63
sba(i__main__
Mention
p111
(dp112
g7
S't2'
p113
sg9
S'Coreference-Identity'
p114
sg10
S'i22'
p115
sg12
S'i15'
p116
sg13
Nsg14
(lp117
(i__main__
Token
p118
(dp119
g18
I89
sbasg21
I89
sba(i__main__
Mention
p120
(dp121
g7
S't2'
p122
sg9
S'Coreference-Identity'
p123
sg10
S'i23'
p124
sg12
S'i22'
p125
sg13
Nsg14
(lp126
(i__main__
Token
p127
(dp128
g18
I95
sbasg21
I95
sba(i__main__
Mention
p129
(dp130
g7
S't2'
p131
sg9
S'Anaphora-C'
p132
sg10
S'i26'
p133
sg12
S'i23'
p134
sg13
Nsg14
(lp135
(i__main__
Token
p136
(dp137
g18
I109
sbasg21
I109
sba(i__main__
Mention
p138
(dp139
g7
S't2'
p140
sg9
S'Anaphora-C'
p141
sg10
S'i30'
p142
sg12
S'i26'
p143
sg13
Nsg14
(lp144
(i__main__
Token
p145
(dp146
g18
I123
sbasg21
I123
sba(i__main__
Mention
p147
(dp148
g7
S't2'
p149
sg9
S'Coreference-Identity'
p150
sg10
S'i33'
p151
sg12
S'i30'
p152
sg13
Nsg14
(lp153
(i__main__
Token
p154
(dp155
g18
I134
sbasg21
I134
sba(i__main__
Mention
p156
(dp157
g7
S't2'
p158
sg9
S'Coreference-Identity'
p159
sg10
S'i39'
p160
sg12
S'i33'
p161
sg13
Nsg14
(lp162
(i__main__
Token
p163
(dp164
g18
I179
sba(i__main__
Token
p165
(dp166
g18
I180
sbasg21
I180
sba(i__main__
Mention
p167
(dp168
g7
S't2'
p169
sg9
S'Coreference-Identity'
p170
sg10
S'i46'
p171
sg12
S'i39'
p172
sg13
Nsg14
(lp173
(i__main__
Token
p174
(dp175
g18
I217
sbasg21
I217
sba(i__main__
Mention
p176
(dp177
g7
S't2'
p178
sg9
S'Coreference-Identity'
p179
sg10
S'i50'
p180
sg12
S'i46'
p181
sg13
Nsg14
(lp182
(i__main__
Token
p183
(dp184
g18
I251
sbasg21
I251
sbasg7
g59
sg53
Nsba(i__main__
Chain
p185
(dp186
g3
(lp187
(i__main__
Mention
p188
(dp189
g7
S't3'
p190
sg9
Nsg10
S'i4'
p191
sg12
Nsg13
Nsg14
(lp192
(i__main__
Token
p193
(dp194
g18
I8
sbasg21
I8
sba(i__main__
Mention
p195
(dp196
g7
S't3'
p197
sg9
S'Coreference-Identity'
p198
sg10
S'i11'
p199
sg12
S'i4'
p200
sg13
Nsg14
(lp201
(i__main__
Token
p202
(dp203
g18
I37
sbasg21
I37
sba(i__main__
Mention
p204
(dp205
g7
S't3'
p206
sg9
S'Coreference-Identity'
p207
sg10
S'i14'
p208
sg12
S'i11'
p209
sg13
Nsg14
(lp210
(i__main__
Token
p211
(dp212
g18
I44
sba(i__main__
Token
p213
(dp214
g18
I45
sbasg21
I45
sba(i__main__
Mention
p215
(dp216
g7
S't3'
p217
sg9
S'Coreference-Identity'
p218
sg10
S'i27'
p219
sg12
S'i14'
p220
sg13
Nsg14
(lp221
(i__main__
Token
p222
(dp223
g18
I110
sbasg21
I110
sba(i__main__
Mention
p224
(dp225
g7
S't3'
p226
sg9
S'Coreference-Identity'
p227
sg10
S'i31'
p228
sg12
S'i27'
p229
sg13
Nsg14
(lp230
(i__main__
Token
p231
(dp232
g18
I124
sbasg21
I124
sba(i__main__
Mention
p233
(dp234
g7
S't3'
p235
sg9
S'Coreference-Identity'
p236
sg10
S'i44'
p237
sg12
S'i31'
p238
sg13
Nsg14
(lp239
(i__main__
Token
p240
(dp241
g18
I206
sbasg21
I206
sbasg7
g190
sg53
Nsba(i__main__
Chain
p242
(dp243
g3
(lp244
(i__main__
Mention
p245
(dp246
g7
S't4'
p247
sg9
Nsg10
S'i7'
p248
sg12
Nsg13
Nsg14
(lp249
(i__main__
Token
p250
(dp251
g18
I28
sbasg21
I28
sbasg7
g247
sg53
Nsba(i__main__
Chain
p252
(dp253
g3
(lp254
(i__main__
Mention
p255
(dp256
g7
S't5'
p257
sg9
Nsg10
S'i8'
p258
sg12
Nsg13
Nsg14
(lp259
(i__main__
Token
p260
(dp261
g18
I29
sba(i__main__
Token
p262
(dp263
g18
I30
sbasg21
I30
sba(i__main__
Mention
p264
(dp265
g7
S't5'
p266
sg9
S'Coreference-Identity'
p267
sg10
S'i34'
p268
sg12
S'i8'
p269
sg13
Nsg14
(lp270
(i__main__
Token
p271
(dp272
g18
I137
sba(i__main__
Token
p273
(dp274
g18
I138
sbasg21
I138
sbasg7
g257
sg53
Nsba(i__main__
Chain
p275
(dp276
g3
(lp277
(i__main__
Mention
p278
(dp279
g7
S't6'
p280
sg9
Nsg10
S'i10'
p281
sg12
Nsg13
Nsg14
(lp282
(i__main__
Token
p283
(dp284
g18
I36
sba(i__main__
Token
p285
(dp286
g18
I37
sba(i__main__
Token
p287
(dp288
g18
I38
sba(i__main__
Token
p289
(dp290
g18
I39
sba(i__main__
Token
p291
(dp292
g18
I40
sbasg21
I40
sba(i__main__
Mention
p293
(dp294
g7
S't6'
p295
sg9
S'Anaphora-E'
p296
sg10
S'i12'
p297
sg12
S'i10'
p298
sg13
Nsg14
(lp299
(i__main__
Token
p300
(dp301
g18
I42
sbasg21
I42
sbasg7
g280
sg53
Nsba(i__main__
Chain
p302
(dp303
g3
(lp304
(i__main__
Mention
p305
(dp306
g7
S't7'
p307
sg9
Nsg10
S'i17'
p308
sg12
Nsg13
Nsg14
(lp309
(i__main__
Token
p310
(dp311
g18
I76
sba(i__main__
Token
p312
(dp313
g18
I77
sbasg21
I77
sba(i__main__
Mention
p314
(dp315
g7
S't7'
p316
sg9
S'Coreference-NounComplement'
p317
sg10
S'i18'
p318
sg12
S'i16'
p319
sg13
Nsg14
(lp320
(i__main__
Token
p321
(dp322
g18
I78
sba(i__main__
Token
p323
(dp324
g18
I79
sba(i__main__
Token
p325
(dp326
g18
I80
sba(i__main__
Token
p327
(dp328
g18
I81
sbasg21
I81
sba(i__main__
Mention
p329
(dp330
g7
S't7'
p331
sg9
S'Anaphora-C'
p332
sg10
S'i20'
p333
sg12
S'i18'
p334
sg13
Nsg14
(lp335
(i__main__
Token
p336
(dp337
g18
I87
sbasg21
I87
sba(i__main__
Mention
p338
(dp339
g7
S't7'
p340
sg9
S'Anaphora-C'
p341
sg10
S'i21'
p342
sg12
S'i20'
p343
sg13
Nsg14
(lp344
(i__main__
Token
p345
(dp346
g18
I88
sbasg21
I88
sba(i__main__
Mention
p347
(dp348
g7
S't7'
p349
sg9
S'Anaphora-C'
p350
sg10
S'i24'
p351
sg12
S'i21'
p352
sg13
Nsg14
(lp353
(i__main__
Token
p354
(dp355
g18
I97
sbasg21
I97
sba(i__main__
Mention
p356
(dp357
g7
S't7'
p358
sg9
S'Coreference-Identity'
p359
sg10
S'i32'
p360
sg12
S'i24'
p361
sg13
Nsg14
(lp362
(i__main__
Token
p363
(dp364
g18
I130
sbasg21
I130
sba(i__main__
Mention
p365
(dp366
g7
S't7'
p367
sg9
S'Anaphora-C'
p368
sg10
S'i36'
p369
sg12
S'i32'
p370
sg13
Nsg14
(lp371
(i__main__
Token
p372
(dp373
g18
I151
sbasg21
I151
sbasg7
g307
sg53
Nsba(i__main__
Chain
p374
(dp375
g3
(lp376
(i__main__
Mention
p377
(dp378
g7
S't8'
p379
sg9
Nsg10
S'i25'
p380
sg12
Nsg13
Nsg14
(lp381
(i__main__
Token
p382
(dp383
g18
I100
sba(i__main__
Token
p384
(dp385
g18
I101
sba(i__main__
Token
p386
(dp387
g18
I102
sba(i__main__
Token
p388
(dp389
g18
I103
sba(i__main__
Token
p390
(dp391
g18
I104
sba(i__main__
Token
p392
(dp393
g18
I105
sba(i__main__
Token
p394
(dp395
g18
I106
sba(i__main__
Token
p396
(dp397
g18
I107
sba(i__main__
Token
p398
(dp399
g18
I108
sba(i__main__
Token
p400
(dp401
g18
I109
sba(i__main__
Token
p402
(dp403
g18
I110
sba(i__main__
Token
p404
(dp405
g18
I111
sba(i__main__
Token
p406
(dp407
g18
I112
sba(i__main__
Token
p408
(dp409
g18
I113
sba(i__main__
Token
p410
(dp411
g18
I114
sba(i__main__
Token
p412
(dp413
g18
I115
sbasg21
I113
sba(i__main__
Mention
p414
(dp415
g7
S't8'
p416
sg9
S'Anaphora-E'
p417
sg10
S'i28'
p418
sg12
S'i25'
p419
sg13
Nsg14
(lp420
(i__main__
Token
p421
(dp422
g18
I117
sbasg21
I117
sbasg7
g379
sg53
Nsba(i__main__
Chain
p423
(dp424
g3
(lp425
(i__main__
Mention
p426
(dp427
g7
S't9'
p428
sg9
Nsg10
S'i29'
p429
sg12
Nsg13
Nsg14
(lp430
(i__main__
Token
p431
(dp432
g18
I118
sbasg21
I118
sba(i__main__
Mention
p433
(dp434
g7
S't9'
p435
sg9
S'Coreference-Identity'
p436
sg10
S'i41'
p437
sg12
S'i29'
p438
sg13
Nsg14
(lp439
(i__main__
Token
p440
(dp441
g18
I191
sbasg21
I191
sbasg7
g428
sg53
Nsba(i__main__
Chain
p442
(dp443
g3
(lp444
(i__main__
Mention
p445
(dp446
g7
S't10'
p447
sg9
Nsg10
S'i35'
p448
sg12
Nsg13
Nsg14
(lp449
(i__main__
Token
p450
(dp451
g18
I144
sbasg21
I144
sbasg7
g447
sg53
Nsba(i__main__
Chain
p452
(dp453
g3
(lp454
(i__main__
Mention
p455
(dp456
g7
S't11'
p457
sg9
Nsg10
S'i37'
p458
sg12
Nsg13
Nsg14
(lp459
(i__main__
Token
p460
(dp461
g18
I166
sbasg21
I166
sbasg7
g457
sg53
Nsba(i__main__
Chain
p462
(dp463
g3
(lp464
(i__main__
Mention
p465
(dp466
g7
S't12'
p467
sg9
Nsg10
S'i38'
p468
sg12
Nsg13
Nsg14
(lp469
(i__main__
Token
p470
(dp471
g18
I175
sba(i__main__
Token
p472
(dp473
g18
I176
sba(i__main__
Token
p474
(dp475
g18
I177
sbasg21
I177
sba(i__main__
Mention
p476
(dp477
g7
S't12'
p478
sg9
S'Coreference-Identity'
p479
sg10
S'i47'
p480
sg12
S'i38'
p481
sg13
Nsg14
(lp482
(i__main__
Token
p483
(dp484
g18
I226
sba(i__main__
Token
p485
(dp486
g18
I227
sbasg21
I227
sba(i__main__
Mention
p487
(dp488
g7
S't12'
p489
sg9
S'Anaphora-C'
p490
sg10
S'i48'
p491
sg12
S'i47'
p492
sg13
Nsg14
(lp493
(i__main__
Token
p494
(dp495
g18
I243
sbasg21
I243
sba(i__main__
Mention
p496
(dp497
g7
S't12'
p498
sg9
S'Coreference-Noun-Noun'
p499
sg10
S'i52'
p500
sg12
S'i48'
p501
sg13
Nsg14
(lp502
(i__main__
Token
p503
(dp504
g18
I265
sba(i__main__
Token
p505
(dp506
g18
I266
sbasg21
I266
sba(i__main__
Mention
p507
(dp508
g7
S't12'
p509
sg9
S'Coreference-Identity'
p510
sg10
S'i56'
p511
sg12
S'i52'
p512
sg13
Nsg14
(lp513
(i__main__
Token
p514
(dp515
g18
I284
sba(i__main__
Token
p516
(dp517
g18
I285
sbasg21
I285
sbasg7
g467
sg53
Nsba(i__main__
Chain
p518
(dp519
g3
(lp520
(i__main__
Mention
p521
(dp522
g7
S't13'
p523
sg9
Nsg10
S'i42'
p524
sg12
Nsg13
Nsg14
(lp525
(i__main__
Token
p526
(dp527
g18
I196
sba(i__main__
Token
p528
(dp529
g18
I197
sbasg21
I197
sba(i__main__
Mention
p530
(dp531
g7
S't13'
p532
sg9
S'Coreference-NounComplement'
p533
sg10
S'i43'
p534
sg12
S'i42'
p535
sg13
Nsg14
(lp536
(i__main__
Token
p537
(dp538
g18
I198
sba(i__main__
Token
p539
(dp540
g18
I199
sbasg21
I199
sba(i__main__
Mention
p541
(dp542
g7
S't13'
p543
sg9
S'Coreference-Identity'
p544
sg10
S'i45'
p545
sg12
S'i43'
p546
sg13
Nsg14
(lp547
(i__main__
Token
p548
(dp549
g18
I214
sbasg21
I214
sbasg7
g523
sg53
Nsba(i__main__
Chain
p550
(dp551
g3
(lp552
(i__main__
Mention
p553
(dp554
g7
S't14'
p555
sg9
Nsg10
S'i49'
p556
sg12
Nsg13
Nsg14
(lp557
(i__main__
Token
p558
(dp559
g18
I244
sbasg21
I244
sbasg7
g555
sg53
Nsba(i__main__
Chain
p560
(dp561
g3
(lp562
(i__main__
Mention
p563
(dp564
g7
S't15'
p565
sg9
Nsg10
S'i51'
p566
sg12
Nsg13
Nsg14
(lp567
(i__main__
Token
p568
(dp569
g18
I260
sba(i__main__
Token
p570
(dp571
g18
I261
sba(i__main__
Token
p572
(dp573
g18
I262
sba(i__main__
Token
p574
(dp575
g18
I263
sbasg21
I263
sba(i__main__
Mention
p576
(dp577
g7
S't15'
p578
sg9
S'Anaphora-C'
p579
sg10
S'i53'
p580
sg12
S'i51'
p581
sg13
Nsg14
(lp582
(i__main__
Token
p583
(dp584
g18
I268
sbasg21
I268
sbasg7
g565
sg53
Nsba(i__main__
Chain
p585
(dp586
g3
(lp587
(i__main__
Mention
p588
(dp589
g7
S't16'
p590
sg9
Nsg10
S'i54'
p591
sg12
Nsg13
Nsg14
(lp592
(i__main__
Token
p593
(dp594
g18
I269
sbasg21
I269
sba(i__main__
Mention
p595
(dp596
g7
S't16'
p597
sg9
S'Coreference-NounComplement'
p598
sg10
S'i55'
p599
sg12
S'i54'
p600
sg13
Nsg14
(lp601
(i__main__
Token
p602
(dp603
g18
I271
sba(i__main__
Token
p604
(dp605
g18
I272
sba(i__main__
Token
p606
(dp607
g18
I273
sba(i__main__
Token
p608
(dp609
g18
I274
sbasg21
I274
sbasg7
g590
sg53
Nsba.