(lp0
(i__main__
Chain
p1
(dp2
S'mentionList'
p3
(lp4
(i__main__
Mention
p5
(dp6
S'chainId'
p7
S't1'
p8
sS'relType'
p9
NsS'mentionId'
p10
S'i1'
p11
sS'antecedentId'
p12
NsS'crefMod'
p13
NsS'tokenList'
p14
(lp15
(i__main__
Token
p16
(dp17
S'tokenId'
p18
I0
sbasS'mentionHead'
p19
I0
sba(i__main__
Mention
p20
(dp21
g7
S't1'
p22
sg9
S'Coreference-Identity'
p23
sg10
S'i9'
p24
sg12
S'i1'
p25
sg13
Nsg14
(lp26
(i__main__
Token
p27
(dp28
g18
I43
sbasg19
I43
sba(i__main__
Mention
p29
(dp30
g7
S't1'
p31
sg9
S'Coreference-Identity'
p32
sg10
S'i23'
p33
sg12
S'i9'
p34
sg13
Nsg14
(lp35
(i__main__
Token
p36
(dp37
g18
I118
sbasg19
I118
sba(i__main__
Mention
p38
(dp39
g7
S't1'
p40
sg9
S'Coreference-Identity'
p41
sg10
S'i32'
p42
sg12
S'i23'
p43
sg13
Nsg14
(lp44
(i__main__
Token
p45
(dp46
g18
I156
sbasg19
I156
sbasg7
g8
sS'chainHead'
p47
Nsba(i__main__
Chain
p48
(dp49
g3
(lp50
(i__main__
Mention
p51
(dp52
g7
S't2'
p53
sg9
Nsg10
S'i2'
p54
sg12
Nsg13
Nsg14
(lp55
(i__main__
Token
p56
(dp57
g18
I0
sba(i__main__
Token
p58
(dp59
g18
I1
sbasg19
I1
sba(i__main__
Mention
p60
(dp61
g7
S't2'
p62
sg9
S'Anaphora-C'
p63
sg10
S'i4'
p64
sg12
S'i2'
p65
sg13
Nsg14
(lp66
(i__main__
Token
p67
(dp68
g18
I24
sbasg19
I24
sba(i__main__
Mention
p69
(dp70
g7
S't2'
p71
sg9
S'Coreference-Identity'
p72
sg10
S'i10'
p73
sg12
S'i4'
p74
sg13
Nsg14
(lp75
(i__main__
Token
p76
(dp77
g18
I43
sba(i__main__
Token
p78
(dp79
g18
I44
sbasg19
I44
sba(i__main__
Mention
p80
(dp81
g7
S't2'
p82
sg9
S'Anaphora-C'
p83
sg10
S'i12'
p84
sg12
S'i10'
p85
sg13
Nsg14
(lp86
(i__main__
Token
p87
(dp88
g18
I50
sbasg19
I50
sba(i__main__
Mention
p89
(dp90
g7
S't2'
p91
sg9
S'Anaphora-C'
p92
sg10
S'i17'
p93
sg12
S'i12'
p94
sg13
Nsg14
(lp95
(i__main__
Token
p96
(dp97
g18
I80
sbasg19
I80
sba(i__main__
Mention
p98
(dp99
g7
S't2'
p100
sg9
S'Coreference-Identity'
p101
sg10
S'i24'
p102
sg12
S'i17'
p103
sg13
Nsg14
(lp104
(i__main__
Token
p105
(dp106
g18
I118
sba(i__main__
Token
p107
(dp108
g18
I119
sbasg19
I119
sba(i__main__
Mention
p109
(dp110
g7
S't2'
p111
sg9
S'Coreference-Identity'
p112
sg10
S'i25'
p113
sg12
S'i24'
p114
sg13
Nsg14
(lp115
(i__main__
Token
p116
(dp117
g18
I126
sbasg19
I126
sba(i__main__
Mention
p118
(dp119
g7
S't2'
p120
sg9
S'Anaphora-C'
p121
sg10
S'i36'
p122
sg12
S'i25'
p123
sg13
Nsg14
(lp124
(i__main__
Token
p125
(dp126
g18
I192
sbasg19
I192
sbasg7
g53
sg47
Nsba(i__main__
Chain
p127
(dp128
g3
(lp129
(i__main__
Mention
p130
(dp131
g7
S't3'
p132
sg9
Nsg10
S'i3'
p133
sg12
Nsg13
Nsg14
(lp134
(i__main__
Token
p135
(dp136
g18
I20
sbasg19
I20
sba(i__main__
Mention
p137
(dp138
g7
S't3'
p139
sg9
S'Coreference-Identity'
p140
sg10
S'i5'
p141
sg12
S'i3'
p142
sg13
Nsg14
(lp143
(i__main__
Token
p144
(dp145
g18
I34
sbasg19
I34
sba(i__main__
Mention
p146
(dp147
g7
S't3'
p148
sg9
Nsg10
S'i26'
p149
sg12
Nsg13
Nsg14
(lp150
(i__main__
Token
p151
(dp152
g18
I131
sba(i__main__
Token
p153
(dp154
g18
I132
sbasg19
Nsba(i__main__
Mention
p155
(dp156
g7
S't3'
p157
sg9
Nsg10
S'i44'
p158
sg12
Nsg13
Nsg14
(lp159
(i__main__
Token
p160
(dp161
g18
I217
sbasg19
Nsba(i__main__
Mention
p162
(dp163
g7
S't3'
p164
sg9
S'Coreference-Identity'
p165
sg10
S'i47'
p166
sg12
S'i44'
p167
sg13
Nsg14
(lp168
(i__main__
Token
p169
(dp170
g18
I240
sbasg19
I240
sbasg7
g132
sg47
Nsba(i__main__
Chain
p171
(dp172
g3
(lp173
(i__main__
Mention
p174
(dp175
g7
S't4'
p176
sg9
Nsg10
S'i6'
p177
sg12
Nsg13
Nsg14
(lp178
(i__main__
Token
p179
(dp180
g18
I36
sbasg19
I36
sba(i__main__
Mention
p181
(dp182
g7
S't4'
p183
sg9
S'Coreference-NounComplement'
p184
sg10
S'i7'
p185
sg12
S'i11'
p186
sg13
Nsg14
(lp187
(i__main__
Token
p188
(dp189
g18
I37
sba(i__main__
Token
p190
(dp191
g18
I38
sba(i__main__
Token
p192
(dp193
g18
I39
sbasg19
I39
sba(i__main__
Mention
p194
(dp195
g7
S't4'
p196
sg9
S'Anaphora-C'
p197
sg10
S'i11'
p198
sg12
S'i7'
p199
sg13
Nsg14
(lp200
(i__main__
Token
p201
(dp202
g18
I49
sbasg19
I49
sba(i__main__
Mention
p203
(dp204
g7
S't4'
p205
sg9
S'Coreference-Identity'
p206
sg10
S'i14'
p207
sg12
S'i11'
p208
sg13
Nsg14
(lp209
(i__main__
Token
p210
(dp211
g18
I68
sbasg19
I68
sba(i__main__
Mention
p212
(dp213
g7
S't4'
p214
sg9
S'Anaphora-C'
p215
sg10
S'i15'
p216
sg12
S'i14'
p217
sg13
Nsg14
(lp218
(i__main__
Token
p219
(dp220
g18
I72
sbasg19
I72
sba(i__main__
Mention
p221
(dp222
g7
S't4'
p223
sg9
S'Anaphora-C'
p224
sg10
S'i16'
p225
sg12
S'i15'
p226
sg13
Nsg14
(lp227
(i__main__
Token
p228
(dp229
g18
I79
sbasg19
I79
sba(i__main__
Mention
p230
(dp231
g7
S't4'
p232
sg9
S'Coreference-Identity'
p233
sg10
S'i19'
p234
sg12
S'i16'
p235
sg13
Nsg14
(lp236
(i__main__
Token
p237
(dp238
g18
I90
sbasg19
I90
sba(i__main__
Mention
p239
(dp240
g7
S't4'
p241
sg9
S'Coreference-Identity'
p242
sg10
S'i29'
p243
sg12
S'i19'
p244
sg13
Nsg14
(lp245
(i__main__
Token
p246
(dp247
g18
I141
sbasg19
I141
sba(i__main__
Mention
p248
(dp249
g7
S't4'
p250
sg9
S'Anaphora-C'
p251
sg10
S'i30'
p252
sg12
S'i29'
p253
sg13
Nsg14
(lp254
(i__main__
Token
p255
(dp256
g18
I153
sbasg19
I153
sba(i__main__
Mention
p257
(dp258
g7
S't4'
p259
sg9
S'Coreference-Identity'
p260
sg10
S'i33'
p261
sg12
S'i30'
p262
sg13
Nsg14
(lp263
(i__main__
Token
p264
(dp265
g18
I173
sbasg19
I173
sba(i__main__
Mention
p266
(dp267
g7
S't4'
p268
sg9
S'Anaphora-C'
p269
sg10
S'i34'
p270
sg12
S'i33'
p271
sg13
Nsg14
(lp272
(i__main__
Token
p273
(dp274
g18
I177
sbasg19
I177
sba(i__main__
Mention
p275
(dp276
g7
S't4'
p277
sg9
S'Anaphora-C'
p278
sg10
S'i39'
p279
sg12
S'i34'
p280
sg13
Nsg14
(lp281
(i__main__
Token
p282
(dp283
g18
I203
sbasg19
I203
sba(i__main__
Mention
p284
(dp285
g7
S't4'
p286
sg9
S'Coreference-Identity'
p287
sg10
S'i41'
p288
sg12
S'i39'
p289
sg13
Nsg14
(lp290
(i__main__
Token
p291
(dp292
g18
I212
sbasg19
I212
sba(i__main__
Mention
p293
(dp294
g7
S't4'
p295
sg9
S'Coreference-Noun-Noun'
p296
sg10
S'i48'
p297
sg12
S'i41'
p298
sg13
Nsg14
(lp299
(i__main__
Token
p300
(dp301
g18
I256
sba(i__main__
Token
p302
(dp303
g18
I257
sbasg19
I257
sbasg7
g176
sg47
Nsba(i__main__
Chain
p304
(dp305
g3
(lp306
(i__main__
Mention
p307
(dp308
g7
S't5'
p309
sg9
Nsg10
S'i13'
p310
sg12
Nsg13
Nsg14
(lp311
(i__main__
Token
p312
(dp313
g18
I51
sba(i__main__
Token
p314
(dp315
g18
I52
sba(i__main__
Token
p316
(dp317
g18
I53
sba(i__main__
Token
p318
(dp319
g18
I54
sbasg19
I54
sba(i__main__
Mention
p320
(dp321
g7
S't5'
p322
sg9
S'Coreference-Identity'
p323
sg10
S'i18'
p324
sg12
S'i13'
p325
sg13
Nsg14
(lp326
(i__main__
Token
p327
(dp328
g18
I81
sba(i__main__
Token
p329
(dp330
g18
I82
sba(i__main__
Token
p331
(dp332
g18
I83
sba(i__main__
Token
p333
(dp334
g18
I84
sbasg19
I84
sbasg7
g309
sg47
Nsba(i__main__
Chain
p335
(dp336
g3
(lp337
(i__main__
Mention
p338
(dp339
g7
S't6'
p340
sg9
Nsg10
S'i20'
p341
sg12
Nsg13
Nsg14
(lp342
(i__main__
Token
p343
(dp344
g18
I91
sba(i__main__
Token
p345
(dp346
g18
I92
sba(i__main__
Token
p347
(dp348
g18
I93
sba(i__main__
Token
p349
(dp350
g18
I94
sba(i__main__
Token
p351
(dp352
g18
I95
sbasg19
I95
sba(i__main__
Mention
p353
(dp354
g7
S't6'
p355
sg9
S'Coreference-Identity'
p356
sg10
S'i21'
p357
sg12
S'i20'
p358
sg13
Nsg14
(lp359
(i__main__
Token
p360
(dp361
g18
I112
sbasg19
I112
sba(i__main__
Mention
p362
(dp363
g7
S't6'
p364
sg9
S'Anaphora-C'
p365
sg10
S'i22'
p366
sg12
S'i21'
p367
sg13
Nsg14
(lp368
(i__main__
Token
p369
(dp370
g18
I117
sbasg19
I117
sba(i__main__
Mention
p371
(dp372
g7
S't6'
p373
sg9
S'Coreference-Identity'
p374
sg10
S'i31'
p375
sg12
S'i22'
p376
sg13
Nsg14
(lp377
(i__main__
Token
p378
(dp379
g18
I154
sbasg19
I154
sba(i__main__
Mention
p380
(dp381
g7
S't6'
p382
sg9
S'Coreference-Identity'
p383
sg10
S'i42'
p384
sg12
S'i31'
p385
sg13
Nsg14
(lp386
(i__main__
Token
p387
(dp388
g18
I216
sbasg19
I216
sba(i__main__
Mention
p389
(dp390
g7
S't6'
p391
sg9
S'Anaphora-C'
p392
sg10
S'i45'
p393
sg12
S'i42'
p394
sg13
Nsg14
(lp395
(i__main__
Token
p396
(dp397
g18
I226
sbasg19
I226
sbasg7
g340
sg47
Nsba(i__main__
Chain
p398
(dp399
g3
(lp400
(i__main__
Mention
p401
(dp402
g7
S't7'
p403
sg9
Nsg10
S'i27'
p404
sg12
Nsg13
Nsg14
(lp405
(i__main__
Token
p406
(dp407
g18
I131
sba(i__main__
Token
p408
(dp409
g18
I132
sbasg19
Nsba(i__main__
Mention
p410
(dp411
g7
S't7'
p412
sg9
Nsg10
S'i43'
p413
sg12
Nsg13
Nsg14
(lp414
(i__main__
Token
p415
(dp416
g18
I217
sbasg19
Nsba(i__main__
Mention
p417
(dp418
g7
S't7'
p419
sg9
Nsg10
S'i46'
p420
sg12
Nsg13
Nsg14
(lp421
(i__main__
Token
p422
(dp423
g18
I238
sbasg19
I238
sbasg7
g403
sg47
Nsba(i__main__
Chain
p424
(dp425
g3
(lp426
(i__main__
Mention
p427
(dp428
g7
S't8'
p429
sg9
Nsg10
S'i28'
p430
sg12
Nsg13
Nsg14
(lp431
(i__main__
Token
p432
(dp433
g18
I139
sbasg19
I139
sbasg7
g429
sg47
Nsba(i__main__
Chain
p434
(dp435
g3
(lp436
(i__main__
Mention
p437
(dp438
g7
S't9'
p439
sg9
Nsg10
S'i35'
p440
sg12
Nsg13
Nsg14
(lp441
(i__main__
Token
p442
(dp443
g18
I191
sbasg19
I191
sba(i__main__
Mention
p444
(dp445
g7
S't9'
p446
sg9
S'Anaphora-T'
p447
sg10
S'i37'
p448
sg12
S'i35'
p449
sg13
Nsg14
(lp450
(i__main__
Token
p451
(dp452
g18
I192
sba(i__main__
Token
p453
(dp454
g18
I193
sba(i__main__
Token
p455
(dp456
g18
I194
sba(i__main__
Token
p457
(dp458
g18
I195
sba(i__main__
Token
p459
(dp460
g18
I196
sba(i__main__
Token
p461
(dp462
g18
I197
sba(i__main__
Token
p463
(dp464
g18
I198
sba(i__main__
Token
p465
(dp466
g18
I199
sba(i__main__
Token
p467
(dp468
g18
I200
sbasg19
I198
sbasg7
g439
sg47
Nsba(i__main__
Chain
p469
(dp470
g3
(lp471
(i__main__
Mention
p472
(dp473
g7
S't10'
p474
sg9
Nsg10
S'i38'
p475
sg12
Nsg13
Nsg14
(lp476
(i__main__
Token
p477
(dp478
g18
I202
sbasg19
I202
sbasg7
g474
sg47
Nsba(i__main__
Chain
p479
(dp480
g3
(lp481
(i__main__
Mention
p482
(dp483
g7
S't11'
p484
sg9
Nsg10
S'i40'
p485
sg12
Nsg13
Nsg14
(lp486
(i__main__
Token
p487
(dp488
g18
I207
sbasg19
I207
sbasg7
g484
sg47
Nsba(i__main__
Chain
p489
(dp490
g3
(lp491
(i__main__
Mention
p492
(dp493
g7
S't12'
p494
sg9
Nsg10
S'i49'
p495
sg12
Nsg13
Nsg14
(lp496
(i__main__
Token
p497
(dp498
g18
I279
sbasg19
I279
sbasg7
g494
sg47
Nsba.