(lp0
(i__main__
Chain
p1
(dp2
S'mentionList'
p3
(lp4
(i__main__
Mention
p5
(dp6
S'chainId'
p7
S't1'
p8
sS'relType'
p9
NsS'mentionId'
p10
S'i1'
p11
sS'antecedentId'
p12
NsS'crefMod'
p13
NsS'tokenList'
p14
(lp15
(i__main__
Token
p16
(dp17
S'tokenId'
p18
I0
sba(i__main__
Token
p19
(dp20
g18
I1
sba(i__main__
Token
p21
(dp22
g18
I2
sba(i__main__
Token
p23
(dp24
g18
I3
sbasS'mentionHead'
p25
I3
sba(i__main__
Mention
p26
(dp27
g7
S't1'
p28
sg9
S'Coreference-Identity'
p29
sg10
S'i9'
p30
sg12
S'i31'
p31
sg13
Nsg14
(lp32
(i__main__
Token
p33
(dp34
g18
I26
sbasg25
I26
sba(i__main__
Mention
p35
(dp36
g7
S't1'
p37
sg9
S'Coreference-Identity'
p38
sg10
S'i13'
p39
sg12
S'i9'
p40
sg13
Nsg14
(lp41
(i__main__
Token
p42
(dp43
g18
I46
sbasg25
I46
sba(i__main__
Mention
p44
(dp45
g7
S't1'
p46
sg9
S'Coreference-Identity'
p47
sg10
S'i15'
p48
sg12
S'i13'
p49
sg13
Nsg14
(lp50
(i__main__
Token
p51
(dp52
g18
I63
sbasg25
I63
sba(i__main__
Mention
p53
(dp54
g7
S't1'
p55
sg9
S'Coreference-Identity'
p56
sg10
S'i21'
p57
sg12
S'i15'
p58
sg13
Nsg14
(lp59
(i__main__
Token
p60
(dp61
g18
I89
sbasg25
I89
sba(i__main__
Mention
p62
(dp63
g7
S't1'
p64
sg9
S'Coreference-Identity'
p65
sg10
S'i22'
p66
sg12
S'i21'
p67
sg13
Nsg14
(lp68
(i__main__
Token
p69
(dp70
g18
I99
sbasg25
I99
sba(i__main__
Mention
p71
(dp72
g7
S't1'
p73
sg9
S'Coreference-Identity'
p74
sg10
S'i25'
p75
sg12
S'i22'
p76
sg13
Nsg14
(lp77
(i__main__
Token
p78
(dp79
g18
I118
sbasg25
I118
sba(i__main__
Mention
p80
(dp81
g7
S't1'
p82
sg9
S'Coreference-Identity'
p83
sg10
S'i28'
p84
sg12
S'i25'
p85
sg13
Nsg14
(lp86
(i__main__
Token
p87
(dp88
g18
I139
sbasg25
I139
sbasg7
g8
sS'chainHead'
p89
Nsba(i__main__
Chain
p90
(dp91
g3
(lp92
(i__main__
Mention
p93
(dp94
g7
S't2'
p95
sg9
Nsg10
S'i2'
p96
sg12
Nsg13
Nsg14
(lp97
(i__main__
Token
p98
(dp99
g18
I5
sbasg25
I5
sba(i__main__
Mention
p100
(dp101
g7
S't2'
p102
sg9
S'Coreference-Identity'
p103
sg10
S'i3'
p104
sg12
S'i2'
p105
sg13
Nsg14
(lp106
(i__main__
Token
p107
(dp108
g18
I6
sba(i__main__
Token
p109
(dp110
g18
I7
sbasg25
I7
sba(i__main__
Mention
p111
(dp112
g7
S't2'
p113
sg9
S'Coreference-Identity'
p114
sg10
S'i12'
p115
sg12
S'i3'
p116
sg13
Nsg14
(lp117
(i__main__
Token
p118
(dp119
g18
I38
sbasg25
I38
sba(i__main__
Mention
p120
(dp121
g7
S't2'
p122
sg9
S'Coreference-Identity'
p123
sg10
S'i16'
p124
sg12
S'i12'
p125
sg13
Nsg14
(lp126
(i__main__
Token
p127
(dp128
g18
I65
sbasg25
I65
sba(i__main__
Mention
p129
(dp130
g7
S't2'
p131
sg9
S'Coreference-NounComplement'
p132
sg10
S'i17'
p133
sg12
S'i16'
p134
sg13
Nsg14
(lp135
(i__main__
Token
p136
(dp137
g18
I66
sba(i__main__
Token
p138
(dp139
g18
I67
sbasg25
I67
sba(i__main__
Mention
p140
(dp141
g7
S't2'
p142
sg9
S'Coreference-Identity'
p143
sg10
S'i23'
p144
sg12
S'i17'
p145
sg13
Nsg14
(lp146
(i__main__
Token
p147
(dp148
g18
I108
sbasg25
I108
sba(i__main__
Mention
p149
(dp150
g7
S't2'
p151
sg9
S'Coreference-Identity'
p152
sg10
S'i26'
p153
sg12
S'i23'
p154
sg13
Nsg14
(lp155
(i__main__
Token
p156
(dp157
g18
I133
sbasg25
I133
sba(i__main__
Mention
p158
(dp159
g7
S't2'
p160
sg9
S'Anaphora-C'
p161
sg10
S'i32'
p162
sg12
S'i26'
p163
sg13
Nsg14
(lp164
(i__main__
Token
p165
(dp166
g18
I151
sbasg25
I151
sbasg7
g95
sg89
Nsba(i__main__
Chain
p167
(dp168
g3
(lp169
(i__main__
Mention
p170
(dp171
g7
S't3'
p172
sg9
Nsg10
S'i4'
p173
sg12
Nsg13
Nsg14
(lp174
(i__main__
Token
p175
(dp176
g18
I9
sba(i__main__
Token
p177
(dp178
g18
I10
sba(i__main__
Token
p179
(dp180
g18
I11
sbasg25
I11
sba(i__main__
Mention
p181
(dp182
g7
S't3'
p183
sg9
S'Coreference-Identity'
p184
sg10
S'i18'
p185
sg12
S'i4'
p186
sg13
Nsg14
(lp187
(i__main__
Token
p188
(dp189
g18
I71
sba(i__main__
Token
p190
(dp191
g18
I72
sbasg25
I72
sba(i__main__
Mention
p192
(dp193
g7
S't3'
p194
sg9
S'Coreference-Identity'
p195
sg10
S'i24'
p196
sg12
S'i18'
p197
sg13
Nsg14
(lp198
(i__main__
Token
p199
(dp200
g18
I110
sbasg25
I110
sbasg7
g172
sg89
Nsba(i__main__
Chain
p201
(dp202
g3
(lp203
(i__main__
Mention
p204
(dp205
g7
S't4'
p206
sg9
Nsg10
S'i5'
p207
sg12
Nsg13
Nsg14
(lp208
(i__main__
Token
p209
(dp210
g18
I13
sbasg25
I13
sba(i__main__
Mention
p211
(dp212
g7
S't4'
p213
sg9
S'Coreference-Identity'
p214
sg10
S'i19'
p215
sg12
S'i5'
p216
sg13
Nsg14
(lp217
(i__main__
Token
p218
(dp219
g18
I74
sbasg25
I74
sbasg7
g206
sg89
Nsba(i__main__
Chain
p220
(dp221
g3
(lp222
(i__main__
Mention
p223
(dp224
g7
S't5'
p225
sg9
Nsg10
S'i6'
p226
sg12
Nsg13
Nsg14
(lp227
(i__main__
Token
p228
(dp229
g18
I16
sba(i__main__
Token
p230
(dp231
g18
I17
sbasg25
I17
sba(i__main__
Mention
p232
(dp233
g7
S't5'
p234
sg9
S'Coreference-RPartOf'
p235
sg10
S'i35'
p236
sg12
S'i6'
p237
sg13
Nsg14
(lp238
(i__main__
Token
p239
(dp240
g18
I163
sbasg25
I163
sbasg7
g225
sg89
Nsba(i__main__
Chain
p241
(dp242
g3
(lp243
(i__main__
Mention
p244
(dp245
g7
S't6'
p246
sg9
Nsg10
S'i7'
p247
sg12
Nsg13
Nsg14
(lp248
(i__main__
Token
p249
(dp250
g18
I19
sba(i__main__
Token
p251
(dp252
g18
I20
sba(i__main__
Token
p253
(dp254
g18
I21
sbasg25
I21
sba(i__main__
Mention
p255
(dp256
g7
S't6'
p257
sg9
S'Coreference-Bracketed/Abbraviation'
p258
sg10
S'i8'
p259
sg12
S'i32'
p260
sg13
Nsg14
(lp261
(i__main__
Token
p262
(dp263
g18
I23
sbasg25
I23
sba(i__main__
Mention
p264
(dp265
g7
S't6'
p266
sg9
S'Coreference-Identity'
p267
sg10
S'i20'
p268
sg12
S'i8'
p269
sg13
Nsg14
(lp270
(i__main__
Token
p271
(dp272
g18
I77
sbasg25
I77
sba(i__main__
Mention
p273
(dp274
g7
S't6'
p275
sg9
S'Coreference-Identity'
p276
sg10
S'i31'
p277
sg12
S'i20'
p278
sg13
Nsg14
(lp279
(i__main__
Token
p280
(dp281
g18
I147
sbasg25
I147
sbasg7
g246
sg89
Nsba(i__main__
Chain
p282
(dp283
g3
(lp284
(i__main__
Mention
p285
(dp286
g7
S't7'
p287
sg9
S'anaphora-?'
p288
sg10
S'i11'
p289
sg12
S'i11'
p290
sg13
Nsg14
(lp291
(i__main__
Token
p292
(dp293
g18
I35
sbasg25
I35
sbasg7
g287
sg89
Nsba(i__main__
Chain
p294
(dp295
g3
(lp296
(i__main__
Mention
p297
(dp298
g7
S't8'
p299
sg9
S'anaphora-?'
p300
sg10
S'i14'
p301
sg12
S'i14'
p302
sg13
Nsg14
(lp303
(i__main__
Token
p304
(dp305
g18
I48
sbasg25
I48
sbasg7
g299
sg89
Nsba(i__main__
Chain
p306
(dp307
g3
(lp308
(i__main__
Mention
p309
(dp310
g7
S't9'
p311
sg9
S'anaphora-?'
p312
sg10
S'i27'
p313
sg12
S'i27'
p314
sg13
Nsg14
(lp315
(i__main__
Token
p316
(dp317
g18
I138
sbasg25
I138
sbasg7
g311
sg89
Nsba(i__main__
Chain
p318
(dp319
g3
(lp320
(i__main__
Mention
p321
(dp322
g7
S't10'
p323
sg9
Nsg10
S'i29'
p324
sg12
Nsg13
Nsg14
(lp325
(i__main__
Token
p326
(dp327
g18
I141
sbasg25
I141
sba(i__main__
Mention
p328
(dp329
g7
S't10'
p330
sg9
S'Coreference-NounComplement'
p331
sg10
S'i30'
p332
sg12
S'i29'
p333
sg13
Nsg14
(lp334
(i__main__
Token
p335
(dp336
g18
I142
sba(i__main__
Token
p337
(dp338
g18
I143
sbasg25
I143
sba(i__main__
Mention
p339
(dp340
g7
S't10'
p341
sg9
S'Anaphora-C'
p342
sg10
S'i34'
p343
sg12
S'i30'
p344
sg13
Nsg14
(lp345
(i__main__
Token
p346
(dp347
g18
I159
sbasg25
I159
sba(i__main__
Mention
p348
(dp349
g7
S't10'
p350
sg9
S'Anaphora-C'
p351
sg10
S'i36'
p352
sg12
S'i34'
p353
sg13
Nsg14
(lp354
(i__main__
Token
p355
(dp356
g18
I166
sbasg25
I166
sbasg7
g323
sg89
Nsba(i__main__
Chain
p357
(dp358
g3
(lp359
(i__main__
Mention
p360
(dp361
g7
S't11'
p362
sg9
S'anaphora-?'
p363
sg10
S'i33'
p364
sg12
S'i33'
p365
sg13
Nsg14
(lp366
(i__main__
Token
p367
(dp368
g18
I158
sbasg25
I158
sbasg7
g362
sg89
Nsba.