(lp0
(i__main__
Chain
p1
(dp2
S'mentionList'
p3
(lp4
(i__main__
Mention
p5
(dp6
S'chainId'
p7
S't1'
p8
sS'relType'
p9
NsS'mentionId'
p10
S'i1'
p11
sS'antecedentId'
p12
NsS'crefMod'
p13
NsS'tokenList'
p14
(lp15
(i__main__
Token
p16
(dp17
S'tokenId'
p18
I0
sbasS'mentionHead'
p19
I0
sba(i__main__
Mention
p20
(dp21
g7
S't1'
p22
sg9
S'Anaphora-C'
p23
sg10
S'i3'
p24
sg12
S'i1'
p25
sg13
Nsg14
(lp26
(i__main__
Token
p27
(dp28
g18
I7
sbasg19
I7
sba(i__main__
Mention
p29
(dp30
g7
S't1'
p31
sg9
S'Anaphora-RC'
p32
sg10
S'i5'
p33
sg12
S'i3'
p34
sg13
Nsg14
(lp35
(i__main__
Token
p36
(dp37
g18
I11
sba(i__main__
Token
p38
(dp39
g18
I12
sba(i__main__
Token
p40
(dp41
g18
I13
sba(i__main__
Token
p42
(dp43
g18
I14
sbasg19
I14
sba(i__main__
Mention
p44
(dp45
g7
S't1'
p46
sg9
S'Coreference-Noun-Noun'
p47
sg10
S'i10'
p48
sg12
S'i5'
p49
sg13
Nsg14
(lp50
(i__main__
Token
p51
(dp52
g18
I28
sba(i__main__
Token
p53
(dp54
g18
I29
sba(i__main__
Token
p55
(dp56
g18
I30
sbasg19
I30
sba(i__main__
Mention
p57
(dp58
g7
S't1'
p59
sg9
S'Coreference-Noun-Noun'
p60
sg10
S'i14'
p61
sg12
S'i10'
p62
sg13
Nsg14
(lp63
(i__main__
Token
p64
(dp65
g18
I39
sba(i__main__
Token
p66
(dp67
g18
I40
sbasg19
I40
sba(i__main__
Mention
p68
(dp69
g7
S't1'
p70
sg9
S'Coreference-Identity'
p71
sg10
S'i25'
p72
sg12
S'i14'
p73
sg13
Nsg14
(lp74
(i__main__
Token
p75
(dp76
g18
I108
sba(i__main__
Token
p77
(dp78
g18
I109
sba(i__main__
Token
p79
(dp80
g18
I110
sba(i__main__
Token
p81
(dp82
g18
I111
sba(i__main__
Token
p83
(dp84
g18
I112
sba(i__main__
Token
p85
(dp86
g18
I113
sbasg19
I113
sba(i__main__
Mention
p87
(dp88
g7
S't1'
p89
sg9
S'Anaphora-C'
p90
sg10
S'i28'
p91
sg12
S'i25'
p92
sg13
Nsg14
(lp93
(i__main__
Token
p94
(dp95
g18
I140
sbasg19
I140
sba(i__main__
Mention
p96
(dp97
g7
S't1'
p98
sg9
S'Coreference-Noun-Noun'
p99
sg10
S'i29'
p100
sg12
S'i28'
p101
sg13
Nsg14
(lp102
(i__main__
Token
p103
(dp104
g18
I142
sba(i__main__
Token
p105
(dp106
g18
I143
sbasg19
I143
sba(i__main__
Mention
p107
(dp108
g7
S't1'
p109
sg9
S'Coreference-Noun-Noun'
p110
sg10
S'i38'
p111
sg12
S'i29'
p112
sg13
Nsg14
(lp113
(i__main__
Token
p114
(dp115
g18
I198
sba(i__main__
Token
p116
(dp117
g18
I199
sbasg19
I199
sba(i__main__
Mention
p118
(dp119
g7
S't1'
p120
sg9
S'Coreference-Identity'
p121
sg10
S'i44'
p122
sg12
S'i38'
p123
sg13
Nsg14
(lp124
(i__main__
Token
p125
(dp126
g18
I234
sba(i__main__
Token
p127
(dp128
g18
I235
sbasg19
I235
sba(i__main__
Mention
p129
(dp130
g7
S't1'
p131
sg9
S'Coreference-Noun-Noun'
p132
sg10
S'i48'
p133
sg12
S'i44'
p134
sg13
Nsg14
(lp135
(i__main__
Token
p136
(dp137
g18
I251
sba(i__main__
Token
p138
(dp139
g18
I253
sba(i__main__
Token
p140
(dp141
g18
I254
sbasg19
I254
sba(i__main__
Mention
p142
(dp143
g7
S't1'
p144
sg9
S'Anaphora-C'
p145
sg10
S'i52'
p146
sg12
S'i48'
p147
sg13
Nsg14
(lp148
(i__main__
Token
p149
(dp150
g18
I270
sbasg19
I270
sba(i__main__
Mention
p151
(dp152
g7
S't1'
p153
sg9
S'Coreference-Noun-Noun'
p154
sg10
S'i55'
p155
sg12
S'i52'
p156
sg13
Nsg14
(lp157
(i__main__
Token
p158
(dp159
g18
I284
sba(i__main__
Token
p160
(dp161
g18
I285
sba(i__main__
Token
p162
(dp163
g18
I286
sbasg19
I286
sba(i__main__
Mention
p164
(dp165
g7
S't1'
p166
sg9
S'Anaphora-C'
p167
sg10
S'i57'
p168
sg12
S'i55'
p169
sg13
Nsg14
(lp170
(i__main__
Token
p171
(dp172
g18
I313
sbasg19
I313
sba(i__main__
Mention
p173
(dp174
g7
S't1'
p175
sg9
Nsg10
S'i78'
p176
sg12
Nsg13
Nsg14
(lp177
(i__main__
Token
p178
(dp179
g18
I471
sbasg19
Nsbasg7
g8
sS'chainHead'
p180
Nsba(i__main__
Chain
p181
(dp182
g3
(lp183
(i__main__
Mention
p184
(dp185
g7
S't2'
p186
sg9
Nsg10
S'i2'
p187
sg12
Nsg13
Nsg14
(lp188
(i__main__
Token
p189
(dp190
g18
I2
sba(i__main__
Token
p191
(dp192
g18
I3
sba(i__main__
Token
p193
(dp194
g18
I4
sbasg19
I4
sba(i__main__
Mention
p195
(dp196
g7
S't2'
p197
sg9
S'Coreference-InferedRelation'
p198
sg10
S'i49'
p199
sg12
S'i2'
p200
sg13
Nsg14
(lp201
(i__main__
Token
p202
(dp203
g18
I256
sba(i__main__
Token
p204
(dp205
g18
I257
sba(i__main__
Token
p206
(dp207
g18
I258
sbasg19
I258
sbasg7
g186
sg180
Nsba(i__main__
Chain
p208
(dp209
g3
(lp210
(i__main__
Mention
p211
(dp212
g7
S't3'
p213
sg9
Nsg10
S'i4'
p214
sg12
Nsg13
Nsg14
(lp215
(i__main__
Token
p216
(dp217
g18
I8
sbasg19
I8
sbasg7
g213
sg180
Nsba(i__main__
Chain
p218
(dp219
g3
(lp220
(i__main__
Mention
p221
(dp222
g7
S't4'
p223
sg9
Nsg10
S'i6'
p224
sg12
Nsg13
Nsg14
(lp225
(i__main__
Token
p226
(dp227
g18
I20
sba(i__main__
Token
p228
(dp229
g18
I21
sba(i__main__
Token
p230
(dp231
g18
I22
sbasg19
I22
sba(i__main__
Mention
p232
(dp233
g7
S't4'
p234
sg9
S'Coreference-NounComplement'
p235
sg10
S'i8'
p236
sg12
S'i6'
p237
sg13
Nsg14
(lp238
(i__main__
Token
p239
(dp240
g18
I23
sbasg19
I23
sba(i__main__
Mention
p241
(dp242
g7
S't4'
p243
sg9
S'Coreference-Identity'
p244
sg10
S'i46'
p245
sg12
S'i8'
p246
sg13
Nsg14
(lp247
(i__main__
Token
p248
(dp249
g18
I244
sbasg19
I244
sba(i__main__
Mention
p250
(dp251
g7
S't4'
p252
sg9
S'Coreference-Identity'
p253
sg10
S'i67'
p254
sg12
S'i46'
p255
sg13
Nsg14
(lp256
(i__main__
Token
p257
(dp258
g18
I409
sbasg19
I409
sbasg7
g223
sg180
Nsba(i__main__
Chain
p259
(dp260
g3
(lp261
(i__main__
Mention
p262
(dp263
g7
S't5'
p264
sg9
Nsg10
S'i7'
p265
sg12
Nsg13
Nsg14
(lp266
(i__main__
Token
p267
(dp268
g18
I21
sbasg19
I21
sba(i__main__
Mention
p269
(dp270
g7
S't5'
p271
sg9
S'Coreference-Identity'
p272
sg10
S'i15'
p273
sg12
S'i7'
p274
sg13
Nsg14
(lp275
(i__main__
Token
p276
(dp277
g18
I44
sbasg19
I44
sba(i__main__
Mention
p278
(dp279
g7
S't5'
p280
sg9
S'Coreference-Identity'
p281
sg10
S'i83'
p282
sg12
S'i15'
p283
sg13
Nsg14
(lp284
(i__main__
Token
p285
(dp286
g18
I501
sbasg19
I501
sbasg7
g264
sg180
Nsba(i__main__
Chain
p287
(dp288
g3
(lp289
(i__main__
Mention
p290
(dp291
g7
S't6'
p292
sg9
Nsg10
S'i9'
p293
sg12
Nsg13
Nsg14
(lp294
(i__main__
Token
p295
(dp296
g18
I25
sba(i__main__
Token
p297
(dp298
g18
I26
sbasg19
I26
sba(i__main__
Mention
p299
(dp300
g7
S't6'
p301
sg9
S'Coreference-Identity'
p302
sg10
S'i62'
p303
sg12
S'i9'
p304
sg13
Nsg14
(lp305
(i__main__
Token
p306
(dp307
g18
I376
sbasg19
I376
sba(i__main__
Mention
p308
(dp309
g7
S't6'
p310
sg9
S'Coreference-Identity'
p311
sg10
S'i68'
p312
sg12
S'i62'
p313
sg13
Nsg14
(lp314
(i__main__
Token
p315
(dp316
g18
I411
sba(i__main__
Token
p317
(dp318
g18
I412
sba(i__main__
Token
p319
(dp320
g18
I413
sbasg19
I413
sba(i__main__
Mention
p321
(dp322
g7
S't6'
p323
sg9
S'Coreference-Identity'
p324
sg10
S'i71'
p325
sg12
S'i68'
p326
sg13
Nsg14
(lp327
(i__main__
Token
p328
(dp329
g18
I431
sba(i__main__
Token
p330
(dp331
g18
I432
sbasg19
I432
sbasg7
g292
sg180
Nsba(i__main__
Chain
p332
(dp333
g3
(lp334
(i__main__
Mention
p335
(dp336
g7
S't7'
p337
sg9
Nsg10
S'i11'
p338
sg12
Nsg13
Nsg14
(lp339
(i__main__
Token
p340
(dp341
g18
I32
sba(i__main__
Token
p342
(dp343
g18
I33
sbasg19
Nsba(i__main__
Mention
p344
(dp345
g7
S't7'
p346
sg9
S'Coreference-RPartOf'
p347
sg10
S'i53'
p348
sg12
S'i11'
p349
sg13
Nsg14
(lp350
(i__main__
Token
p351
(dp352
g18
I280
sbasg19
I280
sba(i__main__
Mention
p353
(dp354
g7
S't7'
p355
sg9
S'Coreference-NounComplement'
p356
sg10
S'i54'
p357
sg12
S'i53'
p358
sg13
Nsg14
(lp359
(i__main__
Token
p360
(dp361
g18
I281
sba(i__main__
Token
p362
(dp363
g18
I282
sbasg19
I282
sba(i__main__
Mention
p364
(dp365
g7
S't7'
p366
sg9
S'Coreference-Identity'
p367
sg10
S'i58'
p368
sg12
S'i54'
p369
sg13
Nsg14
(lp370
(i__main__
Token
p371
(dp372
g18
I339
sbasg19
I339
sba(i__main__
Mention
p373
(dp374
g7
S't7'
p375
sg9
Nsg10
S'i76'
p376
sg12
Nsg13
Nsg14
(lp377
(i__main__
Token
p378
(dp379
g18
I466
sbasg19
Nsbasg7
g337
sg180
Nsba(i__main__
Chain
p380
(dp381
g3
(lp382
(i__main__
Mention
p383
(dp384
g7
S't8'
p385
sg9
Nsg10
S'i12'
p386
sg12
Nsg13
Nsg14
(lp387
(i__main__
Token
p388
(dp389
g18
I32
sba(i__main__
Token
p390
(dp391
g18
I33
sbasg19
Nsba(i__main__
Mention
p392
(dp393
g7
S't8'
p394
sg9
S'Coreference-PartOf'
p395
sg10
S'i23'
p396
sg12
S'i12'
p397
sg13
Nsg14
(lp398
(i__main__
Token
p399
(dp400
g18
I103
sbasg19
I103
sba(i__main__
Mention
p401
(dp402
g7
S't8'
p403
sg9
S'Coreference-NounComplement'
p404
sg10
S'i24'
p405
sg12
S'i23'
p406
sg13
Nsg14
(lp407
(i__main__
Token
p408
(dp409
g18
I104
sba(i__main__
Token
p410
(dp411
g18
I105
sbasg19
I105
sba(i__main__
Mention
p412
(dp413
g7
S't8'
p414
sg9
S'Coreference-Identity'
p415
sg10
S'i47'
p416
sg12
S'i24'
p417
sg13
Nsg14
(lp418
(i__main__
Token
p419
(dp420
g18
I247
sbasg19
I247
sba(i__main__
Mention
p421
(dp422
g7
S't8'
p423
sg9
S'Anaphora-C'
p424
sg10
S'i50'
p425
sg12
S'i47'
p426
sg13
Nsg14
(lp427
(i__main__
Token
p428
(dp429
g18
I262
sbasg19
I262
sba(i__main__
Mention
p430
(dp431
g7
S't8'
p432
sg9
Nsg10
S'i75'
p433
sg12
Nsg13
Nsg14
(lp434
(i__main__
Token
p435
(dp436
g18
I466
sbasg19
Nsbasg7
g385
sg180
Nsba(i__main__
Chain
p437
(dp438
g3
(lp439
(i__main__
Mention
p440
(dp441
g7
S't9'
p442
sg9
Nsg10
S'i13'
p443
sg12
Nsg13
Nsg14
(lp444
(i__main__
Token
p445
(dp446
g18
I32
sba(i__main__
Token
p447
(dp448
g18
I33
sbasg19
Nsba(i__main__
Mention
p449
(dp450
g7
S't9'
p451
sg9
Nsg10
S'i77'
p452
sg12
Nsg13
Nsg14
(lp453
(i__main__
Token
p454
(dp455
g18
I466
sbasg19
Nsbasg7
g442
sg180
Nsba(i__main__
Chain
p456
(dp457
g3
(lp458
(i__main__
Mention
p459
(dp460
g7
S't10'
p461
sg9
Nsg10
S'i16'
p462
sg12
Nsg13
Nsg14
(lp463
(i__main__
Token
p464
(dp465
g18
I56
sbasg19
I56
sba(i__main__
Mention
p466
(dp467
g7
S't10'
p468
sg9
S'Anaphora-C'
p469
sg10
S'i17'
p470
sg12
S'i16'
p471
sg13
Nsg14
(lp472
(i__main__
Token
p473
(dp474
g18
I57
sbasg19
I57
sbasg7
g461
sg180
Nsba(i__main__
Chain
p475
(dp476
g3
(lp477
(i__main__
Mention
p478
(dp479
g7
S't11'
p480
sg9
Nsg10
S'i18'
p481
sg12
Nsg13
Nsg14
(lp482
(i__main__
Token
p483
(dp484
g18
I60
sbasg19
I60
sba(i__main__
Mention
p485
(dp486
g7
S't11'
p487
sg9
S'Coreference-Identity'
p488
sg10
S'i19'
p489
sg12
S'i18'
p490
sg13
Nsg14
(lp491
(i__main__
Token
p492
(dp493
g18
I66
sba(i__main__
Token
p494
(dp495
g18
I67
sbasg19
I67
sbasg7
g480
sg180
Nsba(i__main__
Chain
p496
(dp497
g3
(lp498
(i__main__
Mention
p499
(dp500
g7
S't12'
p501
sg9
Nsg10
S'i20'
p502
sg12
Nsg13
Nsg14
(lp503
(i__main__
Token
p504
(dp505
g18
I77
sbasg19
I77
sbasg7
g501
sg180
Nsba(i__main__
Chain
p506
(dp507
g3
(lp508
(i__main__
Mention
p509
(dp510
g7
S't13'
p511
sg9
Nsg10
S'i21'
p512
sg12
Nsg13
Nsg14
(lp513
(i__main__
Token
p514
(dp515
g18
I78
sbasg19
I78
sbasg7
g511
sg180
Nsba(i__main__
Chain
p516
(dp517
g3
(lp518
(i__main__
Mention
p519
(dp520
g7
S't14'
p521
sg9
Nsg10
S'i22'
p522
sg12
Nsg13
Nsg14
(lp523
(i__main__
Token
p524
(dp525
g18
I89
sbasg19
I89
sbasg7
g521
sg180
Nsba(i__main__
Chain
p526
(dp527
g3
(lp528
(i__main__
Mention
p529
(dp530
g7
S't15'
p531
sg9
Nsg10
S'i26'
p532
sg12
Nsg13
Nsg14
(lp533
(i__main__
Token
p534
(dp535
g18
I115
sba(i__main__
Token
p536
(dp537
g18
I116
sba(i__main__
Token
p538
(dp539
g18
I117
sba(i__main__
Token
p540
(dp541
g18
I118
sbasg19
I116
sba(i__main__
Mention
p542
(dp543
g7
S't15'
p544
sg9
S'Coreference-Identity'
p545
sg10
S'i39'
p546
sg12
S'i26'
p547
sg13
Nsg14
(lp548
(i__main__
Token
p549
(dp550
g18
I202
sba(i__main__
Token
p551
(dp552
g18
I203
sba(i__main__
Token
p553
(dp554
g18
I204
sba(i__main__
Token
p555
(dp556
g18
I205
sba(i__main__
Token
p557
(dp558
g18
I206
sbasg19
I206
sba(i__main__
Mention
p559
(dp560
g7
S't15'
p561
sg9
S'Coreference-Identity'
p562
sg10
S'i56'
p563
sg12
S'i39'
p564
sg13
Nsg14
(lp565
(i__main__
Token
p566
(dp567
g18
I292
sba(i__main__
Token
p568
(dp569
g18
I293
sba(i__main__
Token
p570
(dp571
g18
I294
sba(i__main__
Token
p572
(dp573
g18
I295
sbasg19
I293
sbasg7
g531
sg180
Nsba(i__main__
Chain
p574
(dp575
g3
(lp576
(i__main__
Mention
p577
(dp578
g7
S't16'
p579
sg9
Nsg10
S'i27'
p580
sg12
Nsg13
Nsg14
(lp581
(i__main__
Token
p582
(dp583
g18
I139
sbasg19
I139
sba(i__main__
Mention
p584
(dp585
g7
S't16'
p586
sg9
S'Coreference-Identity'
p587
sg10
S'i30'
p588
sg12
S'i27'
p589
sg13
Nsg14
(lp590
(i__main__
Token
p591
(dp592
g18
I150
sbasg19
I150
sba(i__main__
Mention
p593
(dp594
g7
S't16'
p595
sg9
S'Coreference-Identity'
p596
sg10
S'i37'
p597
sg12
S'i30'
p598
sg13
Nsg14
(lp599
(i__main__
Token
p600
(dp601
g18
I194
sbasg19
I194
sba(i__main__
Mention
p602
(dp603
g7
S't16'
p604
sg9
S'Coreference-Identity'
p605
sg10
S'i42'
p606
sg12
S'i37'
p607
sg13
Nsg14
(lp608
(i__main__
Token
p609
(dp610
g18
I222
sbasg19
I222
sbasg7
g579
sg180
Nsba(i__main__
Chain
p611
(dp612
g3
(lp613
(i__main__
Mention
p614
(dp615
g7
S't17'
p616
sg9
Nsg10
S'i31'
p617
sg12
Nsg13
Nsg14
(lp618
(i__main__
Token
p619
(dp620
g18
I151
sba(i__main__
Token
p621
(dp622
g18
I152
sba(i__main__
Token
p623
(dp624
g18
I153
sbasg19
I153
sba(i__main__
Mention
p625
(dp626
g7
S't17'
p627
sg9
S'Anaphora-C'
p628
sg10
S'i32'
p629
sg12
S'i31'
p630
sg13
Nsg14
(lp631
(i__main__
Token
p632
(dp633
g18
I159
sbasg19
I159
sba(i__main__
Mention
p634
(dp635
g7
S't17'
p636
sg9
S'Anaphora-C'
p637
sg10
S'i34'
p638
sg12
S'i32'
p639
sg13
Nsg14
(lp640
(i__main__
Token
p641
(dp642
g18
I173
sbasg19
I173
sbasg7
g616
sg180
Nsba(i__main__
Chain
p643
(dp644
g3
(lp645
(i__main__
Mention
p646
(dp647
g7
S't18'
p648
sg9
Nsg10
S'i33'
p649
sg12
Nsg13
Nsg14
(lp650
(i__main__
Token
p651
(dp652
g18
I160
sbasg19
I160
sbasg7
g648
sg180
Nsba(i__main__
Chain
p653
(dp654
g3
(lp655
(i__main__
Mention
p656
(dp657
g7
S't19'
p658
sg9
Nsg10
S'i35'
p659
sg12
Nsg13
Nsg14
(lp660
(i__main__
Token
p661
(dp662
g18
I180
sbasg19
I180
sba(i__main__
Mention
p663
(dp664
g7
S't19'
p665
sg9
S'Anaphora-C'
p666
sg10
S'i36'
p667
sg12
S'i35'
p668
sg13
Nsg14
(lp669
(i__main__
Token
p670
(dp671
g18
I182
sbasg19
I182
sba(i__main__
Mention
p672
(dp673
g7
S't19'
p674
sg9
S'Coreference-Identity'
p675
sg10
S'i66'
p676
sg12
S'i36'
p677
sg13
Nsg14
(lp678
(i__main__
Token
p679
(dp680
g18
I394
sbasg19
I394
sba(i__main__
Mention
p681
(dp682
g7
S't19'
p683
sg9
S'Coreference-Identity'
p684
sg10
S'i81'
p685
sg12
S'i66'
p686
sg13
Nsg14
(lp687
(i__main__
Token
p688
(dp689
g18
I489
sbasg19
I489
sbasg7
g658
sg180
Nsba(i__main__
Chain
p690
(dp691
g3
(lp692
(i__main__
Mention
p693
(dp694
g7
S't20'
p695
sg9
Nsg10
S'i40'
p696
sg12
Nsg13
Nsg14
(lp697
(i__main__
Token
p698
(dp699
g18
I210
sbasg19
I210
sba(i__main__
Mention
p700
(dp701
g7
S't20'
p702
sg9
S'Coreference-Identity'
p703
sg10
S'i43'
p704
sg12
S'i40'
p705
sg13
Nsg14
(lp706
(i__main__
Token
p707
(dp708
g18
I224
sbasg19
I224
sba(i__main__
Mention
p709
(dp710
g7
S't20'
p711
sg9
S'Coreference-Identity'
p712
sg10
S'i45'
p713
sg12
S'i43'
p714
sg13
Nsg14
(lp715
(i__main__
Token
p716
(dp717
g18
I236
sba(i__main__
Token
p718
(dp719
g18
I237
sbasg19
I237
sbasg7
g695
sg180
Nsba(i__main__
Chain
p720
(dp721
g3
(lp722
(i__main__
Mention
p723
(dp724
g7
S't21'
p725
sg9
Nsg10
S'i41'
p726
sg12
Nsg13
Nsg14
(lp727
(i__main__
Token
p728
(dp729
g18
I221
sbasg19
I221
sbasg7
g725
sg180
Nsba(i__main__
Chain
p730
(dp731
g3
(lp732
(i__main__
Mention
p733
(dp734
g7
S't22'
p735
sg9
Nsg10
S'i51'
p736
sg12
Nsg13
Nsg14
(lp737
(i__main__
Token
p738
(dp739
g18
I264
sbasg19
I264
sbasg7
g735
sg180
Nsba(i__main__
Chain
p740
(dp741
g3
(lp742
(i__main__
Mention
p743
(dp744
g7
S't23'
p745
sg9
Nsg10
S'i59'
p746
sg12
Nsg13
Nsg14
(lp747
(i__main__
Token
p748
(dp749
g18
I344
sbasg19
I344
sbasg7
g745
sg180
Nsba(i__main__
Chain
p750
(dp751
g3
(lp752
(i__main__
Mention
p753
(dp754
g7
S't24'
p755
sg9
Nsg10
S'i60'
p756
sg12
Nsg13
Nsg14
(lp757
(i__main__
Token
p758
(dp759
g18
I348
sbasg19
I348
sbasg7
g755
sg180
Nsba(i__main__
Chain
p760
(dp761
g3
(lp762
(i__main__
Mention
p763
(dp764
g7
S't25'
p765
sg9
Nsg10
S'i61'
p766
sg12
Nsg13
Nsg14
(lp767
(i__main__
Token
p768
(dp769
g18
I360
sbasg19
I360
sbasg7
g765
sg180
Nsba(i__main__
Chain
p770
(dp771
g3
(lp772
(i__main__
Mention
p773
(dp774
g7
S't26'
p775
sg9
Nsg10
S'i63'
p776
sg12
Nsg13
Nsg14
(lp777
(i__main__
Token
p778
(dp779
g18
I378
sba(i__main__
Token
p780
(dp781
g18
I379
sbasg19
I379
sba(i__main__
Mention
p782
(dp783
g7
S't26'
p784
sg9
S'Coreference-Identity'
p785
sg10
S'i69'
p786
sg12
S'i63'
p787
sg13
Nsg14
(lp788
(i__main__
Token
p789
(dp790
g18
I415
sba(i__main__
Token
p791
(dp792
g18
I416
sbasg19
I416
sba(i__main__
Mention
p793
(dp794
g7
S't26'
p795
sg9
S'Anaphora-C'
p796
sg10
S'i70'
p797
sg12
S'i69'
p798
sg13
Nsg14
(lp799
(i__main__
Token
p800
(dp801
g18
I428
sbasg19
I428
sbasg7
g775
sg180
Nsba(i__main__
Chain
p802
(dp803
g3
(lp804
(i__main__
Mention
p805
(dp806
g7
S't27'
p807
sg9
Nsg10
S'i64'
p808
sg12
Nsg13
Nsg14
(lp809
(i__main__
Token
p810
(dp811
g18
I387
sbasg19
I387
sba(i__main__
Mention
p812
(dp813
g7
S't27'
p814
sg9
S'Anaphora-C'
p815
sg10
S'i65'
p816
sg12
S'i64'
p817
sg13
Nsg14
(lp818
(i__main__
Token
p819
(dp820
g18
I393
sbasg19
I393
sbasg7
g807
sg180
Nsba(i__main__
Chain
p821
(dp822
g3
(lp823
(i__main__
Mention
p824
(dp825
g7
S't28'
p826
sg9
Nsg10
S'i72'
p827
sg12
Nsg13
Nsg14
(lp828
(i__main__
Token
p829
(dp830
g18
I435
sbasg19
I435
sba(i__main__
Mention
p831
(dp832
g7
S't28'
p833
sg9
S'Coreference-Identity'
p834
sg10
S'i84'
p835
sg12
S'i72'
p836
sg13
Nsg14
(lp837
(i__main__
Token
p838
(dp839
g18
I513
sbasg19
I513
sbasg7
g826
sg180
Nsba(i__main__
Chain
p840
(dp841
g3
(lp842
(i__main__
Mention
p843
(dp844
g7
S't29'
p845
sg9
Nsg10
S'i73'
p846
sg12
Nsg13
Nsg14
(lp847
(i__main__
Token
p848
(dp849
g18
I437
sbasg19
I437
sba(i__main__
Mention
p850
(dp851
g7
S't29'
p852
sg9
S'Anaphora-C'
p853
sg10
S'i74'
p854
sg12
S'i73'
p855
sg13
Nsg14
(lp856
(i__main__
Token
p857
(dp858
g18
I444
sbasg19
I444
sbasg7
g845
sg180
Nsba(i__main__
Chain
p859
(dp860
g3
(lp861
(i__main__
Mention
p862
(dp863
g7
S't30'
p864
sg9
Nsg10
S'i79'
p865
sg12
Nsg13
Nsg14
(lp866
(i__main__
Token
p867
(dp868
g18
I471
sbasg19
Nsbasg7
g864
sg180
Nsba(i__main__
Chain
p869
(dp870
g3
(lp871
(i__main__
Mention
p872
(dp873
g7
S't31'
p874
sg9
Nsg10
S'i80'
p875
sg12
Nsg13
Nsg14
(lp876
(i__main__
Token
p877
(dp878
g18
I474
sba(i__main__
Token
p879
(dp880
g18
I475
sbasg19
I475
sba(i__main__
Mention
p881
(dp882
g7
S't31'
p883
sg9
S'Coreference-Identity'
p884
sg10
S'i82'
p885
sg12
S'i80'
p886
sg13
Nsg14
(lp887
(i__main__
Token
p888
(dp889
g18
I495
sba(i__main__
Token
p890
(dp891
g18
I496
sbasg19
I496
sbasg7
g874
sg180
Nsba.