(lp0
(i__main__
Chain
p1
(dp2
S'mentionList'
p3
(lp4
(i__main__
Mention
p5
(dp6
S'chainId'
p7
S't1'
p8
sS'relType'
p9
NsS'mentionId'
p10
S'i1'
p11
sS'antecedentId'
p12
NsS'crefMod'
p13
NsS'tokenList'
p14
(lp15
(i__main__
Token
p16
(dp17
S'tokenId'
p18
I0
sba(i__main__
Token
p19
(dp20
g18
I1
sbasS'mentionHead'
p21
I1
sba(i__main__
Mention
p22
(dp23
g7
S't1'
p24
sg9
S'Coreference-Identity'
p25
sg10
S'i23'
p26
sg12
S'i1'
p27
sg13
Nsg14
(lp28
(i__main__
Token
p29
(dp30
g18
I86
sbasg21
I86
sbasg7
g8
sS'chainHead'
p31
Nsba(i__main__
Chain
p32
(dp33
g3
(lp34
(i__main__
Mention
p35
(dp36
g7
S't2'
p37
sg9
Nsg10
S'i2'
p38
sg12
Nsg13
Nsg14
(lp39
(i__main__
Token
p40
(dp41
g18
I3
sbasg21
I3
sba(i__main__
Mention
p42
(dp43
g7
S't2'
p44
sg9
S'Coreference-NounComplement'
p45
sg10
S'i3'
p46
sg12
S'i2'
p47
sg13
Nsg14
(lp48
(i__main__
Token
p49
(dp50
g18
I4
sba(i__main__
Token
p51
(dp52
g18
I5
sbasg21
I5
sba(i__main__
Mention
p53
(dp54
g7
S't2'
p55
sg9
S'Anaphora-C'
p56
sg10
S'i8'
p57
sg12
S'i3'
p58
sg13
Nsg14
(lp59
(i__main__
Token
p60
(dp61
g18
I28
sbasg21
I28
sba(i__main__
Mention
p62
(dp63
g7
S't2'
p64
sg9
S'Coreference-Identity'
p65
sg10
S'i15'
p66
sg12
S'i8'
p67
sg13
Nsg14
(lp68
(i__main__
Token
p69
(dp70
g18
I52
sbasg21
I52
sba(i__main__
Mention
p71
(dp72
g7
S't2'
p73
sg9
S'Coreference-Identity'
p74
sg10
S'i18'
p75
sg12
S'i15'
p76
sg13
Nsg14
(lp77
(i__main__
Token
p78
(dp79
g18
I71
sbasg21
I71
sba(i__main__
Mention
p80
(dp81
g7
S't2'
p82
sg9
S'Anaphora-C'
p83
sg10
S'i21'
p84
sg12
S'i18'
p85
sg13
Nsg14
(lp86
(i__main__
Token
p87
(dp88
g18
I80
sbasg21
I80
sba(i__main__
Mention
p89
(dp90
g7
S't2'
p91
sg9
S'Anaphora-C'
p92
sg10
S'i22'
p93
sg12
S'i21'
p94
sg13
Nsg14
(lp95
(i__main__
Token
p96
(dp97
g18
I84
sbasg21
I84
sba(i__main__
Mention
p98
(dp99
g7
S't2'
p100
sg9
S'Coreference-Identity'
p101
sg10
S'i24'
p102
sg12
S'i22'
p103
sg13
Nsg14
(lp104
(i__main__
Token
p105
(dp106
g18
I101
sba(i__main__
Token
p107
(dp108
g18
I102
sbasg21
I102
sba(i__main__
Mention
p109
(dp110
g7
S't2'
p111
sg9
S'Anaphora-C'
p112
sg10
S'i32'
p113
sg12
S'i24'
p114
sg13
Nsg14
(lp115
(i__main__
Token
p116
(dp117
g18
I140
sbasg21
I140
sba(i__main__
Mention
p118
(dp119
g7
S't2'
p120
sg9
S'Anaphora-C'
p121
sg10
S'i37'
p122
sg12
S'i32'
p123
sg13
Nsg14
(lp124
(i__main__
Token
p125
(dp126
g18
I182
sbasg21
I182
sba(i__main__
Mention
p127
(dp128
g7
S't2'
p129
sg9
S'Coreference-Identity'
p130
sg10
S'i40'
p131
sg12
S'i37'
p132
sg13
Nsg14
(lp133
(i__main__
Token
p134
(dp135
g18
I214
sbasg21
I214
sbasg7
g37
sg31
Nsba(i__main__
Chain
p136
(dp137
g3
(lp138
(i__main__
Mention
p139
(dp140
g7
S't3'
p141
sg9
Nsg10
S'i4'
p142
sg12
Nsg13
Nsg14
(lp143
(i__main__
Token
p144
(dp145
g18
I7
sba(i__main__
Token
p146
(dp147
g18
I8
sbasg21
I8
sba(i__main__
Mention
p148
(dp149
g7
S't3'
p150
sg9
S'Coreference-Identity'
p151
sg10
S'i14'
p152
sg12
S'i4'
p153
sg13
Nsg14
(lp154
(i__main__
Token
p155
(dp156
g18
I49
sba(i__main__
Token
p157
(dp158
g18
I50
sbasg21
I50
sba(i__main__
Mention
p159
(dp160
g7
S't3'
p161
sg9
S'Coreference-Identity'
p162
sg10
S'i16'
p163
sg12
S'i14'
p164
sg13
Nsg14
(lp165
(i__main__
Token
p166
(dp167
g18
I54
sba(i__main__
Token
p168
(dp169
g18
I55
sbasg21
I55
sba(i__main__
Mention
p170
(dp171
g7
S't3'
p172
sg9
S'Coreference-Identity'
p173
sg10
S'i41'
p174
sg12
S'i16'
p175
sg13
Nsg14
(lp176
(i__main__
Token
p177
(dp178
g18
I219
sbasg21
I219
sbasg7
g141
sg31
Nsba(i__main__
Chain
p179
(dp180
g3
(lp181
(i__main__
Mention
p182
(dp183
g7
S't4'
p184
sg9
Nsg10
S'i5'
p185
sg12
Nsg13
Nsg14
(lp186
(i__main__
Token
p187
(dp188
g18
I11
sba(i__main__
Token
p189
(dp190
g18
I12
sba(i__main__
Token
p191
(dp192
g18
I13
sbasg21
I13
sba(i__main__
Mention
p193
(dp194
g7
S't4'
p195
sg9
S'Coreference-Abbreviation'
p196
sg10
S'i9'
p197
sg12
S'i5'
p198
sg13
Nsg14
(lp199
(i__main__
Token
p200
(dp201
g18
I29
sbasg21
I29
sba(i__main__
Mention
p202
(dp203
g7
S't4'
p204
sg9
S'Coreference-Identity'
p205
sg10
S'i13'
p206
sg12
S'i9'
p207
sg13
Nsg14
(lp208
(i__main__
Token
p209
(dp210
g18
I40
sbasg21
I40
sba(i__main__
Mention
p211
(dp212
g7
S't4'
p213
sg9
S'Coreference-Noun-Noun'
p214
sg10
S'i27'
p215
sg12
S'i13'
p216
sg13
Nsg14
(lp217
(i__main__
Token
p218
(dp219
g18
I121
sbasg21
I121
sba(i__main__
Mention
p220
(dp221
g7
S't4'
p222
sg9
S'Coreference-Noun-Noun'
p223
sg10
S'i34'
p224
sg12
S'i27'
p225
sg13
Nsg14
(lp226
(i__main__
Token
p227
(dp228
g18
I148
sbasg21
I148
sba(i__main__
Mention
p229
(dp230
g7
S't4'
p231
sg9
S'Coreference-Noun-Noun'
p232
sg10
S'i36'
p233
sg12
S'i34'
p234
sg13
Nsg14
(lp235
(i__main__
Token
p236
(dp237
g18
I172
sbasg21
I172
sba(i__main__
Mention
p238
(dp239
g7
S't4'
p240
sg9
S'Coreference-Noun-Noun'
p241
sg10
S'i38'
p242
sg12
S'i36'
p243
sg13
Nsg14
(lp244
(i__main__
Token
p245
(dp246
g18
I199
sbasg21
I199
sba(i__main__
Mention
p247
(dp248
g7
S't4'
p249
sg9
S'Coreference-Identity'
p250
sg10
S'i45'
p251
sg12
S'i38'
p252
sg13
Nsg14
(lp253
(i__main__
Token
p254
(dp255
g18
I230
sbasg21
I230
sbasg7
g184
sg31
Nsba(i__main__
Chain
p256
(dp257
g3
(lp258
(i__main__
Mention
p259
(dp260
g7
S't5'
p261
sg9
Nsg10
S'i6'
p262
sg12
Nsg13
Nsg14
(lp263
(i__main__
Token
p264
(dp265
g18
I16
sba(i__main__
Token
p266
(dp267
g18
I17
sba(i__main__
Token
p268
(dp269
g18
I18
sba(i__main__
Token
p270
(dp271
g18
I19
sba(i__main__
Token
p272
(dp273
g18
I20
sba(i__main__
Token
p274
(dp275
g18
I21
sba(i__main__
Token
p276
(dp277
g18
I22
sbasg21
I22
sba(i__main__
Mention
p278
(dp279
g7
S't5'
p280
sg9
S'Coreference-Noun-Noun'
p281
sg10
S'i17'
p282
sg12
S'i6'
p283
sg13
Nsg14
(lp284
(i__main__
Token
p285
(dp286
g18
I57
sba(i__main__
Token
p287
(dp288
g18
I58
sbasg21
I58
sba(i__main__
Mention
p289
(dp290
g7
S't5'
p291
sg9
S'Coreference-Noun-Noun'
p292
sg10
S'i29'
p293
sg12
S'i17'
p294
sg13
Nsg14
(lp295
(i__main__
Token
p296
(dp297
g18
I127
sbasg21
I127
sbasg7
g261
sg31
Nsba(i__main__
Chain
p298
(dp299
g3
(lp300
(i__main__
Mention
p301
(dp302
g7
S't6'
p303
sg9
Nsg10
S'i7'
p304
sg12
Nsg13
Nsg14
(lp305
(i__main__
Token
p306
(dp307
g18
I19
sba(i__main__
Token
p308
(dp309
g18
I20
sbasg21
I20
sba(i__main__
Mention
p310
(dp311
g7
S't6'
p312
sg9
S'Coreference-Identity'
p313
sg10
S'i26'
p314
sg12
S'i7'
p315
sg13
Nsg14
(lp316
(i__main__
Token
p317
(dp318
g18
I113
sbasg21
I113
sba(i__main__
Mention
p319
(dp320
g7
S't6'
p321
sg9
S'Coreference-Identity'
p322
sg10
S'i28'
p323
sg12
S'i26'
p324
sg13
Nsg14
(lp325
(i__main__
Token
p326
(dp327
g18
I122
sbasg21
I122
sba(i__main__
Mention
p328
(dp329
g7
S't6'
p330
sg9
S'Coreference-Identity'
p331
sg10
S'i43'
p332
sg12
S'i28'
p333
sg13
Nsg14
(lp334
(i__main__
Token
p335
(dp336
g18
I225
sbasg21
I225
sbasg7
g303
sg31
Nsba(i__main__
Chain
p337
(dp338
g3
(lp339
(i__main__
Mention
p340
(dp341
g7
S't7'
p342
sg9
Nsg10
S'i10'
p343
sg12
Nsg13
Nsg14
(lp344
(i__main__
Token
p345
(dp346
g18
I31
sbasg21
I31
sba(i__main__
Mention
p347
(dp348
g7
S't7'
p349
sg9
S'Coreference-Identity'
p350
sg10
S'i25'
p351
sg12
S'i10'
p352
sg13
Nsg14
(lp353
(i__main__
Token
p354
(dp355
g18
I108
sbasg21
I108
sba(i__main__
Mention
p356
(dp357
g7
S't7'
p358
sg9
S'Coreference-Noun-Noun'
p359
sg10
S'i39'
p360
sg12
S'i25'
p361
sg13
Nsg14
(lp362
(i__main__
Token
p363
(dp364
g18
I205
sba(i__main__
Token
p365
(dp366
g18
I206
sbasg21
I206
sba(i__main__
Mention
p367
(dp368
g7
S't7'
p369
sg9
S'Coreference-InferedRelation'
p370
sg10
S'i42'
p371
sg12
S'i39'
p372
sg13
Nsg14
(lp373
(i__main__
Token
p374
(dp375
g18
I220
sbasg21
I220
sba(i__main__
Mention
p376
(dp377
g7
S't7'
p378
sg9
S'Coreference-Identity'
p379
sg10
S'i44'
p380
sg12
S'i42'
p381
sg13
Nsg14
(lp382
(i__main__
Token
p383
(dp384
g18
I228
sbasg21
I228
sbasg7
g342
sg31
Nsba(i__main__
Chain
p385
(dp386
g3
(lp387
(i__main__
Mention
p388
(dp389
g7
S't8'
p390
sg9
Nsg10
S'i11'
p391
sg12
Nsg13
Nsg14
(lp392
(i__main__
Token
p393
(dp394
g18
I33
sbasg21
I33
sba(i__main__
Mention
p395
(dp396
g7
S't8'
p397
sg9
S'Coreference-Identity'
p398
sg10
S'i30'
p399
sg12
S'i11'
p400
sg13
Nsg14
(lp401
(i__main__
Token
p402
(dp403
g18
I129
sbasg21
I129
sbasg7
g390
sg31
Nsba(i__main__
Chain
p404
(dp405
g3
(lp406
(i__main__
Mention
p407
(dp408
g7
S't9'
p409
sg9
Nsg10
S'i12'
p410
sg12
Nsg13
Nsg14
(lp411
(i__main__
Token
p412
(dp413
g18
I35
sbasg21
I35
sba(i__main__
Mention
p414
(dp415
g7
S't9'
p416
sg9
S'Coreference-Identity'
p417
sg10
S'i31'
p418
sg12
S'i12'
p419
sg13
Nsg14
(lp420
(i__main__
Token
p421
(dp422
g18
I131
sbasg21
I131
sbasg7
g409
sg31
Nsba(i__main__
Chain
p423
(dp424
g3
(lp425
(i__main__
Mention
p426
(dp427
g7
S't10'
p428
sg9
Nsg10
S'i19'
p429
sg12
Nsg13
Nsg14
(lp430
(i__main__
Token
p431
(dp432
g18
I73
sba(i__main__
Token
p433
(dp434
g18
I74
sba(i__main__
Token
p435
(dp436
g18
I75
sbasg21
I75
sba(i__main__
Mention
p437
(dp438
g7
S't10'
p439
sg9
S'Coreference-NounComplement'
p440
sg10
S'i20'
p441
sg12
S'i19'
p442
sg13
Nsg14
(lp443
(i__main__
Token
p444
(dp445
g18
I76
sba(i__main__
Token
p446
(dp447
g18
I77
sba(i__main__
Token
p448
(dp449
g18
I78
sbasg21
I78
sbasg7
g428
sg31
Nsba(i__main__
Chain
p450
(dp451
g3
(lp452
(i__main__
Mention
p453
(dp454
g7
S't11'
p455
sg9
Nsg10
S'i33'
p456
sg12
Nsg13
Nsg14
(lp457
(i__main__
Token
p458
(dp459
g18
I146
sba(i__main__
Token
p460
(dp461
g18
I147
sbasg21
I147
sba(i__main__
Mention
p462
(dp463
g7
S't11'
p464
sg9
S'Anaphora-C'
p465
sg10
S'i35'
p466
sg12
S'i33'
p467
sg13
Nsg14
(lp468
(i__main__
Token
p469
(dp470
g18
I155
sbasg21
I155
sbasg7
g455
sg31
Nsba.