(lp0
(i__main__
Chain
p1
(dp2
S'mentionList'
p3
(lp4
(i__main__
Mention
p5
(dp6
S'chainId'
p7
S't1'
p8
sS'relType'
p9
NsS'mentionId'
p10
S'i1'
p11
sS'antecedentId'
p12
NsS'crefMod'
p13
NsS'tokenList'
p14
(lp15
(i__main__
Token
p16
(dp17
S'tokenId'
p18
I0
sbasS'mentionHead'
p19
I0
sba(i__main__
Mention
p20
(dp21
g7
S't1'
p22
sg9
S'Coreference-Identity'
p23
sg10
S'i9'
p24
sg12
S'i1'
p25
sg13
Nsg14
(lp26
(i__main__
Token
p27
(dp28
g18
I42
sbasg19
I42
sba(i__main__
Mention
p29
(dp30
g7
S't1'
p31
sg9
S'Coreference-Identity'
p32
sg10
S'i16'
p33
sg12
S'i9'
p34
sg13
Nsg14
(lp35
(i__main__
Token
p36
(dp37
g18
I73
sbasg19
I73
sba(i__main__
Mention
p38
(dp39
g7
S't1'
p40
sg9
S'Coreference-Noun-Noun'
p41
sg10
S'i26'
p42
sg12
S'i16'
p43
sg13
Nsg14
(lp44
(i__main__
Token
p45
(dp46
g18
I120
sbasg19
I120
sba(i__main__
Mention
p47
(dp48
g7
S't1'
p49
sg9
S'Coreference-Noun-Noun'
p50
sg10
S'i40'
p51
sg12
S'i26'
p52
sg13
Nsg14
(lp53
(i__main__
Token
p54
(dp55
g18
I191
sbasg19
I191
sba(i__main__
Mention
p56
(dp57
g7
S't1'
p58
sg9
S'Coreference-Identity'
p59
sg10
S'i44'
p60
sg12
S'i40'
p61
sg13
Nsg14
(lp62
(i__main__
Token
p63
(dp64
g18
I210
sbasg19
I210
sba(i__main__
Mention
p65
(dp66
g7
S't1'
p67
sg9
S'Coreference-Identity'
p68
sg10
S'i50'
p69
sg12
S'i44'
p70
sg13
Nsg14
(lp71
(i__main__
Token
p72
(dp73
g18
I237
sbasg19
I237
sbasg7
g8
sS'chainHead'
p74
Nsba(i__main__
Chain
p75
(dp76
g3
(lp77
(i__main__
Mention
p78
(dp79
g7
S't2'
p80
sg9
Nsg10
S'i2'
p81
sg12
Nsg13
Nsg14
(lp82
(i__main__
Token
p83
(dp84
g18
I7
sbasg19
I7
sba(i__main__
Mention
p85
(dp86
g7
S't2'
p87
sg9
S'Coreference-Identity'
p88
sg10
S'i21'
p89
sg12
S'i2'
p90
sg13
Nsg14
(lp91
(i__main__
Token
p92
(dp93
g18
I91
sbasg19
I91
sbasg7
g80
sg74
Nsba(i__main__
Chain
p94
(dp95
g3
(lp96
(i__main__
Mention
p97
(dp98
g7
S't3'
p99
sg9
Nsg10
S'i3'
p100
sg12
Nsg13
Nsg14
(lp101
(i__main__
Token
p102
(dp103
g18
I7
sba(i__main__
Token
p104
(dp105
g18
I8
sba(i__main__
Token
p106
(dp107
g18
I9
sbasg19
I9
sba(i__main__
Mention
p108
(dp109
g7
S't3'
p110
sg9
S'Coreference-Identity'
p111
sg10
S'i14'
p112
sg12
S'i3'
p113
sg13
Nsg14
(lp114
(i__main__
Token
p115
(dp116
g18
I67
sba(i__main__
Token
p117
(dp118
g18
I68
sbasg19
I68
sba(i__main__
Mention
p119
(dp120
g7
S't3'
p121
sg9
S'Coreference-Identity'
p122
sg10
S'i23'
p123
sg12
S'i14'
p124
sg13
Nsg14
(lp125
(i__main__
Token
p126
(dp127
g18
I96
sba(i__main__
Token
p128
(dp129
g18
I97
sbasg19
I97
sba(i__main__
Mention
p130
(dp131
g7
S't3'
p132
sg9
S'Coreference-Identity'
p133
sg10
S'i47'
p134
sg12
S'i23'
p135
sg13
Nsg14
(lp136
(i__main__
Token
p137
(dp138
g18
I220
sba(i__main__
Token
p139
(dp140
g18
I221
sbasg19
I221
sbasg7
g99
sg74
Nsba(i__main__
Chain
p141
(dp142
g3
(lp143
(i__main__
Mention
p144
(dp145
g7
S't4'
p146
sg9
Nsg10
S'i4'
p147
sg12
Nsg13
Nsg14
(lp148
(i__main__
Token
p149
(dp150
g18
I11
sbasg19
I11
sba(i__main__
Mention
p151
(dp152
g7
S't4'
p153
sg9
S'Coreference-Identity'
p154
sg10
S'i15'
p155
sg12
S'i4'
p156
sg13
Nsg14
(lp157
(i__main__
Token
p158
(dp159
g18
I70
sbasg19
I70
sbasg7
g146
sg74
Nsba(i__main__
Chain
p160
(dp161
g3
(lp162
(i__main__
Mention
p163
(dp164
g7
S't5'
p165
sg9
Nsg10
S'i5'
p166
sg12
Nsg13
Nsg14
(lp167
(i__main__
Token
p168
(dp169
g18
I17
sba(i__main__
Token
p170
(dp171
g18
I18
sba(i__main__
Token
p172
(dp173
g18
I19
sbasg19
I19
sba(i__main__
Mention
p174
(dp175
g7
S't5'
p176
sg9
S'Coreference-NounComplement'
p177
sg10
S'i6'
p178
sg12
S'i5'
p179
sg13
Nsg14
(lp180
(i__main__
Token
p181
(dp182
g18
I20
sba(i__main__
Token
p183
(dp184
g18
I21
sba(i__main__
Token
p185
(dp186
g18
I22
sbasg19
I22
sba(i__main__
Mention
p187
(dp188
g7
S't5'
p189
sg9
S'Anaphora-C'
p190
sg10
S'i8'
p191
sg12
S'i6'
p192
sg13
Nsg14
(lp193
(i__main__
Token
p194
(dp195
g18
I41
sbasg19
I41
sba(i__main__
Mention
p196
(dp197
g7
S't5'
p198
sg9
S'Anaphora-C'
p199
sg10
S'i10'
p200
sg12
S'i8'
p201
sg13
Nsg14
(lp202
(i__main__
Token
p203
(dp204
g18
I50
sbasg19
I50
sba(i__main__
Mention
p205
(dp206
g7
S't5'
p207
sg9
S'Coreference-Identity'
p208
sg10
S'i20'
p209
sg12
S'i10'
p210
sg13
Nsg14
(lp211
(i__main__
Token
p212
(dp213
g18
I85
sba(i__main__
Token
p214
(dp215
g18
I86
sbasg19
I86
sba(i__main__
Mention
p216
(dp217
g7
S't5'
p218
sg9
S'Coreference-Identity'
p219
sg10
S'i27'
p220
sg12
S'i20'
p221
sg13
Nsg14
(lp222
(i__main__
Token
p223
(dp224
g18
I128
sbasg19
I128
sba(i__main__
Mention
p225
(dp226
g7
S't5'
p227
sg9
S'Coreference-Identity'
p228
sg10
S'i31'
p229
sg12
S'i27'
p230
sg13
Nsg14
(lp231
(i__main__
Token
p232
(dp233
g18
I158
sbasg19
I158
sba(i__main__
Mention
p234
(dp235
g7
S't5'
p236
sg9
S'Anaphora-C'
p237
sg10
S'i36'
p238
sg12
S'i31'
p239
sg13
Nsg14
(lp240
(i__main__
Token
p241
(dp242
g18
I171
sbasg19
I171
sba(i__main__
Mention
p243
(dp244
g7
S't5'
p245
sg9
S'Coreference-Identity'
p246
sg10
S'i39'
p247
sg12
S'i36'
p248
sg13
Nsg14
(lp249
(i__main__
Token
p250
(dp251
g18
I185
sbasg19
I185
sba(i__main__
Mention
p252
(dp253
g7
S't5'
p254
sg9
S'Anaphora-C'
p255
sg10
S'i43'
p256
sg12
S'i39'
p257
sg13
Nsg14
(lp258
(i__main__
Token
p259
(dp260
g18
I208
sbasg19
I208
sba(i__main__
Mention
p261
(dp262
g7
S't5'
p263
sg9
S'Coreference-Identity'
p264
sg10
S'i45'
p265
sg12
S'i43'
p266
sg13
Nsg14
(lp267
(i__main__
Token
p268
(dp269
g18
I216
sbasg19
I216
sba(i__main__
Mention
p270
(dp271
g7
S't5'
p272
sg9
S'Anaphora-C'
p273
sg10
S'i48'
p274
sg12
S'i45'
p275
sg13
Nsg14
(lp276
(i__main__
Token
p277
(dp278
g18
I231
sbasg19
I231
sba(i__main__
Mention
p279
(dp280
g7
S't5'
p281
sg9
S'Coreference-Identity'
p282
sg10
S'i49'
p283
sg12
S'i48'
p284
sg13
Nsg14
(lp285
(i__main__
Token
p286
(dp287
g18
I236
sbasg19
I236
sbasg7
g165
sg74
Nsba(i__main__
Chain
p288
(dp289
g3
(lp290
(i__main__
Mention
p291
(dp292
g7
S't6'
p293
sg9
Nsg10
S'i7'
p294
sg12
Nsg13
Nsg14
(lp295
(i__main__
Token
p296
(dp297
g18
I29
sbasg19
I29
sba(i__main__
Mention
p298
(dp299
g7
S't6'
p300
sg9
S'Coreference-Identity'
p301
sg10
S'i30'
p302
sg12
S'i7'
p303
sg13
Nsg14
(lp304
(i__main__
Token
p305
(dp306
g18
I156
sbasg19
I156
sbasg7
g293
sg74
Nsba(i__main__
Chain
p307
(dp308
g3
(lp309
(i__main__
Mention
p310
(dp311
g7
S't7'
p312
sg9
Nsg10
S'i11'
p313
sg12
Nsg13
Nsg14
(lp314
(i__main__
Token
p315
(dp316
g18
I51
sbasg19
I51
sba(i__main__
Mention
p317
(dp318
g7
S't7'
p319
sg9
S'Coreference-NounComplement'
p320
sg10
S'i12'
p321
sg12
S'i11'
p322
sg13
Nsg14
(lp323
(i__main__
Token
p324
(dp325
g18
I52
sba(i__main__
Token
p326
(dp327
g18
I53
sbasg19
I53
sba(i__main__
Mention
p328
(dp329
g7
S't7'
p330
sg9
S'Coreference-Identity'
p331
sg10
S'i24'
p332
sg12
S'i12'
p333
sg13
Nsg14
(lp334
(i__main__
Token
p335
(dp336
g18
I100
sbasg19
I100
sba(i__main__
Mention
p337
(dp338
g7
S't7'
p339
sg9
S'Coreference-Identity'
p340
sg10
S'i28'
p341
sg12
S'i24'
p342
sg13
Nsg14
(lp343
(i__main__
Token
p344
(dp345
g18
I131
sbasg19
I131
sba(i__main__
Mention
p346
(dp347
g7
S't7'
p348
sg9
S'Coreference-Identity'
p349
sg10
S'i29'
p350
sg12
S'i28'
p351
sg13
Nsg14
(lp352
(i__main__
Token
p353
(dp354
g18
I147
sbasg19
I147
sbasg7
g312
sg74
Nsba(i__main__
Chain
p355
(dp356
g3
(lp357
(i__main__
Mention
p358
(dp359
g7
S't8'
p360
sg9
Nsg10
S'i13'
p361
sg12
Nsg13
Nsg14
(lp362
(i__main__
Token
p363
(dp364
g18
I62
sba(i__main__
Token
p365
(dp366
g18
I63
sbasg19
I63
sba(i__main__
Mention
p367
(dp368
g7
S't8'
p369
sg9
S'Coreference-Identity'
p370
sg10
S'i19'
p371
sg12
S'i13'
p372
sg13
Nsg14
(lp373
(i__main__
Token
p374
(dp375
g18
I81
sbasg19
I81
sbasg7
g360
sg74
Nsba(i__main__
Chain
p376
(dp377
g3
(lp378
(i__main__
Mention
p379
(dp380
g7
S't9'
p381
sg9
Nsg10
S'i17'
p382
sg12
Nsg13
Nsg14
(lp383
(i__main__
Token
p384
(dp385
g18
I75
sba(i__main__
Token
p386
(dp387
g18
I76
sbasg19
I76
sba(i__main__
Mention
p388
(dp389
g7
S't9'
p390
sg9
S'Coreference-NounComplement'
p391
sg10
S'i18'
p392
sg12
S'i17'
p393
sg13
Nsg14
(lp394
(i__main__
Token
p395
(dp396
g18
I77
sba(i__main__
Token
p397
(dp398
g18
I78
sbasg19
I78
sba(i__main__
Mention
p399
(dp400
g7
S't9'
p401
sg9
S'Coreference-Identity'
p402
sg10
S'i32'
p403
sg12
S'i18'
p404
sg13
Nsg14
(lp405
(i__main__
Token
p406
(dp407
g18
I159
sba(i__main__
Token
p408
(dp409
g18
I160
sbasg19
I160
sbasg7
g381
sg74
Nsba(i__main__
Chain
p410
(dp411
g3
(lp412
(i__main__
Mention
p413
(dp414
g7
S't10'
p415
sg9
Nsg10
S'i22'
p416
sg12
Nsg13
Nsg14
(lp417
(i__main__
Token
p418
(dp419
g18
I93
sba(i__main__
Token
p420
(dp421
g18
I94
sbasg19
I94
sba(i__main__
Mention
p422
(dp423
g7
S't10'
p424
sg9
S'Coreference-Identity'
p425
sg10
S'i46'
p426
sg12
S'i22'
p427
sg13
Nsg14
(lp428
(i__main__
Token
p429
(dp430
g18
I217
sba(i__main__
Token
p431
(dp432
g18
I218
sbasg19
I218
sbasg7
g415
sg74
Nsba(i__main__
Chain
p433
(dp434
g3
(lp435
(i__main__
Mention
p436
(dp437
g7
S't11'
p438
sg9
Nsg10
S'i25'
p439
sg12
Nsg13
Nsg14
(lp440
(i__main__
Token
p441
(dp442
g18
I118
sbasg19
I118
sba(i__main__
Mention
p443
(dp444
g7
S't11'
p445
sg9
S'Coreference-Identity'
p446
sg10
S'i41'
p447
sg12
S'i25'
p448
sg13
Nsg14
(lp449
(i__main__
Token
p450
(dp451
g18
I193
sbasg19
I193
sba(i__main__
Mention
p452
(dp453
g7
S't11'
p454
sg9
S'Coreference-Identity'
p455
sg10
S'i51'
p456
sg12
S'i41'
p457
sg13
Nsg14
(lp458
(i__main__
Token
p459
(dp460
g18
I239
sbasg19
I239
sbasg7
g438
sg74
Nsba(i__main__
Chain
p461
(dp462
g3
(lp463
(i__main__
Mention
p464
(dp465
g7
S't12'
p466
sg9
Nsg10
S'i33'
p467
sg12
Nsg13
Nsg14
(lp468
(i__main__
Token
p469
(dp470
g18
I163
sba(i__main__
Token
p471
(dp472
g18
I164
sbasg19
I164
sba(i__main__
Mention
p473
(dp474
g7
S't12'
p475
sg9
S'Coreference-Noun-Noun'
p476
sg10
S'i34'
p477
sg12
S'i33'
p478
sg13
Nsg14
(lp479
(i__main__
Token
p480
(dp481
g18
I166
sba(i__main__
Token
p482
(dp483
g18
I167
sbasg19
I167
sba(i__main__
Mention
p484
(dp485
g7
S't12'
p486
sg9
S'Coreference-NounComplement'
p487
sg10
S'i35'
p488
sg12
S'i34'
p489
sg13
Nsg14
(lp490
(i__main__
Token
p491
(dp492
g18
I168
sba(i__main__
Token
p493
(dp494
g18
I169
sbasg19
I169
sbasg7
g466
sg74
Nsba(i__main__
Chain
p495
(dp496
g3
(lp497
(i__main__
Mention
p498
(dp499
g7
S't13'
p500
sg9
Nsg10
S'i37'
p501
sg12
Nsg13
Nsg14
(lp502
(i__main__
Token
p503
(dp504
g18
I172
sba(i__main__
Token
p505
(dp506
g18
I173
sbasg19
I173
sba(i__main__
Mention
p507
(dp508
g7
S't13'
p509
sg9
S'Coreference-NounComplement'
p510
sg10
S'i38'
p511
sg12
S'i37'
p512
sg13
Nsg14
(lp513
(i__main__
Token
p514
(dp515
g18
I174
sba(i__main__
Token
p516
(dp517
g18
I175
sba(i__main__
Token
p518
(dp519
g18
I176
sbasg19
I176
sbasg7
g500
sg74
Nsba(i__main__
Chain
p520
(dp521
g3
(lp522
(i__main__
Mention
p523
(dp524
g7
S't14'
p525
sg9
S'anaphora-?'
p526
sg10
S'i42'
p527
sg12
S'i42'
p528
sg13
Nsg14
(lp529
(i__main__
Token
p530
(dp531
g18
I207
sbasg19
I207
sbasg7
g525
sg74
Nsba(i__main__
Chain
p532
(dp533
g3
(lp534
(i__main__
Mention
p535
(dp536
g7
S't15'
p537
sg9
Nsg10
S'i52'
p538
sg12
Nsg13
Nsg14
(lp539
(i__main__
Token
p540
(dp541
g18
I241
sbasg19
I241
sba(i__main__
Mention
p542
(dp543
g7
S't15'
p544
sg9
S'Coreference-NounComplement'
p545
sg10
S'i53'
p546
sg12
S'i52'
p547
sg13
Nsg14
(lp548
(i__main__
Token
p549
(dp550
g18
I242
sba(i__main__
Token
p551
(dp552
g18
I243
sbasg19
I243
sbasg7
g537
sg74
Nsba.