(lp0
(i__main__
Chain
p1
(dp2
S'mentionList'
p3
(lp4
(i__main__
Mention
p5
(dp6
S'chainId'
p7
S't1'
p8
sS'relType'
p9
S'anaphora-?'
p10
sS'mentionId'
p11
S'i1'
p12
sS'antecedentId'
p13
S'i1'
p14
sS'crefMod'
p15
NsS'tokenList'
p16
(lp17
(i__main__
Token
p18
(dp19
S'tokenId'
p20
I0
sbasS'mentionHead'
p21
I0
sbasg7
g8
sS'chainHead'
p22
Nsba(i__main__
Chain
p23
(dp24
g3
(lp25
(i__main__
Mention
p26
(dp27
g7
S't2'
p28
sg9
Nsg11
S'i2'
p29
sg13
Nsg15
Nsg16
(lp30
(i__main__
Token
p31
(dp32
g20
I2
sbasg21
I2
sba(i__main__
Mention
p33
(dp34
g7
S't2'
p35
sg9
S'Anaphora-RT'
p36
sg11
S'i4'
p37
sg13
S'i2'
p38
sg15
Nsg16
(lp39
(i__main__
Token
p40
(dp41
g20
I3
sba(i__main__
Token
p42
(dp43
g20
I4
sba(i__main__
Token
p44
(dp45
g20
I5
sba(i__main__
Token
p46
(dp47
g20
I6
sba(i__main__
Token
p48
(dp49
g20
I7
sba(i__main__
Token
p50
(dp51
g20
I8
sba(i__main__
Token
p52
(dp53
g20
I9
sba(i__main__
Token
p54
(dp55
g20
I10
sba(i__main__
Token
p56
(dp57
g20
I11
sba(i__main__
Token
p58
(dp59
g20
I12
sba(i__main__
Token
p60
(dp61
g20
I13
sba(i__main__
Token
p62
(dp63
g20
I14
sba(i__main__
Token
p64
(dp65
g20
I15
sba(i__main__
Token
p66
(dp67
g20
I16
sba(i__main__
Token
p68
(dp69
g20
I17
sba(i__main__
Token
p70
(dp71
g20
I18
sbasg21
I16
sbasg7
g28
sg22
Nsba(i__main__
Chain
p72
(dp73
g3
(lp74
(i__main__
Mention
p75
(dp76
g7
S't3'
p77
sg9
Nsg11
S'i3'
p78
sg13
Nsg15
Nsg16
(lp79
(i__main__
Token
p80
(dp81
g20
I3
sbasg21
I3
sba(i__main__
Mention
p82
(dp83
g7
S't3'
p84
sg9
Nsg11
S'i6'
p85
sg13
Nsg15
Nsg16
(lp86
(i__main__
Token
p87
(dp88
g20
I7
sbasg21
Nsba(i__main__
Mention
p89
(dp90
g7
S't3'
p91
sg9
Nsg11
S'i10'
p92
sg13
Nsg15
Nsg16
(lp93
(i__main__
Token
p94
(dp95
g20
I22
sba(i__main__
Token
p96
(dp97
g20
I23
sbasg21
Nsba(i__main__
Mention
p98
(dp99
g7
S't3'
p100
sg9
Nsg11
S'i20'
p101
sg13
Nsg15
Nsg16
(lp102
(i__main__
Token
p103
(dp104
g20
I63
sba(i__main__
Token
p105
(dp106
g20
I64
sbasg21
Nsba(i__main__
Mention
p107
(dp108
g7
S't3'
p109
sg9
Nsg11
S'i22'
p110
sg13
Nsg15
Nsg16
(lp111
(i__main__
Token
p112
(dp113
g20
I66
sbasg21
Nsba(i__main__
Mention
p114
(dp115
g7
S't3'
p116
sg9
S'Coreference-PartOf'
p117
sg11
S'i26'
p118
sg13
S'i22'
p119
sg15
Nsg16
(lp120
(i__main__
Token
p121
(dp122
g20
I80
sbasg21
I80
sba(i__main__
Mention
p123
(dp124
g7
S't3'
p125
sg9
Nsg11
S'i31'
p126
sg13
Nsg15
Nsg16
(lp127
(i__main__
Token
p128
(dp129
g20
I95
sba(i__main__
Token
p130
(dp131
g20
I96
sbasg21
Nsba(i__main__
Mention
p132
(dp133
g7
S't3'
p134
sg9
Nsg11
S'i34'
p135
sg13
Nsg15
Nsg16
(lp136
(i__main__
Token
p137
(dp138
g20
I98
sba(i__main__
Token
p139
(dp140
g20
I99
sba(i__main__
Token
p141
(dp142
g20
I100
sbasg21
Nsba(i__main__
Mention
p143
(dp144
g7
S't3'
p145
sg9
Nsg11
S'i36'
p146
sg13
Nsg15
Nsg16
(lp147
(i__main__
Token
p148
(dp149
g20
I108
sbasg21
Nsba(i__main__
Mention
p150
(dp151
g7
S't3'
p152
sg9
S'Coreference-PartOf'
p153
sg11
S'i39'
p154
sg13
S'i36'
p155
sg15
Nsg16
(lp156
(i__main__
Token
p157
(dp158
g20
I127
sbasg21
I127
sba(i__main__
Mention
p159
(dp160
g7
S't3'
p161
sg9
S'Coreference-Identity'
p162
sg11
S'i53'
p163
sg13
S'i39'
p164
sg15
Nsg16
(lp165
(i__main__
Token
p166
(dp167
g20
I181
sbasg21
I181
sba(i__main__
Mention
p168
(dp169
g7
S't3'
p170
sg9
Nsg11
S'i61'
p171
sg13
Nsg15
Nsg16
(lp172
(i__main__
Token
p173
(dp174
g20
I215
sba(i__main__
Token
p175
(dp176
g20
I216
sbasg21
Nsba(i__main__
Mention
p177
(dp178
g7
S't3'
p179
sg9
S'Coreference-PartOf'
p180
sg11
S'i65'
p181
sg13
S'i61'
p182
sg15
Nsg16
(lp183
(i__main__
Token
p184
(dp185
g20
I233
sbasg21
I233
sba(i__main__
Mention
p186
(dp187
g7
S't3'
p188
sg9
S'Coreference-Identity'
p189
sg11
S'i70'
p190
sg13
S'i65'
p191
sg15
Nsg16
(lp192
(i__main__
Token
p193
(dp194
g20
I259
sbasg21
I259
sba(i__main__
Mention
p195
(dp196
g7
S't3'
p197
sg9
S'Coreference-Identity'
p198
sg11
S'i77'
p199
sg13
S'i70'
p200
sg15
Nsg16
(lp201
(i__main__
Token
p202
(dp203
g20
I295
sbasg21
I295
sba(i__main__
Mention
p204
(dp205
g7
S't3'
p206
sg9
S'Coreference-Identity'
p207
sg11
S'i84'
p208
sg13
S'i77'
p209
sg15
Nsg16
(lp210
(i__main__
Token
p211
(dp212
g20
I318
sbasg21
I318
sba(i__main__
Mention
p213
(dp214
g7
S't3'
p215
sg9
S'Coreference-Identity'
p216
sg11
S'i87'
p217
sg13
S'i84'
p218
sg15
Nsg16
(lp219
(i__main__
Token
p220
(dp221
g20
I335
sbasg21
I335
sbasg7
g77
sg22
Nsba(i__main__
Chain
p222
(dp223
g3
(lp224
(i__main__
Mention
p225
(dp226
g7
S't4'
p227
sg9
Nsg11
S'i5'
p228
sg13
Nsg15
Nsg16
(lp229
(i__main__
Token
p230
(dp231
g20
I5
sbasg21
I5
sba(i__main__
Mention
p232
(dp233
g7
S't4'
p234
sg9
Nsg11
S'i7'
p235
sg13
Nsg15
Nsg16
(lp236
(i__main__
Token
p237
(dp238
g20
I7
sbasg21
Nsba(i__main__
Mention
p239
(dp240
g7
S't4'
p241
sg9
Nsg11
S'i11'
p242
sg13
Nsg15
Nsg16
(lp243
(i__main__
Token
p244
(dp245
g20
I22
sba(i__main__
Token
p246
(dp247
g20
I23
sbasg21
Nsba(i__main__
Mention
p248
(dp249
g7
S't4'
p250
sg9
Nsg11
S'i21'
p251
sg13
Nsg15
Nsg16
(lp252
(i__main__
Token
p253
(dp254
g20
I63
sba(i__main__
Token
p255
(dp256
g20
I64
sbasg21
Nsba(i__main__
Mention
p257
(dp258
g7
S't4'
p259
sg9
Nsg11
S'i23'
p260
sg13
Nsg15
Nsg16
(lp261
(i__main__
Token
p262
(dp263
g20
I66
sbasg21
Nsba(i__main__
Mention
p264
(dp265
g7
S't4'
p266
sg9
Nsg11
S'i32'
p267
sg13
Nsg15
Nsg16
(lp268
(i__main__
Token
p269
(dp270
g20
I95
sba(i__main__
Token
p271
(dp272
g20
I96
sbasg21
Nsba(i__main__
Mention
p273
(dp274
g7
S't4'
p275
sg9
Nsg11
S'i33'
p276
sg13
Nsg15
Nsg16
(lp277
(i__main__
Token
p278
(dp279
g20
I98
sba(i__main__
Token
p280
(dp281
g20
I99
sba(i__main__
Token
p282
(dp283
g20
I100
sbasg21
Nsba(i__main__
Mention
p284
(dp285
g7
S't4'
p286
sg9
Nsg11
S'i37'
p287
sg13
Nsg15
Nsg16
(lp288
(i__main__
Token
p289
(dp290
g20
I108
sbasg21
Nsba(i__main__
Mention
p291
(dp292
g7
S't4'
p293
sg9
Nsg11
S'i62'
p294
sg13
Nsg15
Nsg16
(lp295
(i__main__
Token
p296
(dp297
g20
I215
sba(i__main__
Token
p298
(dp299
g20
I216
sbasg21
Nsba(i__main__
Mention
p300
(dp301
g7
S't4'
p302
sg9
S'Coreference-PartOf'
p303
sg11
S'i67'
p304
sg13
S'i62'
p305
sg15
Nsg16
(lp306
(i__main__
Token
p307
(dp308
g20
I235
sbasg21
I235
sba(i__main__
Mention
p309
(dp310
g7
S't4'
p311
sg9
S'Coreference-Identity'
p312
sg11
S'i82'
p313
sg13
S'i67'
p314
sg15
Nsg16
(lp315
(i__main__
Token
p316
(dp317
g20
I309
sbasg21
I309
sba(i__main__
Mention
p318
(dp319
g7
S't4'
p320
sg9
S'Coreference-Identity'
p321
sg11
S'i86'
p322
sg13
S'i82'
p323
sg15
Nsg16
(lp324
(i__main__
Token
p325
(dp326
g20
I328
sbasg21
I328
sba(i__main__
Mention
p327
(dp328
g7
S't4'
p329
sg9
S'Coreference-Identity'
p330
sg11
S'i92'
p331
sg13
S'i86'
p332
sg15
Nsg16
(lp333
(i__main__
Token
p334
(dp335
g20
I347
sbasg21
I347
sbasg7
g227
sg22
Nsba(i__main__
Chain
p336
(dp337
g3
(lp338
(i__main__
Mention
p339
(dp340
g7
S't5'
p341
sg9
Nsg11
S'i8'
p342
sg13
Nsg15
Nsg16
(lp343
(i__main__
Token
p344
(dp345
g20
I8
sba(i__main__
Token
p346
(dp347
g20
I9
sbasg21
I9
sba(i__main__
Mention
p348
(dp349
g7
S't5'
p350
sg9
S'Coreference-Identity'
p351
sg11
S'i24'
p352
sg13
S'i8'
p353
sg15
Nsg16
(lp354
(i__main__
Token
p355
(dp356
g20
I67
sba(i__main__
Token
p357
(dp358
g20
I68
sbasg21
I68
sba(i__main__
Mention
p359
(dp360
g7
S't5'
p361
sg9
S'Coreference-Identity'
p362
sg11
S'i71'
p363
sg13
S'i24'
p364
sg15
Nsg16
(lp365
(i__main__
Token
p366
(dp367
g20
I262
sba(i__main__
Token
p368
(dp369
g20
I263
sbasg21
I263
sba(i__main__
Mention
p370
(dp371
g7
S't5'
p372
sg9
S'Coreference-Identity'
p373
sg11
S'i73'
p374
sg13
S'i71'
p375
sg15
Nsg16
(lp376
(i__main__
Token
p377
(dp378
g20
I284
sba(i__main__
Token
p379
(dp380
g20
I285
sbasg21
I285
sbasg7
g341
sg22
Nsba(i__main__
Chain
p381
(dp382
g3
(lp383
(i__main__
Mention
p384
(dp385
g7
S't6'
p386
sg9
Nsg11
S'i12'
p387
sg13
Nsg15
Nsg16
(lp388
(i__main__
Token
p389
(dp390
g20
I22
sba(i__main__
Token
p391
(dp392
g20
I23
sba(i__main__
Token
p393
(dp394
g20
I24
sba(i__main__
Token
p395
(dp396
g20
I25
sba(i__main__
Token
p397
(dp398
g20
I26
sba(i__main__
Token
p399
(dp400
g20
I27
sba(i__main__
Token
p401
(dp402
g20
I28
sba(i__main__
Token
p403
(dp404
g20
I29
sba(i__main__
Token
p405
(dp406
g20
I30
sba(i__main__
Token
p407
(dp408
g20
I31
sba(i__main__
Token
p409
(dp410
g20
I32
sba(i__main__
Token
p411
(dp412
g20
I33
sba(i__main__
Token
p413
(dp414
g20
I34
sba(i__main__
Token
p415
(dp416
g20
I35
sba(i__main__
Token
p417
(dp418
g20
I36
sba(i__main__
Token
p419
(dp420
g20
I37
sba(i__main__
Token
p421
(dp422
g20
I38
sba(i__main__
Token
p423
(dp424
g20
I39
sbasg21
I39
sba(i__main__
Mention
p425
(dp426
g7
S't6'
p427
sg9
S'Anaphora-E'
p428
sg11
S'i17'
p429
sg13
S'i12'
p430
sg15
Nsg16
(lp431
(i__main__
Token
p432
(dp433
g20
I46
sbasg21
I46
sbasg7
g386
sg22
Nsba(i__main__
Chain
p434
(dp435
g3
(lp436
(i__main__
Mention
p437
(dp438
g7
S't7'
p439
sg9
Nsg11
S'i13'
p440
sg13
Nsg15
Nsg16
(lp441
(i__main__
Token
p442
(dp443
g20
I28
sba(i__main__
Token
p444
(dp445
g20
I29
sbasg21
I29
sba(i__main__
Mention
p446
(dp447
g7
S't7'
p448
sg9
S'Coreference-Identity'
p449
sg11
S'i27'
p450
sg13
S'i73'
p451
sg15
Nsg16
(lp452
(i__main__
Token
p453
(dp454
g20
I83
sba(i__main__
Token
p455
(dp456
g20
I84
sbasg21
I84
sba(i__main__
Mention
p457
(dp458
g7
S't7'
p459
sg9
S'Coreference-Identity'
p460
sg11
S'i45'
p461
sg13
S'i74'
p462
sg15
Nsg16
(lp463
(i__main__
Token
p464
(dp465
g20
I156
sba(i__main__
Token
p466
(dp467
g20
I157
sba(i__main__
Token
p468
(dp469
g20
I158
sbasg21
I158
sba(i__main__
Mention
p470
(dp471
g7
S't7'
p472
sg9
S'Coreference-Identity'
p473
sg11
S'i49'
p474
sg13
S'i45'
p475
sg15
Nsg16
(lp476
(i__main__
Token
p477
(dp478
g20
I166
sba(i__main__
Token
p479
(dp480
g20
I167
sbasg21
I167
sba(i__main__
Mention
p481
(dp482
g7
S't7'
p483
sg9
Nsg11
S'i55'
p484
sg13
Nsg15
Nsg16
(lp485
(i__main__
Token
p486
(dp487
g20
I193
sba(i__main__
Token
p488
(dp489
g20
I194
sba(i__main__
Token
p490
(dp491
g20
I195
sbasg21
Nsba(i__main__
Mention
p492
(dp493
g7
S't7'
p494
sg9
S'Coreference-PartOf'
p495
sg11
S'i59'
p496
sg13
S'i103'
p497
sg15
Nsg16
(lp498
(i__main__
Token
p499
(dp500
g20
I211
sba(i__main__
Token
p501
(dp502
g20
I212
sba(i__main__
Token
p503
(dp504
g20
I213
sba(i__main__
Token
p505
(dp506
g20
I214
sbasg21
I214
sba(i__main__
Mention
p507
(dp508
g7
S't7'
p509
sg9
S'Coreference-Identity'
p510
sg11
S'i63'
p511
sg13
S'i77'
p512
sg15
Nsg16
(lp513
(i__main__
Token
p514
(dp515
g20
I215
sba(i__main__
Token
p516
(dp517
g20
I216
sba(i__main__
Token
p518
(dp519
g20
I217
sba(i__main__
Token
p520
(dp521
g20
I218
sba(i__main__
Token
p522
(dp523
g20
I219
sba(i__main__
Token
p524
(dp525
g20
I220
sba(i__main__
Token
p526
(dp527
g20
I221
sba(i__main__
Token
p528
(dp529
g20
I222
sbasg21
I222
sbasg7
g439
sg22
Nsba(i__main__
Chain
p530
(dp531
g3
(lp532
(i__main__
Mention
p533
(dp534
g7
S't8'
p535
sg9
Nsg11
S'i14'
p536
sg13
Nsg15
Nsg16
(lp537
(i__main__
Token
p538
(dp539
g20
I34
sba(i__main__
Token
p540
(dp541
g20
I35
sbasg21
I35
sba(i__main__
Mention
p542
(dp543
g7
S't8'
p544
sg9
S'Coreference-Identity'
p545
sg11
S'i57'
p546
sg13
S'i14'
p547
sg15
Nsg16
(lp548
(i__main__
Token
p549
(dp550
g20
I200
sba(i__main__
Token
p551
(dp552
g20
I201
sbasg21
I201
sbasg7
g535
sg22
Nsba(i__main__
Chain
p553
(dp554
g3
(lp555
(i__main__
Mention
p556
(dp557
g7
S't9'
p558
sg9
Nsg11
S'i15'
p559
sg13
Nsg15
Nsg16
(lp560
(i__main__
Token
p561
(dp562
g20
I42
sbasg21
I42
sba(i__main__
Mention
p563
(dp564
g7
S't9'
p565
sg9
S'Coreference-NounComplement'
p566
sg11
S'i16'
p567
sg13
S'i15'
p568
sg15
Nsg16
(lp569
(i__main__
Token
p570
(dp571
g20
I43
sba(i__main__
Token
p572
(dp573
g20
I44
sbasg21
I44
sba(i__main__
Mention
p574
(dp575
g7
S't9'
p576
sg9
S'Coreference-Identity'
p577
sg11
S'i19'
p578
sg13
S'i16'
p579
sg15
Nsg16
(lp580
(i__main__
Token
p581
(dp582
g20
I51
sbasg21
I51
sba(i__main__
Mention
p583
(dp584
g7
S't9'
p585
sg9
S'Anaphora-C'
p586
sg11
S'i25'
p587
sg13
S'i19'
p588
sg15
Nsg16
(lp589
(i__main__
Token
p590
(dp591
g20
I77
sbasg21
I77
sba(i__main__
Mention
p592
(dp593
g7
S't9'
p594
sg9
S'Anaphora-C'
p595
sg11
S'i38'
p596
sg13
S'i25'
p597
sg15
Nsg16
(lp598
(i__main__
Token
p599
(dp600
g20
I119
sbasg21
I119
sba(i__main__
Mention
p601
(dp602
g7
S't9'
p603
sg9
S'Coreference-Identity'
p604
sg11
S'i40'
p605
sg13
S'i38'
p606
sg15
Nsg16
(lp607
(i__main__
Token
p608
(dp609
g20
I142
sbasg21
I142
sba(i__main__
Mention
p610
(dp611
g7
S't9'
p612
sg9
S'Anaphora-C'
p613
sg11
S'i41'
p614
sg13
S'i40'
p615
sg15
Nsg16
(lp616
(i__main__
Token
p617
(dp618
g20
I146
sbasg21
I146
sba(i__main__
Mention
p619
(dp620
g7
S't9'
p621
sg9
S'Anaphora-C'
p622
sg11
S'i47'
p623
sg13
S'i41'
p624
sg15
Nsg16
(lp625
(i__main__
Token
p626
(dp627
g20
I161
sbasg21
I161
sba(i__main__
Mention
p628
(dp629
g7
S't9'
p630
sg9
S'Anaphora-C'
p631
sg11
S'i48'
p632
sg13
S'i47'
p633
sg15
Nsg16
(lp634
(i__main__
Token
p635
(dp636
g20
I165
sbasg21
I165
sba(i__main__
Mention
p637
(dp638
g7
S't9'
p639
sg9
S'Anaphora-C'
p640
sg11
S'i51'
p641
sg13
S'i48'
p642
sg15
Nsg16
(lp643
(i__main__
Token
p644
(dp645
g20
I178
sbasg21
I178
sba(i__main__
Mention
p646
(dp647
g7
S't9'
p648
sg9
S'Anaphora-C'
p649
sg11
S'i54'
p650
sg13
S'i51'
p651
sg15
Nsg16
(lp652
(i__main__
Token
p653
(dp654
g20
I188
sbasg21
I188
sba(i__main__
Mention
p655
(dp656
g7
S't9'
p657
sg9
S'Coreference-Identity'
p658
sg11
S'i69'
p659
sg13
S'i54'
p660
sg15
Nsg16
(lp661
(i__main__
Token
p662
(dp663
g20
I255
sbasg21
I255
sba(i__main__
Mention
p664
(dp665
g7
S't9'
p666
sg9
S'Anaphora-C'
p667
sg11
S'i72'
p668
sg13
S'i69'
p669
sg15
Nsg16
(lp670
(i__main__
Token
p671
(dp672
g20
I273
sbasg21
I273
sba(i__main__
Mention
p673
(dp674
g7
S't9'
p675
sg9
S'Anaphora-C'
p676
sg11
S'i74'
p677
sg13
S'i72'
p678
sg15
Nsg16
(lp679
(i__main__
Token
p680
(dp681
g20
I291
sbasg21
I291
sba(i__main__
Mention
p682
(dp683
g7
S't9'
p684
sg9
S'Anaphora-C'
p685
sg11
S'i75'
p686
sg13
S'i74'
p687
sg15
Nsg16
(lp688
(i__main__
Token
p689
(dp690
g20
I294
sbasg21
I294
sba(i__main__
Mention
p691
(dp692
g7
S't9'
p693
sg9
S'Anaphora-C'
p694
sg11
S'i83'
p695
sg13
S'i75'
p696
sg15
Nsg16
(lp697
(i__main__
Token
p698
(dp699
g20
I317
sbasg21
I317
sba(i__main__
Mention
p700
(dp701
g7
S't9'
p702
sg9
S'Anaphora-C'
p703
sg11
S'i88'
p704
sg13
S'i83'
p705
sg15
Nsg16
(lp706
(i__main__
Token
p707
(dp708
g20
I342
sbasg21
I342
sba(i__main__
Mention
p709
(dp710
g7
S't9'
p711
sg9
S'Anaphora-C'
p712
sg11
S'i97'
p713
sg13
S'i88'
p714
sg15
Nsg16
(lp715
(i__main__
Token
p716
(dp717
g20
I353
sbasg21
I353
sba(i__main__
Mention
p718
(dp719
g7
S't9'
p720
sg9
S'Anaphora-C'
p721
sg11
S'i101'
p722
sg13
S'i97'
p723
sg15
Nsg16
(lp724
(i__main__
Token
p725
(dp726
g20
I373
sbasg21
I373
sbasg7
g558
sg22
Nsba(i__main__
Chain
p727
(dp728
g3
(lp729
(i__main__
Mention
p730
(dp731
g7
S't10'
p732
sg9
Nsg11
S'i29'
p733
sg13
Nsg15
Nsg16
(lp734
(i__main__
Token
p735
(dp736
g20
I87
sba(i__main__
Token
p737
(dp738
g20
I88
sba(i__main__
Token
p739
(dp740
g20
I89
sbasg21
I89
sba(i__main__
Mention
p741
(dp742
g7
S't10'
p743
sg9
S'Coreference-Identity'
p744
sg11
S'i42'
p745
sg13
S'i29'
p746
sg15
Nsg16
(lp747
(i__main__
Token
p748
(dp749
g20
I147
sba(i__main__
Token
p750
(dp751
g20
I148
sba(i__main__
Token
p752
(dp753
g20
I149
sbasg21
I149
sbasg7
g732
sg22
Nsba(i__main__
Chain
p754
(dp755
g3
(lp756
(i__main__
Mention
p757
(dp758
g7
S't11'
p759
sg9
Nsg11
S'i30'
p760
sg13
Nsg15
Nsg16
(lp761
(i__main__
Token
p762
(dp763
g20
I92
sbasg21
I92
sba(i__main__
Mention
p764
(dp765
g7
S't11'
p766
sg9
S'Coreference-Identity'
p767
sg11
S'i43'
p768
sg13
S'i30'
p769
sg15
Nsg16
(lp770
(i__main__
Token
p771
(dp772
g20
I152
sbasg21
I152
sba(i__main__
Mention
p773
(dp774
g7
S't11'
p775
sg9
S'Anaphora-C'
p776
sg11
S'i44'
p777
sg13
S'i43'
p778
sg15
Nsg16
(lp779
(i__main__
Token
p780
(dp781
g20
I155
sbasg21
I155
sba(i__main__
Mention
p782
(dp783
g7
S't11'
p784
sg9
S'Coreference-Identity'
p785
sg11
S'i58'
p786
sg13
S'i44'
p787
sg15
Nsg16
(lp788
(i__main__
Token
p789
(dp790
g20
I207
sbasg21
I207
sbasg7
g759
sg22
Nsba(i__main__
Chain
p791
(dp792
g3
(lp793
(i__main__
Mention
p794
(dp795
g7
S't12'
p796
sg9
Nsg11
S'i50'
p797
sg13
Nsg15
Nsg16
(lp798
(i__main__
Token
p799
(dp800
g20
I169
sbasg21
I169
sba(i__main__
Mention
p801
(dp802
g7
S't12'
p803
sg9
S'Anaphora-C'
p804
sg11
S'i52'
p805
sg13
S'i50'
p806
sg15
Nsg16
(lp807
(i__main__
Token
p808
(dp809
g20
I179
sbasg21
I179
sbasg7
g796
sg22
Nsba(i__main__
Chain
p810
(dp811
g3
(lp812
(i__main__
Mention
p813
(dp814
g7
S't13'
p815
sg9
Nsg11
S'i56'
p816
sg13
Nsg15
Nsg16
(lp817
(i__main__
Token
p818
(dp819
g20
I193
sba(i__main__
Token
p820
(dp821
g20
I194
sba(i__main__
Token
p822
(dp823
g20
I195
sbasg21
Nsba(i__main__
Mention
p824
(dp825
g7
S't13'
p826
sg9
S'Coreference-PartOf'
p827
sg11
S'i95'
p828
sg13
S'i56'
p829
sg15
Nsg16
(lp830
(i__main__
Token
p831
(dp832
g20
I349
sba(i__main__
Token
p833
(dp834
g20
I350
sbasg21
I350
sba(i__main__
Mention
p835
(dp836
g7
S't13'
p837
sg9
S'Coreference-Identity'
p838
sg11
S'i100'
p839
sg13
S'i95'
p840
sg15
Nsg16
(lp841
(i__main__
Token
p842
(dp843
g20
I357
sbasg21
I357
sbasg7
g815
sg22
Nsba(i__main__
Chain
p844
(dp845
g3
(lp846
(i__main__
Mention
p847
(dp848
g7
S't14'
p849
sg9
Nsg11
S'i66'
p850
sg13
Nsg15
Nsg16
(lp851
(i__main__
Token
p852
(dp853
g20
I237
sba(i__main__
Token
p854
(dp855
g20
I238
sba(i__main__
Token
p856
(dp857
g20
I239
sbasg21
I239
sba(i__main__
Mention
p858
(dp859
g7
S't14'
p860
sg9
S'Coreference-Identity'
p861
sg11
S'i68'
p862
sg13
S'i66'
p863
sg15
Nsg16
(lp864
(i__main__
Token
p865
(dp866
g20
I243
sba(i__main__
Token
p867
(dp868
g20
I244
sba(i__main__
Token
p869
(dp870
g20
I245
sbasg21
I245
sbasg7
g849
sg22
Nsba(i__main__
Chain
p871
(dp872
g3
(lp873
(i__main__
Mention
p874
(dp875
g7
S't15'
p876
sg9
Nsg11
S'i78'
p877
sg13
Nsg15
Nsg16
(lp878
(i__main__
Token
p879
(dp880
g20
I299
sba(i__main__
Token
p881
(dp882
g20
I300
sba(i__main__
Token
p883
(dp884
g20
I301
sba(i__main__
Token
p885
(dp886
g20
I302
sbasg21
I302
sba(i__main__
Mention
p887
(dp888
g7
S't15'
p889
sg9
S'Anaphora-T'
p890
sg11
S'i79'
p891
sg13
S'i78'
p892
sg15
Nsg16
(lp893
(i__main__
Token
p894
(dp895
g20
I304
sbasg21
I304
sbasg7
g876
sg22
Nsba(i__main__
Chain
p896
(dp897
g3
(lp898
(i__main__
Mention
p899
(dp900
g7
S't16'
p901
sg9
S'anaphora-?'
p902
sg11
S'i81'
p903
sg13
S'i81'
p904
sg15
Nsg16
(lp905
(i__main__
Token
p906
(dp907
g20
I307
sbasg21
I307
sbasg7
g901
sg22
Nsba(i__main__
Chain
p908
(dp909
g3
(lp910
(i__main__
Mention
p911
(dp912
g7
S't17'
p913
sg9
S'anaphora-?'
p914
sg11
S'i85'
p915
sg13
S'i85'
p916
sg15
Nsg16
(lp917
(i__main__
Token
p918
(dp919
g20
I325
sbasg21
I325
sbasg7
g913
sg22
Nsba(i__main__
Chain
p920
(dp921
g3
(lp922
(i__main__
Mention
p923
(dp924
g7
S't18'
p925
sg9
Nsg11
S'i90'
p926
sg13
Nsg15
Nsg16
(lp927
(i__main__
Token
p928
(dp929
g20
I345
sbasg21
I345
sba(i__main__
Mention
p930
(dp931
g7
S't18'
p932
sg9
S'Anaphora-RT'
p933
sg11
S'i93'
p934
sg13
S'i90'
p935
sg15
Nsg16
(lp936
(i__main__
Token
p937
(dp938
g20
I347
sba(i__main__
Token
p939
(dp940
g20
I348
sba(i__main__
Token
p941
(dp942
g20
I349
sba(i__main__
Token
p943
(dp944
g20
I350
sba(i__main__
Token
p945
(dp946
g20
I351
sbasg21
I351
sbasg7
g925
sg22
Nsba(i__main__
Chain
p947
(dp948
g3
(lp949
(i__main__
Mention
p950
(dp951
g7
S't19'
p952
sg9
S'anaphora-?'
p953
sg11
S'i91'
p954
sg13
S'i91'
p955
sg15
Nsg16
(lp956
(i__main__
Token
p957
(dp958
g20
I346
sbasg21
I346
sbasg7
g952
sg22
Nsba(i__main__
Chain
p959
(dp960
g3
(lp961
(i__main__
Mention
p962
(dp963
g7
S't20'
p964
sg9
S'anaphora-?'
p965
sg11
S'i94'
p966
sg13
S'i94'
p967
sg15
Nsg16
(lp968
(i__main__
Token
p969
(dp970
g20
I348
sbasg21
I348
sbasg7
g964
sg22
Nsba(i__main__
Chain
p971
(dp972
g3
(lp973
(i__main__
Mention
p974
(dp975
g7
S't21'
p976
sg9
Nsg11
S'i99'
p977
sg13
Nsg15
Nsg16
(lp978
(i__main__
Token
p979
(dp980
g20
I354
sba(i__main__
Token
p981
(dp982
g20
I355
sbasg21
I355
sba(i__main__
Mention
p983
(dp984
g7
S't21'
p985
sg9
S'Coreference-Identity'
p986
sg11
S'i103'
p987
sg13
S'i99'
p988
sg15
Nsg16
(lp989
(i__main__
Token
p990
(dp991
g20
I374
sba(i__main__
Token
p992
(dp993
g20
I375
sbasg21
I375
sbasg7
g976
sg22
Nsba.