(lp0
(i__main__
Chain
p1
(dp2
S'mentionList'
p3
(lp4
(i__main__
Mention
p5
(dp6
S'chainId'
p7
S't1'
p8
sS'relType'
p9
NsS'mentionId'
p10
S'i1'
p11
sS'antecedentId'
p12
NsS'crefMod'
p13
NsS'tokenList'
p14
(lp15
(i__main__
Token
p16
(dp17
S'tokenId'
p18
I3
sba(i__main__
Token
p19
(dp20
g18
I4
sbasS'mentionHead'
p21
I4
sba(i__main__
Mention
p22
(dp23
g7
S't1'
p24
sg9
S'Coreference-Identity'
p25
sg10
S'i16'
p26
sg12
S'i1'
p27
sg13
Nsg14
(lp28
(i__main__
Token
p29
(dp30
g18
I72
sba(i__main__
Token
p31
(dp32
g18
I73
sbasg21
I73
sbasg7
g8
sS'chainHead'
p33
Nsba(i__main__
Chain
p34
(dp35
g3
(lp36
(i__main__
Mention
p37
(dp38
g7
S't2'
p39
sg9
Nsg10
S'i2'
p40
sg12
Nsg13
Nsg14
(lp41
(i__main__
Token
p42
(dp43
g18
I13
sba(i__main__
Token
p44
(dp45
g18
I14
sbasg21
I14
sba(i__main__
Mention
p46
(dp47
g7
S't2'
p48
sg9
Nsg10
S'i8'
p49
sg12
Nsg13
Nsg14
(lp50
(i__main__
Token
p51
(dp52
g18
I47
sba(i__main__
Token
p53
(dp54
g18
I48
sba(i__main__
Token
p55
(dp56
g18
I49
sbasg21
Nsba(i__main__
Mention
p57
(dp58
g7
S't2'
p59
sg9
Nsg10
S'i19'
p60
sg12
Nsg13
Nsg14
(lp61
(i__main__
Token
p62
(dp63
g18
I81
sba(i__main__
Token
p64
(dp65
g18
I82
sbasg21
Nsba(i__main__
Mention
p66
(dp67
g7
S't2'
p68
sg9
S'Coreference-PartOf'
p69
sg10
S'i25'
p70
sg12
S'i19'
p71
sg13
Nsg14
(lp72
(i__main__
Token
p73
(dp74
g18
I102
sba(i__main__
Token
p75
(dp76
g18
I103
sbasg21
I103
sba(i__main__
Mention
p77
(dp78
g7
S't2'
p79
sg9
Nsg10
S'i46'
p80
sg12
Nsg13
Nsg14
(lp81
(i__main__
Token
p82
(dp83
g18
I273
sba(i__main__
Token
p84
(dp85
g18
I274
sba(i__main__
Token
p86
(dp87
g18
I275
sbasg21
Nsba(i__main__
Mention
p88
(dp89
g7
S't2'
p90
sg9
Nsg10
S'i57'
p91
sg12
Nsg13
Nsg14
(lp92
(i__main__
Token
p93
(dp94
g18
I316
sba(i__main__
Token
p95
(dp96
g18
I317
sbasg21
Nsbasg7
g39
sg33
Nsba(i__main__
Chain
p97
(dp98
g3
(lp99
(i__main__
Mention
p100
(dp101
g7
S't3'
p102
sg9
Nsg10
S'i3'
p103
sg12
Nsg13
Nsg14
(lp104
(i__main__
Token
p105
(dp106
g18
I28
sba(i__main__
Token
p107
(dp108
g18
I29
sba(i__main__
Token
p109
(dp110
g18
I30
sbasg21
Nsba(i__main__
Mention
p111
(dp112
g7
S't3'
p113
sg9
Nsg10
S'i9'
p114
sg12
Nsg13
Nsg14
(lp115
(i__main__
Token
p116
(dp117
g18
I47
sba(i__main__
Token
p118
(dp119
g18
I48
sba(i__main__
Token
p120
(dp121
g18
I49
sbasg21
Nsba(i__main__
Mention
p122
(dp123
g7
S't3'
p124
sg9
Nsg10
S'i20'
p125
sg12
Nsg13
Nsg14
(lp126
(i__main__
Token
p127
(dp128
g18
I81
sba(i__main__
Token
p129
(dp130
g18
I82
sbasg21
Nsba(i__main__
Mention
p131
(dp132
g7
S't3'
p133
sg9
S'Coreference-PartOf'
p134
sg10
S'i28'
p135
sg12
S'i20'
p136
sg13
Nsg14
(lp137
(i__main__
Token
p138
(dp139
g18
I123
sbasg21
I123
sba(i__main__
Mention
p140
(dp141
g7
S't3'
p142
sg9
Nsg10
S'i31'
p143
sg12
Nsg13
Nsg14
(lp144
(i__main__
Token
p145
(dp146
g18
I137
sba(i__main__
Token
p147
(dp148
g18
I138
sbasg21
Nsba(i__main__
Mention
p149
(dp150
g7
S't3'
p151
sg9
S'Coreference-PartOf'
p152
sg10
S'i34'
p153
sg12
S'i31'
p154
sg13
Nsg14
(lp155
(i__main__
Token
p156
(dp157
g18
I156
sba(i__main__
Token
p158
(dp159
g18
I157
sbasg21
I157
sba(i__main__
Mention
p160
(dp161
g7
S't3'
p162
sg9
Nsg10
S'i47'
p163
sg12
Nsg13
Nsg14
(lp164
(i__main__
Token
p165
(dp166
g18
I273
sba(i__main__
Token
p167
(dp168
g18
I274
sba(i__main__
Token
p169
(dp170
g18
I275
sbasg21
Nsba(i__main__
Mention
p171
(dp172
g7
S't3'
p173
sg9
Nsg10
S'i58'
p174
sg12
Nsg13
Nsg14
(lp175
(i__main__
Token
p176
(dp177
g18
I316
sba(i__main__
Token
p178
(dp179
g18
I317
sbasg21
Nsbasg7
g102
sg33
Nsba(i__main__
Chain
p180
(dp181
g3
(lp182
(i__main__
Mention
p183
(dp184
g7
S't4'
p185
sg9
Nsg10
S'i4'
p186
sg12
Nsg13
Nsg14
(lp187
(i__main__
Token
p188
(dp189
g18
I28
sba(i__main__
Token
p190
(dp191
g18
I29
sba(i__main__
Token
p192
(dp193
g18
I30
sbasg21
Nsba(i__main__
Mention
p194
(dp195
g7
S't4'
p196
sg9
Nsg10
S'i10'
p197
sg12
Nsg13
Nsg14
(lp198
(i__main__
Token
p199
(dp200
g18
I47
sba(i__main__
Token
p201
(dp202
g18
I48
sba(i__main__
Token
p203
(dp204
g18
I49
sbasg21
Nsba(i__main__
Mention
p205
(dp206
g7
S't4'
p207
sg9
Nsg10
S'i21'
p208
sg12
Nsg13
Nsg14
(lp209
(i__main__
Token
p210
(dp211
g18
I81
sba(i__main__
Token
p212
(dp213
g18
I82
sbasg21
Nsba(i__main__
Mention
p214
(dp215
g7
S't4'
p216
sg9
S'Coreference-PartOf'
p217
sg10
S'i29'
p218
sg12
S'i21'
p219
sg13
Nsg14
(lp220
(i__main__
Token
p221
(dp222
g18
I125
sbasg21
I125
sba(i__main__
Mention
p223
(dp224
g7
S't4'
p225
sg9
Nsg10
S'i32'
p226
sg12
Nsg13
Nsg14
(lp227
(i__main__
Token
p228
(dp229
g18
I137
sba(i__main__
Token
p230
(dp231
g18
I138
sbasg21
Nsba(i__main__
Mention
p232
(dp233
g7
S't4'
p234
sg9
S'Coreference-PartOf'
p235
sg10
S'i35'
p236
sg12
S'i32'
p237
sg13
Nsg14
(lp238
(i__main__
Token
p239
(dp240
g18
I178
sba(i__main__
Token
p241
(dp242
g18
I179
sbasg21
I179
sba(i__main__
Mention
p243
(dp244
g7
S't4'
p245
sg9
S'Anaphora-C'
p246
sg10
S'i36'
p247
sg12
S'i35'
p248
sg13
Nsg14
(lp249
(i__main__
Token
p250
(dp251
g18
I189
sbasg21
I189
sba(i__main__
Mention
p252
(dp253
g7
S't4'
p254
sg9
S'Anaphora-C'
p255
sg10
S'i37'
p256
sg12
S'i36'
p257
sg13
Nsg14
(lp258
(i__main__
Token
p259
(dp260
g18
I193
sbasg21
I193
sba(i__main__
Mention
p261
(dp262
g7
S't4'
p263
sg9
Nsg10
S'i48'
p264
sg12
Nsg13
Nsg14
(lp265
(i__main__
Token
p266
(dp267
g18
I273
sba(i__main__
Token
p268
(dp269
g18
I274
sba(i__main__
Token
p270
(dp271
g18
I275
sbasg21
Nsba(i__main__
Mention
p272
(dp273
g7
S't4'
p274
sg9
Nsg10
S'i59'
p275
sg12
Nsg13
Nsg14
(lp276
(i__main__
Token
p277
(dp278
g18
I316
sba(i__main__
Token
p279
(dp280
g18
I317
sbasg21
Nsbasg7
g185
sg33
Nsba(i__main__
Chain
p281
(dp282
g3
(lp283
(i__main__
Mention
p284
(dp285
g7
S't5'
p286
sg9
Nsg10
S'i5'
p287
sg12
Nsg13
Nsg14
(lp288
(i__main__
Token
p289
(dp290
g18
I28
sba(i__main__
Token
p291
(dp292
g18
I29
sba(i__main__
Token
p293
(dp294
g18
I30
sbasg21
Nsba(i__main__
Mention
p295
(dp296
g7
S't5'
p297
sg9
Nsg10
S'i11'
p298
sg12
Nsg13
Nsg14
(lp299
(i__main__
Token
p300
(dp301
g18
I47
sba(i__main__
Token
p302
(dp303
g18
I48
sba(i__main__
Token
p304
(dp305
g18
I49
sbasg21
Nsba(i__main__
Mention
p306
(dp307
g7
S't5'
p308
sg9
Nsg10
S'i22'
p309
sg12
Nsg13
Nsg14
(lp310
(i__main__
Token
p311
(dp312
g18
I81
sba(i__main__
Token
p313
(dp314
g18
I82
sbasg21
Nsba(i__main__
Mention
p315
(dp316
g7
S't5'
p317
sg9
S'Coreference-PartOf'
p318
sg10
S'i38'
p319
sg12
S'i22'
p320
sg13
Nsg14
(lp321
(i__main__
Token
p322
(dp323
g18
I201
sbasg21
I201
sba(i__main__
Mention
p324
(dp325
g7
S't5'
p326
sg9
Nsg10
S'i40'
p327
sg12
Nsg13
Nsg14
(lp328
(i__main__
Token
p329
(dp330
g18
I205
sbasg21
Nsba(i__main__
Mention
p331
(dp332
g7
S't5'
p333
sg9
S'Coreference-PartOf'
p334
sg10
S'i42'
p335
sg12
S'i40'
p336
sg13
Nsg14
(lp337
(i__main__
Token
p338
(dp339
g18
I217
sbasg21
I217
sba(i__main__
Mention
p340
(dp341
g7
S't5'
p342
sg9
S'Anaphora-C'
p343
sg10
S'i43'
p344
sg12
S'i42'
p345
sg13
Nsg14
(lp346
(i__main__
Token
p347
(dp348
g18
I224
sbasg21
I224
sba(i__main__
Mention
p349
(dp350
g7
S't5'
p351
sg9
Nsg10
S'i49'
p352
sg12
Nsg13
Nsg14
(lp353
(i__main__
Token
p354
(dp355
g18
I273
sba(i__main__
Token
p356
(dp357
g18
I274
sba(i__main__
Token
p358
(dp359
g18
I275
sbasg21
Nsba(i__main__
Mention
p360
(dp361
g7
S't5'
p362
sg9
Nsg10
S'i60'
p363
sg12
Nsg13
Nsg14
(lp364
(i__main__
Token
p365
(dp366
g18
I316
sba(i__main__
Token
p367
(dp368
g18
I317
sbasg21
Nsbasg7
g286
sg33
Nsba(i__main__
Chain
p369
(dp370
g3
(lp371
(i__main__
Mention
p372
(dp373
g7
S't6'
p374
sg9
Nsg10
S'i6'
p375
sg12
Nsg13
Nsg14
(lp376
(i__main__
Token
p377
(dp378
g18
I28
sba(i__main__
Token
p379
(dp380
g18
I29
sba(i__main__
Token
p381
(dp382
g18
I30
sbasg21
Nsba(i__main__
Mention
p383
(dp384
g7
S't6'
p385
sg9
Nsg10
S'i12'
p386
sg12
Nsg13
Nsg14
(lp387
(i__main__
Token
p388
(dp389
g18
I47
sba(i__main__
Token
p390
(dp391
g18
I48
sba(i__main__
Token
p392
(dp393
g18
I49
sbasg21
Nsba(i__main__
Mention
p394
(dp395
g7
S't6'
p396
sg9
Nsg10
S'i23'
p397
sg12
Nsg13
Nsg14
(lp398
(i__main__
Token
p399
(dp400
g18
I81
sba(i__main__
Token
p401
(dp402
g18
I82
sbasg21
Nsba(i__main__
Mention
p403
(dp404
g7
S't6'
p405
sg9
S'Coreference-PartOf'
p406
sg10
S'i39'
p407
sg12
S'i23'
p408
sg13
Nsg14
(lp409
(i__main__
Token
p410
(dp411
g18
I203
sba(i__main__
Token
p412
(dp413
g18
I204
sbasg21
I204
sba(i__main__
Mention
p414
(dp415
g7
S't6'
p416
sg9
Nsg10
S'i41'
p417
sg12
Nsg13
Nsg14
(lp418
(i__main__
Token
p419
(dp420
g18
I205
sbasg21
Nsba(i__main__
Mention
p421
(dp422
g7
S't6'
p423
sg9
S'Coreference-PartOf'
p424
sg10
S'i44'
p425
sg12
S'i41'
p426
sg13
Nsg14
(lp427
(i__main__
Token
p428
(dp429
g18
I233
sba(i__main__
Token
p430
(dp431
g18
I234
sbasg21
I234
sba(i__main__
Mention
p432
(dp433
g7
S't6'
p434
sg9
S'Anaphora-C'
p435
sg10
S'i45'
p436
sg12
S'i44'
p437
sg13
Nsg14
(lp438
(i__main__
Token
p439
(dp440
g18
I242
sbasg21
I242
sba(i__main__
Mention
p441
(dp442
g7
S't6'
p443
sg9
Nsg10
S'i50'
p444
sg12
Nsg13
Nsg14
(lp445
(i__main__
Token
p446
(dp447
g18
I273
sba(i__main__
Token
p448
(dp449
g18
I274
sba(i__main__
Token
p450
(dp451
g18
I275
sbasg21
Nsba(i__main__
Mention
p452
(dp453
g7
S't6'
p454
sg9
Nsg10
S'i61'
p455
sg12
Nsg13
Nsg14
(lp456
(i__main__
Token
p457
(dp458
g18
I316
sba(i__main__
Token
p459
(dp460
g18
I317
sbasg21
Nsbasg7
g374
sg33
Nsba(i__main__
Chain
p461
(dp462
g3
(lp463
(i__main__
Mention
p464
(dp465
g7
S't7'
p466
sg9
Nsg10
S'i7'
p467
sg12
Nsg13
Nsg14
(lp468
(i__main__
Token
p469
(dp470
g18
I32
sbasg21
I32
sbasg7
g466
sg33
Nsba(i__main__
Chain
p471
(dp472
g3
(lp473
(i__main__
Mention
p474
(dp475
g7
S't8'
p476
sg9
Nsg10
S'i13'
p477
sg12
Nsg13
Nsg14
(lp478
(i__main__
Token
p479
(dp480
g18
I51
sba(i__main__
Token
p481
(dp482
g18
I52
sbasg21
I52
sba(i__main__
Mention
p483
(dp484
g7
S't8'
p485
sg9
S'Anaphora-C'
p486
sg10
S'i14'
p487
sg12
S'i13'
p488
sg13
Nsg14
(lp489
(i__main__
Token
p490
(dp491
g18
I58
sbasg21
I58
sba(i__main__
Mention
p492
(dp493
g7
S't8'
p494
sg9
S'Coreference-Identity'
p495
sg10
S'i51'
p496
sg12
S'i14'
p497
sg13
Nsg14
(lp498
(i__main__
Token
p499
(dp500
g18
I277
sba(i__main__
Token
p501
(dp502
g18
I278
sbasg21
I278
sba(i__main__
Mention
p503
(dp504
g7
S't8'
p505
sg9
S'Anaphora-C'
p506
sg10
S'i52'
p507
sg12
S'i51'
p508
sg13
Nsg14
(lp509
(i__main__
Token
p510
(dp511
g18
I285
sbasg21
I285
sbasg7
g476
sg33
Nsba(i__main__
Chain
p512
(dp513
g3
(lp514
(i__main__
Mention
p515
(dp516
g7
S't9'
p517
sg9
Nsg10
S'i15'
p518
sg12
Nsg13
Nsg14
(lp519
(i__main__
Token
p520
(dp521
g18
I59
sbasg21
I59
sba(i__main__
Mention
p522
(dp523
g7
S't9'
p524
sg9
S'Coreference-Identity'
p525
sg10
S'i53'
p526
sg12
S'i15'
p527
sg13
Nsg14
(lp528
(i__main__
Token
p529
(dp530
g18
I286
sbasg21
I286
sbasg7
g517
sg33
Nsba(i__main__
Chain
p531
(dp532
g3
(lp533
(i__main__
Mention
p534
(dp535
g7
S't10'
p536
sg9
Nsg10
S'i17'
p537
sg12
Nsg13
Nsg14
(lp538
(i__main__
Token
p539
(dp540
g18
I75
sbasg21
I75
sba(i__main__
Mention
p541
(dp542
g7
S't10'
p543
sg9
S'Coreference-NounComplement'
p544
sg10
S'i18'
p545
sg12
S'i17'
p546
sg13
Nsg14
(lp547
(i__main__
Token
p548
(dp549
g18
I76
sba(i__main__
Token
p550
(dp551
g18
I77
sbasg21
I77
sba(i__main__
Mention
p552
(dp553
g7
S't10'
p554
sg9
S'Anaphora-C'
p555
sg10
S'i24'
p556
sg12
S'i18'
p557
sg13
Nsg14
(lp558
(i__main__
Token
p559
(dp560
g18
I87
sbasg21
I87
sba(i__main__
Mention
p561
(dp562
g7
S't10'
p563
sg9
S'Anaphora-C'
p564
sg10
S'i27'
p565
sg12
S'i24'
p566
sg13
Nsg14
(lp567
(i__main__
Token
p568
(dp569
g18
I114
sbasg21
I114
sbasg7
g536
sg33
Nsba(i__main__
Chain
p570
(dp571
g3
(lp572
(i__main__
Mention
p573
(dp574
g7
S't11'
p575
sg9
Nsg10
S'i26'
p576
sg12
Nsg13
Nsg14
(lp577
(i__main__
Token
p578
(dp579
g18
I107
sbasg21
I107
sbasg7
g575
sg33
Nsba(i__main__
Chain
p580
(dp581
g3
(lp582
(i__main__
Mention
p583
(dp584
g7
S't12'
p585
sg9
Nsg10
S'i30'
p586
sg12
Nsg13
Nsg14
(lp587
(i__main__
Token
p588
(dp589
g18
I129
sbasg21
I129
sbasg7
g585
sg33
Nsba(i__main__
Chain
p590
(dp591
g3
(lp592
(i__main__
Mention
p593
(dp594
g7
S't13'
p595
sg9
Nsg10
S'i33'
p596
sg12
Nsg13
Nsg14
(lp597
(i__main__
Token
p598
(dp599
g18
I145
sbasg21
I145
sbasg7
g595
sg33
Nsba(i__main__
Chain
p600
(dp601
g3
(lp602
(i__main__
Mention
p603
(dp604
g7
S't14'
p605
sg9
Nsg10
S'i54'
p606
sg12
Nsg13
Nsg14
(lp607
(i__main__
Token
p608
(dp609
g18
I301
sba(i__main__
Token
p610
(dp611
g18
I302
sbasg21
I302
sba(i__main__
Mention
p612
(dp613
g7
S't14'
p614
sg9
S'Coreference-NounComplement'
p615
sg10
S'i55'
p616
sg12
S'i54'
p617
sg13
Nsg14
(lp618
(i__main__
Token
p619
(dp620
g18
I303
sba(i__main__
Token
p621
(dp622
g18
I304
sbasg21
I304
sbasg7
g605
sg33
Nsba(i__main__
Chain
p623
(dp624
g3
(lp625
(i__main__
Mention
p626
(dp627
g7
S't15'
p628
sg9
Nsg10
S'i56'
p629
sg12
Nsg13
Nsg14
(lp630
(i__main__
Token
p631
(dp632
g18
I308
sbasg21
I308
sbasg7
g628
sg33
Nsba(i__main__
Chain
p633
(dp634
g3
(lp635
(i__main__
Mention
p636
(dp637
g7
S't16'
p638
sg9
Nsg10
S'i62'
p639
sg12
Nsg13
Nsg14
(lp640
(i__main__
Token
p641
(dp642
g18
I321
sbasg21
I321
sba(i__main__
Mention
p643
(dp644
g7
S't16'
p645
sg9
S'Anaphora-C'
p646
sg10
S'i63'
p647
sg12
S'i62'
p648
sg13
Nsg14
(lp649
(i__main__
Token
p650
(dp651
g18
I327
sbasg21
I327
sba(i__main__
Mention
p652
(dp653
g7
S't16'
p654
sg9
S'Anaphora-C'
p655
sg10
S'i65'
p656
sg12
S'i63'
p657
sg13
Nsg14
(lp658
(i__main__
Token
p659
(dp660
g18
I337
sbasg21
I337
sbasg7
g638
sg33
Nsba(i__main__
Chain
p661
(dp662
g3
(lp663
(i__main__
Mention
p664
(dp665
g7
S't17'
p666
sg9
Nsg10
S'i64'
p667
sg12
Nsg13
Nsg14
(lp668
(i__main__
Token
p669
(dp670
g18
I336
sbasg21
I336
sbasg7
g666
sg33
Nsba.