(lp0
(i__main__
Chain
p1
(dp2
S'mentionList'
p3
(lp4
(i__main__
Mention
p5
(dp6
S'chainId'
p7
S't1'
p8
sS'relType'
p9
NsS'mentionId'
p10
S'i1'
p11
sS'antecedentId'
p12
NsS'crefMod'
p13
NsS'tokenList'
p14
(lp15
(i__main__
Token
p16
(dp17
S'tokenId'
p18
I0
sba(i__main__
Token
p19
(dp20
g18
I1
sba(i__main__
Token
p21
(dp22
g18
I2
sbasS'mentionHead'
p23
I2
sba(i__main__
Mention
p24
(dp25
g7
S't1'
p26
sg9
S'Coreference-Identity'
p27
sg10
S'i6'
p28
sg12
S'i1'
p29
sg13
Nsg14
(lp30
(i__main__
Token
p31
(dp32
g18
I26
sbasg23
I26
sba(i__main__
Mention
p33
(dp34
g7
S't1'
p35
sg9
S'Coreference-Identity'
p36
sg10
S'i17'
p37
sg12
S'i6'
p38
sg13
Nsg14
(lp39
(i__main__
Token
p40
(dp41
g18
I78
sbasg23
I78
sba(i__main__
Mention
p42
(dp43
g7
S't1'
p44
sg9
S'Coreference-Identity'
p45
sg10
S'i22'
p46
sg12
S'i17'
p47
sg13
Nsg14
(lp48
(i__main__
Token
p49
(dp50
g18
I129
sbasg23
I129
sbasg7
g8
sS'chainHead'
p51
Nsba(i__main__
Chain
p52
(dp53
g3
(lp54
(i__main__
Mention
p55
(dp56
g7
S't2'
p57
sg9
Nsg10
S'i2'
p58
sg12
Nsg13
Nsg14
(lp59
(i__main__
Token
p60
(dp61
g18
I6
sba(i__main__
Token
p62
(dp63
g18
I7
sbasg23
I7
sba(i__main__
Mention
p64
(dp65
g7
S't2'
p66
sg9
S'Coreference-Identity'
p67
sg10
S'i7'
p68
sg12
S'i30'
p69
sg13
Nsg14
(lp70
(i__main__
Token
p71
(dp72
g18
I28
sbasg23
I28
sba(i__main__
Mention
p73
(dp74
g7
S't2'
p75
sg9
S'Coreference-Identity'
p76
sg10
S'i9'
p77
sg12
S'i7'
p78
sg13
Nsg14
(lp79
(i__main__
Token
p80
(dp81
g18
I32
sbasg23
I32
sbasg7
g57
sg51
Nsba(i__main__
Chain
p82
(dp83
g3
(lp84
(i__main__
Mention
p85
(dp86
g7
S't3'
p87
sg9
Nsg10
S'i3'
p88
sg12
Nsg13
Nsg14
(lp89
(i__main__
Token
p90
(dp91
g18
I9
sbasg23
I9
sba(i__main__
Mention
p92
(dp93
g7
S't3'
p94
sg9
S'Coreference-Identity'
p95
sg10
S'i19'
p96
sg12
S'i3'
p97
sg13
Nsg14
(lp98
(i__main__
Token
p99
(dp100
g18
I94
sbasg23
I94
sbasg7
g87
sg51
Nsba(i__main__
Chain
p101
(dp102
g3
(lp103
(i__main__
Mention
p104
(dp105
g7
S't4'
p106
sg9
Nsg10
S'i4'
p107
sg12
Nsg13
Nsg14
(lp108
(i__main__
Token
p109
(dp110
g18
I11
sba(i__main__
Token
p111
(dp112
g18
I12
sba(i__main__
Token
p113
(dp114
g18
I13
sba(i__main__
Token
p115
(dp116
g18
I14
sba(i__main__
Token
p117
(dp118
g18
I15
sba(i__main__
Token
p119
(dp120
g18
I16
sba(i__main__
Token
p121
(dp122
g18
I17
sba(i__main__
Token
p123
(dp124
g18
I18
sbasg23
I18
sba(i__main__
Mention
p125
(dp126
g7
S't4'
p127
sg9
S'Coreference-Identity'
p128
sg10
S'i10'
p129
sg12
S'i4'
p130
sg13
Nsg14
(lp131
(i__main__
Token
p132
(dp133
g18
I35
sba(i__main__
Token
p134
(dp135
g18
I36
sbasg23
I36
sba(i__main__
Mention
p136
(dp137
g7
S't4'
p138
sg9
S'Coreference-Identity'
p139
sg10
S'i11'
p140
sg12
S'i10'
p141
sg13
Nsg14
(lp142
(i__main__
Token
p143
(dp144
g18
I48
sba(i__main__
Token
p145
(dp146
g18
I49
sbasg23
I49
sba(i__main__
Mention
p147
(dp148
g7
S't4'
p149
sg9
S'Anaphora-C'
p150
sg10
S'i15'
p151
sg12
S'i11'
p152
sg13
Nsg14
(lp153
(i__main__
Token
p154
(dp155
g18
I57
sbasg23
I57
sba(i__main__
Mention
p156
(dp157
g7
S't4'
p158
sg9
S'Coreference-Noun-Noun'
p159
sg10
S'i18'
p160
sg12
S'i15'
p161
sg13
Nsg14
(lp162
(i__main__
Token
p163
(dp164
g18
I91
sbasg23
I91
sba(i__main__
Mention
p165
(dp166
g7
S't4'
p167
sg9
S'Coreference-Noun-Noun'
p168
sg10
S'i21'
p169
sg12
S'i18'
p170
sg13
Nsg14
(lp171
(i__main__
Token
p172
(dp173
g18
I116
sba(i__main__
Token
p174
(dp175
g18
I117
sbasg23
I117
sba(i__main__
Mention
p176
(dp177
g7
S't4'
p178
sg9
S'Coreference-Identity'
p179
sg10
S'i23'
p180
sg12
S'i21'
p181
sg13
Nsg14
(lp182
(i__main__
Token
p183
(dp184
g18
I135
sbasg23
I135
sbasg7
g106
sg51
Nsba(i__main__
Chain
p185
(dp186
g3
(lp187
(i__main__
Mention
p188
(dp189
g7
S't5'
p190
sg9
Nsg10
S'i5'
p191
sg12
Nsg13
Nsg14
(lp192
(i__main__
Token
p193
(dp194
g18
I11
sba(i__main__
Token
p195
(dp196
g18
I12
sbasg23
I12
sba(i__main__
Mention
p197
(dp198
g7
S't5'
p199
sg9
S'Coreference-Identity'
p200
sg10
S'i16'
p201
sg12
S'i5'
p202
sg13
Nsg14
(lp203
(i__main__
Token
p204
(dp205
g18
I58
sba(i__main__
Token
p206
(dp207
g18
I59
sbasg23
I59
sba(i__main__
Mention
p208
(dp209
g7
S't5'
p210
sg9
S'Coreference-Identity'
p211
sg10
S'i20'
p212
sg12
S'i16'
p213
sg13
Nsg14
(lp214
(i__main__
Token
p215
(dp216
g18
I99
sba(i__main__
Token
p217
(dp218
g18
I100
sbasg23
I100
sbasg7
g190
sg51
Nsba(i__main__
Chain
p219
(dp220
g3
(lp221
(i__main__
Mention
p222
(dp223
g7
S't6'
p224
sg9
Nsg10
S'i12'
p225
sg12
Nsg13
Nsg14
(lp226
(i__main__
Token
p227
(dp228
g18
I48
sba(i__main__
Token
p229
(dp230
g18
I49
sba(i__main__
Token
p231
(dp232
g18
I50
sba(i__main__
Token
p233
(dp234
g18
I51
sba(i__main__
Token
p235
(dp236
g18
I52
sba(i__main__
Token
p237
(dp238
g18
I53
sbasg23
I53
sba(i__main__
Mention
p239
(dp240
g7
S't6'
p241
sg9
S'Anaphora-E'
p242
sg10
S'i14'
p243
sg12
S'i12'
p244
sg13
Nsg14
(lp245
(i__main__
Token
p246
(dp247
g18
I55
sbasg23
I55
sbasg7
g224
sg51
Nsba(i__main__
Chain
p248
(dp249
g3
(lp250
(i__main__
Mention
p251
(dp252
g7
S't7'
p253
sg9
Nsg10
S'i24'
p254
sg12
Nsg13
Nsg14
(lp255
(i__main__
Token
p256
(dp257
g18
I137
sba(i__main__
Token
p258
(dp259
g18
I138
sbasg23
I138
sba(i__main__
Mention
p260
(dp261
g7
S't7'
p262
sg9
S'Anaphora-C'
p263
sg10
S'i25'
p264
sg12
S'i24'
p265
sg13
Nsg14
(lp266
(i__main__
Token
p267
(dp268
g18
I142
sbasg23
I142
sbasg7
g253
sg51
Nsba.