(lp0
(i__main__
Chain
p1
(dp2
S'mentionList'
p3
(lp4
(i__main__
Mention
p5
(dp6
S'chainId'
p7
S't1'
p8
sS'relType'
p9
NsS'mentionId'
p10
S'i1'
p11
sS'antecedentId'
p12
NsS'crefMod'
p13
NsS'tokenList'
p14
(lp15
(i__main__
Token
p16
(dp17
S'tokenId'
p18
I2
sba(i__main__
Token
p19
(dp20
g18
I3
sba(i__main__
Token
p21
(dp22
g18
I4
sba(i__main__
Token
p23
(dp24
g18
I5
sbasS'mentionHead'
p25
I5
sba(i__main__
Mention
p26
(dp27
g7
S't1'
p28
sg9
S'Anaphora-C'
p29
sg10
S'i2'
p30
sg12
S'i1'
p31
sg13
Nsg14
(lp32
(i__main__
Token
p33
(dp34
g18
I10
sbasg25
I10
sba(i__main__
Mention
p35
(dp36
g7
S't1'
p37
sg9
S'Coreference-Identity'
p38
sg10
S'i4'
p39
sg12
S'i2'
p40
sg13
Nsg14
(lp41
(i__main__
Token
p42
(dp43
g18
I23
sbasg25
I23
sba(i__main__
Mention
p44
(dp45
g7
S't1'
p46
sg9
S'Anaphora-C'
p47
sg10
S'i5'
p48
sg12
S'i4'
p49
sg13
Nsg14
(lp50
(i__main__
Token
p51
(dp52
g18
I27
sbasg25
I27
sba(i__main__
Mention
p53
(dp54
g7
S't1'
p55
sg9
S'Coreference-Identity'
p56
sg10
S'i7'
p57
sg12
S'i5'
p58
sg13
Nsg14
(lp59
(i__main__
Token
p60
(dp61
g18
I50
sbasg25
I50
sba(i__main__
Mention
p62
(dp63
g7
S't1'
p64
sg9
S'Coreference-Identity'
p65
sg10
S'i14'
p66
sg12
S'i7'
p67
sg13
Nsg14
(lp68
(i__main__
Token
p69
(dp70
g18
I91
sbasg25
I91
sbasg7
g8
sS'chainHead'
p71
Nsba(i__main__
Chain
p72
(dp73
g3
(lp74
(i__main__
Mention
p75
(dp76
g7
S't2'
p77
sg9
Nsg10
S'i3'
p78
sg12
Nsg13
Nsg14
(lp79
(i__main__
Token
p80
(dp81
g18
I11
sbasg25
I11
sba(i__main__
Mention
p82
(dp83
g7
S't2'
p84
sg9
S'Coreference-Identity'
p85
sg10
S'i6'
p86
sg12
S'i3'
p87
sg13
Nsg14
(lp88
(i__main__
Token
p89
(dp90
g18
I40
sbasg25
I40
sba(i__main__
Mention
p91
(dp92
g7
S't2'
p93
sg9
S'Coreference-Identity'
p94
sg10
S'i17'
p95
sg12
S'i6'
p96
sg13
Nsg14
(lp97
(i__main__
Token
p98
(dp99
g18
I99
sbasg25
I99
sbasg7
g77
sg71
Nsba(i__main__
Chain
p100
(dp101
g3
(lp102
(i__main__
Mention
p103
(dp104
g7
S't3'
p105
sg9
Nsg10
S'i8'
p106
sg12
Nsg13
Nsg14
(lp107
(i__main__
Token
p108
(dp109
g18
I52
sbasg25
I52
sba(i__main__
Mention
p110
(dp111
g7
S't3'
p112
sg9
S'Coreference-NounComplement'
p113
sg10
S'i9'
p114
sg12
S'i8'
p115
sg13
Nsg14
(lp116
(i__main__
Token
p117
(dp118
g18
I53
sba(i__main__
Token
p119
(dp120
g18
I54
sbasg25
I54
sba(i__main__
Mention
p121
(dp122
g7
S't3'
p123
sg9
S'Coreference-Identity'
p124
sg10
S'i13'
p125
sg12
S'i9'
p126
sg13
Nsg14
(lp127
(i__main__
Token
p128
(dp129
g18
I86
sbasg25
I86
sba(i__main__
Mention
p130
(dp131
g7
S't3'
p132
sg9
S'Anaphora-C'
p133
sg10
S'i19'
p134
sg12
S'i13'
p135
sg13
Nsg14
(lp136
(i__main__
Token
p137
(dp138
g18
I108
sbasg25
I108
sbasg7
g105
sg71
Nsba(i__main__
Chain
p139
(dp140
g3
(lp141
(i__main__
Mention
p142
(dp143
g7
S't4'
p144
sg9
Nsg10
S'i10'
p145
sg12
Nsg13
Nsg14
(lp146
(i__main__
Token
p147
(dp148
g18
I58
sba(i__main__
Token
p149
(dp150
g18
I59
sba(i__main__
Token
p151
(dp152
g18
I60
sba(i__main__
Token
p153
(dp154
g18
I61
sba(i__main__
Token
p155
(dp156
g18
I62
sba(i__main__
Token
p157
(dp158
g18
I63
sba(i__main__
Token
p159
(dp160
g18
I64
sba(i__main__
Token
p161
(dp162
g18
I65
sba(i__main__
Token
p163
(dp164
g18
I66
sba(i__main__
Token
p165
(dp166
g18
I67
sba(i__main__
Token
p167
(dp168
g18
I68
sba(i__main__
Token
p169
(dp170
g18
I69
sba(i__main__
Token
p171
(dp172
g18
I70
sba(i__main__
Token
p173
(dp174
g18
I71
sbasg25
I68
sba(i__main__
Mention
p175
(dp176
g7
S't4'
p177
sg9
S'Anaphora-E'
p178
sg10
S'i12'
p179
sg12
S'i10'
p180
sg13
Nsg14
(lp181
(i__main__
Token
p182
(dp183
g18
I76
sbasg25
I76
sbasg7
g144
sg71
Nsba(i__main__
Chain
p184
(dp185
g3
(lp186
(i__main__
Mention
p187
(dp188
g7
S't5'
p189
sg9
Nsg10
S'i11'
p190
sg12
Nsg13
Nsg14
(lp191
(i__main__
Token
p192
(dp193
g18
I74
sba(i__main__
Token
p194
(dp195
g18
I75
sbasg25
I75
sba(i__main__
Mention
p196
(dp197
g7
S't5'
p198
sg9
S'Coreference-Identity'
p199
sg10
S'i15'
p200
sg12
S'i11'
p201
sg13
Nsg14
(lp202
(i__main__
Token
p203
(dp204
g18
I94
sbasg25
I94
sbasg7
g189
sg71
Nsba(i__main__
Chain
p205
(dp206
g3
(lp207
(i__main__
Mention
p208
(dp209
g7
S't6'
p210
sg9
Nsg10
S'i16'
p211
sg12
Nsg13
Nsg14
(lp212
(i__main__
Token
p213
(dp214
g18
I96
sba(i__main__
Token
p215
(dp216
g18
I97
sba(i__main__
Token
p217
(dp218
g18
I98
sba(i__main__
Token
p219
(dp220
g18
I99
sba(i__main__
Token
p221
(dp222
g18
I100
sba(i__main__
Token
p223
(dp224
g18
I101
sba(i__main__
Token
p225
(dp226
g18
I102
sba(i__main__
Token
p227
(dp228
g18
I103
sba(i__main__
Token
p229
(dp230
g18
I104
sba(i__main__
Token
p231
(dp232
g18
I105
sbasg25
I104
sba(i__main__
Mention
p233
(dp234
g7
S't6'
p235
sg9
S'Anaphora-C'
p236
sg10
S'i18'
p237
sg12
S'i16'
p238
sg13
Nsg14
(lp239
(i__main__
Token
p240
(dp241
g18
I107
sbasg25
I107
sbasg7
g210
sg71
Nsba.