(lp0
(i__main__
Chain
p1
(dp2
S'mentionList'
p3
(lp4
(i__main__
Mention
p5
(dp6
S'chainId'
p7
S't1'
p8
sS'relType'
p9
NsS'mentionId'
p10
S'i1'
p11
sS'antecedentId'
p12
NsS'crefMod'
p13
NsS'tokenList'
p14
(lp15
(i__main__
Token
p16
(dp17
S'tokenId'
p18
I0
sba(i__main__
Token
p19
(dp20
g18
I1
sba(i__main__
Token
p21
(dp22
g18
I2
sbasS'mentionHead'
p23
I2
sba(i__main__
Mention
p24
(dp25
g7
S't1'
p26
sg9
S'Coreference-Bracketed/Abbraviation'
p27
sg10
S'i3'
p28
sg12
S'i1'
p29
sg13
Nsg14
(lp30
(i__main__
Token
p31
(dp32
g18
I4
sbasg23
I4
sbasg7
g8
sS'chainHead'
p33
Nsba(i__main__
Chain
p34
(dp35
g3
(lp36
(i__main__
Mention
p37
(dp38
g7
S't2'
p39
sg9
Nsg10
S'i2'
p40
sg12
Nsg13
Nsg14
(lp41
(i__main__
Token
p42
(dp43
g18
I0
sba(i__main__
Token
p44
(dp45
g18
I1
sba(i__main__
Token
p46
(dp47
g18
I2
sba(i__main__
Token
p48
(dp49
g18
I6
sbasg23
I6
sba(i__main__
Mention
p50
(dp51
g7
S't2'
p52
sg9
S'Coreference-NounComplement'
p53
sg10
S'i4'
p54
sg12
S'i2'
p55
sg13
Nsg14
(lp56
(i__main__
Token
p57
(dp58
g18
I7
sba(i__main__
Token
p59
(dp60
g18
I8
sbasg23
I8
sba(i__main__
Mention
p61
(dp62
g7
S't2'
p63
sg9
S'Anaphora-C'
p64
sg10
S'i5'
p65
sg12
S'i4'
p66
sg13
Nsg14
(lp67
(i__main__
Token
p68
(dp69
g18
I24
sbasg23
I24
sba(i__main__
Mention
p70
(dp71
g7
S't2'
p72
sg9
S'Coreference-Identity'
p73
sg10
S'i9'
p74
sg12
S'i5'
p75
sg13
Nsg14
(lp76
(i__main__
Token
p77
(dp78
g18
I34
sba(i__main__
Token
p79
(dp80
g18
I35
sbasg23
I35
sba(i__main__
Mention
p81
(dp82
g7
S't2'
p83
sg9
S'Coreference-Identity'
p84
sg10
S'i13'
p85
sg12
S'i9'
p86
sg13
Nsg14
(lp87
(i__main__
Token
p88
(dp89
g18
I53
sba(i__main__
Token
p90
(dp91
g18
I54
sbasg23
I54
sba(i__main__
Mention
p92
(dp93
g7
S't2'
p94
sg9
S'Coreference-Identity'
p95
sg10
S'i20'
p96
sg12
S'i13'
p97
sg13
Nsg14
(lp98
(i__main__
Token
p99
(dp100
g18
I74
sba(i__main__
Token
p101
(dp102
g18
I75
sbasg23
I75
sba(i__main__
Mention
p103
(dp104
g7
S't2'
p105
sg9
S'Coreference-Identity'
p106
sg10
S'i25'
p107
sg12
S'i20'
p108
sg13
Nsg14
(lp109
(i__main__
Token
p110
(dp111
g18
I98
sba(i__main__
Token
p112
(dp113
g18
I99
sbasg23
I99
sba(i__main__
Mention
p114
(dp115
g7
S't2'
p116
sg9
S'Anaphora-C'
p117
sg10
S'i28'
p118
sg12
S'i25'
p119
sg13
Nsg14
(lp120
(i__main__
Token
p121
(dp122
g18
I114
sbasg23
I114
sba(i__main__
Mention
p123
(dp124
g7
S't2'
p125
sg9
S'Anaphora-C'
p126
sg10
S'i29'
p127
sg12
S'i28'
p128
sg13
Nsg14
(lp129
(i__main__
Token
p130
(dp131
g18
I115
sbasg23
I115
sbasg7
g39
sg33
Nsba(i__main__
Chain
p132
(dp133
g3
(lp134
(i__main__
Mention
p135
(dp136
g7
S't3'
p137
sg9
Nsg10
S'i6'
p138
sg12
Nsg13
Nsg14
(lp139
(i__main__
Token
p140
(dp141
g18
I25
sbasg23
I25
sba(i__main__
Mention
p142
(dp143
g7
S't3'
p144
sg9
S'Anaphora-C'
p145
sg10
S'i7'
p146
sg12
S'i6'
p147
sg13
Nsg14
(lp148
(i__main__
Token
p149
(dp150
g18
I31
sbasg23
I31
sba(i__main__
Mention
p151
(dp152
g7
S't3'
p153
sg9
S'Coreference-Identity'
p154
sg10
S'i14'
p155
sg12
S'i7'
p156
sg13
Nsg14
(lp157
(i__main__
Token
p158
(dp159
g18
I56
sba(i__main__
Token
p160
(dp161
g18
I57
sba(i__main__
Token
p162
(dp163
g18
I58
sbasg23
I58
sba(i__main__
Mention
p164
(dp165
g7
S't3'
p166
sg9
S'Coreference-Noun-Noun'
p167
sg10
S'i15'
p168
sg12
S'i14'
p169
sg13
Nsg14
(lp170
(i__main__
Token
p171
(dp172
g18
I59
sba(i__main__
Token
p173
(dp174
g18
I60
sbasg23
I60
sba(i__main__
Mention
p175
(dp176
g7
S't3'
p177
sg9
S'Anaphora-C'
p178
sg10
S'i16'
p179
sg12
S'i15'
p180
sg13
Nsg14
(lp181
(i__main__
Token
p182
(dp183
g18
I62
sbasg23
I62
sbasg7
g137
sg33
Nsba(i__main__
Chain
p184
(dp185
g3
(lp186
(i__main__
Mention
p187
(dp188
g7
S't4'
p189
sg9
Nsg10
S'i8'
p190
sg12
Nsg13
Nsg14
(lp191
(i__main__
Token
p192
(dp193
g18
I32
sbasg23
I32
sba(i__main__
Mention
p194
(dp195
g7
S't4'
p196
sg9
S'Anaphora-C'
p197
sg10
S'i10'
p198
sg12
S'i8'
p199
sg13
Nsg14
(lp200
(i__main__
Token
p201
(dp202
g18
I40
sbasg23
I40
sba(i__main__
Mention
p203
(dp204
g7
S't4'
p205
sg9
S'Coreference-Identity'
p206
sg10
S'i19'
p207
sg12
S'i10'
p208
sg13
Nsg14
(lp209
(i__main__
Token
p210
(dp211
g18
I72
sbasg23
I72
sba(i__main__
Mention
p212
(dp213
g7
S't4'
p214
sg9
S'Anaphora-C'
p215
sg10
S'i21'
p216
sg12
S'i19'
p217
sg13
Nsg14
(lp218
(i__main__
Token
p219
(dp220
g18
I77
sbasg23
I77
sba(i__main__
Mention
p221
(dp222
g7
S't4'
p223
sg9
S'Anaphora-C'
p224
sg10
S'i31'
p225
sg12
S'i21'
p226
sg13
Nsg14
(lp227
(i__main__
Token
p228
(dp229
g18
I120
sbasg23
I120
sbasg7
g189
sg33
Nsba(i__main__
Chain
p230
(dp231
g3
(lp232
(i__main__
Mention
p233
(dp234
g7
S't5'
p235
sg9
S'anaphora-?'
p236
sg10
S'i11'
p237
sg12
S'i11'
p238
sg13
Nsg14
(lp239
(i__main__
Token
p240
(dp241
g18
I41
sbasg23
I41
sbasg7
g235
sg33
Nsba(i__main__
Chain
p242
(dp243
g3
(lp244
(i__main__
Mention
p245
(dp246
g7
S't6'
p247
sg9
Nsg10
S'i12'
p248
sg12
Nsg13
Nsg14
(lp249
(i__main__
Token
p250
(dp251
g18
I47
sba(i__main__
Token
p252
(dp253
g18
I48
sbasg23
I48
sba(i__main__
Mention
p254
(dp255
g7
S't6'
p256
sg9
S'Coreference-Identity'
p257
sg10
S'i23'
p258
sg12
S'i12'
p259
sg13
Nsg14
(lp260
(i__main__
Token
p261
(dp262
g18
I91
sba(i__main__
Token
p263
(dp264
g18
I92
sbasg23
I92
sbasg7
g247
sg33
Nsba(i__main__
Chain
p265
(dp266
g3
(lp267
(i__main__
Mention
p268
(dp269
g7
S't7'
p270
sg9
Nsg10
S'i17'
p271
sg12
Nsg13
Nsg14
(lp272
(i__main__
Token
p273
(dp274
g18
I63
sba(i__main__
Token
p275
(dp276
g18
I64
sbasg23
I64
sba(i__main__
Mention
p277
(dp278
g7
S't7'
p279
sg9
S'Coreference-NounComplement'
p280
sg10
S'i18'
p281
sg12
S'i17'
p282
sg13
Nsg14
(lp283
(i__main__
Token
p284
(dp285
g18
I65
sba(i__main__
Token
p286
(dp287
g18
I66
sbasg23
I66
sba(i__main__
Mention
p288
(dp289
g7
S't7'
p290
sg9
S'Anaphora-C'
p291
sg10
S'i22'
p292
sg12
S'i18'
p293
sg13
Nsg14
(lp294
(i__main__
Token
p295
(dp296
g18
I90
sbasg23
I90
sba(i__main__
Mention
p297
(dp298
g7
S't7'
p299
sg9
S'Anaphora-C'
p300
sg10
S'i24'
p301
sg12
S'i22'
p302
sg13
Nsg14
(lp303
(i__main__
Token
p304
(dp305
g18
I95
sbasg23
I95
sbasg7
g270
sg33
Nsba(i__main__
Chain
p306
(dp307
g3
(lp308
(i__main__
Mention
p309
(dp310
g7
S't8'
p311
sg9
Nsg10
S'i26'
p312
sg12
Nsg13
Nsg14
(lp313
(i__main__
Token
p314
(dp315
g18
I104
sba(i__main__
Token
p316
(dp317
g18
I105
sbasg23
I105
sba(i__main__
Mention
p318
(dp319
g7
S't8'
p320
sg9
S'Anaphora-C'
p321
sg10
S'i27'
p322
sg12
S'i26'
p323
sg13
Nsg14
(lp324
(i__main__
Token
p325
(dp326
g18
I111
sbasg23
I111
sbasg7
g311
sg33
Nsba(i__main__
Chain
p327
(dp328
g3
(lp329
(i__main__
Mention
p330
(dp331
g7
S't9'
p332
sg9
S'anaphora-?'
p333
sg10
S'i30'
p334
sg12
S'i30'
p335
sg13
Nsg14
(lp336
(i__main__
Token
p337
(dp338
g18
I116
sbasg23
I116
sbasg7
g332
sg33
Nsba.