(lp0
(i__main__
Chain
p1
(dp2
S'mentionList'
p3
(lp4
(i__main__
Mention
p5
(dp6
S'chainId'
p7
S't1'
p8
sS'relType'
p9
NsS'mentionId'
p10
S'i1'
p11
sS'antecedentId'
p12
NsS'crefMod'
p13
NsS'tokenList'
p14
(lp15
(i__main__
Token
p16
(dp17
S'tokenId'
p18
I0
sbasS'mentionHead'
p19
I0
sba(i__main__
Mention
p20
(dp21
g7
S't1'
p22
sg9
S'Coreference-Noun-Noun'
p23
sg10
S'i18'
p24
sg12
S'i1'
p25
sg13
Nsg14
(lp26
(i__main__
Token
p27
(dp28
g18
I76
sbasg19
I76
sbasg7
g8
sS'chainHead'
p29
Nsba(i__main__
Chain
p30
(dp31
g3
(lp32
(i__main__
Mention
p33
(dp34
g7
S't2'
p35
sg9
Nsg10
S'i2'
p36
sg12
Nsg13
Nsg14
(lp37
(i__main__
Token
p38
(dp39
g18
I4
sba(i__main__
Token
p40
(dp41
g18
I5
sbasg19
I5
sba(i__main__
Mention
p42
(dp43
g7
S't2'
p44
sg9
S'Coreference-NounComplement'
p45
sg10
S'i4'
p46
sg12
S'i2'
p47
sg13
Nsg14
(lp48
(i__main__
Token
p49
(dp50
g18
I6
sba(i__main__
Token
p51
(dp52
g18
I7
sbasg19
I7
sba(i__main__
Mention
p53
(dp54
g7
S't2'
p55
sg9
S'Anaphora-C'
p56
sg10
S'i7'
p57
sg12
S'i4'
p58
sg13
Nsg14
(lp59
(i__main__
Token
p60
(dp61
g18
I24
sbasg19
I24
sba(i__main__
Mention
p62
(dp63
g7
S't2'
p64
sg9
S'Coreference-Noun-Noun'
p65
sg10
S'i11'
p66
sg12
S'i7'
p67
sg13
Nsg14
(lp68
(i__main__
Token
p69
(dp70
g18
I46
sba(i__main__
Token
p71
(dp72
g18
I47
sbasg19
I47
sba(i__main__
Mention
p73
(dp74
g7
S't2'
p75
sg9
S'Coreference-Identity'
p76
sg10
S'i29'
p77
sg12
S'i11'
p78
sg13
Nsg14
(lp79
(i__main__
Token
p80
(dp81
g18
I133
sbasg19
I133
sba(i__main__
Mention
p82
(dp83
g7
S't2'
p84
sg9
S'Coreference-NounComplement'
p85
sg10
S'i30'
p86
sg12
S'i29'
p87
sg13
Nsg14
(lp88
(i__main__
Token
p89
(dp90
g18
I134
sbasg19
I134
sba(i__main__
Mention
p91
(dp92
g7
S't2'
p93
sg9
S'Coreference-Noun-Noun'
p94
sg10
S'i32'
p95
sg12
S'i30'
p96
sg13
Nsg14
(lp97
(i__main__
Token
p98
(dp99
g18
I145
sbasg19
I145
sbasg7
g35
sg29
Nsba(i__main__
Chain
p100
(dp101
g3
(lp102
(i__main__
Mention
p103
(dp104
g7
S't3'
p105
sg9
Nsg10
S'i3'
p106
sg12
Nsg13
Nsg14
(lp107
(i__main__
Token
p108
(dp109
g18
I4
sbasg19
I4
sba(i__main__
Mention
p110
(dp111
g7
S't3'
p112
sg9
S'Coreference-Identity'
p113
sg10
S'i12'
p114
sg12
S'i3'
p115
sg13
Nsg14
(lp116
(i__main__
Token
p117
(dp118
g18
I46
sbasg19
I46
sbasg7
g105
sg29
Nsba(i__main__
Chain
p119
(dp120
g3
(lp121
(i__main__
Mention
p122
(dp123
g7
S't4'
p124
sg9
Nsg10
S'i5'
p125
sg12
Nsg13
Nsg14
(lp126
(i__main__
Token
p127
(dp128
g18
I17
sba(i__main__
Token
p129
(dp130
g18
I18
sba(i__main__
Token
p131
(dp132
g18
I19
sbasg19
I19
sba(i__main__
Mention
p133
(dp134
g7
S't4'
p135
sg9
S'Coreference-NounComplement'
p136
sg10
S'i24'
p137
sg12
S'i5'
p138
sg13
Nsg14
(lp139
(i__main__
Token
p140
(dp141
g18
I107
sba(i__main__
Token
p142
(dp143
g18
I108
sbasg19
I108
sbasg7
g124
sg29
Nsba(i__main__
Chain
p144
(dp145
g3
(lp146
(i__main__
Mention
p147
(dp148
g7
S't5'
p149
sg9
Nsg10
S'i6'
p150
sg12
Nsg13
Nsg14
(lp151
(i__main__
Token
p152
(dp153
g18
I21
sba(i__main__
Token
p154
(dp155
g18
I22
sbasg19
I22
sba(i__main__
Mention
p156
(dp157
g7
S't5'
p158
sg9
S'Coreference-Identity'
p159
sg10
S'i26'
p160
sg12
S'i6'
p161
sg13
Nsg14
(lp162
(i__main__
Token
p163
(dp164
g18
I116
sbasg19
I116
sbasg7
g149
sg29
Nsba(i__main__
Chain
p165
(dp166
g3
(lp167
(i__main__
Mention
p168
(dp169
g7
S't6'
p170
sg9
Nsg10
S'i8'
p171
sg12
Nsg13
Nsg14
(lp172
(i__main__
Token
p173
(dp174
g18
I26
sba(i__main__
Token
p175
(dp176
g18
I27
sba(i__main__
Token
p177
(dp178
g18
I28
sba(i__main__
Token
p179
(dp180
g18
I29
sbasg19
I29
sba(i__main__
Mention
p181
(dp182
g7
S't6'
p183
sg9
S'Coreference-Identity'
p184
sg10
S'i13'
p185
sg12
S'i8'
p186
sg13
Nsg14
(lp187
(i__main__
Token
p188
(dp189
g18
I51
sba(i__main__
Token
p190
(dp191
g18
I52
sbasg19
I52
sba(i__main__
Mention
p192
(dp193
g7
S't6'
p194
sg9
S'Coreference-Identity'
p195
sg10
S'i16'
p196
sg12
S'i13'
p197
sg13
Nsg14
(lp198
(i__main__
Token
p199
(dp200
g18
I73
sbasg19
I73
sba(i__main__
Mention
p201
(dp202
g7
S't6'
p203
sg9
S'Coreference-Identity'
p204
sg10
S'i31'
p205
sg12
S'i16'
p206
sg13
Nsg14
(lp207
(i__main__
Token
p208
(dp209
g18
I137
sbasg19
I137
sbasg7
g170
sg29
Nsba(i__main__
Chain
p210
(dp211
g3
(lp212
(i__main__
Mention
p213
(dp214
g7
S't7'
p215
sg9
Nsg10
S'i9'
p216
sg12
Nsg13
Nsg14
(lp217
(i__main__
Token
p218
(dp219
g18
I35
sbasg19
I35
sba(i__main__
Mention
p220
(dp221
g7
S't7'
p222
sg9
S'Coreference-Identity'
p223
sg10
S'i10'
p224
sg12
S'i9'
p225
sg13
Nsg14
(lp226
(i__main__
Token
p227
(dp228
g18
I44
sbasg19
I44
sba(i__main__
Mention
p229
(dp230
g7
S't7'
p231
sg9
S'Coreference-Identity'
p232
sg10
S'i19'
p233
sg12
S'i10'
p234
sg13
Nsg14
(lp235
(i__main__
Token
p236
(dp237
g18
I81
sbasg19
I81
sba(i__main__
Mention
p238
(dp239
g7
S't7'
p240
sg9
S'Coreference-Identity'
p241
sg10
S'i20'
p242
sg12
S'i19'
p243
sg13
Nsg14
(lp244
(i__main__
Token
p245
(dp246
g18
I88
sbasg19
I88
sbasg7
g215
sg29
Nsba(i__main__
Chain
p247
(dp248
g3
(lp249
(i__main__
Mention
p250
(dp251
g7
S't8'
p252
sg9
Nsg10
S'i14'
p253
sg12
Nsg13
Nsg14
(lp254
(i__main__
Token
p255
(dp256
g18
I54
sba(i__main__
Token
p257
(dp258
g18
I55
sbasg19
I55
sba(i__main__
Mention
p259
(dp260
g7
S't8'
p261
sg9
S'Anaphora-C'
p262
sg10
S'i15'
p263
sg12
S'i14'
p264
sg13
Nsg14
(lp265
(i__main__
Token
p266
(dp267
g18
I59
sbasg19
I59
sba(i__main__
Mention
p268
(dp269
g7
S't8'
p270
sg9
S'Coreference-Identity'
p271
sg10
S'i17'
p272
sg12
S'i15'
p273
sg13
Nsg14
(lp274
(i__main__
Token
p275
(dp276
g18
I75
sbasg19
I75
sbasg7
g252
sg29
Nsba(i__main__
Chain
p277
(dp278
g3
(lp279
(i__main__
Mention
p280
(dp281
g7
S't9'
p282
sg9
Nsg10
S'i21'
p283
sg12
Nsg13
Nsg14
(lp284
(i__main__
Token
p285
(dp286
g18
I99
sba(i__main__
Token
p287
(dp288
g18
I100
sbasg19
Nsba(i__main__
Mention
p289
(dp290
g7
S't9'
p291
sg9
S'Coreference-PartOf'
p292
sg10
S'i23'
p293
sg12
S'i21'
p294
sg13
Nsg14
(lp295
(i__main__
Token
p296
(dp297
g18
I101
sba(i__main__
Token
p298
(dp299
g18
I102
sbasg19
I102
sbasg7
g282
sg29
Nsba(i__main__
Chain
p300
(dp301
g3
(lp302
(i__main__
Mention
p303
(dp304
g7
S't10'
p305
sg9
Nsg10
S'i22'
p306
sg12
Nsg13
Nsg14
(lp307
(i__main__
Token
p308
(dp309
g18
I99
sba(i__main__
Token
p310
(dp311
g18
I100
sbasg19
Nsba(i__main__
Mention
p312
(dp313
g7
S't10'
p314
sg9
S'Coreference-PartOf'
p315
sg10
S'i25'
p316
sg12
S'i22'
p317
sg13
Nsg14
(lp318
(i__main__
Token
p319
(dp320
g18
I104
sba(i__main__
Token
p321
(dp322
g18
I105
sbasg19
I105
sbasg7
g305
sg29
Nsba(i__main__
Chain
p323
(dp324
g3
(lp325
(i__main__
Mention
p326
(dp327
g7
S't11'
p328
sg9
Nsg10
S'i27'
p329
sg12
Nsg13
Nsg14
(lp330
(i__main__
Token
p331
(dp332
g18
I123
sba(i__main__
Token
p333
(dp334
g18
I124
sba(i__main__
Token
p335
(dp336
g18
I125
sbasg19
I125
sba(i__main__
Mention
p337
(dp338
g7
S't11'
p339
sg9
S'Coreference-NounComplement'
p340
sg10
S'i28'
p341
sg12
S'i27'
p342
sg13
Nsg14
(lp343
(i__main__
Token
p344
(dp345
g18
I126
sba(i__main__
Token
p346
(dp347
g18
I127
sba(i__main__
Token
p348
(dp349
g18
I128
sba(i__main__
Token
p350
(dp351
g18
I129
sbasg19
I129
sbasg7
g328
sg29
Nsba.