(lp0
(i__main__
Chain
p1
(dp2
S'mentionList'
p3
(lp4
(i__main__
Mention
p5
(dp6
S'chainId'
p7
S't1'
p8
sS'relType'
p9
NsS'mentionId'
p10
S'i1'
p11
sS'antecedentId'
p12
NsS'crefMod'
p13
NsS'tokenList'
p14
(lp15
(i__main__
Token
p16
(dp17
S'tokenId'
p18
I0
sbasS'mentionHead'
p19
Nsba(i__main__
Mention
p20
(dp21
g7
S't1'
p22
sg9
Nsg10
S'i5'
p23
sg12
Nsg13
Nsg14
(lp24
(i__main__
Token
p25
(dp26
g18
I16
sbasg19
Nsba(i__main__
Mention
p27
(dp28
g7
S't1'
p29
sg9
Nsg10
S'i9'
p30
sg12
Nsg13
Nsg14
(lp31
(i__main__
Token
p32
(dp33
g18
I25
sbasg19
Nsba(i__main__
Mention
p34
(dp35
g7
S't1'
p36
sg9
Nsg10
S'i16'
p37
sg12
Nsg13
Nsg14
(lp38
(i__main__
Token
p39
(dp40
g18
I51
sbasg19
Nsba(i__main__
Mention
p41
(dp42
g7
S't1'
p43
sg9
Nsg10
S'i29'
p44
sg12
Nsg13
Nsg14
(lp45
(i__main__
Token
p46
(dp47
g18
I77
sbasg19
Nsba(i__main__
Mention
p48
(dp49
g7
S't1'
p50
sg9
Nsg10
S'i36'
p51
sg12
Nsg13
Nsg14
(lp52
(i__main__
Token
p53
(dp54
g18
I123
sbasg19
Nsbasg7
g8
sS'chainHead'
p55
Nsba(i__main__
Chain
p56
(dp57
g3
(lp58
(i__main__
Mention
p59
(dp60
g7
S't2'
p61
sg9
Nsg10
S'i2'
p62
sg12
Nsg13
Nsg14
(lp63
(i__main__
Token
p64
(dp65
g18
I0
sbasg19
Nsba(i__main__
Mention
p66
(dp67
g7
S't2'
p68
sg9
Nsg10
S'i6'
p69
sg12
Nsg13
Nsg14
(lp70
(i__main__
Token
p71
(dp72
g18
I16
sbasg19
Nsba(i__main__
Mention
p73
(dp74
g7
S't2'
p75
sg9
Nsg10
S'i10'
p76
sg12
Nsg13
Nsg14
(lp77
(i__main__
Token
p78
(dp79
g18
I25
sbasg19
Nsba(i__main__
Mention
p80
(dp81
g7
S't2'
p82
sg9
Nsg10
S'i15'
p83
sg12
Nsg13
Nsg14
(lp84
(i__main__
Token
p85
(dp86
g18
I51
sbasg19
Nsba(i__main__
Mention
p87
(dp88
g7
S't2'
p89
sg9
Nsg10
S'i28'
p90
sg12
Nsg13
Nsg14
(lp91
(i__main__
Token
p92
(dp93
g18
I77
sbasg19
Nsba(i__main__
Mention
p94
(dp95
g7
S't2'
p96
sg9
Nsg10
S'i37'
p97
sg12
Nsg13
Nsg14
(lp98
(i__main__
Token
p99
(dp100
g18
I123
sbasg19
Nsbasg7
g61
sg55
Nsba(i__main__
Chain
p101
(dp102
g3
(lp103
(i__main__
Mention
p104
(dp105
g7
S't3'
p106
sg9
S'anaphora-?'
p107
sg10
S'i3'
p108
sg12
S'i3'
p109
sg13
Nsg14
(lp110
(i__main__
Token
p111
(dp112
g18
I13
sbasg19
I13
sbasg7
g106
sg55
Nsba(i__main__
Chain
p113
(dp114
g3
(lp115
(i__main__
Mention
p116
(dp117
g7
S't4'
p118
sg9
S'anaphora-?'
p119
sg10
S'i4'
p120
sg12
S'i4'
p121
sg13
Nsg14
(lp122
(i__main__
Token
p123
(dp124
g18
I15
sbasg19
I15
sba(i__main__
Mention
p125
(dp126
g7
S't4'
p127
sg9
S'Anaphora-C'
p128
sg10
S'i7'
p129
sg12
S'i4'
p130
sg13
Nsg14
(lp131
(i__main__
Token
p132
(dp133
g18
I24
sbasg19
I24
sba(i__main__
Mention
p134
(dp135
g7
S't4'
p136
sg9
S'Anaphora-C'
p137
sg10
S'i13'
p138
sg12
S'i7'
p139
sg13
Nsg14
(lp140
(i__main__
Token
p141
(dp142
g18
I45
sbasg19
I45
sba(i__main__
Mention
p143
(dp144
g7
S't4'
p145
sg9
S'Anaphora-C'
p146
sg10
S'i34'
p147
sg12
S'i13'
p148
sg13
Nsg14
(lp149
(i__main__
Token
p150
(dp151
g18
I122
sbasg19
I122
sbasg7
g118
sg55
Nsba(i__main__
Chain
p152
(dp153
g3
(lp154
(i__main__
Mention
p155
(dp156
g7
S't5'
p157
sg9
Nsg10
S'i11'
p158
sg12
Nsg13
Nsg14
(lp159
(i__main__
Token
p160
(dp161
g18
I27
sba(i__main__
Token
p162
(dp163
g18
I28
sba(i__main__
Token
p164
(dp165
g18
I29
sbasg19
I29
sba(i__main__
Mention
p166
(dp167
g7
S't5'
p168
sg9
S'Anaphora-C'
p169
sg10
S'i12'
p170
sg12
S'i11'
p171
sg13
Nsg14
(lp172
(i__main__
Token
p173
(dp174
g18
I34
sbasg19
I34
sbasg7
g157
sg55
Nsba(i__main__
Chain
p175
(dp176
g3
(lp177
(i__main__
Mention
p178
(dp179
g7
S't6'
p180
sg9
Nsg10
S'i17'
p181
sg12
Nsg13
Nsg14
(lp182
(i__main__
Token
p183
(dp184
g18
I53
sba(i__main__
Token
p185
(dp186
g18
I54
sba(i__main__
Token
p187
(dp188
g18
I55
sba(i__main__
Token
p189
(dp190
g18
I56
sbasg19
I56
sba(i__main__
Mention
p191
(dp192
g7
S't6'
p193
sg9
S'Coreference-Identity'
p194
sg10
S'i30'
p195
sg12
S'i17'
p196
sg13
Nsg14
(lp197
(i__main__
Token
p198
(dp199
g18
I87
sba(i__main__
Token
p200
(dp201
g18
I88
sbasg19
I88
sba(i__main__
Mention
p202
(dp203
g7
S't6'
p204
sg9
S'Coreference-Identity'
p205
sg10
S'i32'
p206
sg12
S'i30'
p207
sg13
Nsg14
(lp208
(i__main__
Token
p209
(dp210
g18
I108
sbasg19
I108
sbasg7
g180
sg55
Nsba(i__main__
Chain
p211
(dp212
g3
(lp213
(i__main__
Mention
p214
(dp215
g7
S't7'
p216
sg9
Nsg10
S'i18'
p217
sg12
Nsg13
Nsg14
(lp218
(i__main__
Token
p219
(dp220
g18
I60
sbasg19
I60
sba(i__main__
Mention
p221
(dp222
g7
S't7'
p223
sg9
Nsg10
S'i23'
p224
sg12
Nsg13
Nsg14
(lp225
(i__main__
Token
p226
(dp227
g18
I73
sbasg19
Nsba(i__main__
Mention
p228
(dp229
g7
S't7'
p230
sg9
S'Coreference-PartOf'
p231
sg10
S'i33'
p232
sg12
S'i30'
p233
sg13
Nsg14
(lp234
(i__main__
Token
p235
(dp236
g18
I113
sbasg19
I113
sbasg7
g216
sg55
Nsba(i__main__
Chain
p237
(dp238
g3
(lp239
(i__main__
Mention
p240
(dp241
g7
S't8'
p242
sg9
Nsg10
S'i19'
p243
sg12
Nsg13
Nsg14
(lp244
(i__main__
Token
p245
(dp246
g18
I62
sbasg19
I62
sba(i__main__
Mention
p247
(dp248
g7
S't8'
p249
sg9
Nsg10
S'i24'
p250
sg12
Nsg13
Nsg14
(lp251
(i__main__
Token
p252
(dp253
g18
I73
sbasg19
Nsba(i__main__
Mention
p254
(dp255
g7
S't8'
p256
sg9
S'Coreference-PartOf'
p257
sg10
S'i31'
p258
sg12
S'i24'
p259
sg13
Nsg14
(lp260
(i__main__
Token
p261
(dp262
g18
I93
sba(i__main__
Token
p263
(dp264
g18
I94
sbasg19
I94
sbasg7
g242
sg55
Nsba(i__main__
Chain
p265
(dp266
g3
(lp267
(i__main__
Mention
p268
(dp269
g7
S't9'
p270
sg9
Nsg10
S'i20'
p271
sg12
Nsg13
Nsg14
(lp272
(i__main__
Token
p273
(dp274
g18
I64
sba(i__main__
Token
p275
(dp276
g18
I65
sbasg19
I65
sba(i__main__
Mention
p277
(dp278
g7
S't9'
p279
sg9
Nsg10
S'i25'
p280
sg12
Nsg13
Nsg14
(lp281
(i__main__
Token
p282
(dp283
g18
I73
sbasg19
Nsbasg7
g270
sg55
Nsba(i__main__
Chain
p284
(dp285
g3
(lp286
(i__main__
Mention
p287
(dp288
g7
S't10'
p289
sg9
Nsg10
S'i21'
p290
sg12
Nsg13
Nsg14
(lp291
(i__main__
Token
p292
(dp293
g18
I67
sbasg19
I67
sba(i__main__
Mention
p294
(dp295
g7
S't10'
p296
sg9
Nsg10
S'i26'
p297
sg12
Nsg13
Nsg14
(lp298
(i__main__
Token
p299
(dp300
g18
I73
sbasg19
Nsbasg7
g289
sg55
Nsba(i__main__
Chain
p301
(dp302
g3
(lp303
(i__main__
Mention
p304
(dp305
g7
S't11'
p306
sg9
Nsg10
S'i22'
p307
sg12
Nsg13
Nsg14
(lp308
(i__main__
Token
p309
(dp310
g18
I69
sba(i__main__
Token
p311
(dp312
g18
I70
sba(i__main__
Token
p313
(dp314
g18
I71
sbasg19
I71
sba(i__main__
Mention
p315
(dp316
g7
S't11'
p317
sg9
Nsg10
S'i27'
p318
sg12
Nsg13
Nsg14
(lp319
(i__main__
Token
p320
(dp321
g18
I73
sbasg19
Nsbasg7
g306
sg55
Nsba(i__main__
Chain
p322
(dp323
g3
(lp324
(i__main__
Mention
p325
(dp326
g7
S't12'
p327
sg9
S'anaphora-?'
p328
sg10
S'i38'
p329
sg12
S'i38'
p330
sg13
Nsg14
(lp331
(i__main__
Token
p332
(dp333
g18
I124
sbasg19
I124
sbasg7
g327
sg55
Nsba.