(lp0
(i__main__
Chain
p1
(dp2
S'mentionList'
p3
(lp4
(i__main__
Mention
p5
(dp6
S'chainId'
p7
S't1'
p8
sS'relType'
p9
NsS'mentionId'
p10
S'i1'
p11
sS'antecedentId'
p12
NsS'crefMod'
p13
NsS'tokenList'
p14
(lp15
(i__main__
Token
p16
(dp17
S'tokenId'
p18
I0
sbasS'mentionHead'
p19
I0
sba(i__main__
Mention
p20
(dp21
g7
S't1'
p22
sg9
S'Coreference-Identity'
p23
sg10
S'i16'
p24
sg12
S'i1'
p25
sg13
Nsg14
(lp26
(i__main__
Token
p27
(dp28
g18
I73
sbasg19
I73
sbasg7
g8
sS'chainHead'
p29
Nsba(i__main__
Chain
p30
(dp31
g3
(lp32
(i__main__
Mention
p33
(dp34
g7
S't2'
p35
sg9
Nsg10
S'i2'
p36
sg12
Nsg13
Nsg14
(lp37
(i__main__
Token
p38
(dp39
g18
I2
sbasg19
I2
sba(i__main__
Mention
p40
(dp41
g7
S't2'
p42
sg9
S'Coreference-NounComplement'
p43
sg10
S'i3'
p44
sg12
S'i2'
p45
sg13
Nsg14
(lp46
(i__main__
Token
p47
(dp48
g18
I3
sbasg19
I3
sba(i__main__
Mention
p49
(dp50
g7
S't2'
p51
sg9
S'Coreference-Noun-Noun'
p52
sg10
S'i17'
p53
sg12
S'i3'
p54
sg13
Nsg14
(lp55
(i__main__
Token
p56
(dp57
g18
I75
sbasg19
I75
sbasg7
g35
sg29
Nsba(i__main__
Chain
p58
(dp59
g3
(lp60
(i__main__
Mention
p61
(dp62
g7
S't3'
p63
sg9
Nsg10
S'i5'
p64
sg12
Nsg13
Nsg14
(lp65
(i__main__
Token
p66
(dp67
g18
I5
sba(i__main__
Token
p68
(dp69
g18
I6
sbasg19
I6
sba(i__main__
Mention
p70
(dp71
g7
S't3'
p72
sg9
S'Coreference-Identity'
p73
sg10
S'i28'
p74
sg12
S'i5'
p75
sg13
Nsg14
(lp76
(i__main__
Token
p77
(dp78
g18
I124
sbasg19
I124
sba(i__main__
Mention
p79
(dp80
g7
S't3'
p81
sg9
Nsg10
S'i33'
p82
sg12
Nsg13
Nsg14
(lp83
(i__main__
Token
p84
(dp85
g18
I142
sba(i__main__
Token
p86
(dp87
g18
I143
sbasg19
Nsba(i__main__
Mention
p88
(dp89
g7
S't3'
p90
sg9
Nsg10
S'i40'
p91
sg12
Nsg13
Nsg14
(lp92
(i__main__
Token
p93
(dp94
g18
I224
sba(i__main__
Token
p95
(dp96
g18
I225
sbasg19
Nsba(i__main__
Mention
p97
(dp98
g7
S't3'
p99
sg9
S'Coreference-Identity'
p100
sg10
S'i42'
p101
sg12
S'i40'
p102
sg13
Nsg14
(lp103
(i__main__
Token
p104
(dp105
g18
I241
sbasg19
I241
sbasg7
g63
sg29
Nsba(i__main__
Chain
p106
(dp107
g3
(lp108
(i__main__
Mention
p109
(dp110
g7
S't4'
p111
sg9
Nsg10
S'i6'
p112
sg12
Nsg13
Nsg14
(lp113
(i__main__
Token
p114
(dp115
g18
I8
sbasg19
Nsba(i__main__
Mention
p116
(dp117
g7
S't4'
p118
sg9
S'Coreference-PartOf'
p119
sg10
S'i14'
p120
sg12
S'i6'
p121
sg13
Nsg14
(lp122
(i__main__
Token
p123
(dp124
g18
I68
sba(i__main__
Token
p125
(dp126
g18
I69
sba(i__main__
Token
p127
(dp128
g18
I70
sbasg19
I70
sba(i__main__
Mention
p129
(dp130
g7
S't4'
p131
sg9
S'Coreference-NounComplement'
p132
sg10
S'i15'
p133
sg12
S'i14'
p134
sg13
Nsg14
(lp135
(i__main__
Token
p136
(dp137
g18
I71
sba(i__main__
Token
p138
(dp139
g18
I72
sbasg19
I72
sbasg7
g111
sg29
Nsba(i__main__
Chain
p140
(dp141
g3
(lp142
(i__main__
Mention
p143
(dp144
g7
S't5'
p145
sg9
Nsg10
S'i4'
p146
sg12
Nsg13
Nsg14
(lp147
(i__main__
Token
p148
(dp149
g18
I8
sbasg19
Nsba(i__main__
Mention
p150
(dp151
g7
S't5'
p152
sg9
S'Coreference-PartOf'
p153
sg10
S'i11'
p154
sg12
S'i4'
p155
sg13
Nsg14
(lp156
(i__main__
Token
p157
(dp158
g18
I61
sbasg19
I61
sba(i__main__
Mention
p159
(dp160
g7
S't5'
p161
sg9
S'Coreference-NounComplement'
p162
sg10
S'i12'
p163
sg12
S'i11'
p164
sg13
Nsg14
(lp165
(i__main__
Token
p166
(dp167
g18
I62
sba(i__main__
Token
p168
(dp169
g18
I63
sbasg19
I63
sbasg7
g145
sg29
Nsba(i__main__
Chain
p170
(dp171
g3
(lp172
(i__main__
Mention
p173
(dp174
g7
S't6'
p175
sg9
Nsg10
S'i7'
p176
sg12
Nsg13
Nsg14
(lp177
(i__main__
Token
p178
(dp179
g18
I10
sbasg19
I10
sba(i__main__
Mention
p180
(dp181
g7
S't6'
p182
sg9
Nsg10
S'i19'
p183
sg12
Nsg13
Nsg14
(lp184
(i__main__
Token
p185
(dp186
g18
I81
sbasg19
Nsbasg7
g175
sg29
Nsba(i__main__
Chain
p187
(dp188
g3
(lp189
(i__main__
Mention
p190
(dp191
g7
S't7'
p192
sg9
Nsg10
S'i8'
p193
sg12
Nsg13
Nsg14
(lp194
(i__main__
Token
p195
(dp196
g18
I17
sba(i__main__
Token
p197
(dp198
g18
I18
sbasg19
I18
sba(i__main__
Mention
p199
(dp200
g7
S't7'
p201
sg9
S'Coreference-Identity'
p202
sg10
S'i9'
p203
sg12
S'i8'
p204
sg13
Nsg14
(lp205
(i__main__
Token
p206
(dp207
g18
I28
sba(i__main__
Token
p208
(dp209
g18
I29
sbasg19
I29
sba(i__main__
Mention
p210
(dp211
g7
S't7'
p212
sg9
S'Coreference-Identity'
p213
sg10
S'i34'
p214
sg12
S'i9'
p215
sg13
Nsg14
(lp216
(i__main__
Token
p217
(dp218
g18
I152
sba(i__main__
Token
p219
(dp220
g18
I153
sba(i__main__
Token
p221
(dp222
g18
I154
sbasg19
I154
sba(i__main__
Mention
p223
(dp224
g7
S't7'
p225
sg9
S'Coreference-Identity'
p226
sg10
S'i35'
p227
sg12
S'i45'
p228
sg13
Nsg14
(lp229
(i__main__
Token
p230
(dp231
g18
I160
sba(i__main__
Token
p232
(dp233
g18
I161
sbasg19
I161
sba(i__main__
Mention
p234
(dp235
g7
S't7'
p236
sg9
S'Anaphora-C'
p237
sg10
S'i36'
p238
sg12
S'i35'
p239
sg13
Nsg14
(lp240
(i__main__
Token
p241
(dp242
g18
I170
sbasg19
I170
sba(i__main__
Mention
p243
(dp244
g7
S't7'
p245
sg9
S'Coreference-Identity'
p246
sg10
S'i41'
p247
sg12
S'i48'
p248
sg13
Nsg14
(lp249
(i__main__
Token
p250
(dp251
g18
I229
sba(i__main__
Token
p252
(dp253
g18
I230
sbasg19
I230
sba(i__main__
Mention
p254
(dp255
g7
S't7'
p256
sg9
S'Coreference-Identity'
p257
sg10
S'i45'
p258
sg12
S'i41'
p259
sg13
Nsg14
(lp260
(i__main__
Token
p261
(dp262
g18
I264
sbasg19
I264
sbasg7
g192
sg29
Nsba(i__main__
Chain
p263
(dp264
g3
(lp265
(i__main__
Mention
p266
(dp267
g7
S't8'
p268
sg9
Nsg10
S'i10'
p269
sg12
Nsg13
Nsg14
(lp270
(i__main__
Token
p271
(dp272
g18
I47
sba(i__main__
Token
p273
(dp274
g18
I48
sba(i__main__
Token
p275
(dp276
g18
I49
sbasg19
I49
sba(i__main__
Mention
p277
(dp278
g7
S't8'
p279
sg9
S'Coreference-Identity'
p280
sg10
S'i37'
p281
sg12
S'i10'
p282
sg13
Nsg14
(lp283
(i__main__
Token
p284
(dp285
g18
I205
sbasg19
I205
sbasg7
g268
sg29
Nsba(i__main__
Chain
p286
(dp287
g3
(lp288
(i__main__
Mention
p289
(dp290
g7
S't9'
p291
sg9
Nsg10
S'i13'
p292
sg12
Nsg13
Nsg14
(lp293
(i__main__
Token
p294
(dp295
g18
I65
sba(i__main__
Token
p296
(dp297
g18
I66
sbasg19
I66
sba(i__main__
Mention
p298
(dp299
g7
S't9'
p300
sg9
S'Coreference-Identity'
p301
sg10
S'i38'
p302
sg12
S'i13'
p303
sg13
Nsg14
(lp304
(i__main__
Token
p305
(dp306
g18
I216
sba(i__main__
Token
p307
(dp308
g18
I217
sbasg19
I217
sbasg7
g291
sg29
Nsba(i__main__
Chain
p309
(dp310
g3
(lp311
(i__main__
Mention
p312
(dp313
g7
S't10'
p314
sg9
Nsg10
S'i18'
p315
sg12
Nsg13
Nsg14
(lp316
(i__main__
Token
p317
(dp318
g18
I77
sba(i__main__
Token
p319
(dp320
g18
I78
sba(i__main__
Token
p321
(dp322
g18
I79
sba(i__main__
Token
p323
(dp324
g18
I80
sba(i__main__
Token
p325
(dp326
g18
I81
sbasg19
Nsba(i__main__
Mention
p327
(dp328
g7
S't10'
p329
sg9
S'Coreference-Bracketed/Abbraviation'
p330
sg10
S'i20'
p331
sg12
S'i18'
p332
sg13
Nsg14
(lp333
(i__main__
Token
p334
(dp335
g18
I83
sba(i__main__
Token
p336
(dp337
g18
I84
sba(i__main__
Token
p338
(dp339
g18
I85
sbasg19
I85
sba(i__main__
Mention
p340
(dp341
g7
S't10'
p342
sg9
S'Coreference-Identity'
p343
sg10
S'i21'
p344
sg12
S'i20'
p345
sg13
Nsg14
(lp346
(i__main__
Token
p347
(dp348
g18
I99
sba(i__main__
Token
p349
(dp350
g18
I100
sba(i__main__
Token
p351
(dp352
g18
I101
sbasg19
I101
sba(i__main__
Mention
p353
(dp354
g7
S't10'
p355
sg9
S'Coreference-Identity'
p356
sg10
S'i27'
p357
sg12
S'i21'
p358
sg13
Nsg14
(lp359
(i__main__
Token
p360
(dp361
g18
I120
sba(i__main__
Token
p362
(dp363
g18
I121
sba(i__main__
Token
p364
(dp365
g18
I122
sbasg19
I122
sba(i__main__
Mention
p366
(dp367
g7
S't10'
p368
sg9
Nsg10
S'i32'
p369
sg12
Nsg13
Nsg14
(lp370
(i__main__
Token
p371
(dp372
g18
I142
sba(i__main__
Token
p373
(dp374
g18
I143
sbasg19
Nsba(i__main__
Mention
p375
(dp376
g7
S't10'
p377
sg9
Nsg10
S'i39'
p378
sg12
Nsg13
Nsg14
(lp379
(i__main__
Token
p380
(dp381
g18
I224
sba(i__main__
Token
p382
(dp383
g18
I225
sbasg19
Nsba(i__main__
Mention
p384
(dp385
g7
S't10'
p386
sg9
S'Coreference-Identity'
p387
sg10
S'i43'
p388
sg12
S'i39'
p389
sg13
Nsg14
(lp390
(i__main__
Token
p391
(dp392
g18
I243
sba(i__main__
Token
p393
(dp394
g18
I244
sba(i__main__
Token
p395
(dp396
g18
I245
sbasg19
I245
sba(i__main__
Mention
p397
(dp398
g7
S't10'
p399
sg9
S'Coreference-Identity'
p400
sg10
S'i46'
p401
sg12
S'i43'
p402
sg13
Nsg14
(lp403
(i__main__
Token
p404
(dp405
g18
I268
sba(i__main__
Token
p406
(dp407
g18
I269
sba(i__main__
Token
p408
(dp409
g18
I270
sbasg19
I270
sbasg7
g314
sg29
Nsba(i__main__
Chain
p410
(dp411
g3
(lp412
(i__main__
Mention
p413
(dp414
g7
S't11'
p415
sg9
Nsg10
S'i22'
p416
sg12
Nsg13
Nsg14
(lp417
(i__main__
Token
p418
(dp419
g18
I106
sba(i__main__
Token
p420
(dp421
g18
I107
sbasg19
Nsba(i__main__
Mention
p422
(dp423
g7
S't11'
p424
sg9
S'Coreference-NounComplement'
p425
sg10
S'i24'
p426
sg12
S'i22'
p427
sg13
Nsg14
(lp428
(i__main__
Token
p429
(dp430
g18
I108
sba(i__main__
Token
p431
(dp432
g18
I109
sba(i__main__
Token
p433
(dp434
g18
I110
sbasg19
I110
sbasg7
g415
sg29
Nsba(i__main__
Chain
p435
(dp436
g3
(lp437
(i__main__
Mention
p438
(dp439
g7
S't12'
p440
sg9
Nsg10
S'i23'
p441
sg12
Nsg13
Nsg14
(lp442
(i__main__
Token
p443
(dp444
g18
I106
sba(i__main__
Token
p445
(dp446
g18
I107
sbasg19
Nsba(i__main__
Mention
p447
(dp448
g7
S't12'
p449
sg9
S'Coreference-NounComplement'
p450
sg10
S'i25'
p451
sg12
S'i23'
p452
sg13
Nsg14
(lp453
(i__main__
Token
p454
(dp455
g18
I112
sba(i__main__
Token
p456
(dp457
g18
I113
sbasg19
I113
sbasg7
g440
sg29
Nsba(i__main__
Chain
p458
(dp459
g3
(lp460
(i__main__
Mention
p461
(dp462
g7
S't13'
p463
sg9
Nsg10
S'i26'
p464
sg12
Nsg13
Nsg14
(lp465
(i__main__
Token
p466
(dp467
g18
I118
sbasg19
I118
sba(i__main__
Mention
p468
(dp469
g7
S't13'
p470
sg9
S'Anaphora-T'
p471
sg10
S'i30'
p472
sg12
S'i26'
p473
sg13
Nsg14
(lp474
(i__main__
Token
p475
(dp476
g18
I138
sbasg19
I138
sbasg7
g463
sg29
Nsba(i__main__
Chain
p477
(dp478
g3
(lp479
(i__main__
Mention
p480
(dp481
g7
S't14'
p482
sg9
Nsg10
S'i29'
p483
sg12
Nsg13
Nsg14
(lp484
(i__main__
Token
p485
(dp486
g18
I127
sba(i__main__
Token
p487
(dp488
g18
I128
sbasg19
I128
sba(i__main__
Mention
p489
(dp490
g7
S't14'
p491
sg9
S'Coreference-Identity'
p492
sg10
S'i44'
p493
sg12
S'i29'
p494
sg13
Nsg14
(lp495
(i__main__
Token
p496
(dp497
g18
I249
sba(i__main__
Token
p498
(dp499
g18
I250
sbasg19
I250
sba(i__main__
Mention
p500
(dp501
g7
S't14'
p502
sg9
S'Coreference-Identity'
p503
sg10
S'i47'
p504
sg12
S'i44'
p505
sg13
Nsg14
(lp506
(i__main__
Token
p507
(dp508
g18
I272
sba(i__main__
Token
p509
(dp510
g18
I273
sbasg19
I273
sbasg7
g482
sg29
Nsba(i__main__
Chain
p511
(dp512
g3
(lp513
(i__main__
Mention
p514
(dp515
g7
S't15'
p516
sg9
S'anaphora-?'
p517
sg10
S'i31'
p518
sg12
S'i31'
p519
sg13
Nsg14
(lp520
(i__main__
Token
p521
(dp522
g18
I140
sbasg19
I140
sbasg7
g516
sg29
Nsba.