(lp0
(i__main__
Chain
p1
(dp2
S'mentionList'
p3
(lp4
(i__main__
Mention
p5
(dp6
S'chainId'
p7
S't1'
p8
sS'relType'
p9
NsS'mentionId'
p10
S'i1'
p11
sS'antecedentId'
p12
NsS'crefMod'
p13
NsS'tokenList'
p14
(lp15
(i__main__
Token
p16
(dp17
S'tokenId'
p18
I0
sba(i__main__
Token
p19
(dp20
g18
I1
sba(i__main__
Token
p21
(dp22
g18
I2
sba(i__main__
Token
p23
(dp24
g18
I3
sbasS'mentionHead'
p25
I3
sba(i__main__
Mention
p26
(dp27
g7
S't1'
p28
sg9
S'Coreference-Bracketed/Abbraviation'
p29
sg10
S'i3'
p30
sg12
S'i1'
p31
sg13
Nsg14
(lp32
(i__main__
Token
p33
(dp34
g18
I5
sbasg25
I5
sba(i__main__
Mention
p35
(dp36
g7
S't1'
p37
sg9
S'Coreference-Identity'
p38
sg10
S'i7'
p39
sg12
S'i3'
p40
sg13
Nsg14
(lp41
(i__main__
Token
p42
(dp43
g18
I28
sbasg25
I28
sba(i__main__
Mention
p44
(dp45
g7
S't1'
p46
sg9
S'Coreference-Identity'
p47
sg10
S'i45'
p48
sg12
S'i7'
p49
sg13
Nsg14
(lp50
(i__main__
Token
p51
(dp52
g18
I239
sbasg25
I239
sba(i__main__
Mention
p53
(dp54
g7
S't1'
p55
sg9
S'Coreference-Noun-Noun'
p56
sg10
S'i48'
p57
sg12
S'i45'
p58
sg13
Nsg14
(lp59
(i__main__
Token
p60
(dp61
g18
I248
sba(i__main__
Token
p62
(dp63
g18
I249
sbasg25
I249
sbasg7
g8
sS'chainHead'
p64
Nsba(i__main__
Chain
p65
(dp66
g3
(lp67
(i__main__
Mention
p68
(dp69
g7
S't2'
p70
sg9
Nsg10
S'i2'
p71
sg12
Nsg13
Nsg14
(lp72
(i__main__
Token
p73
(dp74
g18
I10
sbasg25
I10
sba(i__main__
Mention
p75
(dp76
g7
S't2'
p77
sg9
S'Anaphora-C'
p78
sg10
S'i8'
p79
sg12
S'i2'
p80
sg13
Nsg14
(lp81
(i__main__
Token
p82
(dp83
g18
I41
sbasg25
I41
sbasg7
g70
sg64
Nsba(i__main__
Chain
p84
(dp85
g3
(lp86
(i__main__
Mention
p87
(dp88
g7
S't3'
p89
sg9
Nsg10
S'i4'
p90
sg12
Nsg13
Nsg14
(lp91
(i__main__
Token
p92
(dp93
g18
I19
sbasg25
I19
sba(i__main__
Mention
p94
(dp95
g7
S't3'
p96
sg9
S'Anaphora-E'
p97
sg10
S'i6'
p98
sg12
S'i4'
p99
sg13
Nsg14
(lp100
(i__main__
Token
p101
(dp102
g18
I25
sba(i__main__
Token
p103
(dp104
g18
I26
sba(i__main__
Token
p105
(dp106
g18
I27
sba(i__main__
Token
p107
(dp108
g18
I28
sba(i__main__
Token
p109
(dp110
g18
I29
sba(i__main__
Token
p111
(dp112
g18
I30
sba(i__main__
Token
p113
(dp114
g18
I31
sba(i__main__
Token
p115
(dp116
g18
I32
sba(i__main__
Token
p117
(dp118
g18
I33
sba(i__main__
Token
p119
(dp120
g18
I34
sba(i__main__
Token
p121
(dp122
g18
I35
sba(i__main__
Token
p123
(dp124
g18
I36
sba(i__main__
Token
p125
(dp126
g18
I37
sba(i__main__
Token
p127
(dp128
g18
I38
sba(i__main__
Token
p129
(dp130
g18
I39
sba(i__main__
Token
p131
(dp132
g18
I40
sba(i__main__
Token
p133
(dp134
g18
I41
sba(i__main__
Token
p135
(dp136
g18
I42
sba(i__main__
Token
p137
(dp138
g18
I43
sba(i__main__
Token
p139
(dp140
g18
I44
sba(i__main__
Token
p141
(dp142
g18
I45
sbasg25
I43
sbasg7
g89
sg64
Nsba(i__main__
Chain
p143
(dp144
g3
(lp145
(i__main__
Mention
p146
(dp147
g7
S't4'
p148
sg9
Nsg10
S'i5'
p149
sg12
Nsg13
Nsg14
(lp150
(i__main__
Token
p151
(dp152
g18
I25
sba(i__main__
Token
p153
(dp154
g18
I26
sbasg25
I26
sba(i__main__
Mention
p155
(dp156
g7
S't4'
p157
sg9
Nsg10
S'i40'
p158
sg12
Nsg13
Nsg14
(lp159
(i__main__
Token
p160
(dp161
g18
I213
sba(i__main__
Token
p162
(dp163
g18
I214
sbasg25
Nsba(i__main__
Mention
p164
(dp165
g7
S't4'
p166
sg9
S'Coreference-Noun-Noun'
p167
sg10
S'i42'
p168
sg12
S'i40'
p169
sg13
Nsg14
(lp170
(i__main__
Token
p171
(dp172
g18
I229
sba(i__main__
Token
p173
(dp174
g18
I230
sbasg25
I230
sba(i__main__
Mention
p175
(dp176
g7
S't4'
p177
sg9
S'Coreference-Noun-Noun'
p178
sg10
S'i49'
p179
sg12
S'i42'
p180
sg13
Nsg14
(lp181
(i__main__
Token
p182
(dp183
g18
I257
sbasg25
I257
sba(i__main__
Mention
p184
(dp185
g7
S't4'
p186
sg9
S'Anaphora-C'
p187
sg10
S'i51'
p188
sg12
S'i49'
p189
sg13
Nsg14
(lp190
(i__main__
Token
p191
(dp192
g18
I270
sbasg25
I270
sbasg7
g148
sg64
Nsba(i__main__
Chain
p193
(dp194
g3
(lp195
(i__main__
Mention
p196
(dp197
g7
S't5'
p198
sg9
Nsg10
S'i9'
p199
sg12
Nsg13
Nsg14
(lp200
(i__main__
Token
p201
(dp202
g18
I53
sbasg25
I53
sba(i__main__
Mention
p203
(dp204
g7
S't5'
p205
sg9
S'Coreference-NounComplement'
p206
sg10
S'i10'
p207
sg12
S'i9'
p208
sg13
Nsg14
(lp209
(i__main__
Token
p210
(dp211
g18
I54
sba(i__main__
Token
p212
(dp213
g18
I55
sbasg25
I55
sbasg7
g198
sg64
Nsba(i__main__
Chain
p214
(dp215
g3
(lp216
(i__main__
Mention
p217
(dp218
g7
S't6'
p219
sg9
Nsg10
S'i11'
p220
sg12
Nsg13
Nsg14
(lp221
(i__main__
Token
p222
(dp223
g18
I61
sbasg25
I61
sba(i__main__
Mention
p224
(dp225
g7
S't6'
p226
sg9
S'Coreference-Identity'
p227
sg10
S'i15'
p228
sg12
S'i11'
p229
sg13
Nsg14
(lp230
(i__main__
Token
p231
(dp232
g18
I93
sbasg25
I93
sba(i__main__
Mention
p233
(dp234
g7
S't6'
p235
sg9
S'Coreference-Identity'
p236
sg10
S'i23'
p237
sg12
S'i15'
p238
sg13
Nsg14
(lp239
(i__main__
Token
p240
(dp241
g18
I148
sbasg25
I148
sba(i__main__
Mention
p242
(dp243
g7
S't6'
p244
sg9
S'Coreference-Identity'
p245
sg10
S'i28'
p246
sg12
S'i23'
p247
sg13
Nsg14
(lp248
(i__main__
Token
p249
(dp250
g18
I174
sbasg25
I174
sba(i__main__
Mention
p251
(dp252
g7
S't6'
p253
sg9
S'Coreference-Identity'
p254
sg10
S'i36'
p255
sg12
S'i28'
p256
sg13
Nsg14
(lp257
(i__main__
Token
p258
(dp259
g18
I193
sbasg25
I193
sba(i__main__
Mention
p260
(dp261
g7
S't6'
p262
sg9
S'Coreference-Identity'
p263
sg10
S'i38'
p264
sg12
S'i36'
p265
sg13
Nsg14
(lp266
(i__main__
Token
p267
(dp268
g18
I210
sbasg25
I210
sbasg7
g219
sg64
Nsba(i__main__
Chain
p269
(dp270
g3
(lp271
(i__main__
Mention
p272
(dp273
g7
S't7'
p274
sg9
Nsg10
S'i12'
p275
sg12
Nsg13
Nsg14
(lp276
(i__main__
Token
p277
(dp278
g18
I63
sbasg25
I63
sbasg7
g274
sg64
Nsba(i__main__
Chain
p279
(dp280
g3
(lp281
(i__main__
Mention
p282
(dp283
g7
S't8'
p284
sg9
Nsg10
S'i13'
p285
sg12
Nsg13
Nsg14
(lp286
(i__main__
Token
p287
(dp288
g18
I73
sbasg25
I73
sbasg7
g284
sg64
Nsba(i__main__
Chain
p289
(dp290
g3
(lp291
(i__main__
Mention
p292
(dp293
g7
S't9'
p294
sg9
Nsg10
S'i14'
p295
sg12
Nsg13
Nsg14
(lp296
(i__main__
Token
p297
(dp298
g18
I77
sbasg25
I77
sbasg7
g294
sg64
Nsba(i__main__
Chain
p299
(dp300
g3
(lp301
(i__main__
Mention
p302
(dp303
g7
S't10'
p304
sg9
Nsg10
S'i16'
p305
sg12
Nsg13
Nsg14
(lp306
(i__main__
Token
p307
(dp308
g18
I93
sba(i__main__
Token
p309
(dp310
g18
I94
sbasg25
I94
sba(i__main__
Mention
p311
(dp312
g7
S't10'
p313
sg9
S'Anaphora-C'
p314
sg10
S'i17'
p315
sg12
S'i16'
p316
sg13
Nsg14
(lp317
(i__main__
Token
p318
(dp319
g18
I96
sbasg25
I96
sba(i__main__
Mention
p320
(dp321
g7
S't10'
p322
sg9
Nsg10
S'i32'
p323
sg12
Nsg13
Nsg14
(lp324
(i__main__
Token
p325
(dp326
g18
I177
sba(i__main__
Token
p327
(dp328
g18
I178
sbasg25
Nsba(i__main__
Mention
p329
(dp330
g7
S't10'
p331
sg9
Nsg10
S'i35'
p332
sg12
Nsg13
Nsg14
(lp333
(i__main__
Token
p334
(dp335
g18
I179
sbasg25
Nsbasg7
g304
sg64
Nsba(i__main__
Chain
p336
(dp337
g3
(lp338
(i__main__
Mention
p339
(dp340
g7
S't11'
p341
sg9
Nsg10
S'i18'
p342
sg12
Nsg13
Nsg14
(lp343
(i__main__
Token
p344
(dp345
g18
I101
sba(i__main__
Token
p346
(dp347
g18
I102
sba(i__main__
Token
p348
(dp349
g18
I103
sba(i__main__
Token
p350
(dp351
g18
I104
sbasg25
I104
sba(i__main__
Mention
p352
(dp353
g7
S't11'
p354
sg9
S'Anaphora-C'
p355
sg10
S'i19'
p356
sg12
S'i18'
p357
sg13
Nsg14
(lp358
(i__main__
Token
p359
(dp360
g18
I110
sbasg25
I110
sbasg7
g341
sg64
Nsba(i__main__
Chain
p361
(dp362
g3
(lp363
(i__main__
Mention
p364
(dp365
g7
S't12'
p366
sg9
Nsg10
S'i20'
p367
sg12
Nsg13
Nsg14
(lp368
(i__main__
Token
p369
(dp370
g18
I115
sbasg25
I115
sbasg7
g366
sg64
Nsba(i__main__
Chain
p371
(dp372
g3
(lp373
(i__main__
Mention
p374
(dp375
g7
S't13'
p376
sg9
Nsg10
S'i21'
p377
sg12
Nsg13
Nsg14
(lp378
(i__main__
Token
p379
(dp380
g18
I143
sba(i__main__
Token
p381
(dp382
g18
I144
sbasg25
I144
sba(i__main__
Mention
p383
(dp384
g7
S't13'
p385
sg9
Nsg10
S'i41'
p386
sg12
Nsg13
Nsg14
(lp387
(i__main__
Token
p388
(dp389
g18
I213
sba(i__main__
Token
p390
(dp391
g18
I214
sbasg25
Nsba(i__main__
Mention
p392
(dp393
g7
S't13'
p394
sg9
S'Coreference-Identity'
p395
sg10
S'i43'
p396
sg12
S'i41'
p397
sg13
Nsg14
(lp398
(i__main__
Token
p399
(dp400
g18
I232
sba(i__main__
Token
p401
(dp402
g18
I233
sbasg25
I233
sbasg7
g376
sg64
Nsba(i__main__
Chain
p403
(dp404
g3
(lp405
(i__main__
Mention
p406
(dp407
g7
S't14'
p408
sg9
Nsg10
S'i22'
p409
sg12
Nsg13
Nsg14
(lp410
(i__main__
Token
p411
(dp412
g18
I148
sba(i__main__
Token
p413
(dp414
g18
I149
sba(i__main__
Token
p415
(dp416
g18
I150
sbasg25
I150
sba(i__main__
Mention
p417
(dp418
g7
S't14'
p419
sg9
S'Coreference-Bracketed/Abbraviation'
p420
sg10
S'i25'
p421
sg12
S'i22'
p422
sg13
Nsg14
(lp423
(i__main__
Token
p424
(dp425
g18
I152
sbasg25
I152
sbasg7
g408
sg64
Nsba(i__main__
Chain
p426
(dp427
g3
(lp428
(i__main__
Mention
p429
(dp430
g7
S't15'
p431
sg9
Nsg10
S'i24'
p432
sg12
Nsg13
Nsg14
(lp433
(i__main__
Token
p434
(dp435
g18
I160
sbasg25
I160
sba(i__main__
Mention
p436
(dp437
g7
S't15'
p438
sg9
S'Anaphora-C'
p439
sg10
S'i26'
p440
sg12
S'i24'
p441
sg13
Nsg14
(lp442
(i__main__
Token
p443
(dp444
g18
I162
sbasg25
I162
sba(i__main__
Mention
p445
(dp446
g7
S't15'
p447
sg9
S'Anaphora-C'
p448
sg10
S'i27'
p449
sg12
S'i26'
p450
sg13
Nsg14
(lp451
(i__main__
Token
p452
(dp453
g18
I172
sbasg25
I172
sbasg7
g431
sg64
Nsba(i__main__
Chain
p454
(dp455
g3
(lp456
(i__main__
Mention
p457
(dp458
g7
S't16'
p459
sg9
Nsg10
S'i29'
p460
sg12
Nsg13
Nsg14
(lp461
(i__main__
Token
p462
(dp463
g18
I174
sba(i__main__
Token
p464
(dp465
g18
I175
sbasg25
I175
sba(i__main__
Mention
p466
(dp467
g7
S't16'
p468
sg9
S'Anaphora-C'
p469
sg10
S'i39'
p470
sg12
S'i29'
p471
sg13
Nsg14
(lp472
(i__main__
Token
p473
(dp474
g18
I210
sba(i__main__
Token
p475
(dp476
g18
I211
sbasg25
I211
sbasg7
g459
sg64
Nsba(i__main__
Chain
p477
(dp478
g3
(lp479
(i__main__
Mention
p480
(dp481
g7
S't17'
p482
sg9
Nsg10
S'i30'
p483
sg12
Nsg13
Nsg14
(lp484
(i__main__
Token
p485
(dp486
g18
I177
sba(i__main__
Token
p487
(dp488
g18
I178
sbasg25
Nsba(i__main__
Mention
p489
(dp490
g7
S't17'
p491
sg9
Nsg10
S'i34'
p492
sg12
Nsg13
Nsg14
(lp493
(i__main__
Token
p494
(dp495
g18
I179
sbasg25
Nsba(i__main__
Mention
p496
(dp497
g7
S't17'
p498
sg9
S'Coreference-PartOf'
p499
sg10
S'i37'
p500
sg12
S'i34'
p501
sg13
Nsg14
(lp502
(i__main__
Token
p503
(dp504
g18
I193
sba(i__main__
Token
p505
(dp506
g18
I194
sbasg25
I194
sbasg7
g482
sg64
Nsba(i__main__
Chain
p507
(dp508
g3
(lp509
(i__main__
Mention
p510
(dp511
g7
S't18'
p512
sg9
Nsg10
S'i31'
p513
sg12
Nsg13
Nsg14
(lp514
(i__main__
Token
p515
(dp516
g18
I177
sba(i__main__
Token
p517
(dp518
g18
I178
sbasg25
Nsba(i__main__
Mention
p519
(dp520
g7
S't18'
p521
sg9
Nsg10
S'i33'
p522
sg12
Nsg13
Nsg14
(lp523
(i__main__
Token
p524
(dp525
g18
I179
sbasg25
Nsbasg7
g512
sg64
Nsba(i__main__
Chain
p526
(dp527
g3
(lp528
(i__main__
Mention
p529
(dp530
g7
S't19'
p531
sg9
Nsg10
S'i44'
p532
sg12
Nsg13
Nsg14
(lp533
(i__main__
Token
p534
(dp535
g18
I235
sba(i__main__
Token
p536
(dp537
g18
I236
sba(i__main__
Token
p538
(dp539
g18
I237
sbasg25
I237
sba(i__main__
Mention
p540
(dp541
g7
S't19'
p542
sg9
S'Coreference-Noun-Noun'
p543
sg10
S'i46'
p544
sg12
S'i44'
p545
sg13
Nsg14
(lp546
(i__main__
Token
p547
(dp548
g18
I239
sba(i__main__
Token
p549
(dp550
g18
I240
sba(i__main__
Token
p551
(dp552
g18
I241
sbasg25
I241
sba(i__main__
Mention
p553
(dp554
g7
S't19'
p555
sg9
S'Coreference-NounComplement'
p556
sg10
S'i47'
p557
sg12
S'i46'
p558
sg13
Nsg14
(lp559
(i__main__
Token
p560
(dp561
g18
I242
sba(i__main__
Token
p562
(dp563
g18
I243
sbasg25
I243
sba(i__main__
Mention
p564
(dp565
g7
S't19'
p566
sg9
S'Coreference-Identity'
p567
sg10
S'i50'
p568
sg12
S'i47'
p569
sg13
Nsg14
(lp570
(i__main__
Token
p571
(dp572
g18
I259
sbasg25
I259
sbasg7
g531
sg64
Nsba.