(lp0
(i__main__
Chain
p1
(dp2
S'mentionList'
p3
(lp4
(i__main__
Mention
p5
(dp6
S'chainId'
p7
S't1'
p8
sS'relType'
p9
NsS'mentionId'
p10
S'i1'
p11
sS'antecedentId'
p12
NsS'crefMod'
p13
NsS'tokenList'
p14
(lp15
(i__main__
Token
p16
(dp17
S'tokenId'
p18
I4
sba(i__main__
Token
p19
(dp20
g18
I5
sba(i__main__
Token
p21
(dp22
g18
I6
sba(i__main__
Token
p23
(dp24
g18
I7
sbasS'mentionHead'
p25
I7
sba(i__main__
Mention
p26
(dp27
g7
S't1'
p28
sg9
S'Coreference-RPartOf'
p29
sg10
S'i34'
p30
sg12
S'i1'
p31
sg13
Nsg14
(lp32
(i__main__
Token
p33
(dp34
g18
I214
sba(i__main__
Token
p35
(dp36
g18
I215
sba(i__main__
Token
p37
(dp38
g18
I216
sbasg25
I216
sbasg7
g8
sS'chainHead'
p39
Nsba(i__main__
Chain
p40
(dp41
g3
(lp42
(i__main__
Mention
p43
(dp44
g7
S't2'
p45
sg9
Nsg10
S'i2'
p46
sg12
Nsg13
Nsg14
(lp47
(i__main__
Token
p48
(dp49
g18
I17
sbasg25
I17
sba(i__main__
Mention
p50
(dp51
g7
S't2'
p52
sg9
S'Coreference-NounComplement'
p53
sg10
S'i3'
p54
sg12
S'i2'
p55
sg13
Nsg14
(lp56
(i__main__
Token
p57
(dp58
g18
I18
sbasg25
I18
sba(i__main__
Mention
p59
(dp60
g7
S't2'
p61
sg9
S'Coreference-PartOf'
p62
sg10
S'i9'
p63
sg12
S'i3'
p64
sg13
Nsg14
(lp65
(i__main__
Token
p66
(dp67
g18
I55
sba(i__main__
Token
p68
(dp69
g18
I56
sbasg25
I56
sba(i__main__
Mention
p70
(dp71
g7
S't2'
p72
sg9
S'Coreference-RPartOf'
p73
sg10
S'i11'
p74
sg12
S'i9'
p75
sg13
Nsg14
(lp76
(i__main__
Token
p77
(dp78
g18
I83
sbasg25
I83
sba(i__main__
Mention
p79
(dp80
g7
S't2'
p81
sg9
S'Coreference-Identity'
p82
sg10
S'i22'
p83
sg12
S'i11'
p84
sg13
Nsg14
(lp85
(i__main__
Token
p86
(dp87
g18
I134
sbasg25
I134
sbasg7
g45
sg39
Nsba(i__main__
Chain
p88
(dp89
g3
(lp90
(i__main__
Mention
p91
(dp92
g7
S't3'
p93
sg9
Nsg10
S'i4'
p94
sg12
Nsg13
Nsg14
(lp95
(i__main__
Token
p96
(dp97
g18
I25
sba(i__main__
Token
p98
(dp99
g18
I26
sba(i__main__
Token
p100
(dp101
g18
I27
sbasg25
I27
sba(i__main__
Mention
p102
(dp103
g7
S't3'
p104
sg9
S'Anaphora-C'
p105
sg10
S'i5'
p106
sg12
S'i4'
p107
sg13
Nsg14
(lp108
(i__main__
Token
p109
(dp110
g18
I35
sbasg25
I35
sba(i__main__
Mention
p111
(dp112
g7
S't3'
p113
sg9
S'Anaphora-C'
p114
sg10
S'i6'
p115
sg12
S'i5'
p116
sg13
Nsg14
(lp117
(i__main__
Token
p118
(dp119
g18
I36
sbasg25
I36
sbasg7
g93
sg39
Nsba(i__main__
Chain
p120
(dp121
g3
(lp122
(i__main__
Mention
p123
(dp124
g7
S't4'
p125
sg9
Nsg10
S'i7'
p126
sg12
Nsg13
Nsg14
(lp127
(i__main__
Token
p128
(dp129
g18
I49
sbasg25
I49
sba(i__main__
Mention
p130
(dp131
g7
S't4'
p132
sg9
S'Coreference-NounComplement'
p133
sg10
S'i8'
p134
sg12
S'i7'
p135
sg13
Nsg14
(lp136
(i__main__
Token
p137
(dp138
g18
I50
sba(i__main__
Token
p139
(dp140
g18
I51
sba(i__main__
Token
p141
(dp142
g18
I52
sba(i__main__
Token
p143
(dp144
g18
I53
sbasg25
I53
sba(i__main__
Mention
p145
(dp146
g7
S't4'
p147
sg9
S'Anaphora-C'
p148
sg10
S'i10'
p149
sg12
S'i8'
p150
sg13
Nsg14
(lp151
(i__main__
Token
p152
(dp153
g18
I72
sbasg25
I72
sbasg7
g125
sg39
Nsba(i__main__
Chain
p154
(dp155
g3
(lp156
(i__main__
Mention
p157
(dp158
g7
S't5'
p159
sg9
Nsg10
S'i12'
p160
sg12
Nsg13
Nsg14
(lp161
(i__main__
Token
p162
(dp163
g18
I85
sba(i__main__
Token
p164
(dp165
g18
I86
sbasg25
I86
sba(i__main__
Mention
p166
(dp167
g7
S't5'
p168
sg9
Nsg10
S'i17'
p169
sg12
Nsg13
Nsg14
(lp170
(i__main__
Token
p171
(dp172
g18
I109
sbasg25
Nsba(i__main__
Mention
p173
(dp174
g7
S't5'
p175
sg9
Nsg10
S'i36'
p176
sg12
Nsg13
Nsg14
(lp177
(i__main__
Token
p178
(dp179
g18
I218
sba(i__main__
Token
p180
(dp181
g18
I219
sbasg25
Nsbasg7
g159
sg39
Nsba(i__main__
Chain
p182
(dp183
g3
(lp184
(i__main__
Mention
p185
(dp186
g7
S't6'
p187
sg9
Nsg10
S'i14'
p188
sg12
Nsg13
Nsg14
(lp189
(i__main__
Token
p190
(dp191
g18
I88
sba(i__main__
Token
p192
(dp193
g18
I89
sba(i__main__
Token
p194
(dp195
g18
I90
sba(i__main__
Token
p196
(dp197
g18
I91
sbasg25
I91
sba(i__main__
Mention
p198
(dp199
g7
S't6'
p200
sg9
Nsg10
S'i18'
p201
sg12
Nsg13
Nsg14
(lp202
(i__main__
Token
p203
(dp204
g18
I109
sbasg25
Nsba(i__main__
Mention
p205
(dp206
g7
S't6'
p207
sg9
Nsg10
S'i35'
p208
sg12
Nsg13
Nsg14
(lp209
(i__main__
Token
p210
(dp211
g18
I218
sba(i__main__
Token
p212
(dp213
g18
I219
sbasg25
Nsbasg7
g187
sg39
Nsba(i__main__
Chain
p214
(dp215
g3
(lp216
(i__main__
Mention
p217
(dp218
g7
S't7'
p219
sg9
Nsg10
S'i13'
p220
sg12
Nsg13
Nsg14
(lp221
(i__main__
Token
p222
(dp223
g18
I93
sbasg25
I93
sba(i__main__
Mention
p224
(dp225
g7
S't7'
p226
sg9
S'Coreference-RPartOf'
p227
sg10
S'i37'
p228
sg12
S'i13'
p229
sg13
Nsg14
(lp230
(i__main__
Token
p231
(dp232
g18
I221
sbasg25
I221
sbasg7
g219
sg39
Nsba(i__main__
Chain
p233
(dp234
g3
(lp235
(i__main__
Mention
p236
(dp237
g7
S't8'
p238
sg9
S'anaphora-?'
p239
sg10
S'i15'
p240
sg12
S'i15'
p241
sg13
Nsg14
(lp242
(i__main__
Token
p243
(dp244
g18
I97
sbasg25
I97
sbasg7
g238
sg39
Nsba(i__main__
Chain
p245
(dp246
g3
(lp247
(i__main__
Mention
p248
(dp249
g7
S't9'
p250
sg9
S'anaphora-?'
p251
sg10
S'i16'
p252
sg12
S'i16'
p253
sg13
Nsg14
(lp254
(i__main__
Token
p255
(dp256
g18
I99
sbasg25
I99
sbasg7
g250
sg39
Nsba(i__main__
Chain
p257
(dp258
g3
(lp259
(i__main__
Mention
p260
(dp261
g7
S't10'
p262
sg9
Nsg10
S'i19'
p263
sg12
Nsg13
Nsg14
(lp264
(i__main__
Token
p265
(dp266
g18
I124
sbasg25
I124
sba(i__main__
Mention
p267
(dp268
g7
S't10'
p269
sg9
S'Coreference-NounComplement'
p270
sg10
S'i20'
p271
sg12
S'i19'
p272
sg13
Nsg14
(lp273
(i__main__
Token
p274
(dp275
g18
I125
sbasg25
I125
sba(i__main__
Mention
p276
(dp277
g7
S't10'
p278
sg9
S'Coreference-Identity'
p279
sg10
S'i31'
p280
sg12
S'i20'
p281
sg13
Nsg14
(lp282
(i__main__
Token
p283
(dp284
g18
I197
sbasg25
I197
sbasg7
g262
sg39
Nsba(i__main__
Chain
p285
(dp286
g3
(lp287
(i__main__
Mention
p288
(dp289
g7
S't11'
p290
sg9
Nsg10
S'i21'
p291
sg12
Nsg13
Nsg14
(lp292
(i__main__
Token
p293
(dp294
g18
I127
sba(i__main__
Token
p295
(dp296
g18
I128
sba(i__main__
Token
p297
(dp298
g18
I129
sbasg25
I129
sba(i__main__
Mention
p299
(dp300
g7
S't11'
p301
sg9
S'Coreference-Identity'
p302
sg10
S'i30'
p303
sg12
S'i21'
p304
sg13
Nsg14
(lp305
(i__main__
Token
p306
(dp307
g18
I186
sbasg25
I186
sbasg7
g290
sg39
Nsba(i__main__
Chain
p308
(dp309
g3
(lp310
(i__main__
Mention
p311
(dp312
g7
S't12'
p313
sg9
Nsg10
S'i23'
p314
sg12
Nsg13
Nsg14
(lp315
(i__main__
Token
p316
(dp317
g18
I140
sbasg25
I140
sba(i__main__
Mention
p318
(dp319
g7
S't12'
p320
sg9
S'Coreference-NounComplement'
p321
sg10
S'i24'
p322
sg12
S'i23'
p323
sg13
Nsg14
(lp324
(i__main__
Token
p325
(dp326
g18
I141
sba(i__main__
Token
p327
(dp328
g18
I142
sbasg25
I142
sba(i__main__
Mention
p329
(dp330
g7
S't12'
p331
sg9
S'Anaphora-C'
p332
sg10
S'i28'
p333
sg12
S'i24'
p334
sg13
Nsg14
(lp335
(i__main__
Token
p336
(dp337
g18
I160
sbasg25
I160
sbasg7
g313
sg39
Nsba(i__main__
Chain
p338
(dp339
g3
(lp340
(i__main__
Mention
p341
(dp342
g7
S't13'
p343
sg9
S'anaphora-?'
p344
sg10
S'i25'
p345
sg12
S'i25'
p346
sg13
Nsg14
(lp347
(i__main__
Token
p348
(dp349
g18
I146
sbasg25
I146
sba(i__main__
Mention
p350
(dp351
g7
S't13'
p352
sg9
S'Anaphora-RE'
p353
sg10
S'i26'
p354
sg12
S'i25'
p355
sg13
Nsg14
(lp356
(i__main__
Token
p357
(dp358
g18
I151
sba(i__main__
Token
p359
(dp360
g18
I152
sba(i__main__
Token
p361
(dp362
g18
I153
sba(i__main__
Token
p363
(dp364
g18
I154
sba(i__main__
Token
p365
(dp366
g18
I155
sba(i__main__
Token
p367
(dp368
g18
I156
sba(i__main__
Token
p369
(dp370
g18
I157
sba(i__main__
Token
p371
(dp372
g18
I158
sbasg25
I157
sbasg7
g343
sg39
Nsba(i__main__
Chain
p373
(dp374
g3
(lp375
(i__main__
Mention
p376
(dp377
g7
S't14'
p378
sg9
Nsg10
S'i27'
p379
sg12
Nsg13
Nsg14
(lp380
(i__main__
Token
p381
(dp382
g18
I153
sbasg25
I153
sba(i__main__
Mention
p383
(dp384
g7
S't14'
p385
sg9
S'Coreference-Identity'
p386
sg10
S'i29'
p387
sg12
S'i27'
p388
sg13
Nsg14
(lp389
(i__main__
Token
p390
(dp391
g18
I165
sbasg25
I165
sbasg7
g378
sg39
Nsba(i__main__
Chain
p392
(dp393
g3
(lp394
(i__main__
Mention
p395
(dp396
g7
S't15'
p397
sg9
Nsg10
S'i32'
p398
sg12
Nsg13
Nsg14
(lp399
(i__main__
Token
p400
(dp401
g18
I203
sba(i__main__
Token
p402
(dp403
g18
I204
sbasg25
I204
sba(i__main__
Mention
p404
(dp405
g7
S't15'
p406
sg9
S'Coreference-NounComplement'
p407
sg10
S'i33'
p408
sg12
S'i32'
p409
sg13
Nsg14
(lp410
(i__main__
Token
p411
(dp412
g18
I205
sba(i__main__
Token
p413
(dp414
g18
I206
sba(i__main__
Token
p415
(dp416
g18
I207
sba(i__main__
Token
p417
(dp418
g18
I208
sbasg25
I208
sba(i__main__
Mention
p419
(dp420
g7
S't15'
p421
sg9
S'Anaphora-C'
p422
sg10
S'i38'
p423
sg12
S'i33'
p424
sg13
Nsg14
(lp425
(i__main__
Token
p426
(dp427
g18
I223
sbasg25
I223
sbasg7
g397
sg39
Nsba.