(lp0
(i__main__
Chain
p1
(dp2
S'mentionList'
p3
(lp4
(i__main__
Mention
p5
(dp6
S'chainId'
p7
S't1'
p8
sS'relType'
p9
NsS'mentionId'
p10
S'i1'
p11
sS'antecedentId'
p12
NsS'crefMod'
p13
NsS'tokenList'
p14
(lp15
(i__main__
Token
p16
(dp17
S'tokenId'
p18
I3
sba(i__main__
Token
p19
(dp20
g18
I4
sba(i__main__
Token
p21
(dp22
g18
I5
sbasS'mentionHead'
p23
I5
sba(i__main__
Mention
p24
(dp25
g7
S't1'
p26
sg9
S'Coreference-NounComplement'
p27
sg10
S'i2'
p28
sg12
S'i1'
p29
sg13
Nsg14
(lp30
(i__main__
Token
p31
(dp32
g18
I6
sba(i__main__
Token
p33
(dp34
g18
I7
sbasg23
I7
sba(i__main__
Mention
p35
(dp36
g7
S't1'
p37
sg9
S'Coreference-Identity'
p38
sg10
S'i5'
p39
sg12
S'i2'
p40
sg13
Nsg14
(lp41
(i__main__
Token
p42
(dp43
g18
I25
sbasg23
I25
sba(i__main__
Mention
p44
(dp45
g7
S't1'
p46
sg9
S'Coreference-Identity'
p47
sg10
S'i14'
p48
sg12
S'i5'
p49
sg13
Nsg14
(lp50
(i__main__
Token
p51
(dp52
g18
I54
sbasg23
I54
sba(i__main__
Mention
p53
(dp54
g7
S't1'
p55
sg9
S'Coreference-Identity'
p56
sg10
S'i27'
p57
sg12
S'i14'
p58
sg13
Nsg14
(lp59
(i__main__
Token
p60
(dp61
g18
I108
sbasg23
I108
sba(i__main__
Mention
p62
(dp63
g7
S't1'
p64
sg9
S'Anaphora-C'
p65
sg10
S'i28'
p66
sg12
S'i27'
p67
sg13
Nsg14
(lp68
(i__main__
Token
p69
(dp70
g18
I113
sbasg23
I113
sba(i__main__
Mention
p71
(dp72
g7
S't1'
p73
sg9
S'Anaphora-C'
p74
sg10
S'i30'
p75
sg12
S'i28'
p76
sg13
Nsg14
(lp77
(i__main__
Token
p78
(dp79
g18
I124
sbasg23
I124
sba(i__main__
Mention
p80
(dp81
g7
S't1'
p82
sg9
S'Coreference-Identity'
p83
sg10
S'i34'
p84
sg12
S'i30'
p85
sg13
Nsg14
(lp86
(i__main__
Token
p87
(dp88
g18
I135
sbasg23
I135
sba(i__main__
Mention
p89
(dp90
g7
S't1'
p91
sg9
S'Anaphora-C'
p92
sg10
S'i36'
p93
sg12
S'i34'
p94
sg13
Nsg14
(lp95
(i__main__
Token
p96
(dp97
g18
I137
sbasg23
I137
sba(i__main__
Mention
p98
(dp99
g7
S't1'
p100
sg9
S'Anaphora-C'
p101
sg10
S'i43'
p102
sg12
S'i36'
p103
sg13
Nsg14
(lp104
(i__main__
Token
p105
(dp106
g18
I152
sbasg23
I152
sba(i__main__
Mention
p107
(dp108
g7
S't1'
p109
sg9
S'Anaphora-C'
p110
sg10
S'i44'
p111
sg12
S'i43'
p112
sg13
Nsg14
(lp113
(i__main__
Token
p114
(dp115
g18
I154
sbasg23
I154
sba(i__main__
Mention
p116
(dp117
g7
S't1'
p118
sg9
S'Coreference-Identity'
p119
sg10
S'i54'
p120
sg12
S'i44'
p121
sg13
Nsg14
(lp122
(i__main__
Token
p123
(dp124
g18
I190
sbasg23
I190
sba(i__main__
Mention
p125
(dp126
g7
S't1'
p127
sg9
S'Coreference-Identity'
p128
sg10
S'i55'
p129
sg12
S'i54'
p130
sg13
Nsg14
(lp131
(i__main__
Token
p132
(dp133
g18
I207
sbasg23
I207
sba(i__main__
Mention
p134
(dp135
g7
S't1'
p136
sg9
S'Anaphora-C'
p137
sg10
S'i56'
p138
sg12
S'i55'
p139
sg13
Nsg14
(lp140
(i__main__
Token
p141
(dp142
g18
I218
sbasg23
I218
sba(i__main__
Mention
p143
(dp144
g7
S't1'
p145
sg9
S'Coreference-Identity'
p146
sg10
S'i59'
p147
sg12
S'i56'
p148
sg13
Nsg14
(lp149
(i__main__
Token
p150
(dp151
g18
I237
sbasg23
I237
sba(i__main__
Mention
p152
(dp153
g7
S't1'
p154
sg9
S'Anaphora-C'
p155
sg10
S'i62'
p156
sg12
S'i59'
p157
sg13
Nsg14
(lp158
(i__main__
Token
p159
(dp160
g18
I257
sbasg23
I257
sba(i__main__
Mention
p161
(dp162
g7
S't1'
p163
sg9
S'Coreference-Identity'
p164
sg10
S'i63'
p165
sg12
S'i62'
p166
sg13
Nsg14
(lp167
(i__main__
Token
p168
(dp169
g18
I293
sbasg23
I293
sba(i__main__
Mention
p170
(dp171
g7
S't1'
p172
sg9
S'Anaphora-C'
p173
sg10
S'i64'
p174
sg12
S'i63'
p175
sg13
Nsg14
(lp176
(i__main__
Token
p177
(dp178
g18
I310
sbasg23
I310
sbasg7
g8
sS'chainHead'
p179
Nsba(i__main__
Chain
p180
(dp181
g3
(lp182
(i__main__
Mention
p183
(dp184
g7
S't2'
p185
sg9
Nsg10
S'i3'
p186
sg12
Nsg13
Nsg14
(lp187
(i__main__
Token
p188
(dp189
g18
I15
sbasg23
I15
sba(i__main__
Mention
p190
(dp191
g7
S't2'
p192
sg9
S'Coreference-Identity'
p193
sg10
S'i10'
p194
sg12
S'i3'
p195
sg13
Nsg14
(lp196
(i__main__
Token
p197
(dp198
g18
I41
sbasg23
I41
sba(i__main__
Mention
p199
(dp200
g7
S't2'
p201
sg9
S'Coreference-Identity'
p202
sg10
S'i24'
p203
sg12
S'i10'
p204
sg13
Nsg14
(lp205
(i__main__
Token
p206
(dp207
g18
I99
sbasg23
I99
sba(i__main__
Mention
p208
(dp209
g7
S't2'
p210
sg9
S'Coreference-Identity'
p211
sg10
S'i51'
p212
sg12
S'i24'
p213
sg13
Nsg14
(lp214
(i__main__
Token
p215
(dp216
g18
I178
sbasg23
I178
sba(i__main__
Mention
p217
(dp218
g7
S't2'
p219
sg9
S'Coreference-Identity'
p220
sg10
S'i57'
p221
sg12
S'i51'
p222
sg13
Nsg14
(lp223
(i__main__
Token
p224
(dp225
g18
I234
sbasg23
I234
sbasg7
g185
sg179
Nsba(i__main__
Chain
p226
(dp227
g3
(lp228
(i__main__
Mention
p229
(dp230
g7
S't3'
p231
sg9
Nsg10
S'i4'
p232
sg12
Nsg13
Nsg14
(lp233
(i__main__
Token
p234
(dp235
g18
I17
sba(i__main__
Token
p236
(dp237
g18
I18
sbasg23
I18
sba(i__main__
Mention
p238
(dp239
g7
S't3'
p240
sg9
S'Coreference-Identity'
p241
sg10
S'i49'
p242
sg12
S'i4'
p243
sg13
Nsg14
(lp244
(i__main__
Token
p245
(dp246
g18
I174
sbasg23
I174
sbasg7
g231
sg179
Nsba(i__main__
Chain
p247
(dp248
g3
(lp249
(i__main__
Mention
p250
(dp251
g7
S't4'
p252
sg9
Nsg10
S'i6'
p253
sg12
Nsg13
Nsg14
(lp254
(i__main__
Token
p255
(dp256
g18
I27
sbasg23
I27
sba(i__main__
Mention
p257
(dp258
g7
S't4'
p259
sg9
S'Coreference-Identity'
p260
sg10
S'i15'
p261
sg12
S'i6'
p262
sg13
Nsg14
(lp263
(i__main__
Token
p264
(dp265
g18
I56
sbasg23
I56
sba(i__main__
Mention
p266
(dp267
g7
S't4'
p268
sg9
S'Coreference-NounComplement'
p269
sg10
S'i16'
p270
sg12
S'i15'
p271
sg13
Nsg14
(lp272
(i__main__
Token
p273
(dp274
g18
I57
sba(i__main__
Token
p275
(dp276
g18
I58
sbasg23
I58
sba(i__main__
Mention
p277
(dp278
g7
S't4'
p279
sg9
Nsg10
S'i37'
p280
sg12
Nsg13
Nsg14
(lp281
(i__main__
Token
p282
(dp283
g18
I138
sbasg23
Nsba(i__main__
Mention
p284
(dp285
g7
S't4'
p286
sg9
S'Coreference-PartOf'
p287
sg10
S'i45'
p288
sg12
S'i37'
p289
sg13
Nsg14
(lp290
(i__main__
Token
p291
(dp292
g18
I155
sbasg23
I155
sbasg7
g252
sg179
Nsba(i__main__
Chain
p293
(dp294
g3
(lp295
(i__main__
Mention
p296
(dp297
g7
S't5'
p298
sg9
Nsg10
S'i7'
p299
sg12
Nsg13
Nsg14
(lp300
(i__main__
Token
p301
(dp302
g18
I29
sbasg23
I29
sba(i__main__
Mention
p303
(dp304
g7
S't5'
p305
sg9
S'Coreference-Identity'
p306
sg10
S'i17'
p307
sg12
S'i7'
p308
sg13
Nsg14
(lp309
(i__main__
Token
p310
(dp311
g18
I60
sbasg23
I60
sba(i__main__
Mention
p312
(dp313
g7
S't5'
p314
sg9
S'Coreference-NounComplement'
p315
sg10
S'i18'
p316
sg12
S'i17'
p317
sg13
Nsg14
(lp318
(i__main__
Token
p319
(dp320
g18
I61
sba(i__main__
Token
p321
(dp322
g18
I62
sba(i__main__
Token
p323
(dp324
g18
I63
sbasg23
I63
sba(i__main__
Mention
p325
(dp326
g7
S't5'
p327
sg9
Nsg10
S'i39'
p328
sg12
Nsg13
Nsg14
(lp329
(i__main__
Token
p330
(dp331
g18
I138
sbasg23
Nsba(i__main__
Mention
p332
(dp333
g7
S't5'
p334
sg9
S'Coreference-PartOf'
p335
sg10
S'i46'
p336
sg12
S'i39'
p337
sg13
Nsg14
(lp338
(i__main__
Token
p339
(dp340
g18
I157
sbasg23
I157
sbasg7
g298
sg179
Nsba(i__main__
Chain
p341
(dp342
g3
(lp343
(i__main__
Mention
p344
(dp345
g7
S't6'
p346
sg9
Nsg10
S'i8'
p347
sg12
Nsg13
Nsg14
(lp348
(i__main__
Token
p349
(dp350
g18
I31
sbasg23
I31
sba(i__main__
Mention
p351
(dp352
g7
S't6'
p353
sg9
S'Coreference-Identity'
p354
sg10
S'i19'
p355
sg12
S'i8'
p356
sg13
Nsg14
(lp357
(i__main__
Token
p358
(dp359
g18
I65
sbasg23
I65
sba(i__main__
Mention
p360
(dp361
g7
S't6'
p362
sg9
S'Coreference-NounComplement'
p363
sg10
S'i20'
p364
sg12
S'i19'
p365
sg13
Nsg14
(lp366
(i__main__
Token
p367
(dp368
g18
I66
sbasg23
I66
sba(i__main__
Mention
p369
(dp370
g7
S't6'
p371
sg9
Nsg10
S'i38'
p372
sg12
Nsg13
Nsg14
(lp373
(i__main__
Token
p374
(dp375
g18
I138
sbasg23
Nsba(i__main__
Mention
p376
(dp377
g7
S't6'
p378
sg9
S'Coreference-PartOf'
p379
sg10
S'i47'
p380
sg12
S'i38'
p381
sg13
Nsg14
(lp382
(i__main__
Token
p383
(dp384
g18
I159
sbasg23
I159
sbasg7
g346
sg179
Nsba(i__main__
Chain
p385
(dp386
g3
(lp387
(i__main__
Mention
p388
(dp389
g7
S't7'
p390
sg9
Nsg10
S'i9'
p391
sg12
Nsg13
Nsg14
(lp392
(i__main__
Token
p393
(dp394
g18
I34
sba(i__main__
Token
p395
(dp396
g18
I35
sbasg23
I35
sba(i__main__
Mention
p397
(dp398
g7
S't7'
p399
sg9
S'Coreference-Identity'
p400
sg10
S'i21'
p401
sg12
S'i9'
p402
sg13
Nsg14
(lp403
(i__main__
Token
p404
(dp405
g18
I69
sba(i__main__
Token
p406
(dp407
g18
I70
sbasg23
I70
sbasg7
g390
sg179
Nsba(i__main__
Chain
p408
(dp409
g3
(lp410
(i__main__
Mention
p411
(dp412
g7
S't8'
p413
sg9
Nsg10
S'i11'
p414
sg12
Nsg13
Nsg14
(lp415
(i__main__
Token
p416
(dp417
g18
I43
sba(i__main__
Token
p418
(dp419
g18
I44
sba(i__main__
Token
p420
(dp421
g18
I45
sba(i__main__
Token
p422
(dp423
g18
I46
sbasg23
I46
sba(i__main__
Mention
p424
(dp425
g7
S't8'
p426
sg9
S'Coreference-NounComplement'
p427
sg10
S'i12'
p428
sg12
S'i11'
p429
sg13
Nsg14
(lp430
(i__main__
Token
p431
(dp432
g18
I47
sba(i__main__
Token
p433
(dp434
g18
I48
sbasg23
I48
sbasg7
g413
sg179
Nsba(i__main__
Chain
p435
(dp436
g3
(lp437
(i__main__
Mention
p438
(dp439
g7
S't9'
p440
sg9
Nsg10
S'i13'
p441
sg12
Nsg13
Nsg14
(lp442
(i__main__
Token
p443
(dp444
g18
I50
sbasg23
I50
sba(i__main__
Mention
p445
(dp446
g7
S't9'
p447
sg9
S'Coreference-Identity'
p448
sg10
S'i23'
p449
sg12
S'i13'
p450
sg13
Nsg14
(lp451
(i__main__
Token
p452
(dp453
g18
I87
sbasg23
I87
sba(i__main__
Mention
p454
(dp455
g7
S't9'
p456
sg9
S'Coreference-Identity'
p457
sg10
S'i40'
p458
sg12
S'i23'
p459
sg13
Nsg14
(lp460
(i__main__
Token
p461
(dp462
g18
I140
sbasg23
I140
sba(i__main__
Mention
p463
(dp464
g7
S't9'
p465
sg9
S'Coreference-Identity'
p466
sg10
S'i42'
p467
sg12
S'i40'
p468
sg13
Nsg14
(lp469
(i__main__
Token
p470
(dp471
g18
I150
sbasg23
I150
sba(i__main__
Mention
p472
(dp473
g7
S't9'
p474
sg9
S'Coreference-Identity'
p475
sg10
S'i58'
p476
sg12
S'i42'
p477
sg13
Nsg14
(lp478
(i__main__
Token
p479
(dp480
g18
I234
sba(i__main__
Token
p481
(dp482
g18
I235
sbasg23
I235
sbasg7
g440
sg179
Nsba(i__main__
Chain
p483
(dp484
g3
(lp485
(i__main__
Mention
p486
(dp487
g7
S't10'
p488
sg9
Nsg10
S'i22'
p489
sg12
Nsg13
Nsg14
(lp490
(i__main__
Token
p491
(dp492
g18
I78
sbasg23
I78
sba(i__main__
Mention
p493
(dp494
g7
S't10'
p495
sg9
S'Coreference-Identity'
p496
sg10
S'i29'
p497
sg12
S'i22'
p498
sg13
Nsg14
(lp499
(i__main__
Token
p500
(dp501
g18
I114
sbasg23
I114
sba(i__main__
Mention
p502
(dp503
g7
S't10'
p504
sg9
S'Coreference-Identity'
p505
sg10
S'i32'
p506
sg12
S'i29'
p507
sg13
Nsg14
(lp508
(i__main__
Token
p509
(dp510
g18
I125
sba(i__main__
Token
p511
(dp512
g18
I126
sbasg23
I126
sbasg7
g488
sg179
Nsba(i__main__
Chain
p513
(dp514
g3
(lp515
(i__main__
Mention
p516
(dp517
g7
S't11'
p518
sg9
Nsg10
S'i25'
p519
sg12
Nsg13
Nsg14
(lp520
(i__main__
Token
p521
(dp522
g18
I101
sba(i__main__
Token
p523
(dp524
g18
I102
sba(i__main__
Token
p525
(dp526
g18
I103
sbasg23
I103
sba(i__main__
Mention
p527
(dp528
g7
S't11'
p529
sg9
S'Coreference-NounComplement'
p530
sg10
S'i26'
p531
sg12
S'i25'
p532
sg13
Nsg14
(lp533
(i__main__
Token
p534
(dp535
g18
I104
sba(i__main__
Token
p536
(dp537
g18
I105
sba(i__main__
Token
p538
(dp539
g18
I106
sbasg23
I106
sbasg7
g518
sg179
Nsba(i__main__
Chain
p540
(dp541
g3
(lp542
(i__main__
Mention
p543
(dp544
g7
S't12'
p545
sg9
Nsg10
S'i31'
p546
sg12
Nsg13
Nsg14
(lp547
(i__main__
Token
p548
(dp549
g18
I124
sba(i__main__
Token
p550
(dp551
g18
I125
sba(i__main__
Token
p552
(dp553
g18
I126
sba(i__main__
Token
p554
(dp555
g18
I127
sba(i__main__
Token
p556
(dp557
g18
I128
sba(i__main__
Token
p558
(dp559
g18
I129
sbasg23
I128
sba(i__main__
Mention
p560
(dp561
g7
S't12'
p562
sg9
S'Anaphora-E'
p563
sg10
S'i33'
p564
sg12
S'i31'
p565
sg13
Nsg14
(lp566
(i__main__
Token
p567
(dp568
g18
I132
sbasg23
I132
sbasg7
g545
sg179
Nsba(i__main__
Chain
p569
(dp570
g3
(lp571
(i__main__
Mention
p572
(dp573
g7
S't13'
p574
sg9
Nsg10
S'i35'
p575
sg12
Nsg13
Nsg14
(lp576
(i__main__
Token
p577
(dp578
g18
I135
sba(i__main__
Token
p579
(dp580
g18
I136
sba(i__main__
Token
p581
(dp582
g18
I137
sba(i__main__
Token
p583
(dp584
g18
I138
sba(i__main__
Token
p585
(dp586
g18
I139
sba(i__main__
Token
p587
(dp588
g18
I140
sba(i__main__
Token
p589
(dp590
g18
I141
sba(i__main__
Token
p591
(dp592
g18
I142
sba(i__main__
Token
p593
(dp594
g18
I143
sba(i__main__
Token
p595
(dp596
g18
I144
sba(i__main__
Token
p597
(dp598
g18
I145
sba(i__main__
Token
p599
(dp600
g18
I146
sbasg23
I145
sba(i__main__
Mention
p601
(dp602
g7
S't13'
p603
sg9
S'Anaphora-E'
p604
sg10
S'i41'
p605
sg12
S'i35'
p606
sg13
Nsg14
(lp607
(i__main__
Token
p608
(dp609
g18
I148
sbasg23
I148
sbasg7
g574
sg179
Nsba(i__main__
Chain
p610
(dp611
g3
(lp612
(i__main__
Mention
p613
(dp614
g7
S't14'
p615
sg9
Nsg10
S'i48'
p616
sg12
Nsg13
Nsg14
(lp617
(i__main__
Token
p618
(dp619
g18
I171
sbasg23
I171
sba(i__main__
Mention
p620
(dp621
g7
S't14'
p622
sg9
S'Anaphora-RC'
p623
sg10
S'i50'
p624
sg12
S'i48'
p625
sg13
Nsg14
(lp626
(i__main__
Token
p627
(dp628
g18
I174
sba(i__main__
Token
p629
(dp630
g18
I175
sba(i__main__
Token
p631
(dp632
g18
I176
sba(i__main__
Token
p633
(dp634
g18
I177
sba(i__main__
Token
p635
(dp636
g18
I178
sba(i__main__
Token
p637
(dp638
g18
I179
sba(i__main__
Token
p639
(dp640
g18
I180
sba(i__main__
Token
p641
(dp642
g18
I181
sba(i__main__
Token
p643
(dp644
g18
I182
sba(i__main__
Token
p645
(dp646
g18
I183
sba(i__main__
Token
p647
(dp648
g18
I184
sba(i__main__
Token
p649
(dp650
g18
I185
sba(i__main__
Token
p651
(dp652
g18
I186
sba(i__main__
Token
p653
(dp654
g18
I187
sba(i__main__
Token
p655
(dp656
g18
I188
sba(i__main__
Token
p657
(dp658
g18
I189
sba(i__main__
Token
p659
(dp660
g18
I190
sba(i__main__
Token
p661
(dp662
g18
I191
sba(i__main__
Token
p663
(dp664
g18
I192
sba(i__main__
Token
p665
(dp666
g18
I193
sba(i__main__
Token
p667
(dp668
g18
I194
sba(i__main__
Token
p669
(dp670
g18
I195
sba(i__main__
Token
p671
(dp672
g18
I196
sba(i__main__
Token
p673
(dp674
g18
I197
sba(i__main__
Token
p675
(dp676
g18
I198
sba(i__main__
Token
p677
(dp678
g18
I199
sba(i__main__
Token
p679
(dp680
g18
I200
sba(i__main__
Token
p681
(dp682
g18
I201
sba(i__main__
Token
p683
(dp684
g18
I202
sbasg23
I201
sbasg7
g615
sg179
Nsba(i__main__
Chain
p685
(dp686
g3
(lp687
(i__main__
Mention
p688
(dp689
g7
S't15'
p690
sg9
Nsg10
S'i52'
p691
sg12
Nsg13
Nsg14
(lp692
(i__main__
Token
p693
(dp694
g18
I180
sba(i__main__
Token
p695
(dp696
g18
I181
sbasg23
I181
sba(i__main__
Mention
p697
(dp698
g7
S't15'
p699
sg9
S'Coreference-NounComplement'
p700
sg10
S'i53'
p701
sg12
S'i52'
p702
sg13
Nsg14
(lp703
(i__main__
Token
p704
(dp705
g18
I182
sba(i__main__
Token
p706
(dp707
g18
I183
sba(i__main__
Token
p708
(dp709
g18
I184
sbasg23
I184
sbasg7
g690
sg179
Nsba(i__main__
Chain
p710
(dp711
g3
(lp712
(i__main__
Mention
p713
(dp714
g7
S't16'
p715
sg9
Nsg10
S'i60'
p716
sg12
Nsg13
Nsg14
(lp717
(i__main__
Token
p718
(dp719
g18
I240
sba(i__main__
Token
p720
(dp721
g18
I241
sbasg23
I241
sba(i__main__
Mention
p722
(dp723
g7
S't16'
p724
sg9
S'Anaphora-C'
p725
sg10
S'i61'
p726
sg12
S'i60'
p727
sg13
Nsg14
(lp728
(i__main__
Token
p729
(dp730
g18
I248
sbasg23
I248
sbasg7
g715
sg179
Nsba.