(lp0
(i__main__
Chain
p1
(dp2
S'mentionList'
p3
(lp4
(i__main__
Mention
p5
(dp6
S'chainId'
p7
S't1'
p8
sS'relType'
p9
NsS'mentionId'
p10
S'i1'
p11
sS'antecedentId'
p12
NsS'crefMod'
p13
NsS'tokenList'
p14
(lp15
(i__main__
Token
p16
(dp17
S'tokenId'
p18
I0
sba(i__main__
Token
p19
(dp20
g18
I1
sba(i__main__
Token
p21
(dp22
g18
I2
sba(i__main__
Token
p23
(dp24
g18
I3
sba(i__main__
Token
p25
(dp26
g18
I4
sbasS'mentionHead'
p27
I4
sba(i__main__
Mention
p28
(dp29
g7
S't1'
p30
sg9
S'Coreference-Identity'
p31
sg10
S'i10'
p32
sg12
S'i15'
p33
sg13
Nsg14
(lp34
(i__main__
Token
p35
(dp36
g18
I85
sba(i__main__
Token
p37
(dp38
g18
I86
sbasg27
I86
sbasg7
g8
sS'chainHead'
p39
Nsba(i__main__
Chain
p40
(dp41
g3
(lp42
(i__main__
Mention
p43
(dp44
g7
S't2'
p45
sg9
Nsg10
S'i2'
p46
sg12
Nsg13
Nsg14
(lp47
(i__main__
Token
p48
(dp49
g18
I6
sba(i__main__
Token
p50
(dp51
g18
I7
sba(i__main__
Token
p52
(dp53
g18
I8
sba(i__main__
Token
p54
(dp55
g18
I9
sbasg27
I9
sba(i__main__
Mention
p56
(dp57
g7
S't2'
p58
sg9
S'Coreference-Identity'
p59
sg10
S'i6'
p60
sg12
S'i16'
p61
sg13
Nsg14
(lp62
(i__main__
Token
p63
(dp64
g18
I53
sbasg27
I53
sbasg7
g45
sg39
Nsba(i__main__
Chain
p65
(dp66
g3
(lp67
(i__main__
Mention
p68
(dp69
g7
S't3'
p70
sg9
Nsg10
S'i3'
p71
sg12
Nsg13
Nsg14
(lp72
(i__main__
Token
p73
(dp74
g18
I11
sba(i__main__
Token
p75
(dp76
g18
I12
sba(i__main__
Token
p77
(dp78
g18
I13
sba(i__main__
Token
p79
(dp80
g18
I14
sba(i__main__
Token
p81
(dp82
g18
I15
sbasg27
I15
sba(i__main__
Mention
p83
(dp84
g7
S't3'
p85
sg9
S'Coreference-Identity'
p86
sg10
S'i5'
p87
sg12
S'i3'
p88
sg13
Nsg14
(lp89
(i__main__
Token
p90
(dp91
g18
I46
sba(i__main__
Token
p92
(dp93
g18
I47
sbasg27
I47
sba(i__main__
Mention
p94
(dp95
g7
S't3'
p96
sg9
S'Coreference-Identity'
p97
sg10
S'i8'
p98
sg12
S'i5'
p99
sg13
Nsg14
(lp100
(i__main__
Token
p101
(dp102
g18
I63
sba(i__main__
Token
p103
(dp104
g18
I64
sbasg27
I64
sba(i__main__
Mention
p105
(dp106
g7
S't3'
p107
sg9
S'Coreference-Identity'
p108
sg10
S'i17'
p109
sg12
S'i8'
p110
sg13
Nsg14
(lp111
(i__main__
Token
p112
(dp113
g18
I156
sba(i__main__
Token
p114
(dp115
g18
I157
sba(i__main__
Token
p116
(dp117
g18
I158
sbasg27
I158
sba(i__main__
Mention
p118
(dp119
g7
S't3'
p120
sg9
S'Coreference-Identity'
p121
sg10
S'i21'
p122
sg12
S'i17'
p123
sg13
Nsg14
(lp124
(i__main__
Token
p125
(dp126
g18
I192
sba(i__main__
Token
p127
(dp128
g18
I193
sba(i__main__
Token
p129
(dp130
g18
I194
sbasg27
I194
sbasg7
g70
sg39
Nsba(i__main__
Chain
p131
(dp132
g3
(lp133
(i__main__
Mention
p134
(dp135
g7
S't4'
p136
sg9
Nsg10
S'i4'
p137
sg12
Nsg13
Nsg14
(lp138
(i__main__
Token
p139
(dp140
g18
I17
sbasg27
I17
sba(i__main__
Mention
p141
(dp142
g7
S't4'
p143
sg9
S'Coreference-Identity'
p144
sg10
S'i9'
p145
sg12
S'i4'
p146
sg13
Nsg14
(lp147
(i__main__
Token
p148
(dp149
g18
I66
sbasg27
I66
sba(i__main__
Mention
p150
(dp151
g7
S't4'
p152
sg9
S'Coreference-Identity'
p153
sg10
S'i18'
p154
sg12
S'i9'
p155
sg13
Nsg14
(lp156
(i__main__
Token
p157
(dp158
g18
I160
sbasg27
I160
sba(i__main__
Mention
p159
(dp160
g7
S't4'
p161
sg9
S'Coreference-Identity'
p162
sg10
S'i22'
p163
sg12
S'i18'
p164
sg13
Nsg14
(lp165
(i__main__
Token
p166
(dp167
g18
I196
sbasg27
I196
sbasg7
g136
sg39
Nsba(i__main__
Chain
p168
(dp169
g3
(lp170
(i__main__
Mention
p171
(dp172
g7
S't5'
p173
sg9
Nsg10
S'i12'
p174
sg12
Nsg13
Nsg14
(lp175
(i__main__
Token
p176
(dp177
g18
I90
sbasg27
I90
sba(i__main__
Mention
p178
(dp179
g7
S't5'
p180
sg9
S'Coreference-Identity'
p181
sg10
S'i13'
p182
sg12
S'i12'
p183
sg13
Nsg14
(lp184
(i__main__
Token
p185
(dp186
g18
I96
sba(i__main__
Token
p187
(dp188
g18
I97
sbasg27
I97
sba(i__main__
Mention
p189
(dp190
g7
S't5'
p191
sg9
S'Coreference-Identity'
p192
sg10
S'i14'
p193
sg12
S'i13'
p194
sg13
Nsg14
(lp195
(i__main__
Token
p196
(dp197
g18
I121
sba(i__main__
Token
p198
(dp199
g18
I122
sbasg27
I122
sbasg7
g173
sg39
Nsba(i__main__
Chain
p200
(dp201
g3
(lp202
(i__main__
Mention
p203
(dp204
g7
S't6'
p205
sg9
Nsg10
S'i15'
p206
sg12
Nsg13
Nsg14
(lp207
(i__main__
Token
p208
(dp209
g18
I123
sba(i__main__
Token
p210
(dp211
g18
I124
sba(i__main__
Token
p212
(dp213
g18
I125
sba(i__main__
Token
p214
(dp215
g18
I126
sbasg27
I126
sbasg7
g205
sg39
Nsba(i__main__
Chain
p216
(dp217
g3
(lp218
(i__main__
Mention
p219
(dp220
g7
S't7'
p221
sg9
S'anaphora-?'
p222
sg10
S'i16'
p223
sg12
S'i16'
p224
sg13
Nsg14
(lp225
(i__main__
Token
p226
(dp227
g18
I149
sbasg27
I149
sbasg7
g221
sg39
Nsba(i__main__
Chain
p228
(dp229
g3
(lp230
(i__main__
Mention
p231
(dp232
g7
S't8'
p233
sg9
Nsg10
S'i19'
p234
sg12
Nsg13
Nsg14
(lp235
(i__main__
Token
p236
(dp237
g18
I174
sba(i__main__
Token
p238
(dp239
g18
I175
sbasg27
I175
sba(i__main__
Mention
p240
(dp241
g7
S't8'
p242
sg9
S'Coreference-PartOf'
p243
sg10
S'i20'
p244
sg12
S'i19'
p245
sg13
Nsg14
(lp246
(i__main__
Token
p247
(dp248
g18
I180
sba(i__main__
Token
p249
(dp250
g18
I181
sbasg27
I181
sbasg7
g233
sg39
Nsba.