(lp0
(i__main__
Chain
p1
(dp2
S'mentionList'
p3
(lp4
(i__main__
Mention
p5
(dp6
S'chainId'
p7
S't1'
p8
sS'relType'
p9
NsS'mentionId'
p10
S'i1'
p11
sS'antecedentId'
p12
NsS'crefMod'
p13
NsS'tokenList'
p14
(lp15
(i__main__
Token
p16
(dp17
S'tokenId'
p18
I0
sba(i__main__
Token
p19
(dp20
g18
I1
sba(i__main__
Token
p21
(dp22
g18
I2
sbasS'mentionHead'
p23
I2
sba(i__main__
Mention
p24
(dp25
g7
S't1'
p26
sg9
S'Coreference-Identity'
p27
sg10
S'i5'
p28
sg12
S'i1'
p29
sg13
Nsg14
(lp30
(i__main__
Token
p31
(dp32
g18
I21
sbasg23
I21
sba(i__main__
Mention
p33
(dp34
g7
S't1'
p35
sg9
S'Coreference-Identity'
p36
sg10
S'i12'
p37
sg12
S'i5'
p38
sg13
Nsg14
(lp39
(i__main__
Token
p40
(dp41
g18
I57
sbasg23
I57
sba(i__main__
Mention
p42
(dp43
g7
S't1'
p44
sg9
S'Coreference-Identity'
p45
sg10
S'i16'
p46
sg12
S'i12'
p47
sg13
Nsg14
(lp48
(i__main__
Token
p49
(dp50
g18
I80
sbasg23
I80
sba(i__main__
Mention
p51
(dp52
g7
S't1'
p53
sg9
S'Coreference-Identity'
p54
sg10
S'i20'
p55
sg12
S'i16'
p56
sg13
Nsg14
(lp57
(i__main__
Token
p58
(dp59
g18
I105
sbasg23
I105
sba(i__main__
Mention
p60
(dp61
g7
S't1'
p62
sg9
S'Coreference-Identity'
p63
sg10
S'i38'
p64
sg12
S'i20'
p65
sg13
Nsg14
(lp66
(i__main__
Token
p67
(dp68
g18
I196
sbasg23
I196
sbasg7
g8
sS'chainHead'
p69
Nsba(i__main__
Chain
p70
(dp71
g3
(lp72
(i__main__
Mention
p73
(dp74
g7
S't2'
p75
sg9
Nsg10
S'i2'
p76
sg12
Nsg13
Nsg14
(lp77
(i__main__
Token
p78
(dp79
g18
I4
sba(i__main__
Token
p80
(dp81
g18
I5
sba(i__main__
Token
p82
(dp83
g18
I6
sbasg23
I6
sba(i__main__
Mention
p84
(dp85
g7
S't2'
p86
sg9
S'Coreference-Identity'
p87
sg10
S'i6'
p88
sg12
S'i2'
p89
sg13
Nsg14
(lp90
(i__main__
Token
p91
(dp92
g18
I23
sba(i__main__
Token
p93
(dp94
g18
I24
sbasg23
I24
sba(i__main__
Mention
p95
(dp96
g7
S't2'
p97
sg9
S'Coreference-Identity'
p98
sg10
S'i15'
p99
sg12
S'i6'
p100
sg13
Nsg14
(lp101
(i__main__
Token
p102
(dp103
g18
I65
sbasg23
I65
sba(i__main__
Mention
p104
(dp105
g7
S't2'
p106
sg9
S'Coreference-Identity'
p107
sg10
S'i17'
p108
sg12
S'i15'
p109
sg13
Nsg14
(lp110
(i__main__
Token
p111
(dp112
g18
I82
sba(i__main__
Token
p113
(dp114
g18
I83
sbasg23
I83
sbasg7
g75
sg69
Nsba(i__main__
Chain
p115
(dp116
g3
(lp117
(i__main__
Mention
p118
(dp119
g7
S't3'
p120
sg9
Nsg10
S'i3'
p121
sg12
Nsg13
Nsg14
(lp122
(i__main__
Token
p123
(dp124
g18
I8
sba(i__main__
Token
p125
(dp126
g18
I9
sba(i__main__
Token
p127
(dp128
g18
I10
sbasg23
I10
sba(i__main__
Mention
p129
(dp130
g7
S't3'
p131
sg9
S'Coreference-NounComplement'
p132
sg10
S'i4'
p133
sg12
S'i3'
p134
sg13
Nsg14
(lp135
(i__main__
Token
p136
(dp137
g18
I11
sba(i__main__
Token
p138
(dp139
g18
I12
sbasg23
I12
sba(i__main__
Mention
p140
(dp141
g7
S't3'
p142
sg9
S'Coreference-Identity'
p143
sg10
S'i18'
p144
sg12
S'i4'
p145
sg13
Nsg14
(lp146
(i__main__
Token
p147
(dp148
g18
I89
sbasg23
I89
sba(i__main__
Mention
p149
(dp150
g7
S't3'
p151
sg9
S'Coreference-Noun-Noun'
p152
sg10
S'i19'
p153
sg12
S'i18'
p154
sg13
Nsg14
(lp155
(i__main__
Token
p156
(dp157
g18
I100
sbasg23
I100
sba(i__main__
Mention
p158
(dp159
g7
S't3'
p160
sg9
S'Anaphora-C'
p161
sg10
S'i21'
p162
sg12
S'i19'
p163
sg13
Nsg14
(lp164
(i__main__
Token
p165
(dp166
g18
I107
sbasg23
I107
sba(i__main__
Mention
p167
(dp168
g7
S't3'
p169
sg9
S'Anaphora-C'
p170
sg10
S'i22'
p171
sg12
S'i21'
p172
sg13
Nsg14
(lp173
(i__main__
Token
p174
(dp175
g18
I120
sbasg23
I120
sba(i__main__
Mention
p176
(dp177
g7
S't3'
p178
sg9
S'Anaphora-C'
p179
sg10
S'i23'
p180
sg12
S'i22'
p181
sg13
Nsg14
(lp182
(i__main__
Token
p183
(dp184
g18
I124
sbasg23
I124
sba(i__main__
Mention
p185
(dp186
g7
S't3'
p187
sg9
S'Anaphora-C'
p188
sg10
S'i24'
p189
sg12
S'i23'
p190
sg13
Nsg14
(lp191
(i__main__
Token
p192
(dp193
g18
I126
sbasg23
I126
sba(i__main__
Mention
p194
(dp195
g7
S't3'
p196
sg9
S'Coreference-Noun-Noun'
p197
sg10
S'i29'
p198
sg12
S'i24'
p199
sg13
Nsg14
(lp200
(i__main__
Token
p201
(dp202
g18
I149
sbasg23
I149
sba(i__main__
Mention
p203
(dp204
g7
S't3'
p205
sg9
S'Anaphora-C'
p206
sg10
S'i30'
p207
sg12
S'i29'
p208
sg13
Nsg14
(lp209
(i__main__
Token
p210
(dp211
g18
I151
sbasg23
I151
sba(i__main__
Mention
p212
(dp213
g7
S't3'
p214
sg9
S'Coreference-Identity'
p215
sg10
S'i35'
p216
sg12
S'i30'
p217
sg13
Nsg14
(lp218
(i__main__
Token
p219
(dp220
g18
I166
sbasg23
I166
sba(i__main__
Mention
p221
(dp222
g7
S't3'
p223
sg9
S'Anaphora-C'
p224
sg10
S'i37'
p225
sg12
S'i35'
p226
sg13
Nsg14
(lp227
(i__main__
Token
p228
(dp229
g18
I187
sbasg23
I187
sba(i__main__
Mention
p230
(dp231
g7
S't3'
p232
sg9
S'Anaphora-C'
p233
sg10
S'i39'
p234
sg12
S'i37'
p235
sg13
Nsg14
(lp236
(i__main__
Token
p237
(dp238
g18
I199
sbasg23
I199
sba(i__main__
Mention
p239
(dp240
g7
S't3'
p241
sg9
S'Coreference-Noun-Noun'
p242
sg10
S'i40'
p243
sg12
S'i39'
p244
sg13
Nsg14
(lp245
(i__main__
Token
p246
(dp247
g18
I202
sbasg23
I202
sba(i__main__
Mention
p248
(dp249
g7
S't3'
p250
sg9
S'Anaphora-C'
p251
sg10
S'i42'
p252
sg12
S'i40'
p253
sg13
Nsg14
(lp254
(i__main__
Token
p255
(dp256
g18
I208
sbasg23
I208
sba(i__main__
Mention
p257
(dp258
g7
S't3'
p259
sg9
S'Anaphora-C'
p260
sg10
S'i45'
p261
sg12
S'i42'
p262
sg13
Nsg14
(lp263
(i__main__
Token
p264
(dp265
g18
I218
sbasg23
I218
sba(i__main__
Mention
p266
(dp267
g7
S't3'
p268
sg9
S'Anaphora-C'
p269
sg10
S'i49'
p270
sg12
S'i45'
p271
sg13
Nsg14
(lp272
(i__main__
Token
p273
(dp274
g18
I232
sbasg23
I232
sba(i__main__
Mention
p275
(dp276
g7
S't3'
p277
sg9
S'Anaphora-C'
p278
sg10
S'i50'
p279
sg12
S'i49'
p280
sg13
Nsg14
(lp281
(i__main__
Token
p282
(dp283
g18
I239
sbasg23
I239
sba(i__main__
Mention
p284
(dp285
g7
S't3'
p286
sg9
S'Coreference-Noun-Noun'
p287
sg10
S'i57'
p288
sg12
S'i50'
p289
sg13
Nsg14
(lp290
(i__main__
Token
p291
(dp292
g18
I273
sbasg23
I273
sba(i__main__
Mention
p293
(dp294
g7
S't3'
p295
sg9
S'Anaphora-C'
p296
sg10
S'i58'
p297
sg12
S'i57'
p298
sg13
Nsg14
(lp299
(i__main__
Token
p300
(dp301
g18
I280
sbasg23
I280
sbasg7
g120
sg69
Nsba(i__main__
Chain
p302
(dp303
g3
(lp304
(i__main__
Mention
p305
(dp306
g7
S't4'
p307
sg9
Nsg10
S'i7'
p308
sg12
Nsg13
Nsg14
(lp309
(i__main__
Token
p310
(dp311
g18
I30
sba(i__main__
Token
p312
(dp313
g18
I31
sbasg23
I31
sba(i__main__
Mention
p314
(dp315
g7
S't4'
p316
sg9
S'Coreference-Identity'
p317
sg10
S'i34'
p318
sg12
S'i7'
p319
sg13
Nsg14
(lp320
(i__main__
Token
p321
(dp322
g18
I163
sba(i__main__
Token
p323
(dp324
g18
I164
sbasg23
I164
sba(i__main__
Mention
p325
(dp326
g7
S't4'
p327
sg9
S'Coreference-Identity'
p328
sg10
S'i52'
p329
sg12
S'i34'
p330
sg13
Nsg14
(lp331
(i__main__
Token
p332
(dp333
g18
I245
sba(i__main__
Token
p334
(dp335
g18
I246
sbasg23
I246
sbasg7
g307
sg69
Nsba(i__main__
Chain
p336
(dp337
g3
(lp338
(i__main__
Mention
p339
(dp340
g7
S't5'
p341
sg9
Nsg10
S'i8'
p342
sg12
Nsg13
Nsg14
(lp343
(i__main__
Token
p344
(dp345
g18
I37
sba(i__main__
Token
p346
(dp347
g18
I38
sbasg23
I38
sba(i__main__
Mention
p348
(dp349
g7
S't5'
p350
sg9
S'Coreference-Identity'
p351
sg10
S'i26'
p352
sg12
S'i8'
p353
sg13
Nsg14
(lp354
(i__main__
Token
p355
(dp356
g18
I132
sba(i__main__
Token
p357
(dp358
g18
I133
sbasg23
I133
sba(i__main__
Mention
p359
(dp360
g7
S't5'
p361
sg9
S'Coreference-Identity'
p362
sg10
S'i32'
p363
sg12
S'i26'
p364
sg13
Nsg14
(lp365
(i__main__
Token
p366
(dp367
g18
I155
sba(i__main__
Token
p368
(dp369
g18
I156
sbasg23
I156
sba(i__main__
Mention
p370
(dp371
g7
S't5'
p372
sg9
S'Coreference-Identity'
p373
sg10
S'i46'
p374
sg12
S'i32'
p375
sg13
Nsg14
(lp376
(i__main__
Token
p377
(dp378
g18
I219
sba(i__main__
Token
p379
(dp380
g18
I220
sbasg23
I220
sba(i__main__
Mention
p381
(dp382
g7
S't5'
p383
sg9
S'Coreference-Identity'
p384
sg10
S'i54'
p385
sg12
S'i46'
p386
sg13
Nsg14
(lp387
(i__main__
Token
p388
(dp389
g18
I252
sba(i__main__
Token
p390
(dp391
g18
I253
sbasg23
I253
sbasg7
g341
sg69
Nsba(i__main__
Chain
p392
(dp393
g3
(lp394
(i__main__
Mention
p395
(dp396
g7
S't6'
p397
sg9
Nsg10
S'i9'
p398
sg12
Nsg13
Nsg14
(lp399
(i__main__
Token
p400
(dp401
g18
I40
sbasg23
I40
sba(i__main__
Mention
p402
(dp403
g7
S't6'
p404
sg9
S'Coreference-Identity'
p405
sg10
S'i55'
p406
sg12
S'i9'
p407
sg13
Nsg14
(lp408
(i__main__
Token
p409
(dp410
g18
I255
sbasg23
I255
sbasg7
g397
sg69
Nsba(i__main__
Chain
p411
(dp412
g3
(lp413
(i__main__
Mention
p414
(dp415
g7
S't7'
p416
sg9
Nsg10
S'i10'
p417
sg12
Nsg13
Nsg14
(lp418
(i__main__
Token
p419
(dp420
g18
I43
sba(i__main__
Token
p421
(dp422
g18
I44
sbasg23
I44
sba(i__main__
Mention
p423
(dp424
g7
S't7'
p425
sg9
S'Coreference-Identity'
p426
sg10
S'i28'
p427
sg12
S'i10'
p428
sg13
Nsg14
(lp429
(i__main__
Token
p430
(dp431
g18
I138
sba(i__main__
Token
p432
(dp433
g18
I139
sbasg23
I139
sbasg7
g416
sg69
Nsba(i__main__
Chain
p434
(dp435
g3
(lp436
(i__main__
Mention
p437
(dp438
g7
S't8'
p439
sg9
Nsg10
S'i11'
p440
sg12
Nsg13
Nsg14
(lp441
(i__main__
Token
p442
(dp443
g18
I46
sba(i__main__
Token
p444
(dp445
g18
I47
sbasg23
I47
sba(i__main__
Mention
p446
(dp447
g7
S't8'
p448
sg9
S'Coreference-Identity'
p449
sg10
S'i56'
p450
sg12
S'i11'
p451
sg13
Nsg14
(lp452
(i__main__
Token
p453
(dp454
g18
I261
sba(i__main__
Token
p455
(dp456
g18
I262
sbasg23
I262
sbasg7
g439
sg69
Nsba(i__main__
Chain
p457
(dp458
g3
(lp459
(i__main__
Mention
p460
(dp461
g7
S't9'
p462
sg9
Nsg10
S'i13'
p463
sg12
Nsg13
Nsg14
(lp464
(i__main__
Token
p465
(dp466
g18
I59
sbasg23
I59
sba(i__main__
Mention
p467
(dp468
g7
S't9'
p469
sg9
S'Anaphora-E'
p470
sg10
S'i14'
p471
sg12
S'i13'
p472
sg13
Nsg14
(lp473
(i__main__
Token
p474
(dp475
g18
I64
sba(i__main__
Token
p476
(dp477
g18
I65
sba(i__main__
Token
p478
(dp479
g18
I66
sba(i__main__
Token
p480
(dp481
g18
I67
sba(i__main__
Token
p482
(dp483
g18
I68
sba(i__main__
Token
p484
(dp485
g18
I69
sba(i__main__
Token
p486
(dp487
g18
I70
sba(i__main__
Token
p488
(dp489
g18
I71
sba(i__main__
Token
p490
(dp491
g18
I72
sba(i__main__
Token
p492
(dp493
g18
I73
sba(i__main__
Token
p494
(dp495
g18
I74
sba(i__main__
Token
p496
(dp497
g18
I75
sba(i__main__
Token
p498
(dp499
g18
I76
sba(i__main__
Token
p500
(dp501
g18
I77
sba(i__main__
Token
p502
(dp503
g18
I78
sbasg23
I77
sbasg7
g462
sg69
Nsba(i__main__
Chain
p504
(dp505
g3
(lp506
(i__main__
Mention
p507
(dp508
g7
S't10'
p509
sg9
Nsg10
S'i25'
p510
sg12
Nsg13
Nsg14
(lp511
(i__main__
Token
p512
(dp513
g18
I127
sba(i__main__
Token
p514
(dp515
g18
I128
sbasg23
I128
sba(i__main__
Mention
p516
(dp517
g7
S't10'
p518
sg9
S'Coreference-Identity'
p519
sg10
S'i31'
p520
sg12
S'i25'
p521
sg13
Nsg14
(lp522
(i__main__
Token
p523
(dp524
g18
I152
sba(i__main__
Token
p525
(dp526
g18
I153
sbasg23
I153
sba(i__main__
Mention
p527
(dp528
g7
S't10'
p529
sg9
S'Coreference-Identity'
p530
sg10
S'i36'
p531
sg12
S'i31'
p532
sg13
Nsg14
(lp533
(i__main__
Token
p534
(dp535
g18
I170
sba(i__main__
Token
p536
(dp537
g18
I171
sbasg23
I171
sba(i__main__
Mention
p538
(dp539
g7
S't10'
p540
sg9
S'Coreference-Identity'
p541
sg10
S'i44'
p542
sg12
S'i36'
p543
sg13
Nsg14
(lp544
(i__main__
Token
p545
(dp546
g18
I215
sba(i__main__
Token
p547
(dp548
g18
I216
sbasg23
I216
sba(i__main__
Mention
p549
(dp550
g7
S't10'
p551
sg9
S'Anaphora-C'
p552
sg10
S'i47'
p553
sg12
S'i44'
p554
sg13
Nsg14
(lp555
(i__main__
Token
p556
(dp557
g18
I224
sbasg23
I224
sbasg7
g509
sg69
Nsba(i__main__
Chain
p558
(dp559
g3
(lp560
(i__main__
Mention
p561
(dp562
g7
S't11'
p563
sg9
Nsg10
S'i27'
p564
sg12
Nsg13
Nsg14
(lp565
(i__main__
Token
p566
(dp567
g18
I135
sbasg23
I135
sba(i__main__
Mention
p568
(dp569
g7
S't11'
p570
sg9
S'Coreference-Identity'
p571
sg10
S'i33'
p572
sg12
S'i27'
p573
sg13
Nsg14
(lp574
(i__main__
Token
p575
(dp576
g18
I158
sbasg23
I158
sbasg7
g563
sg69
Nsba(i__main__
Chain
p577
(dp578
g3
(lp579
(i__main__
Mention
p580
(dp581
g7
S't12'
p582
sg9
Nsg10
S'i41'
p583
sg12
Nsg13
Nsg14
(lp584
(i__main__
Token
p585
(dp586
g18
I207
sbasg23
I207
sba(i__main__
Mention
p587
(dp588
g7
S't12'
p589
sg9
S'Anaphora-T'
p590
sg10
S'i43'
p591
sg12
S'i41'
p592
sg13
Nsg14
(lp593
(i__main__
Token
p594
(dp595
g18
I213
sbasg23
I213
sbasg7
g582
sg69
Nsba(i__main__
Chain
p596
(dp597
g3
(lp598
(i__main__
Mention
p599
(dp600
g7
S't13'
p601
sg9
Nsg10
S'i48'
p602
sg12
Nsg13
Nsg14
(lp603
(i__main__
Token
p604
(dp605
g18
I227
sbasg23
I227
sbasg7
g601
sg69
Nsba(i__main__
Chain
p606
(dp607
g3
(lp608
(i__main__
Mention
p609
(dp610
g7
S't14'
p611
sg9
Nsg10
S'i51'
p612
sg12
Nsg13
Nsg14
(lp613
(i__main__
Token
p614
(dp615
g18
I240
sbasg23
I240
sba(i__main__
Mention
p616
(dp617
g7
S't14'
p618
sg9
S'Anaphora-RE'
p619
sg10
S'i53'
p620
sg12
S'i51'
p621
sg13
Nsg14
(lp622
(i__main__
Token
p623
(dp624
g18
I245
sba(i__main__
Token
p625
(dp626
g18
I246
sba(i__main__
Token
p627
(dp628
g18
I247
sba(i__main__
Token
p629
(dp630
g18
I248
sba(i__main__
Token
p631
(dp632
g18
I249
sba(i__main__
Token
p633
(dp634
g18
I250
sba(i__main__
Token
p635
(dp636
g18
I251
sba(i__main__
Token
p637
(dp638
g18
I252
sba(i__main__
Token
p639
(dp640
g18
I253
sba(i__main__
Token
p641
(dp642
g18
I254
sba(i__main__
Token
p643
(dp644
g18
I255
sba(i__main__
Token
p645
(dp646
g18
I256
sba(i__main__
Token
p647
(dp648
g18
I257
sba(i__main__
Token
p649
(dp650
g18
I258
sba(i__main__
Token
p651
(dp652
g18
I259
sba(i__main__
Token
p653
(dp654
g18
I260
sba(i__main__
Token
p655
(dp656
g18
I261
sba(i__main__
Token
p657
(dp658
g18
I262
sba(i__main__
Token
p659
(dp660
g18
I263
sba(i__main__
Token
p661
(dp662
g18
I264
sba(i__main__
Token
p663
(dp664
g18
I265
sba(i__main__
Token
p665
(dp666
g18
I266
sba(i__main__
Token
p667
(dp668
g18
I267
sba(i__main__
Token
p669
(dp670
g18
I268
sba(i__main__
Token
p671
(dp672
g18
I269
sba(i__main__
Token
p673
(dp674
g18
I270
sba(i__main__
Token
p675
(dp676
g18
I271
sbasg23
I271
sbasg7
g611
sg69
Nsba.