(lp0
(i__main__
Chain
p1
(dp2
S'mentionList'
p3
(lp4
(i__main__
Mention
p5
(dp6
S'chainId'
p7
S't1'
p8
sS'relType'
p9
NsS'mentionId'
p10
S'i1'
p11
sS'antecedentId'
p12
NsS'crefMod'
p13
NsS'tokenList'
p14
(lp15
(i__main__
Token
p16
(dp17
S'tokenId'
p18
I0
sba(i__main__
Token
p19
(dp20
g18
I1
sbasS'mentionHead'
p21
I1
sba(i__main__
Mention
p22
(dp23
g7
S't1'
p24
sg9
S'Coreference-Identity'
p25
sg10
S'i17'
p26
sg12
S'i1'
p27
sg13
Nsg14
(lp28
(i__main__
Token
p29
(dp30
g18
I69
sbasg21
I69
sba(i__main__
Mention
p31
(dp32
g7
S't1'
p33
sg9
S'Coreference-Identity'
p34
sg10
S'i30'
p35
sg12
S'i17'
p36
sg13
Nsg14
(lp37
(i__main__
Token
p38
(dp39
g18
I129
sbasg21
I129
sba(i__main__
Mention
p40
(dp41
g7
S't1'
p42
sg9
S'Coreference-Identity'
p43
sg10
S'i33'
p44
sg12
S'i30'
p45
sg13
Nsg14
(lp46
(i__main__
Token
p47
(dp48
g18
I176
sbasg21
I176
sbasg7
g8
sS'chainHead'
p49
Nsba(i__main__
Chain
p50
(dp51
g3
(lp52
(i__main__
Mention
p53
(dp54
g7
S't2'
p55
sg9
Nsg10
S'i2'
p56
sg12
Nsg13
Nsg14
(lp57
(i__main__
Token
p58
(dp59
g18
I5
sba(i__main__
Token
p60
(dp61
g18
I6
sba(i__main__
Token
p62
(dp63
g18
I7
sbasg21
I7
sba(i__main__
Mention
p64
(dp65
g7
S't2'
p66
sg9
S'Coreference-Identity'
p67
sg10
S'i31'
p68
sg12
S'i2'
p69
sg13
Nsg14
(lp70
(i__main__
Token
p71
(dp72
g18
I131
sba(i__main__
Token
p73
(dp74
g18
I132
sbasg21
I132
sba(i__main__
Mention
p75
(dp76
g7
S't2'
p77
sg9
S'Coreference-Identity'
p78
sg10
S'i32'
p79
sg12
S'i31'
p80
sg13
Nsg14
(lp81
(i__main__
Token
p82
(dp83
g18
I165
sba(i__main__
Token
p84
(dp85
g18
I166
sbasg21
I166
sbasg7
g55
sg49
Nsba(i__main__
Chain
p86
(dp87
g3
(lp88
(i__main__
Mention
p89
(dp90
g7
S't3'
p91
sg9
Nsg10
S'i3'
p92
sg12
Nsg13
Nsg14
(lp93
(i__main__
Token
p94
(dp95
g18
I9
sba(i__main__
Token
p96
(dp97
g18
I10
sbasg21
I10
sba(i__main__
Mention
p98
(dp99
g7
S't3'
p100
sg9
S'Coreference-Noun-Noun'
p101
sg10
S'i4'
p102
sg12
S'i3'
p103
sg13
Nsg14
(lp104
(i__main__
Token
p105
(dp106
g18
I12
sba(i__main__
Token
p107
(dp108
g18
I13
sbasg21
I13
sba(i__main__
Mention
p109
(dp110
g7
S't3'
p111
sg9
S'Coreference-NounComplement'
p112
sg10
S'i5'
p113
sg12
S'i4'
p114
sg13
Nsg14
(lp115
(i__main__
Token
p116
(dp117
g18
I14
sba(i__main__
Token
p118
(dp119
g18
I15
sba(i__main__
Token
p120
(dp121
g18
I16
sbasg21
I16
sbasg7
g91
sg49
Nsba(i__main__
Chain
p122
(dp123
g3
(lp124
(i__main__
Mention
p125
(dp126
g7
S't4'
p127
sg9
Nsg10
S'i6'
p128
sg12
Nsg13
Nsg14
(lp129
(i__main__
Token
p130
(dp131
g18
I28
sba(i__main__
Token
p132
(dp133
g18
I29
sba(i__main__
Token
p134
(dp135
g18
I30
sbasg21
I30
sba(i__main__
Mention
p136
(dp137
g7
S't4'
p138
sg9
S'Coreference-NounComplement'
p139
sg10
S'i7'
p140
sg12
S'i37'
p141
sg13
Nsg14
(lp142
(i__main__
Token
p143
(dp144
g18
I31
sba(i__main__
Token
p145
(dp146
g18
I32
sbasg21
I32
sba(i__main__
Mention
p147
(dp148
g7
S't4'
p149
sg9
S'Coreference-Identity'
p150
sg10
S'i16'
p151
sg12
S'i7'
p152
sg13
Nsg14
(lp153
(i__main__
Token
p154
(dp155
g18
I60
sbasg21
I60
sba(i__main__
Mention
p156
(dp157
g7
S't4'
p158
sg9
S'Coreference-Identity'
p159
sg10
S'i25'
p160
sg12
S'i16'
p161
sg13
Nsg14
(lp162
(i__main__
Token
p163
(dp164
g18
I113
sbasg21
I113
sba(i__main__
Mention
p165
(dp166
g7
S't4'
p167
sg9
S'Anaphora-C'
p168
sg10
S'i27'
p169
sg12
S'i25'
p170
sg13
Nsg14
(lp171
(i__main__
Token
p172
(dp173
g18
I121
sbasg21
I121
sbasg7
g127
sg49
Nsba(i__main__
Chain
p174
(dp175
g3
(lp176
(i__main__
Mention
p177
(dp178
g7
S't5'
p179
sg9
Nsg10
S'i9'
p180
sg12
Nsg13
Nsg14
(lp181
(i__main__
Token
p182
(dp183
g18
I43
sbasg21
I43
sba(i__main__
Mention
p184
(dp185
g7
S't5'
p186
sg9
S'Coreference-NounComplement'
p187
sg10
S'i11'
p188
sg12
S'i9'
p189
sg13
Nsg14
(lp190
(i__main__
Token
p191
(dp192
g18
I44
sba(i__main__
Token
p193
(dp194
g18
I45
sba(i__main__
Token
p195
(dp196
g18
I46
sbasg21
I46
sbasg7
g179
sg49
Nsba(i__main__
Chain
p197
(dp198
g3
(lp199
(i__main__
Mention
p200
(dp201
g7
S't6'
p202
sg9
Nsg10
S'i10'
p203
sg12
Nsg13
Nsg14
(lp204
(i__main__
Token
p205
(dp206
g18
I43
sba(i__main__
Token
p207
(dp208
g18
I44
sba(i__main__
Token
p209
(dp210
g18
I45
sba(i__main__
Token
p211
(dp212
g18
I46
sba(i__main__
Token
p213
(dp214
g18
I47
sba(i__main__
Token
p215
(dp216
g18
I48
sba(i__main__
Token
p217
(dp218
g18
I49
sba(i__main__
Token
p219
(dp220
g18
I50
sba(i__main__
Token
p221
(dp222
g18
I51
sba(i__main__
Token
p223
(dp224
g18
I52
sba(i__main__
Token
p225
(dp226
g18
I53
sba(i__main__
Token
p227
(dp228
g18
I54
sba(i__main__
Token
p229
(dp230
g18
I55
sba(i__main__
Token
p231
(dp232
g18
I56
sba(i__main__
Token
p233
(dp234
g18
I57
sba(i__main__
Token
p235
(dp236
g18
I58
sbasg21
I58
sba(i__main__
Mention
p237
(dp238
g7
S't6'
p239
sg9
S'Coreference-Identity'
p240
sg10
S'i23'
p241
sg12
S'i10'
p242
sg13
Nsg14
(lp243
(i__main__
Token
p244
(dp245
g18
I92
sbasg21
I92
sba(i__main__
Mention
p246
(dp247
g7
S't6'
p248
sg9
S'Coreference-Identity'
p249
sg10
S'i34'
p250
sg12
S'i23'
p251
sg13
Nsg14
(lp252
(i__main__
Token
p253
(dp254
g18
I185
sbasg21
I185
sbasg7
g202
sg49
Nsba(i__main__
Chain
p255
(dp256
g3
(lp257
(i__main__
Mention
p258
(dp259
g7
S't7'
p260
sg9
Nsg10
S'i12'
p261
sg12
Nsg13
Nsg14
(lp262
(i__main__
Token
p263
(dp264
g18
I48
sbasg21
I48
sba(i__main__
Mention
p265
(dp266
g7
S't7'
p267
sg9
S'Coreference-NounComplement'
p268
sg10
S'i13'
p269
sg12
S'i12'
p270
sg13
Nsg14
(lp271
(i__main__
Token
p272
(dp273
g18
I49
sba(i__main__
Token
p274
(dp275
g18
I50
sba(i__main__
Token
p276
(dp277
g18
I51
sbasg21
I51
sbasg7
g260
sg49
Nsba(i__main__
Chain
p278
(dp279
g3
(lp280
(i__main__
Mention
p281
(dp282
g7
S't8'
p283
sg9
Nsg10
S'i14'
p284
sg12
Nsg13
Nsg14
(lp285
(i__main__
Token
p286
(dp287
g18
I53
sbasg21
I53
sba(i__main__
Mention
p288
(dp289
g7
S't8'
p290
sg9
S'Coreference-NounComplement'
p291
sg10
S'i15'
p292
sg12
S'i14'
p293
sg13
Nsg14
(lp294
(i__main__
Token
p295
(dp296
g18
I54
sba(i__main__
Token
p297
(dp298
g18
I55
sba(i__main__
Token
p299
(dp300
g18
I56
sbasg21
I56
sbasg7
g283
sg49
Nsba(i__main__
Chain
p301
(dp302
g3
(lp303
(i__main__
Mention
p304
(dp305
g7
S't9'
p306
sg9
Nsg10
S'i18'
p307
sg12
Nsg13
Nsg14
(lp308
(i__main__
Token
p309
(dp310
g18
I74
sba(i__main__
Token
p311
(dp312
g18
I75
sba(i__main__
Token
p313
(dp314
g18
I76
sba(i__main__
Token
p315
(dp316
g18
I77
sba(i__main__
Token
p317
(dp318
g18
I78
sba(i__main__
Token
p319
(dp320
g18
I79
sba(i__main__
Token
p321
(dp322
g18
I80
sba(i__main__
Token
p323
(dp324
g18
I81
sba(i__main__
Token
p325
(dp326
g18
I82
sba(i__main__
Token
p327
(dp328
g18
I83
sba(i__main__
Token
p329
(dp330
g18
I84
sba(i__main__
Token
p331
(dp332
g18
I85
sba(i__main__
Token
p333
(dp334
g18
I86
sba(i__main__
Token
p335
(dp336
g18
I87
sbasg21
I85
sba(i__main__
Mention
p337
(dp338
g7
S't9'
p339
sg9
S'Anaphora-C'
p340
sg10
S'i21'
p341
sg12
S'i18'
p342
sg13
Nsg14
(lp343
(i__main__
Token
p344
(dp345
g18
I89
sbasg21
I89
sbasg7
g306
sg49
Nsba(i__main__
Chain
p346
(dp347
g3
(lp348
(i__main__
Mention
p349
(dp350
g7
S't10'
p351
sg9
S'anaphora-C'
p352
sg10
S'i19'
p353
sg12
S'i20'
p354
sg13
Nsg14
(lp355
(i__main__
Token
p356
(dp357
g18
I83
sbasg21
I83
sbasg7
g351
sg49
Nsba(i__main__
Chain
p358
(dp359
g3
(lp360
(i__main__
Mention
p361
(dp362
g7
S't11'
p363
sg9
S'anaphora-?'
p364
sg10
S'i24'
p365
sg12
S'i24'
p366
sg13
Nsg14
(lp367
(i__main__
Token
p368
(dp369
g18
I97
sbasg21
I97
sbasg7
g363
sg49
Nsba(i__main__
Chain
p370
(dp371
g3
(lp372
(i__main__
Mention
p373
(dp374
g7
S't12'
p375
sg9
S'anaphora-?'
p376
sg10
S'i26'
p377
sg12
S'i26'
p378
sg13
Nsg14
(lp379
(i__main__
Token
p380
(dp381
g18
I120
sbasg21
I120
sbasg7
g375
sg49
Nsba(i__main__
Chain
p382
(dp383
g3
(lp384
(i__main__
Mention
p385
(dp386
g7
S't13'
p387
sg9
S'anaphora-E'
p388
sg10
S'i28'
p389
sg12
S'i29'
p390
sg13
Nsg14
(lp391
(i__main__
Token
p392
(dp393
g18
I127
sbasg21
I127
sbasg7
g387
sg49
Nsba(i__main__
Chain
p394
(dp395
g3
(lp396
(i__main__
Mention
p397
(dp398
g7
S't14'
p399
sg9
Nsg10
S'i35'
p400
sg12
Nsg13
Nsg14
(lp401
(i__main__
Token
p402
(dp403
g18
I191
sba(i__main__
Token
p404
(dp405
g18
I192
sbasg21
I192
sba(i__main__
Mention
p406
(dp407
g7
S't14'
p408
sg9
S'Coreference-NounComplement'
p409
sg10
S'i36'
p410
sg12
S'i35'
p411
sg13
Nsg14
(lp412
(i__main__
Token
p413
(dp414
g18
I193
sba(i__main__
Token
p415
(dp416
g18
I194
sba(i__main__
Token
p417
(dp418
g18
I195
sbasg21
I195
sbasg7
g399
sg49
Nsba.