(lp0
(i__main__
Chain
p1
(dp2
S'mentionList'
p3
(lp4
(i__main__
Mention
p5
(dp6
S'chainId'
p7
S't1'
p8
sS'relType'
p9
NsS'mentionId'
p10
S'i1'
p11
sS'antecedentId'
p12
NsS'crefMod'
p13
NsS'tokenList'
p14
(lp15
(i__main__
Token
p16
(dp17
S'tokenId'
p18
I0
sbasS'mentionHead'
p19
I0
sba(i__main__
Mention
p20
(dp21
g7
S't1'
p22
sg9
S'Coreference-NounComplement'
p23
sg10
S'i2'
p24
sg12
S'i1'
p25
sg13
Nsg14
(lp26
(i__main__
Token
p27
(dp28
g18
I1
sba(i__main__
Token
p29
(dp30
g18
I2
sba(i__main__
Token
p31
(dp32
g18
I3
sba(i__main__
Token
p33
(dp34
g18
I4
sbasg19
I4
sba(i__main__
Mention
p35
(dp36
g7
S't1'
p37
sg9
S'Coreference-Noun-Noun'
p38
sg10
S'i25'
p39
sg12
S'i2'
p40
sg13
Nsg14
(lp41
(i__main__
Token
p42
(dp43
g18
I88
sbasg19
I88
sba(i__main__
Mention
p44
(dp45
g7
S't1'
p46
sg9
S'Coreference-Identity'
p47
sg10
S'i27'
p48
sg12
S'i25'
p49
sg13
Nsg14
(lp50
(i__main__
Token
p51
(dp52
g18
I95
sbasg19
I95
sbasg7
g8
sS'chainHead'
p53
Nsba(i__main__
Chain
p54
(dp55
g3
(lp56
(i__main__
Mention
p57
(dp58
g7
S't2'
p59
sg9
Nsg10
S'i3'
p60
sg12
Nsg13
Nsg14
(lp61
(i__main__
Token
p62
(dp63
g18
I6
sba(i__main__
Token
p64
(dp65
g18
I7
sba(i__main__
Token
p66
(dp67
g18
I8
sbasg19
I8
sba(i__main__
Mention
p68
(dp69
g7
S't2'
p70
sg9
S'Coreference-Noun-Noun'
p71
sg10
S'i9'
p72
sg12
S'i3'
p73
sg13
Nsg14
(lp74
(i__main__
Token
p75
(dp76
g18
I29
sba(i__main__
Token
p77
(dp78
g18
I30
sbasg19
I30
sba(i__main__
Mention
p79
(dp80
g7
S't2'
p81
sg9
S'Coreference-NounComplement'
p82
sg10
S'i10'
p83
sg12
S'i9'
p84
sg13
Nsg14
(lp85
(i__main__
Token
p86
(dp87
g18
I31
sba(i__main__
Token
p88
(dp89
g18
I32
sbasg19
I32
sba(i__main__
Mention
p90
(dp91
g7
S't2'
p92
sg9
S'Anaphora-C'
p93
sg10
S'i16'
p94
sg12
S'i10'
p95
sg13
Nsg14
(lp96
(i__main__
Token
p97
(dp98
g18
I48
sbasg19
I48
sba(i__main__
Mention
p99
(dp100
g7
S't2'
p101
sg9
S'Coreference-Identity'
p102
sg10
S'i24'
p103
sg12
S'i16'
p104
sg13
Nsg14
(lp105
(i__main__
Token
p106
(dp107
g18
I84
sbasg19
I84
sba(i__main__
Mention
p108
(dp109
g7
S't2'
p110
sg9
S'Anaphora-C'
p111
sg10
S'i26'
p112
sg12
S'i24'
p113
sg13
Nsg14
(lp114
(i__main__
Token
p115
(dp116
g18
I94
sbasg19
I94
sba(i__main__
Mention
p117
(dp118
g7
S't2'
p119
sg9
S'Anaphora-C'
p120
sg10
S'i30'
p121
sg12
S'i26'
p122
sg13
Nsg14
(lp123
(i__main__
Token
p124
(dp125
g18
I112
sbasg19
I112
sba(i__main__
Mention
p126
(dp127
g7
S't2'
p128
sg9
S'Anaphora-C'
p129
sg10
S'i31'
p130
sg12
S'i30'
p131
sg13
Nsg14
(lp132
(i__main__
Token
p133
(dp134
g18
I115
sbasg19
I115
sbasg7
g59
sg53
Nsba(i__main__
Chain
p135
(dp136
g3
(lp137
(i__main__
Mention
p138
(dp139
g7
S't3'
p140
sg9
Nsg10
S'i4'
p141
sg12
Nsg13
Nsg14
(lp142
(i__main__
Token
p143
(dp144
g18
I6
sba(i__main__
Token
p145
(dp146
g18
I7
sba(i__main__
Token
p147
(dp148
g18
I8
sba(i__main__
Token
p149
(dp150
g18
I9
sba(i__main__
Token
p151
(dp152
g18
I10
sba(i__main__
Token
p153
(dp154
g18
I11
sba(i__main__
Token
p155
(dp156
g18
I12
sba(i__main__
Token
p157
(dp158
g18
I13
sba(i__main__
Token
p159
(dp160
g18
I14
sbasg19
I14
sba(i__main__
Mention
p161
(dp162
g7
S't3'
p163
sg9
S'Coreference-Identity'
p164
sg10
S'i19'
p165
sg12
S'i4'
p166
sg13
Nsg14
(lp167
(i__main__
Token
p168
(dp169
g18
I63
sbasg19
I63
sba(i__main__
Mention
p170
(dp171
g7
S't3'
p172
sg9
S'Coreference-Identity'
p173
sg10
S'i22'
p174
sg12
S'i19'
p175
sg13
Nsg14
(lp176
(i__main__
Token
p177
(dp178
g18
I74
sbasg19
I74
sba(i__main__
Mention
p179
(dp180
g7
S't3'
p181
sg9
S'Coreference-Identity'
p182
sg10
S'i32'
p183
sg12
S'i22'
p184
sg13
Nsg14
(lp185
(i__main__
Token
p186
(dp187
g18
I116
sbasg19
I116
sba(i__main__
Mention
p188
(dp189
g7
S't3'
p190
sg9
S'Coreference-Identity'
p191
sg10
S'i37'
p192
sg12
S'i32'
p193
sg13
Nsg14
(lp194
(i__main__
Token
p195
(dp196
g18
I133
sbasg19
I133
sbasg7
g140
sg53
Nsba(i__main__
Chain
p197
(dp198
g3
(lp199
(i__main__
Mention
p200
(dp201
g7
S't4'
p202
sg9
Nsg10
S'i5'
p203
sg12
Nsg13
Nsg14
(lp204
(i__main__
Token
p205
(dp206
g18
I15
sbasg19
I15
sba(i__main__
Mention
p207
(dp208
g7
S't4'
p209
sg9
S'Coreference-Identity'
p210
sg10
S'i11'
p211
sg12
S'i5'
p212
sg13
Nsg14
(lp213
(i__main__
Token
p214
(dp215
g18
I34
sbasg19
I34
sbasg7
g202
sg53
Nsba(i__main__
Chain
p216
(dp217
g3
(lp218
(i__main__
Mention
p219
(dp220
g7
S't5'
p221
sg9
Nsg10
S'i6'
p222
sg12
Nsg13
Nsg14
(lp223
(i__main__
Token
p224
(dp225
g18
I20
sbasg19
I20
sba(i__main__
Mention
p226
(dp227
g7
S't5'
p228
sg9
S'Coreference-Identity'
p229
sg10
S'i12'
p230
sg12
S'i6'
p231
sg13
Nsg14
(lp232
(i__main__
Token
p233
(dp234
g18
I36
sbasg19
I36
sbasg7
g221
sg53
Nsba(i__main__
Chain
p235
(dp236
g3
(lp237
(i__main__
Mention
p238
(dp239
g7
S't6'
p240
sg9
Nsg10
S'i7'
p241
sg12
Nsg13
Nsg14
(lp242
(i__main__
Token
p243
(dp244
g18
I23
sbasg19
I23
sba(i__main__
Mention
p245
(dp246
g7
S't6'
p247
sg9
S'Coreference-Noun-Noun'
p248
sg10
S'i17'
p249
sg12
S'i7'
p250
sg13
Nsg14
(lp251
(i__main__
Token
p252
(dp253
g18
I52
sba(i__main__
Token
p254
(dp255
g18
I53
sba(i__main__
Token
p256
(dp257
g18
I54
sba(i__main__
Token
p258
(dp259
g18
I55
sbasg19
I55
sba(i__main__
Mention
p260
(dp261
g7
S't6'
p262
sg9
S'Coreference-Noun-Noun'
p263
sg10
S'i28'
p264
sg12
S'i17'
p265
sg13
Nsg14
(lp266
(i__main__
Token
p267
(dp268
g18
I103
sbasg19
I103
sbasg7
g240
sg53
Nsba(i__main__
Chain
p269
(dp270
g3
(lp271
(i__main__
Mention
p272
(dp273
g7
S't7'
p274
sg9
Nsg10
S'i8'
p275
sg12
Nsg13
Nsg14
(lp276
(i__main__
Token
p277
(dp278
g18
I25
sbasg19
I25
sba(i__main__
Mention
p279
(dp280
g7
S't7'
p281
sg9
S'Coreference-Identity'
p282
sg10
S'i13'
p283
sg12
S'i8'
p284
sg13
Nsg14
(lp285
(i__main__
Token
p286
(dp287
g18
I39
sbasg19
I39
sba(i__main__
Mention
p288
(dp289
g7
S't7'
p290
sg9
S'Coreference-Identity'
p291
sg10
S'i20'
p292
sg12
S'i13'
p293
sg13
Nsg14
(lp294
(i__main__
Token
p295
(dp296
g18
I64
sbasg19
I64
sba(i__main__
Mention
p297
(dp298
g7
S't7'
p299
sg9
S'Coreference-Identity'
p300
sg10
S'i21'
p301
sg12
S'i20'
p302
sg13
Nsg14
(lp303
(i__main__
Token
p304
(dp305
g18
I72
sbasg19
I72
sbasg7
g274
sg53
Nsba(i__main__
Chain
p306
(dp307
g3
(lp308
(i__main__
Mention
p309
(dp310
g7
S't8'
p311
sg9
Nsg10
S'i14'
p312
sg12
Nsg13
Nsg14
(lp313
(i__main__
Token
p314
(dp315
g18
I41
sbasg19
I41
sba(i__main__
Mention
p316
(dp317
g7
S't8'
p318
sg9
S'Coreference-Identity'
p319
sg10
S'i15'
p320
sg12
S'i14'
p321
sg13
Nsg14
(lp322
(i__main__
Token
p323
(dp324
g18
I46
sbasg19
I46
sbasg7
g311
sg53
Nsba(i__main__
Chain
p325
(dp326
g3
(lp327
(i__main__
Mention
p328
(dp329
g7
S't9'
p330
sg9
Nsg10
S'i18'
p331
sg12
Nsg13
Nsg14
(lp332
(i__main__
Token
p333
(dp334
g18
I54
sbasg19
I54
sba(i__main__
Mention
p335
(dp336
g7
S't9'
p337
sg9
S'Coreference-Identity'
p338
sg10
S'i29'
p339
sg12
S'i18'
p340
sg13
Nsg14
(lp341
(i__main__
Token
p342
(dp343
g18
I107
sbasg19
I107
sba(i__main__
Mention
p344
(dp345
g7
S't9'
p346
sg9
S'Coreference-Identity'
p347
sg10
S'i36'
p348
sg12
S'i29'
p349
sg13
Nsg14
(lp350
(i__main__
Token
p351
(dp352
g18
I128
sbasg19
I128
sbasg7
g330
sg53
Nsba(i__main__
Chain
p353
(dp354
g3
(lp355
(i__main__
Mention
p356
(dp357
g7
S't10'
p358
sg9
Nsg10
S'i23'
p359
sg12
Nsg13
Nsg14
(lp360
(i__main__
Token
p361
(dp362
g18
I76
sbasg19
I76
sba(i__main__
Mention
p363
(dp364
g7
S't10'
p365
sg9
S'Coreference-Identity'
p366
sg10
S'i34'
p367
sg12
S'i23'
p368
sg13
Nsg14
(lp369
(i__main__
Token
p370
(dp371
g18
I120
sbasg19
I120
sbasg7
g358
sg53
Nsba(i__main__
Chain
p372
(dp373
g3
(lp374
(i__main__
Mention
p375
(dp376
g7
S't11'
p377
sg9
Nsg10
S'i33'
p378
sg12
Nsg13
Nsg14
(lp379
(i__main__
Token
p380
(dp381
g18
I118
sbasg19
I118
sba(i__main__
Mention
p382
(dp383
g7
S't11'
p384
sg9
S'Coreference-Identity'
p385
sg10
S'i35'
p386
sg12
S'i33'
p387
sg13
Nsg14
(lp388
(i__main__
Token
p389
(dp390
g18
I123
sbasg19
I123
sbasg7
g377
sg53
Nsba.