(lp0
(i__main__
Chain
p1
(dp2
S'mentionList'
p3
(lp4
(i__main__
Mention
p5
(dp6
S'chainId'
p7
S't1'
p8
sS'relType'
p9
NsS'mentionId'
p10
S'i1'
p11
sS'antecedentId'
p12
NsS'crefMod'
p13
NsS'tokenList'
p14
(lp15
(i__main__
Token
p16
(dp17
S'tokenId'
p18
I0
sba(i__main__
Token
p19
(dp20
g18
I1
sba(i__main__
Token
p21
(dp22
g18
I2
sbasS'mentionHead'
p23
I2
sba(i__main__
Mention
p24
(dp25
g7
S't1'
p26
sg9
S'Coreference-NounComplement'
p27
sg10
S'i3'
p28
sg12
S'i1'
p29
sg13
Nsg14
(lp30
(i__main__
Token
p31
(dp32
g18
I3
sba(i__main__
Token
p33
(dp34
g18
I4
sbasg23
I4
sba(i__main__
Mention
p35
(dp36
g7
S't1'
p37
sg9
S'Anaphora-C'
p38
sg10
S'i9'
p39
sg12
S'i3'
p40
sg13
Nsg14
(lp41
(i__main__
Token
p42
(dp43
g18
I37
sbasg23
I37
sba(i__main__
Mention
p44
(dp45
g7
S't1'
p46
sg9
S'Coreference-Identity'
p47
sg10
S'i14'
p48
sg12
S'i9'
p49
sg13
Nsg14
(lp50
(i__main__
Token
p51
(dp52
g18
I57
sbasg23
I57
sba(i__main__
Mention
p53
(dp54
g7
S't1'
p55
sg9
S'Anaphora-C'
p56
sg10
S'i21'
p57
sg12
S'i14'
p58
sg13
Nsg14
(lp59
(i__main__
Token
p60
(dp61
g18
I81
sbasg23
I81
sba(i__main__
Mention
p62
(dp63
g7
S't1'
p64
sg9
S'Anaphora-C'
p65
sg10
S'i25'
p66
sg12
S'i21'
p67
sg13
Nsg14
(lp68
(i__main__
Token
p69
(dp70
g18
I94
sbasg23
I94
sba(i__main__
Mention
p71
(dp72
g7
S't1'
p73
sg9
S'Anaphora-C'
p74
sg10
S'i26'
p75
sg12
S'i25'
p76
sg13
Nsg14
(lp77
(i__main__
Token
p78
(dp79
g18
I97
sbasg23
I97
sba(i__main__
Mention
p80
(dp81
g7
S't1'
p82
sg9
S'Anaphora-C'
p83
sg10
S'i27'
p84
sg12
S'i26'
p85
sg13
Nsg14
(lp86
(i__main__
Token
p87
(dp88
g18
I105
sbasg23
I105
sba(i__main__
Mention
p89
(dp90
g7
S't1'
p91
sg9
S'Anaphora-C'
p92
sg10
S'i32'
p93
sg12
S'i27'
p94
sg13
Nsg14
(lp95
(i__main__
Token
p96
(dp97
g18
I133
sbasg23
I133
sba(i__main__
Mention
p98
(dp99
g7
S't1'
p100
sg9
S'Anaphora-C'
p101
sg10
S'i36'
p102
sg12
S'i32'
p103
sg13
Nsg14
(lp104
(i__main__
Token
p105
(dp106
g18
I146
sbasg23
I146
sbasg7
g8
sS'chainHead'
p107
Nsba(i__main__
Chain
p108
(dp109
g3
(lp110
(i__main__
Mention
p111
(dp112
g7
S't2'
p113
sg9
Nsg10
S'i2'
p114
sg12
Nsg13
Nsg14
(lp115
(i__main__
Token
p116
(dp117
g18
I1
sbasg23
I1
sba(i__main__
Mention
p118
(dp119
g7
S't2'
p120
sg9
S'Coreference-Identity'
p121
sg10
S'i7'
p122
sg12
S'i2'
p123
sg13
Nsg14
(lp124
(i__main__
Token
p125
(dp126
g18
I14
sbasg23
I14
sba(i__main__
Mention
p127
(dp128
g7
S't2'
p129
sg9
S'Coreference-Identity'
p130
sg10
S'i37'
p131
sg12
S'i7'
p132
sg13
Nsg14
(lp133
(i__main__
Token
p134
(dp135
g18
I162
sbasg23
I162
sba(i__main__
Mention
p136
(dp137
g7
S't2'
p138
sg9
S'Coreference-Identity'
p139
sg10
S'i46'
p140
sg12
S'i37'
p141
sg13
Nsg14
(lp142
(i__main__
Token
p143
(dp144
g18
I207
sbasg23
I207
sbasg7
g113
sg107
Nsba(i__main__
Chain
p145
(dp146
g3
(lp147
(i__main__
Mention
p148
(dp149
g7
S't3'
p150
sg9
Nsg10
S'i4'
p151
sg12
Nsg13
Nsg14
(lp152
(i__main__
Token
p153
(dp154
g18
I6
sbasg23
I6
sba(i__main__
Mention
p155
(dp156
g7
S't3'
p157
sg9
S'Coreference-Identity'
p158
sg10
S'i15'
p159
sg12
S'i4'
p160
sg13
Nsg14
(lp161
(i__main__
Token
p162
(dp163
g18
I61
sbasg23
I61
sba(i__main__
Mention
p164
(dp165
g7
S't3'
p166
sg9
S'Coreference-Identity'
p167
sg10
S'i40'
p168
sg12
S'i15'
p169
sg13
Nsg14
(lp170
(i__main__
Token
p171
(dp172
g18
I172
sbasg23
I172
sba(i__main__
Mention
p173
(dp174
g7
S't3'
p175
sg9
S'Coreference-InferedRelation'
p176
sg10
S'i41'
p177
sg12
S'i40'
p178
sg13
Nsg14
(lp179
(i__main__
Token
p180
(dp181
g18
I182
sbasg23
I182
sba(i__main__
Mention
p182
(dp183
g7
S't3'
p184
sg9
S'Coreference-Noun-Noun'
p185
sg10
S'i49'
p186
sg12
S'i41'
p187
sg13
Nsg14
(lp188
(i__main__
Token
p189
(dp190
g18
I216
sbasg23
I216
sbasg7
g150
sg107
Nsba(i__main__
Chain
p191
(dp192
g3
(lp193
(i__main__
Mention
p194
(dp195
g7
S't4'
p196
sg9
Nsg10
S'i6'
p197
sg12
Nsg13
Nsg14
(lp198
(i__main__
Token
p199
(dp200
g18
I10
sbasg23
I10
sba(i__main__
Mention
p201
(dp202
g7
S't4'
p203
sg9
S'Coreference-Identity'
p204
sg10
S'i17'
p205
sg12
S'i6'
p206
sg13
Nsg14
(lp207
(i__main__
Token
p208
(dp209
g18
I61
sba(i__main__
Token
p210
(dp211
g18
I62
sbasg23
I62
sbasg7
g196
sg107
Nsba(i__main__
Chain
p212
(dp213
g3
(lp214
(i__main__
Mention
p215
(dp216
g7
S't5'
p217
sg9
Nsg10
S'i5'
p218
sg12
Nsg13
Nsg14
(lp219
(i__main__
Token
p220
(dp221
g18
I12
sbasg23
I12
sba(i__main__
Mention
p222
(dp223
g7
S't5'
p224
sg9
S'Coreference-Identity'
p225
sg10
S'i16'
p226
sg12
S'i5'
p227
sg13
Nsg14
(lp228
(i__main__
Token
p229
(dp230
g18
I61
sba(i__main__
Token
p231
(dp232
g18
I62
sba(i__main__
Token
p233
(dp234
g18
I63
sbasg23
I63
sba(i__main__
Mention
p235
(dp236
g7
S't5'
p237
sg9
S'Coreference-Identity'
p238
sg10
S'i42'
p239
sg12
S'i16'
p240
sg13
Nsg14
(lp241
(i__main__
Token
p242
(dp243
g18
I182
sba(i__main__
Token
p244
(dp245
g18
I183
sba(i__main__
Token
p246
(dp247
g18
I184
sba(i__main__
Token
p248
(dp249
g18
I185
sba(i__main__
Token
p250
(dp251
g18
I186
sbasg23
I186
sba(i__main__
Mention
p252
(dp253
g7
S't5'
p254
sg9
S'Coreference-Identity'
p255
sg10
S'i50'
p256
sg12
S'i42'
p257
sg13
Nsg14
(lp258
(i__main__
Token
p259
(dp260
g18
I218
sbasg23
I218
sbasg7
g217
sg107
Nsba(i__main__
Chain
p261
(dp262
g3
(lp263
(i__main__
Mention
p264
(dp265
g7
S't6'
p266
sg9
Nsg10
S'i8'
p267
sg12
Nsg13
Nsg14
(lp268
(i__main__
Token
p269
(dp270
g18
I14
sba(i__main__
Token
p271
(dp272
g18
I15
sba(i__main__
Token
p273
(dp274
g18
I16
sba(i__main__
Token
p275
(dp276
g18
I17
sba(i__main__
Token
p277
(dp278
g18
I18
sba(i__main__
Token
p279
(dp280
g18
I19
sba(i__main__
Token
p281
(dp282
g18
I20
sba(i__main__
Token
p283
(dp284
g18
I21
sba(i__main__
Token
p285
(dp286
g18
I22
sba(i__main__
Token
p287
(dp288
g18
I23
sba(i__main__
Token
p289
(dp290
g18
I24
sba(i__main__
Token
p291
(dp292
g18
I25
sba(i__main__
Token
p293
(dp294
g18
I26
sba(i__main__
Token
p295
(dp296
g18
I27
sba(i__main__
Token
p297
(dp298
g18
I28
sba(i__main__
Token
p299
(dp300
g18
I29
sbasg23
I29
sba(i__main__
Mention
p301
(dp302
g7
S't6'
p303
sg9
S'Anaphora-E'
p304
sg10
S'i10'
p305
sg12
S'i8'
p306
sg13
Nsg14
(lp307
(i__main__
Token
p308
(dp309
g18
I40
sbasg23
I40
sbasg7
g266
sg107
Nsba(i__main__
Chain
p310
(dp311
g3
(lp312
(i__main__
Mention
p313
(dp314
g7
S't7'
p315
sg9
Nsg10
S'i11'
p316
sg12
Nsg13
Nsg14
(lp317
(i__main__
Token
p318
(dp319
g18
I41
sba(i__main__
Token
p320
(dp321
g18
I42
sbasg23
I42
sba(i__main__
Mention
p322
(dp323
g7
S't7'
p324
sg9
S'Coreference-Identity'
p325
sg10
S'i18'
p326
sg12
S'i11'
p327
sg13
Nsg14
(lp328
(i__main__
Token
p329
(dp330
g18
I65
sba(i__main__
Token
p331
(dp332
g18
I66
sbasg23
I66
sba(i__main__
Mention
p333
(dp334
g7
S't7'
p335
sg9
S'Coreference-Identity'
p336
sg10
S'i22'
p337
sg12
S'i18'
p338
sg13
Nsg14
(lp339
(i__main__
Token
p340
(dp341
g18
I82
sba(i__main__
Token
p342
(dp343
g18
I83
sbasg23
I83
sba(i__main__
Mention
p344
(dp345
g7
S't7'
p346
sg9
S'Coreference-Identity'
p347
sg10
S'i29'
p348
sg12
S'i22'
p349
sg13
Nsg14
(lp350
(i__main__
Token
p351
(dp352
g18
I114
sba(i__main__
Token
p353
(dp354
g18
I115
sbasg23
I115
sba(i__main__
Mention
p355
(dp356
g7
S't7'
p357
sg9
S'Coreference-Identity'
p358
sg10
S'i34'
p359
sg12
S'i29'
p360
sg13
Nsg14
(lp361
(i__main__
Token
p362
(dp363
g18
I136
sba(i__main__
Token
p364
(dp365
g18
I137
sbasg23
I137
sbasg7
g315
sg107
Nsba(i__main__
Chain
p366
(dp367
g3
(lp368
(i__main__
Mention
p369
(dp370
g7
S't8'
p371
sg9
Nsg10
S'i12'
p372
sg12
Nsg13
Nsg14
(lp373
(i__main__
Token
p374
(dp375
g18
I44
sbasg23
I44
sba(i__main__
Mention
p376
(dp377
g7
S't8'
p378
sg9
S'Anaphora-C'
p379
sg10
S'i13'
p380
sg12
S'i12'
p381
sg13
Nsg14
(lp382
(i__main__
Token
p383
(dp384
g18
I47
sbasg23
I47
sba(i__main__
Mention
p385
(dp386
g7
S't8'
p387
sg9
S'Coreference-Identity'
p388
sg10
S'i23'
p389
sg12
S'i13'
p390
sg13
Nsg14
(lp391
(i__main__
Token
p392
(dp393
g18
I85
sbasg23
I85
sba(i__main__
Mention
p394
(dp395
g7
S't8'
p396
sg9
S'Coreference-Identity'
p397
sg10
S'i30'
p398
sg12
S'i23'
p399
sg13
Nsg14
(lp400
(i__main__
Token
p401
(dp402
g18
I117
sbasg23
I117
sba(i__main__
Mention
p403
(dp404
g7
S't8'
p405
sg9
S'Coreference-Identity'
p406
sg10
S'i35'
p407
sg12
S'i30'
p408
sg13
Nsg14
(lp409
(i__main__
Token
p410
(dp411
g18
I139
sbasg23
I139
sbasg7
g371
sg107
Nsba(i__main__
Chain
p412
(dp413
g3
(lp414
(i__main__
Mention
p415
(dp416
g7
S't9'
p417
sg9
S'anaphora-?'
p418
sg10
S'i19'
p419
sg12
S'i19'
p420
sg13
Nsg14
(lp421
(i__main__
Token
p422
(dp423
g18
I75
sbasg23
I75
sba(i__main__
Mention
p424
(dp425
g7
S't9'
p426
sg9
S'Anaphora-RC'
p427
sg10
S'i20'
p428
sg12
S'i19'
p429
sg13
Nsg14
(lp430
(i__main__
Token
p431
(dp432
g18
I80
sba(i__main__
Token
p433
(dp434
g18
I81
sba(i__main__
Token
p435
(dp436
g18
I82
sba(i__main__
Token
p437
(dp438
g18
I83
sba(i__main__
Token
p439
(dp440
g18
I84
sba(i__main__
Token
p441
(dp442
g18
I85
sba(i__main__
Token
p443
(dp444
g18
I86
sba(i__main__
Token
p445
(dp446
g18
I87
sba(i__main__
Token
p447
(dp448
g18
I88
sba(i__main__
Token
p449
(dp450
g18
I89
sba(i__main__
Token
p451
(dp452
g18
I90
sba(i__main__
Token
p453
(dp454
g18
I91
sba(i__main__
Token
p455
(dp456
g18
I92
sbasg23
I92
sbasg7
g417
sg107
Nsba(i__main__
Chain
p457
(dp458
g3
(lp459
(i__main__
Mention
p460
(dp461
g7
S't10'
p462
sg9
S'anaphora-?'
p463
sg10
S'i24'
p464
sg12
S'i24'
p465
sg13
Nsg14
(lp466
(i__main__
Token
p467
(dp468
g18
I90
sbasg23
I90
sbasg7
g462
sg107
Nsba(i__main__
Chain
p469
(dp470
g3
(lp471
(i__main__
Mention
p472
(dp473
g7
S't11'
p474
sg9
S'anaphora-?'
p475
sg10
S'i28'
p476
sg12
S'i28'
p477
sg13
Nsg14
(lp478
(i__main__
Token
p479
(dp480
g18
I107
sbasg23
I107
sbasg7
g474
sg107
Nsba(i__main__
Chain
p481
(dp482
g3
(lp483
(i__main__
Mention
p484
(dp485
g7
S't12'
p486
sg9
Nsg10
S'i31'
p487
sg12
Nsg13
Nsg14
(lp488
(i__main__
Token
p489
(dp490
g18
I131
sbasg23
I131
sba(i__main__
Mention
p491
(dp492
g7
S't12'
p493
sg9
S'Coreference-Noun-Noun'
p494
sg10
S'i33'
p495
sg12
S'i31'
p496
sg13
Nsg14
(lp497
(i__main__
Token
p498
(dp499
g18
I133
sba(i__main__
Token
p500
(dp501
g18
I134
sba(i__main__
Token
p502
(dp503
g18
I135
sba(i__main__
Token
p504
(dp505
g18
I136
sba(i__main__
Token
p506
(dp507
g18
I137
sba(i__main__
Token
p508
(dp509
g18
I138
sba(i__main__
Token
p510
(dp511
g18
I139
sba(i__main__
Token
p512
(dp513
g18
I140
sba(i__main__
Token
p514
(dp515
g18
I141
sba(i__main__
Token
p516
(dp517
g18
I142
sba(i__main__
Token
p518
(dp519
g18
I143
sba(i__main__
Token
p520
(dp521
g18
I144
sbasg23
I144
sbasg7
g486
sg107
Nsba(i__main__
Chain
p522
(dp523
g3
(lp524
(i__main__
Mention
p525
(dp526
g7
S't13'
p527
sg9
S'anaphora-?'
p528
sg10
S'i38'
p529
sg12
S'i38'
p530
sg13
Nsg14
(lp531
(i__main__
Token
p532
(dp533
g18
I168
sbasg23
I168
sbasg7
g527
sg107
Nsba(i__main__
Chain
p534
(dp535
g3
(lp536
(i__main__
Mention
p537
(dp538
g7
S't14'
p539
sg9
Nsg10
S'i39'
p540
sg12
Nsg13
Nsg14
(lp541
(i__main__
Token
p542
(dp543
g18
I170
sbasg23
I170
sba(i__main__
Mention
p544
(dp545
g7
S't14'
p546
sg9
S'Coreference-Identity'
p547
sg10
S'i45'
p548
sg12
S'i39'
p549
sg13
Nsg14
(lp550
(i__main__
Token
p551
(dp552
g18
I199
sbasg23
I199
sba(i__main__
Mention
p553
(dp554
g7
S't14'
p555
sg9
S'Coreference-Identity'
p556
sg10
S'i51'
p557
sg12
S'i45'
p558
sg13
Nsg14
(lp559
(i__main__
Token
p560
(dp561
g18
I221
sbasg23
I221
sbasg7
g539
sg107
Nsba(i__main__
Chain
p562
(dp563
g3
(lp564
(i__main__
Mention
p565
(dp566
g7
S't15'
p567
sg9
Nsg10
S'i43'
p568
sg12
Nsg13
Nsg14
(lp569
(i__main__
Token
p570
(dp571
g18
I188
sba(i__main__
Token
p572
(dp573
g18
I189
sbasg23
I189
sba(i__main__
Mention
p574
(dp575
g7
S't15'
p576
sg9
S'Coreference-Identity'
p577
sg10
S'i53'
p578
sg12
S'i43'
p579
sg13
Nsg14
(lp580
(i__main__
Token
p581
(dp582
g18
I231
sba(i__main__
Token
p583
(dp584
g18
I232
sbasg23
I232
sbasg7
g567
sg107
Nsba(i__main__
Chain
p585
(dp586
g3
(lp587
(i__main__
Mention
p588
(dp589
g7
S't16'
p590
sg9
Nsg10
S'i44'
p591
sg12
Nsg13
Nsg14
(lp592
(i__main__
Token
p593
(dp594
g18
I191
sbasg23
I191
sba(i__main__
Mention
p595
(dp596
g7
S't16'
p597
sg9
S'Coreference-Identity'
p598
sg10
S'i54'
p599
sg12
S'i44'
p600
sg13
Nsg14
(lp601
(i__main__
Token
p602
(dp603
g18
I234
sbasg23
I234
sbasg7
g590
sg107
Nsba(i__main__
Chain
p604
(dp605
g3
(lp606
(i__main__
Mention
p607
(dp608
g7
S't17'
p609
sg9
Nsg10
S'i47'
p610
sg12
Nsg13
Nsg14
(lp611
(i__main__
Token
p612
(dp613
g18
I209
sbasg23
I209
sba(i__main__
Mention
p614
(dp615
g7
S't17'
p616
sg9
S'Coreference-NounComplement'
p617
sg10
S'i48'
p618
sg12
S'i47'
p619
sg13
Nsg14
(lp620
(i__main__
Token
p621
(dp622
g18
I210
sba(i__main__
Token
p623
(dp624
g18
I211
sbasg23
I211
sba(i__main__
Mention
p625
(dp626
g7
S't17'
p627
sg9
S'Anaphora-C'
p628
sg10
S'i52'
p629
sg12
S'i48'
p630
sg13
Nsg14
(lp631
(i__main__
Token
p632
(dp633
g18
I227
sbasg23
I227
sbasg7
g609
sg107
Nsba.