(lp0
(i__main__
Chain
p1
(dp2
S'mentionList'
p3
(lp4
(i__main__
Mention
p5
(dp6
S'chainId'
p7
S't1'
p8
sS'relType'
p9
NsS'mentionId'
p10
S'i1'
p11
sS'antecedentId'
p12
NsS'crefMod'
p13
NsS'tokenList'
p14
(lp15
(i__main__
Token
p16
(dp17
S'tokenId'
p18
I0
sbasS'mentionHead'
p19
I0
sba(i__main__
Mention
p20
(dp21
g7
S't1'
p22
sg9
S'Coreference-Identity'
p23
sg10
S'i11'
p24
sg12
S'i1'
p25
sg13
Nsg14
(lp26
(i__main__
Token
p27
(dp28
g18
I138
sbasg19
I138
sba(i__main__
Mention
p29
(dp30
g7
S't1'
p31
sg9
S'Coreference-Identity'
p32
sg10
S'i13'
p33
sg12
S'i11'
p34
sg13
Nsg14
(lp35
(i__main__
Token
p36
(dp37
g18
I219
sbasg19
I219
sba(i__main__
Mention
p38
(dp39
g7
S't1'
p40
sg9
S'Coreference-Noun-Noun'
p41
sg10
S'i21'
p42
sg12
S'i13'
p43
sg13
Nsg14
(lp44
(i__main__
Token
p45
(dp46
g18
I308
sbasg19
I308
sbasg7
g8
sS'chainHead'
p47
Nsba(i__main__
Chain
p48
(dp49
g3
(lp50
(i__main__
Mention
p51
(dp52
g7
S't2'
p53
sg9
S'anaphora-?'
p54
sg10
S'i2'
p55
sg12
S'i2'
p56
sg13
Nsg14
(lp57
(i__main__
Token
p58
(dp59
g18
I35
sbasg19
I35
sbasg7
g53
sg47
Nsba(i__main__
Chain
p60
(dp61
g3
(lp62
(i__main__
Mention
p63
(dp64
g7
S't3'
p65
sg9
S'anaphora-?'
p66
sg10
S'i3'
p67
sg12
S'i3'
p68
sg13
Nsg14
(lp69
(i__main__
Token
p70
(dp71
g18
I37
sbasg19
I37
sbasg7
g65
sg47
Nsba(i__main__
Chain
p72
(dp73
g3
(lp74
(i__main__
Mention
p75
(dp76
g7
S't4'
p77
sg9
Nsg10
S'i4'
p78
sg12
Nsg13
Nsg14
(lp79
(i__main__
Token
p80
(dp81
g18
I65
sbasg19
I65
sba(i__main__
Mention
p82
(dp83
g7
S't4'
p84
sg9
S'Anaphora-C'
p85
sg10
S'i5'
p86
sg12
S'i4'
p87
sg13
Nsg14
(lp88
(i__main__
Token
p89
(dp90
g18
I73
sbasg19
I73
sba(i__main__
Mention
p91
(dp92
g7
S't4'
p93
sg9
S'Anaphora-C'
p94
sg10
S'i6'
p95
sg12
S'i5'
p96
sg13
Nsg14
(lp97
(i__main__
Token
p98
(dp99
g18
I79
sbasg19
I79
sbasg7
g77
sg47
Nsba(i__main__
Chain
p100
(dp101
g3
(lp102
(i__main__
Mention
p103
(dp104
g7
S't5'
p105
sg9
S'anaphora-?'
p106
sg10
S'i7'
p107
sg12
S'i7'
p108
sg13
Nsg14
(lp109
(i__main__
Token
p110
(dp111
g18
I80
sbasg19
I80
sbasg7
g105
sg47
Nsba(i__main__
Chain
p112
(dp113
g3
(lp114
(i__main__
Mention
p115
(dp116
g7
S't6'
p117
sg9
Nsg10
S'i8'
p118
sg12
Nsg13
Nsg14
(lp119
(i__main__
Token
p120
(dp121
g18
I102
sba(i__main__
Token
p122
(dp123
g18
I103
sba(i__main__
Token
p124
(dp125
g18
I104
sba(i__main__
Token
p126
(dp127
g18
I105
sba(i__main__
Token
p128
(dp129
g18
I106
sba(i__main__
Token
p130
(dp131
g18
I107
sbasg19
I106
sba(i__main__
Mention
p132
(dp133
g7
S't6'
p134
sg9
S'Anaphora-C'
p135
sg10
S'i9'
p136
sg12
S'i8'
p137
sg13
Nsg14
(lp138
(i__main__
Token
p139
(dp140
g18
I117
sbasg19
I117
sbasg7
g117
sg47
Nsba(i__main__
Chain
p141
(dp142
g3
(lp143
(i__main__
Mention
p144
(dp145
g7
S't7'
p146
sg9
Nsg10
S'i12'
p147
sg12
Nsg13
Nsg14
(lp148
(i__main__
Token
p149
(dp150
g18
I177
sba(i__main__
Token
p151
(dp152
g18
I178
sbasg19
I178
sba(i__main__
Mention
p153
(dp154
g7
S't7'
p155
sg9
S'Coreference-Identity'
p156
sg10
S'i15'
p157
sg12
S'i12'
p158
sg13
Nsg14
(lp159
(i__main__
Token
p160
(dp161
g18
I252
sba(i__main__
Token
p162
(dp163
g18
I253
sbasg19
I253
sba(i__main__
Mention
p164
(dp165
g7
S't7'
p166
sg9
S'Coreference-Identity'
p167
sg10
S'i25'
p168
sg12
S'i15'
p169
sg13
Nsg14
(lp170
(i__main__
Token
p171
(dp172
g18
I359
sba(i__main__
Token
p173
(dp174
g18
I360
sbasg19
I360
sba(i__main__
Mention
p175
(dp176
g7
S't7'
p177
sg9
S'Coreference-Identity'
p178
sg10
S'i26'
p179
sg12
S'i25'
p180
sg13
Nsg14
(lp181
(i__main__
Token
p182
(dp183
g18
I388
sba(i__main__
Token
p184
(dp185
g18
I389
sbasg19
I389
sbasg7
g146
sg47
Nsba(i__main__
Chain
p186
(dp187
g3
(lp188
(i__main__
Mention
p189
(dp190
g7
S't8'
p191
sg9
Nsg10
S'i14'
p192
sg12
Nsg13
Nsg14
(lp193
(i__main__
Token
p194
(dp195
g18
I222
sbasg19
I222
sba(i__main__
Mention
p196
(dp197
g7
S't8'
p198
sg9
S'Coreference-Identity'
p199
sg10
S'i27'
p200
sg12
S'i14'
p201
sg13
Nsg14
(lp202
(i__main__
Token
p203
(dp204
g18
I430
sbasg19
I430
sbasg7
g191
sg47
Nsba(i__main__
Chain
p205
(dp206
g3
(lp207
(i__main__
Mention
p208
(dp209
g7
S't9'
p210
sg9
Nsg10
S'i16'
p211
sg12
Nsg13
Nsg14
(lp212
(i__main__
Token
p213
(dp214
g18
I262
sbasg19
Nsba(i__main__
Mention
p215
(dp216
g7
S't9'
p217
sg9
Nsg10
S'i19'
p218
sg12
Nsg13
Nsg14
(lp219
(i__main__
Token
p220
(dp221
g18
I300
sbasg19
Nsba(i__main__
Mention
p222
(dp223
g7
S't9'
p224
sg9
Nsg10
S'i31'
p225
sg12
Nsg13
Nsg14
(lp226
(i__main__
Token
p227
(dp228
g18
I477
sba(i__main__
Token
p229
(dp230
g18
I478
sbasg19
Nsbasg7
g210
sg47
Nsba(i__main__
Chain
p231
(dp232
g3
(lp233
(i__main__
Mention
p234
(dp235
g7
S't10'
p236
sg9
Nsg10
S'i17'
p237
sg12
Nsg13
Nsg14
(lp238
(i__main__
Token
p239
(dp240
g18
I262
sbasg19
Nsba(i__main__
Mention
p241
(dp242
g7
S't10'
p243
sg9
Nsg10
S'i20'
p244
sg12
Nsg13
Nsg14
(lp245
(i__main__
Token
p246
(dp247
g18
I300
sbasg19
Nsba(i__main__
Mention
p248
(dp249
g7
S't10'
p250
sg9
Nsg10
S'i32'
p251
sg12
Nsg13
Nsg14
(lp252
(i__main__
Token
p253
(dp254
g18
I478
sbasg19
Nsbasg7
g236
sg47
Nsba(i__main__
Chain
p255
(dp256
g3
(lp257
(i__main__
Mention
p258
(dp259
g7
S't11'
p260
sg9
S'anaphora-?'
p261
sg10
S'i18'
p262
sg12
S'i18'
p263
sg13
Nsg14
(lp264
(i__main__
Token
p265
(dp266
g18
I279
sbasg19
I279
sbasg7
g260
sg47
Nsba(i__main__
Chain
p267
(dp268
g3
(lp269
(i__main__
Mention
p270
(dp271
g7
S't12'
p272
sg9
Nsg10
S'i22'
p273
sg12
Nsg13
Nsg14
(lp274
(i__main__
Token
p275
(dp276
g18
I317
sba(i__main__
Token
p277
(dp278
g18
I318
sba(i__main__
Token
p279
(dp280
g18
I319
sba(i__main__
Token
p281
(dp282
g18
I320
sba(i__main__
Token
p283
(dp284
g18
I321
sba(i__main__
Token
p285
(dp286
g18
I322
sba(i__main__
Token
p287
(dp288
g18
I323
sbasg19
I321
sba(i__main__
Mention
p289
(dp290
g7
S't12'
p291
sg9
S'Anaphora-E'
p292
sg10
S'i23'
p293
sg12
S'i22'
p294
sg13
Nsg14
(lp295
(i__main__
Token
p296
(dp297
g18
I325
sbasg19
I325
sbasg7
g272
sg47
Nsba(i__main__
Chain
p298
(dp299
g3
(lp300
(i__main__
Mention
p301
(dp302
g7
S't13'
p303
sg9
Nsg10
S'i28'
p304
sg12
Nsg13
Nsg14
(lp305
(i__main__
Token
p306
(dp307
g18
I458
sba(i__main__
Token
p308
(dp309
g18
I459
sba(i__main__
Token
p310
(dp311
g18
I460
sba(i__main__
Token
p312
(dp313
g18
I461
sba(i__main__
Token
p314
(dp315
g18
I462
sba(i__main__
Token
p316
(dp317
g18
I463
sbasg19
I462
sba(i__main__
Mention
p318
(dp319
g7
S't13'
p320
sg9
S'Anaphora-E'
p321
sg10
S'i30'
p322
sg12
S'i28'
p323
sg13
Nsg14
(lp324
(i__main__
Token
p325
(dp326
g18
I465
sbasg19
I465
sbasg7
g303
sg47
Nsba(i__main__
Chain
p327
(dp328
g3
(lp329
(i__main__
Mention
p330
(dp331
g7
S't14'
p332
sg9
Nsg10
S'i33'
p333
sg12
Nsg13
Nsg14
(lp334
(i__main__
Token
p335
(dp336
g18
I479
sba(i__main__
Token
p337
(dp338
g18
I480
sba(i__main__
Token
p339
(dp340
g18
I481
sbasg19
I481
sba(i__main__
Mention
p341
(dp342
g7
S't14'
p343
sg9
S'Coreference-Identity'
p344
sg10
S'i35'
p345
sg12
S'i33'
p346
sg13
Nsg14
(lp347
(i__main__
Token
p348
(dp349
g18
I492
sbasg19
I492
sba(i__main__
Mention
p350
(dp351
g7
S't14'
p352
sg9
S'Coreference-Identity'
p353
sg10
S'i38'
p354
sg12
S'i35'
p355
sg13
Nsg14
(lp356
(i__main__
Token
p357
(dp358
g18
I519
sbasg19
I519
sbasg7
g332
sg47
Nsba(i__main__
Chain
p359
(dp360
g3
(lp361
(i__main__
Mention
p362
(dp363
g7
S't15'
p364
sg9
Nsg10
S'i34'
p365
sg12
Nsg13
Nsg14
(lp366
(i__main__
Token
p367
(dp368
g18
I484
sba(i__main__
Token
p369
(dp370
g18
I485
sba(i__main__
Token
p371
(dp372
g18
I486
sba(i__main__
Token
p373
(dp374
g18
I487
sba(i__main__
Token
p375
(dp376
g18
I488
sba(i__main__
Token
p377
(dp378
g18
I489
sba(i__main__
Token
p379
(dp380
g18
I490
sbasg19
I489
sba(i__main__
Mention
p381
(dp382
g7
S't15'
p383
sg9
S'Anaphora-E'
p384
sg10
S'i36'
p385
sg12
S'i34'
p386
sg13
Nsg14
(lp387
(i__main__
Token
p388
(dp389
g18
I497
sbasg19
I497
sbasg7
g364
sg47
Nsba.