(lp0
(i__main__
Chain
p1
(dp2
S'mentionList'
p3
(lp4
(i__main__
Mention
p5
(dp6
S'chainId'
p7
S't1'
p8
sS'relType'
p9
NsS'mentionId'
p10
S'i1'
p11
sS'antecedentId'
p12
NsS'crefMod'
p13
NsS'tokenList'
p14
(lp15
(i__main__
Token
p16
(dp17
S'tokenId'
p18
I0
sbasS'mentionHead'
p19
I0
sba(i__main__
Mention
p20
(dp21
g7
S't1'
p22
sg9
S'Coreference-Identity'
p23
sg10
S'i8'
p24
sg12
S'i1'
p25
sg13
Nsg14
(lp26
(i__main__
Token
p27
(dp28
g18
I14
sbasg19
I14
sba(i__main__
Mention
p29
(dp30
g7
S't1'
p31
sg9
S'Coreference-Identity'
p32
sg10
S'i23'
p33
sg12
S'i8'
p34
sg13
Nsg14
(lp35
(i__main__
Token
p36
(dp37
g18
I63
sbasg19
I63
sba(i__main__
Mention
p38
(dp39
g7
S't1'
p40
sg9
S'Coreference-Identity'
p41
sg10
S'i31'
p42
sg12
S'i23'
p43
sg13
Nsg14
(lp44
(i__main__
Token
p45
(dp46
g18
I83
sbasg19
I83
sbasg7
g8
sS'chainHead'
p47
Nsba(i__main__
Chain
p48
(dp49
g3
(lp50
(i__main__
Mention
p51
(dp52
g7
S't2'
p53
sg9
Nsg10
S'i2'
p54
sg12
Nsg13
Nsg14
(lp55
(i__main__
Token
p56
(dp57
g18
I0
sba(i__main__
Token
p58
(dp59
g18
I1
sbasg19
I1
sba(i__main__
Mention
p60
(dp61
g7
S't2'
p62
sg9
S'Coreference-Identity'
p63
sg10
S'i32'
p64
sg12
S'i2'
p65
sg13
Nsg14
(lp66
(i__main__
Token
p67
(dp68
g18
I83
sba(i__main__
Token
p69
(dp70
g18
I84
sbasg19
I84
sba(i__main__
Mention
p71
(dp72
g7
S't2'
p73
sg9
S'Coreference-Noun-Noun'
p74
sg10
S'i38'
p75
sg12
S'i32'
p76
sg13
Nsg14
(lp77
(i__main__
Token
p78
(dp79
g18
I102
sba(i__main__
Token
p80
(dp81
g18
I103
sbasg19
I103
sba(i__main__
Mention
p82
(dp83
g7
S't2'
p84
sg9
S'Anaphora-C'
p85
sg10
S'i39'
p86
sg12
S'i38'
p87
sg13
Nsg14
(lp88
(i__main__
Token
p89
(dp90
g18
I120
sbasg19
I120
sbasg7
g53
sg47
Nsba(i__main__
Chain
p91
(dp92
g3
(lp93
(i__main__
Mention
p94
(dp95
g7
S't3'
p96
sg9
Nsg10
S'i3'
p97
sg12
Nsg13
Nsg14
(lp98
(i__main__
Token
p99
(dp100
g18
I4
sbasg19
I4
sba(i__main__
Mention
p101
(dp102
g7
S't3'
p103
sg9
S'Anaphora-C'
p104
sg10
S'i5'
p105
sg12
S'i3'
p106
sg13
Nsg14
(lp107
(i__main__
Token
p108
(dp109
g18
I7
sbasg19
I7
sba(i__main__
Mention
p110
(dp111
g7
S't3'
p112
sg9
S'Coreference-Identity'
p113
sg10
S'i9'
p114
sg12
S'i5'
p115
sg13
Nsg14
(lp116
(i__main__
Token
p117
(dp118
g18
I16
sbasg19
I16
sba(i__main__
Mention
p119
(dp120
g7
S't3'
p121
sg9
S'Anaphora-C'
p122
sg10
S'i10'
p123
sg12
S'i9'
p124
sg13
Nsg14
(lp125
(i__main__
Token
p126
(dp127
g18
I18
sbasg19
I18
sba(i__main__
Mention
p128
(dp129
g7
S't3'
p130
sg9
S'Coreference-Identity'
p131
sg10
S'i16'
p132
sg12
S'i10'
p133
sg13
Nsg14
(lp134
(i__main__
Token
p135
(dp136
g18
I42
sbasg19
I42
sba(i__main__
Mention
p137
(dp138
g7
S't3'
p139
sg9
S'Coreference-InferedRelation'
p140
sg10
S'i17'
p141
sg12
S'i16'
p142
sg13
Nsg14
(lp143
(i__main__
Token
p144
(dp145
g18
I46
sbasg19
I46
sba(i__main__
Mention
p146
(dp147
g7
S't3'
p148
sg9
S'Coreference-Noun-Noun'
p149
sg10
S'i20'
p150
sg12
S'i17'
p151
sg13
Nsg14
(lp152
(i__main__
Token
p153
(dp154
g18
I55
sbasg19
I55
sba(i__main__
Mention
p155
(dp156
g7
S't3'
p157
sg9
S'Coreference-Identity'
p158
sg10
S'i24'
p159
sg12
S'i20'
p160
sg13
Nsg14
(lp161
(i__main__
Token
p162
(dp163
g18
I65
sbasg19
I65
sba(i__main__
Mention
p164
(dp165
g7
S't3'
p166
sg9
S'Anaphora-C'
p167
sg10
S'i25'
p168
sg12
S'i24'
p169
sg13
Nsg14
(lp170
(i__main__
Token
p171
(dp172
g18
I67
sbasg19
I67
sba(i__main__
Mention
p173
(dp174
g7
S't3'
p175
sg9
S'Coreference-Identity'
p176
sg10
S'i30'
p177
sg12
S'i25'
p178
sg13
Nsg14
(lp179
(i__main__
Token
p180
(dp181
g18
I76
sbasg19
I76
sba(i__main__
Mention
p182
(dp183
g7
S't3'
p184
sg9
S'Coreference-InferedRelation'
p185
sg10
S'i33'
p186
sg12
S'i30'
p187
sg13
Nsg14
(lp188
(i__main__
Token
p189
(dp190
g18
I87
sbasg19
I87
sba(i__main__
Mention
p191
(dp192
g7
S't3'
p193
sg9
S'Coreference-Identity'
p194
sg10
S'i37'
p195
sg12
S'i33'
p196
sg13
Nsg14
(lp197
(i__main__
Token
p198
(dp199
g18
I101
sbasg19
I101
sba(i__main__
Mention
p200
(dp201
g7
S't3'
p202
sg9
S'Coreference-Noun-Noun'
p203
sg10
S'i41'
p204
sg12
S'i37'
p205
sg13
Nsg14
(lp206
(i__main__
Token
p207
(dp208
g18
I143
sbasg19
I143
sba(i__main__
Mention
p209
(dp210
g7
S't3'
p211
sg9
S'Coreference-Identity'
p212
sg10
S'i43'
p213
sg12
S'i41'
p214
sg13
Nsg14
(lp215
(i__main__
Token
p216
(dp217
g18
I147
sbasg19
I147
sba(i__main__
Mention
p218
(dp219
g7
S't3'
p220
sg9
S'Coreference-Identity'
p221
sg10
S'i48'
p222
sg12
S'i43'
p223
sg13
Nsg14
(lp224
(i__main__
Token
p225
(dp226
g18
I177
sbasg19
I177
sba(i__main__
Mention
p227
(dp228
g7
S't3'
p229
sg9
Nsg10
S'i50'
p230
sg12
Nsg13
Nsg14
(lp231
(i__main__
Token
p232
(dp233
g18
I186
sba(i__main__
Token
p234
(dp235
g18
I187
sbasg19
Nsba(i__main__
Mention
p236
(dp237
g7
S't3'
p238
sg9
S'Coreference-PartOf'
p239
sg10
S'i55'
p240
sg12
S'i50'
p241
sg13
Nsg14
(lp242
(i__main__
Token
p243
(dp244
g18
I202
sbasg19
I202
sbasg7
g96
sg47
Nsba(i__main__
Chain
p245
(dp246
g3
(lp247
(i__main__
Mention
p248
(dp249
g7
S't4'
p250
sg9
Nsg10
S'i4'
p251
sg12
Nsg13
Nsg14
(lp252
(i__main__
Token
p253
(dp254
g18
I5
sbasg19
I5
sba(i__main__
Mention
p255
(dp256
g7
S't4'
p257
sg9
S'Coreference-Identity'
p258
sg10
S'i36'
p259
sg12
S'i4'
p260
sg13
Nsg14
(lp261
(i__main__
Token
p262
(dp263
g18
I93
sbasg19
I93
sbasg7
g250
sg47
Nsba(i__main__
Chain
p264
(dp265
g3
(lp266
(i__main__
Mention
p267
(dp268
g7
S't5'
p269
sg9
Nsg10
S'i6'
p270
sg12
Nsg13
Nsg14
(lp271
(i__main__
Token
p272
(dp273
g18
I8
sbasg19
I8
sba(i__main__
Mention
p274
(dp275
g7
S't5'
p276
sg9
S'Anaphora-C'
p277
sg10
S'i7'
p278
sg12
S'i6'
p279
sg13
Nsg14
(lp280
(i__main__
Token
p281
(dp282
g18
I12
sbasg19
I12
sbasg7
g269
sg47
Nsba(i__main__
Chain
p283
(dp284
g3
(lp285
(i__main__
Mention
p286
(dp287
g7
S't6'
p288
sg9
Nsg10
S'i11'
p289
sg12
Nsg13
Nsg14
(lp290
(i__main__
Token
p291
(dp292
g18
I19
sba(i__main__
Token
p293
(dp294
g18
I20
sbasg19
I20
sba(i__main__
Mention
p295
(dp296
g7
S't6'
p297
sg9
S'Coreference-Identity'
p298
sg10
S'i26'
p299
sg12
S'i11'
p300
sg13
Nsg14
(lp301
(i__main__
Token
p302
(dp303
g18
I68
sba(i__main__
Token
p304
(dp305
g18
I69
sbasg19
I69
sba(i__main__
Mention
p306
(dp307
g7
S't6'
p308
sg9
S'Coreference-Identity'
p309
sg10
S'i28'
p310
sg12
S'i26'
p311
sg13
Nsg14
(lp312
(i__main__
Token
p313
(dp314
g18
I74
sbasg19
I74
sbasg7
g288
sg47
Nsba(i__main__
Chain
p315
(dp316
g3
(lp317
(i__main__
Mention
p318
(dp319
g7
S't7'
p320
sg9
Nsg10
S'i12'
p321
sg12
Nsg13
Nsg14
(lp322
(i__main__
Token
p323
(dp324
g18
I21
sbasg19
I21
sba(i__main__
Mention
p325
(dp326
g7
S't7'
p327
sg9
S'Coreference-Identity'
p328
sg10
S'i27'
p329
sg12
S'i12'
p330
sg13
Nsg14
(lp331
(i__main__
Token
p332
(dp333
g18
I70
sbasg19
I70
sbasg7
g320
sg47
Nsba(i__main__
Chain
p334
(dp335
g3
(lp336
(i__main__
Mention
p337
(dp338
g7
S't8'
p339
sg9
Nsg10
S'i13'
p340
sg12
Nsg13
Nsg14
(lp341
(i__main__
Token
p342
(dp343
g18
I28
sbasg19
I28
sba(i__main__
Mention
p344
(dp345
g7
S't8'
p346
sg9
S'Coreference-InferedRelation'
p347
sg10
S'i15'
p348
sg12
S'i13'
p349
sg13
Nsg14
(lp350
(i__main__
Token
p351
(dp352
g18
I40
sbasg19
I40
sba(i__main__
Mention
p353
(dp354
g7
S't8'
p355
sg9
S'Coreference-Noun-Noun'
p356
sg10
S'i40'
p357
sg12
S'i15'
p358
sg13
Nsg14
(lp359
(i__main__
Token
p360
(dp361
g18
I141
sbasg19
I141
sba(i__main__
Mention
p362
(dp363
g7
S't8'
p364
sg9
S'Coreference-Identity'
p365
sg10
S'i45'
p366
sg12
S'i40'
p367
sg13
Nsg14
(lp368
(i__main__
Token
p369
(dp370
g18
I168
sbasg19
I168
sba(i__main__
Mention
p371
(dp372
g7
S't8'
p373
sg9
S'Coreference-InferedRelation'
p374
sg10
S'i49'
p375
sg12
S'i45'
p376
sg13
Nsg14
(lp377
(i__main__
Token
p378
(dp379
g18
I184
sbasg19
I184
sbasg7
g339
sg47
Nsba(i__main__
Chain
p380
(dp381
g3
(lp382
(i__main__
Mention
p383
(dp384
g7
S't9'
p385
sg9
Nsg10
S'i14'
p386
sg12
Nsg13
Nsg14
(lp387
(i__main__
Token
p388
(dp389
g18
I30
sbasg19
I30
sba(i__main__
Mention
p390
(dp391
g7
S't9'
p392
sg9
S'Coreference-Identity'
p393
sg10
S'i46'
p394
sg12
S'i14'
p395
sg13
Nsg14
(lp396
(i__main__
Token
p397
(dp398
g18
I171
sbasg19
I171
sba(i__main__
Mention
p399
(dp400
g7
S't9'
p401
sg9
S'Coreference-Identity'
p402
sg10
S'i52'
p403
sg12
S'i46'
p404
sg13
Nsg14
(lp405
(i__main__
Token
p406
(dp407
g18
I197
sbasg19
I197
sbasg7
g385
sg47
Nsba(i__main__
Chain
p408
(dp409
g3
(lp410
(i__main__
Mention
p411
(dp412
g7
S't10'
p413
sg9
Nsg10
S'i18'
p414
sg12
Nsg13
Nsg14
(lp415
(i__main__
Token
p416
(dp417
g18
I46
sba(i__main__
Token
p418
(dp419
g18
I47
sbasg19
I47
sba(i__main__
Mention
p420
(dp421
g7
S't10'
p422
sg9
S'Coreference-NounComplement'
p423
sg10
S'i19'
p424
sg12
S'i18'
p425
sg13
Nsg14
(lp426
(i__main__
Token
p427
(dp428
g18
I48
sba(i__main__
Token
p429
(dp430
g18
I49
sbasg19
I49
sba(i__main__
Mention
p431
(dp432
g7
S't10'
p433
sg9
S'Coreference-Noun-Noun'
p434
sg10
S'i29'
p435
sg12
S'i19'
p436
sg13
Nsg14
(lp437
(i__main__
Token
p438
(dp439
g18
I76
sba(i__main__
Token
p440
(dp441
g18
I77
sbasg19
I77
sba(i__main__
Mention
p442
(dp443
g7
S't10'
p444
sg9
S'Coreference-Identity'
p445
sg10
S'i42'
p446
sg12
S'i29'
p447
sg13
Nsg14
(lp448
(i__main__
Token
p449
(dp450
g18
I147
sba(i__main__
Token
p451
(dp452
g18
I148
sbasg19
I148
sba(i__main__
Mention
p453
(dp454
g7
S't10'
p455
sg9
S'Anaphora-C'
p456
sg10
S'i44'
p457
sg12
S'i42'
p458
sg13
Nsg14
(lp459
(i__main__
Token
p460
(dp461
g18
I151
sbasg19
I151
sbasg7
g413
sg47
Nsba(i__main__
Chain
p462
(dp463
g3
(lp464
(i__main__
Mention
p465
(dp466
g7
S't11'
p467
sg9
Nsg10
S'i21'
p468
sg12
Nsg13
Nsg14
(lp469
(i__main__
Token
p470
(dp471
g18
I55
sba(i__main__
Token
p472
(dp473
g18
I56
sbasg19
I56
sba(i__main__
Mention
p474
(dp475
g7
S't11'
p476
sg9
S'Coreference-NounComplement'
p477
sg10
S'i22'
p478
sg12
S'i21'
p479
sg13
Nsg14
(lp480
(i__main__
Token
p481
(dp482
g18
I57
sba(i__main__
Token
p483
(dp484
g18
I58
sba(i__main__
Token
p485
(dp486
g18
I59
sbasg19
I59
sbasg7
g467
sg47
Nsba(i__main__
Chain
p487
(dp488
g3
(lp489
(i__main__
Mention
p490
(dp491
g7
S't12'
p492
sg9
Nsg10
S'i34'
p493
sg12
Nsg13
Nsg14
(lp494
(i__main__
Token
p495
(dp496
g18
I89
sbasg19
I89
sba(i__main__
Mention
p497
(dp498
g7
S't12'
p499
sg9
S'Anaphora-C'
p500
sg10
S'i35'
p501
sg12
S'i34'
p502
sg13
Nsg14
(lp503
(i__main__
Token
p504
(dp505
g18
I92
sbasg19
I92
sbasg7
g492
sg47
Nsba(i__main__
Chain
p506
(dp507
g3
(lp508
(i__main__
Mention
p509
(dp510
g7
S't13'
p511
sg9
Nsg10
S'i47'
p512
sg12
Nsg13
Nsg14
(lp513
(i__main__
Token
p514
(dp515
g18
I173
sba(i__main__
Token
p516
(dp517
g18
I174
sba(i__main__
Token
p518
(dp519
g18
I175
sba(i__main__
Token
p520
(dp521
g18
I176
sbasg19
I173
sba(i__main__
Mention
p522
(dp523
g7
S't13'
p524
sg9
Nsg10
S'i51'
p525
sg12
Nsg13
Nsg14
(lp526
(i__main__
Token
p527
(dp528
g18
I186
sba(i__main__
Token
p529
(dp530
g18
I187
sbasg19
Nsbasg7
g511
sg47
Nsba(i__main__
Chain
p531
(dp532
g3
(lp533
(i__main__
Mention
p534
(dp535
g7
S't14'
p536
sg9
Nsg10
S'i53'
p537
sg12
Nsg13
Nsg14
(lp538
(i__main__
Token
p539
(dp540
g18
I199
sbasg19
I199
sba(i__main__
Mention
p541
(dp542
g7
S't14'
p543
sg9
S'Coreference-NounComplement'
p544
sg10
S'i54'
p545
sg12
S'i53'
p546
sg13
Nsg14
(lp547
(i__main__
Token
p548
(dp549
g18
I200
sba(i__main__
Token
p550
(dp551
g18
I201
sbasg19
I201
sbasg7
g536
sg47
Nsba(i__main__
Chain
p552
(dp553
g3
(lp554
(i__main__
Mention
p555
(dp556
g7
S't15'
p557
sg9
Nsg10
S'i56'
p558
sg12
Nsg13
Nsg14
(lp559
(i__main__
Token
p560
(dp561
g18
I202
sba(i__main__
Token
p562
(dp563
g18
I203
sbasg19
I203
sba(i__main__
Mention
p564
(dp565
g7
S't15'
p566
sg9
S'Coreference-Noun-Noun'
p567
sg10
S'i57'
p568
sg12
S'i56'
p569
sg13
Nsg14
(lp570
(i__main__
Token
p571
(dp572
g18
I205
sba(i__main__
Token
p573
(dp574
g18
I206
sbasg19
I206
sba(i__main__
Mention
p575
(dp576
g7
S't15'
p577
sg9
S'Coreference-NounComplement'
p578
sg10
S'i58'
p579
sg12
S'i57'
p580
sg13
Nsg14
(lp581
(i__main__
Token
p582
(dp583
g18
I207
sbasg19
I207
sbasg7
g557
sg47
Nsba.