(lp0
(i__main__
Chain
p1
(dp2
S'mentionList'
p3
(lp4
(i__main__
Mention
p5
(dp6
S'chainId'
p7
S't1'
p8
sS'relType'
p9
NsS'mentionId'
p10
S'i1'
p11
sS'antecedentId'
p12
NsS'crefMod'
p13
NsS'tokenList'
p14
(lp15
(i__main__
Token
p16
(dp17
S'tokenId'
p18
I0
sba(i__main__
Token
p19
(dp20
g18
I1
sba(i__main__
Token
p21
(dp22
g18
I2
sba(i__main__
Token
p23
(dp24
g18
I3
sba(i__main__
Token
p25
(dp26
g18
I4
sbasS'mentionHead'
p27
I4
sba(i__main__
Mention
p28
(dp29
g7
S't1'
p30
sg9
S'Coreference-Abbreviation'
p31
sg10
S'i4'
p32
sg12
S'i1'
p33
sg13
Nsg14
(lp34
(i__main__
Token
p35
(dp36
g18
I6
sbasg27
I6
sba(i__main__
Mention
p37
(dp38
g7
S't1'
p39
sg9
S'Coreference-Identity'
p40
sg10
S'i18'
p41
sg12
S'i2'
p42
sg13
Nsg14
(lp43
(i__main__
Token
p44
(dp45
g18
I65
sbasg27
I65
sba(i__main__
Mention
p46
(dp47
g7
S't1'
p48
sg9
S'Coreference-Identity'
p49
sg10
S'i62'
p50
sg12
S'i18'
p51
sg13
Nsg14
(lp52
(i__main__
Token
p53
(dp54
g18
I247
sbasg27
I247
sba(i__main__
Mention
p55
(dp56
g7
S't1'
p57
sg9
S'Coreference-Noun-Noun'
p58
sg10
S'i67'
p59
sg12
S'i62'
p60
sg13
Nsg14
(lp61
(i__main__
Token
p62
(dp63
g18
I278
sba(i__main__
Token
p64
(dp65
g18
I279
sba(i__main__
Token
p66
(dp67
g18
I280
sbasg27
I280
sba(i__main__
Mention
p68
(dp69
g7
S't1'
p70
sg9
S'Coreference-Noun-Noun'
p71
sg10
S'i80'
p72
sg12
S'i67'
p73
sg13
Nsg14
(lp74
(i__main__
Token
p75
(dp76
g18
I337
sbasg27
I337
sba(i__main__
Mention
p77
(dp78
g7
S't1'
p79
sg9
S'Anaphora-C'
p80
sg10
S'i81'
p81
sg12
S'i80'
p82
sg13
Nsg14
(lp83
(i__main__
Token
p84
(dp85
g18
I341
sbasg27
I341
sbasg7
g8
sS'chainHead'
p86
Nsba(i__main__
Chain
p87
(dp88
g3
(lp89
(i__main__
Mention
p90
(dp91
g7
S't2'
p92
sg9
Nsg10
S'i2'
p93
sg12
Nsg13
Nsg14
(lp94
(i__main__
Token
p95
(dp96
g18
I0
sba(i__main__
Token
p97
(dp98
g18
I1
sba(i__main__
Token
p99
(dp100
g18
I2
sba(i__main__
Token
p101
(dp102
g18
I3
sba(i__main__
Token
p103
(dp104
g18
I4
sba(i__main__
Token
p105
(dp106
g18
I5
sba(i__main__
Token
p107
(dp108
g18
I6
sba(i__main__
Token
p109
(dp110
g18
I7
sba(i__main__
Token
p111
(dp112
g18
I8
sbasg27
I8
sba(i__main__
Mention
p113
(dp114
g7
S't2'
p115
sg9
S'Anaphora-C'
p116
sg10
S'i13'
p117
sg12
S'i2'
p118
sg13
Nsg14
(lp119
(i__main__
Token
p120
(dp121
g18
I34
sbasg27
I34
sba(i__main__
Mention
p122
(dp123
g7
S't2'
p124
sg9
S'Coreference-Identity'
p125
sg10
S'i15'
p126
sg12
S'i13'
p127
sg13
Nsg14
(lp128
(i__main__
Token
p129
(dp130
g18
I56
sba(i__main__
Token
p131
(dp132
g18
I57
sbasg27
I57
sba(i__main__
Mention
p133
(dp134
g7
S't2'
p135
sg9
S'Coreference-Identity'
p136
sg10
S'i28'
p137
sg12
S'i15'
p138
sg13
Nsg14
(lp139
(i__main__
Token
p140
(dp141
g18
I99
sbasg27
I99
sba(i__main__
Mention
p142
(dp143
g7
S't2'
p144
sg9
S'Coreference-Identity'
p145
sg10
S'i33'
p146
sg12
S'i28'
p147
sg13
Nsg14
(lp148
(i__main__
Token
p149
(dp150
g18
I128
sbasg27
I128
sba(i__main__
Mention
p151
(dp152
g7
S't2'
p153
sg9
S'Anaphora-C'
p154
sg10
S'i36'
p155
sg12
S'i33'
p156
sg13
Nsg14
(lp157
(i__main__
Token
p158
(dp159
g18
I138
sbasg27
I138
sba(i__main__
Mention
p160
(dp161
g7
S't2'
p162
sg9
S'Coreference-Identity'
p163
sg10
S'i46'
p164
sg12
S'i36'
p165
sg13
Nsg14
(lp166
(i__main__
Token
p167
(dp168
g18
I163
sbasg27
I163
sba(i__main__
Mention
p169
(dp170
g7
S't2'
p171
sg9
S'Anaphora-C'
p172
sg10
S'i47'
p173
sg12
S'i46'
p174
sg13
Nsg14
(lp175
(i__main__
Token
p176
(dp177
g18
I168
sbasg27
I168
sba(i__main__
Mention
p178
(dp179
g7
S't2'
p180
sg9
S'Coreference-Identity'
p181
sg10
S'i51'
p182
sg12
S'i47'
p183
sg13
Nsg14
(lp184
(i__main__
Token
p185
(dp186
g18
I196
sbasg27
I196
sba(i__main__
Mention
p187
(dp188
g7
S't2'
p189
sg9
S'Coreference-Identity'
p190
sg10
S'i56'
p191
sg12
S'i51'
p192
sg13
Nsg14
(lp193
(i__main__
Token
p194
(dp195
g18
I221
sbasg27
I221
sba(i__main__
Mention
p196
(dp197
g7
S't2'
p198
sg9
S'Coreference-Identity'
p199
sg10
S'i72'
p200
sg12
S'i56'
p201
sg13
Nsg14
(lp202
(i__main__
Token
p203
(dp204
g18
I299
sba(i__main__
Token
p205
(dp206
g18
I300
sbasg27
I300
sba(i__main__
Mention
p207
(dp208
g7
S't2'
p209
sg9
S'Anaphora-C'
p210
sg10
S'i78'
p211
sg12
S'i72'
p212
sg13
Nsg14
(lp213
(i__main__
Token
p214
(dp215
g18
I328
sbasg27
I328
sba(i__main__
Mention
p216
(dp217
g7
S't2'
p218
sg9
S'Coreference-Identity'
p219
sg10
S'i84'
p220
sg12
S'i78'
p221
sg13
Nsg14
(lp222
(i__main__
Token
p223
(dp224
g18
I355
sbasg27
I355
sbasg7
g92
sg86
Nsba(i__main__
Chain
p225
(dp226
g3
(lp227
(i__main__
Mention
p228
(dp229
g7
S't3'
p230
sg9
Nsg10
S'i3'
p231
sg12
Nsg13
Nsg14
(lp232
(i__main__
Token
p233
(dp234
g18
I10
sbasg27
I10
sba(i__main__
Mention
p235
(dp236
g7
S't3'
p237
sg9
S'Coreference-Identity'
p238
sg10
S'i34'
p239
sg12
S'i3'
p240
sg13
Nsg14
(lp241
(i__main__
Token
p242
(dp243
g18
I130
sbasg27
I130
sba(i__main__
Mention
p244
(dp245
g7
S't3'
p246
sg9
S'Coreference-Identity'
p247
sg10
S'i85'
p248
sg12
S'i34'
p249
sg13
Nsg14
(lp250
(i__main__
Token
p251
(dp252
g18
I357
sbasg27
I357
sbasg7
g230
sg86
Nsba(i__main__
Chain
p253
(dp254
g3
(lp255
(i__main__
Mention
p256
(dp257
g7
S't4'
p258
sg9
Nsg10
S'i5'
p259
sg12
Nsg13
Nsg14
(lp260
(i__main__
Token
p261
(dp262
g18
I13
sbasg27
Nsba(i__main__
Mention
p263
(dp264
g7
S't4'
p265
sg9
Nsg10
S'i26'
p266
sg12
Nsg13
Nsg14
(lp267
(i__main__
Token
p268
(dp269
g18
I90
sba(i__main__
Token
p270
(dp271
g18
I91
sbasg27
Nsba(i__main__
Mention
p272
(dp273
g7
S't4'
p274
sg9
Nsg10
S'i37'
p275
sg12
Nsg13
Nsg14
(lp276
(i__main__
Token
p277
(dp278
g18
I144
sbasg27
Nsbasg7
g258
sg86
Nsba(i__main__
Chain
p279
(dp280
g3
(lp281
(i__main__
Mention
p282
(dp283
g7
S't5'
p284
sg9
Nsg10
S'i6'
p285
sg12
Nsg13
Nsg14
(lp286
(i__main__
Token
p287
(dp288
g18
I13
sbasg27
Nsba(i__main__
Mention
p289
(dp290
g7
S't5'
p291
sg9
Nsg10
S'i27'
p292
sg12
Nsg13
Nsg14
(lp293
(i__main__
Token
p294
(dp295
g18
I91
sbasg27
Nsba(i__main__
Mention
p296
(dp297
g7
S't5'
p298
sg9
Nsg10
S'i38'
p299
sg12
Nsg13
Nsg14
(lp300
(i__main__
Token
p301
(dp302
g18
I144
sbasg27
Nsbasg7
g284
sg86
Nsba(i__main__
Chain
p303
(dp304
g3
(lp305
(i__main__
Mention
p306
(dp307
g7
S't6'
p308
sg9
Nsg10
S'i7'
p309
sg12
Nsg13
Nsg14
(lp310
(i__main__
Token
p311
(dp312
g18
I15
sba(i__main__
Token
p313
(dp314
g18
I16
sbasg27
Nsba(i__main__
Mention
p315
(dp316
g7
S't6'
p317
sg9
Nsg10
S'i39'
p318
sg12
Nsg13
Nsg14
(lp319
(i__main__
Token
p320
(dp321
g18
I146
sba(i__main__
Token
p322
(dp323
g18
I147
sbasg27
Nsbasg7
g308
sg86
Nsba(i__main__
Chain
p324
(dp325
g3
(lp326
(i__main__
Mention
p327
(dp328
g7
S't7'
p329
sg9
Nsg10
S'i8'
p330
sg12
Nsg13
Nsg14
(lp331
(i__main__
Token
p332
(dp333
g18
I16
sbasg27
Nsba(i__main__
Mention
p334
(dp335
g7
S't7'
p336
sg9
Nsg10
S'i11'
p337
sg12
Nsg13
Nsg14
(lp338
(i__main__
Token
p339
(dp340
g18
I21
sbasg27
Nsba(i__main__
Mention
p341
(dp342
g7
S't7'
p343
sg9
S'Coreference-Identity'
p344
sg10
S'i31'
p345
sg12
S'i11'
p346
sg13
Nsg14
(lp347
(i__main__
Token
p348
(dp349
g18
I119
sbasg27
I119
sba(i__main__
Mention
p350
(dp351
g7
S't7'
p352
sg9
Nsg10
S'i40'
p353
sg12
Nsg13
Nsg14
(lp354
(i__main__
Token
p355
(dp356
g18
I147
sbasg27
Nsba(i__main__
Mention
p357
(dp358
g7
S't7'
p359
sg9
Nsg10
S'i43'
p360
sg12
Nsg13
Nsg14
(lp361
(i__main__
Token
p362
(dp363
g18
I152
sbasg27
Nsbasg7
g329
sg86
Nsba(i__main__
Chain
p364
(dp365
g3
(lp366
(i__main__
Mention
p367
(dp368
g7
S't8'
p369
sg9
Nsg10
S'i9'
p370
sg12
Nsg13
Nsg14
(lp371
(i__main__
Token
p372
(dp373
g18
I18
sbasg27
I18
sba(i__main__
Mention
p374
(dp375
g7
S't8'
p376
sg9
S'Coreference-Identity'
p377
sg10
S'i30'
p378
sg12
S'i9'
p379
sg13
Nsg14
(lp380
(i__main__
Token
p381
(dp382
g18
I116
sbasg27
I116
sba(i__main__
Mention
p383
(dp384
g7
S't8'
p385
sg9
S'Coreference-Identity'
p386
sg10
S'i41'
p387
sg12
S'i30'
p388
sg13
Nsg14
(lp389
(i__main__
Token
p390
(dp391
g18
I149
sbasg27
I149
sbasg7
g369
sg86
Nsba(i__main__
Chain
p392
(dp393
g3
(lp394
(i__main__
Mention
p395
(dp396
g7
S't9'
p397
sg9
Nsg10
S'i10'
p398
sg12
Nsg13
Nsg14
(lp399
(i__main__
Token
p400
(dp401
g18
I20
sba(i__main__
Token
p402
(dp403
g18
I21
sbasg27
Nsba(i__main__
Mention
p404
(dp405
g7
S't9'
p406
sg9
Nsg10
S'i42'
p407
sg12
Nsg13
Nsg14
(lp408
(i__main__
Token
p409
(dp410
g18
I151
sba(i__main__
Token
p411
(dp412
g18
I152
sbasg27
Nsbasg7
g397
sg86
Nsba(i__main__
Chain
p413
(dp414
g3
(lp415
(i__main__
Mention
p416
(dp417
g7
S't10'
p418
sg9
Nsg10
S'i12'
p419
sg12
Nsg13
Nsg14
(lp420
(i__main__
Token
p421
(dp422
g18
I28
sbasg27
I28
sba(i__main__
Mention
p423
(dp424
g7
S't10'
p425
sg9
S'Coreference-Identity'
p426
sg10
S'i22'
p427
sg12
S'i12'
p428
sg13
Nsg14
(lp429
(i__main__
Token
p430
(dp431
g18
I78
sbasg27
I78
sba(i__main__
Mention
p432
(dp433
g7
S't10'
p434
sg9
S'Coreference-Identity'
p435
sg10
S'i50'
p436
sg12
S'i22'
p437
sg13
Nsg14
(lp438
(i__main__
Token
p439
(dp440
g18
I194
sbasg27
I194
sba(i__main__
Mention
p441
(dp442
g7
S't10'
p443
sg9
S'Coreference-Identity'
p444
sg10
S'i57'
p445
sg12
S'i50'
p446
sg13
Nsg14
(lp447
(i__main__
Token
p448
(dp449
g18
I227
sbasg27
I227
sba(i__main__
Mention
p450
(dp451
g7
S't10'
p452
sg9
S'Coreference-Identity'
p453
sg10
S'i77'
p454
sg12
S'i57'
p455
sg13
Nsg14
(lp456
(i__main__
Token
p457
(dp458
g18
I324
sbasg27
I324
sbasg7
g418
sg86
Nsba(i__main__
Chain
p459
(dp460
g3
(lp461
(i__main__
Mention
p462
(dp463
g7
S't11'
p464
sg9
Nsg10
S'i14'
p465
sg12
Nsg13
Nsg14
(lp466
(i__main__
Token
p467
(dp468
g18
I45
sbasg27
I45
sba(i__main__
Mention
p469
(dp470
g7
S't11'
p471
sg9
S'Anaphora-C'
p472
sg10
S'i17'
p473
sg12
S'i14'
p474
sg13
Nsg14
(lp475
(i__main__
Token
p476
(dp477
g18
I64
sbasg27
I64
sba(i__main__
Mention
p478
(dp479
g7
S't11'
p480
sg9
S'Coreference-Identity'
p481
sg10
S'i52'
p482
sg12
S'i17'
p483
sg13
Nsg14
(lp484
(i__main__
Token
p485
(dp486
g18
I207
sbasg27
I207
sba(i__main__
Mention
p487
(dp488
g7
S't11'
p489
sg9
S'Coreference-Noun-Noun'
p490
sg10
S'i68'
p491
sg12
S'i52'
p492
sg13
Nsg14
(lp493
(i__main__
Token
p494
(dp495
g18
I282
sbasg27
I282
sba(i__main__
Mention
p496
(dp497
g7
S't11'
p498
sg9
S'Coreference-Noun-Noun'
p499
sg10
S'i70'
p500
sg12
S'i68'
p501
sg13
Nsg14
(lp502
(i__main__
Token
p503
(dp504
g18
I284
sbasg27
I284
sbasg7
g464
sg86
Nsba(i__main__
Chain
p505
(dp506
g3
(lp507
(i__main__
Mention
p508
(dp509
g7
S't12'
p510
sg9
Nsg10
S'i16'
p511
sg12
Nsg13
Nsg14
(lp512
(i__main__
Token
p513
(dp514
g18
I59
sbasg27
I59
sba(i__main__
Mention
p515
(dp516
g7
S't12'
p517
sg9
S'Coreference-Identity'
p518
sg10
S'i60'
p519
sg12
S'i16'
p520
sg13
Nsg14
(lp521
(i__main__
Token
p522
(dp523
g18
I239
sba(i__main__
Token
p524
(dp525
g18
I240
sbasg27
I240
sba(i__main__
Mention
p526
(dp527
g7
S't12'
p528
sg9
S'Anaphora-C'
p529
sg10
S'i64'
p530
sg12
S'i60'
p531
sg13
Nsg14
(lp532
(i__main__
Token
p533
(dp534
g18
I256
sbasg27
I256
sbasg7
g510
sg86
Nsba(i__main__
Chain
p535
(dp536
g3
(lp537
(i__main__
Mention
p538
(dp539
g7
S't13'
p540
sg9
Nsg10
S'i19'
p541
sg12
Nsg13
Nsg14
(lp542
(i__main__
Token
p543
(dp544
g18
I65
sba(i__main__
Token
p545
(dp546
g18
I66
sbasg27
I66
sba(i__main__
Mention
p547
(dp548
g7
S't13'
p549
sg9
S'Coreference-Identity'
p550
sg10
S'i63'
p551
sg12
S'i19'
p552
sg13
Nsg14
(lp553
(i__main__
Token
p554
(dp555
g18
I247
sba(i__main__
Token
p556
(dp557
g18
I248
sbasg27
I248
sba(i__main__
Mention
p558
(dp559
g7
S't13'
p560
sg9
S'Coreference-Identity'
p561
sg10
S'i66'
p562
sg12
S'i63'
p563
sg13
Nsg14
(lp564
(i__main__
Token
p565
(dp566
g18
I275
sba(i__main__
Token
p567
(dp568
g18
I276
sbasg27
I276
sba(i__main__
Mention
p569
(dp570
g7
S't13'
p571
sg9
S'Coreference-Identity'
p572
sg10
S'i83'
p573
sg12
S'i66'
p574
sg13
Nsg14
(lp575
(i__main__
Token
p576
(dp577
g18
I342
sba(i__main__
Token
p578
(dp579
g18
I343
sba(i__main__
Token
p580
(dp581
g18
I344
sba(i__main__
Token
p582
(dp583
g18
I345
sbasg27
I345
sbasg7
g540
sg86
Nsba(i__main__
Chain
p584
(dp585
g3
(lp586
(i__main__
Mention
p587
(dp588
g7
S't14'
p589
sg9
Nsg10
S'i21'
p590
sg12
Nsg13
Nsg14
(lp591
(i__main__
Token
p592
(dp593
g18
I74
sba(i__main__
Token
p594
(dp595
g18
I75
sbasg27
I75
sba(i__main__
Mention
p596
(dp597
g7
S't14'
p598
sg9
S'Anaphora-C'
p599
sg10
S'i29'
p600
sg12
S'i21'
p601
sg13
Nsg14
(lp602
(i__main__
Token
p603
(dp604
g18
I106
sbasg27
I106
sba(i__main__
Mention
p605
(dp606
g7
S't14'
p607
sg9
S'Coreference-Identity'
p608
sg10
S'i35'
p609
sg12
S'i29'
p610
sg13
Nsg14
(lp611
(i__main__
Token
p612
(dp613
g18
I134
sbasg27
I134
sba(i__main__
Mention
p614
(dp615
g7
S't14'
p616
sg9
S'Anaphora-C'
p617
sg10
S'i44'
p618
sg12
S'i35'
p619
sg13
Nsg14
(lp620
(i__main__
Token
p621
(dp622
g18
I157
sbasg27
I157
sba(i__main__
Mention
p623
(dp624
g7
S't14'
p625
sg9
S'Coreference-Identity'
p626
sg10
S'i48'
p627
sg12
S'i44'
p628
sg13
Nsg14
(lp629
(i__main__
Token
p630
(dp631
g18
I175
sbasg27
I175
sbasg7
g589
sg86
Nsba(i__main__
Chain
p632
(dp633
g3
(lp634
(i__main__
Mention
p635
(dp636
g7
S't15'
p637
sg9
Nsg10
S'i23'
p638
sg12
Nsg13
Nsg14
(lp639
(i__main__
Token
p640
(dp641
g18
I81
sbasg27
I81
sba(i__main__
Mention
p642
(dp643
g7
S't15'
p644
sg9
S'Coreference-Identity'
p645
sg10
S'i32'
p646
sg12
S'i23'
p647
sg13
Nsg14
(lp648
(i__main__
Token
p649
(dp650
g18
I121
sbasg27
I121
sba(i__main__
Mention
p651
(dp652
g7
S't15'
p653
sg9
S'Coreference-Identity'
p654
sg10
S'i49'
p655
sg12
S'i32'
p656
sg13
Nsg14
(lp657
(i__main__
Token
p658
(dp659
g18
I179
sbasg27
I179
sba(i__main__
Mention
p660
(dp661
g7
S't15'
p662
sg9
S'Coreference-Identity'
p663
sg10
S'i61'
p664
sg12
S'i49'
p665
sg13
Nsg14
(lp666
(i__main__
Token
p667
(dp668
g18
I245
sbasg27
I245
sba(i__main__
Mention
p669
(dp670
g7
S't15'
p671
sg9
S'Coreference-Identity'
p672
sg10
S'i76'
p673
sg12
S'i61'
p674
sg13
Nsg14
(lp675
(i__main__
Token
p676
(dp677
g18
I315
sbasg27
I315
sbasg7
g637
sg86
Nsba(i__main__
Chain
p678
(dp679
g3
(lp680
(i__main__
Mention
p681
(dp682
g7
S't16'
p683
sg9
Nsg10
S'i24'
p684
sg12
Nsg13
Nsg14
(lp685
(i__main__
Token
p686
(dp687
g18
I87
sbasg27
I87
sba(i__main__
Mention
p688
(dp689
g7
S't16'
p690
sg9
S'Coreference-NounComplement'
p691
sg10
S'i25'
p692
sg12
S'i24'
p693
sg13
Nsg14
(lp694
(i__main__
Token
p695
(dp696
g18
I88
sba(i__main__
Token
p697
(dp698
g18
I89
sbasg27
I89
sbasg7
g683
sg86
Nsba(i__main__
Chain
p699
(dp700
g3
(lp701
(i__main__
Mention
p702
(dp703
g7
S't17'
p704
sg9
Nsg10
S'i53'
p705
sg12
Nsg13
Nsg14
(lp706
(i__main__
Token
p707
(dp708
g18
I212
sbasg27
I212
sba(i__main__
Mention
p709
(dp710
g7
S't17'
p711
sg9
S'Coreference-NounComplement'
p712
sg10
S'i54'
p713
sg12
S'i53'
p714
sg13
Nsg14
(lp715
(i__main__
Token
p716
(dp717
g18
I213
sba(i__main__
Token
p718
(dp719
g18
I214
sba(i__main__
Token
p720
(dp721
g18
I215
sbasg27
I215
sba(i__main__
Mention
p722
(dp723
g7
S't17'
p724
sg9
S'Anaphora-C'
p725
sg10
S'i55'
p726
sg12
S'i54'
p727
sg13
Nsg14
(lp728
(i__main__
Token
p729
(dp730
g18
I220
sbasg27
I220
sba(i__main__
Mention
p731
(dp732
g7
S't17'
p733
sg9
S'Anaphora-C'
p734
sg10
S'i58'
p735
sg12
S'i55'
p736
sg13
Nsg14
(lp737
(i__main__
Token
p738
(dp739
g18
I235
sbasg27
I235
sba(i__main__
Mention
p740
(dp741
g7
S't17'
p742
sg9
S'Anaphora-C'
p743
sg10
S'i59'
p744
sg12
S'i58'
p745
sg13
Nsg14
(lp746
(i__main__
Token
p747
(dp748
g18
I238
sbasg27
I238
sbasg7
g704
sg86
Nsba(i__main__
Chain
p749
(dp750
g3
(lp751
(i__main__
Mention
p752
(dp753
g7
S't18'
p754
sg9
Nsg10
S'i65'
p755
sg12
Nsg13
Nsg14
(lp756
(i__main__
Token
p757
(dp758
g18
I269
sbasg27
I269
sba(i__main__
Mention
p759
(dp760
g7
S't18'
p761
sg9
S'Coreference-Identity'
p762
sg10
S'i75'
p763
sg12
S'i65'
p764
sg13
Nsg14
(lp765
(i__main__
Token
p766
(dp767
g18
I308
sbasg27
I308
sbasg7
g754
sg86
Nsba(i__main__
Chain
p768
(dp769
g3
(lp770
(i__main__
Mention
p771
(dp772
g7
S't19'
p773
sg9
S'anaphora-?'
p774
sg10
S'i69'
p775
sg12
S'i69'
p776
sg13
Nsg14
(lp777
(i__main__
Token
p778
(dp779
g18
I283
sbasg27
I283
sbasg7
g773
sg86
Nsba(i__main__
Chain
p780
(dp781
g3
(lp782
(i__main__
Mention
p783
(dp784
g7
S't20'
p785
sg9
Nsg10
S'i71'
p786
sg12
Nsg13
Nsg14
(lp787
(i__main__
Token
p788
(dp789
g18
I290
sba(i__main__
Token
p790
(dp791
g18
I291
sba(i__main__
Token
p792
(dp793
g18
I292
sba(i__main__
Token
p794
(dp795
g18
I293
sba(i__main__
Token
p796
(dp797
g18
I294
sba(i__main__
Token
p798
(dp799
g18
I295
sba(i__main__
Token
p800
(dp801
g18
I296
sba(i__main__
Token
p802
(dp803
g18
I297
sba(i__main__
Token
p804
(dp805
g18
I298
sba(i__main__
Token
p806
(dp807
g18
I299
sba(i__main__
Token
p808
(dp809
g18
I300
sba(i__main__
Token
p810
(dp811
g18
I301
sba(i__main__
Token
p812
(dp813
g18
I302
sba(i__main__
Token
p814
(dp815
g18
I303
sba(i__main__
Token
p816
(dp817
g18
I304
sbasg27
I302
sba(i__main__
Mention
p818
(dp819
g7
S't20'
p820
sg9
S'Anaphora-E'
p821
sg10
S'i73'
p822
sg12
S'i71'
p823
sg13
Nsg14
(lp824
(i__main__
Token
p825
(dp826
g18
I306
sbasg27
I306
sbasg7
g785
sg86
Nsba.