(lp0
(i__main__
Chain
p1
(dp2
S'mentionList'
p3
(lp4
(i__main__
Mention
p5
(dp6
S'chainId'
p7
S't1'
p8
sS'relType'
p9
NsS'mentionId'
p10
S'i1'
p11
sS'antecedentId'
p12
NsS'crefMod'
p13
NsS'tokenList'
p14
(lp15
(i__main__
Token
p16
(dp17
S'tokenId'
p18
I0
sba(i__main__
Token
p19
(dp20
g18
I1
sbasS'mentionHead'
p21
I1
sba(i__main__
Mention
p22
(dp23
g7
S't1'
p24
sg9
S'Coreference-Identity'
p25
sg10
S'i11'
p26
sg12
S'i1'
p27
sg13
Nsg14
(lp28
(i__main__
Token
p29
(dp30
g18
I49
sbasg21
I49
sba(i__main__
Mention
p31
(dp32
g7
S't1'
p33
sg9
S'Coreference-Identity'
p34
sg10
S'i27'
p35
sg12
S'i11'
p36
sg13
Nsg14
(lp37
(i__main__
Token
p38
(dp39
g18
I130
sbasg21
I130
sbasg7
g8
sS'chainHead'
p40
Nsba(i__main__
Chain
p41
(dp42
g3
(lp43
(i__main__
Mention
p44
(dp45
g7
S't2'
p46
sg9
Nsg10
S'i2'
p47
sg12
Nsg13
Nsg14
(lp48
(i__main__
Token
p49
(dp50
g18
I6
sbasg21
I6
sba(i__main__
Mention
p51
(dp52
g7
S't2'
p53
sg9
S'Anaphora-C'
p54
sg10
S'i3'
p55
sg12
S'i2'
p56
sg13
Nsg14
(lp57
(i__main__
Token
p58
(dp59
g18
I10
sbasg21
I10
sba(i__main__
Mention
p60
(dp61
g7
S't2'
p62
sg9
S'Coreference-Identity'
p63
sg10
S'i6'
p64
sg12
S'i3'
p65
sg13
Nsg14
(lp66
(i__main__
Token
p67
(dp68
g18
I25
sbasg21
I25
sba(i__main__
Mention
p69
(dp70
g7
S't2'
p71
sg9
S'Coreference-Noun-Noun'
p72
sg10
S'i8'
p73
sg12
S'i6'
p74
sg13
Nsg14
(lp75
(i__main__
Token
p76
(dp77
g18
I37
sbasg21
I37
sba(i__main__
Mention
p78
(dp79
g7
S't2'
p80
sg9
S'Anaphora-C'
p81
sg10
S'i9'
p82
sg12
S'i8'
p83
sg13
Nsg14
(lp84
(i__main__
Token
p85
(dp86
g18
I41
sbasg21
I41
sba(i__main__
Mention
p87
(dp88
g7
S't2'
p89
sg9
S'Coreference-Noun-Noun'
p90
sg10
S'i24'
p91
sg12
S'i9'
p92
sg13
Nsg14
(lp93
(i__main__
Token
p94
(dp95
g18
I122
sbasg21
I122
sba(i__main__
Mention
p96
(dp97
g7
S't2'
p98
sg9
S'Coreference-Identity'
p99
sg10
S'i28'
p100
sg12
S'i24'
p101
sg13
Nsg14
(lp102
(i__main__
Token
p103
(dp104
g18
I135
sbasg21
I135
sba(i__main__
Mention
p105
(dp106
g7
S't2'
p107
sg9
S'Coreference-Identity'
p108
sg10
S'i34'
p109
sg12
S'i28'
p110
sg13
Nsg14
(lp111
(i__main__
Token
p112
(dp113
g18
I161
sbasg21
I161
sba(i__main__
Mention
p114
(dp115
g7
S't2'
p116
sg9
S'Anaphora-C'
p117
sg10
S'i36'
p118
sg12
S'i34'
p119
sg13
Nsg14
(lp120
(i__main__
Token
p121
(dp122
g18
I163
sbasg21
I163
sba(i__main__
Mention
p123
(dp124
g7
S't2'
p125
sg9
S'Coreference-Noun-Noun'
p126
sg10
S'i40'
p127
sg12
S'i36'
p128
sg13
Nsg14
(lp129
(i__main__
Token
p130
(dp131
g18
I185
sbasg21
I185
sba(i__main__
Mention
p132
(dp133
g7
S't2'
p134
sg9
S'Coreference-Identity'
p135
sg10
S'i44'
p136
sg12
S'i40'
p137
sg13
Nsg14
(lp138
(i__main__
Token
p139
(dp140
g18
I202
sbasg21
I202
sba(i__main__
Mention
p141
(dp142
g7
S't2'
p143
sg9
S'Coreference-Noun-Noun'
p144
sg10
S'i46'
p145
sg12
S'i44'
p146
sg13
Nsg14
(lp147
(i__main__
Token
p148
(dp149
g18
I216
sbasg21
I216
sba(i__main__
Mention
p150
(dp151
g7
S't2'
p152
sg9
S'Anaphora-C'
p153
sg10
S'i47'
p154
sg12
S'i46'
p155
sg13
Nsg14
(lp156
(i__main__
Token
p157
(dp158
g18
I221
sbasg21
I221
sba(i__main__
Mention
p159
(dp160
g7
S't2'
p161
sg9
S'Coreference-Identity'
p162
sg10
S'i51'
p163
sg12
S'i47'
p164
sg13
Nsg14
(lp165
(i__main__
Token
p166
(dp167
g18
I253
sbasg21
I253
sbasg7
g46
sg40
Nsba(i__main__
Chain
p168
(dp169
g3
(lp170
(i__main__
Mention
p171
(dp172
g7
S't3'
p173
sg9
Nsg10
S'i4'
p174
sg12
Nsg13
Nsg14
(lp175
(i__main__
Token
p176
(dp177
g18
I11
sbasg21
I11
sba(i__main__
Mention
p178
(dp179
g7
S't3'
p180
sg9
S'Coreference-Identity'
p181
sg10
S'i14'
p182
sg12
S'i4'
p183
sg13
Nsg14
(lp184
(i__main__
Token
p185
(dp186
g18
I68
sbasg21
I68
sba(i__main__
Mention
p187
(dp188
g7
S't3'
p189
sg9
S'Coreference-Identity'
p190
sg10
S'i29'
p191
sg12
S'i14'
p192
sg13
Nsg14
(lp193
(i__main__
Token
p194
(dp195
g18
I136
sbasg21
I136
sbasg7
g173
sg40
Nsba(i__main__
Chain
p196
(dp197
g3
(lp198
(i__main__
Mention
p199
(dp200
g7
S't4'
p201
sg9
Nsg10
S'i5'
p202
sg12
Nsg13
Nsg14
(lp203
(i__main__
Token
p204
(dp205
g18
I13
sba(i__main__
Token
p206
(dp207
g18
I14
sbasg21
I14
sba(i__main__
Mention
p208
(dp209
g7
S't4'
p210
sg9
S'Coreference-Identity'
p211
sg10
S'i7'
p212
sg12
S'i5'
p213
sg13
Nsg14
(lp214
(i__main__
Token
p215
(dp216
g18
I29
sbasg21
I29
sba(i__main__
Mention
p217
(dp218
g7
S't4'
p219
sg9
S'Coreference-Identity'
p220
sg10
S'i15'
p221
sg12
S'i7'
p222
sg13
Nsg14
(lp223
(i__main__
Token
p224
(dp225
g18
I70
sba(i__main__
Token
p226
(dp227
g18
I71
sbasg21
I71
sba(i__main__
Mention
p228
(dp229
g7
S't4'
p230
sg9
S'Coreference-Identity'
p231
sg10
S'i30'
p232
sg12
S'i15'
p233
sg13
Nsg14
(lp234
(i__main__
Token
p235
(dp236
g18
I138
sba(i__main__
Token
p237
(dp238
g18
I139
sbasg21
I139
sba(i__main__
Mention
p239
(dp240
g7
S't4'
p241
sg9
S'Coreference-Identity'
p242
sg10
S'i37'
p243
sg12
S'i30'
p244
sg13
Nsg14
(lp245
(i__main__
Token
p246
(dp247
g18
I165
sba(i__main__
Token
p248
(dp249
g18
I166
sbasg21
I166
sba(i__main__
Mention
p250
(dp251
g7
S't4'
p252
sg9
S'Coreference-Identity'
p253
sg10
S'i39'
p254
sg12
S'i37'
p255
sg13
Nsg14
(lp256
(i__main__
Token
p257
(dp258
g18
I178
sbasg21
I178
sba(i__main__
Mention
p259
(dp260
g7
S't4'
p261
sg9
S'Coreference-Identity'
p262
sg10
S'i41'
p263
sg12
S'i39'
p264
sg13
Nsg14
(lp265
(i__main__
Token
p266
(dp267
g18
I186
sbasg21
I186
sba(i__main__
Mention
p268
(dp269
g7
S't4'
p270
sg9
S'Coreference-Identity'
p271
sg10
S'i43'
p272
sg12
S'i41'
p273
sg13
Nsg14
(lp274
(i__main__
Token
p275
(dp276
g18
I197
sbasg21
I197
sba(i__main__
Mention
p277
(dp278
g7
S't4'
p279
sg9
S'Coreference-Identity'
p280
sg10
S'i48'
p281
sg12
S'i43'
p282
sg13
Nsg14
(lp283
(i__main__
Token
p284
(dp285
g18
I222
sba(i__main__
Token
p286
(dp287
g18
I223
sbasg21
I223
sba(i__main__
Mention
p288
(dp289
g7
S't4'
p290
sg9
S'Coreference-Identity'
p291
sg10
S'i52'
p292
sg12
S'i48'
p293
sg13
Nsg14
(lp294
(i__main__
Token
p295
(dp296
g18
I258
sba(i__main__
Token
p297
(dp298
g18
I259
sbasg21
I259
sba(i__main__
Mention
p299
(dp300
g7
S't4'
p301
sg9
S'Anaphora-C'
p302
sg10
S'i58'
p303
sg12
S'i52'
p304
sg13
Nsg14
(lp305
(i__main__
Token
p306
(dp307
g18
I289
sbasg21
I289
sba(i__main__
Mention
p308
(dp309
g7
S't4'
p310
sg9
S'Anaphora-C'
p311
sg10
S'i63'
p312
sg12
S'i58'
p313
sg13
Nsg14
(lp314
(i__main__
Token
p315
(dp316
g18
I314
sbasg21
I314
sba(i__main__
Mention
p317
(dp318
g7
S't4'
p319
sg9
S'Coreference-Identity'
p320
sg10
S'i84'
p321
sg12
S'i63'
p322
sg13
Nsg14
(lp323
(i__main__
Token
p324
(dp325
g18
I460
sba(i__main__
Token
p326
(dp327
g18
I461
sbasg21
I461
sbasg7
g201
sg40
Nsba(i__main__
Chain
p328
(dp329
g3
(lp330
(i__main__
Mention
p331
(dp332
g7
S't5'
p333
sg9
Nsg10
S'i10'
p334
sg12
Nsg13
Nsg14
(lp335
(i__main__
Token
p336
(dp337
g18
I44
sbasg21
I44
sbasg7
g333
sg40
Nsba(i__main__
Chain
p338
(dp339
g3
(lp340
(i__main__
Mention
p341
(dp342
g7
S't6'
p343
sg9
Nsg10
S'i12'
p344
sg12
Nsg13
Nsg14
(lp345
(i__main__
Token
p346
(dp347
g18
I56
sba(i__main__
Token
p348
(dp349
g18
I57
sbasg21
I57
sba(i__main__
Mention
p350
(dp351
g7
S't6'
p352
sg9
S'Coreference-NounComplement'
p353
sg10
S'i13'
p354
sg12
S'i12'
p355
sg13
Nsg14
(lp356
(i__main__
Token
p357
(dp358
g18
I58
sba(i__main__
Token
p359
(dp360
g18
I59
sbasg21
I59
sba(i__main__
Mention
p361
(dp362
g7
S't6'
p363
sg9
S'Anaphora-C'
p364
sg10
S'i17'
p365
sg12
S'i13'
p366
sg13
Nsg14
(lp367
(i__main__
Token
p368
(dp369
g18
I75
sbasg21
I75
sba(i__main__
Mention
p370
(dp371
g7
S't6'
p372
sg9
S'Anaphora-C'
p373
sg10
S'i19'
p374
sg12
S'i17'
p375
sg13
Nsg14
(lp376
(i__main__
Token
p377
(dp378
g18
I81
sbasg21
I81
sba(i__main__
Mention
p379
(dp380
g7
S't6'
p381
sg9
S'Coreference-Identity'
p382
sg10
S'i65'
p383
sg12
S'i19'
p384
sg13
Nsg14
(lp385
(i__main__
Token
p386
(dp387
g18
I325
sba(i__main__
Token
p388
(dp389
g18
I326
sbasg21
I326
sba(i__main__
Mention
p390
(dp391
g7
S't6'
p392
sg9
S'Coreference-Identity'
p393
sg10
S'i78'
p394
sg12
S'i65'
p395
sg13
Nsg14
(lp396
(i__main__
Token
p397
(dp398
g18
I397
sba(i__main__
Token
p399
(dp400
g18
I398
sbasg21
I398
sba(i__main__
Mention
p401
(dp402
g7
S't6'
p403
sg9
S'Coreference-Identity'
p404
sg10
S'i81'
p405
sg12
S'i78'
p406
sg13
Nsg14
(lp407
(i__main__
Token
p408
(dp409
g18
I425
sba(i__main__
Token
p410
(dp411
g18
I426
sbasg21
I426
sbasg7
g343
sg40
Nsba(i__main__
Chain
p412
(dp413
g3
(lp414
(i__main__
Mention
p415
(dp416
g7
S't7'
p417
sg9
Nsg10
S'i16'
p418
sg12
Nsg13
Nsg14
(lp419
(i__main__
Token
p420
(dp421
g18
I73
sbasg21
I73
sba(i__main__
Mention
p422
(dp423
g7
S't7'
p424
sg9
S'Coreference-Identity'
p425
sg10
S'i20'
p426
sg12
S'i16'
p427
sg13
Nsg14
(lp428
(i__main__
Token
p429
(dp430
g18
I84
sbasg21
I84
sbasg7
g417
sg40
Nsba(i__main__
Chain
p431
(dp432
g3
(lp433
(i__main__
Mention
p434
(dp435
g7
S't8'
p436
sg9
Nsg10
S'i18'
p437
sg12
Nsg13
Nsg14
(lp438
(i__main__
Token
p439
(dp440
g18
I76
sbasg21
I76
sbasg7
g436
sg40
Nsba(i__main__
Chain
p441
(dp442
g3
(lp443
(i__main__
Mention
p444
(dp445
g7
S't9'
p446
sg9
Nsg10
S'i21'
p447
sg12
Nsg13
Nsg14
(lp448
(i__main__
Token
p449
(dp450
g18
I87
sbasg21
I87
sba(i__main__
Mention
p451
(dp452
g7
S't9'
p453
sg9
S'Anaphora-C'
p454
sg10
S'i22'
p455
sg12
S'i21'
p456
sg13
Nsg14
(lp457
(i__main__
Token
p458
(dp459
g18
I94
sbasg21
I94
sba(i__main__
Mention
p460
(dp461
g7
S't9'
p462
sg9
S'Coreference-Apposition'
p463
sg10
S'i69'
p464
sg12
S'i22'
p465
sg13
Nsg14
(lp466
(i__main__
Token
p467
(dp468
g18
I354
sbasg21
I354
sba(i__main__
Mention
p469
(dp470
g7
S't9'
p471
sg9
S'Coreference-Identity'
p472
sg10
S'i75'
p473
sg12
S'i69'
p474
sg13
Nsg14
(lp475
(i__main__
Token
p476
(dp477
g18
I387
sbasg21
I387
sba(i__main__
Mention
p478
(dp479
g7
S't9'
p480
sg9
S'Anaphora-C'
p481
sg10
S'i76'
p482
sg12
S'i75'
p483
sg13
Nsg14
(lp484
(i__main__
Token
p485
(dp486
g18
I391
sbasg21
I391
sba(i__main__
Mention
p487
(dp488
g7
S't9'
p489
sg9
S'Coreference-Identity'
p490
sg10
S'i90'
p491
sg12
S'i76'
p492
sg13
Nsg14
(lp493
(i__main__
Token
p494
(dp495
g18
I499
sbasg21
I499
sbasg7
g446
sg40
Nsba(i__main__
Chain
p496
(dp497
g3
(lp498
(i__main__
Mention
p499
(dp500
g7
S't10'
p501
sg9
Nsg10
S'i23'
p502
sg12
Nsg13
Nsg14
(lp503
(i__main__
Token
p504
(dp505
g18
I115
sbasg21
I115
sbasg7
g501
sg40
Nsba(i__main__
Chain
p506
(dp507
g3
(lp508
(i__main__
Mention
p509
(dp510
g7
S't11'
p511
sg9
Nsg10
S'i25'
p512
sg12
Nsg13
Nsg14
(lp513
(i__main__
Token
p514
(dp515
g18
I124
sbasg21
I124
sba(i__main__
Mention
p516
(dp517
g7
S't11'
p518
sg9
S'Coreference-NounComplement'
p519
sg10
S'i26'
p520
sg12
S'i25'
p521
sg13
Nsg14
(lp522
(i__main__
Token
p523
(dp524
g18
I125
sba(i__main__
Token
p525
(dp526
g18
I126
sbasg21
I126
sba(i__main__
Mention
p527
(dp528
g7
S't11'
p529
sg9
S'Anaphora-C'
p530
sg10
S'i31'
p531
sg12
S'i26'
p532
sg13
Nsg14
(lp533
(i__main__
Token
p534
(dp535
g18
I148
sbasg21
I148
sba(i__main__
Mention
p536
(dp537
g7
S't11'
p538
sg9
S'Anaphora-C'
p539
sg10
S'i38'
p540
sg12
S'i31'
p541
sg13
Nsg14
(lp542
(i__main__
Token
p543
(dp544
g18
I175
sbasg21
I175
sba(i__main__
Mention
p545
(dp546
g7
S't11'
p547
sg9
S'Coreference-Identity'
p548
sg10
S'i50'
p549
sg12
S'i38'
p550
sg13
Nsg14
(lp551
(i__main__
Token
p552
(dp553
g18
I249
sbasg21
I249
sbasg7
g511
sg40
Nsba(i__main__
Chain
p554
(dp555
g3
(lp556
(i__main__
Mention
p557
(dp558
g7
S't12'
p559
sg9
Nsg10
S'i32'
p560
sg12
Nsg13
Nsg14
(lp561
(i__main__
Token
p562
(dp563
g18
I151
sbasg21
I151
sba(i__main__
Mention
p564
(dp565
g7
S't12'
p566
sg9
S'Anaphora-RC'
p567
sg10
S'i35'
p568
sg12
S'i32'
p569
sg13
Nsg14
(lp570
(i__main__
Token
p571
(dp572
g18
I161
sba(i__main__
Token
p573
(dp574
g18
I162
sba(i__main__
Token
p575
(dp576
g18
I163
sba(i__main__
Token
p577
(dp578
g18
I164
sba(i__main__
Token
p579
(dp580
g18
I165
sba(i__main__
Token
p581
(dp582
g18
I166
sba(i__main__
Token
p583
(dp584
g18
I167
sba(i__main__
Token
p585
(dp586
g18
I168
sba(i__main__
Token
p587
(dp588
g18
I169
sba(i__main__
Token
p589
(dp590
g18
I170
sba(i__main__
Token
p591
(dp592
g18
I171
sba(i__main__
Token
p593
(dp594
g18
I172
sba(i__main__
Token
p595
(dp596
g18
I173
sbasg21
I173
sbasg7
g559
sg40
Nsba(i__main__
Chain
p597
(dp598
g3
(lp599
(i__main__
Mention
p600
(dp601
g7
S't13'
p602
sg9
Nsg10
S'i33'
p603
sg12
Nsg13
Nsg14
(lp604
(i__main__
Token
p605
(dp606
g18
I154
sbasg21
I154
sbasg7
g602
sg40
Nsba(i__main__
Chain
p607
(dp608
g3
(lp609
(i__main__
Mention
p610
(dp611
g7
S't14'
p612
sg9
Nsg10
S'i42'
p613
sg12
Nsg13
Nsg14
(lp614
(i__main__
Token
p615
(dp616
g18
I188
sbasg21
I188
sbasg7
g612
sg40
Nsba(i__main__
Chain
p617
(dp618
g3
(lp619
(i__main__
Mention
p620
(dp621
g7
S't15'
p622
sg9
Nsg10
S'i45'
p623
sg12
Nsg13
Nsg14
(lp624
(i__main__
Token
p625
(dp626
g18
I206
sbasg21
I206
sbasg7
g622
sg40
Nsba(i__main__
Chain
p627
(dp628
g3
(lp629
(i__main__
Mention
p630
(dp631
g7
S't16'
p632
sg9
Nsg10
S'i49'
p633
sg12
Nsg13
Nsg14
(lp634
(i__main__
Token
p635
(dp636
g18
I226
sbasg21
I226
sbasg7
g632
sg40
Nsba(i__main__
Chain
p637
(dp638
g3
(lp639
(i__main__
Mention
p640
(dp641
g7
S't17'
p642
sg9
Nsg10
S'i53'
p643
sg12
Nsg13
Nsg14
(lp644
(i__main__
Token
p645
(dp646
g18
I258
sba(i__main__
Token
p647
(dp648
g18
I259
sba(i__main__
Token
p649
(dp650
g18
I260
sba(i__main__
Token
p651
(dp652
g18
I261
sba(i__main__
Token
p653
(dp654
g18
I262
sba(i__main__
Token
p655
(dp656
g18
I263
sbasg21
I263
sba(i__main__
Mention
p657
(dp658
g7
S't17'
p659
sg9
S'Coreference-Identity'
p660
sg10
S'i54'
p661
sg12
S'i53'
p662
sg13
Nsg14
(lp663
(i__main__
Token
p664
(dp665
g18
I272
sbasg21
I272
sba(i__main__
Mention
p666
(dp667
g7
S't17'
p668
sg9
S'Coreference-Identity'
p669
sg10
S'i57'
p670
sg12
S'i54'
p671
sg13
Nsg14
(lp672
(i__main__
Token
p673
(dp674
g18
I280
sba(i__main__
Token
p675
(dp676
g18
I281
sbasg21
I281
sba(i__main__
Mention
p677
(dp678
g7
S't17'
p679
sg9
S'Coreference-Identity'
p680
sg10
S'i64'
p681
sg12
S'i57'
p682
sg13
Nsg14
(lp683
(i__main__
Token
p684
(dp685
g18
I316
sbasg21
I316
sbasg7
g642
sg40
Nsba(i__main__
Chain
p686
(dp687
g3
(lp688
(i__main__
Mention
p689
(dp690
g7
S't18'
p691
sg9
Nsg10
S'i55'
p692
sg12
Nsg13
Nsg14
(lp693
(i__main__
Token
p694
(dp695
g18
I274
sbasg21
I274
sbasg7
g691
sg40
Nsba(i__main__
Chain
p696
(dp697
g3
(lp698
(i__main__
Mention
p699
(dp700
g7
S't19'
p701
sg9
Nsg10
S'i56'
p702
sg12
Nsg13
Nsg14
(lp703
(i__main__
Token
p704
(dp705
g18
I279
sbasg21
I279
sba(i__main__
Mention
p706
(dp707
g7
S't19'
p708
sg9
S'Anaphora-C'
p709
sg10
S'i60'
p710
sg12
S'i56'
p711
sg13
Nsg14
(lp712
(i__main__
Token
p713
(dp714
g18
I300
sbasg21
I300
sba(i__main__
Mention
p715
(dp716
g7
S't19'
p717
sg9
S'Coreference-Identity'
p718
sg10
S'i62'
p719
sg12
S'i60'
p720
sg13
Nsg14
(lp721
(i__main__
Token
p722
(dp723
g18
I306
sbasg21
I306
sbasg7
g701
sg40
Nsba(i__main__
Chain
p724
(dp725
g3
(lp726
(i__main__
Mention
p727
(dp728
g7
S't20'
p729
sg9
Nsg10
S'i59'
p730
sg12
Nsg13
Nsg14
(lp731
(i__main__
Token
p732
(dp733
g18
I295
sba(i__main__
Token
p734
(dp735
g18
I296
sba(i__main__
Token
p736
(dp737
g18
I297
sba(i__main__
Token
p738
(dp739
g18
I298
sba(i__main__
Token
p740
(dp741
g18
I299
sba(i__main__
Token
p742
(dp743
g18
I300
sba(i__main__
Token
p744
(dp745
g18
I301
sba(i__main__
Token
p746
(dp747
g18
I302
sbasg21
I301
sba(i__main__
Mention
p748
(dp749
g7
S't20'
p750
sg9
S'Anaphora-E'
p751
sg10
S'i61'
p752
sg12
S'i59'
p753
sg13
Nsg14
(lp754
(i__main__
Token
p755
(dp756
g18
I304
sbasg21
I304
sbasg7
g729
sg40
Nsba(i__main__
Chain
p757
(dp758
g3
(lp759
(i__main__
Mention
p760
(dp761
g7
S't21'
p762
sg9
Nsg10
S'i66'
p763
sg12
Nsg13
Nsg14
(lp764
(i__main__
Token
p765
(dp766
g18
I328
sbasg21
I328
sba(i__main__
Mention
p767
(dp768
g7
S't21'
p769
sg9
S'Coreference-NounComplement'
p770
sg10
S'i67'
p771
sg12
S'i66'
p772
sg13
Nsg14
(lp773
(i__main__
Token
p774
(dp775
g18
I329
sba(i__main__
Token
p776
(dp777
g18
I330
sba(i__main__
Token
p778
(dp779
g18
I331
sbasg21
I331
sba(i__main__
Mention
p780
(dp781
g7
S't21'
p782
sg9
S'Coreference-Identity'
p783
sg10
S'i70'
p784
sg12
S'i67'
p785
sg13
Nsg14
(lp786
(i__main__
Token
p787
(dp788
g18
I360
sbasg21
I360
sba(i__main__
Mention
p789
(dp790
g7
S't21'
p791
sg9
S'Anaphora-C'
p792
sg10
S'i73'
p793
sg12
S'i70'
p794
sg13
Nsg14
(lp795
(i__main__
Token
p796
(dp797
g18
I377
sbasg21
I377
sba(i__main__
Mention
p798
(dp799
g7
S't21'
p800
sg9
S'Anaphora-C'
p801
sg10
S'i80'
p802
sg12
S'i73'
p803
sg13
Nsg14
(lp804
(i__main__
Token
p805
(dp806
g18
I418
sbasg21
I418
sbasg7
g762
sg40
Nsba(i__main__
Chain
p807
(dp808
g3
(lp809
(i__main__
Mention
p810
(dp811
g7
S't22'
p812
sg9
Nsg10
S'i68'
p813
sg12
Nsg13
Nsg14
(lp814
(i__main__
Token
p815
(dp816
g18
I345
sbasg21
I345
sba(i__main__
Mention
p817
(dp818
g7
S't22'
p819
sg9
S'Coreference-Identity'
p820
sg10
S'i85'
p821
sg12
S'i68'
p822
sg13
Nsg14
(lp823
(i__main__
Token
p824
(dp825
g18
I477
sbasg21
I477
sbasg7
g812
sg40
Nsba(i__main__
Chain
p826
(dp827
g3
(lp828
(i__main__
Mention
p829
(dp830
g7
S't23'
p831
sg9
Nsg10
S'i71'
p832
sg12
Nsg13
Nsg14
(lp833
(i__main__
Token
p834
(dp835
g18
I367
sbasg21
I367
sbasg7
g831
sg40
Nsba(i__main__
Chain
p836
(dp837
g3
(lp838
(i__main__
Mention
p839
(dp840
g7
S't24'
p841
sg9
Nsg10
S'i72'
p842
sg12
Nsg13
Nsg14
(lp843
(i__main__
Token
p844
(dp845
g18
I370
sbasg21
I370
sbasg7
g841
sg40
Nsba(i__main__
Chain
p846
(dp847
g3
(lp848
(i__main__
Mention
p849
(dp850
g7
S't25'
p851
sg9
Nsg10
S'i74'
p852
sg12
Nsg13
Nsg14
(lp853
(i__main__
Token
p854
(dp855
g18
I384
sba(i__main__
Token
p856
(dp857
g18
I385
sbasg21
I385
sba(i__main__
Mention
p858
(dp859
g7
S't25'
p860
sg9
S'Anaphora-C'
p861
sg10
S'i77'
p862
sg12
S'i74'
p863
sg13
Nsg14
(lp864
(i__main__
Token
p865
(dp866
g18
I396
sbasg21
I396
sbasg7
g851
sg40
Nsba(i__main__
Chain
p867
(dp868
g3
(lp869
(i__main__
Mention
p870
(dp871
g7
S't26'
p872
sg9
Nsg10
S'i79'
p873
sg12
Nsg13
Nsg14
(lp874
(i__main__
Token
p875
(dp876
g18
I397
sba(i__main__
Token
p877
(dp878
g18
I398
sba(i__main__
Token
p879
(dp880
g18
I399
sbasg21
I399
sba(i__main__
Mention
p881
(dp882
g7
S't26'
p883
sg9
S'Coreference-Identity'
p884
sg10
S'i82'
p885
sg12
S'i79'
p886
sg13
Nsg14
(lp887
(i__main__
Token
p888
(dp889
g18
I425
sba(i__main__
Token
p890
(dp891
g18
I426
sba(i__main__
Token
p892
(dp893
g18
I427
sbasg21
I427
sbasg7
g872
sg40
Nsba(i__main__
Chain
p894
(dp895
g3
(lp896
(i__main__
Mention
p897
(dp898
g7
S't27'
p899
sg9
Nsg10
S'i83'
p900
sg12
Nsg13
Nsg14
(lp901
(i__main__
Token
p902
(dp903
g18
I448
sbasg21
I448
sbasg7
g899
sg40
Nsba(i__main__
Chain
p904
(dp905
g3
(lp906
(i__main__
Mention
p907
(dp908
g7
S't28'
p909
sg9
Nsg10
S'i86'
p910
sg12
Nsg13
Nsg14
(lp911
(i__main__
Token
p912
(dp913
g18
I483
sbasg21
I483
sbasg7
g909
sg40
Nsba(i__main__
Chain
p914
(dp915
g3
(lp916
(i__main__
Mention
p917
(dp918
g7
S't29'
p919
sg9
Nsg10
S'i87'
p920
sg12
Nsg13
Nsg14
(lp921
(i__main__
Token
p922
(dp923
g18
I491
sbasg21
I491
sbasg7
g919
sg40
Nsba(i__main__
Chain
p924
(dp925
g3
(lp926
(i__main__
Mention
p927
(dp928
g7
S't30'
p929
sg9
Nsg10
S'i88'
p930
sg12
Nsg13
Nsg14
(lp931
(i__main__
Token
p932
(dp933
g18
I492
sbasg21
I492
sba(i__main__
Mention
p934
(dp935
g7
S't30'
p936
sg9
S'Anaphora-RC'
p937
sg10
S'i89'
p938
sg12
S'i88'
p939
sg13
Nsg14
(lp940
(i__main__
Token
p941
(dp942
g18
I498
sba(i__main__
Token
p943
(dp944
g18
I499
sba(i__main__
Token
p945
(dp946
g18
I500
sba(i__main__
Token
p947
(dp948
g18
I501
sba(i__main__
Token
p949
(dp950
g18
I502
sbasg21
I502
sbasg7
g929
sg40
Nsba.