(lp0
(i__main__
Chain
p1
(dp2
S'mentionList'
p3
(lp4
(i__main__
Mention
p5
(dp6
S'chainId'
p7
S't1'
p8
sS'relType'
p9
NsS'mentionId'
p10
S'i1'
p11
sS'antecedentId'
p12
NsS'crefMod'
p13
NsS'tokenList'
p14
(lp15
(i__main__
Token
p16
(dp17
S'tokenId'
p18
I0
sba(i__main__
Token
p19
(dp20
g18
I1
sbasS'mentionHead'
p21
I1
sba(i__main__
Mention
p22
(dp23
g7
S't1'
p24
sg9
S'Coreference-Identity'
p25
sg10
S'i37'
p26
sg12
S'i1'
p27
sg13
Nsg14
(lp28
(i__main__
Token
p29
(dp30
g18
I222
sba(i__main__
Token
p31
(dp32
g18
I223
sbasg21
I223
sba(i__main__
Mention
p33
(dp34
g7
S't1'
p35
sg9
S'Coreference-Identity'
p36
sg10
S'i48'
p37
sg12
S'i37'
p38
sg13
Nsg14
(lp39
(i__main__
Token
p40
(dp41
g18
I289
sba(i__main__
Token
p42
(dp43
g18
I290
sbasg21
I290
sbasg7
g8
sS'chainHead'
p44
Nsba(i__main__
Chain
p45
(dp46
g3
(lp47
(i__main__
Mention
p48
(dp49
g7
S't2'
p50
sg9
Nsg10
S'i2'
p51
sg12
Nsg13
Nsg14
(lp52
(i__main__
Token
p53
(dp54
g18
I6
sba(i__main__
Token
p55
(dp56
g18
I7
sba(i__main__
Token
p57
(dp58
g18
I8
sbasg21
I8
sba(i__main__
Mention
p59
(dp60
g7
S't2'
p61
sg9
S'Anaphora-C'
p62
sg10
S'i3'
p63
sg12
S'i2'
p64
sg13
Nsg14
(lp65
(i__main__
Token
p66
(dp67
g18
I10
sbasg21
I10
sbasg7
g50
sg44
Nsba(i__main__
Chain
p68
(dp69
g3
(lp70
(i__main__
Mention
p71
(dp72
g7
S't3'
p73
sg9
Nsg10
S'i4'
p74
sg12
Nsg13
Nsg14
(lp75
(i__main__
Token
p76
(dp77
g18
I18
sba(i__main__
Token
p78
(dp79
g18
I19
sba(i__main__
Token
p80
(dp81
g18
I20
sba(i__main__
Token
p82
(dp83
g18
I21
sbasg21
I21
sba(i__main__
Mention
p84
(dp85
g7
S't3'
p86
sg9
S'Coreference-Bracketed/Abbraviation'
p87
sg10
S'i5'
p88
sg12
S'i1'
p89
sg13
Nsg14
(lp90
(i__main__
Token
p91
(dp92
g18
I23
sbasg21
I23
sba(i__main__
Mention
p93
(dp94
g7
S't3'
p95
sg9
S'Coreference-Identity'
p96
sg10
S'i9'
p97
sg12
S'i5'
p98
sg13
Nsg14
(lp99
(i__main__
Token
p100
(dp101
g18
I47
sbasg21
I47
sba(i__main__
Mention
p102
(dp103
g7
S't3'
p104
sg9
S'Coreference-Identity'
p105
sg10
S'i34'
p106
sg12
S'i9'
p107
sg13
Nsg14
(lp108
(i__main__
Token
p109
(dp110
g18
I207
sbasg21
I207
sbasg7
g73
sg44
Nsba(i__main__
Chain
p111
(dp112
g3
(lp113
(i__main__
Mention
p114
(dp115
g7
S't4'
p116
sg9
Nsg10
S'i6'
p117
sg12
Nsg13
Nsg14
(lp118
(i__main__
Token
p119
(dp120
g18
I30
sba(i__main__
Token
p121
(dp122
g18
I31
sba(i__main__
Token
p123
(dp124
g18
I32
sbasg21
I32
sba(i__main__
Mention
p125
(dp126
g7
S't4'
p127
sg9
S'Coreference-NounComplement'
p128
sg10
S'i7'
p129
sg12
S'i6'
p130
sg13
Nsg14
(lp131
(i__main__
Token
p132
(dp133
g18
I33
sbasg21
I33
sba(i__main__
Mention
p134
(dp135
g7
S't4'
p136
sg9
S'Coreference-Noun-Noun'
p137
sg10
S'i8'
p138
sg12
S'i7'
p139
sg13
Nsg14
(lp140
(i__main__
Token
p141
(dp142
g18
I39
sba(i__main__
Token
p143
(dp144
g18
I40
sbasg21
I40
sba(i__main__
Mention
p145
(dp146
g7
S't4'
p147
sg9
S'Coreference-Noun-Noun'
p148
sg10
S'i10'
p149
sg12
S'i8'
p150
sg13
Nsg14
(lp151
(i__main__
Token
p152
(dp153
g18
I58
sbasg21
I58
sba(i__main__
Mention
p154
(dp155
g7
S't4'
p156
sg9
S'Anaphora-C'
p157
sg10
S'i11'
p158
sg12
S'i10'
p159
sg13
Nsg14
(lp160
(i__main__
Token
p161
(dp162
g18
I60
sbasg21
I60
sba(i__main__
Mention
p163
(dp164
g7
S't4'
p165
sg9
S'Anaphora-C'
p166
sg10
S'i13'
p167
sg12
S'i11'
p168
sg13
Nsg14
(lp169
(i__main__
Token
p170
(dp171
g18
I65
sbasg21
I65
sba(i__main__
Mention
p172
(dp173
g7
S't4'
p174
sg9
S'Coreference-Identity'
p175
sg10
S'i22'
p176
sg12
S'i13'
p177
sg13
Nsg14
(lp178
(i__main__
Token
p179
(dp180
g18
I125
sbasg21
I125
sba(i__main__
Mention
p181
(dp182
g7
S't4'
p183
sg9
S'Coreference-Identity'
p184
sg10
S'i42'
p185
sg12
S'i22'
p186
sg13
Nsg14
(lp187
(i__main__
Token
p188
(dp189
g18
I255
sbasg21
I255
sbasg7
g116
sg44
Nsba(i__main__
Chain
p190
(dp191
g3
(lp192
(i__main__
Mention
p193
(dp194
g7
S't5'
p195
sg9
Nsg10
S'i12'
p196
sg12
Nsg13
Nsg14
(lp197
(i__main__
Token
p198
(dp199
g18
I61
sbasg21
I61
sba(i__main__
Mention
p200
(dp201
g7
S't5'
p202
sg9
S'Coreference-Identity'
p203
sg10
S'i43'
p204
sg12
S'i12'
p205
sg13
Nsg14
(lp206
(i__main__
Token
p207
(dp208
g18
I257
sbasg21
I257
sbasg7
g195
sg44
Nsba(i__main__
Chain
p209
(dp210
g3
(lp211
(i__main__
Mention
p212
(dp213
g7
S't6'
p214
sg9
Nsg10
S'i14'
p215
sg12
Nsg13
Nsg14
(lp216
(i__main__
Token
p217
(dp218
g18
I77
sbasg21
I77
sba(i__main__
Mention
p219
(dp220
g7
S't6'
p221
sg9
S'Coreference-Identity'
p222
sg10
S'i36'
p223
sg12
S'i14'
p224
sg13
Nsg14
(lp225
(i__main__
Token
p226
(dp227
g18
I219
sbasg21
I219
sba(i__main__
Mention
p228
(dp229
g7
S't6'
p230
sg9
S'Coreference-Identity'
p231
sg10
S'i44'
p232
sg12
S'i36'
p233
sg13
Nsg14
(lp234
(i__main__
Token
p235
(dp236
g18
I259
sbasg21
I259
sba(i__main__
Mention
p237
(dp238
g7
S't6'
p239
sg9
S'Anaphora-C'
p240
sg10
S'i46'
p241
sg12
S'i44'
p242
sg13
Nsg14
(lp243
(i__main__
Token
p244
(dp245
g18
I268
sbasg21
I268
sba(i__main__
Mention
p246
(dp247
g7
S't6'
p248
sg9
S'Coreference-Identity'
p249
sg10
S'i49'
p250
sg12
S'i46'
p251
sg13
Nsg14
(lp252
(i__main__
Token
p253
(dp254
g18
I314
sbasg21
I314
sbasg7
g214
sg44
Nsba(i__main__
Chain
p255
(dp256
g3
(lp257
(i__main__
Mention
p258
(dp259
g7
S't7'
p260
sg9
Nsg10
S'i15'
p261
sg12
Nsg13
Nsg14
(lp262
(i__main__
Token
p263
(dp264
g18
I83
sba(i__main__
Token
p265
(dp266
g18
I84
sbasg21
I84
sba(i__main__
Mention
p267
(dp268
g7
S't7'
p269
sg9
S'Coreference-Identity'
p270
sg10
S'i16'
p271
sg12
S'i15'
p272
sg13
Nsg14
(lp273
(i__main__
Token
p274
(dp275
g18
I89
sba(i__main__
Token
p276
(dp277
g18
I90
sbasg21
I90
sbasg7
g260
sg44
Nsba(i__main__
Chain
p278
(dp279
g3
(lp280
(i__main__
Mention
p281
(dp282
g7
S't8'
p283
sg9
Nsg10
S'i17'
p284
sg12
Nsg13
Nsg14
(lp285
(i__main__
Token
p286
(dp287
g18
I98
sba(i__main__
Token
p288
(dp289
g18
I99
sbasg21
I99
sba(i__main__
Mention
p290
(dp291
g7
S't8'
p292
sg9
S'Anaphora-C'
p293
sg10
S'i18'
p294
sg12
S'i17'
p295
sg13
Nsg14
(lp296
(i__main__
Token
p297
(dp298
g18
I104
sbasg21
I104
sba(i__main__
Mention
p299
(dp300
g7
S't8'
p301
sg9
S'Coreference-Identity'
p302
sg10
S'i35'
p303
sg12
S'i18'
p304
sg13
Nsg14
(lp305
(i__main__
Token
p306
(dp307
g18
I208
sba(i__main__
Token
p308
(dp309
g18
I209
sbasg21
I209
sbasg7
g283
sg44
Nsba(i__main__
Chain
p310
(dp311
g3
(lp312
(i__main__
Mention
p313
(dp314
g7
S't9'
p315
sg9
Nsg10
S'i19'
p316
sg12
Nsg13
Nsg14
(lp317
(i__main__
Token
p318
(dp319
g18
I105
sbasg21
I105
sba(i__main__
Mention
p320
(dp321
g7
S't9'
p322
sg9
S'Coreference-Identity'
p323
sg10
S'i25'
p324
sg12
S'i19'
p325
sg13
Nsg14
(lp326
(i__main__
Token
p327
(dp328
g18
I148
sbasg21
I148
sbasg7
g315
sg44
Nsba(i__main__
Chain
p329
(dp330
g3
(lp331
(i__main__
Mention
p332
(dp333
g7
S't10'
p334
sg9
Nsg10
S'i20'
p335
sg12
Nsg13
Nsg14
(lp336
(i__main__
Token
p337
(dp338
g18
I112
sba(i__main__
Token
p339
(dp340
g18
I113
sba(i__main__
Token
p341
(dp342
g18
I114
sba(i__main__
Token
p343
(dp344
g18
I115
sba(i__main__
Token
p345
(dp346
g18
I116
sbasg21
I116
sba(i__main__
Mention
p347
(dp348
g7
S't10'
p349
sg9
S'Anaphora-C'
p350
sg10
S'i21'
p351
sg12
S'i20'
p352
sg13
Nsg14
(lp353
(i__main__
Token
p354
(dp355
g18
I124
sbasg21
I124
sba(i__main__
Mention
p356
(dp357
g7
S't10'
p358
sg9
S'Coreference-Identity'
p359
sg10
S'i29'
p360
sg12
S'i21'
p361
sg13
Nsg14
(lp362
(i__main__
Token
p363
(dp364
g18
I166
sbasg21
I166
sba(i__main__
Mention
p365
(dp366
g7
S't10'
p367
sg9
S'Anaphora-C'
p368
sg10
S'i32'
p369
sg12
S'i29'
p370
sg13
Nsg14
(lp371
(i__main__
Token
p372
(dp373
g18
I188
sbasg21
I188
sba(i__main__
Mention
p374
(dp375
g7
S't10'
p376
sg9
S'Coreference-Identity'
p377
sg10
S'i40'
p378
sg12
S'i47'
p379
sg13
Nsg14
(lp380
(i__main__
Token
p381
(dp382
g18
I249
sba(i__main__
Token
p383
(dp384
g18
I250
sba(i__main__
Token
p385
(dp386
g18
I251
sbasg21
I251
sbasg7
g334
sg44
Nsba(i__main__
Chain
p387
(dp388
g3
(lp389
(i__main__
Mention
p390
(dp391
g7
S't11'
p392
sg9
Nsg10
S'i23'
p393
sg12
Nsg13
Nsg14
(lp394
(i__main__
Token
p395
(dp396
g18
I130
sba(i__main__
Token
p397
(dp398
g18
I131
sbasg21
I131
sba(i__main__
Mention
p399
(dp400
g7
S't11'
p401
sg9
S'Coreference-Identity'
p402
sg10
S'i45'
p403
sg12
S'i23'
p404
sg13
Nsg14
(lp405
(i__main__
Token
p406
(dp407
g18
I260
sba(i__main__
Token
p408
(dp409
g18
I261
sbasg21
I261
sbasg7
g392
sg44
Nsba(i__main__
Chain
p410
(dp411
g3
(lp412
(i__main__
Mention
p413
(dp414
g7
S't12'
p415
sg9
Nsg10
S'i24'
p416
sg12
Nsg13
Nsg14
(lp417
(i__main__
Token
p418
(dp419
g18
I143
sbasg21
I143
sba(i__main__
Mention
p420
(dp421
g7
S't12'
p422
sg9
Nsg10
S'i26'
p423
sg12
Nsg13
Nsg14
(lp424
(i__main__
Token
p425
(dp426
g18
I148
sba(i__main__
Token
p427
(dp428
g18
I149
sba(i__main__
Token
p429
(dp430
g18
I150
sba(i__main__
Token
p431
(dp432
g18
I151
sba(i__main__
Token
p433
(dp434
g18
I152
sba(i__main__
Token
p435
(dp436
g18
I153
sba(i__main__
Token
p437
(dp438
g18
I154
sba(i__main__
Token
p439
(dp440
g18
I155
sba(i__main__
Token
p441
(dp442
g18
I156
sba(i__main__
Token
p443
(dp444
g18
I157
sba(i__main__
Token
p445
(dp446
g18
I158
sba(i__main__
Token
p447
(dp448
g18
I159
sba(i__main__
Token
p449
(dp450
g18
I160
sba(i__main__
Token
p451
(dp452
g18
I161
sba(i__main__
Token
p453
(dp454
g18
I162
sba(i__main__
Token
p455
(dp456
g18
I163
sba(i__main__
Token
p457
(dp458
g18
I164
sba(i__main__
Token
p459
(dp460
g18
I165
sbasg21
Nsbasg7
g415
sg44
Nsba(i__main__
Chain
p461
(dp462
g3
(lp463
(i__main__
Mention
p464
(dp465
g7
S't13'
p466
sg9
Nsg10
S'i27'
p467
sg12
Nsg13
Nsg14
(lp468
(i__main__
Token
p469
(dp470
g18
I156
sba(i__main__
Token
p471
(dp472
g18
I157
sba(i__main__
Token
p473
(dp474
g18
I158
sba(i__main__
Token
p475
(dp476
g18
I159
sba(i__main__
Token
p477
(dp478
g18
I160
sba(i__main__
Token
p479
(dp480
g18
I161
sba(i__main__
Token
p481
(dp482
g18
I162
sba(i__main__
Token
p483
(dp484
g18
I163
sba(i__main__
Token
p485
(dp486
g18
I164
sba(i__main__
Token
p487
(dp488
g18
I165
sbasg21
Nsba(i__main__
Mention
p489
(dp490
g7
S't13'
p491
sg9
S'Anaphora-C'
p492
sg10
S'i31'
p493
sg12
S'i27'
p494
sg13
Nsg14
(lp495
(i__main__
Token
p496
(dp497
g18
I180
sbasg21
I180
sbasg7
g466
sg44
Nsba(i__main__
Chain
p498
(dp499
g3
(lp500
(i__main__
Mention
p501
(dp502
g7
S't14'
p503
sg9
Nsg10
S'i28'
p504
sg12
Nsg13
Nsg14
(lp505
(i__main__
Token
p506
(dp507
g18
I159
sbasg21
I159
sba(i__main__
Mention
p508
(dp509
g7
S't14'
p510
sg9
S'Anaphora-C'
p511
sg10
S'i33'
p512
sg12
S'i28'
p513
sg13
Nsg14
(lp514
(i__main__
Token
p515
(dp516
g18
I202
sbasg21
I202
sbasg7
g503
sg44
Nsba(i__main__
Chain
p517
(dp518
g3
(lp519
(i__main__
Mention
p520
(dp521
g7
S't15'
p522
sg9
Nsg10
S'i30'
p523
sg12
Nsg13
Nsg14
(lp524
(i__main__
Token
p525
(dp526
g18
I179
sbasg21
I179
sbasg7
g522
sg44
Nsba(i__main__
Chain
p527
(dp528
g3
(lp529
(i__main__
Mention
p530
(dp531
g7
S't16'
p532
sg9
Nsg10
S'i38'
p533
sg12
Nsg13
Nsg14
(lp534
(i__main__
Token
p535
(dp536
g18
I232
sbasg21
I232
sbasg7
g532
sg44
Nsba(i__main__
Chain
p537
(dp538
g3
(lp539
(i__main__
Mention
p540
(dp541
g7
S't17'
p542
sg9
Nsg10
S'i39'
p543
sg12
Nsg13
Nsg14
(lp544
(i__main__
Token
p545
(dp546
g18
I243
sbasg21
I243
sbasg7
g542
sg44
Nsba(i__main__
Chain
p547
(dp548
g3
(lp549
(i__main__
Mention
p550
(dp551
g7
S't18'
p552
sg9
Nsg10
S'i47'
p553
sg12
Nsg13
Nsg14
(lp554
(i__main__
Token
p555
(dp556
g18
I272
sbasg21
I272
sbasg7
g552
sg44
Nsba(i__main__
Chain
p557
(dp558
g3
(lp559
(i__main__
Mention
p560
(dp561
g7
S't19'
p562
sg9
Nsg10
S'i50'
p563
sg12
Nsg13
Nsg14
(lp564
(i__main__
Token
p565
(dp566
g18
I321
sba(i__main__
Token
p567
(dp568
g18
I322
sbasg21
I322
sba(i__main__
Mention
p569
(dp570
g7
S't19'
p571
sg9
S'Coreference-Identity'
p572
sg10
S'i51'
p573
sg12
S'i50'
p574
sg13
Nsg14
(lp575
(i__main__
Token
p576
(dp577
g18
I332
sbasg21
I332
sbasg7
g562
sg44
Nsba(i__main__
Chain
p578
(dp579
g3
(lp580
(i__main__
Mention
p581
(dp582
g7
S't20'
p583
sg9
Nsg10
S'i52'
p584
sg12
Nsg13
Nsg14
(lp585
(i__main__
Token
p586
(dp587
g18
I334
sbasg21
I334
sba(i__main__
Mention
p588
(dp589
g7
S't20'
p590
sg9
S'Anaphora-C'
p591
sg10
S'i53'
p592
sg12
S'i52'
p593
sg13
Nsg14
(lp594
(i__main__
Token
p595
(dp596
g18
I339
sbasg21
I339
sba(i__main__
Mention
p597
(dp598
g7
S't20'
p599
sg9
S'Coreference-Identity'
p600
sg10
S'i54'
p601
sg12
S'i53'
p602
sg13
Nsg14
(lp603
(i__main__
Token
p604
(dp605
g18
I363
sba(i__main__
Token
p606
(dp607
g18
I364
sbasg21
I364
sba(i__main__
Mention
p608
(dp609
g7
S't20'
p610
sg9
S'Coreference-Identity'
p611
sg10
S'i55'
p612
sg12
S'i54'
p613
sg13
Nsg14
(lp614
(i__main__
Token
p615
(dp616
g18
I371
sba(i__main__
Token
p617
(dp618
g18
I372
sbasg21
I372
sbasg7
g583
sg44
Nsba.