(lp0
(i__main__
Chain
p1
(dp2
S'mentionList'
p3
(lp4
(i__main__
Mention
p5
(dp6
S'chainId'
p7
S't1'
p8
sS'relType'
p9
NsS'mentionId'
p10
S'i1'
p11
sS'antecedentId'
p12
NsS'crefMod'
p13
NsS'tokenList'
p14
(lp15
(i__main__
Token
p16
(dp17
S'tokenId'
p18
I0
sbasS'mentionHead'
p19
I0
sba(i__main__
Mention
p20
(dp21
g7
S't1'
p22
sg9
S'Coreference-Identity'
p23
sg10
S'i17'
p24
sg12
S'i1'
p25
sg13
Nsg14
(lp26
(i__main__
Token
p27
(dp28
g18
I91
sbasg19
I91
sba(i__main__
Mention
p29
(dp30
g7
S't1'
p31
sg9
S'Coreference-Identity'
p32
sg10
S'i44'
p33
sg12
S'i17'
p34
sg13
Nsg14
(lp35
(i__main__
Token
p36
(dp37
g18
I226
sbasg19
I226
sbasg7
g8
sS'chainHead'
p38
Nsba(i__main__
Chain
p39
(dp40
g3
(lp41
(i__main__
Mention
p42
(dp43
g7
S't2'
p44
sg9
Nsg10
S'i2'
p45
sg12
Nsg13
Nsg14
(lp46
(i__main__
Token
p47
(dp48
g18
I2
sba(i__main__
Token
p49
(dp50
g18
I3
sbasg19
I3
sba(i__main__
Mention
p51
(dp52
g7
S't2'
p53
sg9
S'Coreference-Identity'
p54
sg10
S'i5'
p55
sg12
S'i2'
p56
sg13
Nsg14
(lp57
(i__main__
Token
p58
(dp59
g18
I20
sbasg19
I20
sba(i__main__
Mention
p60
(dp61
g7
S't2'
p62
sg9
S'Coreference-Identity'
p63
sg10
S'i8'
p64
sg12
S'i5'
p65
sg13
Nsg14
(lp66
(i__main__
Token
p67
(dp68
g18
I43
sbasg19
I43
sba(i__main__
Mention
p69
(dp70
g7
S't2'
p71
sg9
S'Coreference-Identity'
p72
sg10
S'i25'
p73
sg12
S'i8'
p74
sg13
Nsg14
(lp75
(i__main__
Token
p76
(dp77
g18
I117
sba(i__main__
Token
p78
(dp79
g18
I118
sbasg19
I118
sba(i__main__
Mention
p80
(dp81
g7
S't2'
p82
sg9
S'Coreference-Identity'
p83
sg10
S'i27'
p84
sg12
S'i25'
p85
sg13
Nsg14
(lp86
(i__main__
Token
p87
(dp88
g18
I131
sbasg19
I131
sba(i__main__
Mention
p89
(dp90
g7
S't2'
p91
sg9
S'Coreference-Identity'
p92
sg10
S'i28'
p93
sg12
S'i27'
p94
sg13
Nsg14
(lp95
(i__main__
Token
p96
(dp97
g18
I143
sbasg19
I143
sba(i__main__
Mention
p98
(dp99
g7
S't2'
p100
sg9
S'Coreference-Identity'
p101
sg10
S'i30'
p102
sg12
S'i28'
p103
sg13
Nsg14
(lp104
(i__main__
Token
p105
(dp106
g18
I153
sbasg19
I153
sba(i__main__
Mention
p107
(dp108
g7
S't2'
p109
sg9
S'Anaphora-C'
p110
sg10
S'i31'
p111
sg12
S'i30'
p112
sg13
Nsg14
(lp113
(i__main__
Token
p114
(dp115
g18
I158
sbasg19
I158
sba(i__main__
Mention
p116
(dp117
g7
S't2'
p118
sg9
S'Coreference-Identity'
p119
sg10
S'i34'
p120
sg12
S'i31'
p121
sg13
Nsg14
(lp122
(i__main__
Token
p123
(dp124
g18
I184
sbasg19
I184
sba(i__main__
Mention
p125
(dp126
g7
S't2'
p127
sg9
S'Coreference-Identity'
p128
sg10
S'i36'
p129
sg12
S'i34'
p130
sg13
Nsg14
(lp131
(i__main__
Token
p132
(dp133
g18
I195
sbasg19
I195
sba(i__main__
Mention
p134
(dp135
g7
S't2'
p136
sg9
S'Anaphora-C'
p137
sg10
S'i37'
p138
sg12
S'i36'
p139
sg13
Nsg14
(lp140
(i__main__
Token
p141
(dp142
g18
I198
sbasg19
I198
sba(i__main__
Mention
p143
(dp144
g7
S't2'
p145
sg9
Nsg10
S'i42'
p146
sg12
Nsg13
Nsg14
(lp147
(i__main__
Token
p148
(dp149
g18
I216
sbasg19
Nsba(i__main__
Mention
p150
(dp151
g7
S't2'
p152
sg9
S'Coreference-Identity'
p153
sg10
S'i49'
p154
sg12
S'i42'
p155
sg13
Nsg14
(lp156
(i__main__
Token
p157
(dp158
g18
I254
sbasg19
I254
sba(i__main__
Mention
p159
(dp160
g7
S't2'
p161
sg9
S'Coreference-Identity'
p162
sg10
S'i52'
p163
sg12
S'i49'
p164
sg13
Nsg14
(lp165
(i__main__
Token
p166
(dp167
g18
I263
sbasg19
I263
sba(i__main__
Mention
p168
(dp169
g7
S't2'
p170
sg9
S'Coreference-Identity'
p171
sg10
S'i54'
p172
sg12
S'i52'
p173
sg13
Nsg14
(lp174
(i__main__
Token
p175
(dp176
g18
I272
sbasg19
I272
sba(i__main__
Mention
p177
(dp178
g7
S't2'
p179
sg9
S'Coreference-Identity'
p180
sg10
S'i56'
p181
sg12
S'i54'
p182
sg13
Nsg14
(lp183
(i__main__
Token
p184
(dp185
g18
I292
sbasg19
I292
sba(i__main__
Mention
p186
(dp187
g7
S't2'
p188
sg9
S'Coreference-PartOf'
p189
sg10
S'i77'
p190
sg12
S'i56'
p191
sg13
Nsg14
(lp192
(i__main__
Token
p193
(dp194
g18
I417
sba(i__main__
Token
p195
(dp196
g18
I418
sba(i__main__
Token
p197
(dp198
g18
I419
sbasg19
I419
sbasg7
g44
sg38
Nsba(i__main__
Chain
p199
(dp200
g3
(lp201
(i__main__
Mention
p202
(dp203
g7
S't3'
p204
sg9
Nsg10
S'i3'
p205
sg12
Nsg13
Nsg14
(lp206
(i__main__
Token
p207
(dp208
g18
I7
sbasg19
I7
sbasg7
g204
sg38
Nsba(i__main__
Chain
p209
(dp210
g3
(lp211
(i__main__
Mention
p212
(dp213
g7
S't4'
p214
sg9
Nsg10
S'i4'
p215
sg12
Nsg13
Nsg14
(lp216
(i__main__
Token
p217
(dp218
g18
I18
sbasg19
I18
sba(i__main__
Mention
p219
(dp220
g7
S't4'
p221
sg9
S'Coreference-Identity'
p222
sg10
S'i35'
p223
sg12
S'i4'
p224
sg13
Nsg14
(lp225
(i__main__
Token
p226
(dp227
g18
I193
sbasg19
I193
sba(i__main__
Mention
p228
(dp229
g7
S't4'
p230
sg9
S'Coreference-Identity'
p231
sg10
S'i51'
p232
sg12
S'i35'
p233
sg13
Nsg14
(lp234
(i__main__
Token
p235
(dp236
g18
I261
sbasg19
I261
sbasg7
g214
sg38
Nsba(i__main__
Chain
p237
(dp238
g3
(lp239
(i__main__
Mention
p240
(dp241
g7
S't5'
p242
sg9
Nsg10
S'i6'
p243
sg12
Nsg13
Nsg14
(lp244
(i__main__
Token
p245
(dp246
g18
I30
sbasg19
I30
sba(i__main__
Mention
p247
(dp248
g7
S't5'
p249
sg9
S'Anaphora-RC'
p250
sg10
S'i16'
p251
sg12
S'i6'
p252
sg13
Nsg14
(lp253
(i__main__
Token
p254
(dp255
g18
I84
sbasg19
I84
sba(i__main__
Mention
p256
(dp257
g7
S't5'
p258
sg9
S'Coreference-Identity'
p259
sg10
S'i39'
p260
sg12
S'i16'
p261
sg13
Nsg14
(lp262
(i__main__
Token
p263
(dp264
g18
I206
sbasg19
I206
sba(i__main__
Mention
p265
(dp266
g7
S't5'
p267
sg9
S'Coreference-Identity'
p268
sg10
S'i72'
p269
sg12
S'i39'
p270
sg13
Nsg14
(lp271
(i__main__
Token
p272
(dp273
g18
I387
sbasg19
I387
sbasg7
g242
sg38
Nsba(i__main__
Chain
p274
(dp275
g3
(lp276
(i__main__
Mention
p277
(dp278
g7
S't6'
p279
sg9
Nsg10
S'i7'
p280
sg12
Nsg13
Nsg14
(lp281
(i__main__
Token
p282
(dp283
g18
I39
sbasg19
I39
sba(i__main__
Mention
p284
(dp285
g7
S't6'
p286
sg9
S'Coreference-RAbbreviation'
p287
sg10
S'i12'
p288
sg12
S'i7'
p289
sg13
Nsg14
(lp290
(i__main__
Token
p291
(dp292
g18
I61
sba(i__main__
Token
p293
(dp294
g18
I62
sba(i__main__
Token
p295
(dp296
g18
I63
sba(i__main__
Token
p297
(dp298
g18
I64
sba(i__main__
Token
p299
(dp300
g18
I65
sba(i__main__
Token
p301
(dp302
g18
I66
sba(i__main__
Token
p303
(dp304
g18
I67
sba(i__main__
Token
p305
(dp306
g18
I68
sbasg19
I68
sba(i__main__
Mention
p307
(dp308
g7
S't6'
p309
sg9
S'Coreference-Abbreviation'
p310
sg10
S'i14'
p311
sg12
S'i12'
p312
sg13
Nsg14
(lp313
(i__main__
Token
p314
(dp315
g18
I70
sbasg19
I70
sba(i__main__
Mention
p316
(dp317
g7
S't6'
p318
sg9
S'Coreference-Identity'
p319
sg10
S'i45'
p320
sg12
S'i14'
p321
sg13
Nsg14
(lp322
(i__main__
Token
p323
(dp324
g18
I234
sbasg19
I234
sba(i__main__
Mention
p325
(dp326
g7
S't6'
p327
sg9
S'Coreference-Identity'
p328
sg10
S'i68'
p329
sg12
S'i45'
p330
sg13
Nsg14
(lp331
(i__main__
Token
p332
(dp333
g18
I367
sbasg19
I367
sbasg7
g279
sg38
Nsba(i__main__
Chain
p334
(dp335
g3
(lp336
(i__main__
Mention
p337
(dp338
g7
S't7'
p339
sg9
Nsg10
S'i9'
p340
sg12
Nsg13
Nsg14
(lp341
(i__main__
Token
p342
(dp343
g18
I45
sba(i__main__
Token
p344
(dp345
g18
I46
sbasg19
I46
sba(i__main__
Mention
p346
(dp347
g7
S't7'
p348
sg9
S'Coreference-Identity'
p349
sg10
S'i10'
p350
sg12
S'i9'
p351
sg13
Nsg14
(lp352
(i__main__
Token
p353
(dp354
g18
I51
sba(i__main__
Token
p355
(dp356
g18
I52
sba(i__main__
Token
p357
(dp358
g18
I53
sbasg19
I53
sba(i__main__
Mention
p359
(dp360
g7
S't7'
p361
sg9
Nsg10
S'i40'
p362
sg12
Nsg13
Nsg14
(lp363
(i__main__
Token
p364
(dp365
g18
I214
sba(i__main__
Token
p366
(dp367
g18
I215
sba(i__main__
Token
p368
(dp369
g18
I216
sbasg19
Nsba(i__main__
Mention
p370
(dp371
g7
S't7'
p372
sg9
S'Coreference-Identity'
p373
sg10
S'i55'
p374
sg12
S'i40'
p375
sg13
Nsg14
(lp376
(i__main__
Token
p377
(dp378
g18
I274
sba(i__main__
Token
p379
(dp380
g18
I275
sbasg19
I275
sba(i__main__
Mention
p381
(dp382
g7
S't7'
p383
sg9
S'Coreference-Identity'
p384
sg10
S'i57'
p385
sg12
S'i55'
p386
sg13
Nsg14
(lp387
(i__main__
Token
p388
(dp389
g18
I294
sba(i__main__
Token
p390
(dp391
g18
I295
sba(i__main__
Token
p392
(dp393
g18
I296
sbasg19
I296
sba(i__main__
Mention
p394
(dp395
g7
S't7'
p396
sg9
S'Coreference-Identity'
p397
sg10
S'i59'
p398
sg12
S'i57'
p399
sg13
Nsg14
(lp400
(i__main__
Token
p401
(dp402
g18
I314
sba(i__main__
Token
p403
(dp404
g18
I315
sba(i__main__
Token
p405
(dp406
g18
I316
sbasg19
I316
sba(i__main__
Mention
p407
(dp408
g7
S't7'
p409
sg9
S'Coreference-Identity'
p410
sg10
S'i62'
p411
sg12
S'i59'
p412
sg13
Nsg14
(lp413
(i__main__
Token
p414
(dp415
g18
I342
sba(i__main__
Token
p416
(dp417
g18
I343
sba(i__main__
Token
p418
(dp419
g18
I344
sbasg19
I344
sba(i__main__
Mention
p420
(dp421
g7
S't7'
p422
sg9
S'Coreference-Identity'
p423
sg10
S'i66'
p424
sg12
S'i62'
p425
sg13
Nsg14
(lp426
(i__main__
Token
p427
(dp428
g18
I358
sba(i__main__
Token
p429
(dp430
g18
I359
sba(i__main__
Token
p431
(dp432
g18
I360
sbasg19
I360
sbasg7
g339
sg38
Nsba(i__main__
Chain
p433
(dp434
g3
(lp435
(i__main__
Mention
p436
(dp437
g7
S't8'
p438
sg9
Nsg10
S'i11'
p439
sg12
Nsg13
Nsg14
(lp440
(i__main__
Token
p441
(dp442
g18
I55
sbasg19
I55
sba(i__main__
Mention
p443
(dp444
g7
S't8'
p445
sg9
S'Coreference-Identity'
p446
sg10
S'i60'
p447
sg12
S'i11'
p448
sg13
Nsg14
(lp449
(i__main__
Token
p450
(dp451
g18
I319
sbasg19
I319
sba(i__main__
Mention
p452
(dp453
g7
S't8'
p454
sg9
S'Coreference-Identity'
p455
sg10
S'i63'
p456
sg12
S'i60'
p457
sg13
Nsg14
(lp458
(i__main__
Token
p459
(dp460
g18
I346
sbasg19
I346
sbasg7
g438
sg38
Nsba(i__main__
Chain
p461
(dp462
g3
(lp463
(i__main__
Mention
p464
(dp465
g7
S't9'
p466
sg9
Nsg10
S'i13'
p467
sg12
Nsg13
Nsg14
(lp468
(i__main__
Token
p469
(dp470
g18
I73
sba(i__main__
Token
p471
(dp472
g18
I74
sbasg19
I74
sba(i__main__
Mention
p473
(dp474
g7
S't9'
p475
sg9
S'Coreference-Identity'
p476
sg10
S'i69'
p477
sg12
S'i13'
p478
sg13
Nsg14
(lp479
(i__main__
Token
p480
(dp481
g18
I369
sba(i__main__
Token
p482
(dp483
g18
I370
sbasg19
I370
sba(i__main__
Mention
p484
(dp485
g7
S't9'
p486
sg9
S'Coreference-NounComplement'
p487
sg10
S'i70'
p488
sg12
S'i69'
p489
sg13
Nsg14
(lp490
(i__main__
Token
p491
(dp492
g18
I371
sba(i__main__
Token
p493
(dp494
g18
I372
sba(i__main__
Token
p495
(dp496
g18
I373
sbasg19
I373
sbasg7
g466
sg38
Nsba(i__main__
Chain
p497
(dp498
g3
(lp499
(i__main__
Mention
p500
(dp501
g7
S't10'
p502
sg9
Nsg10
S'i15'
p503
sg12
Nsg13
Nsg14
(lp504
(i__main__
Token
p505
(dp506
g18
I82
sba(i__main__
Token
p507
(dp508
g18
I83
sbasg19
I83
sba(i__main__
Mention
p509
(dp510
g7
S't10'
p511
sg9
S'Coreference-Identity'
p512
sg10
S'i71'
p513
sg12
S'i15'
p514
sg13
Nsg14
(lp515
(i__main__
Token
p516
(dp517
g18
I385
sba(i__main__
Token
p518
(dp519
g18
I386
sbasg19
I386
sba(i__main__
Mention
p520
(dp521
g7
S't10'
p522
sg9
S'Anaphora-C'
p523
sg10
S'i73'
p524
sg12
S'i71'
p525
sg13
Nsg14
(lp526
(i__main__
Token
p527
(dp528
g18
I397
sbasg19
I397
sba(i__main__
Mention
p529
(dp530
g7
S't10'
p531
sg9
S'Coreference-Identity'
p532
sg10
S'i78'
p533
sg12
S'i73'
p534
sg13
Nsg14
(lp535
(i__main__
Token
p536
(dp537
g18
I425
sba(i__main__
Token
p538
(dp539
g18
I426
sbasg19
I426
sbasg7
g502
sg38
Nsba(i__main__
Chain
p540
(dp541
g3
(lp542
(i__main__
Mention
p543
(dp544
g7
S't11'
p545
sg9
Nsg10
S'i18'
p546
sg12
Nsg13
Nsg14
(lp547
(i__main__
Token
p548
(dp549
g18
I93
sba(i__main__
Token
p550
(dp551
g18
I94
sbasg19
I94
sba(i__main__
Mention
p552
(dp553
g7
S't11'
p554
sg9
S'Coreference-Identity'
p555
sg10
S'i20'
p556
sg12
S'i18'
p557
sg13
Nsg14
(lp558
(i__main__
Token
p559
(dp560
g18
I96
sba(i__main__
Token
p561
(dp562
g18
I97
sbasg19
I97
sba(i__main__
Mention
p563
(dp564
g7
S't11'
p565
sg9
S'Coreference-Identity'
p566
sg10
S'i74'
p567
sg12
S'i20'
p568
sg13
Nsg14
(lp569
(i__main__
Token
p570
(dp571
g18
I398
sba(i__main__
Token
p572
(dp573
g18
I399
sba(i__main__
Token
p574
(dp575
g18
I400
sbasg19
I400
sbasg7
g545
sg38
Nsba(i__main__
Chain
p576
(dp577
g3
(lp578
(i__main__
Mention
p579
(dp580
g7
S't12'
p581
sg9
Nsg10
S'i19'
p582
sg12
Nsg13
Nsg14
(lp583
(i__main__
Token
p584
(dp585
g18
I93
sbasg19
I93
sba(i__main__
Mention
p586
(dp587
g7
S't12'
p588
sg9
S'Coreference-Identity'
p589
sg10
S'i21'
p590
sg12
S'i19'
p591
sg13
Nsg14
(lp592
(i__main__
Token
p593
(dp594
g18
I109
sbasg19
I109
sba(i__main__
Mention
p595
(dp596
g7
S't12'
p597
sg9
S'Coreference-Identity'
p598
sg10
S'i29'
p599
sg12
S'i21'
p600
sg13
Nsg14
(lp601
(i__main__
Token
p602
(dp603
g18
I151
sbasg19
I151
sba(i__main__
Mention
p604
(dp605
g7
S't12'
p606
sg9
S'Coreference-Identity'
p607
sg10
S'i46'
p608
sg12
S'i29'
p609
sg13
Nsg14
(lp610
(i__main__
Token
p611
(dp612
g18
I245
sbasg19
I245
sba(i__main__
Mention
p613
(dp614
g7
S't12'
p615
sg9
S'Coreference-Identity'
p616
sg10
S'i76'
p617
sg12
S'i46'
p618
sg13
Nsg14
(lp619
(i__main__
Token
p620
(dp621
g18
I409
sbasg19
I409
sbasg7
g581
sg38
Nsba(i__main__
Chain
p622
(dp623
g3
(lp624
(i__main__
Mention
p625
(dp626
g7
S't13'
p627
sg9
Nsg10
S'i22'
p628
sg12
Nsg13
Nsg14
(lp629
(i__main__
Token
p630
(dp631
g18
I109
sba(i__main__
Token
p632
(dp633
g18
I110
sba(i__main__
Token
p634
(dp635
g18
I111
sba(i__main__
Token
p636
(dp637
g18
I112
sba(i__main__
Token
p638
(dp639
g18
I113
sba(i__main__
Token
p640
(dp641
g18
I114
sba(i__main__
Token
p642
(dp643
g18
I115
sba(i__main__
Token
p644
(dp645
g18
I116
sba(i__main__
Token
p646
(dp647
g18
I117
sba(i__main__
Token
p648
(dp649
g18
I118
sba(i__main__
Token
p650
(dp651
g18
I119
sba(i__main__
Token
p652
(dp653
g18
I120
sba(i__main__
Token
p654
(dp655
g18
I121
sba(i__main__
Token
p656
(dp657
g18
I122
sbasg19
I121
sba(i__main__
Mention
p658
(dp659
g7
S't13'
p660
sg9
S'Anaphora-C'
p661
sg10
S'i26'
p662
sg12
S'i22'
p663
sg13
Nsg14
(lp664
(i__main__
Token
p665
(dp666
g18
I124
sbasg19
I124
sbasg7
g627
sg38
Nsba(i__main__
Chain
p667
(dp668
g3
(lp669
(i__main__
Mention
p670
(dp671
g7
S't14'
p672
sg9
Nsg10
S'i23'
p673
sg12
Nsg13
Nsg14
(lp674
(i__main__
Token
p675
(dp676
g18
I111
sbasg19
I111
sba(i__main__
Mention
p677
(dp678
g7
S't14'
p679
sg9
S'Coreference-Identity'
p680
sg10
S'i47'
p681
sg12
S'i23'
p682
sg13
Nsg14
(lp683
(i__main__
Token
p684
(dp685
g18
I247
sbasg19
I247
sbasg7
g672
sg38
Nsba(i__main__
Chain
p686
(dp687
g3
(lp688
(i__main__
Mention
p689
(dp690
g7
S't15'
p691
sg9
Nsg10
S'i24'
p692
sg12
Nsg13
Nsg14
(lp693
(i__main__
Token
p694
(dp695
g18
I113
sba(i__main__
Token
p696
(dp697
g18
I114
sbasg19
I114
sba(i__main__
Mention
p698
(dp699
g7
S't15'
p700
sg9
S'Coreference-Identity'
p701
sg10
S'i48'
p702
sg12
S'i24'
p703
sg13
Nsg14
(lp704
(i__main__
Token
p705
(dp706
g18
I249
sba(i__main__
Token
p707
(dp708
g18
I250
sbasg19
I250
sbasg7
g691
sg38
Nsba(i__main__
Chain
p709
(dp710
g3
(lp711
(i__main__
Mention
p712
(dp713
g7
S't16'
p714
sg9
Nsg10
S'i32'
p715
sg12
Nsg13
Nsg14
(lp716
(i__main__
Token
p717
(dp718
g18
I163
sba(i__main__
Token
p719
(dp720
g18
I164
sba(i__main__
Token
p721
(dp722
g18
I165
sba(i__main__
Token
p723
(dp724
g18
I166
sbasg19
I166
sba(i__main__
Mention
p725
(dp726
g7
S't16'
p727
sg9
S'Coreference-Noun-Noun'
p728
sg10
S'i33'
p729
sg12
S'i32'
p730
sg13
Nsg14
(lp731
(i__main__
Token
p732
(dp733
g18
I174
sba(i__main__
Token
p734
(dp735
g18
I175
sbasg19
I175
sbasg7
g714
sg38
Nsba(i__main__
Chain
p736
(dp737
g3
(lp738
(i__main__
Mention
p739
(dp740
g7
S't17'
p741
sg9
Nsg10
S'i38'
p742
sg12
Nsg13
Nsg14
(lp743
(i__main__
Token
p744
(dp745
g18
I199
sbasg19
I199
sba(i__main__
Mention
p746
(dp747
g7
S't17'
p748
sg9
S'Coreference-Identity'
p749
sg10
S'i67'
p750
sg12
S'i38'
p751
sg13
Nsg14
(lp752
(i__main__
Token
p753
(dp754
g18
I362
sbasg19
I362
sbasg7
g741
sg38
Nsba(i__main__
Chain
p755
(dp756
g3
(lp757
(i__main__
Mention
p758
(dp759
g7
S't18'
p760
sg9
Nsg10
S'i41'
p761
sg12
Nsg13
Nsg14
(lp762
(i__main__
Token
p763
(dp764
g18
I214
sba(i__main__
Token
p765
(dp766
g18
I215
sba(i__main__
Token
p767
(dp768
g18
I216
sba(i__main__
Token
p769
(dp770
g18
I217
sba(i__main__
Token
p771
(dp772
g18
I218
sba(i__main__
Token
p773
(dp774
g18
I219
sba(i__main__
Token
p775
(dp776
g18
I220
sba(i__main__
Token
p777
(dp778
g18
I221
sba(i__main__
Token
p779
(dp780
g18
I222
sbasg19
I219
sba(i__main__
Mention
p781
(dp782
g7
S't18'
p783
sg9
S'Anaphora-C'
p784
sg10
S'i43'
p785
sg12
S'i41'
p786
sg13
Nsg14
(lp787
(i__main__
Token
p788
(dp789
g18
I224
sbasg19
I224
sbasg7
g760
sg38
Nsba(i__main__
Chain
p790
(dp791
g3
(lp792
(i__main__
Mention
p793
(dp794
g7
S't19'
p795
sg9
Nsg10
S'i50'
p796
sg12
Nsg13
Nsg14
(lp797
(i__main__
Token
p798
(dp799
g18
I260
sbasg19
I260
sbasg7
g795
sg38
Nsba(i__main__
Chain
p800
(dp801
g3
(lp802
(i__main__
Mention
p803
(dp804
g7
S't20'
p805
sg9
Nsg10
S'i53'
p806
sg12
Nsg13
Nsg14
(lp807
(i__main__
Token
p808
(dp809
g18
I271
sbasg19
I271
sbasg7
g805
sg38
Nsba(i__main__
Chain
p810
(dp811
g3
(lp812
(i__main__
Mention
p813
(dp814
g7
S't21'
p815
sg9
Nsg10
S'i58'
p816
sg12
Nsg13
Nsg14
(lp817
(i__main__
Token
p818
(dp819
g18
I299
sbasg19
I299
sba(i__main__
Mention
p820
(dp821
g7
S't21'
p822
sg9
S'Coreference-Identity'
p823
sg10
S'i61'
p824
sg12
S'i58'
p825
sg13
Nsg14
(lp826
(i__main__
Token
p827
(dp828
g18
I341
sbasg19
I341
sbasg7
g815
sg38
Nsba(i__main__
Chain
p829
(dp830
g3
(lp831
(i__main__
Mention
p832
(dp833
g7
S't22'
p834
sg9
Nsg10
S'i64'
p835
sg12
Nsg13
Nsg14
(lp836
(i__main__
Token
p837
(dp838
g18
I351
sbasg19
I351
sbasg7
g834
sg38
Nsba(i__main__
Chain
p839
(dp840
g3
(lp841
(i__main__
Mention
p842
(dp843
g7
S't23'
p844
sg9
Nsg10
S'i65'
p845
sg12
Nsg13
Nsg14
(lp846
(i__main__
Token
p847
(dp848
g18
I352
sbasg19
I352
sbasg7
g844
sg38
Nsba(i__main__
Chain
p849
(dp850
g3
(lp851
(i__main__
Mention
p852
(dp853
g7
S't24'
p854
sg9
Nsg10
S'i75'
p855
sg12
Nsg13
Nsg14
(lp856
(i__main__
Token
p857
(dp858
g18
I408
sbasg19
I408
sbasg7
g854
sg38
Nsba.