(lp0
(i__main__
Chain
p1
(dp2
S'mentionList'
p3
(lp4
(i__main__
Mention
p5
(dp6
S'chainId'
p7
S't1'
p8
sS'relType'
p9
NsS'mentionId'
p10
S'i1'
p11
sS'antecedentId'
p12
NsS'crefMod'
p13
NsS'tokenList'
p14
(lp15
(i__main__
Token
p16
(dp17
S'tokenId'
p18
I0
sba(i__main__
Token
p19
(dp20
g18
I1
sba(i__main__
Token
p21
(dp22
g18
I2
sba(i__main__
Token
p23
(dp24
g18
I3
sba(i__main__
Token
p25
(dp26
g18
I4
sbasS'mentionHead'
p27
I4
sba(i__main__
Mention
p28
(dp29
g7
S't1'
p30
sg9
S'Coreference-Bracketed/Abbraviation'
p31
sg10
S'i2'
p32
sg12
S'i1'
p33
sg13
Nsg14
(lp34
(i__main__
Token
p35
(dp36
g18
I6
sbasg27
I6
sba(i__main__
Mention
p37
(dp38
g7
S't1'
p39
sg9
S'Coreference-Noun-Noun'
p40
sg10
S'i7'
p41
sg12
S'i2'
p42
sg13
Nsg14
(lp43
(i__main__
Token
p44
(dp45
g18
I44
sbasg27
I44
sba(i__main__
Mention
p46
(dp47
g7
S't1'
p48
sg9
S'Coreference-Noun-Noun'
p49
sg10
S'i9'
p50
sg12
S'i7'
p51
sg13
Nsg14
(lp52
(i__main__
Token
p53
(dp54
g18
I56
sbasg27
I56
sba(i__main__
Mention
p55
(dp56
g7
S't1'
p57
sg9
S'Coreference-Identity'
p58
sg10
S'i20'
p59
sg12
S'i9'
p60
sg13
Nsg14
(lp61
(i__main__
Token
p62
(dp63
g18
I111
sbasg27
I111
sba(i__main__
Mention
p64
(dp65
g7
S't1'
p66
sg9
S'Coreference-Noun-Noun'
p67
sg10
S'i26'
p68
sg12
S'i20'
p69
sg13
Nsg14
(lp70
(i__main__
Token
p71
(dp72
g18
I131
sbasg27
I131
sba(i__main__
Mention
p73
(dp74
g7
S't1'
p75
sg9
S'Coreference-Identity'
p76
sg10
S'i33'
p77
sg12
S'i26'
p78
sg13
Nsg14
(lp79
(i__main__
Token
p80
(dp81
g18
I185
sbasg27
I185
sbasg7
g8
sS'chainHead'
p82
Nsba(i__main__
Chain
p83
(dp84
g3
(lp85
(i__main__
Mention
p86
(dp87
g7
S't2'
p88
sg9
Nsg10
S'i3'
p89
sg12
Nsg13
Nsg14
(lp90
(i__main__
Token
p91
(dp92
g18
I10
sbasg27
I10
sba(i__main__
Mention
p93
(dp94
g7
S't2'
p95
sg9
S'Coreference-Identity'
p96
sg10
S'i12'
p97
sg12
S'i3'
p98
sg13
Nsg14
(lp99
(i__main__
Token
p100
(dp101
g18
I76
sbasg27
I76
sbasg7
g88
sg82
Nsba(i__main__
Chain
p102
(dp103
g3
(lp104
(i__main__
Mention
p105
(dp106
g7
S't3'
p107
sg9
Nsg10
S'i5'
p108
sg12
Nsg13
Nsg14
(lp109
(i__main__
Token
p110
(dp111
g18
I12
sbasg27
I12
sba(i__main__
Mention
p112
(dp113
g7
S't3'
p114
sg9
S'Coreference-Identity'
p115
sg10
S'i14'
p116
sg12
S'i5'
p117
sg13
Nsg14
(lp118
(i__main__
Token
p119
(dp120
g18
I85
sbasg27
I85
sbasg7
g107
sg82
Nsba(i__main__
Chain
p121
(dp122
g3
(lp123
(i__main__
Mention
p124
(dp125
g7
S't4'
p126
sg9
Nsg10
S'i4'
p127
sg12
Nsg13
Nsg14
(lp128
(i__main__
Token
p129
(dp130
g18
I14
sbasg27
I14
sba(i__main__
Mention
p131
(dp132
g7
S't4'
p133
sg9
S'Coreference-Identity'
p134
sg10
S'i6'
p135
sg12
S'i4'
p136
sg13
Nsg14
(lp137
(i__main__
Token
p138
(dp139
g18
I24
sba(i__main__
Token
p140
(dp141
g18
I25
sbasg27
I25
sba(i__main__
Mention
p142
(dp143
g7
S't4'
p144
sg9
S'Coreference-Identity'
p145
sg10
S'i8'
p146
sg12
S'i6'
p147
sg13
Nsg14
(lp148
(i__main__
Token
p149
(dp150
g18
I52
sbasg27
I52
sba(i__main__
Mention
p151
(dp152
g7
S't4'
p153
sg9
S'Coreference-Identity'
p154
sg10
S'i10'
p155
sg12
S'i8'
p156
sg13
Nsg14
(lp157
(i__main__
Token
p158
(dp159
g18
I61
sba(i__main__
Token
p160
(dp161
g18
I62
sbasg27
I62
sba(i__main__
Mention
p162
(dp163
g7
S't4'
p164
sg9
S'Anaphora-C'
p165
sg10
S'i11'
p166
sg12
S'i10'
p167
sg13
Nsg14
(lp168
(i__main__
Token
p169
(dp170
g18
I75
sbasg27
I75
sba(i__main__
Mention
p171
(dp172
g7
S't4'
p173
sg9
S'Coreference-Identity'
p174
sg10
S'i16'
p175
sg12
S'i11'
p176
sg13
Nsg14
(lp177
(i__main__
Token
p178
(dp179
g18
I92
sbasg27
I92
sba(i__main__
Mention
p180
(dp181
g7
S't4'
p182
sg9
S'Coreference-Identity'
p183
sg10
S'i19'
p184
sg12
S'i16'
p185
sg13
Nsg14
(lp186
(i__main__
Token
p187
(dp188
g18
I99
sbasg27
I99
sba(i__main__
Mention
p189
(dp190
g7
S't4'
p191
sg9
S'Coreference-Identity'
p192
sg10
S'i25'
p193
sg12
S'i19'
p194
sg13
Nsg14
(lp195
(i__main__
Token
p196
(dp197
g18
I120
sbasg27
I120
sbasg7
g126
sg82
Nsba(i__main__
Chain
p198
(dp199
g3
(lp200
(i__main__
Mention
p201
(dp202
g7
S't5'
p203
sg9
Nsg10
S'i13'
p204
sg12
Nsg13
Nsg14
(lp205
(i__main__
Token
p206
(dp207
g18
I81
sba(i__main__
Token
p208
(dp209
g18
I82
sbasg27
I82
sba(i__main__
Mention
p210
(dp211
g7
S't5'
p212
sg9
S'Coreference-Identity'
p213
sg10
S'i15'
p214
sg12
S'i13'
p215
sg13
Nsg14
(lp216
(i__main__
Token
p217
(dp218
g18
I90
sbasg27
I90
sba(i__main__
Mention
p219
(dp220
g7
S't5'
p221
sg9
S'Coreference-PartOf'
p222
sg10
S'i32'
p223
sg12
S'i15'
p224
sg13
Nsg14
(lp225
(i__main__
Token
p226
(dp227
g18
I170
sba(i__main__
Token
p228
(dp229
g18
I171
sba(i__main__
Token
p230
(dp231
g18
I172
sbasg27
I172
sbasg7
g203
sg82
Nsba(i__main__
Chain
p232
(dp233
g3
(lp234
(i__main__
Mention
p235
(dp236
g7
S't6'
p237
sg9
Nsg10
S'i17'
p238
sg12
Nsg13
Nsg14
(lp239
(i__main__
Token
p240
(dp241
g18
I97
sba(i__main__
Token
p242
(dp243
g18
I98
sbasg27
I98
sba(i__main__
Mention
p244
(dp245
g7
S't6'
p246
sg9
S'Coreference-Identity'
p247
sg10
S'i23'
p248
sg12
S'i17'
p249
sg13
Nsg14
(lp250
(i__main__
Token
p251
(dp252
g18
I118
sba(i__main__
Token
p253
(dp254
g18
I119
sbasg27
I119
sba(i__main__
Mention
p255
(dp256
g7
S't6'
p257
sg9
S'Coreference-Identity'
p258
sg10
S'i27'
p259
sg12
S'i23'
p260
sg13
Nsg14
(lp261
(i__main__
Token
p262
(dp263
g18
I133
sba(i__main__
Token
p264
(dp265
g18
I134
sbasg27
I134
sbasg7
g237
sg82
Nsba(i__main__
Chain
p266
(dp267
g3
(lp268
(i__main__
Mention
p269
(dp270
g7
S't7'
p271
sg9
Nsg10
S'i18'
p272
sg12
Nsg13
Nsg14
(lp273
(i__main__
Token
p274
(dp275
g18
I99
sba(i__main__
Token
p276
(dp277
g18
I100
sba(i__main__
Token
p278
(dp279
g18
I101
sba(i__main__
Token
p280
(dp281
g18
I102
sbasg27
I102
sba(i__main__
Mention
p282
(dp283
g7
S't7'
p284
sg9
S'Coreference-Identity'
p285
sg10
S'i24'
p286
sg12
S'i18'
p287
sg13
Nsg14
(lp288
(i__main__
Token
p289
(dp290
g18
I120
sba(i__main__
Token
p291
(dp292
g18
I121
sba(i__main__
Token
p293
(dp294
g18
I122
sba(i__main__
Token
p295
(dp296
g18
I123
sba(i__main__
Token
p297
(dp298
g18
I124
sbasg27
I124
sbasg7
g271
sg82
Nsba(i__main__
Chain
p299
(dp300
g3
(lp301
(i__main__
Mention
p302
(dp303
g7
S't8'
p304
sg9
Nsg10
S'i21'
p305
sg12
Nsg13
Nsg14
(lp306
(i__main__
Token
p307
(dp308
g18
I111
sba(i__main__
Token
p309
(dp310
g18
I112
sbasg27
I112
sba(i__main__
Mention
p311
(dp312
g7
S't8'
p313
sg9
S'Coreference-NounComplement'
p314
sg10
S'i22'
p315
sg12
S'i21'
p316
sg13
Nsg14
(lp317
(i__main__
Token
p318
(dp319
g18
I113
sba(i__main__
Token
p320
(dp321
g18
I114
sbasg27
I114
sbasg7
g304
sg82
Nsba(i__main__
Chain
p322
(dp323
g3
(lp324
(i__main__
Mention
p325
(dp326
g7
S't9'
p327
sg9
Nsg10
S'i28'
p328
sg12
Nsg13
Nsg14
(lp329
(i__main__
Token
p330
(dp331
g18
I135
sba(i__main__
Token
p332
(dp333
g18
I138
sbasg27
Nsba(i__main__
Mention
p334
(dp335
g7
S't9'
p336
sg9
S'Coreference-Identity'
p337
sg10
S'i30'
p338
sg12
S'i28'
p339
sg13
Nsg14
(lp340
(i__main__
Token
p341
(dp342
g18
I146
sba(i__main__
Token
p343
(dp344
g18
I147
sbasg27
I147
sbasg7
g327
sg82
Nsba(i__main__
Chain
p345
(dp346
g3
(lp347
(i__main__
Mention
p348
(dp349
g7
S't10'
p350
sg9
Nsg10
S'i29'
p351
sg12
Nsg13
Nsg14
(lp352
(i__main__
Token
p353
(dp354
g18
I137
sba(i__main__
Token
p355
(dp356
g18
I138
sbasg27
Nsba(i__main__
Mention
p357
(dp358
g7
S't10'
p359
sg9
S'Coreference-Identity'
p360
sg10
S'i31'
p361
sg12
S'i29'
p362
sg13
Nsg14
(lp363
(i__main__
Token
p364
(dp365
g18
I156
sba(i__main__
Token
p366
(dp367
g18
I157
sbasg27
I157
sbasg7
g350
sg82
Nsba.