(lp0
(i__main__
Chain
p1
(dp2
S'mentionList'
p3
(lp4
(i__main__
Mention
p5
(dp6
S'chainId'
p7
S't1'
p8
sS'relType'
p9
NsS'mentionId'
p10
S'i1'
p11
sS'antecedentId'
p12
NsS'crefMod'
p13
NsS'tokenList'
p14
(lp15
(i__main__
Token
p16
(dp17
S'tokenId'
p18
I0
sba(i__main__
Token
p19
(dp20
g18
I1
sba(i__main__
Token
p21
(dp22
g18
I2
sba(i__main__
Token
p23
(dp24
g18
I3
sba(i__main__
Token
p25
(dp26
g18
I4
sba(i__main__
Token
p27
(dp28
g18
I5
sba(i__main__
Token
p29
(dp30
g18
I6
sba(i__main__
Token
p31
(dp32
g18
I7
sba(i__main__
Token
p33
(dp34
g18
I8
sba(i__main__
Token
p35
(dp36
g18
I9
sba(i__main__
Token
p37
(dp38
g18
I10
sba(i__main__
Token
p39
(dp40
g18
I11
sba(i__main__
Token
p41
(dp42
g18
I12
sbasS'mentionHead'
p43
Nsbasg7
g8
sS'chainHead'
p44
Nsba(i__main__
Chain
p45
(dp46
g3
(lp47
(i__main__
Mention
p48
(dp49
g7
S't2'
p50
sg9
Nsg10
S'i2'
p51
sg12
Nsg13
Nsg14
(lp52
(i__main__
Token
p53
(dp54
g18
I12
sbasg43
Nsba(i__main__
Mention
p55
(dp56
g7
S't2'
p57
sg9
Nsg10
S'i7'
p58
sg12
Nsg13
Nsg14
(lp59
(i__main__
Token
p60
(dp61
g18
I58
sbasg43
Nsba(i__main__
Mention
p62
(dp63
g7
S't2'
p64
sg9
Nsg10
S'i8'
p65
sg12
Nsg13
Nsg14
(lp66
(i__main__
Token
p67
(dp68
g18
I58
sbasg43
Nsba(i__main__
Mention
p69
(dp70
g7
S't2'
p71
sg9
Nsg10
S'i11'
p72
sg12
Nsg13
Nsg14
(lp73
(i__main__
Token
p74
(dp75
g18
I69
sbasg43
Nsba(i__main__
Mention
p76
(dp77
g7
S't2'
p78
sg9
Nsg10
S'i14'
p79
sg12
Nsg13
Nsg14
(lp80
(i__main__
Token
p81
(dp82
g18
I83
sba(i__main__
Token
p83
(dp84
g18
I84
sbasg43
Nsba(i__main__
Mention
p85
(dp86
g7
S't2'
p87
sg9
S'Coreference-Identity'
p88
sg10
S'i16'
p89
sg12
S'i14'
p90
sg13
Nsg14
(lp91
(i__main__
Token
p92
(dp93
g18
I99
sbasg43
I99
sba(i__main__
Mention
p94
(dp95
g7
S't2'
p96
sg9
S'Coreference-Identity'
p97
sg10
S'i18'
p98
sg12
S'i16'
p99
sg13
Nsg14
(lp100
(i__main__
Token
p101
(dp102
g18
I115
sba(i__main__
Token
p103
(dp104
g18
I116
sbasg43
I116
sba(i__main__
Mention
p105
(dp106
g7
S't2'
p107
sg9
S'Coreference-Identity'
p108
sg10
S'i20'
p109
sg12
S'i18'
p110
sg13
Nsg14
(lp111
(i__main__
Token
p112
(dp113
g18
I129
sba(i__main__
Token
p114
(dp115
g18
I130
sbasg43
I130
sba(i__main__
Mention
p116
(dp117
g7
S't2'
p118
sg9
S'Coreference-Identity'
p119
sg10
S'i22'
p120
sg12
S'i20'
p121
sg13
Nsg14
(lp122
(i__main__
Token
p123
(dp124
g18
I142
sba(i__main__
Token
p125
(dp126
g18
I143
sbasg43
I143
sba(i__main__
Mention
p127
(dp128
g7
S't2'
p129
sg9
S'Coreference-Identity'
p130
sg10
S'i29'
p131
sg12
S'i22'
p132
sg13
Nsg14
(lp133
(i__main__
Token
p134
(dp135
g18
I198
sba(i__main__
Token
p136
(dp137
g18
I199
sbasg43
I199
sba(i__main__
Mention
p138
(dp139
g7
S't2'
p140
sg9
S'Coreference-Identity'
p141
sg10
S'i42'
p142
sg12
S'i29'
p143
sg13
Nsg14
(lp144
(i__main__
Token
p145
(dp146
g18
I366
sbasg43
I366
sba(i__main__
Mention
p147
(dp148
g7
S't2'
p149
sg9
S'Coreference-Identity'
p150
sg10
S'i43'
p151
sg12
S'i42'
p152
sg13
Nsg14
(lp153
(i__main__
Token
p154
(dp155
g18
I376
sbasg43
I376
sba(i__main__
Mention
p156
(dp157
g7
S't2'
p158
sg9
Nsg10
S'i45'
p159
sg12
Nsg13
Nsg14
(lp160
(i__main__
Token
p161
(dp162
g18
I387
sba(i__main__
Token
p163
(dp164
g18
I388
sba(i__main__
Token
p165
(dp166
g18
I389
sba(i__main__
Token
p167
(dp168
g18
I390
sba(i__main__
Token
p169
(dp170
g18
I391
sbasg43
Nsba(i__main__
Mention
p171
(dp172
g7
S't2'
p173
sg9
Nsg10
S'i48'
p174
sg12
Nsg13
Nsg14
(lp175
(i__main__
Token
p176
(dp177
g18
I393
sbasg43
Nsba(i__main__
Mention
p178
(dp179
g7
S't2'
p180
sg9
Nsg10
S'i50'
p181
sg12
Nsg13
Nsg14
(lp182
(i__main__
Token
p183
(dp184
g18
I395
sbasg43
Nsba(i__main__
Mention
p185
(dp186
g7
S't2'
p187
sg9
Nsg10
S'i52'
p188
sg12
Nsg13
Nsg14
(lp189
(i__main__
Token
p190
(dp191
g18
I397
sbasg43
Nsba(i__main__
Mention
p192
(dp193
g7
S't2'
p194
sg9
Nsg10
S'i54'
p195
sg12
Nsg13
Nsg14
(lp196
(i__main__
Token
p197
(dp198
g18
I399
sbasg43
Nsba(i__main__
Mention
p199
(dp200
g7
S't2'
p201
sg9
Nsg10
S'i55'
p202
sg12
Nsg13
Nsg14
(lp203
(i__main__
Token
p204
(dp205
g18
I401
sbasg43
Nsba(i__main__
Mention
p206
(dp207
g7
S't2'
p208
sg9
Nsg10
S'i58'
p209
sg12
Nsg13
Nsg14
(lp210
(i__main__
Token
p211
(dp212
g18
I403
sbasg43
Nsba(i__main__
Mention
p213
(dp214
g7
S't2'
p215
sg9
Nsg10
S'i60'
p216
sg12
Nsg13
Nsg14
(lp217
(i__main__
Token
p218
(dp219
g18
I407
sba(i__main__
Token
p220
(dp221
g18
I408
sbasg43
Nsba(i__main__
Mention
p222
(dp223
g7
S't2'
p224
sg9
Nsg10
S'i61'
p225
sg12
Nsg13
Nsg14
(lp226
(i__main__
Token
p227
(dp228
g18
I410
sba(i__main__
Token
p229
(dp230
g18
I411
sbasg43
Nsba(i__main__
Mention
p231
(dp232
g7
S't2'
p233
sg9
Nsg10
S'i75'
p234
sg12
Nsg13
Nsg14
(lp235
(i__main__
Token
p236
(dp237
g18
I439
sba(i__main__
Token
p238
(dp239
g18
I440
sbasg43
Nsba(i__main__
Mention
p240
(dp241
g7
S't2'
p242
sg9
Nsg10
S'i78'
p243
sg12
Nsg13
Nsg14
(lp244
(i__main__
Token
p245
(dp246
g18
I453
sba(i__main__
Token
p247
(dp248
g18
I454
sbasg43
Nsba(i__main__
Mention
p249
(dp250
g7
S't2'
p251
sg9
Nsg10
S'i80'
p252
sg12
Nsg13
Nsg14
(lp253
(i__main__
Token
p254
(dp255
g18
I456
sba(i__main__
Token
p256
(dp257
g18
I457
sbasg43
Nsba(i__main__
Mention
p258
(dp259
g7
S't2'
p260
sg9
Nsg10
S'i83'
p261
sg12
Nsg13
Nsg14
(lp262
(i__main__
Token
p263
(dp264
g18
I459
sbasg43
Nsba(i__main__
Mention
p265
(dp266
g7
S't2'
p267
sg9
Nsg10
S'i84'
p268
sg12
Nsg13
Nsg14
(lp269
(i__main__
Token
p270
(dp271
g18
I461
sba(i__main__
Token
p272
(dp273
g18
I462
sbasg43
Nsba(i__main__
Mention
p274
(dp275
g7
S't2'
p276
sg9
Nsg10
S'i87'
p277
sg12
Nsg13
Nsg14
(lp278
(i__main__
Token
p279
(dp280
g18
I464
sbasg43
Nsba(i__main__
Mention
p281
(dp282
g7
S't2'
p283
sg9
Nsg10
S'i89'
p284
sg12
Nsg13
Nsg14
(lp285
(i__main__
Token
p286
(dp287
g18
I466
sbasg43
Nsba(i__main__
Mention
p288
(dp289
g7
S't2'
p290
sg9
Nsg10
S'i91'
p291
sg12
Nsg13
Nsg14
(lp292
(i__main__
Token
p293
(dp294
g18
I468
sbasg43
Nsba(i__main__
Mention
p295
(dp296
g7
S't2'
p297
sg9
Nsg10
S'i93'
p298
sg12
Nsg13
Nsg14
(lp299
(i__main__
Token
p300
(dp301
g18
I470
sbasg43
Nsba(i__main__
Mention
p302
(dp303
g7
S't2'
p304
sg9
Nsg10
S'i95'
p305
sg12
Nsg13
Nsg14
(lp306
(i__main__
Token
p307
(dp308
g18
I472
sbasg43
Nsba(i__main__
Mention
p309
(dp310
g7
S't2'
p311
sg9
Nsg10
S'i96'
p312
sg12
Nsg13
Nsg14
(lp313
(i__main__
Token
p314
(dp315
g18
I474
sba(i__main__
Token
p316
(dp317
g18
I475
sbasg43
Nsba(i__main__
Mention
p318
(dp319
g7
S't2'
p320
sg9
Nsg10
S'i100'
p321
sg12
Nsg13
Nsg14
(lp322
(i__main__
Token
p323
(dp324
g18
I524
sba(i__main__
Token
p325
(dp326
g18
I525
sbasg43
Nsba(i__main__
Mention
p327
(dp328
g7
S't2'
p329
sg9
S'Coreference-PartOf'
p330
sg10
S'i102'
p331
sg12
S'i100'
p332
sg13
Nsg14
(lp333
(i__main__
Token
p334
(dp335
g18
I539
sba(i__main__
Token
p336
(dp337
g18
I540
sba(i__main__
Token
p338
(dp339
g18
I541
sbasg43
I541
sbasg7
g50
sg44
Nsba(i__main__
Chain
p340
(dp341
g3
(lp342
(i__main__
Mention
p343
(dp344
g7
S't3'
p345
sg9
S'anaphora-?'
p346
sg10
S'i3'
p347
sg12
S'i3'
p348
sg13
Nsg14
(lp349
(i__main__
Token
p350
(dp351
g18
I14
sbasg43
I14
sbasg7
g345
sg44
Nsba(i__main__
Chain
p352
(dp353
g3
(lp354
(i__main__
Mention
p355
(dp356
g7
S't4'
p357
sg9
Nsg10
S'i4'
p358
sg12
Nsg13
Nsg14
(lp359
(i__main__
Token
p360
(dp361
g18
I28
sba(i__main__
Token
p362
(dp363
g18
I29
sba(i__main__
Token
p364
(dp365
g18
I30
sba(i__main__
Token
p366
(dp367
g18
I31
sbasg43
I31
sba(i__main__
Mention
p368
(dp369
g7
S't4'
p370
sg9
S'Coreference-Identity'
p371
sg10
S'i19'
p372
sg12
S'i4'
p373
sg13
Nsg14
(lp374
(i__main__
Token
p375
(dp376
g18
I127
sba(i__main__
Token
p377
(dp378
g18
I128
sbasg43
I128
sba(i__main__
Mention
p379
(dp380
g7
S't4'
p381
sg9
S'Coreference-Identity'
p382
sg10
S'i23'
p383
sg12
S'i19'
p384
sg13
Nsg14
(lp385
(i__main__
Token
p386
(dp387
g18
I144
sba(i__main__
Token
p388
(dp389
g18
I145
sbasg43
I145
sba(i__main__
Mention
p390
(dp391
g7
S't4'
p392
sg9
S'Coreference-Identity'
p393
sg10
S'i26'
p394
sg12
S'i23'
p395
sg13
Nsg14
(lp396
(i__main__
Token
p397
(dp398
g18
I172
sba(i__main__
Token
p399
(dp400
g18
I173
sba(i__main__
Token
p401
(dp402
g18
I174
sba(i__main__
Token
p403
(dp404
g18
I175
sbasg43
I175
sba(i__main__
Mention
p405
(dp406
g7
S't4'
p407
sg9
S'Coreference-Identity'
p408
sg10
S'i34'
p409
sg12
S'i26'
p410
sg13
Nsg14
(lp411
(i__main__
Token
p412
(dp413
g18
I224
sba(i__main__
Token
p414
(dp415
g18
I225
sbasg43
I225
sba(i__main__
Mention
p416
(dp417
g7
S't4'
p418
sg9
S'Coreference-Identity'
p419
sg10
S'i36'
p420
sg12
S'i34'
p421
sg13
Nsg14
(lp422
(i__main__
Token
p423
(dp424
g18
I267
sba(i__main__
Token
p425
(dp426
g18
I268
sbasg43
I268
sbasg7
g357
sg44
Nsba(i__main__
Chain
p427
(dp428
g3
(lp429
(i__main__
Mention
p430
(dp431
g7
S't5'
p432
sg9
Nsg10
S'i5'
p433
sg12
Nsg13
Nsg14
(lp434
(i__main__
Token
p435
(dp436
g18
I34
sba(i__main__
Token
p437
(dp438
g18
I35
sba(i__main__
Token
p439
(dp440
g18
I37
sbasg43
I37
sba(i__main__
Mention
p441
(dp442
g7
S't5'
p443
sg9
S'Coreference-Identity'
p444
sg10
S'i32'
p445
sg12
S'i5'
p446
sg13
Nsg14
(lp447
(i__main__
Token
p448
(dp449
g18
I218
sba(i__main__
Token
p450
(dp451
g18
I219
sba(i__main__
Token
p452
(dp453
g18
I220
sbasg43
I220
sba(i__main__
Mention
p454
(dp455
g7
S't5'
p456
sg9
S'Coreference-Identity'
p457
sg10
S'i38'
p458
sg12
S'i32'
p459
sg13
Nsg14
(lp460
(i__main__
Token
p461
(dp462
g18
I286
sba(i__main__
Token
p463
(dp464
g18
I287
sba(i__main__
Token
p465
(dp466
g18
I288
sbasg43
I288
sba(i__main__
Mention
p467
(dp468
g7
S't5'
p469
sg9
S'Coreference-Identity'
p470
sg10
S'i40'
p471
sg12
S'i38'
p472
sg13
Nsg14
(lp473
(i__main__
Token
p474
(dp475
g18
I343
sba(i__main__
Token
p476
(dp477
g18
I344
sba(i__main__
Token
p478
(dp479
g18
I345
sbasg43
I345
sbasg7
g432
sg44
Nsba(i__main__
Chain
p480
(dp481
g3
(lp482
(i__main__
Mention
p483
(dp484
g7
S't6'
p485
sg9
S'anaphora-?'
p486
sg10
S'i6'
p487
sg12
S'i6'
p488
sg13
Nsg14
(lp489
(i__main__
Token
p490
(dp491
g18
I57
sbasg43
I57
sbasg7
g485
sg44
Nsba(i__main__
Chain
p492
(dp493
g3
(lp494
(i__main__
Mention
p495
(dp496
g7
S't7'
p497
sg9
S'anaphora-?'
p498
sg10
S'i9'
p499
sg12
S'i9'
p500
sg13
Nsg14
(lp501
(i__main__
Token
p502
(dp503
g18
I67
sbasg43
I67
sbasg7
g497
sg44
Nsba(i__main__
Chain
p504
(dp505
g3
(lp506
(i__main__
Mention
p507
(dp508
g7
S't8'
p509
sg9
Nsg10
S'i10'
p510
sg12
Nsg13
Nsg14
(lp511
(i__main__
Token
p512
(dp513
g18
I68
sba(i__main__
Token
p514
(dp515
g18
I69
sbasg43
Nsba(i__main__
Mention
p516
(dp517
g7
S't8'
p518
sg9
S'Anaphora-C'
p519
sg10
S'i12'
p520
sg12
S'i10'
p521
sg13
Nsg14
(lp522
(i__main__
Token
p523
(dp524
g18
I78
sbasg43
I78
sbasg7
g509
sg44
Nsba(i__main__
Chain
p525
(dp526
g3
(lp527
(i__main__
Mention
p528
(dp529
g7
S't9'
p530
sg9
Nsg10
S'i13'
p531
sg12
Nsg13
Nsg14
(lp532
(i__main__
Token
p533
(dp534
g18
I83
sba(i__main__
Token
p535
(dp536
g18
I84
sbasg43
Nsba(i__main__
Mention
p537
(dp538
g7
S't9'
p539
sg9
S'Anaphora-C'
p540
sg10
S'i15'
p541
sg12
S'i13'
p542
sg13
Nsg14
(lp543
(i__main__
Token
p544
(dp545
g18
I90
sbasg43
I90
sbasg7
g530
sg44
Nsba(i__main__
Chain
p546
(dp547
g3
(lp548
(i__main__
Mention
p549
(dp550
g7
S't10'
p551
sg9
Nsg10
S'i17'
p552
sg12
Nsg13
Nsg14
(lp553
(i__main__
Token
p554
(dp555
g18
I106
sba(i__main__
Token
p556
(dp557
g18
I107
sba(i__main__
Token
p558
(dp559
g18
I108
sba(i__main__
Token
p560
(dp561
g18
I109
sbasg43
I109
sba(i__main__
Mention
p562
(dp563
g7
S't10'
p564
sg9
S'Coreference-Identity'
p565
sg10
S'i25'
p566
sg12
S'i17'
p567
sg13
Nsg14
(lp568
(i__main__
Token
p569
(dp570
g18
I162
sbasg43
I162
sba(i__main__
Mention
p571
(dp572
g7
S't10'
p573
sg9
S'Coreference-Identity'
p574
sg10
S'i35'
p575
sg12
S'i25'
p576
sg13
Nsg14
(lp577
(i__main__
Token
p578
(dp579
g18
I258
sbasg43
I258
sbasg7
g551
sg44
Nsba(i__main__
Chain
p580
(dp581
g3
(lp582
(i__main__
Mention
p583
(dp584
g7
S't11'
p585
sg9
S'anaphora-?'
p586
sg10
S'i21'
p587
sg12
S'i21'
p588
sg13
Nsg14
(lp589
(i__main__
Token
p590
(dp591
g18
I139
sbasg43
I139
sbasg7
g585
sg44
Nsba(i__main__
Chain
p592
(dp593
g3
(lp594
(i__main__
Mention
p595
(dp596
g7
S't12'
p597
sg9
Nsg10
S'i24'
p598
sg12
Nsg13
Nsg14
(lp599
(i__main__
Token
p600
(dp601
g18
I148
sbasg43
I148
sba(i__main__
Mention
p602
(dp603
g7
S't12'
p604
sg9
S'Coreference-Identity'
p605
sg10
S'i28'
p606
sg12
S'i24'
p607
sg13
Nsg14
(lp608
(i__main__
Token
p609
(dp610
g18
I192
sbasg43
I192
sba(i__main__
Mention
p611
(dp612
g7
S't12'
p613
sg9
S'Coreference-Identity'
p614
sg10
S'i73'
p615
sg12
S'i28'
p616
sg13
Nsg14
(lp617
(i__main__
Token
p618
(dp619
g18
I435
sbasg43
I435
sbasg7
g597
sg44
Nsba(i__main__
Chain
p620
(dp621
g3
(lp622
(i__main__
Mention
p623
(dp624
g7
S't13'
p625
sg9
S'anaphora-?'
p626
sg10
S'i27'
p627
sg12
S'i27'
p628
sg13
Nsg14
(lp629
(i__main__
Token
p630
(dp631
g18
I178
sbasg43
I178
sbasg7
g625
sg44
Nsba(i__main__
Chain
p632
(dp633
g3
(lp634
(i__main__
Mention
p635
(dp636
g7
S't14'
p637
sg9
Nsg10
S'i30'
p638
sg12
Nsg13
Nsg14
(lp639
(i__main__
Token
p640
(dp641
g18
I208
sba(i__main__
Token
p642
(dp643
g18
I209
sba(i__main__
Token
p644
(dp645
g18
I210
sba(i__main__
Token
p646
(dp647
g18
I211
sbasg43
I211
sba(i__main__
Mention
p648
(dp649
g7
S't14'
p650
sg9
S'Coreference-NounComplement'
p651
sg10
S'i31'
p652
sg12
S'i30'
p653
sg13
Nsg14
(lp654
(i__main__
Token
p655
(dp656
g18
I212
sba(i__main__
Token
p657
(dp658
g18
I213
sba(i__main__
Token
p659
(dp660
g18
I214
sba(i__main__
Token
p661
(dp662
g18
I215
sbasg43
I215
sbasg7
g637
sg44
Nsba(i__main__
Chain
p663
(dp664
g3
(lp665
(i__main__
Mention
p666
(dp667
g7
S't15'
p668
sg9
S'anaphora-?'
p669
sg10
S'i33'
p670
sg12
S'i33'
p671
sg13
Nsg14
(lp672
(i__main__
Token
p673
(dp674
g18
I223
sbasg43
I223
sbasg7
g668
sg44
Nsba(i__main__
Chain
p675
(dp676
g3
(lp677
(i__main__
Mention
p678
(dp679
g7
S't16'
p680
sg9
S'anaphora-?'
p681
sg10
S'i37'
p682
sg12
S'i37'
p683
sg13
Nsg14
(lp684
(i__main__
Token
p685
(dp686
g18
I285
sbasg43
I285
sbasg7
g680
sg44
Nsba(i__main__
Chain
p687
(dp688
g3
(lp689
(i__main__
Mention
p690
(dp691
g7
S't17'
p692
sg9
Nsg10
S'i39'
p693
sg12
Nsg13
Nsg14
(lp694
(i__main__
Token
p695
(dp696
g18
I311
sbasg43
I311
sbasg7
g692
sg44
Nsba(i__main__
Chain
p697
(dp698
g3
(lp699
(i__main__
Mention
p700
(dp701
g7
S't18'
p702
sg9
S'anaphora-?'
p703
sg10
S'i41'
p704
sg12
S'i41'
p705
sg13
Nsg14
(lp706
(i__main__
Token
p707
(dp708
g18
I350
sbasg43
I350
sbasg7
g702
sg44
Nsba(i__main__
Chain
p709
(dp710
g3
(lp711
(i__main__
Mention
p712
(dp713
g7
S't19'
p714
sg9
S'anaphora-?'
p715
sg10
S'i44'
p716
sg12
S'i44'
p717
sg13
Nsg14
(lp718
(i__main__
Token
p719
(dp720
g18
I378
sbasg43
I378
sbasg7
g714
sg44
Nsba(i__main__
Chain
p721
(dp722
g3
(lp723
(i__main__
Mention
p724
(dp725
g7
S't20'
p726
sg9
Nsg10
S'i46'
p727
sg12
Nsg13
Nsg14
(lp728
(i__main__
Token
p729
(dp730
g18
I387
sba(i__main__
Token
p731
(dp732
g18
I388
sba(i__main__
Token
p733
(dp734
g18
I389
sba(i__main__
Token
p735
(dp736
g18
I390
sba(i__main__
Token
p737
(dp738
g18
I391
sbasg43
Nsba(i__main__
Mention
p739
(dp740
g7
S't20'
p741
sg9
Nsg10
S'i62'
p742
sg12
Nsg13
Nsg14
(lp743
(i__main__
Token
p744
(dp745
g18
I410
sba(i__main__
Token
p746
(dp747
g18
I411
sbasg43
Nsbasg7
g726
sg44
Nsba(i__main__
Chain
p748
(dp749
g3
(lp750
(i__main__
Mention
p751
(dp752
g7
S't21'
p753
sg9
Nsg10
S'i47'
p754
sg12
Nsg13
Nsg14
(lp755
(i__main__
Token
p756
(dp757
g18
I393
sbasg43
Nsba(i__main__
Mention
p758
(dp759
g7
S't21'
p760
sg9
Nsg10
S'i63'
p761
sg12
Nsg13
Nsg14
(lp762
(i__main__
Token
p763
(dp764
g18
I410
sba(i__main__
Token
p765
(dp766
g18
I411
sbasg43
Nsbasg7
g753
sg44
Nsba(i__main__
Chain
p767
(dp768
g3
(lp769
(i__main__
Mention
p770
(dp771
g7
S't22'
p772
sg9
Nsg10
S'i49'
p773
sg12
Nsg13
Nsg14
(lp774
(i__main__
Token
p775
(dp776
g18
I395
sbasg43
Nsba(i__main__
Mention
p777
(dp778
g7
S't22'
p779
sg9
Nsg10
S'i64'
p780
sg12
Nsg13
Nsg14
(lp781
(i__main__
Token
p782
(dp783
g18
I410
sba(i__main__
Token
p784
(dp785
g18
I411
sbasg43
Nsbasg7
g772
sg44
Nsba(i__main__
Chain
p786
(dp787
g3
(lp788
(i__main__
Mention
p789
(dp790
g7
S't23'
p791
sg9
Nsg10
S'i51'
p792
sg12
Nsg13
Nsg14
(lp793
(i__main__
Token
p794
(dp795
g18
I397
sbasg43
Nsba(i__main__
Mention
p796
(dp797
g7
S't23'
p798
sg9
Nsg10
S'i65'
p799
sg12
Nsg13
Nsg14
(lp800
(i__main__
Token
p801
(dp802
g18
I410
sba(i__main__
Token
p803
(dp804
g18
I411
sbasg43
Nsbasg7
g791
sg44
Nsba(i__main__
Chain
p805
(dp806
g3
(lp807
(i__main__
Mention
p808
(dp809
g7
S't24'
p810
sg9
Nsg10
S'i53'
p811
sg12
Nsg13
Nsg14
(lp812
(i__main__
Token
p813
(dp814
g18
I399
sbasg43
Nsba(i__main__
Mention
p815
(dp816
g7
S't24'
p817
sg9
Nsg10
S'i66'
p818
sg12
Nsg13
Nsg14
(lp819
(i__main__
Token
p820
(dp821
g18
I410
sba(i__main__
Token
p822
(dp823
g18
I411
sbasg43
Nsbasg7
g810
sg44
Nsba(i__main__
Chain
p824
(dp825
g3
(lp826
(i__main__
Mention
p827
(dp828
g7
S't25'
p829
sg9
Nsg10
S'i56'
p830
sg12
Nsg13
Nsg14
(lp831
(i__main__
Token
p832
(dp833
g18
I401
sbasg43
Nsba(i__main__
Mention
p834
(dp835
g7
S't25'
p836
sg9
Nsg10
S'i68'
p837
sg12
Nsg13
Nsg14
(lp838
(i__main__
Token
p839
(dp840
g18
I410
sba(i__main__
Token
p841
(dp842
g18
I411
sbasg43
Nsbasg7
g829
sg44
Nsba(i__main__
Chain
p843
(dp844
g3
(lp845
(i__main__
Mention
p846
(dp847
g7
S't26'
p848
sg9
Nsg10
S'i57'
p849
sg12
Nsg13
Nsg14
(lp850
(i__main__
Token
p851
(dp852
g18
I403
sbasg43
Nsba(i__main__
Mention
p853
(dp854
g7
S't26'
p855
sg9
Nsg10
S'i67'
p856
sg12
Nsg13
Nsg14
(lp857
(i__main__
Token
p858
(dp859
g18
I410
sba(i__main__
Token
p860
(dp861
g18
I411
sbasg43
Nsbasg7
g848
sg44
Nsba(i__main__
Chain
p862
(dp863
g3
(lp864
(i__main__
Mention
p865
(dp866
g7
S't27'
p867
sg9
Nsg10
S'i59'
p868
sg12
Nsg13
Nsg14
(lp869
(i__main__
Token
p870
(dp871
g18
I407
sba(i__main__
Token
p872
(dp873
g18
I408
sbasg43
Nsba(i__main__
Mention
p874
(dp875
g7
S't27'
p876
sg9
Nsg10
S'i69'
p877
sg12
Nsg13
Nsg14
(lp878
(i__main__
Token
p879
(dp880
g18
I410
sba(i__main__
Token
p881
(dp882
g18
I411
sbasg43
Nsbasg7
g867
sg44
Nsba(i__main__
Chain
p883
(dp884
g3
(lp885
(i__main__
Mention
p886
(dp887
g7
S't28'
p888
sg9
Nsg10
S'i70'
p889
sg12
Nsg13
Nsg14
(lp890
(i__main__
Token
p891
(dp892
g18
I415
sba(i__main__
Token
p893
(dp894
g18
I416
sbasg43
I416
sba(i__main__
Mention
p895
(dp896
g7
S't28'
p897
sg9
S'Anaphora-C'
p898
sg10
S'i71'
p899
sg12
S'i70'
p900
sg13
Nsg14
(lp901
(i__main__
Token
p902
(dp903
g18
I426
sbasg43
I426
sbasg7
g888
sg44
Nsba(i__main__
Chain
p904
(dp905
g3
(lp906
(i__main__
Mention
p907
(dp908
g7
S't29'
p909
sg9
S'anaphora-?'
p910
sg10
S'i72'
p911
sg12
S'i72'
p912
sg13
Nsg14
(lp913
(i__main__
Token
p914
(dp915
g18
I433
sbasg43
I433
sbasg7
g909
sg44
Nsba(i__main__
Chain
p916
(dp917
g3
(lp918
(i__main__
Mention
p919
(dp920
g7
S't30'
p921
sg9
Nsg10
S'i74'
p922
sg12
Nsg13
Nsg14
(lp923
(i__main__
Token
p924
(dp925
g18
I438
sba(i__main__
Token
p926
(dp927
g18
I439
sba(i__main__
Token
p928
(dp929
g18
I440
sbasg43
Nsba(i__main__
Mention
p930
(dp931
g7
S't30'
p932
sg9
S'Anaphora-C'
p933
sg10
S'i76'
p934
sg12
S'i74'
p935
sg13
Nsg14
(lp936
(i__main__
Token
p937
(dp938
g18
I445
sbasg43
I445
sba(i__main__
Mention
p939
(dp940
g7
S't30'
p941
sg9
S'Anaphora-C'
p942
sg10
S'i77'
p943
sg12
S'i76'
p944
sg13
Nsg14
(lp945
(i__main__
Token
p946
(dp947
g18
I452
sbasg43
I452
sba(i__main__
Mention
p948
(dp949
g7
S't30'
p950
sg9
Nsg10
S'i79'
p951
sg12
Nsg13
Nsg14
(lp952
(i__main__
Token
p953
(dp954
g18
I453
sba(i__main__
Token
p955
(dp956
g18
I454
sbasg43
Nsba(i__main__
Mention
p957
(dp958
g7
S't30'
p959
sg9
Nsg10
S'i81'
p960
sg12
Nsg13
Nsg14
(lp961
(i__main__
Token
p962
(dp963
g18
I456
sba(i__main__
Token
p964
(dp965
g18
I457
sbasg43
Nsba(i__main__
Mention
p966
(dp967
g7
S't30'
p968
sg9
Nsg10
S'i82'
p969
sg12
Nsg13
Nsg14
(lp970
(i__main__
Token
p971
(dp972
g18
I459
sbasg43
Nsba(i__main__
Mention
p973
(dp974
g7
S't30'
p975
sg9
Nsg10
S'i85'
p976
sg12
Nsg13
Nsg14
(lp977
(i__main__
Token
p978
(dp979
g18
I461
sba(i__main__
Token
p980
(dp981
g18
I462
sbasg43
Nsba(i__main__
Mention
p982
(dp983
g7
S't30'
p984
sg9
Nsg10
S'i86'
p985
sg12
Nsg13
Nsg14
(lp986
(i__main__
Token
p987
(dp988
g18
I464
sbasg43
Nsba(i__main__
Mention
p989
(dp990
g7
S't30'
p991
sg9
Nsg10
S'i88'
p992
sg12
Nsg13
Nsg14
(lp993
(i__main__
Token
p994
(dp995
g18
I466
sbasg43
Nsba(i__main__
Mention
p996
(dp997
g7
S't30'
p998
sg9
Nsg10
S'i90'
p999
sg12
Nsg13
Nsg14
(lp1000
(i__main__
Token
p1001
(dp1002
g18
I468
sbasg43
Nsba(i__main__
Mention
p1003
(dp1004
g7
S't30'
p1005
sg9
Nsg10
S'i92'
p1006
sg12
Nsg13
Nsg14
(lp1007
(i__main__
Token
p1008
(dp1009
g18
I470
sbasg43
Nsba(i__main__
Mention
p1010
(dp1011
g7
S't30'
p1012
sg9
Nsg10
S'i94'
p1013
sg12
Nsg13
Nsg14
(lp1014
(i__main__
Token
p1015
(dp1016
g18
I472
sbasg43
Nsba(i__main__
Mention
p1017
(dp1018
g7
S't30'
p1019
sg9
Nsg10
S'i97'
p1020
sg12
Nsg13
Nsg14
(lp1021
(i__main__
Token
p1022
(dp1023
g18
I474
sba(i__main__
Token
p1024
(dp1025
g18
I475
sbasg43
Nsbasg7
g921
sg44
Nsba(i__main__
Chain
p1026
(dp1027
g3
(lp1028
(i__main__
Mention
p1029
(dp1030
g7
S't31'
p1031
sg9
S'anaphora-?'
p1032
sg10
S'i98'
p1033
sg12
S'i98'
p1034
sg13
Nsg14
(lp1035
(i__main__
Token
p1036
(dp1037
g18
I522
sbasg43
I522
sbasg7
g1031
sg44
Nsba(i__main__
Chain
p1038
(dp1039
g3
(lp1040
(i__main__
Mention
p1041
(dp1042
g7
S't32'
p1043
sg9
Nsg10
S'i99'
p1044
sg12
Nsg13
Nsg14
(lp1045
(i__main__
Token
p1046
(dp1047
g18
I524
sba(i__main__
Token
p1048
(dp1049
g18
I525
sbasg43
Nsba(i__main__
Mention
p1050
(dp1051
g7
S't32'
p1052
sg9
S'Anaphora-C'
p1053
sg10
S'i101'
p1054
sg12
S'i99'
p1055
sg13
Nsg14
(lp1056
(i__main__
Token
p1057
(dp1058
g18
I526
sbasg43
I526
sbasg7
g1043
sg44
Nsba.