(lp0
(i__main__
Chain
p1
(dp2
S'mentionList'
p3
(lp4
(i__main__
Mention
p5
(dp6
S'chainId'
p7
S't1'
p8
sS'relType'
p9
NsS'mentionId'
p10
S'i1'
p11
sS'antecedentId'
p12
NsS'crefMod'
p13
NsS'tokenList'
p14
(lp15
(i__main__
Token
p16
(dp17
S'tokenId'
p18
I0
sbasS'mentionHead'
p19
I0
sba(i__main__
Mention
p20
(dp21
g7
S't1'
p22
sg9
S'Coreference-InferedRelation'
p23
sg10
S'i18'
p24
sg12
S'i1'
p25
sg13
Nsg14
(lp26
(i__main__
Token
p27
(dp28
g18
I63
sbasg19
I63
sba(i__main__
Mention
p29
(dp30
g7
S't1'
p31
sg9
S'Coreference-Noun-Noun'
p32
sg10
S'i35'
p33
sg12
S'i18'
p34
sg13
Nsg14
(lp35
(i__main__
Token
p36
(dp37
g18
I157
sbasg19
I157
sbasg7
g8
sS'chainHead'
p38
Nsba(i__main__
Chain
p39
(dp40
g3
(lp41
(i__main__
Mention
p42
(dp43
g7
S't2'
p44
sg9
Nsg10
S'i2'
p45
sg12
Nsg13
Nsg14
(lp46
(i__main__
Token
p47
(dp48
g18
I2
sba(i__main__
Token
p49
(dp50
g18
I3
sbasg19
Nsba(i__main__
Mention
p51
(dp52
g7
S't2'
p53
sg9
Nsg10
S'i16'
p54
sg12
Nsg13
Nsg14
(lp55
(i__main__
Token
p56
(dp57
g18
I60
sba(i__main__
Token
p58
(dp59
g18
I61
sbasg19
Nsbasg7
g44
sg38
Nsba(i__main__
Chain
p60
(dp61
g3
(lp62
(i__main__
Mention
p63
(dp64
g7
S't3'
p65
sg9
Nsg10
S'i3'
p66
sg12
Nsg13
Nsg14
(lp67
(i__main__
Token
p68
(dp69
g18
I3
sbasg19
Nsba(i__main__
Mention
p70
(dp71
g7
S't3'
p72
sg9
Nsg10
S'i17'
p73
sg12
Nsg13
Nsg14
(lp74
(i__main__
Token
p75
(dp76
g18
I61
sbasg19
Nsba(i__main__
Mention
p77
(dp78
g7
S't3'
p79
sg9
S'Coreference-Identity'
p80
sg10
S'i28'
p81
sg12
S'i17'
p82
sg13
Nsg14
(lp83
(i__main__
Token
p84
(dp85
g18
I108
sbasg19
I108
sba(i__main__
Mention
p86
(dp87
g7
S't3'
p88
sg9
S'Coreference-Identity'
p89
sg10
S'i32'
p90
sg12
S'i28'
p91
sg13
Nsg14
(lp92
(i__main__
Token
p93
(dp94
g18
I142
sbasg19
I142
sbasg7
g65
sg38
Nsba(i__main__
Chain
p95
(dp96
g3
(lp97
(i__main__
Mention
p98
(dp99
g7
S't4'
p100
sg9
Nsg10
S'i4'
p101
sg12
Nsg13
Nsg14
(lp102
(i__main__
Token
p103
(dp104
g18
I5
sba(i__main__
Token
p105
(dp106
g18
I6
sbasg19
I6
sba(i__main__
Mention
p107
(dp108
g7
S't4'
p109
sg9
S'Coreference-Identity'
p110
sg10
S'i19'
p111
sg12
S'i4'
p112
sg13
Nsg14
(lp113
(i__main__
Token
p114
(dp115
g18
I65
sba(i__main__
Token
p116
(dp117
g18
I66
sbasg19
I66
sbasg7
g100
sg38
Nsba(i__main__
Chain
p118
(dp119
g3
(lp120
(i__main__
Mention
p121
(dp122
g7
S't5'
p123
sg9
Nsg10
S'i5'
p124
sg12
Nsg13
Nsg14
(lp125
(i__main__
Token
p126
(dp127
g18
I8
sba(i__main__
Token
p128
(dp129
g18
I9
sbasg19
I9
sba(i__main__
Mention
p130
(dp131
g7
S't5'
p132
sg9
S'Coreference-Identity'
p133
sg10
S'i20'
p134
sg12
S'i5'
p135
sg13
Nsg14
(lp136
(i__main__
Token
p137
(dp138
g18
I68
sbasg19
I68
sba(i__main__
Mention
p139
(dp140
g7
S't5'
p141
sg9
S'Coreference-Identity'
p142
sg10
S'i27'
p143
sg12
S'i20'
p144
sg13
Nsg14
(lp145
(i__main__
Token
p146
(dp147
g18
I99
sbasg19
I99
sba(i__main__
Mention
p148
(dp149
g7
S't5'
p150
sg9
S'Coreference-Identity'
p151
sg10
S'i36'
p152
sg12
S'i27'
p153
sg13
Nsg14
(lp154
(i__main__
Token
p155
(dp156
g18
I159
sba(i__main__
Token
p157
(dp158
g18
I160
sbasg19
I160
sba(i__main__
Mention
p159
(dp160
g7
S't5'
p161
sg9
S'Coreference-Identity'
p162
sg10
S'i39'
p163
sg12
S'i36'
p164
sg13
Nsg14
(lp165
(i__main__
Token
p166
(dp167
g18
I185
sbasg19
I185
sbasg7
g123
sg38
Nsba(i__main__
Chain
p168
(dp169
g3
(lp170
(i__main__
Mention
p171
(dp172
g7
S't6'
p173
sg9
Nsg10
S'i6'
p174
sg12
Nsg13
Nsg14
(lp175
(i__main__
Token
p176
(dp177
g18
I12
sba(i__main__
Token
p178
(dp179
g18
I13
sbasg19
I13
sba(i__main__
Mention
p180
(dp181
g7
S't6'
p182
sg9
S'Coreference-Identity'
p183
sg10
S'i21'
p184
sg12
S'i6'
p185
sg13
Nsg14
(lp186
(i__main__
Token
p187
(dp188
g18
I71
sbasg19
I71
sba(i__main__
Mention
p189
(dp190
g7
S't6'
p191
sg9
S'Coreference-Identity'
p192
sg10
S'i38'
p193
sg12
S'i21'
p194
sg13
Nsg14
(lp195
(i__main__
Token
p196
(dp197
g18
I180
sbasg19
I180
sbasg7
g173
sg38
Nsba(i__main__
Chain
p198
(dp199
g3
(lp200
(i__main__
Mention
p201
(dp202
g7
S't7'
p203
sg9
Nsg10
S'i7'
p204
sg12
Nsg13
Nsg14
(lp205
(i__main__
Token
p206
(dp207
g18
I15
sbasg19
I15
sba(i__main__
Mention
p208
(dp209
g7
S't7'
p210
sg9
S'Coreference-Identity'
p211
sg10
S'i22'
p212
sg12
S'i7'
p213
sg13
Nsg14
(lp214
(i__main__
Token
p215
(dp216
g18
I73
sbasg19
I73
sbasg7
g203
sg38
Nsba(i__main__
Chain
p217
(dp218
g3
(lp219
(i__main__
Mention
p220
(dp221
g7
S't8'
p222
sg9
Nsg10
S'i8'
p223
sg12
Nsg13
Nsg14
(lp224
(i__main__
Token
p225
(dp226
g18
I20
sba(i__main__
Token
p227
(dp228
g18
I21
sbasg19
I21
sba(i__main__
Mention
p229
(dp230
g7
S't8'
p231
sg9
S'Coreference-NounComplement'
p232
sg10
S'i10'
p233
sg12
S'i8'
p234
sg13
Nsg14
(lp235
(i__main__
Token
p236
(dp237
g18
I22
sba(i__main__
Token
p238
(dp239
g18
I23
sba(i__main__
Token
p240
(dp241
g18
I24
sbasg19
I24
sba(i__main__
Mention
p242
(dp243
g7
S't8'
p244
sg9
S'Anaphora-C'
p245
sg10
S'i11'
p246
sg12
S'i10'
p247
sg13
Nsg14
(lp248
(i__main__
Token
p249
(dp250
g18
I28
sbasg19
I28
sba(i__main__
Mention
p251
(dp252
g7
S't8'
p253
sg9
S'Coreference-Noun-Noun'
p254
sg10
S'i13'
p255
sg12
S'i11'
p256
sg13
Nsg14
(lp257
(i__main__
Token
p258
(dp259
g18
I47
sba(i__main__
Token
p260
(dp261
g18
I48
sbasg19
I48
sba(i__main__
Mention
p262
(dp263
g7
S't8'
p264
sg9
S'Coreference-NounComplement'
p265
sg10
S'i14'
p266
sg12
S'i13'
p267
sg13
Nsg14
(lp268
(i__main__
Token
p269
(dp270
g18
I49
sba(i__main__
Token
p271
(dp272
g18
I50
sbasg19
I50
sba(i__main__
Mention
p273
(dp274
g7
S't8'
p275
sg9
S'Anaphora-C'
p276
sg10
S'i15'
p277
sg12
S'i14'
p278
sg13
Nsg14
(lp279
(i__main__
Token
p280
(dp281
g18
I59
sbasg19
I59
sba(i__main__
Mention
p282
(dp283
g7
S't8'
p284
sg9
S'Coreference-Identity'
p285
sg10
S'i24'
p286
sg12
S'i15'
p287
sg13
Nsg14
(lp288
(i__main__
Token
p289
(dp290
g18
I90
sbasg19
I90
sba(i__main__
Mention
p291
(dp292
g7
S't8'
p293
sg9
S'Anaphora-C'
p294
sg10
S'i30'
p295
sg12
S'i24'
p296
sg13
Nsg14
(lp297
(i__main__
Token
p298
(dp299
g18
I123
sbasg19
I123
sba(i__main__
Mention
p300
(dp301
g7
S't8'
p302
sg9
S'Anaphora-C'
p303
sg10
S'i33'
p304
sg12
S'i30'
p305
sg13
Nsg14
(lp306
(i__main__
Token
p307
(dp308
g18
I153
sbasg19
I153
sba(i__main__
Mention
p309
(dp310
g7
S't8'
p311
sg9
S'Coreference-Identity'
p312
sg10
S'i37'
p313
sg12
S'i33'
p314
sg13
Nsg14
(lp315
(i__main__
Token
p316
(dp317
g18
I176
sbasg19
I176
sbasg7
g222
sg38
Nsba(i__main__
Chain
p318
(dp319
g3
(lp320
(i__main__
Mention
p321
(dp322
g7
S't9'
p323
sg9
Nsg10
S'i9'
p324
sg12
Nsg13
Nsg14
(lp325
(i__main__
Token
p326
(dp327
g18
I20
sbasg19
I20
sba(i__main__
Mention
p328
(dp329
g7
S't9'
p330
sg9
S'Coreference-InferedRelation'
p331
sg10
S'i12'
p332
sg12
S'i9'
p333
sg13
Nsg14
(lp334
(i__main__
Token
p335
(dp336
g18
I29
sbasg19
I29
sba(i__main__
Mention
p337
(dp338
g7
S't9'
p339
sg9
S'Coreference-Noun-Noun'
p340
sg10
S'i23'
p341
sg12
S'i12'
p342
sg13
Nsg14
(lp343
(i__main__
Token
p344
(dp345
g18
I79
sbasg19
I79
sba(i__main__
Mention
p346
(dp347
g7
S't9'
p348
sg9
S'Coreference-Identity'
p349
sg10
S'i34'
p350
sg12
S'i23'
p351
sg13
Nsg14
(lp352
(i__main__
Token
p353
(dp354
g18
I156
sbasg19
I156
sbasg7
g323
sg38
Nsba(i__main__
Chain
p355
(dp356
g3
(lp357
(i__main__
Mention
p358
(dp359
g7
S't10'
p360
sg9
S'anaphora-?'
p361
sg10
S'i25'
p362
sg12
S'i25'
p363
sg13
Nsg14
(lp364
(i__main__
Token
p365
(dp366
g18
I92
sbasg19
I92
sba(i__main__
Mention
p367
(dp368
g7
S't10'
p369
sg9
S'Anaphora-RC'
p370
sg10
S'i26'
p371
sg12
S'i25'
p372
sg13
Nsg14
(lp373
(i__main__
Token
p374
(dp375
g18
I96
sba(i__main__
Token
p376
(dp377
g18
I97
sba(i__main__
Token
p378
(dp379
g18
I98
sba(i__main__
Token
p380
(dp381
g18
I99
sba(i__main__
Token
p382
(dp383
g18
I100
sba(i__main__
Token
p384
(dp385
g18
I101
sba(i__main__
Token
p386
(dp387
g18
I102
sba(i__main__
Token
p388
(dp389
g18
I103
sba(i__main__
Token
p390
(dp391
g18
I104
sba(i__main__
Token
p392
(dp393
g18
I105
sba(i__main__
Token
p394
(dp395
g18
I106
sba(i__main__
Token
p396
(dp397
g18
I107
sba(i__main__
Token
p398
(dp399
g18
I108
sba(i__main__
Token
p400
(dp401
g18
I109
sba(i__main__
Token
p402
(dp403
g18
I110
sba(i__main__
Token
p404
(dp405
g18
I111
sba(i__main__
Token
p406
(dp407
g18
I112
sba(i__main__
Token
p408
(dp409
g18
I113
sba(i__main__
Token
p410
(dp411
g18
I114
sba(i__main__
Token
p412
(dp413
g18
I115
sba(i__main__
Token
p414
(dp415
g18
I116
sba(i__main__
Token
p416
(dp417
g18
I117
sba(i__main__
Token
p418
(dp419
g18
I118
sba(i__main__
Token
p420
(dp421
g18
I119
sba(i__main__
Token
p422
(dp423
g18
I120
sba(i__main__
Token
p424
(dp425
g18
I121
sbasg19
I120
sbasg7
g360
sg38
Nsba(i__main__
Chain
p426
(dp427
g3
(lp428
(i__main__
Mention
p429
(dp430
g7
S't11'
p431
sg9
Nsg10
S'i29'
p432
sg12
Nsg13
Nsg14
(lp433
(i__main__
Token
p434
(dp435
g18
I113
sbasg19
I113
sba(i__main__
Mention
p436
(dp437
g7
S't11'
p438
sg9
S'Coreference-Identity'
p439
sg10
S'i31'
p440
sg12
S'i29'
p441
sg13
Nsg14
(lp442
(i__main__
Token
p443
(dp444
g18
I126
sbasg19
I126
sbasg7
g431
sg38
Nsba.