(lp0
(i__main__
Chain
p1
(dp2
S'mentionList'
p3
(lp4
(i__main__
Mention
p5
(dp6
S'chainId'
p7
S't1'
p8
sS'relType'
p9
NsS'mentionId'
p10
S'i1'
p11
sS'antecedentId'
p12
NsS'crefMod'
p13
NsS'tokenList'
p14
(lp15
(i__main__
Token
p16
(dp17
S'tokenId'
p18
I0
sbasS'mentionHead'
p19
I0
sba(i__main__
Mention
p20
(dp21
g7
S't1'
p22
sg9
S'Coreference-PartOf'
p23
sg10
S'i6'
p24
sg12
S'i1'
p25
sg13
Nsg14
(lp26
(i__main__
Token
p27
(dp28
g18
I52
sba(i__main__
Token
p29
(dp30
g18
I53
sba(i__main__
Token
p31
(dp32
g18
I54
sbasg19
I54
sba(i__main__
Mention
p33
(dp34
g7
S't1'
p35
sg9
S'Coreference-PartOf-WMain'
p36
sg10
S'i16'
p37
sg12
S'i6'
p38
sg13
Nsg14
(lp39
(i__main__
Token
p40
(dp41
g18
I98
sba(i__main__
Token
p42
(dp43
g18
I99
sba(i__main__
Token
p44
(dp45
g18
I100
sba(i__main__
Token
p46
(dp47
g18
I101
sbasg19
I101
sba(i__main__
Mention
p48
(dp49
g7
S't1'
p50
sg9
S'Coreference-Identity'
p51
sg10
S'i21'
p52
sg12
S'i16'
p53
sg13
Nsg14
(lp54
(i__main__
Token
p55
(dp56
g18
I124
sba(i__main__
Token
p57
(dp58
g18
I125
sba(i__main__
Token
p59
(dp60
g18
I126
sba(i__main__
Token
p61
(dp62
g18
I127
sbasg19
I127
sbasg7
g8
sS'chainHead'
p63
Nsba(i__main__
Chain
p64
(dp65
g3
(lp66
(i__main__
Mention
p67
(dp68
g7
S't2'
p69
sg9
Nsg10
S'i2'
p70
sg12
Nsg13
Nsg14
(lp71
(i__main__
Token
p72
(dp73
g18
I2
sba(i__main__
Token
p74
(dp75
g18
I3
sbasg19
I3
sba(i__main__
Mention
p76
(dp77
g7
S't2'
p78
sg9
S'Coreference-Identity'
p79
sg10
S'i22'
p80
sg12
S'i2'
p81
sg13
Nsg14
(lp82
(i__main__
Token
p83
(dp84
g18
I140
sba(i__main__
Token
p85
(dp86
g18
I141
sbasg19
I141
sbasg7
g69
sg63
Nsba(i__main__
Chain
p87
(dp88
g3
(lp89
(i__main__
Mention
p90
(dp91
g7
S't3'
p92
sg9
Nsg10
S'i3'
p93
sg12
Nsg13
Nsg14
(lp94
(i__main__
Token
p95
(dp96
g18
I6
sba(i__main__
Token
p97
(dp98
g18
I7
sba(i__main__
Token
p99
(dp100
g18
I8
sbasg19
I8
sba(i__main__
Mention
p101
(dp102
g7
S't3'
p103
sg9
S'Coreference-Abbreviation'
p104
sg10
S'i4'
p105
sg12
S'i3'
p106
sg13
Nsg14
(lp107
(i__main__
Token
p108
(dp109
g18
I10
sbasg19
I10
sbasg7
g92
sg63
Nsba(i__main__
Chain
p110
(dp111
g3
(lp112
(i__main__
Mention
p113
(dp114
g7
S't4'
p115
sg9
Nsg10
S'i5'
p116
sg12
Nsg13
Nsg14
(lp117
(i__main__
Token
p118
(dp119
g18
I46
sbasg19
I46
sba(i__main__
Mention
p120
(dp121
g7
S't4'
p122
sg9
S'Anaphora-C'
p123
sg10
S'i7'
p124
sg12
S'i5'
p125
sg13
Nsg14
(lp126
(i__main__
Token
p127
(dp128
g18
I55
sbasg19
I55
sba(i__main__
Mention
p129
(dp130
g7
S't4'
p131
sg9
S'Coreference-Identity'
p132
sg10
S'i8'
p133
sg12
S'i7'
p134
sg13
Nsg14
(lp135
(i__main__
Token
p136
(dp137
g18
I64
sbasg19
I64
sba(i__main__
Mention
p138
(dp139
g7
S't4'
p140
sg9
S'Anaphora-C'
p141
sg10
S'i11'
p142
sg12
S'i8'
p143
sg13
Nsg14
(lp144
(i__main__
Token
p145
(dp146
g18
I81
sbasg19
I81
sba(i__main__
Mention
p147
(dp148
g7
S't4'
p149
sg9
S'Anaphora-C'
p150
sg10
S'i13'
p151
sg12
S'i11'
p152
sg13
Nsg14
(lp153
(i__main__
Token
p154
(dp155
g18
I89
sbasg19
I89
sbasg7
g115
sg63
Nsba(i__main__
Chain
p156
(dp157
g3
(lp158
(i__main__
Mention
p159
(dp160
g7
S't5'
p161
sg9
Nsg10
S'i9'
p162
sg12
Nsg13
Nsg14
(lp163
(i__main__
Token
p164
(dp165
g18
I76
sba(i__main__
Token
p166
(dp167
g18
I77
sbasg19
I77
sba(i__main__
Mention
p168
(dp169
g7
S't5'
p170
sg9
S'Coreference-Identity'
p171
sg10
S'i14'
p172
sg12
S'i9'
p173
sg13
Nsg14
(lp174
(i__main__
Token
p175
(dp176
g18
I91
sbasg19
I91
sba(i__main__
Mention
p177
(dp178
g7
S't5'
p179
sg9
S'Coreference-Identity'
p180
sg10
S'i19'
p181
sg12
S'i14'
p182
sg13
Nsg14
(lp183
(i__main__
Token
p184
(dp185
g18
I113
sba(i__main__
Token
p186
(dp187
g18
I114
sbasg19
I114
sbasg7
g161
sg63
Nsba(i__main__
Chain
p188
(dp189
g3
(lp190
(i__main__
Mention
p191
(dp192
g7
S't6'
p193
sg9
Nsg10
S'i10'
p194
sg12
Nsg13
Nsg14
(lp195
(i__main__
Token
p196
(dp197
g18
I76
sbasg19
I76
sba(i__main__
Mention
p198
(dp199
g7
S't6'
p200
sg9
S'Coreference-Identity'
p201
sg10
S'i17'
p202
sg12
S'i10'
p203
sg13
Nsg14
(lp204
(i__main__
Token
p205
(dp206
g18
I102
sbasg19
I102
sba(i__main__
Mention
p207
(dp208
g7
S't6'
p209
sg9
S'Coreference-Identity'
p210
sg10
S'i20'
p211
sg12
S'i17'
p212
sg13
Nsg14
(lp213
(i__main__
Token
p214
(dp215
g18
I113
sbasg19
I113
sba(i__main__
Mention
p216
(dp217
g7
S't6'
p218
sg9
S'Coreference-Identity'
p219
sg10
S'i23'
p220
sg12
S'i20'
p221
sg13
Nsg14
(lp222
(i__main__
Token
p223
(dp224
g18
I148
sbasg19
I148
sbasg7
g193
sg63
Nsba(i__main__
Chain
p225
(dp226
g3
(lp227
(i__main__
Mention
p228
(dp229
g7
S't7'
p230
sg9
S'anaphora-?'
p231
sg10
S'i12'
p232
sg12
S'i12'
p233
sg13
Nsg14
(lp234
(i__main__
Token
p235
(dp236
g18
I82
sbasg19
I82
sbasg7
g230
sg63
Nsba(i__main__
Chain
p237
(dp238
g3
(lp239
(i__main__
Mention
p240
(dp241
g7
S't8'
p242
sg9
Nsg10
S'i15'
p243
sg12
Nsg13
Nsg14
(lp244
(i__main__
Token
p245
(dp246
g18
I91
sba(i__main__
Token
p247
(dp248
g18
I92
sba(i__main__
Token
p249
(dp250
g18
I93
sba(i__main__
Token
p251
(dp252
g18
I94
sba(i__main__
Token
p253
(dp254
g18
I95
sba(i__main__
Token
p255
(dp256
g18
I96
sba(i__main__
Token
p257
(dp258
g18
I97
sba(i__main__
Token
p259
(dp260
g18
I98
sba(i__main__
Token
p261
(dp262
g18
I99
sba(i__main__
Token
p263
(dp264
g18
I100
sba(i__main__
Token
p265
(dp266
g18
I101
sba(i__main__
Token
p267
(dp268
g18
I102
sba(i__main__
Token
p269
(dp270
g18
I103
sba(i__main__
Token
p271
(dp272
g18
I104
sba(i__main__
Token
p273
(dp274
g18
I105
sba(i__main__
Token
p275
(dp276
g18
I106
sba(i__main__
Token
p277
(dp278
g18
I107
sba(i__main__
Token
p279
(dp280
g18
I108
sbasg19
I106
sba(i__main__
Mention
p281
(dp282
g7
S't8'
p283
sg9
S'Coreference-Noun-Noun'
p284
sg10
S'i18'
p285
sg12
S'i15'
p286
sg13
Nsg14
(lp287
(i__main__
Token
p288
(dp289
g18
I110
sba(i__main__
Token
p290
(dp291
g18
I111
sbasg19
I111
sbasg7
g242
sg63
Nsba.