(lp0
(i__main__
Chain
p1
(dp2
S'mentionList'
p3
(lp4
(i__main__
Mention
p5
(dp6
S'chainId'
p7
S't1'
p8
sS'relType'
p9
NsS'mentionId'
p10
S'i1'
p11
sS'antecedentId'
p12
NsS'crefMod'
p13
NsS'tokenList'
p14
(lp15
(i__main__
Token
p16
(dp17
S'tokenId'
p18
I0
sbasS'mentionHead'
p19
I0
sba(i__main__
Mention
p20
(dp21
g7
S't1'
p22
sg9
S'Coreference-Identity'
p23
sg10
S'i8'
p24
sg12
S'i1'
p25
sg13
Nsg14
(lp26
(i__main__
Token
p27
(dp28
g18
I58
sbasg19
I58
sba(i__main__
Mention
p29
(dp30
g7
S't1'
p31
sg9
Nsg10
S'i11'
p32
sg12
Nsg13
Nsg14
(lp33
(i__main__
Token
p34
(dp35
g18
I81
sba(i__main__
Token
p36
(dp37
g18
I82
sbasg19
Nsba(i__main__
Mention
p38
(dp39
g7
S't1'
p40
sg9
Nsg10
S'i15'
p41
sg12
Nsg13
Nsg14
(lp42
(i__main__
Token
p43
(dp44
g18
I108
sba(i__main__
Token
p45
(dp46
g18
I109
sbasg19
Nsba(i__main__
Mention
p47
(dp48
g7
S't1'
p49
sg9
Nsg10
S'i19'
p50
sg12
Nsg13
Nsg14
(lp51
(i__main__
Token
p52
(dp53
g18
I141
sbasg19
Nsba(i__main__
Mention
p54
(dp55
g7
S't1'
p56
sg9
S'Coreference-Identity'
p57
sg10
S'i24'
p58
sg12
S'i19'
p59
sg13
Nsg14
(lp60
(i__main__
Token
p61
(dp62
g18
I177
sbasg19
I177
sba(i__main__
Mention
p63
(dp64
g7
S't1'
p65
sg9
Nsg10
S'i27'
p66
sg12
Nsg13
Nsg14
(lp67
(i__main__
Token
p68
(dp69
g18
I195
sbasg19
Nsba(i__main__
Mention
p70
(dp71
g7
S't1'
p72
sg9
Nsg10
S'i31'
p73
sg12
Nsg13
Nsg14
(lp74
(i__main__
Token
p75
(dp76
g18
I220
sbasg19
Nsba(i__main__
Mention
p77
(dp78
g7
S't1'
p79
sg9
Nsg10
S'i34'
p80
sg12
Nsg13
Nsg14
(lp81
(i__main__
Token
p82
(dp83
g18
I237
sbasg19
Nsba(i__main__
Mention
p84
(dp85
g7
S't1'
p86
sg9
Nsg10
S'i39'
p87
sg12
Nsg13
Nsg14
(lp88
(i__main__
Token
p89
(dp90
g18
I281
sbasg19
Nsba(i__main__
Mention
p91
(dp92
g7
S't1'
p93
sg9
S'Coreference-Identity'
p94
sg10
S'i42'
p95
sg12
S'i39'
p96
sg13
Nsg14
(lp97
(i__main__
Token
p98
(dp99
g18
I309
sbasg19
I309
sba(i__main__
Mention
p100
(dp101
g7
S't1'
p102
sg9
S'Coreference-Identity'
p103
sg10
S'i44'
p104
sg12
S'i42'
p105
sg13
Nsg14
(lp106
(i__main__
Token
p107
(dp108
g18
I318
sbasg19
I318
sba(i__main__
Mention
p109
(dp110
g7
S't1'
p111
sg9
S'Coreference-Identity'
p112
sg10
S'i48'
p113
sg12
S'i44'
p114
sg13
Nsg14
(lp115
(i__main__
Token
p116
(dp117
g18
I336
sbasg19
I336
sba(i__main__
Mention
p118
(dp119
g7
S't1'
p120
sg9
Nsg10
S'i52'
p121
sg12
Nsg13
Nsg14
(lp122
(i__main__
Token
p123
(dp124
g18
I363
sbasg19
Nsbasg7
g8
sS'chainHead'
p125
Nsba(i__main__
Chain
p126
(dp127
g3
(lp128
(i__main__
Mention
p129
(dp130
g7
S't2'
p131
sg9
Nsg10
S'i2'
p132
sg12
Nsg13
Nsg14
(lp133
(i__main__
Token
p134
(dp135
g18
I2
sbasg19
I2
sba(i__main__
Mention
p136
(dp137
g7
S't2'
p138
sg9
S'Coreference-Identity'
p139
sg10
S'i3'
p140
sg12
S'i2'
p141
sg13
Nsg14
(lp142
(i__main__
Token
p143
(dp144
g18
I16
sbasg19
I16
sba(i__main__
Mention
p145
(dp146
g7
S't2'
p147
sg9
S'Coreference-Identity'
p148
sg10
S'i9'
p149
sg12
S'i3'
p150
sg13
Nsg14
(lp151
(i__main__
Token
p152
(dp153
g18
I60
sbasg19
I60
sba(i__main__
Mention
p154
(dp155
g7
S't2'
p156
sg9
Nsg10
S'i12'
p157
sg12
Nsg13
Nsg14
(lp158
(i__main__
Token
p159
(dp160
g18
I81
sba(i__main__
Token
p161
(dp162
g18
I82
sbasg19
Nsba(i__main__
Mention
p163
(dp164
g7
S't2'
p165
sg9
Nsg10
S'i16'
p166
sg12
Nsg13
Nsg14
(lp167
(i__main__
Token
p168
(dp169
g18
I108
sba(i__main__
Token
p170
(dp171
g18
I109
sbasg19
Nsba(i__main__
Mention
p172
(dp173
g7
S't2'
p174
sg9
Nsg10
S'i20'
p175
sg12
Nsg13
Nsg14
(lp176
(i__main__
Token
p177
(dp178
g18
I141
sbasg19
Nsba(i__main__
Mention
p179
(dp180
g7
S't2'
p181
sg9
S'Coreference-Identity'
p182
sg10
S'i25'
p183
sg12
S'i20'
p184
sg13
Nsg14
(lp185
(i__main__
Token
p186
(dp187
g18
I179
sbasg19
I179
sba(i__main__
Mention
p188
(dp189
g7
S't2'
p190
sg9
Nsg10
S'i28'
p191
sg12
Nsg13
Nsg14
(lp192
(i__main__
Token
p193
(dp194
g18
I195
sbasg19
Nsba(i__main__
Mention
p195
(dp196
g7
S't2'
p197
sg9
Nsg10
S'i32'
p198
sg12
Nsg13
Nsg14
(lp199
(i__main__
Token
p200
(dp201
g18
I220
sbasg19
Nsba(i__main__
Mention
p202
(dp203
g7
S't2'
p204
sg9
Nsg10
S'i35'
p205
sg12
Nsg13
Nsg14
(lp206
(i__main__
Token
p207
(dp208
g18
I237
sbasg19
Nsba(i__main__
Mention
p209
(dp210
g7
S't2'
p211
sg9
Nsg10
S'i40'
p212
sg12
Nsg13
Nsg14
(lp213
(i__main__
Token
p214
(dp215
g18
I281
sbasg19
Nsba(i__main__
Mention
p216
(dp217
g7
S't2'
p218
sg9
S'Coreference-Identity'
p219
sg10
S'i43'
p220
sg12
S'i40'
p221
sg13
Nsg14
(lp222
(i__main__
Token
p223
(dp224
g18
I310
sbasg19
I310
sba(i__main__
Mention
p225
(dp226
g7
S't2'
p227
sg9
S'Coreference-Identity'
p228
sg10
S'i45'
p229
sg12
S'i43'
p230
sg13
Nsg14
(lp231
(i__main__
Token
p232
(dp233
g18
I325
sbasg19
I325
sba(i__main__
Mention
p234
(dp235
g7
S't2'
p236
sg9
S'Coreference-Identity'
p237
sg10
S'i46'
p238
sg12
S'i45'
p239
sg13
Nsg14
(lp240
(i__main__
Token
p241
(dp242
g18
I331
sbasg19
I331
sba(i__main__
Mention
p243
(dp244
g7
S't2'
p245
sg9
Nsg10
S'i53'
p246
sg12
Nsg13
Nsg14
(lp247
(i__main__
Token
p248
(dp249
g18
I363
sbasg19
Nsbasg7
g131
sg125
Nsba(i__main__
Chain
p250
(dp251
g3
(lp252
(i__main__
Mention
p253
(dp254
g7
S't3'
p255
sg9
Nsg10
S'i4'
p256
sg12
Nsg13
Nsg14
(lp257
(i__main__
Token
p258
(dp259
g18
I18
sbasg19
I18
sba(i__main__
Mention
p260
(dp261
g7
S't3'
p262
sg9
S'Coreference-NounComplement'
p263
sg10
S'i5'
p264
sg12
S'i4'
p265
sg13
Nsg14
(lp266
(i__main__
Token
p267
(dp268
g18
I19
sba(i__main__
Token
p269
(dp270
g18
I20
sbasg19
I20
sba(i__main__
Mention
p271
(dp272
g7
S't3'
p273
sg9
S'Coreference-Identity'
p274
sg10
S'i7'
p275
sg12
S'i5'
p276
sg13
Nsg14
(lp277
(i__main__
Token
p278
(dp279
g18
I53
sbasg19
I53
sba(i__main__
Mention
p280
(dp281
g7
S't3'
p282
sg9
S'Anaphora-C'
p283
sg10
S'i10'
p284
sg12
S'i7'
p285
sg13
Nsg14
(lp286
(i__main__
Token
p287
(dp288
g18
I74
sbasg19
I74
sba(i__main__
Mention
p289
(dp290
g7
S't3'
p291
sg9
S'Anaphora-C'
p292
sg10
S'i18'
p293
sg12
S'i10'
p294
sg13
Nsg14
(lp295
(i__main__
Token
p296
(dp297
g18
I130
sbasg19
I130
sba(i__main__
Mention
p298
(dp299
g7
S't3'
p300
sg9
S'Anaphora-C'
p301
sg10
S'i21'
p302
sg12
S'i18'
p303
sg13
Nsg14
(lp304
(i__main__
Token
p305
(dp306
g18
I148
sbasg19
I148
sba(i__main__
Mention
p307
(dp308
g7
S't3'
p309
sg9
S'Anaphora-C'
p310
sg10
S'i23'
p311
sg12
S'i21'
p312
sg13
Nsg14
(lp313
(i__main__
Token
p314
(dp315
g18
I174
sbasg19
I174
sba(i__main__
Mention
p316
(dp317
g7
S't3'
p318
sg9
S'Coreference-Identity'
p319
sg10
S'i26'
p320
sg12
S'i23'
p321
sg13
Nsg14
(lp322
(i__main__
Token
p323
(dp324
g18
I191
sbasg19
I191
sba(i__main__
Mention
p325
(dp326
g7
S't3'
p327
sg9
S'Anaphora-C'
p328
sg10
S'i37'
p329
sg12
S'i26'
p330
sg13
Nsg14
(lp331
(i__main__
Token
p332
(dp333
g18
I250
sbasg19
I250
sba(i__main__
Mention
p334
(dp335
g7
S't3'
p336
sg9
S'Coreference-Identity'
p337
sg10
S'i38'
p338
sg12
S'i37'
p339
sg13
Nsg14
(lp340
(i__main__
Token
p341
(dp342
g18
I267
sbasg19
I267
sba(i__main__
Mention
p343
(dp344
g7
S't3'
p345
sg9
S'Anaphora-C'
p346
sg10
S'i41'
p347
sg12
S'i38'
p348
sg13
Nsg14
(lp349
(i__main__
Token
p350
(dp351
g18
I300
sbasg19
I300
sba(i__main__
Mention
p352
(dp353
g7
S't3'
p354
sg9
S'Anaphora-C'
p355
sg10
S'i49'
p356
sg12
S'i41'
p357
sg13
Nsg14
(lp358
(i__main__
Token
p359
(dp360
g18
I345
sbasg19
I345
sbasg7
g255
sg125
Nsba(i__main__
Chain
p361
(dp362
g3
(lp363
(i__main__
Mention
p364
(dp365
g7
S't4'
p366
sg9
Nsg10
S'i6'
p367
sg12
Nsg13
Nsg14
(lp368
(i__main__
Token
p369
(dp370
g18
I22
sba(i__main__
Token
p371
(dp372
g18
I23
sbasg19
I23
sba(i__main__
Mention
p373
(dp374
g7
S't4'
p375
sg9
S'Coreference-Identity'
p376
sg10
S'i13'
p377
sg12
S'i6'
p378
sg13
Nsg14
(lp379
(i__main__
Token
p380
(dp381
g18
I84
sba(i__main__
Token
p382
(dp383
g18
I85
sbasg19
I85
sba(i__main__
Mention
p384
(dp385
g7
S't4'
p386
sg9
S'Coreference-Identity'
p387
sg10
S'i30'
p388
sg12
S'i13'
p389
sg13
Nsg14
(lp390
(i__main__
Token
p391
(dp392
g18
I208
sba(i__main__
Token
p393
(dp394
g18
I209
sbasg19
I209
sbasg7
g366
sg125
Nsba(i__main__
Chain
p395
(dp396
g3
(lp397
(i__main__
Mention
p398
(dp399
g7
S't5'
p400
sg9
Nsg10
S'i14'
p401
sg12
Nsg13
Nsg14
(lp402
(i__main__
Token
p403
(dp404
g18
I103
sbasg19
I103
sba(i__main__
Mention
p405
(dp406
g7
S't5'
p407
sg9
S'Anaphora-RE'
p408
sg10
S'i17'
p409
sg12
S'i14'
p410
sg13
Nsg14
(lp411
(i__main__
Token
p412
(dp413
g18
I108
sba(i__main__
Token
p414
(dp415
g18
I109
sba(i__main__
Token
p416
(dp417
g18
I110
sba(i__main__
Token
p418
(dp419
g18
I111
sba(i__main__
Token
p420
(dp421
g18
I112
sba(i__main__
Token
p422
(dp423
g18
I113
sba(i__main__
Token
p424
(dp425
g18
I114
sba(i__main__
Token
p426
(dp427
g18
I115
sba(i__main__
Token
p428
(dp429
g18
I116
sba(i__main__
Token
p430
(dp431
g18
I117
sba(i__main__
Token
p432
(dp433
g18
I118
sba(i__main__
Token
p434
(dp435
g18
I119
sba(i__main__
Token
p436
(dp437
g18
I120
sba(i__main__
Token
p438
(dp439
g18
I121
sba(i__main__
Token
p440
(dp441
g18
I122
sba(i__main__
Token
p442
(dp443
g18
I123
sba(i__main__
Token
p444
(dp445
g18
I124
sba(i__main__
Token
p446
(dp447
g18
I125
sba(i__main__
Token
p448
(dp449
g18
I126
sba(i__main__
Token
p450
(dp451
g18
I127
sba(i__main__
Token
p452
(dp453
g18
I128
sbasg19
I127
sbasg7
g400
sg125
Nsba(i__main__
Chain
p454
(dp455
g3
(lp456
(i__main__
Mention
p457
(dp458
g7
S't6'
p459
sg9
Nsg10
S'i22'
p460
sg12
Nsg13
Nsg14
(lp461
(i__main__
Token
p462
(dp463
g18
I159
sbasg19
I159
sbasg7
g459
sg125
Nsba(i__main__
Chain
p464
(dp465
g3
(lp466
(i__main__
Mention
p467
(dp468
g7
S't7'
p469
sg9
Nsg10
S'i29'
p470
sg12
Nsg13
Nsg14
(lp471
(i__main__
Token
p472
(dp473
g18
I196
sba(i__main__
Token
p474
(dp475
g18
I197
sbasg19
I197
sba(i__main__
Mention
p476
(dp477
g7
S't7'
p478
sg9
S'Anaphora-C'
p479
sg10
S'i33'
p480
sg12
S'i29'
p481
sg13
Nsg14
(lp482
(i__main__
Token
p483
(dp484
g18
I221
sba(i__main__
Token
p485
(dp486
g18
I222
sba(i__main__
Token
p487
(dp488
g18
I223
sbasg19
I223
sba(i__main__
Mention
p489
(dp490
g7
S't7'
p491
sg9
S'Anaphora-C'
p492
sg10
S'i36'
p493
sg12
S'i33'
p494
sg13
Nsg14
(lp495
(i__main__
Token
p496
(dp497
g18
I238
sba(i__main__
Token
p498
(dp499
g18
I239
sbasg19
I239
sbasg7
g469
sg125
Nsba(i__main__
Chain
p500
(dp501
g3
(lp502
(i__main__
Mention
p503
(dp504
g7
S't8'
p505
sg9
Nsg10
S'i47'
p506
sg12
Nsg13
Nsg14
(lp507
(i__main__
Token
p508
(dp509
g18
I331
sba(i__main__
Token
p510
(dp511
g18
I332
sba(i__main__
Token
p512
(dp513
g18
I333
sba(i__main__
Token
p514
(dp515
g18
I334
sba(i__main__
Token
p516
(dp517
g18
I335
sba(i__main__
Token
p518
(dp519
g18
I336
sba(i__main__
Token
p520
(dp521
g18
I337
sba(i__main__
Token
p522
(dp523
g18
I338
sba(i__main__
Token
p524
(dp525
g18
I339
sba(i__main__
Token
p526
(dp527
g18
I340
sba(i__main__
Token
p528
(dp529
g18
I341
sbasg19
I341
sba(i__main__
Mention
p530
(dp531
g7
S't8'
p532
sg9
S'Coreference-Noun-Noun'
p533
sg10
S'i50'
p534
sg12
S'i53'
p535
sg13
Nsg14
(lp536
(i__main__
Token
p537
(dp538
g18
I353
sba(i__main__
Token
p539
(dp540
g18
I354
sba(i__main__
Token
p541
(dp542
g18
I355
sbasg19
I355
sbasg7
g505
sg125
Nsba.