(lp0
(i__main__
Chain
p1
(dp2
S'mentionList'
p3
(lp4
(i__main__
Mention
p5
(dp6
S'chainId'
p7
S't1'
p8
sS'relType'
p9
NsS'mentionId'
p10
S'i1'
p11
sS'antecedentId'
p12
NsS'crefMod'
p13
NsS'tokenList'
p14
(lp15
(i__main__
Token
p16
(dp17
S'tokenId'
p18
I9
sba(i__main__
Token
p19
(dp20
g18
I10
sba(i__main__
Token
p21
(dp22
g18
I11
sbasS'mentionHead'
p23
I11
sba(i__main__
Mention
p24
(dp25
g7
S't1'
p26
sg9
S'Coreference-NounComplement'
p27
sg10
S'i2'
p28
sg12
S'i1'
p29
sg13
Nsg14
(lp30
(i__main__
Token
p31
(dp32
g18
I12
sbasg23
I12
sba(i__main__
Mention
p33
(dp34
g7
S't1'
p35
sg9
S'Coreference-Identity'
p36
sg10
S'i9'
p37
sg12
S'i2'
p38
sg13
Nsg14
(lp39
(i__main__
Token
p40
(dp41
g18
I44
sbasg23
I44
sba(i__main__
Mention
p42
(dp43
g7
S't1'
p44
sg9
S'Coreference-Identity'
p45
sg10
S'i39'
p46
sg12
S'i9'
p47
sg13
Nsg14
(lp48
(i__main__
Token
p49
(dp50
g18
I134
sbasg23
I134
sba(i__main__
Mention
p51
(dp52
g7
S't1'
p53
sg9
S'Coreference-Identity'
p54
sg10
S'i92'
p55
sg12
S'i39'
p56
sg13
Nsg14
(lp57
(i__main__
Token
p58
(dp59
g18
I298
sbasg23
I298
sba(i__main__
Mention
p60
(dp61
g7
S't1'
p62
sg9
S'Coreference-Identity'
p63
sg10
S'i97'
p64
sg12
S'i92'
p65
sg13
Nsg14
(lp66
(i__main__
Token
p67
(dp68
g18
I321
sbasg23
I321
sbasg7
g8
sS'chainHead'
p69
Nsba(i__main__
Chain
p70
(dp71
g3
(lp72
(i__main__
Mention
p73
(dp74
g7
S't2'
p75
sg9
Nsg10
S'i3'
p76
sg12
Nsg13
Nsg14
(lp77
(i__main__
Token
p78
(dp79
g18
I14
sba(i__main__
Token
p80
(dp81
g18
I15
sbasg23
I15
sba(i__main__
Mention
p82
(dp83
g7
S't2'
p84
sg9
S'Coreference-NounComplement'
p85
sg10
S'i4'
p86
sg12
S'i3'
p87
sg13
Nsg14
(lp88
(i__main__
Token
p89
(dp90
g18
I16
sbasg23
I16
sba(i__main__
Mention
p91
(dp92
g7
S't2'
p93
sg9
S'Coreference-Noun-Noun'
p94
sg10
S'i16'
p95
sg12
S'i4'
p96
sg13
Nsg14
(lp97
(i__main__
Token
p98
(dp99
g18
I73
sba(i__main__
Token
p100
(dp101
g18
I74
sbasg23
I74
sba(i__main__
Mention
p102
(dp103
g7
S't2'
p104
sg9
S'Coreference-Noun-Noun'
p105
sg10
S'i25'
p106
sg12
S'i16'
p107
sg13
Nsg14
(lp108
(i__main__
Token
p109
(dp110
g18
I81
sba(i__main__
Token
p111
(dp112
g18
I82
sbasg23
I82
sba(i__main__
Mention
p113
(dp114
g7
S't2'
p115
sg9
S'Coreference-Noun-Noun'
p116
sg10
S'i32'
p117
sg12
S'i71'
p118
sg13
Nsg14
(lp119
(i__main__
Token
p120
(dp121
g18
I108
sbasg23
I108
sba(i__main__
Mention
p122
(dp123
g7
S't2'
p124
sg9
S'Coreference-Noun-Noun'
p125
sg10
S'i40'
p126
sg12
S'i32'
p127
sg13
Nsg14
(lp128
(i__main__
Token
p129
(dp130
g18
I136
sba(i__main__
Token
p131
(dp132
g18
I137
sbasg23
I137
sba(i__main__
Mention
p133
(dp134
g7
S't2'
p135
sg9
S'Coreference-Noun-Noun'
p136
sg10
S'i70'
p137
sg12
S'i40'
p138
sg13
Nsg14
(lp139
(i__main__
Token
p140
(dp141
g18
I222
sbasg23
I222
sba(i__main__
Mention
p142
(dp143
g7
S't2'
p144
sg9
S'Coreference-Noun-Noun'
p145
sg10
S'i86'
p146
sg12
S'i70'
p147
sg13
Nsg14
(lp148
(i__main__
Token
p149
(dp150
g18
I273
sba(i__main__
Token
p151
(dp152
g18
I274
sbasg23
I274
sba(i__main__
Mention
p153
(dp154
g7
S't2'
p155
sg9
S'Anaphora-C'
p156
sg10
S'i88'
p157
sg12
S'i86'
p158
sg13
Nsg14
(lp159
(i__main__
Token
p160
(dp161
g18
I278
sbasg23
I278
sba(i__main__
Mention
p162
(dp163
g7
S't2'
p164
sg9
S'Coreference-Noun-Noun'
p165
sg10
S'i93'
p166
sg12
S'i74'
p167
sg13
Nsg14
(lp168
(i__main__
Token
p169
(dp170
g18
I299
sbasg23
I299
sba(i__main__
Mention
p171
(dp172
g7
S't2'
p173
sg9
S'Coreference-Identity'
p174
sg10
S'i95'
p175
sg12
S'i93'
p176
sg13
Nsg14
(lp177
(i__main__
Token
p178
(dp179
g18
I312
sbasg23
I312
sbasg7
g75
sg69
Nsba(i__main__
Chain
p180
(dp181
g3
(lp182
(i__main__
Mention
p183
(dp184
g7
S't3'
p185
sg9
Nsg10
S'i5'
p186
sg12
Nsg13
Nsg14
(lp187
(i__main__
Token
p188
(dp189
g18
I32
sbasg23
I32
sba(i__main__
Mention
p190
(dp191
g7
S't3'
p192
sg9
S'Anaphora-C'
p193
sg10
S'i31'
p194
sg12
S'i5'
p195
sg13
Nsg14
(lp196
(i__main__
Token
p197
(dp198
g18
I103
sbasg23
I103
sbasg7
g185
sg69
Nsba(i__main__
Chain
p199
(dp200
g3
(lp201
(i__main__
Mention
p202
(dp203
g7
S't4'
p204
sg9
Nsg10
S'i6'
p205
sg12
Nsg13
Nsg14
(lp206
(i__main__
Token
p207
(dp208
g18
I35
sbasg23
I35
sba(i__main__
Mention
p209
(dp210
g7
S't4'
p211
sg9
S'Coreference-NounComplement'
p212
sg10
S'i7'
p213
sg12
S'i6'
p214
sg13
Nsg14
(lp215
(i__main__
Token
p216
(dp217
g18
I36
sba(i__main__
Token
p218
(dp219
g18
I37
sba(i__main__
Token
p220
(dp221
g18
I38
sbasg23
I38
sba(i__main__
Mention
p222
(dp223
g7
S't4'
p224
sg9
S'Anaphora-C'
p225
sg10
S'i10'
p226
sg12
S'i7'
p227
sg13
Nsg14
(lp228
(i__main__
Token
p229
(dp230
g18
I50
sbasg23
I50
sba(i__main__
Mention
p231
(dp232
g7
S't4'
p233
sg9
S'Anaphora-C'
p234
sg10
S'i12'
p235
sg12
S'i10'
p236
sg13
Nsg14
(lp237
(i__main__
Token
p238
(dp239
g18
I53
sbasg23
I53
sbasg7
g204
sg69
Nsba(i__main__
Chain
p240
(dp241
g3
(lp242
(i__main__
Mention
p243
(dp244
g7
S't5'
p245
sg9
Nsg10
S'i8'
p246
sg12
Nsg13
Nsg14
(lp247
(i__main__
Token
p248
(dp249
g18
I40
sba(i__main__
Token
p250
(dp251
g18
I41
sbasg23
I41
sba(i__main__
Mention
p252
(dp253
g7
S't5'
p254
sg9
S'Coreference-Identity'
p255
sg10
S'i71'
p256
sg12
S'i8'
p257
sg13
Nsg14
(lp258
(i__main__
Token
p259
(dp260
g18
I224
sbasg23
I224
sba(i__main__
Mention
p261
(dp262
g7
S't5'
p263
sg9
S'Coreference-Identity'
p264
sg10
S'i77'
p265
sg12
S'i71'
p266
sg13
Nsg14
(lp267
(i__main__
Token
p268
(dp269
g18
I242
sbasg23
I242
sbasg7
g245
sg69
Nsba(i__main__
Chain
p270
(dp271
g3
(lp272
(i__main__
Mention
p273
(dp274
g7
S't6'
p275
sg9
Nsg10
S'i14'
p276
sg12
Nsg13
Nsg14
(lp277
(i__main__
Token
p278
(dp279
g18
I54
sbasg23
I54
sba(i__main__
Mention
p280
(dp281
g7
S't6'
p282
sg9
S'Coreference-Identity'
p283
sg10
S'i51'
p284
sg12
S'i14'
p285
sg13
Nsg14
(lp286
(i__main__
Token
p287
(dp288
g18
I177
sbasg23
I177
sbasg7
g275
sg69
Nsba(i__main__
Chain
p289
(dp290
g3
(lp291
(i__main__
Mention
p292
(dp293
g7
S't7'
p294
sg9
Nsg10
S'i15'
p295
sg12
Nsg13
Nsg14
(lp296
(i__main__
Token
p297
(dp298
g18
I65
sbasg23
I65
sba(i__main__
Mention
p299
(dp300
g7
S't7'
p301
sg9
S'Coreference-Identity'
p302
sg10
S'i80'
p303
sg12
S'i15'
p304
sg13
Nsg14
(lp305
(i__main__
Token
p306
(dp307
g18
I261
sba(i__main__
Token
p308
(dp309
g18
I262
sbasg23
I262
sbasg7
g294
sg69
Nsba(i__main__
Chain
p310
(dp311
g3
(lp312
(i__main__
Mention
p313
(dp314
g7
S't8'
p315
sg9
Nsg10
S'i17'
p316
sg12
Nsg13
Nsg14
(lp317
(i__main__
Token
p318
(dp319
g18
I76
sba(i__main__
Token
p320
(dp321
g18
I77
sba(i__main__
Token
p322
(dp323
g18
I78
sbasg23
Nsba(i__main__
Mention
p324
(dp325
g7
S't8'
p326
sg9
Nsg10
S'i43'
p327
sg12
Nsg13
Nsg14
(lp328
(i__main__
Token
p329
(dp330
g18
I167
sba(i__main__
Token
p331
(dp332
g18
I168
sbasg23
Nsba(i__main__
Mention
p333
(dp334
g7
S't8'
p335
sg9
Nsg10
S'i59'
p336
sg12
Nsg13
Nsg14
(lp337
(i__main__
Token
p338
(dp339
g18
I193
sba(i__main__
Token
p340
(dp341
g18
I194
sbasg23
Nsba(i__main__
Mention
p342
(dp343
g7
S't8'
p344
sg9
S'Coreference-NounComplement'
p345
sg10
S'i69'
p346
sg12
S'i59'
p347
sg13
Nsg14
(lp348
(i__main__
Token
p349
(dp350
g18
I219
sba(i__main__
Token
p351
(dp352
g18
I220
sbasg23
I220
sba(i__main__
Mention
p353
(dp354
g7
S't8'
p355
sg9
Nsg10
S'i98'
p356
sg12
Nsg13
Nsg14
(lp357
(i__main__
Token
p358
(dp359
g18
I327
sba(i__main__
Token
p360
(dp361
g18
I328
sbasg23
Nsba(i__main__
Mention
p362
(dp363
g7
S't8'
p364
sg9
Nsg10
S'i109'
p365
sg12
Nsg13
Nsg14
(lp366
(i__main__
Token
p367
(dp368
g18
I355
sba(i__main__
Token
p369
(dp370
g18
I356
sbasg23
Nsbasg7
g315
sg69
Nsba(i__main__
Chain
p371
(dp372
g3
(lp373
(i__main__
Mention
p374
(dp375
g7
S't9'
p376
sg9
Nsg10
S'i18'
p377
sg12
Nsg13
Nsg14
(lp378
(i__main__
Token
p379
(dp380
g18
I76
sba(i__main__
Token
p381
(dp382
g18
I77
sba(i__main__
Token
p383
(dp384
g18
I78
sbasg23
Nsba(i__main__
Mention
p385
(dp386
g7
S't9'
p387
sg9
Nsg10
S'i44'
p388
sg12
Nsg13
Nsg14
(lp389
(i__main__
Token
p390
(dp391
g18
I167
sba(i__main__
Token
p392
(dp393
g18
I168
sbasg23
Nsba(i__main__
Mention
p394
(dp395
g7
S't9'
p396
sg9
Nsg10
S'i58'
p397
sg12
Nsg13
Nsg14
(lp398
(i__main__
Token
p399
(dp400
g18
I193
sba(i__main__
Token
p401
(dp402
g18
I194
sbasg23
Nsba(i__main__
Mention
p403
(dp404
g7
S't9'
p405
sg9
S'Coreference-Noun-Noun'
p406
sg10
S'i67'
p407
sg12
S'i58'
p408
sg13
Nsg14
(lp409
(i__main__
Token
p410
(dp411
g18
I213
sbasg23
I213
sba(i__main__
Mention
p412
(dp413
g7
S't9'
p414
sg9
S'Coreference-NounComplement'
p415
sg10
S'i68'
p416
sg12
S'i67'
p417
sg13
Nsg14
(lp418
(i__main__
Token
p419
(dp420
g18
I214
sba(i__main__
Token
p421
(dp422
g18
I215
sbasg23
I215
sba(i__main__
Mention
p423
(dp424
g7
S't9'
p425
sg9
S'Coreference-Noun-Noun'
p426
sg10
S'i81'
p427
sg12
S'i39'
p428
sg13
Nsg14
(lp429
(i__main__
Token
p430
(dp431
g18
I265
sbasg23
I265
sba(i__main__
Mention
p432
(dp433
g7
S't9'
p434
sg9
S'Coreference-NounComplement'
p435
sg10
S'i83'
p436
sg12
S'i67'
p437
sg13
Nsg14
(lp438
(i__main__
Token
p439
(dp440
g18
I266
sba(i__main__
Token
p441
(dp442
g18
I267
sbasg23
I267
sba(i__main__
Mention
p443
(dp444
g7
S't9'
p445
sg9
S'Anaphora-C'
p446
sg10
S'i84'
p447
sg12
S'i83'
p448
sg13
Nsg14
(lp449
(i__main__
Token
p450
(dp451
g18
I269
sbasg23
I269
sba(i__main__
Mention
p452
(dp453
g7
S't9'
p454
sg9
Nsg10
S'i99'
p455
sg12
Nsg13
Nsg14
(lp456
(i__main__
Token
p457
(dp458
g18
I327
sba(i__main__
Token
p459
(dp460
g18
I328
sbasg23
Nsba(i__main__
Mention
p461
(dp462
g7
S't9'
p463
sg9
Nsg10
S'i110'
p464
sg12
Nsg13
Nsg14
(lp465
(i__main__
Token
p466
(dp467
g18
I355
sba(i__main__
Token
p468
(dp469
g18
I356
sbasg23
Nsbasg7
g376
sg69
Nsba(i__main__
Chain
p470
(dp471
g3
(lp472
(i__main__
Mention
p473
(dp474
g7
S't10'
p475
sg9
Nsg10
S'i19'
p476
sg12
Nsg13
Nsg14
(lp477
(i__main__
Token
p478
(dp479
g18
I76
sba(i__main__
Token
p480
(dp481
g18
I77
sba(i__main__
Token
p482
(dp483
g18
I78
sbasg23
Nsba(i__main__
Mention
p484
(dp485
g7
S't10'
p486
sg9
Nsg10
S'i45'
p487
sg12
Nsg13
Nsg14
(lp488
(i__main__
Token
p489
(dp490
g18
I167
sba(i__main__
Token
p491
(dp492
g18
I168
sbasg23
Nsba(i__main__
Mention
p493
(dp494
g7
S't10'
p495
sg9
Nsg10
S'i57'
p496
sg12
Nsg13
Nsg14
(lp497
(i__main__
Token
p498
(dp499
g18
I193
sba(i__main__
Token
p500
(dp501
g18
I194
sbasg23
Nsba(i__main__
Mention
p502
(dp503
g7
S't10'
p504
sg9
S'Coreference-PartOf'
p505
sg10
S'i66'
p506
sg12
S'i57'
p507
sg13
Nsg14
(lp508
(i__main__
Token
p509
(dp510
g18
I210
sba(i__main__
Token
p511
(dp512
g18
I211
sbasg23
I211
sba(i__main__
Mention
p513
(dp514
g7
S't10'
p515
sg9
Nsg10
S'i100'
p516
sg12
Nsg13
Nsg14
(lp517
(i__main__
Token
p518
(dp519
g18
I327
sba(i__main__
Token
p520
(dp521
g18
I328
sbasg23
Nsba(i__main__
Mention
p522
(dp523
g7
S't10'
p524
sg9
Nsg10
S'i111'
p525
sg12
Nsg13
Nsg14
(lp526
(i__main__
Token
p527
(dp528
g18
I355
sba(i__main__
Token
p529
(dp530
g18
I356
sbasg23
Nsbasg7
g475
sg69
Nsba(i__main__
Chain
p531
(dp532
g3
(lp533
(i__main__
Mention
p534
(dp535
g7
S't11'
p536
sg9
Nsg10
S'i20'
p537
sg12
Nsg13
Nsg14
(lp538
(i__main__
Token
p539
(dp540
g18
I76
sba(i__main__
Token
p541
(dp542
g18
I77
sba(i__main__
Token
p543
(dp544
g18
I78
sbasg23
Nsba(i__main__
Mention
p545
(dp546
g7
S't11'
p547
sg9
Nsg10
S'i46'
p548
sg12
Nsg13
Nsg14
(lp549
(i__main__
Token
p550
(dp551
g18
I167
sba(i__main__
Token
p552
(dp553
g18
I168
sbasg23
Nsba(i__main__
Mention
p554
(dp555
g7
S't11'
p556
sg9
Nsg10
S'i56'
p557
sg12
Nsg13
Nsg14
(lp558
(i__main__
Token
p559
(dp560
g18
I193
sba(i__main__
Token
p561
(dp562
g18
I194
sbasg23
Nsba(i__main__
Mention
p563
(dp564
g7
S't11'
p565
sg9
S'Coreference-PartOf'
p566
sg10
S'i65'
p567
sg12
S'i56'
p568
sg13
Nsg14
(lp569
(i__main__
Token
p570
(dp571
g18
I207
sba(i__main__
Token
p572
(dp573
g18
I208
sbasg23
I208
sba(i__main__
Mention
p574
(dp575
g7
S't11'
p576
sg9
Nsg10
S'i101'
p577
sg12
Nsg13
Nsg14
(lp578
(i__main__
Token
p579
(dp580
g18
I327
sba(i__main__
Token
p581
(dp582
g18
I328
sbasg23
Nsba(i__main__
Mention
p583
(dp584
g7
S't11'
p585
sg9
Nsg10
S'i112'
p586
sg12
Nsg13
Nsg14
(lp587
(i__main__
Token
p588
(dp589
g18
I355
sba(i__main__
Token
p590
(dp591
g18
I356
sbasg23
Nsbasg7
g536
sg69
Nsba(i__main__
Chain
p592
(dp593
g3
(lp594
(i__main__
Mention
p595
(dp596
g7
S't12'
p597
sg9
Nsg10
S'i21'
p598
sg12
Nsg13
Nsg14
(lp599
(i__main__
Token
p600
(dp601
g18
I76
sba(i__main__
Token
p602
(dp603
g18
I77
sba(i__main__
Token
p604
(dp605
g18
I78
sbasg23
Nsba(i__main__
Mention
p606
(dp607
g7
S't12'
p608
sg9
Nsg10
S'i47'
p609
sg12
Nsg13
Nsg14
(lp610
(i__main__
Token
p611
(dp612
g18
I167
sba(i__main__
Token
p613
(dp614
g18
I168
sbasg23
Nsba(i__main__
Mention
p615
(dp616
g7
S't12'
p617
sg9
Nsg10
S'i55'
p618
sg12
Nsg13
Nsg14
(lp619
(i__main__
Token
p620
(dp621
g18
I193
sba(i__main__
Token
p622
(dp623
g18
I194
sbasg23
Nsba(i__main__
Mention
p624
(dp625
g7
S't12'
p626
sg9
S'Coreference-PartOf'
p627
sg10
S'i64'
p628
sg12
S'i55'
p629
sg13
Nsg14
(lp630
(i__main__
Token
p631
(dp632
g18
I204
sba(i__main__
Token
p633
(dp634
g18
I205
sbasg23
I205
sba(i__main__
Mention
p635
(dp636
g7
S't12'
p637
sg9
Nsg10
S'i102'
p638
sg12
Nsg13
Nsg14
(lp639
(i__main__
Token
p640
(dp641
g18
I327
sba(i__main__
Token
p642
(dp643
g18
I328
sbasg23
Nsba(i__main__
Mention
p644
(dp645
g7
S't12'
p646
sg9
Nsg10
S'i113'
p647
sg12
Nsg13
Nsg14
(lp648
(i__main__
Token
p649
(dp650
g18
I355
sba(i__main__
Token
p651
(dp652
g18
I356
sbasg23
Nsbasg7
g597
sg69
Nsba(i__main__
Chain
p653
(dp654
g3
(lp655
(i__main__
Mention
p656
(dp657
g7
S't13'
p658
sg9
Nsg10
S'i22'
p659
sg12
Nsg13
Nsg14
(lp660
(i__main__
Token
p661
(dp662
g18
I76
sba(i__main__
Token
p663
(dp664
g18
I77
sba(i__main__
Token
p665
(dp666
g18
I78
sbasg23
Nsba(i__main__
Mention
p667
(dp668
g7
S't13'
p669
sg9
Nsg10
S'i48'
p670
sg12
Nsg13
Nsg14
(lp671
(i__main__
Token
p672
(dp673
g18
I167
sba(i__main__
Token
p674
(dp675
g18
I168
sbasg23
Nsba(i__main__
Mention
p676
(dp677
g7
S't13'
p678
sg9
Nsg10
S'i54'
p679
sg12
Nsg13
Nsg14
(lp680
(i__main__
Token
p681
(dp682
g18
I193
sba(i__main__
Token
p683
(dp684
g18
I194
sbasg23
Nsba(i__main__
Mention
p685
(dp686
g7
S't13'
p687
sg9
S'Coreference-PartOf'
p688
sg10
S'i63'
p689
sg12
S'i54'
p690
sg13
Nsg14
(lp691
(i__main__
Token
p692
(dp693
g18
I201
sba(i__main__
Token
p694
(dp695
g18
I202
sbasg23
I202
sba(i__main__
Mention
p696
(dp697
g7
S't13'
p698
sg9
Nsg10
S'i103'
p699
sg12
Nsg13
Nsg14
(lp700
(i__main__
Token
p701
(dp702
g18
I327
sba(i__main__
Token
p703
(dp704
g18
I328
sbasg23
Nsba(i__main__
Mention
p705
(dp706
g7
S't13'
p707
sg9
Nsg10
S'i114'
p708
sg12
Nsg13
Nsg14
(lp709
(i__main__
Token
p710
(dp711
g18
I355
sba(i__main__
Token
p712
(dp713
g18
I356
sbasg23
Nsbasg7
g658
sg69
Nsba(i__main__
Chain
p714
(dp715
g3
(lp716
(i__main__
Mention
p717
(dp718
g7
S't14'
p719
sg9
Nsg10
S'i23'
p720
sg12
Nsg13
Nsg14
(lp721
(i__main__
Token
p722
(dp723
g18
I76
sba(i__main__
Token
p724
(dp725
g18
I77
sba(i__main__
Token
p726
(dp727
g18
I78
sbasg23
Nsba(i__main__
Mention
p728
(dp729
g7
S't14'
p730
sg9
Nsg10
S'i49'
p731
sg12
Nsg13
Nsg14
(lp732
(i__main__
Token
p733
(dp734
g18
I167
sba(i__main__
Token
p735
(dp736
g18
I168
sbasg23
Nsba(i__main__
Mention
p737
(dp738
g7
S't14'
p739
sg9
Nsg10
S'i53'
p740
sg12
Nsg13
Nsg14
(lp741
(i__main__
Token
p742
(dp743
g18
I193
sba(i__main__
Token
p744
(dp745
g18
I194
sbasg23
Nsba(i__main__
Mention
p746
(dp747
g7
S't14'
p748
sg9
S'Coreference-PartOf'
p749
sg10
S'i61'
p750
sg12
S'i53'
p751
sg13
Nsg14
(lp752
(i__main__
Token
p753
(dp754
g18
I197
sbasg23
I197
sba(i__main__
Mention
p755
(dp756
g7
S't14'
p757
sg9
S'Coreference-NounComplement'
p758
sg10
S'i62'
p759
sg12
S'i61'
p760
sg13
Nsg14
(lp761
(i__main__
Token
p762
(dp763
g18
I198
sba(i__main__
Token
p764
(dp765
g18
I199
sbasg23
I199
sba(i__main__
Mention
p766
(dp767
g7
S't14'
p768
sg9
Nsg10
S'i104'
p769
sg12
Nsg13
Nsg14
(lp770
(i__main__
Token
p771
(dp772
g18
I327
sba(i__main__
Token
p773
(dp774
g18
I328
sbasg23
Nsba(i__main__
Mention
p775
(dp776
g7
S't14'
p777
sg9
Nsg10
S'i115'
p778
sg12
Nsg13
Nsg14
(lp779
(i__main__
Token
p780
(dp781
g18
I355
sba(i__main__
Token
p782
(dp783
g18
I356
sbasg23
Nsbasg7
g719
sg69
Nsba(i__main__
Chain
p784
(dp785
g3
(lp786
(i__main__
Mention
p787
(dp788
g7
S't15'
p789
sg9
Nsg10
S'i24'
p790
sg12
Nsg13
Nsg14
(lp791
(i__main__
Token
p792
(dp793
g18
I77
sbasg23
I77
sba(i__main__
Mention
p794
(dp795
g7
S't15'
p796
sg9
S'Coreference-Identity'
p797
sg10
S'i26'
p798
sg12
S'i24'
p799
sg13
Nsg14
(lp800
(i__main__
Token
p801
(dp802
g18
I86
sbasg23
I86
sba(i__main__
Mention
p803
(dp804
g7
S't15'
p805
sg9
S'Coreference-Identity'
p806
sg10
S'i30'
p807
sg12
S'i26'
p808
sg13
Nsg14
(lp809
(i__main__
Token
p810
(dp811
g18
I100
sbasg23
I100
sba(i__main__
Mention
p812
(dp813
g7
S't15'
p814
sg9
S'Coreference-Identity'
p815
sg10
S'i35'
p816
sg12
S'i30'
p817
sg13
Nsg14
(lp818
(i__main__
Token
p819
(dp820
g18
I110
sbasg23
I110
sba(i__main__
Mention
p821
(dp822
g7
S't15'
p823
sg9
S'Coreference-Identity'
p824
sg10
S'i41'
p825
sg12
S'i35'
p826
sg13
Nsg14
(lp827
(i__main__
Token
p828
(dp829
g18
I136
sbasg23
I136
sba(i__main__
Mention
p830
(dp831
g7
S't15'
p832
sg9
S'Coreference-Identity'
p833
sg10
S'i50'
p834
sg12
S'i41'
p835
sg13
Nsg14
(lp836
(i__main__
Token
p837
(dp838
g18
I167
sbasg23
I167
sba(i__main__
Mention
p839
(dp840
g7
S't15'
p841
sg9
S'Coreference-Identity'
p842
sg10
S'i60'
p843
sg12
S'i50'
p844
sg13
Nsg14
(lp845
(i__main__
Token
p846
(dp847
g18
I193
sbasg23
I193
sba(i__main__
Mention
p848
(dp849
g7
S't15'
p850
sg9
S'Coreference-Identity'
p851
sg10
S'i78'
p852
sg12
S'i60'
p853
sg13
Nsg14
(lp854
(i__main__
Token
p855
(dp856
g18
I245
sbasg23
I245
sba(i__main__
Mention
p857
(dp858
g7
S't15'
p859
sg9
S'Coreference-Identity'
p860
sg10
S'i87'
p861
sg12
S'i78'
p862
sg13
Nsg14
(lp863
(i__main__
Token
p864
(dp865
g18
I273
sbasg23
I273
sba(i__main__
Mention
p866
(dp867
g7
S't15'
p868
sg9
S'Coreference-Identity'
p869
sg10
S'i105'
p870
sg12
S'i87'
p871
sg13
Nsg14
(lp872
(i__main__
Token
p873
(dp874
g18
I327
sbasg23
I327
sba(i__main__
Mention
p875
(dp876
g7
S't15'
p877
sg9
S'Coreference-Identity'
p878
sg10
S'i116'
p879
sg12
S'i105'
p880
sg13
Nsg14
(lp881
(i__main__
Token
p882
(dp883
g18
I355
sbasg23
I355
sba(i__main__
Mention
p884
(dp885
g7
S't15'
p886
sg9
S'Coreference-Identity'
p887
sg10
S'i119'
p888
sg12
S'i116'
p889
sg13
Nsg14
(lp890
(i__main__
Token
p891
(dp892
g18
I365
sbasg23
I365
sbasg7
g789
sg69
Nsba(i__main__
Chain
p893
(dp894
g3
(lp895
(i__main__
Mention
p896
(dp897
g7
S't16'
p898
sg9
Nsg10
S'i27'
p899
sg12
Nsg13
Nsg14
(lp900
(i__main__
Token
p901
(dp902
g18
I94
sbasg23
I94
sba(i__main__
Mention
p903
(dp904
g7
S't16'
p905
sg9
S'Coreference-Identity'
p906
sg10
S'i37'
p907
sg12
S'i27'
p908
sg13
Nsg14
(lp909
(i__main__
Token
p910
(dp911
g18
I126
sbasg23
I126
sba(i__main__
Mention
p912
(dp913
g7
S't16'
p914
sg9
S'Coreference-Identity'
p915
sg10
S'i79'
p916
sg12
S'i37'
p917
sg13
Nsg14
(lp918
(i__main__
Token
p919
(dp920
g18
I252
sbasg23
I252
sbasg7
g898
sg69
Nsba(i__main__
Chain
p921
(dp922
g3
(lp923
(i__main__
Mention
p924
(dp925
g7
S't17'
p926
sg9
Nsg10
S'i28'
p927
sg12
Nsg13
Nsg14
(lp928
(i__main__
Token
p929
(dp930
g18
I94
sba(i__main__
Token
p931
(dp932
g18
I95
sbasg23
I95
sba(i__main__
Mention
p933
(dp934
g7
S't17'
p935
sg9
S'Coreference-Identity'
p936
sg10
S'i38'
p937
sg12
S'i28'
p938
sg13
Nsg14
(lp939
(i__main__
Token
p940
(dp941
g18
I126
sba(i__main__
Token
p942
(dp943
g18
I127
sbasg23
I127
sbasg7
g926
sg69
Nsba(i__main__
Chain
p944
(dp945
g3
(lp946
(i__main__
Mention
p947
(dp948
g7
S't18'
p949
sg9
S'anaphora-?'
p950
sg10
S'i29'
p951
sg12
S'i29'
p952
sg13
Nsg14
(lp953
(i__main__
Token
p954
(dp955
g18
I98
sbasg23
I98
sbasg7
g949
sg69
Nsba(i__main__
Chain
p956
(dp957
g3
(lp958
(i__main__
Mention
p959
(dp960
g7
S't19'
p961
sg9
Nsg10
S'i34'
p962
sg12
Nsg13
Nsg14
(lp963
(i__main__
Token
p964
(dp965
g18
I109
sba(i__main__
Token
p966
(dp967
g18
I110
sba(i__main__
Token
p968
(dp969
g18
I111
sbasg23
I111
sba(i__main__
Mention
p970
(dp971
g7
S't19'
p972
sg9
S'Coreference-Abbreviation'
p973
sg10
S'i36'
p974
sg12
S'i34'
p975
sg13
Nsg14
(lp976
(i__main__
Token
p977
(dp978
g18
I113
sbasg23
I113
sba(i__main__
Mention
p979
(dp980
g7
S't19'
p981
sg9
S'Coreference-Identity'
p982
sg10
S'i106'
p983
sg12
S'i36'
p984
sg13
Nsg14
(lp985
(i__main__
Token
p986
(dp987
g18
I333
sbasg23
I333
sba(i__main__
Mention
p988
(dp989
g7
S't19'
p990
sg9
S'Coreference-Identity'
p991
sg10
S'i117'
p992
sg12
S'i106'
p993
sg13
Nsg14
(lp994
(i__main__
Token
p995
(dp996
g18
I358
sbasg23
I358
sbasg7
g961
sg69
Nsba(i__main__
Chain
p997
(dp998
g3
(lp999
(i__main__
Mention
p1000
(dp1001
g7
S't20'
p1002
sg9
Nsg10
S'i42'
p1003
sg12
Nsg13
Nsg14
(lp1004
(i__main__
Token
p1005
(dp1006
g18
I161
sba(i__main__
Token
p1007
(dp1008
g18
I162
sbasg23
I162
sba(i__main__
Mention
p1009
(dp1010
g7
S't20'
p1011
sg9
S'Coreference-Identity'
p1012
sg10
S'i52'
p1013
sg12
S'i42'
p1014
sg13
Nsg14
(lp1015
(i__main__
Token
p1016
(dp1017
g18
I188
sba(i__main__
Token
p1018
(dp1019
g18
I189
sbasg23
I189
sbasg7
g1002
sg69
Nsba(i__main__
Chain
p1020
(dp1021
g3
(lp1022
(i__main__
Mention
p1023
(dp1024
g7
S't21'
p1025
sg9
Nsg10
S'i72'
p1026
sg12
Nsg13
Nsg14
(lp1027
(i__main__
Token
p1028
(dp1029
g18
I227
sba(i__main__
Token
p1030
(dp1031
g18
I228
sbasg23
I228
sba(i__main__
Mention
p1032
(dp1033
g7
S't21'
p1034
sg9
S'Coreference-NounComplement'
p1035
sg10
S'i73'
p1036
sg12
S'i72'
p1037
sg13
Nsg14
(lp1038
(i__main__
Token
p1039
(dp1040
g18
I229
sba(i__main__
Token
p1041
(dp1042
g18
I230
sbasg23
I230
sba(i__main__
Mention
p1043
(dp1044
g7
S't21'
p1045
sg9
S'Anaphora-C'
p1046
sg10
S'i75'
p1047
sg12
S'i73'
p1048
sg13
Nsg14
(lp1049
(i__main__
Token
p1050
(dp1051
g18
I235
sbasg23
I235
sbasg7
g1025
sg69
Nsba(i__main__
Chain
p1052
(dp1053
g3
(lp1054
(i__main__
Mention
p1055
(dp1056
g7
S't22'
p1057
sg9
S'anaphora-?'
p1058
sg10
S'i74'
p1059
sg12
S'i74'
p1060
sg13
Nsg14
(lp1061
(i__main__
Token
p1062
(dp1063
g18
I234
sbasg23
I234
sbasg7
g1057
sg69
Nsba(i__main__
Chain
p1064
(dp1065
g3
(lp1066
(i__main__
Mention
p1067
(dp1068
g7
S't23'
p1069
sg9
Nsg10
S'i90'
p1070
sg12
Nsg13
Nsg14
(lp1071
(i__main__
Token
p1072
(dp1073
g18
I292
sbasg23
I292
sba(i__main__
Mention
p1074
(dp1075
g7
S't23'
p1076
sg9
S'Coreference-NounComplement'
p1077
sg10
S'i91'
p1078
sg12
S'i90'
p1079
sg13
Nsg14
(lp1080
(i__main__
Token
p1081
(dp1082
g18
I293
sba(i__main__
Token
p1083
(dp1084
g18
I294
sbasg23
I294
sba(i__main__
Mention
p1085
(dp1086
g7
S't23'
p1087
sg9
S'Anaphora-C'
p1088
sg10
S'i94'
p1089
sg12
S'i91'
p1090
sg13
Nsg14
(lp1091
(i__main__
Token
p1092
(dp1093
g18
I309
sbasg23
I309
sbasg7
g1069
sg69
Nsba(i__main__
Chain
p1094
(dp1095
g3
(lp1096
(i__main__
Mention
p1097
(dp1098
g7
S't24'
p1099
sg9
S'anaphora-?'
p1100
sg10
S'i96'
p1101
sg12
S'i96'
p1102
sg13
Nsg14
(lp1103
(i__main__
Token
p1104
(dp1105
g18
I314
sbasg23
I314
sbasg7
g1099
sg69
Nsba(i__main__
Chain
p1106
(dp1107
g3
(lp1108
(i__main__
Mention
p1109
(dp1110
g7
S't25'
p1111
sg9
S'anaphora-?'
p1112
sg10
S'i107'
p1113
sg12
S'i107'
p1114
sg13
Nsg14
(lp1115
(i__main__
Token
p1116
(dp1117
g18
I342
sbasg23
I342
sbasg7
g1111
sg69
Nsba(i__main__
Chain
p1118
(dp1119
g3
(lp1120
(i__main__
Mention
p1121
(dp1122
g7
S't26'
p1123
sg9
S'anaphora-?'
p1124
sg10
S'i108'
p1125
sg12
S'i108'
p1126
sg13
Nsg14
(lp1127
(i__main__
Token
p1128
(dp1129
g18
I348
sbasg23
I348
sbasg7
g1123
sg69
Nsba(i__main__
Chain
p1130
(dp1131
g3
(lp1132
(i__main__
Mention
p1133
(dp1134
g7
S't27'
p1135
sg9
Nsg10
S'i118'
p1136
sg12
Nsg13
Nsg14
(lp1137
(i__main__
Token
p1138
(dp1139
g18
I363
sba(i__main__
Token
p1140
(dp1141
g18
I364
sba(i__main__
Token
p1142
(dp1143
g18
I365
sba(i__main__
Token
p1144
(dp1145
g18
I366
sbasg23
I366
sba(i__main__
Mention
p1146
(dp1147
g7
S't27'
p1148
sg9
S'Coreference-NounComplement'
p1149
sg10
S'i120'
p1150
sg12
S'i75'
p1151
sg13
Nsg14
(lp1152
(i__main__
Token
p1153
(dp1154
g18
I367
sbasg23
I367
sbasg7
g1135
sg69
Nsba.