(lp0
(i__main__
Chain
p1
(dp2
S'mentionList'
p3
(lp4
(i__main__
Mention
p5
(dp6
S'chainId'
p7
S't1'
p8
sS'relType'
p9
NsS'mentionId'
p10
S'i1'
p11
sS'antecedentId'
p12
NsS'crefMod'
p13
NsS'tokenList'
p14
(lp15
(i__main__
Token
p16
(dp17
S'tokenId'
p18
I12
sbasS'mentionHead'
p19
I12
sba(i__main__
Mention
p20
(dp21
g7
S't1'
p22
sg9
S'Coreference-Identity'
p23
sg10
S'i67'
p24
sg12
S'i1'
p25
sg13
Nsg14
(lp26
(i__main__
Token
p27
(dp28
g18
I318
sbasg19
I318
sbasg7
g8
sS'chainHead'
p29
Nsba(i__main__
Chain
p30
(dp31
g3
(lp32
(i__main__
Mention
p33
(dp34
g7
S't2'
p35
sg9
Nsg10
S'i2'
p36
sg12
Nsg13
Nsg14
(lp37
(i__main__
Token
p38
(dp39
g18
I14
sbasg19
I14
sba(i__main__
Mention
p40
(dp41
g7
S't2'
p42
sg9
S'Coreference-Identity'
p43
sg10
S'i50'
p44
sg12
S'i2'
p45
sg13
Nsg14
(lp46
(i__main__
Token
p47
(dp48
g18
I227
sbasg19
I227
sbasg7
g35
sg29
Nsba(i__main__
Chain
p49
(dp50
g3
(lp51
(i__main__
Mention
p52
(dp53
g7
S't3'
p54
sg9
Nsg10
S'i3'
p55
sg12
Nsg13
Nsg14
(lp56
(i__main__
Token
p57
(dp58
g18
I18
sba(i__main__
Token
p59
(dp60
g18
I19
sba(i__main__
Token
p61
(dp62
g18
I20
sba(i__main__
Token
p63
(dp64
g18
I21
sbasg19
I21
sba(i__main__
Mention
p65
(dp66
g7
S't3'
p67
sg9
S'Anaphora-C'
p68
sg10
S'i6'
p69
sg12
S'i3'
p70
sg13
Nsg14
(lp71
(i__main__
Token
p72
(dp73
g18
I30
sbasg19
I30
sba(i__main__
Mention
p74
(dp75
g7
S't3'
p76
sg9
S'Anaphora-C'
p77
sg10
S'i13'
p78
sg12
S'i6'
p79
sg13
Nsg14
(lp80
(i__main__
Token
p81
(dp82
g18
I63
sbasg19
I63
sba(i__main__
Mention
p83
(dp84
g7
S't3'
p85
sg9
S'Coreference-Identity'
p86
sg10
S'i16'
p87
sg12
S'i13'
p88
sg13
Nsg14
(lp89
(i__main__
Token
p90
(dp91
g18
I78
sbasg19
I78
sba(i__main__
Mention
p92
(dp93
g7
S't3'
p94
sg9
S'Anaphora-C'
p95
sg10
S'i18'
p96
sg12
S'i16'
p97
sg13
Nsg14
(lp98
(i__main__
Token
p99
(dp100
g18
I93
sbasg19
I93
sba(i__main__
Mention
p101
(dp102
g7
S't3'
p103
sg9
Nsg10
S'i23'
p104
sg12
Nsg13
Nsg14
(lp105
(i__main__
Token
p106
(dp107
g18
I116
sbasg19
Nsba(i__main__
Mention
p108
(dp109
g7
S't3'
p110
sg9
S'Coreference-Identity'
p111
sg10
S'i28'
p112
sg12
S'i23'
p113
sg13
Nsg14
(lp114
(i__main__
Token
p115
(dp116
g18
I153
sba(i__main__
Token
p117
(dp118
g18
I154
sbasg19
I154
sba(i__main__
Mention
p119
(dp120
g7
S't3'
p121
sg9
S'Anaphora-C'
p122
sg10
S'i45'
p123
sg12
S'i28'
p124
sg13
Nsg14
(lp125
(i__main__
Token
p126
(dp127
g18
I210
sbasg19
I210
sba(i__main__
Mention
p128
(dp129
g7
S't3'
p130
sg9
S'Coreference-InferedRelation'
p131
sg10
S'i48'
p132
sg12
S'i45'
p133
sg13
Nsg14
(lp134
(i__main__
Token
p135
(dp136
g18
I218
sba(i__main__
Token
p137
(dp138
g18
I219
sbasg19
I219
sba(i__main__
Mention
p139
(dp140
g7
S't3'
p141
sg9
S'Coreference-Identity'
p142
sg10
S'i51'
p143
sg12
S'i48'
p144
sg13
Nsg14
(lp145
(i__main__
Token
p146
(dp147
g18
I232
sba(i__main__
Token
p148
(dp149
g18
I233
sba(i__main__
Token
p150
(dp151
g18
I234
sba(i__main__
Token
p152
(dp153
g18
I235
sbasg19
I235
sba(i__main__
Mention
p154
(dp155
g7
S't3'
p156
sg9
Nsg10
S'i52'
p157
sg12
Nsg13
Nsg14
(lp158
(i__main__
Token
p159
(dp160
g18
I244
sbasg19
Nsba(i__main__
Mention
p161
(dp162
g7
S't3'
p163
sg9
Nsg10
S'i53'
p164
sg12
Nsg13
Nsg14
(lp165
(i__main__
Token
p166
(dp167
g18
I244
sbasg19
Nsba(i__main__
Mention
p168
(dp169
g7
S't3'
p170
sg9
S'Coreference-InferedRelation'
p171
sg10
S'i58'
p172
sg12
S'i53'
p173
sg13
Nsg14
(lp174
(i__main__
Token
p175
(dp176
g18
I282
sba(i__main__
Token
p177
(dp178
g18
I283
sba(i__main__
Token
p179
(dp180
g18
I284
sbasg19
I284
sba(i__main__
Mention
p181
(dp182
g7
S't3'
p183
sg9
S'Coreference-Identity'
p184
sg10
S'i71'
p185
sg12
S'i58'
p186
sg13
Nsg14
(lp187
(i__main__
Token
p188
(dp189
g18
I337
sba(i__main__
Token
p190
(dp191
g18
I338
sbasg19
I338
sbasg7
g54
sg29
Nsba(i__main__
Chain
p192
(dp193
g3
(lp194
(i__main__
Mention
p195
(dp196
g7
S't4'
p197
sg9
Nsg10
S'i4'
p198
sg12
Nsg13
Nsg14
(lp199
(i__main__
Token
p200
(dp201
g18
I29
sbasg19
I29
sba(i__main__
Mention
p202
(dp203
g7
S't4'
p204
sg9
S'Anaphora-RT'
p205
sg10
S'i5'
p206
sg12
S'i4'
p207
sg13
Nsg14
(lp208
(i__main__
Token
p209
(dp210
g18
I30
sba(i__main__
Token
p211
(dp212
g18
I31
sba(i__main__
Token
p213
(dp214
g18
I32
sba(i__main__
Token
p215
(dp216
g18
I33
sba(i__main__
Token
p217
(dp218
g18
I34
sba(i__main__
Token
p219
(dp220
g18
I35
sba(i__main__
Token
p221
(dp222
g18
I36
sba(i__main__
Token
p223
(dp224
g18
I37
sba(i__main__
Token
p225
(dp226
g18
I38
sba(i__main__
Token
p227
(dp228
g18
I39
sba(i__main__
Token
p229
(dp230
g18
I40
sba(i__main__
Token
p231
(dp232
g18
I41
sba(i__main__
Token
p233
(dp234
g18
I42
sba(i__main__
Token
p235
(dp236
g18
I43
sbasg19
I43
sbasg7
g197
sg29
Nsba(i__main__
Chain
p237
(dp238
g3
(lp239
(i__main__
Mention
p240
(dp241
g7
S't5'
p242
sg9
Nsg10
S'i7'
p243
sg12
Nsg13
Nsg14
(lp244
(i__main__
Token
p245
(dp246
g18
I33
sbasg19
I33
sba(i__main__
Mention
p247
(dp248
g7
S't5'
p249
sg9
S'Coreference-Identity'
p250
sg10
S'i10'
p251
sg12
S'i7'
p252
sg13
Nsg14
(lp253
(i__main__
Token
p254
(dp255
g18
I45
sbasg19
I45
sba(i__main__
Mention
p256
(dp257
g7
S't5'
p258
sg9
S'Coreference-InferedRelation'
p259
sg10
S'i14'
p260
sg12
S'i10'
p261
sg13
Nsg14
(lp262
(i__main__
Token
p263
(dp264
g18
I65
sba(i__main__
Token
p265
(dp266
g18
I66
sbasg19
I66
sba(i__main__
Mention
p267
(dp268
g7
S't5'
p269
sg9
S'Coreference-Identity'
p270
sg10
S'i26'
p271
sg12
S'i14'
p272
sg13
Nsg14
(lp273
(i__main__
Token
p274
(dp275
g18
I144
sbasg19
I144
sbasg7
g242
sg29
Nsba(i__main__
Chain
p276
(dp277
g3
(lp278
(i__main__
Mention
p279
(dp280
g7
S't6'
p281
sg9
Nsg10
S'i8'
p282
sg12
Nsg13
Nsg14
(lp283
(i__main__
Token
p284
(dp285
g18
I37
sbasg19
I37
sba(i__main__
Mention
p286
(dp287
g7
S't6'
p288
sg9
S'Coreference-NounComplement'
p289
sg10
S'i9'
p290
sg12
S'i8'
p291
sg13
Nsg14
(lp292
(i__main__
Token
p293
(dp294
g18
I38
sba(i__main__
Token
p295
(dp296
g18
I39
sbasg19
I39
sba(i__main__
Mention
p297
(dp298
g7
S't6'
p299
sg9
S'Coreference-Identity'
p300
sg10
S'i11'
p301
sg12
S'i9'
p302
sg13
Nsg14
(lp303
(i__main__
Token
p304
(dp305
g18
I51
sbasg19
I51
sba(i__main__
Mention
p306
(dp307
g7
S't6'
p308
sg9
S'Anaphora-C'
p309
sg10
S'i12'
p310
sg12
S'i11'
p311
sg13
Nsg14
(lp312
(i__main__
Token
p313
(dp314
g18
I62
sbasg19
I62
sba(i__main__
Mention
p315
(dp316
g7
S't6'
p317
sg9
S'Coreference-Identity'
p318
sg10
S'i15'
p319
sg12
S'i12'
p320
sg13
Nsg14
(lp321
(i__main__
Token
p322
(dp323
g18
I77
sbasg19
I77
sba(i__main__
Mention
p324
(dp325
g7
S't6'
p326
sg9
S'Coreference-Identity'
p327
sg10
S'i17'
p328
sg12
S'i15'
p329
sg13
Nsg14
(lp330
(i__main__
Token
p331
(dp332
g18
I90
sbasg19
I90
sba(i__main__
Mention
p333
(dp334
g7
S't6'
p335
sg9
S'Coreference-Noun-Noun'
p336
sg10
S'i21'
p337
sg12
S'i17'
p338
sg13
Nsg14
(lp339
(i__main__
Token
p340
(dp341
g18
I111
sbasg19
I111
sba(i__main__
Mention
p342
(dp343
g7
S't6'
p344
sg9
S'Coreference-Noun-Noun'
p345
sg10
S'i24'
p346
sg12
S'i21'
p347
sg13
Nsg14
(lp348
(i__main__
Token
p349
(dp350
g18
I136
sba(i__main__
Token
p351
(dp352
g18
I137
sbasg19
I137
sba(i__main__
Mention
p353
(dp354
g7
S't6'
p355
sg9
S'Coreference-Noun-Noun'
p356
sg10
S'i37'
p357
sg12
S'i24'
p358
sg13
Nsg14
(lp359
(i__main__
Token
p360
(dp361
g18
I186
sba(i__main__
Token
p362
(dp363
g18
I187
sbasg19
I187
sba(i__main__
Mention
p364
(dp365
g7
S't6'
p366
sg9
S'Anaphora-C'
p367
sg10
S'i39'
p368
sg12
S'i37'
p369
sg13
Nsg14
(lp370
(i__main__
Token
p371
(dp372
g18
I199
sbasg19
I199
sba(i__main__
Mention
p373
(dp374
g7
S't6'
p375
sg9
S'Coreference-Identity'
p376
sg10
S'i47'
p377
sg12
S'i39'
p378
sg13
Nsg14
(lp379
(i__main__
Token
p380
(dp381
g18
I215
sbasg19
I215
sbasg7
g281
sg29
Nsba(i__main__
Chain
p382
(dp383
g3
(lp384
(i__main__
Mention
p385
(dp386
g7
S't7'
p387
sg9
Nsg10
S'i19'
p388
sg12
Nsg13
Nsg14
(lp389
(i__main__
Token
p390
(dp391
g18
I94
sba(i__main__
Token
p392
(dp393
g18
I95
sba(i__main__
Token
p394
(dp395
g18
I96
sba(i__main__
Token
p396
(dp397
g18
I97
sba(i__main__
Token
p398
(dp399
g18
I98
sba(i__main__
Token
p400
(dp401
g18
I99
sbasg19
I98
sba(i__main__
Mention
p402
(dp403
g7
S't7'
p404
sg9
S'Anaphora-E'
p405
sg10
S'i20'
p406
sg12
S'i19'
p407
sg13
Nsg14
(lp408
(i__main__
Token
p409
(dp410
g18
I101
sbasg19
I101
sbasg7
g387
sg29
Nsba(i__main__
Chain
p411
(dp412
g3
(lp413
(i__main__
Mention
p414
(dp415
g7
S't8'
p416
sg9
Nsg10
S'i22'
p417
sg12
Nsg13
Nsg14
(lp418
(i__main__
Token
p419
(dp420
g18
I116
sbasg19
Nsbasg7
g416
sg29
Nsba(i__main__
Chain
p421
(dp422
g3
(lp423
(i__main__
Mention
p424
(dp425
g7
S't9'
p426
sg9
Nsg10
S'i25'
p427
sg12
Nsg13
Nsg14
(lp428
(i__main__
Token
p429
(dp430
g18
I143
sbasg19
I143
sbasg7
g426
sg29
Nsba(i__main__
Chain
p431
(dp432
g3
(lp433
(i__main__
Mention
p434
(dp435
g7
S't10'
p436
sg9
Nsg10
S'i27'
p437
sg12
Nsg13
Nsg14
(lp438
(i__main__
Token
p439
(dp440
g18
I147
sbasg19
I147
sbasg7
g436
sg29
Nsba(i__main__
Chain
p441
(dp442
g3
(lp443
(i__main__
Mention
p444
(dp445
g7
S't11'
p446
sg9
Nsg10
S'i29'
p447
sg12
Nsg13
Nsg14
(lp448
(i__main__
Token
p449
(dp450
g18
I156
sba(i__main__
Token
p451
(dp452
g18
I157
sbasg19
I157
sba(i__main__
Mention
p453
(dp454
g7
S't11'
p455
sg9
S'Coreference-Identity'
p456
sg10
S'i33'
p457
sg12
S'i29'
p458
sg13
Nsg14
(lp459
(i__main__
Token
p460
(dp461
g18
I171
sbasg19
I171
sbasg7
g446
sg29
Nsba(i__main__
Chain
p462
(dp463
g3
(lp464
(i__main__
Mention
p465
(dp466
g7
S't12'
p467
sg9
Nsg10
S'i30'
p468
sg12
Nsg13
Nsg14
(lp469
(i__main__
Token
p470
(dp471
g18
I159
sba(i__main__
Token
p472
(dp473
g18
I160
sbasg19
I160
sba(i__main__
Mention
p474
(dp475
g7
S't12'
p476
sg9
S'Coreference-NounComplement'
p477
sg10
S'i31'
p478
sg12
S'i30'
p479
sg13
Nsg14
(lp480
(i__main__
Token
p481
(dp482
g18
I161
sbasg19
I161
sba(i__main__
Mention
p483
(dp484
g7
S't12'
p485
sg9
S'Anaphora-C'
p486
sg10
S'i34'
p487
sg12
S'i31'
p488
sg13
Nsg14
(lp489
(i__main__
Token
p490
(dp491
g18
I173
sbasg19
I173
sba(i__main__
Mention
p492
(dp493
g7
S't12'
p494
sg9
S'Coreference-Noun-Noun'
p495
sg10
S'i36'
p496
sg12
S'i34'
p497
sg13
Nsg14
(lp498
(i__main__
Token
p499
(dp500
g18
I183
sba(i__main__
Token
p501
(dp502
g18
I184
sbasg19
I184
sba(i__main__
Mention
p503
(dp504
g7
S't12'
p505
sg9
S'Coreference-Identity'
p506
sg10
S'i38'
p507
sg12
S'i36'
p508
sg13
Nsg14
(lp509
(i__main__
Token
p510
(dp511
g18
I196
sba(i__main__
Token
p512
(dp513
g18
I197
sbasg19
I197
sba(i__main__
Mention
p514
(dp515
g7
S't12'
p516
sg9
S'Coreference-Noun-Noun'
p517
sg10
S'i42'
p518
sg12
S'i38'
p519
sg13
Nsg14
(lp520
(i__main__
Token
p521
(dp522
g18
I207
sbasg19
I207
sbasg7
g467
sg29
Nsba(i__main__
Chain
p523
(dp524
g3
(lp525
(i__main__
Mention
p526
(dp527
g7
S't13'
p528
sg9
Nsg10
S'i32'
p529
sg12
Nsg13
Nsg14
(lp530
(i__main__
Token
p531
(dp532
g18
I164
sbasg19
I164
sba(i__main__
Mention
p533
(dp534
g7
S't13'
p535
sg9
S'Coreference-Identity'
p536
sg10
S'i44'
p537
sg12
S'i32'
p538
sg13
Nsg14
(lp539
(i__main__
Token
p540
(dp541
g18
I209
sbasg19
I209
sbasg7
g528
sg29
Nsba(i__main__
Chain
p542
(dp543
g3
(lp544
(i__main__
Mention
p545
(dp546
g7
S't14'
p547
sg9
Nsg10
S'i35'
p548
sg12
Nsg13
Nsg14
(lp549
(i__main__
Token
p550
(dp551
g18
I174
sbasg19
I174
sbasg7
g547
sg29
Nsba(i__main__
Chain
p552
(dp553
g3
(lp554
(i__main__
Mention
p555
(dp556
g7
S't15'
p557
sg9
Nsg10
S'i40'
p558
sg12
Nsg13
Nsg14
(lp559
(i__main__
Token
p560
(dp561
g18
I200
sbasg19
I200
sba(i__main__
Mention
p562
(dp563
g7
S't15'
p564
sg9
S'Coreference-NounComplement'
p565
sg10
S'i41'
p566
sg12
S'i40'
p567
sg13
Nsg14
(lp568
(i__main__
Token
p569
(dp570
g18
I201
sba(i__main__
Token
p571
(dp572
g18
I202
sbasg19
I202
sbasg7
g557
sg29
Nsba(i__main__
Chain
p573
(dp574
g3
(lp575
(i__main__
Mention
p576
(dp577
g7
S't16'
p578
sg9
Nsg10
S'i43'
p579
sg12
Nsg13
Nsg14
(lp580
(i__main__
Token
p581
(dp582
g18
I207
sba(i__main__
Token
p583
(dp584
g18
I208
sba(i__main__
Token
p585
(dp586
g18
I209
sba(i__main__
Token
p587
(dp588
g18
I210
sba(i__main__
Token
p589
(dp590
g18
I211
sba(i__main__
Token
p591
(dp592
g18
I212
sba(i__main__
Token
p593
(dp594
g18
I213
sbasg19
I212
sba(i__main__
Mention
p595
(dp596
g7
S't16'
p597
sg9
S'Anaphora-C'
p598
sg10
S'i46'
p599
sg12
S'i43'
p600
sg13
Nsg14
(lp601
(i__main__
Token
p602
(dp603
g18
I214
sbasg19
I214
sbasg7
g578
sg29
Nsba(i__main__
Chain
p604
(dp605
g3
(lp606
(i__main__
Mention
p607
(dp608
g7
S't17'
p609
sg9
Nsg10
S'i49'
p610
sg12
Nsg13
Nsg14
(lp611
(i__main__
Token
p612
(dp613
g18
I225
sbasg19
I225
sbasg7
g609
sg29
Nsba(i__main__
Chain
p614
(dp615
g3
(lp616
(i__main__
Mention
p617
(dp618
g7
S't18'
p619
sg9
Nsg10
S'i54'
p620
sg12
Nsg13
Nsg14
(lp621
(i__main__
Token
p622
(dp623
g18
I250
sbasg19
I250
sba(i__main__
Mention
p624
(dp625
g7
S't18'
p626
sg9
S'Anaphora-C'
p627
sg10
S'i55'
p628
sg12
S'i54'
p629
sg13
Nsg14
(lp630
(i__main__
Token
p631
(dp632
g18
I259
sbasg19
I259
sbasg7
g619
sg29
Nsba(i__main__
Chain
p633
(dp634
g3
(lp635
(i__main__
Mention
p636
(dp637
g7
S't19'
p638
sg9
Nsg10
S'i56'
p639
sg12
Nsg13
Nsg14
(lp640
(i__main__
Token
p641
(dp642
g18
I260
sbasg19
I260
sbasg7
g638
sg29
Nsba(i__main__
Chain
p643
(dp644
g3
(lp645
(i__main__
Mention
p646
(dp647
g7
S't20'
p648
sg9
Nsg10
S'i57'
p649
sg12
Nsg13
Nsg14
(lp650
(i__main__
Token
p651
(dp652
g18
I280
sbasg19
I280
sba(i__main__
Mention
p653
(dp654
g7
S't20'
p655
sg9
S'Anaphora-C'
p656
sg10
S'i59'
p657
sg12
S'i57'
p658
sg13
Nsg14
(lp659
(i__main__
Token
p660
(dp661
g18
I286
sbasg19
I286
sba(i__main__
Mention
p662
(dp663
g7
S't20'
p664
sg9
S'Anaphora-C'
p665
sg10
S'i62'
p666
sg12
S'i59'
p667
sg13
Nsg14
(lp668
(i__main__
Token
p669
(dp670
g18
I302
sbasg19
I302
sba(i__main__
Mention
p671
(dp672
g7
S't20'
p673
sg9
S'Coreference-Identity'
p674
sg10
S'i66'
p675
sg12
S'i62'
p676
sg13
Nsg14
(lp677
(i__main__
Token
p678
(dp679
g18
I316
sbasg19
I316
sba(i__main__
Mention
p680
(dp681
g7
S't20'
p682
sg9
S'Anaphora-C'
p683
sg10
S'i68'
p684
sg12
S'i66'
p685
sg13
Nsg14
(lp686
(i__main__
Token
p687
(dp688
g18
I329
sbasg19
I329
sba(i__main__
Mention
p689
(dp690
g7
S't20'
p691
sg9
S'Anaphora-C'
p692
sg10
S'i69'
p693
sg12
S'i68'
p694
sg13
Nsg14
(lp695
(i__main__
Token
p696
(dp697
g18
I333
sbasg19
I333
sba(i__main__
Mention
p698
(dp699
g7
S't20'
p700
sg9
S'Anaphora-C'
p701
sg10
S'i72'
p702
sg12
S'i69'
p703
sg13
Nsg14
(lp704
(i__main__
Token
p705
(dp706
g18
I345
sbasg19
I345
sba(i__main__
Mention
p707
(dp708
g7
S't20'
p709
sg9
S'Anaphora-C'
p710
sg10
S'i73'
p711
sg12
S'i72'
p712
sg13
Nsg14
(lp713
(i__main__
Token
p714
(dp715
g18
I347
sbasg19
I347
sba(i__main__
Mention
p716
(dp717
g7
S't20'
p718
sg9
S'Coreference-Identity'
p719
sg10
S'i76'
p720
sg12
S'i73'
p721
sg13
Nsg14
(lp722
(i__main__
Token
p723
(dp724
g18
I356
sbasg19
I356
sba(i__main__
Mention
p725
(dp726
g7
S't20'
p727
sg9
S'Anaphora-C'
p728
sg10
S'i77'
p729
sg12
S'i76'
p730
sg13
Nsg14
(lp731
(i__main__
Token
p732
(dp733
g18
I360
sbasg19
I360
sbasg7
g648
sg29
Nsba(i__main__
Chain
p734
(dp735
g3
(lp736
(i__main__
Mention
p737
(dp738
g7
S't21'
p739
sg9
Nsg10
S'i60'
p740
sg12
Nsg13
Nsg14
(lp741
(i__main__
Token
p742
(dp743
g18
I287
sba(i__main__
Token
p744
(dp745
g18
I288
sbasg19
I288
sba(i__main__
Mention
p746
(dp747
g7
S't21'
p748
sg9
S'Coreference-NounComplement'
p749
sg10
S'i61'
p750
sg12
S'i60'
p751
sg13
Nsg14
(lp752
(i__main__
Token
p753
(dp754
g18
I289
sba(i__main__
Token
p755
(dp756
g18
I290
sba(i__main__
Token
p757
(dp758
g18
I291
sbasg19
I291
sba(i__main__
Mention
p759
(dp760
g7
S't21'
p761
sg9
S'Coreference-Noun-Noun'
p762
sg10
S'i63'
p763
sg12
S'i61'
p764
sg13
Nsg14
(lp765
(i__main__
Token
p766
(dp767
g18
I303
sba(i__main__
Token
p768
(dp769
g18
I304
sbasg19
I304
sba(i__main__
Mention
p770
(dp771
g7
S't21'
p772
sg9
S'Coreference-Identity'
p773
sg10
S'i70'
p774
sg12
S'i63'
p775
sg13
Nsg14
(lp776
(i__main__
Token
p777
(dp778
g18
I334
sba(i__main__
Token
p779
(dp780
g18
I335
sbasg19
I335
sba(i__main__
Mention
p781
(dp782
g7
S't21'
p783
sg9
S'Coreference-Identity'
p784
sg10
S'i75'
p785
sg12
S'i70'
p786
sg13
Nsg14
(lp787
(i__main__
Token
p788
(dp789
g18
I350
sba(i__main__
Token
p790
(dp791
g18
I351
sbasg19
I351
sba(i__main__
Mention
p792
(dp793
g7
S't21'
p794
sg9
S'Coreference-Identity'
p795
sg10
S'i78'
p796
sg12
S'i75'
p797
sg13
Nsg14
(lp798
(i__main__
Token
p799
(dp800
g18
I361
sba(i__main__
Token
p801
(dp802
g18
I362
sbasg19
I362
sbasg7
g739
sg29
Nsba(i__main__
Chain
p803
(dp804
g3
(lp805
(i__main__
Mention
p806
(dp807
g7
S't22'
p808
sg9
Nsg10
S'i64'
p809
sg12
Nsg13
Nsg14
(lp810
(i__main__
Token
p811
(dp812
g18
I308
sbasg19
I308
sba(i__main__
Mention
p813
(dp814
g7
S't22'
p815
sg9
S'Coreference-NounComplement'
p816
sg10
S'i65'
p817
sg12
S'i64'
p818
sg13
Nsg14
(lp819
(i__main__
Token
p820
(dp821
g18
I309
sba(i__main__
Token
p822
(dp823
g18
I310
sbasg19
I310
sba(i__main__
Mention
p824
(dp825
g7
S't22'
p826
sg9
S'Coreference-Noun-Noun'
p827
sg10
S'i74'
p828
sg12
S'i65'
p829
sg13
Nsg14
(lp830
(i__main__
Token
p831
(dp832
g18
I348
sbasg19
I348
sbasg7
g808
sg29
Nsba.