(lp0
(i__main__
Chain
p1
(dp2
S'mentionList'
p3
(lp4
(i__main__
Mention
p5
(dp6
S'chainId'
p7
S't1'
p8
sS'relType'
p9
NsS'mentionId'
p10
S'i1'
p11
sS'antecedentId'
p12
NsS'crefMod'
p13
NsS'tokenList'
p14
(lp15
(i__main__
Token
p16
(dp17
S'tokenId'
p18
I4
sbasS'mentionHead'
p19
I4
sba(i__main__
Mention
p20
(dp21
g7
S't1'
p22
sg9
S'Coreference-NounComplement'
p23
sg10
S'i2'
p24
sg12
S'i1'
p25
sg13
Nsg14
(lp26
(i__main__
Token
p27
(dp28
g18
I5
sba(i__main__
Token
p29
(dp30
g18
I6
sbasg19
I6
sba(i__main__
Mention
p31
(dp32
g7
S't1'
p33
sg9
S'Anaphora-C'
p34
sg10
S'i6'
p35
sg12
S'i2'
p36
sg13
Nsg14
(lp37
(i__main__
Token
p38
(dp39
g18
I22
sbasg19
I22
sba(i__main__
Mention
p40
(dp41
g7
S't1'
p42
sg9
S'Coreference-Noun-Noun'
p43
sg10
S'i10'
p44
sg12
S'i6'
p45
sg13
Nsg14
(lp46
(i__main__
Token
p47
(dp48
g18
I33
sbasg19
I33
sba(i__main__
Mention
p49
(dp50
g7
S't1'
p51
sg9
S'Coreference-Noun-Noun'
p52
sg10
S'i19'
p53
sg12
S'i10'
p54
sg13
Nsg14
(lp55
(i__main__
Token
p56
(dp57
g18
I73
sbasg19
I73
sba(i__main__
Mention
p58
(dp59
g7
S't1'
p60
sg9
S'Anaphora-C'
p61
sg10
S'i20'
p62
sg12
S'i19'
p63
sg13
Nsg14
(lp64
(i__main__
Token
p65
(dp66
g18
I82
sbasg19
I82
sba(i__main__
Mention
p67
(dp68
g7
S't1'
p69
sg9
S'Coreference-Identity'
p70
sg10
S'i26'
p71
sg12
S'i20'
p72
sg13
Nsg14
(lp73
(i__main__
Token
p74
(dp75
g18
I137
sbasg19
I137
sba(i__main__
Mention
p76
(dp77
g7
S't1'
p78
sg9
S'Coreference-Identity'
p79
sg10
S'i33'
p80
sg12
S'i26'
p81
sg13
Nsg14
(lp82
(i__main__
Token
p83
(dp84
g18
I180
sbasg19
I180
sba(i__main__
Mention
p85
(dp86
g7
S't1'
p87
sg9
S'Coreference-Identity'
p88
sg10
S'i39'
p89
sg12
S'i33'
p90
sg13
Nsg14
(lp91
(i__main__
Token
p92
(dp93
g18
I220
sbasg19
I220
sba(i__main__
Mention
p94
(dp95
g7
S't1'
p96
sg9
S'Coreference-Noun-Noun'
p97
sg10
S'i41'
p98
sg12
S'i39'
p99
sg13
Nsg14
(lp100
(i__main__
Token
p101
(dp102
g18
I236
sbasg19
I236
sba(i__main__
Mention
p103
(dp104
g7
S't1'
p105
sg9
S'Coreference-Noun-Noun'
p106
sg10
S'i47'
p107
sg12
S'i41'
p108
sg13
Nsg14
(lp109
(i__main__
Token
p110
(dp111
g18
I274
sbasg19
I274
sba(i__main__
Mention
p112
(dp113
g7
S't1'
p114
sg9
S'Coreference-Noun-Noun'
p115
sg10
S'i60'
p116
sg12
S'i47'
p117
sg13
Nsg14
(lp118
(i__main__
Token
p119
(dp120
g18
I319
sba(i__main__
Token
p121
(dp122
g18
I320
sbasg19
I320
sba(i__main__
Mention
p123
(dp124
g7
S't1'
p125
sg9
S'Coreference-Noun-Noun'
p126
sg10
S'i63'
p127
sg12
S'i60'
p128
sg13
Nsg14
(lp129
(i__main__
Token
p130
(dp131
g18
I336
sbasg19
I336
sba(i__main__
Mention
p132
(dp133
g7
S't1'
p134
sg9
S'Anaphora-C'
p135
sg10
S'i65'
p136
sg12
S'i63'
p137
sg13
Nsg14
(lp138
(i__main__
Token
p139
(dp140
g18
I344
sbasg19
I344
sba(i__main__
Mention
p141
(dp142
g7
S't1'
p143
sg9
Nsg10
S'i66'
p144
sg12
Nsg13
Nsg14
(lp145
(i__main__
Token
p146
(dp147
g18
I352
sbasg19
Nsba(i__main__
Mention
p148
(dp149
g7
S't1'
p150
sg9
Nsg10
S'i67'
p151
sg12
Nsg13
Nsg14
(lp152
(i__main__
Token
p153
(dp154
g18
I352
sbasg19
Nsba(i__main__
Mention
p155
(dp156
g7
S't1'
p157
sg9
S'Anaphora-C'
p158
sg10
S'i69'
p159
sg12
S'i67'
p160
sg13
Nsg14
(lp161
(i__main__
Token
p162
(dp163
g18
I361
sbasg19
I361
sba(i__main__
Mention
p164
(dp165
g7
S't1'
p166
sg9
S'Coreference-Identity'
p167
sg10
S'i70'
p168
sg12
S'i69'
p169
sg13
Nsg14
(lp170
(i__main__
Token
p171
(dp172
g18
I368
sbasg19
I368
sba(i__main__
Mention
p173
(dp174
g7
S't1'
p175
sg9
S'Anaphora-C'
p176
sg10
S'i74'
p177
sg12
S'i70'
p178
sg13
Nsg14
(lp179
(i__main__
Token
p180
(dp181
g18
I380
sbasg19
I380
sba(i__main__
Mention
p182
(dp183
g7
S't1'
p184
sg9
S'Anaphora-C'
p185
sg10
S'i76'
p186
sg12
S'i74'
p187
sg13
Nsg14
(lp188
(i__main__
Token
p189
(dp190
g18
I394
sbasg19
I394
sba(i__main__
Mention
p191
(dp192
g7
S't1'
p193
sg9
S'Coreference-Identity'
p194
sg10
S'i78'
p195
sg12
S'i76'
p196
sg13
Nsg14
(lp197
(i__main__
Token
p198
(dp199
g18
I407
sbasg19
I407
sba(i__main__
Mention
p200
(dp201
g7
S't1'
p202
sg9
S'Anaphora-C'
p203
sg10
S'i79'
p204
sg12
S'i78'
p205
sg13
Nsg14
(lp206
(i__main__
Token
p207
(dp208
g18
I409
sbasg19
I409
sba(i__main__
Mention
p209
(dp210
g7
S't1'
p211
sg9
S'Anaphora-C'
p212
sg10
S'i81'
p213
sg12
S'i79'
p214
sg13
Nsg14
(lp215
(i__main__
Token
p216
(dp217
g18
I416
sbasg19
I416
sba(i__main__
Mention
p218
(dp219
g7
S't1'
p220
sg9
S'Anaphora-C'
p221
sg10
S'i83'
p222
sg12
S'i81'
p223
sg13
Nsg14
(lp224
(i__main__
Token
p225
(dp226
g18
I419
sbasg19
I419
sba(i__main__
Mention
p227
(dp228
g7
S't1'
p229
sg9
S'Anaphora-C'
p230
sg10
S'i86'
p231
sg12
S'i83'
p232
sg13
Nsg14
(lp233
(i__main__
Token
p234
(dp235
g18
I439
sbasg19
I439
sba(i__main__
Mention
p236
(dp237
g7
S't1'
p238
sg9
S'Coreference-Identity'
p239
sg10
S'i87'
p240
sg12
S'i86'
p241
sg13
Nsg14
(lp242
(i__main__
Token
p243
(dp244
g18
I445
sbasg19
I445
sba(i__main__
Mention
p245
(dp246
g7
S't1'
p247
sg9
S'Coreference-Identity'
p248
sg10
S'i89'
p249
sg12
S'i87'
p250
sg13
Nsg14
(lp251
(i__main__
Token
p252
(dp253
g18
I454
sbasg19
I454
sba(i__main__
Mention
p254
(dp255
g7
S't1'
p256
sg9
S'Coreference-Noun-Noun'
p257
sg10
S'i91'
p258
sg12
S'i89'
p259
sg13
Nsg14
(lp260
(i__main__
Token
p261
(dp262
g18
I464
sbasg19
I464
sba(i__main__
Mention
p263
(dp264
g7
S't1'
p265
sg9
S'Anaphora-C'
p266
sg10
S'i94'
p267
sg12
S'i91'
p268
sg13
Nsg14
(lp269
(i__main__
Token
p270
(dp271
g18
I472
sbasg19
I472
sba(i__main__
Mention
p272
(dp273
g7
S't1'
p274
sg9
S'Anaphora-C'
p275
sg10
S'i96'
p276
sg12
S'i94'
p277
sg13
Nsg14
(lp278
(i__main__
Token
p279
(dp280
g18
I478
sbasg19
I478
sba(i__main__
Mention
p281
(dp282
g7
S't1'
p283
sg9
S'Coreference-Noun-Noun'
p284
sg10
S'i98'
p285
sg12
S'i96'
p286
sg13
Nsg14
(lp287
(i__main__
Token
p288
(dp289
g18
I496
sbasg19
I496
sba(i__main__
Mention
p290
(dp291
g7
S't1'
p292
sg9
S'Coreference-Identity'
p293
sg10
S'i101'
p294
sg12
S'i98'
p295
sg13
Nsg14
(lp296
(i__main__
Token
p297
(dp298
g18
I532
sbasg19
I532
sba(i__main__
Mention
p299
(dp300
g7
S't1'
p301
sg9
S'Anaphora-C'
p302
sg10
S'i106'
p303
sg12
S'i101'
p304
sg13
Nsg14
(lp305
(i__main__
Token
p306
(dp307
g18
I546
sbasg19
I546
sba(i__main__
Mention
p308
(dp309
g7
S't1'
p310
sg9
S'Coreference-Identity'
p311
sg10
S'i112'
p312
sg12
S'i106'
p313
sg13
Nsg14
(lp314
(i__main__
Token
p315
(dp316
g18
I578
sbasg19
I578
sba(i__main__
Mention
p317
(dp318
g7
S't1'
p319
sg9
S'Anaphora-C'
p320
sg10
S'i113'
p321
sg12
S'i112'
p322
sg13
Nsg14
(lp323
(i__main__
Token
p324
(dp325
g18
I585
sbasg19
I585
sbasg7
g8
sS'chainHead'
p326
Nsba(i__main__
Chain
p327
(dp328
g3
(lp329
(i__main__
Mention
p330
(dp331
g7
S't2'
p332
sg9
Nsg10
S'i3'
p333
sg12
Nsg13
Nsg14
(lp334
(i__main__
Token
p335
(dp336
g18
I8
sbasg19
I8
sba(i__main__
Mention
p337
(dp338
g7
S't2'
p339
sg9
S'Coreference-Identity'
p340
sg10
S'i5'
p341
sg12
S'i3'
p342
sg13
Nsg14
(lp343
(i__main__
Token
p344
(dp345
g18
I19
sba(i__main__
Token
p346
(dp347
g18
I20
sbasg19
I20
sba(i__main__
Mention
p348
(dp349
g7
S't2'
p350
sg9
S'Coreference-Identity'
p351
sg10
S'i21'
p352
sg12
S'i5'
p353
sg13
Nsg14
(lp354
(i__main__
Token
p355
(dp356
g18
I94
sba(i__main__
Token
p357
(dp358
g18
I95
sbasg19
I95
sba(i__main__
Mention
p359
(dp360
g7
S't2'
p361
sg9
S'Coreference-Identity'
p362
sg10
S'i30'
p363
sg12
S'i21'
p364
sg13
Nsg14
(lp365
(i__main__
Token
p366
(dp367
g18
I173
sba(i__main__
Token
p368
(dp369
g18
I174
sbasg19
I174
sba(i__main__
Mention
p370
(dp371
g7
S't2'
p372
sg9
S'Coreference-Identity'
p373
sg10
S'i40'
p374
sg12
S'i30'
p375
sg13
Nsg14
(lp376
(i__main__
Token
p377
(dp378
g18
I229
sbasg19
I229
sba(i__main__
Mention
p379
(dp380
g7
S't2'
p381
sg9
S'Coreference-Identity'
p382
sg10
S'i42'
p383
sg12
S'i40'
p384
sg13
Nsg14
(lp385
(i__main__
Token
p386
(dp387
g18
I252
sba(i__main__
Token
p388
(dp389
g18
I253
sbasg19
I253
sbasg7
g332
sg326
Nsba(i__main__
Chain
p390
(dp391
g3
(lp392
(i__main__
Mention
p393
(dp394
g7
S't3'
p395
sg9
Nsg10
S'i4'
p396
sg12
Nsg13
Nsg14
(lp397
(i__main__
Token
p398
(dp399
g18
I12
sbasg19
I12
sbasg7
g395
sg326
Nsba(i__main__
Chain
p400
(dp401
g3
(lp402
(i__main__
Mention
p403
(dp404
g7
S't4'
p405
sg9
Nsg10
S'i7'
p406
sg12
Nsg13
Nsg14
(lp407
(i__main__
Token
p408
(dp409
g18
I23
sba(i__main__
Token
p410
(dp411
g18
I24
sbasg19
I24
sba(i__main__
Mention
p412
(dp413
g7
S't4'
p414
sg9
S'Coreference-Identity'
p415
sg10
S'i38'
p416
sg12
S'i7'
p417
sg13
Nsg14
(lp418
(i__main__
Token
p419
(dp420
g18
I200
sba(i__main__
Token
p421
(dp422
g18
I201
sbasg19
I201
sbasg7
g405
sg326
Nsba(i__main__
Chain
p423
(dp424
g3
(lp425
(i__main__
Mention
p426
(dp427
g7
S't5'
p428
sg9
Nsg10
S'i8'
p429
sg12
Nsg13
Nsg14
(lp430
(i__main__
Token
p431
(dp432
g18
I31
sba(i__main__
Token
p433
(dp434
g18
I32
sbasg19
I32
sba(i__main__
Mention
p435
(dp436
g7
S't5'
p437
sg9
S'Coreference-Identity'
p438
sg10
S'i16'
p439
sg12
S'i8'
p440
sg13
Nsg14
(lp441
(i__main__
Token
p442
(dp443
g18
I55
sbasg19
I55
sba(i__main__
Mention
p444
(dp445
g7
S't5'
p446
sg9
S'Coreference-Noun-Noun'
p447
sg10
S'i24'
p448
sg12
S'i16'
p449
sg13
Nsg14
(lp450
(i__main__
Token
p451
(dp452
g18
I103
sbasg19
I103
sba(i__main__
Mention
p453
(dp454
g7
S't5'
p455
sg9
S'Coreference-Noun-Noun'
p456
sg10
S'i28'
p457
sg12
S'i24'
p458
sg13
Nsg14
(lp459
(i__main__
Token
p460
(dp461
g18
I147
sba(i__main__
Token
p462
(dp463
g18
I148
sbasg19
I148
sba(i__main__
Mention
p464
(dp465
g7
S't5'
p466
sg9
S'Coreference-Identity'
p467
sg10
S'i43'
p468
sg12
S'i28'
p469
sg13
Nsg14
(lp470
(i__main__
Token
p471
(dp472
g18
I260
sba(i__main__
Token
p473
(dp474
g18
I261
sbasg19
I261
sba(i__main__
Mention
p475
(dp476
g7
S't5'
p477
sg9
S'Coreference-Identity'
p478
sg10
S'i62'
p479
sg12
S'i43'
p480
sg13
Nsg14
(lp481
(i__main__
Token
p482
(dp483
g18
I333
sbasg19
I333
sba(i__main__
Mention
p484
(dp485
g7
S't5'
p486
sg9
S'Coreference-Identity'
p487
sg10
S'i73'
p488
sg12
S'i62'
p489
sg13
Nsg14
(lp490
(i__main__
Token
p491
(dp492
g18
I378
sbasg19
I378
sba(i__main__
Mention
p493
(dp494
g7
S't5'
p495
sg9
S'Coreference-Identity'
p496
sg10
S'i75'
p497
sg12
S'i73'
p498
sg13
Nsg14
(lp499
(i__main__
Token
p500
(dp501
g18
I392
sbasg19
I392
sba(i__main__
Mention
p502
(dp503
g7
S't5'
p504
sg9
S'Coreference-Identity'
p505
sg10
S'i97'
p506
sg12
S'i75'
p507
sg13
Nsg14
(lp508
(i__main__
Token
p509
(dp510
g18
I491
sbasg19
I491
sbasg7
g428
sg326
Nsba(i__main__
Chain
p511
(dp512
g3
(lp513
(i__main__
Mention
p514
(dp515
g7
S't6'
p516
sg9
Nsg10
S'i9'
p517
sg12
Nsg13
Nsg14
(lp518
(i__main__
Token
p519
(dp520
g18
I31
sbasg19
I31
sba(i__main__
Mention
p521
(dp522
g7
S't6'
p523
sg9
S'Coreference-Identity'
p524
sg10
S'i22'
p525
sg12
S'i9'
p526
sg13
Nsg14
(lp527
(i__main__
Token
p528
(dp529
g18
I97
sbasg19
I97
sba(i__main__
Mention
p530
(dp531
g7
S't6'
p532
sg9
S'Coreference-Identity'
p533
sg10
S'i27'
p534
sg12
S'i22'
p535
sg13
Nsg14
(lp536
(i__main__
Token
p537
(dp538
g18
I143
sbasg19
I143
sba(i__main__
Mention
p539
(dp540
g7
S't6'
p541
sg9
S'Coreference-Identity'
p542
sg10
S'i29'
p543
sg12
S'i27'
p544
sg13
Nsg14
(lp545
(i__main__
Token
p546
(dp547
g18
I147
sbasg19
I147
sba(i__main__
Mention
p548
(dp549
g7
S't6'
p550
sg9
S'Coreference-Identity'
p551
sg10
S'i44'
p552
sg12
S'i29'
p553
sg13
Nsg14
(lp554
(i__main__
Token
p555
(dp556
g18
I260
sbasg19
I260
sbasg7
g516
sg326
Nsba(i__main__
Chain
p557
(dp558
g3
(lp559
(i__main__
Mention
p560
(dp561
g7
S't7'
p562
sg9
Nsg10
S'i11'
p563
sg12
Nsg13
Nsg14
(lp564
(i__main__
Token
p565
(dp566
g18
I35
sba(i__main__
Token
p567
(dp568
g18
I36
sbasg19
I36
sba(i__main__
Mention
p569
(dp570
g7
S't7'
p571
sg9
S'Coreference-Identity'
p572
sg10
S'i48'
p573
sg12
S'i11'
p574
sg13
Nsg14
(lp575
(i__main__
Token
p576
(dp577
g18
I276
sba(i__main__
Token
p578
(dp579
g18
I277
sbasg19
I277
sba(i__main__
Mention
p580
(dp581
g7
S't7'
p582
sg9
S'Coreference-Identity'
p583
sg10
S'i61'
p584
sg12
S'i48'
p585
sg13
Nsg14
(lp586
(i__main__
Token
p587
(dp588
g18
I325
sbasg19
I325
sba(i__main__
Mention
p589
(dp590
g7
S't7'
p591
sg9
S'Coreference-Identity'
p592
sg10
S'i68'
p593
sg12
S'i61'
p594
sg13
Nsg14
(lp595
(i__main__
Token
p596
(dp597
g18
I356
sbasg19
I356
sba(i__main__
Mention
p598
(dp599
g7
S't7'
p600
sg9
S'Coreference-Identity'
p601
sg10
S'i92'
p602
sg12
S'i68'
p603
sg13
Nsg14
(lp604
(i__main__
Token
p605
(dp606
g18
I466
sba(i__main__
Token
p607
(dp608
g18
I467
sbasg19
I467
sba(i__main__
Mention
p609
(dp610
g7
S't7'
p611
sg9
S'Coreference-Identity'
p612
sg10
S'i102'
p613
sg12
S'i92'
p614
sg13
Nsg14
(lp615
(i__main__
Token
p616
(dp617
g18
I537
sbasg19
I537
sba(i__main__
Mention
p618
(dp619
g7
S't7'
p620
sg9
S'Coreference-Identity'
p621
sg10
S'i110'
p622
sg12
S'i102'
p623
sg13
Nsg14
(lp624
(i__main__
Token
p625
(dp626
g18
I575
sba(i__main__
Token
p627
(dp628
g18
I576
sbasg19
I576
sbasg7
g562
sg326
Nsba(i__main__
Chain
p629
(dp630
g3
(lp631
(i__main__
Mention
p632
(dp633
g7
S't8'
p634
sg9
Nsg10
S'i12'
p635
sg12
Nsg13
Nsg14
(lp636
(i__main__
Token
p637
(dp638
g18
I35
sbasg19
I35
sba(i__main__
Mention
p639
(dp640
g7
S't8'
p641
sg9
S'Coreference-Identity'
p642
sg10
S'i14'
p643
sg12
S'i12'
p644
sg13
Nsg14
(lp645
(i__main__
Token
p646
(dp647
g18
I49
sba(i__main__
Token
p648
(dp649
g18
I50
sbasg19
I50
sba(i__main__
Mention
p650
(dp651
g7
S't8'
p652
sg9
S'Coreference-Identity'
p653
sg10
S'i49'
p654
sg12
S'i14'
p655
sg13
Nsg14
(lp656
(i__main__
Token
p657
(dp658
g18
I276
sbasg19
I276
sba(i__main__
Mention
p659
(dp660
g7
S't8'
p661
sg9
S'Coreference-Identity'
p662
sg10
S'i50'
p663
sg12
S'i49'
p664
sg13
Nsg14
(lp665
(i__main__
Token
p666
(dp667
g18
I282
sbasg19
I282
sba(i__main__
Mention
p668
(dp669
g7
S't8'
p670
sg9
S'Coreference-Identity'
p671
sg10
S'i59'
p672
sg12
S'i50'
p673
sg13
Nsg14
(lp674
(i__main__
Token
p675
(dp676
g18
I318
sbasg19
I318
sba(i__main__
Mention
p677
(dp678
g7
S't8'
p679
sg9
S'Coreference-Identity'
p680
sg10
S'i93'
p681
sg12
S'i59'
p682
sg13
Nsg14
(lp683
(i__main__
Token
p684
(dp685
g18
I466
sbasg19
I466
sba(i__main__
Mention
p686
(dp687
g7
S't8'
p688
sg9
S'Coreference-Identity'
p689
sg10
S'i111'
p690
sg12
S'i93'
p691
sg13
Nsg14
(lp692
(i__main__
Token
p693
(dp694
g18
I575
sbasg19
I575
sbasg7
g634
sg326
Nsba(i__main__
Chain
p695
(dp696
g3
(lp697
(i__main__
Mention
p698
(dp699
g7
S't9'
p700
sg9
Nsg10
S'i13'
p701
sg12
Nsg13
Nsg14
(lp702
(i__main__
Token
p703
(dp704
g18
I35
sba(i__main__
Token
p705
(dp706
g18
I36
sba(i__main__
Token
p707
(dp708
g18
I37
sba(i__main__
Token
p709
(dp710
g18
I38
sba(i__main__
Token
p711
(dp712
g18
I39
sba(i__main__
Token
p713
(dp714
g18
I40
sbasg19
I40
sba(i__main__
Mention
p715
(dp716
g7
S't9'
p717
sg9
S'Coreference-Identity'
p718
sg10
S'i15'
p719
sg12
S'i13'
p720
sg13
Nsg14
(lp721
(i__main__
Token
p722
(dp723
g18
I52
sba(i__main__
Token
p724
(dp725
g18
I53
sbasg19
I53
sba(i__main__
Mention
p726
(dp727
g7
S't9'
p728
sg9
S'Coreference-Identity'
p729
sg10
S'i51'
p730
sg12
S'i15'
p731
sg13
Nsg14
(lp732
(i__main__
Token
p733
(dp734
g18
I284
sbasg19
I284
sba(i__main__
Mention
p735
(dp736
g7
S't9'
p737
sg9
S'Anaphora-C'
p738
sg10
S'i58'
p739
sg12
S'i51'
p740
sg13
Nsg14
(lp741
(i__main__
Token
p742
(dp743
g18
I313
sbasg19
I313
sbasg7
g700
sg326
Nsba(i__main__
Chain
p744
(dp745
g3
(lp746
(i__main__
Mention
p747
(dp748
g7
S't10'
p749
sg9
Nsg10
S'i17'
p750
sg12
Nsg13
Nsg14
(lp751
(i__main__
Token
p752
(dp753
g18
I63
sba(i__main__
Token
p754
(dp755
g18
I64
sbasg19
I64
sba(i__main__
Mention
p756
(dp757
g7
S't10'
p758
sg9
S'Coreference-NounComplement'
p759
sg10
S'i18'
p760
sg12
S'i17'
p761
sg13
Nsg14
(lp762
(i__main__
Token
p763
(dp764
g18
I65
sba(i__main__
Token
p765
(dp766
g18
I66
sbasg19
I66
sba(i__main__
Mention
p767
(dp768
g7
S't10'
p769
sg9
S'Coreference-Identity'
p770
sg10
S'i100'
p771
sg12
S'i18'
p772
sg13
Nsg14
(lp773
(i__main__
Token
p774
(dp775
g18
I511
sbasg19
I511
sba(i__main__
Mention
p776
(dp777
g7
S't10'
p778
sg9
S'Coreference-Identity'
p779
sg10
S'i107'
p780
sg12
S'i100'
p781
sg13
Nsg14
(lp782
(i__main__
Token
p783
(dp784
g18
I556
sbasg19
I556
sbasg7
g749
sg326
Nsba(i__main__
Chain
p785
(dp786
g3
(lp787
(i__main__
Mention
p788
(dp789
g7
S't11'
p790
sg9
Nsg10
S'i23'
p791
sg12
Nsg13
Nsg14
(lp792
(i__main__
Token
p793
(dp794
g18
I97
sba(i__main__
Token
p795
(dp796
g18
I98
sba(i__main__
Token
p797
(dp798
g18
I99
sba(i__main__
Token
p799
(dp800
g18
I100
sba(i__main__
Token
p801
(dp802
g18
I101
sbasg19
I101
sba(i__main__
Mention
p803
(dp804
g7
S't11'
p805
sg9
S'Coreference-Identity'
p806
sg10
S'i25'
p807
sg12
S'i23'
p808
sg13
Nsg14
(lp809
(i__main__
Token
p810
(dp811
g18
I127
sbasg19
I127
sba(i__main__
Mention
p812
(dp813
g7
S't11'
p814
sg9
S'Coreference-Noun-Noun'
p815
sg10
S'i45'
p816
sg12
S'i55'
p817
sg13
Nsg14
(lp818
(i__main__
Token
p819
(dp820
g18
I268
sba(i__main__
Token
p821
(dp822
g18
I269
sba(i__main__
Token
p823
(dp824
g18
I270
sba(i__main__
Token
p825
(dp826
g18
I271
sba(i__main__
Token
p827
(dp828
g18
I272
sbasg19
I272
sba(i__main__
Mention
p829
(dp830
g7
S't11'
p831
sg9
S'Anaphora-C'
p832
sg10
S'i52'
p833
sg12
S'i45'
p834
sg13
Nsg14
(lp835
(i__main__
Token
p836
(dp837
g18
I290
sbasg19
I290
sba(i__main__
Mention
p838
(dp839
g7
S't11'
p840
sg9
S'Anaphora-C'
p841
sg10
S'i55'
p842
sg12
S'i52'
p843
sg13
Nsg14
(lp844
(i__main__
Token
p845
(dp846
g18
I303
sbasg19
I303
sba(i__main__
Mention
p847
(dp848
g7
S't11'
p849
sg9
S'Anaphora-C'
p850
sg10
S'i56'
p851
sg12
S'i55'
p852
sg13
Nsg14
(lp853
(i__main__
Token
p854
(dp855
g18
I309
sbasg19
I309
sba(i__main__
Mention
p856
(dp857
g7
S't11'
p858
sg9
S'Coreference-Noun-Noun'
p859
sg10
S'i77'
p860
sg12
S'i56'
p861
sg13
Nsg14
(lp862
(i__main__
Token
p863
(dp864
g18
I405
sbasg19
I405
sba(i__main__
Mention
p865
(dp866
g7
S't11'
p867
sg9
S'Coreference-Identity'
p868
sg10
S'i85'
p869
sg12
S'i77'
p870
sg13
Nsg14
(lp871
(i__main__
Token
p872
(dp873
g18
I429
sbasg19
I429
sba(i__main__
Mention
p874
(dp875
g7
S't11'
p876
sg9
S'Coreference-Identity'
p877
sg10
S'i117'
p878
sg12
S'i85'
p879
sg13
Nsg14
(lp880
(i__main__
Token
p881
(dp882
g18
I613
sbasg19
I613
sbasg7
g790
sg326
Nsba(i__main__
Chain
p883
(dp884
g3
(lp885
(i__main__
Mention
p886
(dp887
g7
S't12'
p888
sg9
Nsg10
S'i31'
p889
sg12
Nsg13
Nsg14
(lp890
(i__main__
Token
p891
(dp892
g18
I176
sbasg19
I176
sba(i__main__
Mention
p893
(dp894
g7
S't12'
p895
sg9
S'Coreference-NounComplement'
p896
sg10
S'i32'
p897
sg12
S'i31'
p898
sg13
Nsg14
(lp899
(i__main__
Token
p900
(dp901
g18
I177
sba(i__main__
Token
p902
(dp903
g18
I178
sbasg19
I178
sbasg7
g888
sg326
Nsba(i__main__
Chain
p904
(dp905
g3
(lp906
(i__main__
Mention
p907
(dp908
g7
S't13'
p909
sg9
Nsg10
S'i34'
p910
sg12
Nsg13
Nsg14
(lp911
(i__main__
Token
p912
(dp913
g18
I182
sbasg19
I182
sba(i__main__
Mention
p914
(dp915
g7
S't13'
p916
sg9
S'Coreference-NounComplement'
p917
sg10
S'i35'
p918
sg12
S'i34'
p919
sg13
Nsg14
(lp920
(i__main__
Token
p921
(dp922
g18
I183
sba(i__main__
Token
p923
(dp924
g18
I184
sbasg19
I184
sba(i__main__
Mention
p925
(dp926
g7
S't13'
p927
sg9
S'Coreference-Noun-Noun'
p928
sg10
S'i90'
p929
sg12
S'i35'
p930
sg13
Nsg14
(lp931
(i__main__
Token
p932
(dp933
g18
I456
sbasg19
I456
sba(i__main__
Mention
p934
(dp935
g7
S't13'
p936
sg9
S'Coreference-Identity'
p937
sg10
S'i95'
p938
sg12
S'i90'
p939
sg13
Nsg14
(lp940
(i__main__
Token
p941
(dp942
g18
I473
sbasg19
I473
sbasg7
g909
sg326
Nsba(i__main__
Chain
p943
(dp944
g3
(lp945
(i__main__
Mention
p946
(dp947
g7
S't14'
p948
sg9
Nsg10
S'i36'
p949
sg12
Nsg13
Nsg14
(lp950
(i__main__
Token
p951
(dp952
g18
I189
sbasg19
I189
sba(i__main__
Mention
p953
(dp954
g7
S't14'
p955
sg9
S'Coreference-NounComplement'
p956
sg10
S'i37'
p957
sg12
S'i36'
p958
sg13
Nsg14
(lp959
(i__main__
Token
p960
(dp961
g18
I190
sba(i__main__
Token
p962
(dp963
g18
I191
sba(i__main__
Token
p964
(dp965
g18
I192
sba(i__main__
Token
p966
(dp967
g18
I193
sbasg19
I193
sba(i__main__
Mention
p968
(dp969
g7
S't14'
p970
sg9
S'Anaphora-C'
p971
sg10
S'i118'
p972
sg12
S'i37'
p973
sg13
Nsg14
(lp974
(i__main__
Token
p975
(dp976
g18
I614
sbasg19
I614
sbasg7
g948
sg326
Nsba(i__main__
Chain
p977
(dp978
g3
(lp979
(i__main__
Mention
p980
(dp981
g7
S't15'
p982
sg9
Nsg10
S'i53'
p983
sg12
Nsg13
Nsg14
(lp984
(i__main__
Token
p985
(dp986
g18
I293
sba(i__main__
Token
p987
(dp988
g18
I294
sba(i__main__
Token
p989
(dp990
g18
I295
sba(i__main__
Token
p991
(dp992
g18
I296
sba(i__main__
Token
p993
(dp994
g18
I297
sba(i__main__
Token
p995
(dp996
g18
I298
sba(i__main__
Token
p997
(dp998
g18
I299
sba(i__main__
Token
p999
(dp1000
g18
I300
sba(i__main__
Token
p1001
(dp1002
g18
I301
sbasg19
I301
sba(i__main__
Mention
p1003
(dp1004
g7
S't15'
p1005
sg9
S'Anaphora-C'
p1006
sg10
S'i54'
p1007
sg12
S'i53'
p1008
sg13
Nsg14
(lp1009
(i__main__
Token
p1010
(dp1011
g18
I302
sbasg19
I302
sbasg7
g982
sg326
Nsba(i__main__
Chain
p1012
(dp1013
g3
(lp1014
(i__main__
Mention
p1015
(dp1016
g7
S't16'
p1017
sg9
Nsg10
S'i57'
p1018
sg12
Nsg13
Nsg14
(lp1019
(i__main__
Token
p1020
(dp1021
g18
I310
sbasg19
I310
sbasg7
g1017
sg326
Nsba(i__main__
Chain
p1022
(dp1023
g3
(lp1024
(i__main__
Mention
p1025
(dp1026
g7
S't17'
p1027
sg9
Nsg10
S'i64'
p1028
sg12
Nsg13
Nsg14
(lp1029
(i__main__
Token
p1030
(dp1031
g18
I338
sbasg19
I338
sbasg7
g1027
sg326
Nsba(i__main__
Chain
p1032
(dp1033
g3
(lp1034
(i__main__
Mention
p1035
(dp1036
g7
S't18'
p1037
sg9
Nsg10
S'i71'
p1038
sg12
Nsg13
Nsg14
(lp1039
(i__main__
Token
p1040
(dp1041
g18
I370
sbasg19
I370
sba(i__main__
Mention
p1042
(dp1043
g7
S't18'
p1044
sg9
S'Anaphora-C'
p1045
sg10
S'i72'
p1046
sg12
S'i71'
p1047
sg13
Nsg14
(lp1048
(i__main__
Token
p1049
(dp1050
g18
I376
sbasg19
I376
sbasg7
g1037
sg326
Nsba(i__main__
Chain
p1051
(dp1052
g3
(lp1053
(i__main__
Mention
p1054
(dp1055
g7
S't19'
p1056
sg9
Nsg10
S'i80'
p1057
sg12
Nsg13
Nsg14
(lp1058
(i__main__
Token
p1059
(dp1060
g18
I415
sbasg19
I415
sbasg7
g1056
sg326
Nsba(i__main__
Chain
p1061
(dp1062
g3
(lp1063
(i__main__
Mention
p1064
(dp1065
g7
S't20'
p1066
sg9
Nsg10
S'i82'
p1067
sg12
Nsg13
Nsg14
(lp1068
(i__main__
Token
p1069
(dp1070
g18
I416
sba(i__main__
Token
p1071
(dp1072
g18
I417
sba(i__main__
Token
p1073
(dp1074
g18
I418
sba(i__main__
Token
p1075
(dp1076
g18
I419
sba(i__main__
Token
p1077
(dp1078
g18
I420
sba(i__main__
Token
p1079
(dp1080
g18
I421
sba(i__main__
Token
p1081
(dp1082
g18
I422
sba(i__main__
Token
p1083
(dp1084
g18
I423
sba(i__main__
Token
p1085
(dp1086
g18
I424
sba(i__main__
Token
p1087
(dp1088
g18
I425
sbasg19
I425
sba(i__main__
Mention
p1089
(dp1090
g7
S't20'
p1091
sg9
S'Anaphora-C'
p1092
sg10
S'i84'
p1093
sg12
S'i82'
p1094
sg13
Nsg14
(lp1095
(i__main__
Token
p1096
(dp1097
g18
I427
sbasg19
I427
sbasg7
g1066
sg326
Nsba(i__main__
Chain
p1098
(dp1099
g3
(lp1100
(i__main__
Mention
p1101
(dp1102
g7
S't21'
p1103
sg9
Nsg10
S'i88'
p1104
sg12
Nsg13
Nsg14
(lp1105
(i__main__
Token
p1106
(dp1107
g18
I447
sbasg19
I447
sbasg7
g1103
sg326
Nsba(i__main__
Chain
p1108
(dp1109
g3
(lp1110
(i__main__
Mention
p1111
(dp1112
g7
S't22'
p1113
sg9
Nsg10
S'i99'
p1114
sg12
Nsg13
Nsg14
(lp1115
(i__main__
Token
p1116
(dp1117
g18
I507
sba(i__main__
Token
p1118
(dp1119
g18
I508
sba(i__main__
Token
p1120
(dp1121
g18
I509
sbasg19
I509
sba(i__main__
Mention
p1122
(dp1123
g7
S't22'
p1124
sg9
Nsg10
S'i103'
p1125
sg12
Nsg13
Nsg14
(lp1126
(i__main__
Token
p1127
(dp1128
g18
I542
sbasg19
Nsba(i__main__
Mention
p1129
(dp1130
g7
S't22'
p1131
sg9
Nsg10
S'i104'
p1132
sg12
Nsg13
Nsg14
(lp1133
(i__main__
Token
p1134
(dp1135
g18
I542
sbasg19
Nsba(i__main__
Mention
p1136
(dp1137
g7
S't22'
p1138
sg9
S'Anaphora-C'
p1139
sg10
S'i105'
p1140
sg12
S'i104'
p1141
sg13
Nsg14
(lp1142
(i__main__
Token
p1143
(dp1144
g18
I545
sbasg19
I545
sba(i__main__
Mention
p1145
(dp1146
g7
S't22'
p1147
sg9
S'Anaphora-C'
p1148
sg10
S'i109'
p1149
sg12
S'i105'
p1150
sg13
Nsg14
(lp1151
(i__main__
Token
p1152
(dp1153
g18
I571
sbasg19
I571
sbasg7
g1113
sg326
Nsba(i__main__
Chain
p1154
(dp1155
g3
(lp1156
(i__main__
Mention
p1157
(dp1158
g7
S't23'
p1159
sg9
Nsg10
S'i108'
p1160
sg12
Nsg13
Nsg14
(lp1161
(i__main__
Token
p1162
(dp1163
g18
I560
sbasg19
I560
sbasg7
g1159
sg326
Nsba(i__main__
Chain
p1164
(dp1165
g3
(lp1166
(i__main__
Mention
p1167
(dp1168
g7
S't24'
p1169
sg9
Nsg10
S'i114'
p1170
sg12
Nsg13
Nsg14
(lp1171
(i__main__
Token
p1172
(dp1173
g18
I592
sbasg19
I592
sbasg7
g1169
sg326
Nsba(i__main__
Chain
p1174
(dp1175
g3
(lp1176
(i__main__
Mention
p1177
(dp1178
g7
S't25'
p1179
sg9
Nsg10
S'i115'
p1180
sg12
Nsg13
Nsg14
(lp1181
(i__main__
Token
p1182
(dp1183
g18
I599
sbasg19
I599
sba(i__main__
Mention
p1184
(dp1185
g7
S't25'
p1186
sg9
S'Coreference-NounComplement'
p1187
sg10
S'i116'
p1188
sg12
S'i115'
p1189
sg13
Nsg14
(lp1190
(i__main__
Token
p1191
(dp1192
g18
I600
sba(i__main__
Token
p1193
(dp1194
g18
I601
sba(i__main__
Token
p1195
(dp1196
g18
I602
sbasg19
I602
sbasg7
g1179
sg326
Nsba.