(lp0
(i__main__
Chain
p1
(dp2
S'mentionList'
p3
(lp4
(i__main__
Mention
p5
(dp6
S'chainId'
p7
S't1'
p8
sS'relType'
p9
NsS'mentionId'
p10
S'i1'
p11
sS'antecedentId'
p12
NsS'crefMod'
p13
NsS'tokenList'
p14
(lp15
(i__main__
Token
p16
(dp17
S'tokenId'
p18
I0
sbasS'mentionHead'
p19
I0
sba(i__main__
Mention
p20
(dp21
g7
S't1'
p22
sg9
S'Coreference-Identity'
p23
sg10
S'i9'
p24
sg12
S'i1'
p25
sg13
Nsg14
(lp26
(i__main__
Token
p27
(dp28
g18
I63
sbasg19
I63
sba(i__main__
Mention
p29
(dp30
g7
S't1'
p31
sg9
S'Coreference-Identity'
p32
sg10
S'i15'
p33
sg12
S'i9'
p34
sg13
Nsg14
(lp35
(i__main__
Token
p36
(dp37
g18
I115
sbasg19
I115
sba(i__main__
Mention
p38
(dp39
g7
S't1'
p40
sg9
S'Coreference-Identity'
p41
sg10
S'i26'
p42
sg12
S'i15'
p43
sg13
Nsg14
(lp44
(i__main__
Token
p45
(dp46
g18
I222
sbasg19
I222
sba(i__main__
Mention
p47
(dp48
g7
S't1'
p49
sg9
S'Coreference-Identity'
p50
sg10
S'i35'
p51
sg12
S'i26'
p52
sg13
Nsg14
(lp53
(i__main__
Token
p54
(dp55
g18
I261
sbasg19
I261
sbasg7
g8
sS'chainHead'
p56
Nsba(i__main__
Chain
p57
(dp58
g3
(lp59
(i__main__
Mention
p60
(dp61
g7
S't2'
p62
sg9
Nsg10
S'i2'
p63
sg12
Nsg13
Nsg14
(lp64
(i__main__
Token
p65
(dp66
g18
I12
sba(i__main__
Token
p67
(dp68
g18
I13
sba(i__main__
Token
p69
(dp70
g18
I14
sba(i__main__
Token
p71
(dp72
g18
I15
sbasg19
I15
sba(i__main__
Mention
p73
(dp74
g7
S't2'
p75
sg9
S'Coreference-Bracketed/Abbraviation'
p76
sg10
S'i3'
p77
sg12
S'i6'
p78
sg13
Nsg14
(lp79
(i__main__
Token
p80
(dp81
g18
I17
sbasg19
I17
sbasg7
g62
sg56
Nsba(i__main__
Chain
p82
(dp83
g3
(lp84
(i__main__
Mention
p85
(dp86
g7
S't3'
p87
sg9
Nsg10
S'i4'
p88
sg12
Nsg13
Nsg14
(lp89
(i__main__
Token
p90
(dp91
g18
I29
sbasg19
I29
sba(i__main__
Mention
p92
(dp93
g7
S't3'
p94
sg9
S'Coreference-Identity'
p95
sg10
S'i11'
p96
sg12
S'i4'
p97
sg13
Nsg14
(lp98
(i__main__
Token
p99
(dp100
g18
I86
sbasg19
I86
sbasg7
g87
sg56
Nsba(i__main__
Chain
p101
(dp102
g3
(lp103
(i__main__
Mention
p104
(dp105
g7
S't4'
p106
sg9
Nsg10
S'i5'
p107
sg12
Nsg13
Nsg14
(lp108
(i__main__
Token
p109
(dp110
g18
I31
sbasg19
I31
sba(i__main__
Mention
p111
(dp112
g7
S't4'
p113
sg9
S'Coreference-Identity'
p114
sg10
S'i14'
p115
sg12
S'i5'
p116
sg13
Nsg14
(lp117
(i__main__
Token
p118
(dp119
g18
I95
sba(i__main__
Token
p120
(dp121
g18
I96
sbasg19
I96
sba(i__main__
Mention
p122
(dp123
g7
S't4'
p124
sg9
S'Coreference-Identity'
p125
sg10
S'i17'
p126
sg12
S'i14'
p127
sg13
Nsg14
(lp128
(i__main__
Token
p129
(dp130
g18
I131
sbasg19
I131
sba(i__main__
Mention
p131
(dp132
g7
S't4'
p133
sg9
S'Coreference-Identity'
p134
sg10
S'i24'
p135
sg12
S'i17'
p136
sg13
Nsg14
(lp137
(i__main__
Token
p138
(dp139
g18
I183
sbasg19
I183
sbasg7
g106
sg56
Nsba(i__main__
Chain
p140
(dp141
g3
(lp142
(i__main__
Mention
p143
(dp144
g7
S't5'
p145
sg9
Nsg10
S'i6'
p146
sg12
Nsg13
Nsg14
(lp147
(i__main__
Token
p148
(dp149
g18
I37
sba(i__main__
Token
p150
(dp151
g18
I38
sbasg19
I38
sba(i__main__
Mention
p152
(dp153
g7
S't5'
p154
sg9
S'Anaphora-C'
p155
sg10
S'i7'
p156
sg12
S'i6'
p157
sg13
Nsg14
(lp158
(i__main__
Token
p159
(dp160
g18
I41
sbasg19
I41
sba(i__main__
Mention
p161
(dp162
g7
S't5'
p163
sg9
S'Coreference-Identity'
p164
sg10
S'i23'
p165
sg12
S'i7'
p166
sg13
Nsg14
(lp167
(i__main__
Token
p168
(dp169
g18
I168
sba(i__main__
Token
p170
(dp171
g18
I169
sbasg19
I169
sba(i__main__
Mention
p172
(dp173
g7
S't5'
p174
sg9
S'Coreference-Noun-Noun'
p175
sg10
S'i25'
p176
sg12
S'i23'
p177
sg13
Nsg14
(lp178
(i__main__
Token
p179
(dp180
g18
I217
sbasg19
I217
sba(i__main__
Mention
p181
(dp182
g7
S't5'
p183
sg9
S'Anaphora-C'
p184
sg10
S'i27'
p185
sg12
S'i25'
p186
sg13
Nsg14
(lp187
(i__main__
Token
p188
(dp189
g18
I223
sbasg19
I223
sba(i__main__
Mention
p190
(dp191
g7
S't5'
p192
sg9
S'Anaphora-C'
p193
sg10
S'i29'
p194
sg12
S'i27'
p195
sg13
Nsg14
(lp196
(i__main__
Token
p197
(dp198
g18
I242
sbasg19
I242
sbasg7
g145
sg56
Nsba(i__main__
Chain
p199
(dp200
g3
(lp201
(i__main__
Mention
p202
(dp203
g7
S't6'
p204
sg9
Nsg10
S'i8'
p205
sg12
Nsg13
Nsg14
(lp206
(i__main__
Token
p207
(dp208
g18
I61
sbasg19
I61
sba(i__main__
Mention
p209
(dp210
g7
S't6'
p211
sg9
S'Coreference-Identity'
p212
sg10
S'i31'
p213
sg12
S'i8'
p214
sg13
Nsg14
(lp215
(i__main__
Token
p216
(dp217
g18
I250
sbasg19
I250
sba(i__main__
Mention
p218
(dp219
g7
S't6'
p220
sg9
S'Anaphora-C'
p221
sg10
S'i34'
p222
sg12
S'i31'
p223
sg13
Nsg14
(lp224
(i__main__
Token
p225
(dp226
g18
I260
sbasg19
I260
sba(i__main__
Mention
p227
(dp228
g7
S't6'
p229
sg9
S'Anaphora-C'
p230
sg10
S'i36'
p231
sg12
S'i34'
p232
sg13
Nsg14
(lp233
(i__main__
Token
p234
(dp235
g18
I273
sbasg19
I273
sba(i__main__
Mention
p236
(dp237
g7
S't6'
p238
sg9
S'Coreference-Identity'
p239
sg10
S'i38'
p240
sg12
S'i36'
p241
sg13
Nsg14
(lp242
(i__main__
Token
p243
(dp244
g18
I281
sbasg19
I281
sbasg7
g204
sg56
Nsba(i__main__
Chain
p245
(dp246
g3
(lp247
(i__main__
Mention
p248
(dp249
g7
S't7'
p250
sg9
Nsg10
S'i10'
p251
sg12
Nsg13
Nsg14
(lp252
(i__main__
Token
p253
(dp254
g18
I76
sbasg19
I76
sbasg7
g250
sg56
Nsba(i__main__
Chain
p255
(dp256
g3
(lp257
(i__main__
Mention
p258
(dp259
g7
S't8'
p260
sg9
Nsg10
S'i12'
p261
sg12
Nsg13
Nsg14
(lp262
(i__main__
Token
p263
(dp264
g18
I88
sbasg19
I88
sba(i__main__
Mention
p265
(dp266
g7
S't8'
p267
sg9
S'Coreference-NounComplement'
p268
sg10
S'i13'
p269
sg12
S'i12'
p270
sg13
Nsg14
(lp271
(i__main__
Token
p272
(dp273
g18
I89
sba(i__main__
Token
p274
(dp275
g18
I90
sbasg19
I90
sbasg7
g260
sg56
Nsba(i__main__
Chain
p276
(dp277
g3
(lp278
(i__main__
Mention
p279
(dp280
g7
S't9'
p281
sg9
Nsg10
S'i16'
p282
sg12
Nsg13
Nsg14
(lp283
(i__main__
Token
p284
(dp285
g18
I124
sba(i__main__
Token
p286
(dp287
g18
I125
sba(i__main__
Token
p288
(dp289
g18
I126
sba(i__main__
Token
p290
(dp291
g18
I127
sba(i__main__
Token
p292
(dp293
g18
I128
sbasg19
I125
sba(i__main__
Mention
p294
(dp295
g7
S't9'
p296
sg9
S'Coreference-Noun-Noun'
p297
sg10
S'i18'
p298
sg12
S'i16'
p299
sg13
Nsg14
(lp300
(i__main__
Token
p301
(dp302
g18
I140
sbasg19
I140
sbasg7
g281
sg56
Nsba(i__main__
Chain
p303
(dp304
g3
(lp305
(i__main__
Mention
p306
(dp307
g7
S't10'
p308
sg9
Nsg10
S'i19'
p309
sg12
Nsg13
Nsg14
(lp310
(i__main__
Token
p311
(dp312
g18
I142
sbasg19
I142
sba(i__main__
Mention
p313
(dp314
g7
S't10'
p315
sg9
S'Coreference-NounComplement'
p316
sg10
S'i20'
p317
sg12
S'i19'
p318
sg13
Nsg14
(lp319
(i__main__
Token
p320
(dp321
g18
I143
sba(i__main__
Token
p322
(dp323
g18
I144
sba(i__main__
Token
p324
(dp325
g18
I145
sbasg19
I145
sbasg7
g308
sg56
Nsba(i__main__
Chain
p326
(dp327
g3
(lp328
(i__main__
Mention
p329
(dp330
g7
S't11'
p331
sg9
Nsg10
S'i21'
p332
sg12
Nsg13
Nsg14
(lp333
(i__main__
Token
p334
(dp335
g18
I149
sbasg19
I149
sba(i__main__
Mention
p336
(dp337
g7
S't11'
p338
sg9
S'Coreference-Noun-Noun'
p339
sg10
S'i22'
p340
sg12
S'i21'
p341
sg13
Nsg14
(lp342
(i__main__
Token
p343
(dp344
g18
I158
sbasg19
I158
sba(i__main__
Mention
p345
(dp346
g7
S't11'
p347
sg9
S'Coreference-Noun-Noun'
p348
sg10
S'i30'
p349
sg12
S'i22'
p350
sg13
Nsg14
(lp351
(i__main__
Token
p352
(dp353
g18
I243
sbasg19
I243
sbasg7
g331
sg56
Nsba(i__main__
Chain
p354
(dp355
g3
(lp356
(i__main__
Mention
p357
(dp358
g7
S't12'
p359
sg9
Nsg10
S'i28'
p360
sg12
Nsg13
Nsg14
(lp361
(i__main__
Token
p362
(dp363
g18
I236
sbasg19
I236
sbasg7
g359
sg56
Nsba(i__main__
Chain
p364
(dp365
g3
(lp366
(i__main__
Mention
p367
(dp368
g7
S't13'
p369
sg9
Nsg10
S'i32'
p370
sg12
Nsg13
Nsg14
(lp371
(i__main__
Token
p372
(dp373
g18
I252
sba(i__main__
Token
p374
(dp375
g18
I253
sbasg19
I253
sba(i__main__
Mention
p376
(dp377
g7
S't13'
p378
sg9
S'Coreference-NounComplement'
p379
sg10
S'i33'
p380
sg12
S'i32'
p381
sg13
Nsg14
(lp382
(i__main__
Token
p383
(dp384
g18
I254
sba(i__main__
Token
p385
(dp386
g18
I255
sba(i__main__
Token
p387
(dp388
g18
I256
sbasg19
I256
sba(i__main__
Mention
p389
(dp390
g7
S't13'
p391
sg9
S'Anaphora-C'
p392
sg10
S'i37'
p393
sg12
S'i33'
p394
sg13
Nsg14
(lp395
(i__main__
Token
p396
(dp397
g18
I278
sbasg19
I278
sba(i__main__
Mention
p398
(dp399
g7
S't13'
p400
sg9
S'Anaphora-C'
p401
sg10
S'i39'
p402
sg12
S'i37'
p403
sg13
Nsg14
(lp404
(i__main__
Token
p405
(dp406
g18
I292
sbasg19
I292
sbasg7
g369
sg56
Nsba(i__main__
Chain
p407
(dp408
g3
(lp409
(i__main__
Mention
p410
(dp411
g7
S't14'
p412
sg9
Nsg10
S'i40'
p413
sg12
Nsg13
Nsg14
(lp414
(i__main__
Token
p415
(dp416
g18
I293
sbasg19
I293
sbasg7
g412
sg56
Nsba(i__main__
Chain
p417
(dp418
g3
(lp419
(i__main__
Mention
p420
(dp421
g7
S't15'
p422
sg9
Nsg10
S'i41'
p423
sg12
Nsg13
Nsg14
(lp424
(i__main__
Token
p425
(dp426
g18
I298
sbasg19
I298
sbasg7
g422
sg56
Nsba.