(lp0
(i__main__
Chain
p1
(dp2
S'mentionList'
p3
(lp4
(i__main__
Mention
p5
(dp6
S'chainId'
p7
S't1'
p8
sS'relType'
p9
NsS'mentionId'
p10
S'i1'
p11
sS'antecedentId'
p12
NsS'crefMod'
p13
NsS'tokenList'
p14
(lp15
(i__main__
Token
p16
(dp17
S'tokenId'
p18
I3
sba(i__main__
Token
p19
(dp20
g18
I4
sba(i__main__
Token
p21
(dp22
g18
I5
sba(i__main__
Token
p23
(dp24
g18
I6
sbasS'mentionHead'
p25
I6
sba(i__main__
Mention
p26
(dp27
g7
S't1'
p28
sg9
S'Coreference-PartOf'
p29
sg10
S'i7'
p30
sg12
S'i1'
p31
sg13
Nsg14
(lp32
(i__main__
Token
p33
(dp34
g18
I38
sba(i__main__
Token
p35
(dp36
g18
I39
sbasg25
I39
sba(i__main__
Mention
p37
(dp38
g7
S't1'
p39
sg9
S'Coreference-RPartOf'
p40
sg10
S'i13'
p41
sg12
S'i7'
p42
sg13
Nsg14
(lp43
(i__main__
Token
p44
(dp45
g18
I79
sbasg25
I79
sba(i__main__
Mention
p46
(dp47
g7
S't1'
p48
sg9
S'Coreference-PartOf'
p49
sg10
S'i20'
p50
sg12
S'i13'
p51
sg13
Nsg14
(lp52
(i__main__
Token
p53
(dp54
g18
I107
sbasg25
I107
sba(i__main__
Mention
p55
(dp56
g7
S't1'
p57
sg9
S'Coreference-PartOf-WMain'
p58
sg10
S'i30'
p59
sg12
S'i20'
p60
sg13
Nsg14
(lp61
(i__main__
Token
p62
(dp63
g18
I149
sbasg25
I149
sbasg7
g8
sS'chainHead'
p64
Nsba(i__main__
Chain
p65
(dp66
g3
(lp67
(i__main__
Mention
p68
(dp69
g7
S't2'
p70
sg9
Nsg10
S'i2'
p71
sg12
Nsg13
Nsg14
(lp72
(i__main__
Token
p73
(dp74
g18
I11
sba(i__main__
Token
p75
(dp76
g18
I12
sba(i__main__
Token
p77
(dp78
g18
I13
sbasg25
I13
sba(i__main__
Mention
p79
(dp80
g7
S't2'
p81
sg9
S'Coreference-Noun-Noun'
p82
sg10
S'i3'
p83
sg12
S'i2'
p84
sg13
Nsg14
(lp85
(i__main__
Token
p86
(dp87
g18
I31
sba(i__main__
Token
p88
(dp89
g18
I32
sbasg25
I32
sba(i__main__
Mention
p90
(dp91
g7
S't2'
p92
sg9
S'Coreference-NounComplement'
p93
sg10
S'i4'
p94
sg12
S'i3'
p95
sg13
Nsg14
(lp96
(i__main__
Token
p97
(dp98
g18
I33
sbasg25
I33
sba(i__main__
Mention
p99
(dp100
g7
S't2'
p101
sg9
S'Coreference-Noun-Noun'
p102
sg10
S'i5'
p103
sg12
S'i4'
p104
sg13
Nsg14
(lp105
(i__main__
Token
p106
(dp107
g18
I35
sbasg25
I35
sba(i__main__
Mention
p108
(dp109
g7
S't2'
p110
sg9
S'Anaphora-C'
p111
sg10
S'i6'
p112
sg12
S'i5'
p113
sg13
Nsg14
(lp114
(i__main__
Token
p115
(dp116
g18
I36
sbasg25
I36
sba(i__main__
Mention
p117
(dp118
g7
S't2'
p119
sg9
S'Coreference-Noun-Noun'
p120
sg10
S'i10'
p121
sg12
S'i6'
p122
sg13
Nsg14
(lp123
(i__main__
Token
p124
(dp125
g18
I64
sba(i__main__
Token
p126
(dp127
g18
I65
sbasg25
I65
sba(i__main__
Mention
p128
(dp129
g7
S't2'
p130
sg9
S'Anaphora-C'
p131
sg10
S'i11'
p132
sg12
S'i10'
p133
sg13
Nsg14
(lp134
(i__main__
Token
p135
(dp136
g18
I73
sbasg25
I73
sba(i__main__
Mention
p137
(dp138
g7
S't2'
p139
sg9
S'Coreference-Noun-Noun'
p140
sg10
S'i15'
p141
sg12
S'i11'
p142
sg13
Nsg14
(lp143
(i__main__
Token
p144
(dp145
g18
I96
sbasg25
I96
sba(i__main__
Mention
p146
(dp147
g7
S't2'
p148
sg9
S'Coreference-Noun-Noun'
p149
sg10
S'i16'
p150
sg12
S'i15'
p151
sg13
Nsg14
(lp152
(i__main__
Token
p153
(dp154
g18
I98
sbasg25
I98
sba(i__main__
Mention
p155
(dp156
g7
S't2'
p157
sg9
S'Coreference-Noun-Noun'
p158
sg10
S'i17'
p159
sg12
S'i16'
p160
sg13
Nsg14
(lp161
(i__main__
Token
p162
(dp163
g18
I102
sba(i__main__
Token
p164
(dp165
g18
I103
sbasg25
I103
sba(i__main__
Mention
p166
(dp167
g7
S't2'
p168
sg9
S'Coreference-Identity'
p169
sg10
S'i31'
p170
sg12
S'i17'
p171
sg13
Nsg14
(lp172
(i__main__
Token
p173
(dp174
g18
I151
sba(i__main__
Token
p175
(dp176
g18
I152
sbasg25
I152
sbasg7
g70
sg64
Nsba(i__main__
Chain
p177
(dp178
g3
(lp179
(i__main__
Mention
p180
(dp181
g7
S't3'
p182
sg9
Nsg10
S'i8'
p183
sg12
Nsg13
Nsg14
(lp184
(i__main__
Token
p185
(dp186
g18
I41
sba(i__main__
Token
p187
(dp188
g18
I42
sba(i__main__
Token
p189
(dp190
g18
I43
sbasg25
I43
sba(i__main__
Mention
p191
(dp192
g7
S't3'
p193
sg9
S'Anaphora-C'
p194
sg10
S'i9'
p195
sg12
S'i8'
p196
sg13
Nsg14
(lp197
(i__main__
Token
p198
(dp199
g18
I49
sbasg25
I49
sbasg7
g182
sg64
Nsba(i__main__
Chain
p200
(dp201
g3
(lp202
(i__main__
Mention
p203
(dp204
g7
S't4'
p205
sg9
Nsg10
S'i12'
p206
sg12
Nsg13
Nsg14
(lp207
(i__main__
Token
p208
(dp209
g18
I74
sba(i__main__
Token
p210
(dp211
g18
I75
sba(i__main__
Token
p212
(dp213
g18
I76
sba(i__main__
Token
p214
(dp215
g18
I77
sbasg25
I77
sba(i__main__
Mention
p216
(dp217
g7
S't4'
p218
sg9
S'Coreference-RPartOf'
p219
sg10
S'i14'
p220
sg12
S'i12'
p221
sg13
Nsg14
(lp222
(i__main__
Token
p223
(dp224
g18
I91
sba(i__main__
Token
p225
(dp226
g18
I92
sbasg25
I92
sbasg7
g205
sg64
Nsba(i__main__
Chain
p227
(dp228
g3
(lp229
(i__main__
Mention
p230
(dp231
g7
S't5'
p232
sg9
S'anaphora-?'
p233
sg10
S'i18'
p234
sg12
S'i18'
p235
sg13
Nsg14
(lp236
(i__main__
Token
p237
(dp238
g18
I104
sbasg25
I104
sbasg7
g232
sg64
Nsba(i__main__
Chain
p239
(dp240
g3
(lp241
(i__main__
Mention
p242
(dp243
g7
S't6'
p244
sg9
S'anaphora-?'
p245
sg10
S'i19'
p246
sg12
S'i19'
p247
sg13
Nsg14
(lp248
(i__main__
Token
p249
(dp250
g18
I106
sbasg25
I106
sba(i__main__
Mention
p251
(dp252
g7
S't6'
p253
sg9
S'Anaphora-C'
p254
sg10
S'i22'
p255
sg12
S'i19'
p256
sg13
Nsg14
(lp257
(i__main__
Token
p258
(dp259
g18
I116
sbasg25
I116
sba(i__main__
Mention
p260
(dp261
g7
S't6'
p262
sg9
S'Anaphora-C'
p263
sg10
S'i23'
p264
sg12
S'i22'
p265
sg13
Nsg14
(lp266
(i__main__
Token
p267
(dp268
g18
I117
sbasg25
I117
sbasg7
g244
sg64
Nsba(i__main__
Chain
p269
(dp270
g3
(lp271
(i__main__
Mention
p272
(dp273
g7
S't7'
p274
sg9
S'anaphora-?'
p275
sg10
S'i21'
p276
sg12
S'i21'
p277
sg13
Nsg14
(lp278
(i__main__
Token
p279
(dp280
g18
I113
sbasg25
I113
sbasg7
g274
sg64
Nsba(i__main__
Chain
p281
(dp282
g3
(lp283
(i__main__
Mention
p284
(dp285
g7
S't8'
p286
sg9
Nsg10
S'i24'
p287
sg12
Nsg13
Nsg14
(lp288
(i__main__
Token
p289
(dp290
g18
I118
sba(i__main__
Token
p291
(dp292
g18
I119
sba(i__main__
Token
p293
(dp294
g18
I120
sba(i__main__
Token
p295
(dp296
g18
I121
sbasg25
I121
sba(i__main__
Mention
p297
(dp298
g7
S't8'
p299
sg9
S'Coreference-Identity'
p300
sg10
S'i26'
p301
sg12
S'i24'
p302
sg13
Nsg14
(lp303
(i__main__
Token
p304
(dp305
g18
I132
sbasg25
I132
sba(i__main__
Mention
p306
(dp307
g7
S't8'
p308
sg9
S'Coreference-Identity'
p309
sg10
S'i35'
p310
sg12
S'i26'
p311
sg13
Nsg14
(lp312
(i__main__
Token
p313
(dp314
g18
I168
sba(i__main__
Token
p315
(dp316
g18
I169
sba(i__main__
Token
p317
(dp318
g18
I170
sba(i__main__
Token
p319
(dp320
g18
I171
sbasg25
I171
sba(i__main__
Mention
p321
(dp322
g7
S't8'
p323
sg9
S'Anaphora-C'
p324
sg10
S'i40'
p325
sg12
S'i35'
p326
sg13
Nsg14
(lp327
(i__main__
Token
p328
(dp329
g18
I187
sbasg25
I187
sba(i__main__
Mention
p330
(dp331
g7
S't8'
p332
sg9
Nsg10
S'i42'
p333
sg12
Nsg13
Nsg14
(lp334
(i__main__
Token
p335
(dp336
g18
I192
sbasg25
Nsbasg7
g286
sg64
Nsba(i__main__
Chain
p337
(dp338
g3
(lp339
(i__main__
Mention
p340
(dp341
g7
S't9'
p342
sg9
Nsg10
S'i25'
p343
sg12
Nsg13
Nsg14
(lp344
(i__main__
Token
p345
(dp346
g18
I126
sbasg25
I126
sba(i__main__
Mention
p347
(dp348
g7
S't9'
p349
sg9
Nsg10
S'i28'
p350
sg12
Nsg13
Nsg14
(lp351
(i__main__
Token
p352
(dp353
g18
I142
sbasg25
Nsba(i__main__
Mention
p354
(dp355
g7
S't9'
p356
sg9
S'Anaphora-C'
p357
sg10
S'i29'
p358
sg12
S'i28'
p359
sg13
Nsg14
(lp360
(i__main__
Token
p361
(dp362
g18
I148
sbasg25
I148
sba(i__main__
Mention
p363
(dp364
g7
S't9'
p365
sg9
S'Anaphora-C'
p366
sg10
S'i32'
p367
sg12
S'i29'
p368
sg13
Nsg14
(lp369
(i__main__
Token
p370
(dp371
g18
I164
sbasg25
I164
sba(i__main__
Mention
p372
(dp373
g7
S't9'
p374
sg9
S'Anaphora-C'
p375
sg10
S'i34'
p376
sg12
S'i32'
p377
sg13
Nsg14
(lp378
(i__main__
Token
p379
(dp380
g18
I167
sbasg25
I167
sba(i__main__
Mention
p381
(dp382
g7
S't9'
p383
sg9
S'Anaphora-C'
p384
sg10
S'i38'
p385
sg12
S'i34'
p386
sg13
Nsg14
(lp387
(i__main__
Token
p388
(dp389
g18
I178
sbasg25
I178
sbasg7
g342
sg64
Nsba(i__main__
Chain
p390
(dp391
g3
(lp392
(i__main__
Mention
p393
(dp394
g7
S't10'
p395
sg9
Nsg10
S'i27'
p396
sg12
Nsg13
Nsg14
(lp397
(i__main__
Token
p398
(dp399
g18
I142
sbasg25
Nsbasg7
g395
sg64
Nsba(i__main__
Chain
p400
(dp401
g3
(lp402
(i__main__
Mention
p403
(dp404
g7
S't11'
p405
sg9
S'anaphora-?'
p406
sg10
S'i33'
p407
sg12
S'i33'
p408
sg13
Nsg14
(lp409
(i__main__
Token
p410
(dp411
g18
I165
sbasg25
I165
sbasg7
g405
sg64
Nsba(i__main__
Chain
p412
(dp413
g3
(lp414
(i__main__
Mention
p415
(dp416
g7
S't12'
p417
sg9
S'anaphora-?'
p418
sg10
S'i37'
p419
sg12
S'i37'
p420
sg13
Nsg14
(lp421
(i__main__
Token
p422
(dp423
g18
I175
sbasg25
I175
sbasg7
g417
sg64
Nsba(i__main__
Chain
p424
(dp425
g3
(lp426
(i__main__
Mention
p427
(dp428
g7
S't13'
p429
sg9
S'anaphora-?'
p430
sg10
S'i39'
p431
sg12
S'i39'
p432
sg13
Nsg14
(lp433
(i__main__
Token
p434
(dp435
g18
I182
sbasg25
I182
sba(i__main__
Mention
p436
(dp437
g7
S't13'
p438
sg9
Nsg10
S'i41'
p439
sg12
Nsg13
Nsg14
(lp440
(i__main__
Token
p441
(dp442
g18
I187
sba(i__main__
Token
p443
(dp444
g18
I188
sba(i__main__
Token
p445
(dp446
g18
I189
sba(i__main__
Token
p447
(dp448
g18
I190
sba(i__main__
Token
p449
(dp450
g18
I191
sba(i__main__
Token
p451
(dp452
g18
I192
sba(i__main__
Token
p453
(dp454
g18
I193
sba(i__main__
Token
p455
(dp456
g18
I194
sba(i__main__
Token
p457
(dp458
g18
I195
sbasg25
Nsbasg7
g429
sg64
Nsba.