(lp0
(i__main__
Chain
p1
(dp2
S'mentionList'
p3
(lp4
(i__main__
Mention
p5
(dp6
S'chainId'
p7
S't1'
p8
sS'relType'
p9
NsS'mentionId'
p10
S'i1'
p11
sS'antecedentId'
p12
NsS'crefMod'
p13
NsS'tokenList'
p14
(lp15
(i__main__
Token
p16
(dp17
S'tokenId'
p18
I0
sbasS'mentionHead'
p19
I0
sba(i__main__
Mention
p20
(dp21
g7
S't1'
p22
sg9
S'Coreference-Identity'
p23
sg10
S'i7'
p24
sg12
S'i1'
p25
sg13
Nsg14
(lp26
(i__main__
Token
p27
(dp28
g18
I54
sbasg19
I54
sba(i__main__
Mention
p29
(dp30
g7
S't1'
p31
sg9
S'Coreference-Identity'
p32
sg10
S'i17'
p33
sg12
S'i7'
p34
sg13
Nsg14
(lp35
(i__main__
Token
p36
(dp37
g18
I122
sbasg19
I122
sba(i__main__
Mention
p38
(dp39
g7
S't1'
p40
sg9
S'Coreference-Identity'
p41
sg10
S'i49'
p42
sg12
S'i17'
p43
sg13
Nsg14
(lp44
(i__main__
Token
p45
(dp46
g18
I284
sbasg19
I284
sba(i__main__
Mention
p47
(dp48
g7
S't1'
p49
sg9
S'Coreference-Identity'
p50
sg10
S'i56'
p51
sg12
S'i49'
p52
sg13
Nsg14
(lp53
(i__main__
Token
p54
(dp55
g18
I337
sbasg19
I337
sbasg7
g8
sS'chainHead'
p56
Nsba(i__main__
Chain
p57
(dp58
g3
(lp59
(i__main__
Mention
p60
(dp61
g7
S't2'
p62
sg9
Nsg10
S'i2'
p63
sg12
Nsg13
Nsg14
(lp64
(i__main__
Token
p65
(dp66
g18
I3
sbasg19
I3
sba(i__main__
Mention
p67
(dp68
g7
S't2'
p69
sg9
S'Coreference-Noun-Noun'
p70
sg10
S'i6'
p71
sg12
S'i2'
p72
sg13
Nsg14
(lp73
(i__main__
Token
p74
(dp75
g18
I29
sbasg19
I29
sba(i__main__
Mention
p76
(dp77
g7
S't2'
p78
sg9
S'Coreference-Noun-Noun'
p79
sg10
S'i8'
p80
sg12
S'i6'
p81
sg13
Nsg14
(lp82
(i__main__
Token
p83
(dp84
g18
I60
sbasg19
I60
sba(i__main__
Mention
p85
(dp86
g7
S't2'
p87
sg9
S'Coreference-Noun-Noun'
p88
sg10
S'i9'
p89
sg12
S'i8'
p90
sg13
Nsg14
(lp91
(i__main__
Token
p92
(dp93
g18
I73
sbasg19
I73
sba(i__main__
Mention
p94
(dp95
g7
S't2'
p96
sg9
S'Coreference-Identity'
p97
sg10
S'i11'
p98
sg12
S'i9'
p99
sg13
Nsg14
(lp100
(i__main__
Token
p101
(dp102
g18
I85
sbasg19
I85
sba(i__main__
Mention
p103
(dp104
g7
S't2'
p105
sg9
S'Coreference-Identity'
p106
sg10
S'i14'
p107
sg12
S'i11'
p108
sg13
Nsg14
(lp109
(i__main__
Token
p110
(dp111
g18
I98
sbasg19
I98
sba(i__main__
Mention
p112
(dp113
g7
S't2'
p114
sg9
S'Coreference-Identity'
p115
sg10
S'i15'
p116
sg12
S'i14'
p117
sg13
Nsg14
(lp118
(i__main__
Token
p119
(dp120
g18
I108
sbasg19
I108
sba(i__main__
Mention
p121
(dp122
g7
S't2'
p123
sg9
S'Anaphora-C'
p124
sg10
S'i16'
p125
sg12
S'i15'
p126
sg13
Nsg14
(lp127
(i__main__
Token
p128
(dp129
g18
I110
sbasg19
I110
sba(i__main__
Mention
p130
(dp131
g7
S't2'
p132
sg9
S'Coreference-Identity'
p133
sg10
S'i19'
p134
sg12
S'i16'
p135
sg13
Nsg14
(lp136
(i__main__
Token
p137
(dp138
g18
I128
sbasg19
I128
sba(i__main__
Mention
p139
(dp140
g7
S't2'
p141
sg9
S'Coreference-Identity'
p142
sg10
S'i28'
p143
sg12
S'i19'
p144
sg13
Nsg14
(lp145
(i__main__
Token
p146
(dp147
g18
I176
sbasg19
I176
sba(i__main__
Mention
p148
(dp149
g7
S't2'
p150
sg9
S'Coreference-Identity'
p151
sg10
S'i32'
p152
sg12
S'i28'
p153
sg13
Nsg14
(lp154
(i__main__
Token
p155
(dp156
g18
I195
sbasg19
I195
sba(i__main__
Mention
p157
(dp158
g7
S't2'
p159
sg9
S'Coreference-Identity'
p160
sg10
S'i46'
p161
sg12
S'i32'
p162
sg13
Nsg14
(lp163
(i__main__
Token
p164
(dp165
g18
I263
sbasg19
I263
sba(i__main__
Mention
p166
(dp167
g7
S't2'
p168
sg9
S'Coreference-Identity'
p169
sg10
S'i50'
p170
sg12
S'i46'
p171
sg13
Nsg14
(lp172
(i__main__
Token
p173
(dp174
g18
I287
sbasg19
I287
sba(i__main__
Mention
p175
(dp176
g7
S't2'
p177
sg9
S'Coreference-Identity'
p178
sg10
S'i53'
p179
sg12
S'i50'
p180
sg13
Nsg14
(lp181
(i__main__
Token
p182
(dp183
g18
I321
sbasg19
I321
sbasg7
g62
sg56
Nsba(i__main__
Chain
p184
(dp185
g3
(lp186
(i__main__
Mention
p187
(dp188
g7
S't3'
p189
sg9
Nsg10
S'i3'
p190
sg12
Nsg13
Nsg14
(lp191
(i__main__
Token
p192
(dp193
g18
I9
sbasg19
I9
sbasg7
g189
sg56
Nsba(i__main__
Chain
p194
(dp195
g3
(lp196
(i__main__
Mention
p197
(dp198
g7
S't4'
p199
sg9
Nsg10
S'i4'
p200
sg12
Nsg13
Nsg14
(lp201
(i__main__
Token
p202
(dp203
g18
I21
sbasg19
I21
sbasg7
g199
sg56
Nsba(i__main__
Chain
p204
(dp205
g3
(lp206
(i__main__
Mention
p207
(dp208
g7
S't5'
p209
sg9
Nsg10
S'i5'
p210
sg12
Nsg13
Nsg14
(lp211
(i__main__
Token
p212
(dp213
g18
I29
sba(i__main__
Token
p214
(dp215
g18
I30
sba(i__main__
Token
p216
(dp217
g18
I31
sba(i__main__
Token
p218
(dp219
g18
I32
sba(i__main__
Token
p220
(dp221
g18
I33
sba(i__main__
Token
p222
(dp223
g18
I34
sba(i__main__
Token
p224
(dp225
g18
I35
sba(i__main__
Token
p226
(dp227
g18
I36
sbasg19
I36
sba(i__main__
Mention
p228
(dp229
g7
S't5'
p230
sg9
S'Coreference-Identity'
p231
sg10
S'i12'
p232
sg12
S'i5'
p233
sg13
Nsg14
(lp234
(i__main__
Token
p235
(dp236
g18
I92
sbasg19
I92
sba(i__main__
Mention
p237
(dp238
g7
S't5'
p239
sg9
S'Coreference-Identity'
p240
sg10
S'i20'
p241
sg12
S'i12'
p242
sg13
Nsg14
(lp243
(i__main__
Token
p244
(dp245
g18
I139
sbasg19
I139
sba(i__main__
Mention
p246
(dp247
g7
S't5'
p248
sg9
S'Coreference-Identity'
p249
sg10
S'i26'
p250
sg12
S'i20'
p251
sg13
Nsg14
(lp252
(i__main__
Token
p253
(dp254
g18
I170
sbasg19
I170
sba(i__main__
Mention
p255
(dp256
g7
S't5'
p257
sg9
Nsg10
S'i30'
p258
sg12
Nsg13
Nsg14
(lp259
(i__main__
Token
p260
(dp261
g18
I194
sbasg19
Nsba(i__main__
Mention
p262
(dp263
g7
S't5'
p264
sg9
Nsg10
S'i33'
p265
sg12
Nsg13
Nsg14
(lp266
(i__main__
Token
p267
(dp268
g18
I200
sba(i__main__
Token
p269
(dp270
g18
I201
sbasg19
Nsba(i__main__
Mention
p271
(dp272
g7
S't5'
p273
sg9
Nsg10
S'i37'
p274
sg12
Nsg13
Nsg14
(lp275
(i__main__
Token
p276
(dp277
g18
I227
sbasg19
Nsba(i__main__
Mention
p278
(dp279
g7
S't5'
p280
sg9
Nsg10
S'i40'
p281
sg12
Nsg13
Nsg14
(lp282
(i__main__
Token
p283
(dp284
g18
I237
sbasg19
Nsbasg7
g209
sg56
Nsba(i__main__
Chain
p285
(dp286
g3
(lp287
(i__main__
Mention
p288
(dp289
g7
S't6'
p290
sg9
Nsg10
S'i10'
p291
sg12
Nsg13
Nsg14
(lp292
(i__main__
Token
p293
(dp294
g18
I73
sba(i__main__
Token
p295
(dp296
g18
I74
sba(i__main__
Token
p297
(dp298
g18
I75
sba(i__main__
Token
p299
(dp300
g18
I76
sba(i__main__
Token
p301
(dp302
g18
I77
sba(i__main__
Token
p303
(dp304
g18
I78
sba(i__main__
Token
p305
(dp306
g18
I79
sba(i__main__
Token
p307
(dp308
g18
I80
sba(i__main__
Token
p309
(dp310
g18
I81
sba(i__main__
Token
p311
(dp312
g18
I82
sba(i__main__
Token
p313
(dp314
g18
I83
sba(i__main__
Token
p315
(dp316
g18
I84
sba(i__main__
Token
p317
(dp318
g18
I85
sba(i__main__
Token
p319
(dp320
g18
I86
sba(i__main__
Token
p321
(dp322
g18
I87
sba(i__main__
Token
p323
(dp324
g18
I88
sba(i__main__
Token
p325
(dp326
g18
I89
sba(i__main__
Token
p327
(dp328
g18
I90
sbasg19
I89
sba(i__main__
Mention
p329
(dp330
g7
S't6'
p331
sg9
S'Anaphora-E'
p332
sg10
S'i13'
p333
sg12
S'i10'
p334
sg13
Nsg14
(lp335
(i__main__
Token
p336
(dp337
g18
I96
sbasg19
I96
sbasg7
g290
sg56
Nsba(i__main__
Chain
p338
(dp339
g3
(lp340
(i__main__
Mention
p341
(dp342
g7
S't7'
p343
sg9
Nsg10
S'i18'
p344
sg12
Nsg13
Nsg14
(lp345
(i__main__
Token
p346
(dp347
g18
I125
sbasg19
I125
sba(i__main__
Mention
p348
(dp349
g7
S't7'
p350
sg9
S'Coreference-PartOf'
p351
sg10
S'i21'
p352
sg12
S'i32'
p353
sg13
Nsg14
(lp354
(i__main__
Token
p355
(dp356
g18
I141
sba(i__main__
Token
p357
(dp358
g18
I142
sbasg19
I142
sba(i__main__
Mention
p359
(dp360
g7
S't7'
p361
sg9
S'Anaphora-C'
p362
sg10
S'i23'
p363
sg12
S'i21'
p364
sg13
Nsg14
(lp365
(i__main__
Token
p366
(dp367
g18
I147
sbasg19
I147
sba(i__main__
Mention
p368
(dp369
g7
S't7'
p370
sg9
S'Coreference-RPartOf'
p371
sg10
S'i35'
p372
sg12
S'i23'
p373
sg13
Nsg14
(lp374
(i__main__
Token
p375
(dp376
g18
I205
sbasg19
I205
sba(i__main__
Mention
p377
(dp378
g7
S't7'
p379
sg9
S'Coreference-Identity'
p380
sg10
S'i39'
p381
sg12
S'i35'
p382
sg13
Nsg14
(lp383
(i__main__
Token
p384
(dp385
g18
I229
sbasg19
I229
sba(i__main__
Mention
p386
(dp387
g7
S't7'
p388
sg9
S'Coreference-Identity'
p389
sg10
S'i42'
p390
sg12
S'i39'
p391
sg13
Nsg14
(lp392
(i__main__
Token
p393
(dp394
g18
I239
sbasg19
I239
sbasg7
g343
sg56
Nsba(i__main__
Chain
p395
(dp396
g3
(lp397
(i__main__
Mention
p398
(dp399
g7
S't8'
p400
sg9
Nsg10
S'i24'
p401
sg12
Nsg13
Nsg14
(lp402
(i__main__
Token
p403
(dp404
g18
I165
sbasg19
I165
sba(i__main__
Mention
p405
(dp406
g7
S't8'
p407
sg9
S'Coreference-NounComplement'
p408
sg10
S'i25'
p409
sg12
S'i24'
p410
sg13
Nsg14
(lp411
(i__main__
Token
p412
(dp413
g18
I166
sbasg19
I166
sba(i__main__
Mention
p414
(dp415
g7
S't8'
p416
sg9
S'Anaphora-C'
p417
sg10
S'i27'
p418
sg12
S'i25'
p419
sg13
Nsg14
(lp420
(i__main__
Token
p421
(dp422
g18
I172
sbasg19
I172
sba(i__main__
Mention
p423
(dp424
g7
S't8'
p425
sg9
S'Anaphora-C'
p426
sg10
S'i29'
p427
sg12
S'i27'
p428
sg13
Nsg14
(lp429
(i__main__
Token
p430
(dp431
g18
I185
sbasg19
I185
sba(i__main__
Mention
p432
(dp433
g7
S't8'
p434
sg9
S'Anaphora-C'
p435
sg10
S'i36'
p436
sg12
S'i29'
p437
sg13
Nsg14
(lp438
(i__main__
Token
p439
(dp440
g18
I217
sbasg19
I217
sbasg7
g400
sg56
Nsba(i__main__
Chain
p441
(dp442
g3
(lp443
(i__main__
Mention
p444
(dp445
g7
S't9'
p446
sg9
Nsg10
S'i31'
p447
sg12
Nsg13
Nsg14
(lp448
(i__main__
Token
p449
(dp450
g18
I194
sbasg19
Nsba(i__main__
Mention
p451
(dp452
g7
S't9'
p453
sg9
Nsg10
S'i34'
p454
sg12
Nsg13
Nsg14
(lp455
(i__main__
Token
p456
(dp457
g18
I200
sba(i__main__
Token
p458
(dp459
g18
I201
sbasg19
Nsba(i__main__
Mention
p460
(dp461
g7
S't9'
p462
sg9
Nsg10
S'i38'
p463
sg12
Nsg13
Nsg14
(lp464
(i__main__
Token
p465
(dp466
g18
I227
sbasg19
Nsba(i__main__
Mention
p467
(dp468
g7
S't9'
p469
sg9
Nsg10
S'i41'
p470
sg12
Nsg13
Nsg14
(lp471
(i__main__
Token
p472
(dp473
g18
I237
sbasg19
Nsbasg7
g446
sg56
Nsba(i__main__
Chain
p474
(dp475
g3
(lp476
(i__main__
Mention
p477
(dp478
g7
S't10'
p479
sg9
Nsg10
S'i43'
p480
sg12
Nsg13
Nsg14
(lp481
(i__main__
Token
p482
(dp483
g18
I243
sbasg19
I243
sbasg7
g479
sg56
Nsba(i__main__
Chain
p484
(dp485
g3
(lp486
(i__main__
Mention
p487
(dp488
g7
S't11'
p489
sg9
Nsg10
S'i44'
p490
sg12
Nsg13
Nsg14
(lp491
(i__main__
Token
p492
(dp493
g18
I246
sba(i__main__
Token
p494
(dp495
g18
I247
sba(i__main__
Token
p496
(dp497
g18
I248
sba(i__main__
Token
p498
(dp499
g18
I249
sbasg19
I249
sba(i__main__
Mention
p500
(dp501
g7
S't11'
p502
sg9
S'Anaphora-C'
p503
sg10
S'i45'
p504
sg12
S'i44'
p505
sg13
Nsg14
(lp506
(i__main__
Token
p507
(dp508
g18
I253
sbasg19
I253
sbasg7
g489
sg56
Nsba(i__main__
Chain
p509
(dp510
g3
(lp511
(i__main__
Mention
p512
(dp513
g7
S't12'
p514
sg9
Nsg10
S'i47'
p515
sg12
Nsg13
Nsg14
(lp516
(i__main__
Token
p517
(dp518
g18
I271
sba(i__main__
Token
p519
(dp520
g18
I272
sbasg19
I272
sba(i__main__
Mention
p521
(dp522
g7
S't12'
p523
sg9
S'Coreference-NounComplement'
p524
sg10
S'i48'
p525
sg12
S'i47'
p526
sg13
Nsg14
(lp527
(i__main__
Token
p528
(dp529
g18
I273
sba(i__main__
Token
p530
(dp531
g18
I274
sba(i__main__
Token
p532
(dp533
g18
I275
sbasg19
I275
sbasg7
g514
sg56
Nsba(i__main__
Chain
p534
(dp535
g3
(lp536
(i__main__
Mention
p537
(dp538
g7
S't13'
p539
sg9
Nsg10
S'i51'
p540
sg12
Nsg13
Nsg14
(lp541
(i__main__
Token
p542
(dp543
g18
I308
sba(i__main__
Token
p544
(dp545
g18
I309
sbasg19
I309
sba(i__main__
Mention
p546
(dp547
g7
S't13'
p548
sg9
S'Anaphora-C'
p549
sg10
S'i52'
p550
sg12
S'i51'
p551
sg13
Nsg14
(lp552
(i__main__
Token
p553
(dp554
g18
I319
sbasg19
I319
sbasg7
g539
sg56
Nsba(i__main__
Chain
p555
(dp556
g3
(lp557
(i__main__
Mention
p558
(dp559
g7
S't14'
p560
sg9
Nsg10
S'i54'
p561
sg12
Nsg13
Nsg14
(lp562
(i__main__
Token
p563
(dp564
g18
I331
sba(i__main__
Token
p565
(dp566
g18
I332
sbasg19
I332
sba(i__main__
Mention
p567
(dp568
g7
S't14'
p569
sg9
S'Anaphora-C'
p570
sg10
S'i55'
p571
sg12
S'i54'
p572
sg13
Nsg14
(lp573
(i__main__
Token
p574
(dp575
g18
I336
sbasg19
I336
sbasg7
g560
sg56
Nsba.