(lp0
(i__main__
Chain
p1
(dp2
S'mentionList'
p3
(lp4
(i__main__
Mention
p5
(dp6
S'chainId'
p7
S't1'
p8
sS'relType'
p9
NsS'mentionId'
p10
S'i1'
p11
sS'antecedentId'
p12
NsS'crefMod'
p13
NsS'tokenList'
p14
(lp15
(i__main__
Token
p16
(dp17
S'tokenId'
p18
I0
sbasS'mentionHead'
p19
I0
sba(i__main__
Mention
p20
(dp21
g7
S't1'
p22
sg9
Nsg10
S'i10'
p23
sg12
Nsg13
Nsg14
(lp24
(i__main__
Token
p25
(dp26
g18
I38
sba(i__main__
Token
p27
(dp28
g18
I39
sbasg19
Nsba(i__main__
Mention
p29
(dp30
g7
S't1'
p31
sg9
Nsg10
S'i18'
p32
sg12
Nsg13
Nsg14
(lp33
(i__main__
Token
p34
(dp35
g18
I75
sba(i__main__
Token
p36
(dp37
g18
I76
sbasg19
Nsba(i__main__
Mention
p38
(dp39
g7
S't1'
p40
sg9
Nsg10
S'i22'
p41
sg12
Nsg13
Nsg14
(lp42
(i__main__
Token
p43
(dp44
g18
I88
sba(i__main__
Token
p45
(dp46
g18
I89
sbasg19
Nsbasg7
g8
sS'chainHead'
p47
Nsba(i__main__
Chain
p48
(dp49
g3
(lp50
(i__main__
Mention
p51
(dp52
g7
S't2'
p53
sg9
Nsg10
S'i2'
p54
sg12
Nsg13
Nsg14
(lp55
(i__main__
Token
p56
(dp57
g18
I2
sbasg19
I2
sba(i__main__
Mention
p58
(dp59
g7
S't2'
p60
sg9
Nsg10
S'i11'
p61
sg12
Nsg13
Nsg14
(lp62
(i__main__
Token
p63
(dp64
g18
I38
sba(i__main__
Token
p65
(dp66
g18
I39
sbasg19
Nsba(i__main__
Mention
p67
(dp68
g7
S't2'
p69
sg9
Nsg10
S'i19'
p70
sg12
Nsg13
Nsg14
(lp71
(i__main__
Token
p72
(dp73
g18
I75
sba(i__main__
Token
p74
(dp75
g18
I76
sbasg19
Nsba(i__main__
Mention
p76
(dp77
g7
S't2'
p78
sg9
Nsg10
S'i23'
p79
sg12
Nsg13
Nsg14
(lp80
(i__main__
Token
p81
(dp82
g18
I88
sba(i__main__
Token
p83
(dp84
g18
I89
sbasg19
Nsbasg7
g53
sg47
Nsba(i__main__
Chain
p85
(dp86
g3
(lp87
(i__main__
Mention
p88
(dp89
g7
S't3'
p90
sg9
Nsg10
S'i3'
p91
sg12
Nsg13
Nsg14
(lp92
(i__main__
Token
p93
(dp94
g18
I4
sbasg19
I4
sba(i__main__
Mention
p95
(dp96
g7
S't3'
p97
sg9
Nsg10
S'i9'
p98
sg12
Nsg13
Nsg14
(lp99
(i__main__
Token
p100
(dp101
g18
I38
sba(i__main__
Token
p102
(dp103
g18
I39
sbasg19
Nsba(i__main__
Mention
p104
(dp105
g7
S't3'
p106
sg9
S'Coreference-Identity'
p107
sg10
S'i15'
p108
sg12
S'i9'
p109
sg13
Nsg14
(lp110
(i__main__
Token
p111
(dp112
g18
I63
sbasg19
I63
sba(i__main__
Mention
p113
(dp114
g7
S't3'
p115
sg9
Nsg10
S'i17'
p116
sg12
Nsg13
Nsg14
(lp117
(i__main__
Token
p118
(dp119
g18
I75
sba(i__main__
Token
p120
(dp121
g18
I76
sbasg19
Nsba(i__main__
Mention
p122
(dp123
g7
S't3'
p124
sg9
Nsg10
S'i21'
p125
sg12
Nsg13
Nsg14
(lp126
(i__main__
Token
p127
(dp128
g18
I88
sba(i__main__
Token
p129
(dp130
g18
I89
sbasg19
Nsba(i__main__
Mention
p131
(dp132
g7
S't3'
p133
sg9
S'Coreference-Identity'
p134
sg10
S'i27'
p135
sg12
S'i21'
p136
sg13
Nsg14
(lp137
(i__main__
Token
p138
(dp139
g18
I121
sbasg19
I121
sbasg7
g90
sg47
Nsba(i__main__
Chain
p140
(dp141
g3
(lp142
(i__main__
Mention
p143
(dp144
g7
S't4'
p145
sg9
Nsg10
S'i4'
p146
sg12
Nsg13
Nsg14
(lp147
(i__main__
Token
p148
(dp149
g18
I12
sbasg19
I12
sba(i__main__
Mention
p150
(dp151
g7
S't4'
p152
sg9
S'Anaphora-C'
p153
sg10
S'i7'
p154
sg12
S'i4'
p155
sg13
Nsg14
(lp156
(i__main__
Token
p157
(dp158
g18
I25
sbasg19
I25
sba(i__main__
Mention
p159
(dp160
g7
S't4'
p161
sg9
S'Coreference-Identity'
p162
sg10
S'i13'
p163
sg12
S'i7'
p164
sg13
Nsg14
(lp165
(i__main__
Token
p166
(dp167
g18
I52
sbasg19
I52
sba(i__main__
Mention
p168
(dp169
g7
S't4'
p170
sg9
S'Coreference-Identity'
p171
sg10
S'i28'
p172
sg12
S'i13'
p173
sg13
Nsg14
(lp174
(i__main__
Token
p175
(dp176
g18
I146
sbasg19
I146
sbasg7
g145
sg47
Nsba(i__main__
Chain
p177
(dp178
g3
(lp179
(i__main__
Mention
p180
(dp181
g7
S't5'
p182
sg9
Nsg10
S'i5'
p183
sg12
Nsg13
Nsg14
(lp184
(i__main__
Token
p185
(dp186
g18
I21
sbasg19
I21
sba(i__main__
Mention
p187
(dp188
g7
S't5'
p189
sg9
S'Coreference-Identity'
p190
sg10
S'i12'
p191
sg12
S'i5'
p192
sg13
Nsg14
(lp193
(i__main__
Token
p194
(dp195
g18
I46
sbasg19
I46
sba(i__main__
Mention
p196
(dp197
g7
S't5'
p198
sg9
S'Anaphora-C'
p199
sg10
S'i14'
p200
sg12
S'i12'
p201
sg13
Nsg14
(lp202
(i__main__
Token
p203
(dp204
g18
I54
sbasg19
I54
sba(i__main__
Mention
p205
(dp206
g7
S't5'
p207
sg9
S'Coreference-Identity'
p208
sg10
S'i20'
p209
sg12
S'i14'
p210
sg13
Nsg14
(lp211
(i__main__
Token
p212
(dp213
g18
I78
sbasg19
I78
sba(i__main__
Mention
p214
(dp215
g7
S't5'
p216
sg9
S'Coreference-Identity'
p217
sg10
S'i24'
p218
sg12
S'i20'
p219
sg13
Nsg14
(lp220
(i__main__
Token
p221
(dp222
g18
I91
sbasg19
I91
sba(i__main__
Mention
p223
(dp224
g7
S't5'
p225
sg9
S'Coreference-Identity'
p226
sg10
S'i26'
p227
sg12
S'i24'
p228
sg13
Nsg14
(lp229
(i__main__
Token
p230
(dp231
g18
I116
sbasg19
I116
sbasg7
g182
sg47
Nsba(i__main__
Chain
p232
(dp233
g3
(lp234
(i__main__
Mention
p235
(dp236
g7
S't6'
p237
sg9
Nsg10
S'i6'
p238
sg12
Nsg13
Nsg14
(lp239
(i__main__
Token
p240
(dp241
g18
I24
sbasg19
I24
sbasg7
g237
sg47
Nsba(i__main__
Chain
p242
(dp243
g3
(lp244
(i__main__
Mention
p245
(dp246
g7
S't7'
p247
sg9
Nsg10
S'i8'
p248
sg12
Nsg13
Nsg14
(lp249
(i__main__
Token
p250
(dp251
g18
I33
sba(i__main__
Token
p252
(dp253
g18
I34
sbasg19
I34
sba(i__main__
Mention
p254
(dp255
g7
S't7'
p256
sg9
S'Coreference-Identity'
p257
sg10
S'i16'
p258
sg12
S'i8'
p259
sg13
Nsg14
(lp260
(i__main__
Token
p261
(dp262
g18
I69
sba(i__main__
Token
p263
(dp264
g18
I70
sbasg19
I70
sba(i__main__
Mention
p265
(dp266
g7
S't7'
p267
sg9
S'Coreference-Identity'
p268
sg10
S'i25'
p269
sg12
S'i16'
p270
sg13
Nsg14
(lp271
(i__main__
Token
p272
(dp273
g18
I100
sba(i__main__
Token
p274
(dp275
g18
I101
sbasg19
I101
sbasg7
g247
sg47
Nsba(i__main__
Chain
p276
(dp277
g3
(lp278
(i__main__
Mention
p279
(dp280
g7
S't8'
p281
sg9
Nsg10
S'i29'
p282
sg12
Nsg13
Nsg14
(lp283
(i__main__
Token
p284
(dp285
g18
I172
sbasg19
I172
sba(i__main__
Mention
p286
(dp287
g7
S't8'
p288
sg9
S'Anaphora-C'
p289
sg10
S'i30'
p290
sg12
S'i29'
p291
sg13
Nsg14
(lp292
(i__main__
Token
p293
(dp294
g18
I180
sbasg19
I180
sbasg7
g281
sg47
Nsba(i__main__
Chain
p295
(dp296
g3
(lp297
(i__main__
Mention
p298
(dp299
g7
S't9'
p300
sg9
Nsg10
S'i31'
p301
sg12
Nsg13
Nsg14
(lp302
(i__main__
Token
p303
(dp304
g18
I191
sba(i__main__
Token
p305
(dp306
g18
I192
sbasg19
I192
sba(i__main__
Mention
p307
(dp308
g7
S't9'
p309
sg9
S'Coreference-Noun-Noun'
p310
sg10
S'i32'
p311
sg12
S'i31'
p312
sg13
Nsg14
(lp313
(i__main__
Token
p314
(dp315
g18
I200
sbasg19
I200
sbasg7
g300
sg47
Nsba(i__main__
Chain
p316
(dp317
g3
(lp318
(i__main__
Mention
p319
(dp320
g7
S't10'
p321
sg9
Nsg10
S'i33'
p322
sg12
Nsg13
Nsg14
(lp323
(i__main__
Token
p324
(dp325
g18
I202
sbasg19
I202
sbasg7
g321
sg47
Nsba(i__main__
Chain
p326
(dp327
g3
(lp328
(i__main__
Mention
p329
(dp330
g7
S't11'
p331
sg9
Nsg10
S'i34'
p332
sg12
Nsg13
Nsg14
(lp333
(i__main__
Token
p334
(dp335
g18
I205
sbasg19
I205
sbasg7
g331
sg47
Nsba.