(lp0
(i__main__
Chain
p1
(dp2
S'mentionList'
p3
(lp4
(i__main__
Mention
p5
(dp6
S'chainId'
p7
S't1'
p8
sS'relType'
p9
NsS'mentionId'
p10
S'i1'
p11
sS'antecedentId'
p12
NsS'crefMod'
p13
NsS'tokenList'
p14
(lp15
(i__main__
Token
p16
(dp17
S'tokenId'
p18
I0
sbasS'mentionHead'
p19
I0
sba(i__main__
Mention
p20
(dp21
g7
S't1'
p22
sg9
S'Coreference-Identity'
p23
sg10
S'i5'
p24
sg12
S'i1'
p25
sg13
Nsg14
(lp26
(i__main__
Token
p27
(dp28
g18
I39
sbasg19
I39
sba(i__main__
Mention
p29
(dp30
g7
S't1'
p31
sg9
S'Coreference-Noun-Noun'
p32
sg10
S'i14'
p33
sg12
S'i5'
p34
sg13
Nsg14
(lp35
(i__main__
Token
p36
(dp37
g18
I108
sbasg19
I108
sbasg7
g8
sS'chainHead'
p38
Nsba(i__main__
Chain
p39
(dp40
g3
(lp41
(i__main__
Mention
p42
(dp43
g7
S't2'
p44
sg9
Nsg10
S'i2'
p45
sg12
Nsg13
Nsg14
(lp46
(i__main__
Token
p47
(dp48
g18
I10
sbasg19
I10
sba(i__main__
Mention
p49
(dp50
g7
S't2'
p51
sg9
S'Coreference-Identity'
p52
sg10
S'i8'
p53
sg12
S'i2'
p54
sg13
Nsg14
(lp55
(i__main__
Token
p56
(dp57
g18
I65
sbasg19
I65
sbasg7
g44
sg38
Nsba(i__main__
Chain
p58
(dp59
g3
(lp60
(i__main__
Mention
p61
(dp62
g7
S't3'
p63
sg9
Nsg10
S'i3'
p64
sg12
Nsg13
Nsg14
(lp65
(i__main__
Token
p66
(dp67
g18
I13
sba(i__main__
Token
p68
(dp69
g18
I14
sbasg19
I14
sba(i__main__
Mention
p70
(dp71
g7
S't3'
p72
sg9
S'Coreference-Identity'
p73
sg10
S'i19'
p74
sg12
S'i3'
p75
sg13
Nsg14
(lp76
(i__main__
Token
p77
(dp78
g18
I188
sba(i__main__
Token
p79
(dp80
g18
I189
sbasg19
I189
sba(i__main__
Mention
p81
(dp82
g7
S't3'
p83
sg9
S'Coreference-Identity'
p84
sg10
S'i22'
p85
sg12
S'i19'
p86
sg13
Nsg14
(lp87
(i__main__
Token
p88
(dp89
g18
I217
sba(i__main__
Token
p90
(dp91
g18
I218
sbasg19
I218
sbasg7
g63
sg38
Nsba(i__main__
Chain
p92
(dp93
g3
(lp94
(i__main__
Mention
p95
(dp96
g7
S't4'
p97
sg9
Nsg10
S'i4'
p98
sg12
Nsg13
Nsg14
(lp99
(i__main__
Token
p100
(dp101
g18
I20
sbasg19
I20
sba(i__main__
Mention
p102
(dp103
g7
S't4'
p104
sg9
S'Coreference-Identity'
p105
sg10
S'i10'
p106
sg12
S'i4'
p107
sg13
Nsg14
(lp108
(i__main__
Token
p109
(dp110
g18
I81
sbasg19
I81
sba(i__main__
Mention
p111
(dp112
g7
S't4'
p113
sg9
S'Coreference-Identity'
p114
sg10
S'i17'
p115
sg12
S'i10'
p116
sg13
Nsg14
(lp117
(i__main__
Token
p118
(dp119
g18
I153
sbasg19
I153
sba(i__main__
Mention
p120
(dp121
g7
S't4'
p122
sg9
S'Coreference-Identity'
p123
sg10
S'i20'
p124
sg12
S'i17'
p125
sg13
Nsg14
(lp126
(i__main__
Token
p127
(dp128
g18
I191
sbasg19
I191
sba(i__main__
Mention
p129
(dp130
g7
S't4'
p131
sg9
S'Coreference-Identity'
p132
sg10
S'i23'
p133
sg12
S'i20'
p134
sg13
Nsg14
(lp135
(i__main__
Token
p136
(dp137
g18
I222
sbasg19
I222
sbasg7
g97
sg38
Nsba(i__main__
Chain
p138
(dp139
g3
(lp140
(i__main__
Mention
p141
(dp142
g7
S't5'
p143
sg9
Nsg10
S'i6'
p144
sg12
Nsg13
Nsg14
(lp145
(i__main__
Token
p146
(dp147
g18
I53
sba(i__main__
Token
p148
(dp149
g18
I54
sba(i__main__
Token
p150
(dp151
g18
I55
sbasg19
I55
sba(i__main__
Mention
p152
(dp153
g7
S't5'
p154
sg9
S'Coreference-NounComplement'
p155
sg10
S'i7'
p156
sg12
S'i6'
p157
sg13
Nsg14
(lp158
(i__main__
Token
p159
(dp160
g18
I56
sba(i__main__
Token
p161
(dp162
g18
I57
sba(i__main__
Token
p163
(dp164
g18
I58
sbasg19
I58
sbasg7
g143
sg38
Nsba(i__main__
Chain
p165
(dp166
g3
(lp167
(i__main__
Mention
p168
(dp169
g7
S't6'
p170
sg9
Nsg10
S'i9'
p171
sg12
Nsg13
Nsg14
(lp172
(i__main__
Token
p173
(dp174
g18
I68
sbasg19
I68
sba(i__main__
Mention
p175
(dp176
g7
S't6'
p177
sg9
S'Coreference-Identity'
p178
sg10
S'i13'
p179
sg12
S'i9'
p180
sg13
Nsg14
(lp181
(i__main__
Token
p182
(dp183
g18
I101
sbasg19
I101
sbasg7
g170
sg38
Nsba(i__main__
Chain
p184
(dp185
g3
(lp186
(i__main__
Mention
p187
(dp188
g7
S't7'
p189
sg9
Nsg10
S'i11'
p190
sg12
Nsg13
Nsg14
(lp191
(i__main__
Token
p192
(dp193
g18
I81
sba(i__main__
Token
p194
(dp195
g18
I82
sba(i__main__
Token
p196
(dp197
g18
I83
sba(i__main__
Token
p198
(dp199
g18
I84
sba(i__main__
Token
p200
(dp201
g18
I85
sbasg19
I85
sba(i__main__
Mention
p202
(dp203
g7
S't7'
p204
sg9
S'Coreference-Identity'
p205
sg10
S'i16'
p206
sg12
S'i11'
p207
sg13
Nsg14
(lp208
(i__main__
Token
p209
(dp210
g18
I127
sba(i__main__
Token
p211
(dp212
g18
I128
sbasg19
I128
sba(i__main__
Mention
p213
(dp214
g7
S't7'
p215
sg9
S'Anaphora-C'
p216
sg10
S'i18'
p217
sg12
S'i16'
p218
sg13
Nsg14
(lp219
(i__main__
Token
p220
(dp221
g18
I186
sbasg19
I186
sbasg7
g189
sg38
Nsba(i__main__
Chain
p222
(dp223
g3
(lp224
(i__main__
Mention
p225
(dp226
g7
S't8'
p227
sg9
Nsg10
S'i12'
p228
sg12
Nsg13
Nsg14
(lp229
(i__main__
Token
p230
(dp231
g18
I98
sbasg19
I98
sbasg7
g227
sg38
Nsba(i__main__
Chain
p232
(dp233
g3
(lp234
(i__main__
Mention
p235
(dp236
g7
S't9'
p237
sg9
Nsg10
S'i15'
p238
sg12
Nsg13
Nsg14
(lp239
(i__main__
Token
p240
(dp241
g18
I121
sba(i__main__
Token
p242
(dp243
g18
I122
sba(i__main__
Token
p244
(dp245
g18
I123
sbasg19
I123
sba(i__main__
Mention
p246
(dp247
g7
S't9'
p248
sg9
S'Coreference-Identity'
p249
sg10
S'i21'
p250
sg12
S'i15'
p251
sg13
Nsg14
(lp252
(i__main__
Token
p253
(dp254
g18
I193
sba(i__main__
Token
p255
(dp256
g18
I194
sbasg19
I194
sbasg7
g237
sg38
Nsba(i__main__
Chain
p257
(dp258
g3
(lp259
(i__main__
Mention
p260
(dp261
g7
S't10'
p262
sg9
Nsg10
S'i24'
p263
sg12
Nsg13
Nsg14
(lp264
(i__main__
Token
p265
(dp266
g18
I230
sba(i__main__
Token
p267
(dp268
g18
I231
sba(i__main__
Token
p269
(dp270
g18
I232
sba(i__main__
Token
p271
(dp272
g18
I233
sbasg19
I233
sba(i__main__
Mention
p273
(dp274
g7
S't10'
p275
sg9
S'Anaphora-C'
p276
sg10
S'i25'
p277
sg12
S'i24'
p278
sg13
Nsg14
(lp279
(i__main__
Token
p280
(dp281
g18
I239
sbasg19
I239
sbasg7
g262
sg38
Nsba.