(lp0
(i__main__
Chain
p1
(dp2
S'mentionList'
p3
(lp4
(i__main__
Mention
p5
(dp6
S'chainId'
p7
S't1'
p8
sS'relType'
p9
NsS'mentionId'
p10
S'i1'
p11
sS'antecedentId'
p12
NsS'crefMod'
p13
NsS'tokenList'
p14
(lp15
(i__main__
Token
p16
(dp17
S'tokenId'
p18
I0
sba(i__main__
Token
p19
(dp20
g18
I1
sbasS'mentionHead'
p21
I1
sba(i__main__
Mention
p22
(dp23
g7
S't1'
p24
sg9
S'Coreference-Identity'
p25
sg10
S'i4'
p26
sg12
S'i1'
p27
sg13
Nsg14
(lp28
(i__main__
Token
p29
(dp30
g18
I13
sbasg21
I13
sba(i__main__
Mention
p31
(dp32
g7
S't1'
p33
sg9
S'Coreference-Identity'
p34
sg10
S'i6'
p35
sg12
S'i4'
p36
sg13
Nsg14
(lp37
(i__main__
Token
p38
(dp39
g18
I22
sbasg21
I22
sba(i__main__
Mention
p40
(dp41
g7
S't1'
p42
sg9
S'Coreference-Noun-Noun'
p43
sg10
S'i7'
p44
sg12
S'i6'
p45
sg13
Nsg14
(lp46
(i__main__
Token
p47
(dp48
g18
I23
sba(i__main__
Token
p49
(dp50
g18
I24
sba(i__main__
Token
p51
(dp52
g18
I25
sba(i__main__
Token
p53
(dp54
g18
I26
sba(i__main__
Token
p55
(dp56
g18
I27
sba(i__main__
Token
p57
(dp58
g18
I28
sba(i__main__
Token
p59
(dp60
g18
I29
sba(i__main__
Token
p61
(dp62
g18
I30
sba(i__main__
Token
p63
(dp64
g18
I31
sba(i__main__
Token
p65
(dp66
g18
I32
sba(i__main__
Token
p67
(dp68
g18
I33
sba(i__main__
Token
p69
(dp70
g18
I34
sba(i__main__
Token
p71
(dp72
g18
I35
sba(i__main__
Token
p73
(dp74
g18
I36
sbasg21
I36
sba(i__main__
Mention
p75
(dp76
g7
S't1'
p77
sg9
S'Coreference-Noun-Noun'
p78
sg10
S'i13'
p79
sg12
S'i31'
p80
sg13
Nsg14
(lp81
(i__main__
Token
p82
(dp83
g18
I44
sba(i__main__
Token
p84
(dp85
g18
I45
sbasg21
I45
sba(i__main__
Mention
p86
(dp87
g7
S't1'
p88
sg9
S'Coreference-Identity'
p89
sg10
S'i15'
p90
sg12
S'i13'
p91
sg13
Nsg14
(lp92
(i__main__
Token
p93
(dp94
g18
I53
sbasg21
I53
sba(i__main__
Mention
p95
(dp96
g7
S't1'
p97
sg9
S'Coreference-Identity'
p98
sg10
S'i17'
p99
sg12
S'i15'
p100
sg13
Nsg14
(lp101
(i__main__
Token
p102
(dp103
g18
I74
sbasg21
I74
sba(i__main__
Mention
p104
(dp105
g7
S't1'
p106
sg9
S'Anaphora-C'
p107
sg10
S'i20'
p108
sg12
S'i17'
p109
sg13
Nsg14
(lp110
(i__main__
Token
p111
(dp112
g18
I87
sbasg21
I87
sbasg7
g8
sS'chainHead'
p113
Nsba(i__main__
Chain
p114
(dp115
g3
(lp116
(i__main__
Mention
p117
(dp118
g7
S't2'
p119
sg9
Nsg10
S'i2'
p120
sg12
Nsg13
Nsg14
(lp121
(i__main__
Token
p122
(dp123
g18
I4
sba(i__main__
Token
p124
(dp125
g18
I5
sba(i__main__
Token
p126
(dp127
g18
I6
sba(i__main__
Token
p128
(dp129
g18
I7
sbasg21
I7
sba(i__main__
Mention
p130
(dp131
g7
S't2'
p132
sg9
S'Coreference-Identity'
p133
sg10
S'i9'
p134
sg12
S'i2'
p135
sg13
Nsg14
(lp136
(i__main__
Token
p137
(dp138
g18
I30
sbasg21
I30
sbasg7
g119
sg113
Nsba(i__main__
Chain
p139
(dp140
g3
(lp141
(i__main__
Mention
p142
(dp143
g7
S't3'
p144
sg9
Nsg10
S'i3'
p145
sg12
Nsg13
Nsg14
(lp146
(i__main__
Token
p147
(dp148
g18
I4
sba(i__main__
Token
p149
(dp150
g18
I5
sba(i__main__
Token
p151
(dp152
g18
I6
sbasg21
I6
sba(i__main__
Mention
p153
(dp154
g7
S't3'
p155
sg9
S'Coreference-Identity'
p156
sg10
S'i8'
p157
sg12
S'i3'
p158
sg13
Nsg14
(lp159
(i__main__
Token
p160
(dp161
g18
I27
sba(i__main__
Token
p162
(dp163
g18
I28
sbasg21
I28
sba(i__main__
Mention
p164
(dp165
g7
S't3'
p166
sg9
S'Coreference-Identity'
p167
sg10
S'i19'
p168
sg12
S'i29'
p169
sg13
Nsg14
(lp170
(i__main__
Token
p171
(dp172
g18
I82
sba(i__main__
Token
p173
(dp174
g18
I83
sbasg21
I83
sbasg7
g144
sg113
Nsba(i__main__
Chain
p175
(dp176
g3
(lp177
(i__main__
Mention
p178
(dp179
g7
S't4'
p180
sg9
S'anaphora-E'
p181
sg10
S'i10'
p182
sg12
S'i11'
p183
sg13
Nsg14
(lp184
(i__main__
Token
p185
(dp186
g18
I39
sbasg21
I39
sbasg7
g180
sg113
Nsba(i__main__
Chain
p187
(dp188
g3
(lp189
(i__main__
Mention
p190
(dp191
g7
S't5'
p192
sg9
Nsg10
S'i12'
p193
sg12
Nsg13
Nsg14
(lp194
(i__main__
Token
p195
(dp196
g18
I41
sba(i__main__
Token
p197
(dp198
g18
I42
sbasg21
I42
sba(i__main__
Mention
p199
(dp200
g7
S't5'
p201
sg9
S'Coreference-Identity'
p202
sg10
S'i16'
p203
sg12
S'i12'
p204
sg13
Nsg14
(lp205
(i__main__
Token
p206
(dp207
g18
I58
sbasg21
I58
sbasg7
g192
sg113
Nsba(i__main__
Chain
p208
(dp209
g3
(lp210
(i__main__
Mention
p211
(dp212
g7
S't6'
p213
sg9
Nsg10
S'i18'
p214
sg12
Nsg13
Nsg14
(lp215
(i__main__
Token
p216
(dp217
g18
I82
sba(i__main__
Token
p218
(dp219
g18
I83
sba(i__main__
Token
p220
(dp221
g18
I84
sba(i__main__
Token
p222
(dp223
g18
I85
sba(i__main__
Token
p224
(dp225
g18
I86
sba(i__main__
Token
p226
(dp227
g18
I87
sba(i__main__
Token
p228
(dp229
g18
I88
sba(i__main__
Token
p230
(dp231
g18
I89
sba(i__main__
Token
p232
(dp233
g18
I90
sba(i__main__
Token
p234
(dp235
g18
I91
sba(i__main__
Token
p236
(dp237
g18
I92
sba(i__main__
Token
p238
(dp239
g18
I93
sba(i__main__
Token
p240
(dp241
g18
I94
sba(i__main__
Token
p242
(dp243
g18
I95
sba(i__main__
Token
p244
(dp245
g18
I96
sba(i__main__
Token
p246
(dp247
g18
I97
sba(i__main__
Token
p248
(dp249
g18
I98
sba(i__main__
Token
p250
(dp251
g18
I99
sba(i__main__
Token
p252
(dp253
g18
I100
sba(i__main__
Token
p254
(dp255
g18
I101
sba(i__main__
Token
p256
(dp257
g18
I102
sbasg21
I102
sba(i__main__
Mention
p258
(dp259
g7
S't6'
p260
sg9
S'Anaphora-E'
p261
sg10
S'i24'
p262
sg12
S'i18'
p263
sg13
Nsg14
(lp264
(i__main__
Token
p265
(dp266
g18
I104
sbasg21
I104
sbasg7
g213
sg113
Nsba(i__main__
Chain
p267
(dp268
g3
(lp269
(i__main__
Mention
p270
(dp271
g7
S't7'
p272
sg9
Nsg10
S'i22'
p273
sg12
Nsg13
Nsg14
(lp274
(i__main__
Token
p275
(dp276
g18
I95
sba(i__main__
Token
p277
(dp278
g18
I96
sbasg21
I96
sba(i__main__
Mention
p279
(dp280
g7
S't7'
p281
sg9
S'Anaphora-C'
p282
sg10
S'i23'
p283
sg12
S'i22'
p284
sg13
Nsg14
(lp285
(i__main__
Token
p286
(dp287
g18
I98
sbasg21
I98
sbasg7
g272
sg113
Nsba.