(lp0
(i__main__
Chain
p1
(dp2
S'mentionList'
p3
(lp4
(i__main__
Mention
p5
(dp6
S'chainId'
p7
S't1'
p8
sS'relType'
p9
NsS'mentionId'
p10
S'i1'
p11
sS'antecedentId'
p12
NsS'crefMod'
p13
NsS'tokenList'
p14
(lp15
(i__main__
Token
p16
(dp17
S'tokenId'
p18
I0
sbasS'mentionHead'
p19
I0
sba(i__main__
Mention
p20
(dp21
g7
S't1'
p22
sg9
S'Coreference-Noun-Noun'
p23
sg10
S'i6'
p24
sg12
S'i1'
p25
sg13
Nsg14
(lp26
(i__main__
Token
p27
(dp28
g18
I21
sbasg19
I21
sba(i__main__
Mention
p29
(dp30
g7
S't1'
p31
sg9
S'Coreference-Identity'
p32
sg10
S'i16'
p33
sg12
S'i6'
p34
sg13
Nsg14
(lp35
(i__main__
Token
p36
(dp37
g18
I75
sbasg19
I75
sba(i__main__
Mention
p38
(dp39
g7
S't1'
p40
sg9
S'Coreference-Noun-Noun'
p41
sg10
S'i48'
p42
sg12
S'i16'
p43
sg13
Nsg14
(lp44
(i__main__
Token
p45
(dp46
g18
I227
sbasg19
I227
sba(i__main__
Mention
p47
(dp48
g7
S't1'
p49
sg9
S'Coreference-Identity'
p50
sg10
S'i50'
p51
sg12
S'i48'
p52
sg13
Nsg14
(lp53
(i__main__
Token
p54
(dp55
g18
I248
sbasg19
I248
sba(i__main__
Mention
p56
(dp57
g7
S't1'
p58
sg9
S'Coreference-Identity'
p59
sg10
S'i53'
p60
sg12
S'i50'
p61
sg13
Nsg14
(lp62
(i__main__
Token
p63
(dp64
g18
I271
sbasg19
I271
sbasg7
g8
sS'chainHead'
p65
Nsba(i__main__
Chain
p66
(dp67
g3
(lp68
(i__main__
Mention
p69
(dp70
g7
S't2'
p71
sg9
Nsg10
S'i2'
p72
sg12
Nsg13
Nsg14
(lp73
(i__main__
Token
p74
(dp75
g18
I2
sba(i__main__
Token
p76
(dp77
g18
I3
sbasg19
I3
sba(i__main__
Mention
p78
(dp79
g7
S't2'
p80
sg9
S'Coreference-Abbreviation'
p81
sg10
S'i7'
p82
sg12
S'i2'
p83
sg13
Nsg14
(lp84
(i__main__
Token
p85
(dp86
g18
I26
sbasg19
I26
sba(i__main__
Mention
p87
(dp88
g7
S't2'
p89
sg9
S'Coreference-Noun-Noun'
p90
sg10
S'i46'
p91
sg12
S'i7'
p92
sg13
Nsg14
(lp93
(i__main__
Token
p94
(dp95
g18
I215
sbasg19
I215
sbasg7
g71
sg65
Nsba(i__main__
Chain
p96
(dp97
g3
(lp98
(i__main__
Mention
p99
(dp100
g7
S't3'
p101
sg9
Nsg10
S'i3'
p102
sg12
Nsg13
Nsg14
(lp103
(i__main__
Token
p104
(dp105
g18
I5
sba(i__main__
Token
p106
(dp107
g18
I6
sbasg19
I6
sba(i__main__
Mention
p108
(dp109
g7
S't3'
p110
sg9
S'Coreference-Noun-Noun'
p111
sg10
S'i8'
p112
sg12
S'i3'
p113
sg13
Nsg14
(lp114
(i__main__
Token
p115
(dp116
g18
I36
sbasg19
I36
sba(i__main__
Mention
p117
(dp118
g7
S't3'
p119
sg9
S'Coreference-Noun-Noun'
p120
sg10
S'i18'
p121
sg12
S'i8'
p122
sg13
Nsg14
(lp123
(i__main__
Token
p124
(dp125
g18
I78
sbasg19
I78
sba(i__main__
Mention
p126
(dp127
g7
S't3'
p128
sg9
S'Coreference-Noun-Noun'
p129
sg10
S'i38'
p130
sg12
S'i18'
p131
sg13
Nsg14
(lp132
(i__main__
Token
p133
(dp134
g18
I182
sbasg19
I182
sbasg7
g101
sg65
Nsba(i__main__
Chain
p135
(dp136
g3
(lp137
(i__main__
Mention
p138
(dp139
g7
S't4'
p140
sg9
Nsg10
S'i4'
p141
sg12
Nsg13
Nsg14
(lp142
(i__main__
Token
p143
(dp144
g18
I8
sbasg19
I8
sba(i__main__
Mention
p145
(dp146
g7
S't4'
p147
sg9
S'Coreference-Identity'
p148
sg10
S'i30'
p149
sg12
S'i4'
p150
sg13
Nsg14
(lp151
(i__main__
Token
p152
(dp153
g18
I137
sbasg19
I137
sba(i__main__
Mention
p154
(dp155
g7
S't4'
p156
sg9
S'Coreference-Identity'
p157
sg10
S'i32'
p158
sg12
S'i30'
p159
sg13
Nsg14
(lp160
(i__main__
Token
p161
(dp162
g18
I149
sbasg19
I149
sba(i__main__
Mention
p163
(dp164
g7
S't4'
p165
sg9
S'Coreference-Identity'
p166
sg10
S'i36'
p167
sg12
S'i32'
p168
sg13
Nsg14
(lp169
(i__main__
Token
p170
(dp171
g18
I164
sbasg19
I164
sba(i__main__
Mention
p172
(dp173
g7
S't4'
p174
sg9
S'Coreference-Identity'
p175
sg10
S'i42'
p176
sg12
S'i36'
p177
sg13
Nsg14
(lp178
(i__main__
Token
p179
(dp180
g18
I202
sbasg19
I202
sbasg7
g140
sg65
Nsba(i__main__
Chain
p181
(dp182
g3
(lp183
(i__main__
Mention
p184
(dp185
g7
S't5'
p186
sg9
Nsg10
S'i5'
p187
sg12
Nsg13
Nsg14
(lp188
(i__main__
Token
p189
(dp190
g18
I10
sbasg19
I10
sba(i__main__
Mention
p191
(dp192
g7
S't5'
p193
sg9
S'Coreference-Identity'
p194
sg10
S'i33'
p195
sg12
S'i5'
p196
sg13
Nsg14
(lp197
(i__main__
Token
p198
(dp199
g18
I154
sbasg19
I154
sba(i__main__
Mention
p200
(dp201
g7
S't5'
p202
sg9
S'Anaphora-C'
p203
sg10
S'i37'
p204
sg12
S'i33'
p205
sg13
Nsg14
(lp206
(i__main__
Token
p207
(dp208
g18
I166
sbasg19
I166
sba(i__main__
Mention
p209
(dp210
g7
S't5'
p211
sg9
S'Anaphora-C'
p212
sg10
S'i47'
p213
sg12
S'i37'
p214
sg13
Nsg14
(lp215
(i__main__
Token
p216
(dp217
g18
I218
sbasg19
I218
sbasg7
g186
sg65
Nsba(i__main__
Chain
p218
(dp219
g3
(lp220
(i__main__
Mention
p221
(dp222
g7
S't6'
p223
sg9
Nsg10
S'i9'
p224
sg12
Nsg13
Nsg14
(lp225
(i__main__
Token
p226
(dp227
g18
I38
sbasg19
I38
sba(i__main__
Mention
p228
(dp229
g7
S't6'
p230
sg9
S'Coreference-NounComplement'
p231
sg10
S'i10'
p232
sg12
S'i9'
p233
sg13
Nsg14
(lp234
(i__main__
Token
p235
(dp236
g18
I39
sba(i__main__
Token
p237
(dp238
g18
I40
sba(i__main__
Token
p239
(dp240
g18
I41
sbasg19
I41
sba(i__main__
Mention
p241
(dp242
g7
S't6'
p243
sg9
S'Anaphora-C'
p244
sg10
S'i11'
p245
sg12
S'i10'
p246
sg13
Nsg14
(lp247
(i__main__
Token
p248
(dp249
g18
I42
sbasg19
I42
sba(i__main__
Mention
p250
(dp251
g7
S't6'
p252
sg9
S'Anaphora-C'
p253
sg10
S'i12'
p254
sg12
S'i11'
p255
sg13
Nsg14
(lp256
(i__main__
Token
p257
(dp258
g18
I43
sbasg19
I43
sba(i__main__
Mention
p259
(dp260
g7
S't6'
p261
sg9
S'Coreference-Noun-Noun'
p262
sg10
S'i21'
p263
sg12
S'i12'
p264
sg13
Nsg14
(lp265
(i__main__
Token
p266
(dp267
g18
I86
sbasg19
I86
sba(i__main__
Mention
p268
(dp269
g7
S't6'
p270
sg9
S'Coreference-NounComplement'
p271
sg10
S'i22'
p272
sg12
S'i21'
p273
sg13
Nsg14
(lp274
(i__main__
Token
p275
(dp276
g18
I87
sba(i__main__
Token
p277
(dp278
g18
I88
sba(i__main__
Token
p279
(dp280
g18
I89
sbasg19
I89
sba(i__main__
Mention
p281
(dp282
g7
S't6'
p283
sg9
S'Anaphora-C'
p284
sg10
S'i23'
p285
sg12
S'i22'
p286
sg13
Nsg14
(lp287
(i__main__
Token
p288
(dp289
g18
I90
sbasg19
I90
sba(i__main__
Mention
p290
(dp291
g7
S't6'
p292
sg9
S'Coreference-Identity'
p293
sg10
S'i28'
p294
sg12
S'i23'
p295
sg13
Nsg14
(lp296
(i__main__
Token
p297
(dp298
g18
I127
sba(i__main__
Token
p299
(dp300
g18
I128
sbasg19
I128
sba(i__main__
Mention
p301
(dp302
g7
S't6'
p303
sg9
S'Coreference-Identity'
p304
sg10
S'i49'
p305
sg12
S'i28'
p306
sg13
Nsg14
(lp307
(i__main__
Token
p308
(dp309
g18
I231
sba(i__main__
Token
p310
(dp311
g18
I232
sba(i__main__
Token
p312
(dp313
g18
I233
sbasg19
I233
sbasg7
g223
sg65
Nsba(i__main__
Chain
p314
(dp315
g3
(lp316
(i__main__
Mention
p317
(dp318
g7
S't7'
p319
sg9
Nsg10
S'i13'
p320
sg12
Nsg13
Nsg14
(lp321
(i__main__
Token
p322
(dp323
g18
I60
sba(i__main__
Token
p324
(dp325
g18
I61
sba(i__main__
Token
p326
(dp327
g18
I62
sba(i__main__
Token
p328
(dp329
g18
I63
sba(i__main__
Token
p330
(dp331
g18
I64
sba(i__main__
Token
p332
(dp333
g18
I65
sba(i__main__
Token
p334
(dp335
g18
I66
sbasg19
I65
sba(i__main__
Mention
p336
(dp337
g7
S't7'
p338
sg9
S'Anaphora-E'
p339
sg10
S'i14'
p340
sg12
S'i13'
p341
sg13
Nsg14
(lp342
(i__main__
Token
p343
(dp344
g18
I69
sbasg19
I69
sbasg7
g319
sg65
Nsba(i__main__
Chain
p345
(dp346
g3
(lp347
(i__main__
Mention
p348
(dp349
g7
S't8'
p350
sg9
Nsg10
S'i17'
p351
sg12
Nsg13
Nsg14
(lp352
(i__main__
Token
p353
(dp354
g18
I76
sbasg19
I76
sba(i__main__
Mention
p355
(dp356
g7
S't8'
p357
sg9
S'Coreference-Noun-Noun'
p358
sg10
S'i19'
p359
sg12
S'i17'
p360
sg13
Nsg14
(lp361
(i__main__
Token
p362
(dp363
g18
I80
sbasg19
I80
sba(i__main__
Mention
p364
(dp365
g7
S't8'
p366
sg9
S'Coreference-NounComplement'
p367
sg10
S'i20'
p368
sg12
S'i19'
p369
sg13
Nsg14
(lp370
(i__main__
Token
p371
(dp372
g18
I81
sba(i__main__
Token
p373
(dp374
g18
I82
sbasg19
I82
sba(i__main__
Mention
p375
(dp376
g7
S't8'
p377
sg9
S'Coreference-Identity'
p378
sg10
S'i34'
p379
sg12
S'i20'
p380
sg13
Nsg14
(lp381
(i__main__
Token
p382
(dp383
g18
I158
sbasg19
I158
sbasg7
g350
sg65
Nsba(i__main__
Chain
p384
(dp385
g3
(lp386
(i__main__
Mention
p387
(dp388
g7
S't9'
p389
sg9
S'anaphora-?'
p390
sg10
S'i24'
p391
sg12
S'i24'
p392
sg13
Nsg14
(lp393
(i__main__
Token
p394
(dp395
g18
I100
sbasg19
I100
sbasg7
g389
sg65
Nsba(i__main__
Chain
p396
(dp397
g3
(lp398
(i__main__
Mention
p399
(dp400
g7
S't10'
p401
sg9
Nsg10
S'i25'
p402
sg12
Nsg13
Nsg14
(lp403
(i__main__
Token
p404
(dp405
g18
I108
sbasg19
I108
sba(i__main__
Mention
p406
(dp407
g7
S't10'
p408
sg9
S'Anaphora-C'
p409
sg10
S'i26'
p410
sg12
S'i25'
p411
sg13
Nsg14
(lp412
(i__main__
Token
p413
(dp414
g18
I113
sbasg19
I113
sbasg7
g401
sg65
Nsba(i__main__
Chain
p415
(dp416
g3
(lp417
(i__main__
Mention
p418
(dp419
g7
S't11'
p420
sg9
Nsg10
S'i27'
p421
sg12
Nsg13
Nsg14
(lp422
(i__main__
Token
p423
(dp424
g18
I114
sba(i__main__
Token
p425
(dp426
g18
I115
sbasg19
I115
sba(i__main__
Mention
p427
(dp428
g7
S't11'
p429
sg9
S'Anaphora-C'
p430
sg10
S'i31'
p431
sg12
S'i27'
p432
sg13
Nsg14
(lp433
(i__main__
Token
p434
(dp435
g18
I140
sbasg19
I140
sbasg7
g420
sg65
Nsba(i__main__
Chain
p436
(dp437
g3
(lp438
(i__main__
Mention
p439
(dp440
g7
S't12'
p441
sg9
S'anaphora-?'
p442
sg10
S'i29'
p443
sg12
S'i29'
p444
sg13
Nsg14
(lp445
(i__main__
Token
p446
(dp447
g18
I133
sbasg19
I133
sbasg7
g441
sg65
Nsba(i__main__
Chain
p448
(dp449
g3
(lp450
(i__main__
Mention
p451
(dp452
g7
S't13'
p453
sg9
Nsg10
S'i35'
p454
sg12
Nsg13
Nsg14
(lp455
(i__main__
Token
p456
(dp457
g18
I162
sba(i__main__
Token
p458
(dp459
g18
I163
sbasg19
I163
sba(i__main__
Mention
p460
(dp461
g7
S't13'
p462
sg9
S'Coreference-Identity'
p463
sg10
S'i40'
p464
sg12
S'i35'
p465
sg13
Nsg14
(lp466
(i__main__
Token
p467
(dp468
g18
I194
sba(i__main__
Token
p469
(dp470
g18
I195
sbasg19
I195
sba(i__main__
Mention
p471
(dp472
g7
S't13'
p473
sg9
S'Anaphora-C'
p474
sg10
S'i44'
p475
sg12
S'i40'
p476
sg13
Nsg14
(lp477
(i__main__
Token
p478
(dp479
g18
I213
sbasg19
I213
sba(i__main__
Mention
p480
(dp481
g7
S't13'
p482
sg9
S'Anaphora-C'
p483
sg10
S'i45'
p484
sg12
S'i44'
p485
sg13
Nsg14
(lp486
(i__main__
Token
p487
(dp488
g18
I214
sbasg19
I214
sba(i__main__
Mention
p489
(dp490
g7
S't13'
p491
sg9
S'Coreference-Identity'
p492
sg10
S'i54'
p493
sg12
S'i45'
p494
sg13
Nsg14
(lp495
(i__main__
Token
p496
(dp497
g18
I273
sba(i__main__
Token
p498
(dp499
g18
I274
sbasg19
I274
sba(i__main__
Mention
p500
(dp501
g7
S't13'
p502
sg9
S'Anaphora-C'
p503
sg10
S'i55'
p504
sg12
S'i54'
p505
sg13
Nsg14
(lp506
(i__main__
Token
p507
(dp508
g18
I280
sbasg19
I280
sbasg7
g453
sg65
Nsba(i__main__
Chain
p509
(dp510
g3
(lp511
(i__main__
Mention
p512
(dp513
g7
S't14'
p514
sg9
S'anaphora-?'
p515
sg10
S'i39'
p516
sg12
S'i39'
p517
sg13
Nsg14
(lp518
(i__main__
Token
p519
(dp520
g18
I184
sbasg19
I184
sbasg7
g514
sg65
Nsba(i__main__
Chain
p521
(dp522
g3
(lp523
(i__main__
Mention
p524
(dp525
g7
S't15'
p526
sg9
Nsg10
S'i41'
p527
sg12
Nsg13
Nsg14
(lp528
(i__main__
Token
p529
(dp530
g18
I198
sbasg19
I198
sba(i__main__
Mention
p531
(dp532
g7
S't15'
p533
sg9
S'Anaphora-RC'
p534
sg10
S'i43'
p535
sg12
S'i41'
p536
sg13
Nsg14
(lp537
(i__main__
Token
p538
(dp539
g18
I202
sba(i__main__
Token
p540
(dp541
g18
I203
sba(i__main__
Token
p542
(dp543
g18
I204
sba(i__main__
Token
p544
(dp545
g18
I205
sba(i__main__
Token
p546
(dp547
g18
I206
sba(i__main__
Token
p548
(dp549
g18
I207
sba(i__main__
Token
p550
(dp551
g18
I208
sba(i__main__
Token
p552
(dp553
g18
I209
sba(i__main__
Token
p554
(dp555
g18
I210
sba(i__main__
Token
p556
(dp557
g18
I211
sbasg19
I210
sbasg7
g526
sg65
Nsba(i__main__
Chain
p558
(dp559
g3
(lp560
(i__main__
Mention
p561
(dp562
g7
S't16'
p563
sg9
Nsg10
S'i51'
p564
sg12
Nsg13
Nsg14
(lp565
(i__main__
Token
p566
(dp567
g18
I249
sbasg19
I249
sba(i__main__
Mention
p568
(dp569
g7
S't16'
p570
sg9
S'Coreference-NounComplement'
p571
sg10
S'i52'
p572
sg12
S'i51'
p573
sg13
Nsg14
(lp574
(i__main__
Token
p575
(dp576
g18
I250
sba(i__main__
Token
p577
(dp578
g18
I251
sbasg19
I251
sbasg7
g563
sg65
Nsba.