(lp0
(i__main__
Chain
p1
(dp2
S'mentionList'
p3
(lp4
(i__main__
Mention
p5
(dp6
S'chainId'
p7
S't1'
p8
sS'relType'
p9
NsS'mentionId'
p10
S'i1'
p11
sS'antecedentId'
p12
NsS'crefMod'
p13
NsS'tokenList'
p14
(lp15
(i__main__
Token
p16
(dp17
S'tokenId'
p18
I0
sba(i__main__
Token
p19
(dp20
g18
I1
sba(i__main__
Token
p21
(dp22
g18
I2
sba(i__main__
Token
p23
(dp24
g18
I3
sba(i__main__
Token
p25
(dp26
g18
I4
sbasS'mentionHead'
p27
Nsba(i__main__
Mention
p28
(dp29
g7
S't1'
p30
sg9
S'Coreference-PartOf'
p31
sg10
S'i3'
p32
sg12
S'i1'
p33
sg13
Nsg14
(lp34
(i__main__
Token
p35
(dp36
g18
I6
sbasg27
I6
sba(i__main__
Mention
p37
(dp38
g7
S't1'
p39
sg9
Nsg10
S'i10'
p40
sg12
Nsg13
Nsg14
(lp41
(i__main__
Token
p42
(dp43
g18
I28
sba(i__main__
Token
p44
(dp45
g18
I29
sba(i__main__
Token
p46
(dp47
g18
I30
sbasg27
Nsba(i__main__
Mention
p48
(dp49
g7
S't1'
p50
sg9
Nsg10
S'i11'
p51
sg12
Nsg13
Nsg14
(lp52
(i__main__
Token
p53
(dp54
g18
I31
sbasg27
Nsba(i__main__
Mention
p55
(dp56
g7
S't1'
p57
sg9
Nsg10
S'i16'
p58
sg12
Nsg13
Nsg14
(lp59
(i__main__
Token
p60
(dp61
g18
I45
sba(i__main__
Token
p62
(dp63
g18
I46
sba(i__main__
Token
p64
(dp65
g18
I47
sbasg27
Nsba(i__main__
Mention
p66
(dp67
g7
S't1'
p68
sg9
S'Coreference-PartOf'
p69
sg10
S'i17'
p70
sg12
S'i16'
p71
sg13
Nsg14
(lp72
(i__main__
Token
p73
(dp74
g18
I57
sbasg27
I57
sba(i__main__
Mention
p75
(dp76
g7
S't1'
p77
sg9
Nsg10
S'i23'
p78
sg12
Nsg13
Nsg14
(lp79
(i__main__
Token
p80
(dp81
g18
I72
sba(i__main__
Token
p82
(dp83
g18
I73
sbasg27
Nsba(i__main__
Mention
p84
(dp85
g7
S't1'
p86
sg9
Nsg10
S'i28'
p87
sg12
Nsg13
Nsg14
(lp88
(i__main__
Token
p89
(dp90
g18
I104
sba(i__main__
Token
p91
(dp92
g18
I105
sba(i__main__
Token
p93
(dp94
g18
I106
sbasg27
Nsba(i__main__
Mention
p95
(dp96
g7
S't1'
p97
sg9
Nsg10
S'i32'
p98
sg12
Nsg13
Nsg14
(lp99
(i__main__
Token
p100
(dp101
g18
I127
sba(i__main__
Token
p102
(dp103
g18
I128
sba(i__main__
Token
p104
(dp105
g18
I129
sbasg27
Nsba(i__main__
Mention
p106
(dp107
g7
S't1'
p108
sg9
S'Coreference-PartOf'
p109
sg10
S'i41'
p110
sg12
S'i32'
p111
sg13
Nsg14
(lp112
(i__main__
Token
p113
(dp114
g18
I166
sbasg27
I166
sba(i__main__
Mention
p115
(dp116
g7
S't1'
p117
sg9
S'Coreference-Identity'
p118
sg10
S'i57'
p119
sg12
S'i41'
p120
sg13
Nsg14
(lp121
(i__main__
Token
p122
(dp123
g18
I243
sbasg27
I243
sba(i__main__
Mention
p124
(dp125
g7
S't1'
p126
sg9
Nsg10
S'i68'
p127
sg12
Nsg13
Nsg14
(lp128
(i__main__
Token
p129
(dp130
g18
I295
sba(i__main__
Token
p131
(dp132
g18
I296
sba(i__main__
Token
p133
(dp134
g18
I297
sbasg27
Nsba(i__main__
Mention
p135
(dp136
g7
S't1'
p137
sg9
Nsg10
S'i76'
p138
sg12
Nsg13
Nsg14
(lp139
(i__main__
Token
p140
(dp141
g18
I326
sba(i__main__
Token
p142
(dp143
g18
I327
sba(i__main__
Token
p144
(dp145
g18
I328
sbasg27
Nsba(i__main__
Mention
p146
(dp147
g7
S't1'
p148
sg9
Nsg10
S'i79'
p149
sg12
Nsg13
Nsg14
(lp150
(i__main__
Token
p151
(dp152
g18
I342
sba(i__main__
Token
p153
(dp154
g18
I343
sbasg27
Nsba(i__main__
Mention
p155
(dp156
g7
S't1'
p157
sg9
Nsg10
S'i80'
p158
sg12
Nsg13
Nsg14
(lp159
(i__main__
Token
p160
(dp161
g18
I350
sbasg27
Nsbasg7
g8
sS'chainHead'
p162
Nsba(i__main__
Chain
p163
(dp164
g3
(lp165
(i__main__
Mention
p166
(dp167
g7
S't2'
p168
sg9
Nsg10
S'i2'
p169
sg12
Nsg13
Nsg14
(lp170
(i__main__
Token
p171
(dp172
g18
I0
sba(i__main__
Token
p173
(dp174
g18
I1
sba(i__main__
Token
p175
(dp176
g18
I2
sba(i__main__
Token
p177
(dp178
g18
I3
sba(i__main__
Token
p179
(dp180
g18
I4
sbasg27
Nsba(i__main__
Mention
p181
(dp182
g7
S't2'
p183
sg9
S'Coreference-PartOf'
p184
sg10
S'i5'
p185
sg12
S'i2'
p186
sg13
Nsg14
(lp187
(i__main__
Token
p188
(dp189
g18
I8
sbasg27
I8
sba(i__main__
Mention
p190
(dp191
g7
S't2'
p192
sg9
Nsg10
S'i9'
p193
sg12
Nsg13
Nsg14
(lp194
(i__main__
Token
p195
(dp196
g18
I28
sba(i__main__
Token
p197
(dp198
g18
I29
sba(i__main__
Token
p199
(dp200
g18
I30
sbasg27
Nsba(i__main__
Mention
p201
(dp202
g7
S't2'
p203
sg9
Nsg10
S'i12'
p204
sg12
Nsg13
Nsg14
(lp205
(i__main__
Token
p206
(dp207
g18
I31
sbasg27
Nsba(i__main__
Mention
p208
(dp209
g7
S't2'
p210
sg9
Nsg10
S'i15'
p211
sg12
Nsg13
Nsg14
(lp212
(i__main__
Token
p213
(dp214
g18
I45
sba(i__main__
Token
p215
(dp216
g18
I46
sba(i__main__
Token
p217
(dp218
g18
I47
sbasg27
Nsba(i__main__
Mention
p219
(dp220
g7
S't2'
p221
sg9
S'Coreference-PartOf'
p222
sg10
S'i19'
p223
sg12
S'i15'
p224
sg13
Nsg14
(lp225
(i__main__
Token
p226
(dp227
g18
I59
sbasg27
I59
sba(i__main__
Mention
p228
(dp229
g7
S't2'
p230
sg9
Nsg10
S'i22'
p231
sg12
Nsg13
Nsg14
(lp232
(i__main__
Token
p233
(dp234
g18
I72
sba(i__main__
Token
p235
(dp236
g18
I73
sbasg27
Nsba(i__main__
Mention
p237
(dp238
g7
S't2'
p239
sg9
Nsg10
S'i27'
p240
sg12
Nsg13
Nsg14
(lp241
(i__main__
Token
p242
(dp243
g18
I104
sba(i__main__
Token
p244
(dp245
g18
I105
sba(i__main__
Token
p246
(dp247
g18
I106
sbasg27
Nsba(i__main__
Mention
p248
(dp249
g7
S't2'
p250
sg9
Nsg10
S'i31'
p251
sg12
Nsg13
Nsg14
(lp252
(i__main__
Token
p253
(dp254
g18
I127
sba(i__main__
Token
p255
(dp256
g18
I128
sba(i__main__
Token
p257
(dp258
g18
I129
sbasg27
Nsba(i__main__
Mention
p259
(dp260
g7
S't2'
p261
sg9
S'Coreference-PartOf'
p262
sg10
S'i42'
p263
sg12
S'i31'
p264
sg13
Nsg14
(lp265
(i__main__
Token
p266
(dp267
g18
I168
sbasg27
I168
sba(i__main__
Mention
p268
(dp269
g7
S't2'
p270
sg9
S'Coreference-Identity'
p271
sg10
S'i58'
p272
sg12
S'i42'
p273
sg13
Nsg14
(lp274
(i__main__
Token
p275
(dp276
g18
I245
sbasg27
I245
sba(i__main__
Mention
p277
(dp278
g7
S't2'
p279
sg9
Nsg10
S'i67'
p280
sg12
Nsg13
Nsg14
(lp281
(i__main__
Token
p282
(dp283
g18
I295
sba(i__main__
Token
p284
(dp285
g18
I296
sba(i__main__
Token
p286
(dp287
g18
I297
sbasg27
Nsba(i__main__
Mention
p288
(dp289
g7
S't2'
p290
sg9
Nsg10
S'i75'
p291
sg12
Nsg13
Nsg14
(lp292
(i__main__
Token
p293
(dp294
g18
I326
sba(i__main__
Token
p295
(dp296
g18
I327
sba(i__main__
Token
p297
(dp298
g18
I328
sbasg27
Nsba(i__main__
Mention
p299
(dp300
g7
S't2'
p301
sg9
Nsg10
S'i78'
p302
sg12
Nsg13
Nsg14
(lp303
(i__main__
Token
p304
(dp305
g18
I342
sba(i__main__
Token
p306
(dp307
g18
I343
sbasg27
Nsba(i__main__
Mention
p308
(dp309
g7
S't2'
p310
sg9
Nsg10
S'i81'
p311
sg12
Nsg13
Nsg14
(lp312
(i__main__
Token
p313
(dp314
g18
I350
sbasg27
Nsbasg7
g168
sg162
Nsba(i__main__
Chain
p315
(dp316
g3
(lp317
(i__main__
Mention
p318
(dp319
g7
S't3'
p320
sg9
Nsg10
S'i4'
p321
sg12
Nsg13
Nsg14
(lp322
(i__main__
Token
p323
(dp324
g18
I11
sbasg27
I11
sba(i__main__
Mention
p325
(dp326
g7
S't3'
p327
sg9
S'Coreference-NounComplement'
p328
sg10
S'i6'
p329
sg12
S'i4'
p330
sg13
Nsg14
(lp331
(i__main__
Token
p332
(dp333
g18
I12
sba(i__main__
Token
p334
(dp335
g18
I13
sbasg27
I13
sba(i__main__
Mention
p336
(dp337
g7
S't3'
p338
sg9
S'Anaphora-C'
p339
sg10
S'i8'
p340
sg12
S'i6'
p341
sg13
Nsg14
(lp342
(i__main__
Token
p343
(dp344
g18
I27
sbasg27
I27
sba(i__main__
Mention
p345
(dp346
g7
S't3'
p347
sg9
S'Coreference-Identity'
p348
sg10
S'i13'
p349
sg12
S'i8'
p350
sg13
Nsg14
(lp351
(i__main__
Token
p352
(dp353
g18
I41
sba(i__main__
Token
p354
(dp355
g18
I42
sbasg27
I42
sba(i__main__
Mention
p356
(dp357
g7
S't3'
p358
sg9
S'Coreference-Noun-Noun'
p359
sg10
S'i18'
p360
sg12
S'i13'
p361
sg13
Nsg14
(lp362
(i__main__
Token
p363
(dp364
g18
I61
sbasg27
I61
sba(i__main__
Mention
p365
(dp366
g7
S't3'
p367
sg9
S'Coreference-NounComplement'
p368
sg10
S'i20'
p369
sg12
S'i18'
p370
sg13
Nsg14
(lp371
(i__main__
Token
p372
(dp373
g18
I62
sbasg27
I62
sba(i__main__
Mention
p374
(dp375
g7
S't3'
p376
sg9
S'Coreference-Identity'
p377
sg10
S'i30'
p378
sg12
S'i20'
p379
sg13
Nsg14
(lp380
(i__main__
Token
p381
(dp382
g18
I117
sbasg27
I117
sba(i__main__
Mention
p383
(dp384
g7
S't3'
p385
sg9
S'Coreference-Identity'
p386
sg10
S'i34'
p387
sg12
S'i30'
p388
sg13
Nsg14
(lp389
(i__main__
Token
p390
(dp391
g18
I134
sbasg27
I134
sba(i__main__
Mention
p392
(dp393
g7
S't3'
p394
sg9
S'Anaphora-C'
p395
sg10
S'i35'
p396
sg12
S'i34'
p397
sg13
Nsg14
(lp398
(i__main__
Token
p399
(dp400
g18
I140
sbasg27
I140
sba(i__main__
Mention
p401
(dp402
g7
S't3'
p403
sg9
S'Anaphora-C'
p404
sg10
S'i37'
p405
sg12
S'i35'
p406
sg13
Nsg14
(lp407
(i__main__
Token
p408
(dp409
g18
I145
sbasg27
I145
sba(i__main__
Mention
p410
(dp411
g7
S't3'
p412
sg9
S'Anaphora-C'
p413
sg10
S'i40'
p414
sg12
S'i37'
p415
sg13
Nsg14
(lp416
(i__main__
Token
p417
(dp418
g18
I165
sbasg27
I165
sba(i__main__
Mention
p419
(dp420
g7
S't3'
p421
sg9
S'Coreference-Identity'
p422
sg10
S'i43'
p423
sg12
S'i40'
p424
sg13
Nsg14
(lp425
(i__main__
Token
p426
(dp427
g18
I180
sbasg27
I180
sba(i__main__
Mention
p428
(dp429
g7
S't3'
p430
sg9
S'Coreference-Identity'
p431
sg10
S'i44'
p432
sg12
S'i43'
p433
sg13
Nsg14
(lp434
(i__main__
Token
p435
(dp436
g18
I192
sbasg27
I192
sba(i__main__
Mention
p437
(dp438
g7
S't3'
p439
sg9
S'Anaphora-C'
p440
sg10
S'i45'
p441
sg12
S'i44'
p442
sg13
Nsg14
(lp443
(i__main__
Token
p444
(dp445
g18
I196
sbasg27
I196
sba(i__main__
Mention
p446
(dp447
g7
S't3'
p448
sg9
S'Coreference-Identity'
p449
sg10
S'i50'
p450
sg12
S'i45'
p451
sg13
Nsg14
(lp452
(i__main__
Token
p453
(dp454
g18
I218
sbasg27
I218
sba(i__main__
Mention
p455
(dp456
g7
S't3'
p457
sg9
S'Anaphora-C'
p458
sg10
S'i53'
p459
sg12
S'i50'
p460
sg13
Nsg14
(lp461
(i__main__
Token
p462
(dp463
g18
I230
sbasg27
I230
sba(i__main__
Mention
p464
(dp465
g7
S't3'
p466
sg9
S'Anaphora-C'
p467
sg10
S'i54'
p468
sg12
S'i53'
p469
sg13
Nsg14
(lp470
(i__main__
Token
p471
(dp472
g18
I237
sbasg27
I237
sba(i__main__
Mention
p473
(dp474
g7
S't3'
p475
sg9
S'Anaphora-C'
p476
sg10
S'i61'
p477
sg12
S'i54'
p478
sg13
Nsg14
(lp479
(i__main__
Token
p480
(dp481
g18
I263
sbasg27
I263
sba(i__main__
Mention
p482
(dp483
g7
S't3'
p484
sg9
S'Anaphora-C'
p485
sg10
S'i66'
p486
sg12
S'i61'
p487
sg13
Nsg14
(lp488
(i__main__
Token
p489
(dp490
g18
I294
sbasg27
I294
sba(i__main__
Mention
p491
(dp492
g7
S't3'
p493
sg9
S'Anaphora-C'
p494
sg10
S'i69'
p495
sg12
S'i66'
p496
sg13
Nsg14
(lp497
(i__main__
Token
p498
(dp499
g18
I305
sbasg27
I305
sba(i__main__
Mention
p500
(dp501
g7
S't3'
p502
sg9
S'Anaphora-C'
p503
sg10
S'i74'
p504
sg12
S'i69'
p505
sg13
Nsg14
(lp506
(i__main__
Token
p507
(dp508
g18
I325
sbasg27
I325
sba(i__main__
Mention
p509
(dp510
g7
S't3'
p511
sg9
S'Anaphora-C'
p512
sg10
S'i77'
p513
sg12
S'i74'
p514
sg13
Nsg14
(lp515
(i__main__
Token
p516
(dp517
g18
I336
sbasg27
I336
sbasg7
g320
sg162
Nsba(i__main__
Chain
p518
(dp519
g3
(lp520
(i__main__
Mention
p521
(dp522
g7
S't4'
p523
sg9
Nsg10
S'i7'
p524
sg12
Nsg13
Nsg14
(lp525
(i__main__
Token
p526
(dp527
g18
I17
sbasg27
I17
sba(i__main__
Mention
p528
(dp529
g7
S't4'
p530
sg9
S'Coreference-Identity'
p531
sg10
S'i14'
p532
sg12
S'i7'
p533
sg13
Nsg14
(lp534
(i__main__
Token
p535
(dp536
g18
I43
sbasg27
I43
sba(i__main__
Mention
p537
(dp538
g7
S't4'
p539
sg9
S'Coreference-Identity'
p540
sg10
S'i38'
p541
sg12
S'i14'
p542
sg13
Nsg14
(lp543
(i__main__
Token
p544
(dp545
g18
I150
sbasg27
I150
sba(i__main__
Mention
p546
(dp547
g7
S't4'
p548
sg9
S'Coreference-Identity'
p549
sg10
S'i46'
p550
sg12
S'i38'
p551
sg13
Nsg14
(lp552
(i__main__
Token
p553
(dp554
g18
I197
sbasg27
I197
sba(i__main__
Mention
p555
(dp556
g7
S't4'
p557
sg9
S'Coreference-Identity'
p558
sg10
S'i49'
p559
sg12
S'i46'
p560
sg13
Nsg14
(lp561
(i__main__
Token
p562
(dp563
g18
I209
sbasg27
I209
sbasg7
g523
sg162
Nsba(i__main__
Chain
p564
(dp565
g3
(lp566
(i__main__
Mention
p567
(dp568
g7
S't5'
p569
sg9
Nsg10
S'i21'
p570
sg12
Nsg13
Nsg14
(lp571
(i__main__
Token
p572
(dp573
g18
I67
sbasg27
I67
sba(i__main__
Mention
p574
(dp575
g7
S't5'
p576
sg9
S'Anaphora-C'
p577
sg10
S'i24'
p578
sg12
S'i21'
p579
sg13
Nsg14
(lp580
(i__main__
Token
p581
(dp582
g18
I81
sbasg27
I81
sba(i__main__
Mention
p583
(dp584
g7
S't5'
p585
sg9
S'Coreference-Noun-Noun'
p586
sg10
S'i25'
p587
sg12
S'i24'
p588
sg13
Nsg14
(lp589
(i__main__
Token
p590
(dp591
g18
I90
sba(i__main__
Token
p592
(dp593
g18
I91
sba(i__main__
Token
p594
(dp595
g18
I92
sba(i__main__
Token
p596
(dp597
g18
I93
sba(i__main__
Token
p598
(dp599
g18
I94
sba(i__main__
Token
p600
(dp601
g18
I95
sba(i__main__
Token
p602
(dp603
g18
I96
sbasg27
I96
sba(i__main__
Mention
p604
(dp605
g7
S't5'
p606
sg9
S'Coreference-NounComplement'
p607
sg10
S'i26'
p608
sg12
S'i25'
p609
sg13
Nsg14
(lp610
(i__main__
Token
p611
(dp612
g18
I97
sba(i__main__
Token
p613
(dp614
g18
I98
sbasg27
I98
sba(i__main__
Mention
p615
(dp616
g7
S't5'
p617
sg9
S'Coreference-Noun-Noun'
p618
sg10
S'i55'
p619
sg12
S'i26'
p620
sg13
Nsg14
(lp621
(i__main__
Token
p622
(dp623
g18
I241
sba(i__main__
Token
p624
(dp625
g18
I242
sbasg27
I242
sbasg7
g569
sg162
Nsba(i__main__
Chain
p626
(dp627
g3
(lp628
(i__main__
Mention
p629
(dp630
g7
S't6'
p631
sg9
Nsg10
S'i29'
p632
sg12
Nsg13
Nsg14
(lp633
(i__main__
Token
p634
(dp635
g18
I108
sbasg27
I108
sba(i__main__
Mention
p636
(dp637
g7
S't6'
p638
sg9
S'Coreference-Identity'
p639
sg10
S'i47'
p640
sg12
S'i29'
p641
sg13
Nsg14
(lp642
(i__main__
Token
p643
(dp644
g18
I203
sbasg27
I203
sba(i__main__
Mention
p645
(dp646
g7
S't6'
p647
sg9
S'Coreference-Identity'
p648
sg10
S'i63'
p649
sg12
S'i47'
p650
sg13
Nsg14
(lp651
(i__main__
Token
p652
(dp653
g18
I270
sba(i__main__
Token
p654
(dp655
g18
I271
sba(i__main__
Token
p656
(dp657
g18
I272
sbasg27
I272
sba(i__main__
Mention
p658
(dp659
g7
S't6'
p660
sg9
S'Coreference-Identity'
p661
sg10
S'i65'
p662
sg12
S'i63'
p663
sg13
Nsg14
(lp664
(i__main__
Token
p665
(dp666
g18
I283
sbasg27
I283
sbasg7
g631
sg162
Nsba(i__main__
Chain
p667
(dp668
g3
(lp669
(i__main__
Mention
p670
(dp671
g7
S't7'
p672
sg9
Nsg10
S'i33'
p673
sg12
Nsg13
Nsg14
(lp674
(i__main__
Token
p675
(dp676
g18
I131
sba(i__main__
Token
p677
(dp678
g18
I132
sbasg27
I132
sba(i__main__
Mention
p679
(dp680
g7
S't7'
p681
sg9
S'Coreference-Identity'
p682
sg10
S'i36'
p683
sg12
S'i33'
p684
sg13
Nsg14
(lp685
(i__main__
Token
p686
(dp687
g18
I143
sba(i__main__
Token
p688
(dp689
g18
I144
sbasg27
I144
sbasg7
g672
sg162
Nsba(i__main__
Chain
p690
(dp691
g3
(lp692
(i__main__
Mention
p693
(dp694
g7
S't8'
p695
sg9
Nsg10
S'i39'
p696
sg12
Nsg13
Nsg14
(lp697
(i__main__
Token
p698
(dp699
g18
I159
sbasg27
I159
sbasg7
g695
sg162
Nsba(i__main__
Chain
p700
(dp701
g3
(lp702
(i__main__
Mention
p703
(dp704
g7
S't9'
p705
sg9
Nsg10
S'i48'
p706
sg12
Nsg13
Nsg14
(lp707
(i__main__
Token
p708
(dp709
g18
I208
sbasg27
I208
sbasg7
g705
sg162
Nsba(i__main__
Chain
p710
(dp711
g3
(lp712
(i__main__
Mention
p713
(dp714
g7
S't10'
p715
sg9
Nsg10
S'i51'
p716
sg12
Nsg13
Nsg14
(lp717
(i__main__
Token
p718
(dp719
g18
I221
sbasg27
I221
sba(i__main__
Mention
p720
(dp721
g7
S't10'
p722
sg9
S'Coreference-NounComplement'
p723
sg10
S'i52'
p724
sg12
S'i51'
p725
sg13
Nsg14
(lp726
(i__main__
Token
p727
(dp728
g18
I222
sba(i__main__
Token
p729
(dp730
g18
I223
sba(i__main__
Token
p731
(dp732
g18
I224
sba(i__main__
Token
p733
(dp734
g18
I225
sba(i__main__
Token
p735
(dp736
g18
I226
sba(i__main__
Token
p737
(dp738
g18
I227
sbasg27
I227
sba(i__main__
Mention
p739
(dp740
g7
S't10'
p741
sg9
S'Coreference-Identity'
p742
sg10
S'i60'
p743
sg12
S'i52'
p744
sg13
Nsg14
(lp745
(i__main__
Token
p746
(dp747
g18
I258
sba(i__main__
Token
p748
(dp749
g18
I259
sbasg27
I259
sba(i__main__
Mention
p750
(dp751
g7
S't10'
p752
sg9
S'Coreference-Identity'
p753
sg10
S'i64'
p754
sg12
S'i60'
p755
sg13
Nsg14
(lp756
(i__main__
Token
p757
(dp758
g18
I281
sba(i__main__
Token
p759
(dp760
g18
I282
sbasg27
I282
sba(i__main__
Mention
p761
(dp762
g7
S't10'
p763
sg9
S'Coreference-Identity'
p764
sg10
S'i73'
p765
sg12
S'i64'
p766
sg13
Nsg14
(lp767
(i__main__
Token
p768
(dp769
g18
I323
sbasg27
I323
sbasg7
g715
sg162
Nsba(i__main__
Chain
p770
(dp771
g3
(lp772
(i__main__
Mention
p773
(dp774
g7
S't11'
p775
sg9
Nsg10
S'i56'
p776
sg12
Nsg13
Nsg14
(lp777
(i__main__
Token
p778
(dp779
g18
I241
sba(i__main__
Token
p780
(dp781
g18
I242
sba(i__main__
Token
p782
(dp783
g18
I243
sba(i__main__
Token
p784
(dp785
g18
I244
sba(i__main__
Token
p786
(dp787
g18
I245
sba(i__main__
Token
p788
(dp789
g18
I246
sba(i__main__
Token
p790
(dp791
g18
I247
sba(i__main__
Token
p792
(dp793
g18
I248
sba(i__main__
Token
p794
(dp795
g18
I249
sba(i__main__
Token
p796
(dp797
g18
I250
sba(i__main__
Token
p798
(dp799
g18
I251
sba(i__main__
Token
p800
(dp801
g18
I252
sbasg27
I251
sba(i__main__
Mention
p802
(dp803
g7
S't11'
p804
sg9
S'Anaphora-E'
p805
sg10
S'i59'
p806
sg12
S'i56'
p807
sg13
Nsg14
(lp808
(i__main__
Token
p809
(dp810
g18
I254
sbasg27
I254
sbasg7
g775
sg162
Nsba(i__main__
Chain
p811
(dp812
g3
(lp813
(i__main__
Mention
p814
(dp815
g7
S't12'
p816
sg9
Nsg10
S'i62'
p817
sg12
Nsg13
Nsg14
(lp818
(i__main__
Token
p819
(dp820
g18
I266
sbasg27
I266
sbasg7
g816
sg162
Nsba(i__main__
Chain
p821
(dp822
g3
(lp823
(i__main__
Mention
p824
(dp825
g7
S't13'
p826
sg9
Nsg10
S'i70'
p827
sg12
Nsg13
Nsg14
(lp828
(i__main__
Token
p829
(dp830
g18
I308
sbasg27
I308
sba(i__main__
Mention
p831
(dp832
g7
S't13'
p833
sg9
S'Anaphora-RC'
p834
sg10
S'i72'
p835
sg12
S'i70'
p836
sg13
Nsg14
(lp837
(i__main__
Token
p838
(dp839
g18
I316
sba(i__main__
Token
p840
(dp841
g18
I317
sba(i__main__
Token
p842
(dp843
g18
I318
sba(i__main__
Token
p844
(dp845
g18
I319
sba(i__main__
Token
p846
(dp847
g18
I320
sba(i__main__
Token
p848
(dp849
g18
I321
sba(i__main__
Token
p850
(dp851
g18
I322
sba(i__main__
Token
p852
(dp853
g18
I323
sba(i__main__
Token
p854
(dp855
g18
I324
sba(i__main__
Token
p856
(dp857
g18
I325
sba(i__main__
Token
p858
(dp859
g18
I326
sba(i__main__
Token
p860
(dp861
g18
I327
sba(i__main__
Token
p862
(dp863
g18
I328
sba(i__main__
Token
p864
(dp865
g18
I329
sba(i__main__
Token
p866
(dp867
g18
I330
sba(i__main__
Token
p868
(dp869
g18
I331
sba(i__main__
Token
p870
(dp871
g18
I332
sba(i__main__
Token
p872
(dp873
g18
I333
sba(i__main__
Token
p874
(dp875
g18
I334
sbasg27
I333
sbasg7
g826
sg162
Nsba(i__main__
Chain
p876
(dp877
g3
(lp878
(i__main__
Mention
p879
(dp880
g7
S't14'
p881
sg9
Nsg10
S'i71'
p882
sg12
Nsg13
Nsg14
(lp883
(i__main__
Token
p884
(dp885
g18
I316
sbasg27
I316
sbasg7
g881
sg162
Nsba.