(lp0
(i__main__
Chain
p1
(dp2
S'mentionList'
p3
(lp4
(i__main__
Mention
p5
(dp6
S'chainId'
p7
S't1'
p8
sS'relType'
p9
NsS'mentionId'
p10
S'i1'
p11
sS'antecedentId'
p12
NsS'crefMod'
p13
NsS'tokenList'
p14
(lp15
(i__main__
Token
p16
(dp17
S'tokenId'
p18
I2
sba(i__main__
Token
p19
(dp20
g18
I3
sbasS'mentionHead'
p21
I3
sba(i__main__
Mention
p22
(dp23
g7
S't1'
p24
sg9
S'Coreference-NounComplement'
p25
sg10
S'i2'
p26
sg12
S'i1'
p27
sg13
Nsg14
(lp28
(i__main__
Token
p29
(dp30
g18
I4
sba(i__main__
Token
p31
(dp32
g18
I5
sbasg21
I5
sba(i__main__
Mention
p33
(dp34
g7
S't1'
p35
sg9
S'Coreference-Identity'
p36
sg10
S'i3'
p37
sg12
S'i2'
p38
sg13
Nsg14
(lp39
(i__main__
Token
p40
(dp41
g18
I25
sbasg21
I25
sba(i__main__
Mention
p42
(dp43
g7
S't1'
p44
sg9
S'Coreference-Identity'
p45
sg10
S'i16'
p46
sg12
S'i3'
p47
sg13
Nsg14
(lp48
(i__main__
Token
p49
(dp50
g18
I91
sbasg21
I91
sba(i__main__
Mention
p51
(dp52
g7
S't1'
p53
sg9
S'Anaphora-C'
p54
sg10
S'i18'
p55
sg12
S'i16'
p56
sg13
Nsg14
(lp57
(i__main__
Token
p58
(dp59
g18
I105
sbasg21
I105
sba(i__main__
Mention
p60
(dp61
g7
S't1'
p62
sg9
S'Coreference-Identity'
p63
sg10
S'i22'
p64
sg12
S'i18'
p65
sg13
Nsg14
(lp66
(i__main__
Token
p67
(dp68
g18
I118
sbasg21
I118
sba(i__main__
Mention
p69
(dp70
g7
S't1'
p71
sg9
S'Anaphora-C'
p72
sg10
S'i23'
p73
sg12
S'i22'
p74
sg13
Nsg14
(lp75
(i__main__
Token
p76
(dp77
g18
I119
sbasg21
I119
sba(i__main__
Mention
p78
(dp79
g7
S't1'
p80
sg9
S'Anaphora-C'
p81
sg10
S'i28'
p82
sg12
S'i23'
p83
sg13
Nsg14
(lp84
(i__main__
Token
p85
(dp86
g18
I134
sbasg21
I134
sba(i__main__
Mention
p87
(dp88
g7
S't1'
p89
sg9
S'Coreference-Identity'
p90
sg10
S'i38'
p91
sg12
S'i28'
p92
sg13
Nsg14
(lp93
(i__main__
Token
p94
(dp95
g18
I180
sbasg21
I180
sba(i__main__
Mention
p96
(dp97
g7
S't1'
p98
sg9
S'Coreference-Identity'
p99
sg10
S'i42'
p100
sg12
S'i38'
p101
sg13
Nsg14
(lp102
(i__main__
Token
p103
(dp104
g18
I220
sbasg21
I220
sba(i__main__
Mention
p105
(dp106
g7
S't1'
p107
sg9
S'Anaphora-C'
p108
sg10
S'i44'
p109
sg12
S'i42'
p110
sg13
Nsg14
(lp111
(i__main__
Token
p112
(dp113
g18
I242
sbasg21
I242
sba(i__main__
Mention
p114
(dp115
g7
S't1'
p116
sg9
S'Anaphora-C'
p117
sg10
S'i45'
p118
sg12
S'i44'
p119
sg13
Nsg14
(lp120
(i__main__
Token
p121
(dp122
g18
I243
sbasg21
I243
sba(i__main__
Mention
p123
(dp124
g7
S't1'
p125
sg9
S'Anaphora-C'
p126
sg10
S'i47'
p127
sg12
S'i45'
p128
sg13
Nsg14
(lp129
(i__main__
Token
p130
(dp131
g18
I256
sbasg21
I256
sba(i__main__
Mention
p132
(dp133
g7
S't1'
p134
sg9
S'Anaphora-C'
p135
sg10
S'i51'
p136
sg12
S'i47'
p137
sg13
Nsg14
(lp138
(i__main__
Token
p139
(dp140
g18
I267
sbasg21
I267
sba(i__main__
Mention
p141
(dp142
g7
S't1'
p143
sg9
S'Anaphora-C'
p144
sg10
S'i56'
p145
sg12
S'i51'
p146
sg13
Nsg14
(lp147
(i__main__
Token
p148
(dp149
g18
I278
sbasg21
I278
sba(i__main__
Mention
p150
(dp151
g7
S't1'
p152
sg9
S'Anaphora-C'
p153
sg10
S'i58'
p154
sg12
S'i56'
p155
sg13
Nsg14
(lp156
(i__main__
Token
p157
(dp158
g18
I287
sbasg21
I287
sba(i__main__
Mention
p159
(dp160
g7
S't1'
p161
sg9
S'Anaphora-C'
p162
sg10
S'i60'
p163
sg12
S'i58'
p164
sg13
Nsg14
(lp165
(i__main__
Token
p166
(dp167
g18
I302
sbasg21
I302
sba(i__main__
Mention
p168
(dp169
g7
S't1'
p170
sg9
S'Anaphora-C'
p171
sg10
S'i63'
p172
sg12
S'i60'
p173
sg13
Nsg14
(lp174
(i__main__
Token
p175
(dp176
g18
I320
sbasg21
I320
sba(i__main__
Mention
p177
(dp178
g7
S't1'
p179
sg9
S'Coreference-Identity'
p180
sg10
S'i66'
p181
sg12
S'i63'
p182
sg13
Nsg14
(lp183
(i__main__
Token
p184
(dp185
g18
I333
sbasg21
I333
sba(i__main__
Mention
p186
(dp187
g7
S't1'
p188
sg9
S'Anaphora-C'
p189
sg10
S'i67'
p190
sg12
S'i66'
p191
sg13
Nsg14
(lp192
(i__main__
Token
p193
(dp194
g18
I334
sbasg21
I334
sba(i__main__
Mention
p195
(dp196
g7
S't1'
p197
sg9
S'Coreference-Identity'
p198
sg10
S'i76'
p199
sg12
S'i67'
p200
sg13
Nsg14
(lp201
(i__main__
Token
p202
(dp203
g18
I394
sbasg21
I394
sba(i__main__
Mention
p204
(dp205
g7
S't1'
p206
sg9
S'Anaphora-C'
p207
sg10
S'i77'
p208
sg12
S'i76'
p209
sg13
Nsg14
(lp210
(i__main__
Token
p211
(dp212
g18
I396
sbasg21
I396
sba(i__main__
Mention
p213
(dp214
g7
S't1'
p215
sg9
S'Coreference-Identity'
p216
sg10
S'i88'
p217
sg12
S'i77'
p218
sg13
Nsg14
(lp219
(i__main__
Token
p220
(dp221
g18
I456
sbasg21
I456
sba(i__main__
Mention
p222
(dp223
g7
S't1'
p224
sg9
Nsg10
S'i94'
p225
sg12
Nsg13
Nsg14
(lp226
(i__main__
Token
p227
(dp228
g18
I471
sbasg21
Nsbasg7
g8
sS'chainHead'
p229
Nsba(i__main__
Chain
p230
(dp231
g3
(lp232
(i__main__
Mention
p233
(dp234
g7
S't2'
p235
sg9
Nsg10
S'i4'
p236
sg12
Nsg13
Nsg14
(lp237
(i__main__
Token
p238
(dp239
g18
I27
sba(i__main__
Token
p240
(dp241
g18
I28
sbasg21
I28
sba(i__main__
Mention
p242
(dp243
g7
S't2'
p244
sg9
S'Coreference-Noun-Noun'
p245
sg10
S'i19'
p246
sg12
S'i4'
p247
sg13
Nsg14
(lp248
(i__main__
Token
p249
(dp250
g18
I106
sbasg21
I106
sba(i__main__
Mention
p251
(dp252
g7
S't2'
p253
sg9
S'Coreference-NounComplement'
p254
sg10
S'i20'
p255
sg12
S'i19'
p256
sg13
Nsg14
(lp257
(i__main__
Token
p258
(dp259
g18
I107
sba(i__main__
Token
p260
(dp261
g18
I108
sbasg21
I108
sba(i__main__
Mention
p262
(dp263
g7
S't2'
p264
sg9
S'Coreference-Identity'
p265
sg10
S'i29'
p266
sg12
S'i20'
p267
sg13
Nsg14
(lp268
(i__main__
Token
p269
(dp270
g18
I135
sbasg21
I135
sba(i__main__
Mention
p271
(dp272
g7
S't2'
p273
sg9
S'Anaphora-C'
p274
sg10
S'i30'
p275
sg12
S'i29'
p276
sg13
Nsg14
(lp277
(i__main__
Token
p278
(dp279
g18
I140
sbasg21
I140
sba(i__main__
Mention
p280
(dp281
g7
S't2'
p282
sg9
S'Coreference-Noun-Noun'
p283
sg10
S'i33'
p284
sg12
S'i30'
p285
sg13
Nsg14
(lp286
(i__main__
Token
p287
(dp288
g18
I148
sbasg21
I148
sba(i__main__
Mention
p289
(dp290
g7
S't2'
p291
sg9
S'Coreference-Noun-Noun'
p292
sg10
S'i55'
p293
sg12
S'i33'
p294
sg13
Nsg14
(lp295
(i__main__
Token
p296
(dp297
g18
I275
sba(i__main__
Token
p298
(dp299
g18
I276
sbasg21
I276
sba(i__main__
Mention
p300
(dp301
g7
S't2'
p302
sg9
S'Coreference-Identity'
p303
sg10
S'i57'
p304
sg12
S'i55'
p305
sg13
Nsg14
(lp306
(i__main__
Token
p307
(dp308
g18
I285
sbasg21
I285
sba(i__main__
Mention
p309
(dp310
g7
S't2'
p311
sg9
S'Coreference-Identity'
p312
sg10
S'i59'
p313
sg12
S'i57'
p314
sg13
Nsg14
(lp315
(i__main__
Token
p316
(dp317
g18
I300
sbasg21
I300
sba(i__main__
Mention
p318
(dp319
g7
S't2'
p320
sg9
S'Coreference-Identity'
p321
sg10
S'i87'
p322
sg12
S'i59'
p323
sg13
Nsg14
(lp324
(i__main__
Token
p325
(dp326
g18
I450
sba(i__main__
Token
p327
(dp328
g18
I451
sbasg21
I451
sba(i__main__
Mention
p329
(dp330
g7
S't2'
p331
sg9
S'Coreference-Identity'
p332
sg10
S'i89'
p333
sg12
S'i87'
p334
sg13
Nsg14
(lp335
(i__main__
Token
p336
(dp337
g18
I458
sbasg21
I458
sba(i__main__
Mention
p338
(dp339
g7
S't2'
p340
sg9
S'Coreference-Identity'
p341
sg10
S'i92'
p342
sg12
S'i89'
p343
sg13
Nsg14
(lp344
(i__main__
Token
p345
(dp346
g18
I465
sbasg21
I465
sba(i__main__
Mention
p347
(dp348
g7
S't2'
p349
sg9
Nsg10
S'i93'
p350
sg12
Nsg13
Nsg14
(lp351
(i__main__
Token
p352
(dp353
g18
I471
sbasg21
Nsbasg7
g235
sg229
Nsba(i__main__
Chain
p354
(dp355
g3
(lp356
(i__main__
Mention
p357
(dp358
g7
S't3'
p359
sg9
Nsg10
S'i5'
p360
sg12
Nsg13
Nsg14
(lp361
(i__main__
Token
p362
(dp363
g18
I33
sbasg21
I33
sba(i__main__
Mention
p364
(dp365
g7
S't3'
p366
sg9
S'Coreference-Identity'
p367
sg10
S'i13'
p368
sg12
S'i5'
p369
sg13
Nsg14
(lp370
(i__main__
Token
p371
(dp372
g18
I73
sba(i__main__
Token
p373
(dp374
g18
I74
sbasg21
I74
sba(i__main__
Mention
p375
(dp376
g7
S't3'
p377
sg9
S'Coreference-Identity'
p378
sg10
S'i15'
p379
sg12
S'i13'
p380
sg13
Nsg14
(lp381
(i__main__
Token
p382
(dp383
g18
I89
sba(i__main__
Token
p384
(dp385
g18
I90
sbasg21
I90
sba(i__main__
Mention
p386
(dp387
g7
S't3'
p388
sg9
S'Coreference-Identity'
p389
sg10
S'i36'
p390
sg12
S'i15'
p391
sg13
Nsg14
(lp392
(i__main__
Token
p393
(dp394
g18
I166
sbasg21
I166
sba(i__main__
Mention
p395
(dp396
g7
S't3'
p397
sg9
S'Coreference-Identity'
p398
sg10
S'i79'
p399
sg12
S'i36'
p400
sg13
Nsg14
(lp401
(i__main__
Token
p402
(dp403
g18
I405
sbasg21
I405
sbasg7
g359
sg229
Nsba(i__main__
Chain
p404
(dp405
g3
(lp406
(i__main__
Mention
p407
(dp408
g7
S't4'
p409
sg9
Nsg10
S'i6'
p410
sg12
Nsg13
Nsg14
(lp411
(i__main__
Token
p412
(dp413
g18
I51
sba(i__main__
Token
p414
(dp415
g18
I52
sbasg21
I52
sba(i__main__
Mention
p416
(dp417
g7
S't4'
p418
sg9
S'Coreference-NounComplement'
p419
sg10
S'i7'
p420
sg12
S'i6'
p421
sg13
Nsg14
(lp422
(i__main__
Token
p423
(dp424
g18
I53
sba(i__main__
Token
p425
(dp426
g18
I54
sbasg21
I54
sbasg7
g409
sg229
Nsba(i__main__
Chain
p427
(dp428
g3
(lp429
(i__main__
Mention
p430
(dp431
g7
S't5'
p432
sg9
Nsg10
S'i8'
p433
sg12
Nsg13
Nsg14
(lp434
(i__main__
Token
p435
(dp436
g18
I57
sbasg21
I57
sba(i__main__
Mention
p437
(dp438
g7
S't5'
p439
sg9
S'Coreference-NounComplement'
p440
sg10
S'i9'
p441
sg12
S'i8'
p442
sg13
Nsg14
(lp443
(i__main__
Token
p444
(dp445
g18
I58
sba(i__main__
Token
p446
(dp447
g18
I59
sbasg21
I59
sbasg7
g432
sg229
Nsba(i__main__
Chain
p448
(dp449
g3
(lp450
(i__main__
Mention
p451
(dp452
g7
S't6'
p453
sg9
Nsg10
S'i10'
p454
sg12
Nsg13
Nsg14
(lp455
(i__main__
Token
p456
(dp457
g18
I64
sbasg21
I64
sba(i__main__
Mention
p458
(dp459
g7
S't6'
p460
sg9
S'Anaphora-RC'
p461
sg10
S'i41'
p462
sg12
S'i10'
p463
sg13
Nsg14
(lp464
(i__main__
Token
p465
(dp466
g18
I214
sbasg21
I214
sba(i__main__
Mention
p467
(dp468
g7
S't6'
p469
sg9
S'Coreference-Identity'
p470
sg10
S'i82'
p471
sg12
S'i41'
p472
sg13
Nsg14
(lp473
(i__main__
Token
p474
(dp475
g18
I438
sbasg21
I438
sbasg7
g453
sg229
Nsba(i__main__
Chain
p476
(dp477
g3
(lp478
(i__main__
Mention
p479
(dp480
g7
S't7'
p481
sg9
Nsg10
S'i11'
p482
sg12
Nsg13
Nsg14
(lp483
(i__main__
Token
p484
(dp485
g18
I66
sba(i__main__
Token
p486
(dp487
g18
I67
sba(i__main__
Token
p488
(dp489
g18
I68
sbasg21
I68
sba(i__main__
Mention
p490
(dp491
g7
S't7'
p492
sg9
S'Coreference-NounComplement'
p493
sg10
S'i12'
p494
sg12
S'i11'
p495
sg13
Nsg14
(lp496
(i__main__
Token
p497
(dp498
g18
I69
sba(i__main__
Token
p499
(dp500
g18
I70
sbasg21
I70
sba(i__main__
Mention
p501
(dp502
g7
S't7'
p503
sg9
S'Coreference-Noun-Noun'
p504
sg10
S'i35'
p505
sg12
S'i12'
p506
sg13
Nsg14
(lp507
(i__main__
Token
p508
(dp509
g18
I163
sba(i__main__
Token
p510
(dp511
g18
I164
sbasg21
I164
sba(i__main__
Mention
p512
(dp513
g7
S't7'
p514
sg9
S'Anaphora-C'
p515
sg10
S'i37'
p516
sg12
S'i35'
p517
sg13
Nsg14
(lp518
(i__main__
Token
p519
(dp520
g18
I171
sbasg21
I171
sba(i__main__
Mention
p521
(dp522
g7
S't7'
p523
sg9
S'Anaphora-C'
p524
sg10
S'i40'
p525
sg12
S'i37'
p526
sg13
Nsg14
(lp527
(i__main__
Token
p528
(dp529
g18
I204
sbasg21
I204
sbasg7
g481
sg229
Nsba(i__main__
Chain
p530
(dp531
g3
(lp532
(i__main__
Mention
p533
(dp534
g7
S't8'
p535
sg9
Nsg10
S'i14'
p536
sg12
Nsg13
Nsg14
(lp537
(i__main__
Token
p538
(dp539
g18
I82
sbasg21
I82
sba(i__main__
Mention
p540
(dp541
g7
S't8'
p542
sg9
S'Coreference-Identity'
p543
sg10
S'i39'
p544
sg12
S'i14'
p545
sg13
Nsg14
(lp546
(i__main__
Token
p547
(dp548
g18
I184
sbasg21
I184
sbasg7
g535
sg229
Nsba(i__main__
Chain
p549
(dp550
g3
(lp551
(i__main__
Mention
p552
(dp553
g7
S't9'
p554
sg9
Nsg10
S'i17'
p555
sg12
Nsg13
Nsg14
(lp556
(i__main__
Token
p557
(dp558
g18
I93
sba(i__main__
Token
p559
(dp560
g18
I94
sbasg21
I94
sba(i__main__
Mention
p561
(dp562
g7
S't9'
p563
sg9
S'Coreference-Identity'
p564
sg10
S'i69'
p565
sg12
S'i17'
p566
sg13
Nsg14
(lp567
(i__main__
Token
p568
(dp569
g18
I355
sba(i__main__
Token
p570
(dp571
g18
I356
sbasg21
I356
sba(i__main__
Mention
p572
(dp573
g7
S't9'
p574
sg9
S'Coreference-Identity'
p575
sg10
S'i78'
p576
sg12
S'i69'
p577
sg13
Nsg14
(lp578
(i__main__
Token
p579
(dp580
g18
I397
sbasg21
I397
sbasg7
g554
sg229
Nsba(i__main__
Chain
p581
(dp582
g3
(lp583
(i__main__
Mention
p584
(dp585
g7
S't10'
p586
sg9
Nsg10
S'i21'
p587
sg12
Nsg13
Nsg14
(lp588
(i__main__
Token
p589
(dp590
g18
I112
sbasg21
I112
sbasg7
g586
sg229
Nsba(i__main__
Chain
p591
(dp592
g3
(lp593
(i__main__
Mention
p594
(dp595
g7
S't11'
p596
sg9
Nsg10
S'i24'
p597
sg12
Nsg13
Nsg14
(lp598
(i__main__
Token
p599
(dp600
g18
I120
sba(i__main__
Token
p601
(dp602
g18
I121
sbasg21
I121
sba(i__main__
Mention
p603
(dp604
g7
S't11'
p605
sg9
S'Coreference-NounComplement'
p606
sg10
S'i25'
p607
sg12
S'i24'
p608
sg13
Nsg14
(lp609
(i__main__
Token
p610
(dp611
g18
I122
sbasg21
I122
sbasg7
g596
sg229
Nsba(i__main__
Chain
p612
(dp613
g3
(lp614
(i__main__
Mention
p615
(dp616
g7
S't12'
p617
sg9
Nsg10
S'i26'
p618
sg12
Nsg13
Nsg14
(lp619
(i__main__
Token
p620
(dp621
g18
I129
sbasg21
I129
sba(i__main__
Mention
p622
(dp623
g7
S't12'
p624
sg9
S'Coreference-NounComplement'
p625
sg10
S'i27'
p626
sg12
S'i26'
p627
sg13
Nsg14
(lp628
(i__main__
Token
p629
(dp630
g18
I130
sbasg21
I130
sba(i__main__
Mention
p631
(dp632
g7
S't12'
p633
sg9
S'Coreference-Identity'
p634
sg10
S'i48'
p635
sg12
S'i27'
p636
sg13
Nsg14
(lp637
(i__main__
Token
p638
(dp639
g18
I257
sbasg21
I257
sba(i__main__
Mention
p640
(dp641
g7
S't12'
p642
sg9
S'Coreference-Noun-Noun'
p643
sg10
S'i49'
p644
sg12
S'i48'
p645
sg13
Nsg14
(lp646
(i__main__
Token
p647
(dp648
g18
I258
sbasg21
I258
sbasg7
g617
sg229
Nsba(i__main__
Chain
p649
(dp650
g3
(lp651
(i__main__
Mention
p652
(dp653
g7
S't13'
p654
sg9
Nsg10
S'i31'
p655
sg12
Nsg13
Nsg14
(lp656
(i__main__
Token
p657
(dp658
g18
I143
sba(i__main__
Token
p659
(dp660
g18
I144
sbasg21
I144
sba(i__main__
Mention
p661
(dp662
g7
S't13'
p663
sg9
S'Coreference-NounComplement'
p664
sg10
S'i32'
p665
sg12
S'i31'
p666
sg13
Nsg14
(lp667
(i__main__
Token
p668
(dp669
g18
I145
sba(i__main__
Token
p670
(dp671
g18
I146
sbasg21
I146
sbasg7
g654
sg229
Nsba(i__main__
Chain
p672
(dp673
g3
(lp674
(i__main__
Mention
p675
(dp676
g7
S't14'
p677
sg9
Nsg10
S'i43'
p678
sg12
Nsg13
Nsg14
(lp679
(i__main__
Token
p680
(dp681
g18
I222
sbasg21
I222
sbasg7
g677
sg229
Nsba(i__main__
Chain
p682
(dp683
g3
(lp684
(i__main__
Mention
p685
(dp686
g7
S't15'
p687
sg9
Nsg10
S'i46'
p688
sg12
Nsg13
Nsg14
(lp689
(i__main__
Token
p690
(dp691
g18
I248
sbasg21
I248
sba(i__main__
Mention
p692
(dp693
g7
S't15'
p694
sg9
S'Coreference-Identity'
p695
sg10
S'i53'
p696
sg12
S'i46'
p697
sg13
Nsg14
(lp698
(i__main__
Token
p699
(dp700
g18
I270
sbasg21
I270
sbasg7
g687
sg229
Nsba(i__main__
Chain
p701
(dp702
g3
(lp703
(i__main__
Mention
p704
(dp705
g7
S't16'
p706
sg9
Nsg10
S'i50'
p707
sg12
Nsg13
Nsg14
(lp708
(i__main__
Token
p709
(dp710
g18
I266
sbasg21
I266
sba(i__main__
Mention
p711
(dp712
g7
S't16'
p713
sg9
S'Anaphora-RT'
p714
sg10
S'i52'
p715
sg12
S'i50'
p716
sg13
Nsg14
(lp717
(i__main__
Token
p718
(dp719
g18
I267
sba(i__main__
Token
p720
(dp721
g18
I268
sba(i__main__
Token
p722
(dp723
g18
I269
sba(i__main__
Token
p724
(dp725
g18
I270
sba(i__main__
Token
p726
(dp727
g18
I271
sba(i__main__
Token
p728
(dp729
g18
I272
sba(i__main__
Token
p730
(dp731
g18
I273
sba(i__main__
Token
p732
(dp733
g18
I274
sba(i__main__
Token
p734
(dp735
g18
I275
sba(i__main__
Token
p736
(dp737
g18
I276
sba(i__main__
Token
p738
(dp739
g18
I277
sba(i__main__
Token
p740
(dp741
g18
I278
sba(i__main__
Token
p742
(dp743
g18
I279
sba(i__main__
Token
p744
(dp745
g18
I280
sba(i__main__
Token
p746
(dp747
g18
I281
sba(i__main__
Token
p748
(dp749
g18
I282
sbasg21
I273
sbasg7
g706
sg229
Nsba(i__main__
Chain
p750
(dp751
g3
(lp752
(i__main__
Mention
p753
(dp754
g7
S't17'
p755
sg9
Nsg10
S'i54'
p756
sg12
Nsg13
Nsg14
(lp757
(i__main__
Token
p758
(dp759
g18
I274
sbasg21
I274
sbasg7
g755
sg229
Nsba(i__main__
Chain
p760
(dp761
g3
(lp762
(i__main__
Mention
p763
(dp764
g7
S't18'
p765
sg9
Nsg10
S'i61'
p766
sg12
Nsg13
Nsg14
(lp767
(i__main__
Token
p768
(dp769
g18
I311
sbasg21
I311
sbasg7
g765
sg229
Nsba(i__main__
Chain
p770
(dp771
g3
(lp772
(i__main__
Mention
p773
(dp774
g7
S't19'
p775
sg9
Nsg10
S'i62'
p776
sg12
Nsg13
Nsg14
(lp777
(i__main__
Token
p778
(dp779
g18
I316
sba(i__main__
Token
p780
(dp781
g18
I317
sbasg21
I317
sba(i__main__
Mention
p782
(dp783
g7
S't19'
p784
sg9
S'Coreference-Identity'
p785
sg10
S'i65'
p786
sg12
S'i62'
p787
sg13
Nsg14
(lp788
(i__main__
Token
p789
(dp790
g18
I330
sba(i__main__
Token
p791
(dp792
g18
I331
sbasg21
I331
sba(i__main__
Mention
p793
(dp794
g7
S't19'
p795
sg9
S'Coreference-Identity'
p796
sg10
S'i81'
p797
sg12
S'i65'
p798
sg13
Nsg14
(lp799
(i__main__
Token
p800
(dp801
g18
I421
sbasg21
I421
sbasg7
g775
sg229
Nsba(i__main__
Chain
p802
(dp803
g3
(lp804
(i__main__
Mention
p805
(dp806
g7
S't20'
p807
sg9
Nsg10
S'i64'
p808
sg12
Nsg13
Nsg14
(lp809
(i__main__
Token
p810
(dp811
g18
I321
sbasg21
I321
sba(i__main__
Mention
p812
(dp813
g7
S't20'
p814
sg9
S'Coreference-Identity'
p815
sg10
S'i68'
p816
sg12
S'i64'
p817
sg13
Nsg14
(lp818
(i__main__
Token
p819
(dp820
g18
I348
sbasg21
I348
sbasg7
g807
sg229
Nsba(i__main__
Chain
p821
(dp822
g3
(lp823
(i__main__
Mention
p824
(dp825
g7
S't21'
p826
sg9
Nsg10
S'i70'
p827
sg12
Nsg13
Nsg14
(lp828
(i__main__
Token
p829
(dp830
g18
I359
sbasg21
I359
sba(i__main__
Mention
p831
(dp832
g7
S't21'
p833
sg9
S'Anaphora-T'
p834
sg10
S'i71'
p835
sg12
S'i70'
p836
sg13
Nsg14
(lp837
(i__main__
Token
p838
(dp839
g18
I364
sbasg21
I364
sba(i__main__
Mention
p840
(dp841
g7
S't21'
p842
sg9
S'Anaphora-RT'
p843
sg10
S'i72'
p844
sg12
S'i71'
p845
sg13
Nsg14
(lp846
(i__main__
Token
p847
(dp848
g18
I365
sba(i__main__
Token
p849
(dp850
g18
I366
sba(i__main__
Token
p851
(dp852
g18
I367
sba(i__main__
Token
p853
(dp854
g18
I368
sba(i__main__
Token
p855
(dp856
g18
I369
sba(i__main__
Token
p857
(dp858
g18
I370
sba(i__main__
Token
p859
(dp860
g18
I371
sba(i__main__
Token
p861
(dp862
g18
I372
sba(i__main__
Token
p863
(dp864
g18
I373
sba(i__main__
Token
p865
(dp866
g18
I374
sba(i__main__
Token
p867
(dp868
g18
I375
sba(i__main__
Token
p869
(dp870
g18
I376
sba(i__main__
Token
p871
(dp872
g18
I377
sba(i__main__
Token
p873
(dp874
g18
I378
sba(i__main__
Token
p875
(dp876
g18
I379
sba(i__main__
Token
p877
(dp878
g18
I380
sbasg21
I375
sbasg7
g826
sg229
Nsba(i__main__
Chain
p879
(dp880
g3
(lp881
(i__main__
Mention
p882
(dp883
g7
S't22'
p884
sg9
Nsg10
S'i73'
p885
sg12
Nsg13
Nsg14
(lp886
(i__main__
Token
p887
(dp888
g18
I369
sba(i__main__
Token
p889
(dp890
g18
I370
sbasg21
I370
sba(i__main__
Mention
p891
(dp892
g7
S't22'
p893
sg9
S'Anaphora-C'
p894
sg10
S'i74'
p895
sg12
S'i73'
p896
sg13
Nsg14
(lp897
(i__main__
Token
p898
(dp899
g18
I384
sbasg21
I384
sba(i__main__
Mention
p900
(dp901
g7
S't22'
p902
sg9
S'Coreference-Identity'
p903
sg10
S'i75'
p904
sg12
S'i74'
p905
sg13
Nsg14
(lp906
(i__main__
Token
p907
(dp908
g18
I389
sbasg21
I389
sbasg7
g884
sg229
Nsba(i__main__
Chain
p909
(dp910
g3
(lp911
(i__main__
Mention
p912
(dp913
g7
S't23'
p914
sg9
Nsg10
S'i80'
p915
sg12
Nsg13
Nsg14
(lp916
(i__main__
Token
p917
(dp918
g18
I413
sbasg21
I413
sbasg7
g914
sg229
Nsba(i__main__
Chain
p919
(dp920
g3
(lp921
(i__main__
Mention
p922
(dp923
g7
S't24'
p924
sg9
Nsg10
S'i83'
p925
sg12
Nsg13
Nsg14
(lp926
(i__main__
Token
p927
(dp928
g18
I441
sbasg21
I441
sbasg7
g924
sg229
Nsba(i__main__
Chain
p929
(dp930
g3
(lp931
(i__main__
Mention
p932
(dp933
g7
S't25'
p934
sg9
Nsg10
S'i84'
p935
sg12
Nsg13
Nsg14
(lp936
(i__main__
Token
p937
(dp938
g18
I442
sbasg21
I442
sbasg7
g934
sg229
Nsba(i__main__
Chain
p939
(dp940
g3
(lp941
(i__main__
Mention
p942
(dp943
g7
S't26'
p944
sg9
Nsg10
S'i85'
p945
sg12
Nsg13
Nsg14
(lp946
(i__main__
Token
p947
(dp948
g18
I445
sbasg21
I445
sba(i__main__
Mention
p949
(dp950
g7
S't26'
p951
sg9
S'Anaphora-C'
p952
sg10
S'i86'
p953
sg12
S'i85'
p954
sg13
Nsg14
(lp955
(i__main__
Token
p956
(dp957
g18
I449
sbasg21
I449
sba(i__main__
Mention
p958
(dp959
g7
S't26'
p960
sg9
S'Coreference-Identity'
p961
sg10
S'i90'
p962
sg12
S'i86'
p963
sg13
Nsg14
(lp964
(i__main__
Token
p965
(dp966
g18
I459
sbasg21
I459
sba(i__main__
Mention
p967
(dp968
g7
S't26'
p969
sg9
S'Anaphora-C'
p970
sg10
S'i91'
p971
sg12
S'i90'
p972
sg13
Nsg14
(lp973
(i__main__
Token
p974
(dp975
g18
I464
sbasg21
I464
sbasg7
g944
sg229
Nsba.