(lp0
(i__main__
Chain
p1
(dp2
S'mentionList'
p3
(lp4
(i__main__
Mention
p5
(dp6
S'chainId'
p7
S't1'
p8
sS'relType'
p9
NsS'mentionId'
p10
S'i1'
p11
sS'antecedentId'
p12
NsS'crefMod'
p13
NsS'tokenList'
p14
(lp15
(i__main__
Token
p16
(dp17
S'tokenId'
p18
I0
sbasS'mentionHead'
p19
I0
sba(i__main__
Mention
p20
(dp21
g7
S't1'
p22
sg9
S'Coreference-Identity'
p23
sg10
S'i55'
p24
sg12
S'i1'
p25
sg13
Nsg14
(lp26
(i__main__
Token
p27
(dp28
g18
I234
sbasg19
I234
sba(i__main__
Mention
p29
(dp30
g7
S't1'
p31
sg9
S'Coreference-Identity'
p32
sg10
S'i61'
p33
sg12
S'i55'
p34
sg13
Nsg14
(lp35
(i__main__
Token
p36
(dp37
g18
I280
sbasg19
I280
sbasg7
g8
sS'chainHead'
p38
Nsba(i__main__
Chain
p39
(dp40
g3
(lp41
(i__main__
Mention
p42
(dp43
g7
S't2'
p44
sg9
Nsg10
S'i2'
p45
sg12
Nsg13
Nsg14
(lp46
(i__main__
Token
p47
(dp48
g18
I2
sba(i__main__
Token
p49
(dp50
g18
I3
sbasg19
I3
sba(i__main__
Mention
p51
(dp52
g7
S't2'
p53
sg9
S'Coreference-Noun-Noun'
p54
sg10
S'i44'
p55
sg12
S'i2'
p56
sg13
Nsg14
(lp57
(i__main__
Token
p58
(dp59
g18
I186
sbasg19
I186
sba(i__main__
Mention
p60
(dp61
g7
S't2'
p62
sg9
S'Coreference-Identity'
p63
sg10
S'i56'
p64
sg12
S'i44'
p65
sg13
Nsg14
(lp66
(i__main__
Token
p67
(dp68
g18
I247
sbasg19
I247
sbasg7
g44
sg38
Nsba(i__main__
Chain
p69
(dp70
g3
(lp71
(i__main__
Mention
p72
(dp73
g7
S't3'
p74
sg9
Nsg10
S'i3'
p75
sg12
Nsg13
Nsg14
(lp76
(i__main__
Token
p77
(dp78
g18
I6
sbasg19
I6
sba(i__main__
Mention
p79
(dp80
g7
S't3'
p81
sg9
S'Coreference-Identity'
p82
sg10
S'i17'
p83
sg12
S'i3'
p84
sg13
Nsg14
(lp85
(i__main__
Token
p86
(dp87
g18
I66
sbasg19
I66
sba(i__main__
Mention
p88
(dp89
g7
S't3'
p90
sg9
S'Coreference-Identity'
p91
sg10
S'i40'
p92
sg12
S'i17'
p93
sg13
Nsg14
(lp94
(i__main__
Token
p95
(dp96
g18
I150
sbasg19
I150
sbasg7
g74
sg38
Nsba(i__main__
Chain
p97
(dp98
g3
(lp99
(i__main__
Mention
p100
(dp101
g7
S't4'
p102
sg9
Nsg10
S'i4'
p103
sg12
Nsg13
Nsg14
(lp104
(i__main__
Token
p105
(dp106
g18
I10
sba(i__main__
Token
p107
(dp108
g18
I11
sbasg19
I11
sba(i__main__
Mention
p109
(dp110
g7
S't4'
p111
sg9
S'Coreference-Noun-Noun'
p112
sg10
S'i45'
p113
sg12
S'i4'
p114
sg13
Nsg14
(lp115
(i__main__
Token
p116
(dp117
g18
I189
sbasg19
I189
sba(i__main__
Mention
p118
(dp119
g7
S't4'
p120
sg9
S'Coreference-Identity'
p121
sg10
S'i66'
p122
sg12
S'i45'
p123
sg13
Nsg14
(lp124
(i__main__
Token
p125
(dp126
g18
I314
sbasg19
I314
sba(i__main__
Mention
p127
(dp128
g7
S't4'
p129
sg9
S'Anaphora-C'
p130
sg10
S'i67'
p131
sg12
S'i66'
p132
sg13
Nsg14
(lp133
(i__main__
Token
p134
(dp135
g18
I316
sbasg19
I316
sbasg7
g102
sg38
Nsba(i__main__
Chain
p136
(dp137
g3
(lp138
(i__main__
Mention
p139
(dp140
g7
S't5'
p141
sg9
Nsg10
S'i5'
p142
sg12
Nsg13
Nsg14
(lp143
(i__main__
Token
p144
(dp145
g18
I13
sbasg19
I13
sba(i__main__
Mention
p146
(dp147
g7
S't5'
p148
sg9
S'Coreference-Identity'
p149
sg10
S'i49'
p150
sg12
S'i5'
p151
sg13
Nsg14
(lp152
(i__main__
Token
p153
(dp154
g18
I204
sbasg19
I204
sba(i__main__
Mention
p155
(dp156
g7
S't5'
p157
sg9
S'Coreference-Identity'
p158
sg10
S'i57'
p159
sg12
S'i49'
p160
sg13
Nsg14
(lp161
(i__main__
Token
p162
(dp163
g18
I255
sbasg19
I255
sba(i__main__
Mention
p164
(dp165
g7
S't5'
p166
sg9
S'Coreference-Identity'
p167
sg10
S'i65'
p168
sg12
S'i57'
p169
sg13
Nsg14
(lp170
(i__main__
Token
p171
(dp172
g18
I295
sbasg19
I295
sbasg7
g141
sg38
Nsba(i__main__
Chain
p173
(dp174
g3
(lp175
(i__main__
Mention
p176
(dp177
g7
S't6'
p178
sg9
Nsg10
S'i6'
p179
sg12
Nsg13
Nsg14
(lp180
(i__main__
Token
p181
(dp182
g18
I15
sba(i__main__
Token
p183
(dp184
g18
I16
sbasg19
Nsba(i__main__
Mention
p185
(dp186
g7
S't6'
p187
sg9
Nsg10
S'i11'
p188
sg12
Nsg13
Nsg14
(lp189
(i__main__
Token
p190
(dp191
g18
I37
sba(i__main__
Token
p192
(dp193
g18
I38
sbasg19
Nsba(i__main__
Mention
p194
(dp195
g7
S't6'
p196
sg9
S'Coreference-PartOf'
p197
sg10
S'i13'
p198
sg12
S'i11'
p199
sg13
Nsg14
(lp200
(i__main__
Token
p201
(dp202
g18
I41
sba(i__main__
Token
p203
(dp204
g18
I42
sbasg19
I42
sba(i__main__
Mention
p205
(dp206
g7
S't6'
p207
sg9
S'Coreference-Identity'
p208
sg10
S'i15'
p209
sg12
S'i13'
p210
sg13
Nsg14
(lp211
(i__main__
Token
p212
(dp213
g18
I52
sbasg19
I52
sba(i__main__
Mention
p214
(dp215
g7
S't6'
p216
sg9
Nsg10
S'i19'
p217
sg12
Nsg13
Nsg14
(lp218
(i__main__
Token
p219
(dp220
g18
I73
sba(i__main__
Token
p221
(dp222
g18
I74
sbasg19
Nsba(i__main__
Mention
p223
(dp224
g7
S't6'
p225
sg9
Nsg10
S'i22'
p226
sg12
Nsg13
Nsg14
(lp227
(i__main__
Token
p228
(dp229
g18
I82
sbasg19
Nsba(i__main__
Mention
p230
(dp231
g7
S't6'
p232
sg9
Nsg10
S'i26'
p233
sg12
Nsg13
Nsg14
(lp234
(i__main__
Token
p235
(dp236
g18
I94
sba(i__main__
Token
p237
(dp238
g18
I95
sba(i__main__
Token
p239
(dp240
g18
I96
sbasg19
Nsba(i__main__
Mention
p241
(dp242
g7
S't6'
p243
sg9
Nsg10
S'i35'
p244
sg12
Nsg13
Nsg14
(lp245
(i__main__
Token
p246
(dp247
g18
I124
sba(i__main__
Token
p248
(dp249
g18
I125
sba(i__main__
Token
p250
(dp251
g18
I126
sbasg19
Nsba(i__main__
Mention
p252
(dp253
g7
S't6'
p254
sg9
Nsg10
S'i37'
p255
sg12
Nsg13
Nsg14
(lp256
(i__main__
Token
p257
(dp258
g18
I132
sba(i__main__
Token
p259
(dp260
g18
I133
sba(i__main__
Token
p261
(dp262
g18
I134
sbasg19
Nsbasg7
g178
sg38
Nsba(i__main__
Chain
p263
(dp264
g3
(lp265
(i__main__
Mention
p266
(dp267
g7
S't7'
p268
sg9
Nsg10
S'i7'
p269
sg12
Nsg13
Nsg14
(lp270
(i__main__
Token
p271
(dp272
g18
I15
sba(i__main__
Token
p273
(dp274
g18
I16
sbasg19
Nsba(i__main__
Mention
p275
(dp276
g7
S't7'
p277
sg9
Nsg10
S'i12'
p278
sg12
Nsg13
Nsg14
(lp279
(i__main__
Token
p280
(dp281
g18
I37
sba(i__main__
Token
p282
(dp283
g18
I38
sbasg19
Nsba(i__main__
Mention
p284
(dp285
g7
S't7'
p286
sg9
S'Coreference-RPartOf'
p287
sg10
S'i14'
p288
sg12
S'i12'
p289
sg13
Nsg14
(lp290
(i__main__
Token
p291
(dp292
g18
I44
sba(i__main__
Token
p293
(dp294
g18
I45
sbasg19
I45
sba(i__main__
Mention
p295
(dp296
g7
S't7'
p297
sg9
S'Coreference-Identity'
p298
sg10
S'i16'
p299
sg12
S'i14'
p300
sg13
Nsg14
(lp301
(i__main__
Token
p302
(dp303
g18
I58
sba(i__main__
Token
p304
(dp305
g18
I59
sbasg19
I59
sba(i__main__
Mention
p306
(dp307
g7
S't7'
p308
sg9
Nsg10
S'i20'
p309
sg12
Nsg13
Nsg14
(lp310
(i__main__
Token
p311
(dp312
g18
I73
sba(i__main__
Token
p313
(dp314
g18
I74
sbasg19
Nsba(i__main__
Mention
p315
(dp316
g7
S't7'
p317
sg9
Nsg10
S'i23'
p318
sg12
Nsg13
Nsg14
(lp319
(i__main__
Token
p320
(dp321
g18
I82
sbasg19
Nsba(i__main__
Mention
p322
(dp323
g7
S't7'
p324
sg9
Nsg10
S'i27'
p325
sg12
Nsg13
Nsg14
(lp326
(i__main__
Token
p327
(dp328
g18
I94
sba(i__main__
Token
p329
(dp330
g18
I95
sba(i__main__
Token
p331
(dp332
g18
I96
sbasg19
Nsba(i__main__
Mention
p333
(dp334
g7
S't7'
p335
sg9
Nsg10
S'i36'
p336
sg12
Nsg13
Nsg14
(lp337
(i__main__
Token
p338
(dp339
g18
I124
sba(i__main__
Token
p340
(dp341
g18
I125
sba(i__main__
Token
p342
(dp343
g18
I126
sbasg19
Nsba(i__main__
Mention
p344
(dp345
g7
S't7'
p346
sg9
Nsg10
S'i38'
p347
sg12
Nsg13
Nsg14
(lp348
(i__main__
Token
p349
(dp350
g18
I132
sba(i__main__
Token
p351
(dp352
g18
I133
sba(i__main__
Token
p353
(dp354
g18
I134
sbasg19
Nsbasg7
g268
sg38
Nsba(i__main__
Chain
p355
(dp356
g3
(lp357
(i__main__
Mention
p358
(dp359
g7
S't8'
p360
sg9
Nsg10
S'i8'
p361
sg12
Nsg13
Nsg14
(lp362
(i__main__
Token
p363
(dp364
g18
I18
sbasg19
I18
sba(i__main__
Mention
p365
(dp366
g7
S't8'
p367
sg9
S'Anaphora-C'
p368
sg10
S'i9'
p369
sg12
S'i8'
p370
sg13
Nsg14
(lp371
(i__main__
Token
p372
(dp373
g18
I23
sbasg19
I23
sba(i__main__
Mention
p374
(dp375
g7
S't8'
p376
sg9
S'Anaphora-C'
p377
sg10
S'i41'
p378
sg12
S'i9'
p379
sg13
Nsg14
(lp380
(i__main__
Token
p381
(dp382
g18
I155
sbasg19
I155
sbasg7
g360
sg38
Nsba(i__main__
Chain
p383
(dp384
g3
(lp385
(i__main__
Mention
p386
(dp387
g7
S't9'
p388
sg9
Nsg10
S'i10'
p389
sg12
Nsg13
Nsg14
(lp390
(i__main__
Token
p391
(dp392
g18
I25
sba(i__main__
Token
p393
(dp394
g18
I26
sba(i__main__
Token
p395
(dp396
g18
I27
sba(i__main__
Token
p397
(dp398
g18
I28
sba(i__main__
Token
p399
(dp400
g18
I29
sbasg19
I29
sba(i__main__
Mention
p401
(dp402
g7
S't9'
p403
sg9
S'Coreference-Identity'
p404
sg10
S'i34'
p405
sg12
S'i10'
p406
sg13
Nsg14
(lp407
(i__main__
Token
p408
(dp409
g18
I122
sbasg19
I122
sbasg7
g388
sg38
Nsba(i__main__
Chain
p410
(dp411
g3
(lp412
(i__main__
Mention
p413
(dp414
g7
S't10'
p415
sg9
Nsg10
S'i18'
p416
sg12
Nsg13
Nsg14
(lp417
(i__main__
Token
p418
(dp419
g18
I68
sba(i__main__
Token
p420
(dp421
g18
I69
sbasg19
I69
sba(i__main__
Mention
p422
(dp423
g7
S't10'
p424
sg9
S'Coreference-Identity'
p425
sg10
S'i25'
p426
sg12
S'i18'
p427
sg13
Nsg14
(lp428
(i__main__
Token
p429
(dp430
g18
I87
sbasg19
I87
sbasg7
g415
sg38
Nsba(i__main__
Chain
p431
(dp432
g3
(lp433
(i__main__
Mention
p434
(dp435
g7
S't11'
p436
sg9
Nsg10
S'i21'
p437
sg12
Nsg13
Nsg14
(lp438
(i__main__
Token
p439
(dp440
g18
I81
sbasg19
I81
sba(i__main__
Mention
p441
(dp442
g7
S't11'
p443
sg9
S'Anaphora-RE'
p444
sg10
S'i24'
p445
sg12
S'i21'
p446
sg13
Nsg14
(lp447
(i__main__
Token
p448
(dp449
g18
I82
sba(i__main__
Token
p450
(dp451
g18
I83
sba(i__main__
Token
p452
(dp453
g18
I84
sba(i__main__
Token
p454
(dp455
g18
I85
sbasg19
I83
sbasg7
g436
sg38
Nsba(i__main__
Chain
p456
(dp457
g3
(lp458
(i__main__
Mention
p459
(dp460
g7
S't12'
p461
sg9
Nsg10
S'i28'
p462
sg12
Nsg13
Nsg14
(lp463
(i__main__
Token
p464
(dp465
g18
I98
sbasg19
I98
sba(i__main__
Mention
p466
(dp467
g7
S't12'
p468
sg9
S'Coreference-Identity'
p469
sg10
S'i30'
p470
sg12
S'i28'
p471
sg13
Nsg14
(lp472
(i__main__
Token
p473
(dp474
g18
I108
sbasg19
I108
sbasg7
g461
sg38
Nsba(i__main__
Chain
p475
(dp476
g3
(lp477
(i__main__
Mention
p478
(dp479
g7
S't13'
p480
sg9
Nsg10
S'i29'
p481
sg12
Nsg13
Nsg14
(lp482
(i__main__
Token
p483
(dp484
g18
I100
sba(i__main__
Token
p485
(dp486
g18
I101
sbasg19
I101
sba(i__main__
Mention
p487
(dp488
g7
S't13'
p489
sg9
S'Coreference-Identity'
p490
sg10
S'i32'
p491
sg12
S'i29'
p492
sg13
Nsg14
(lp493
(i__main__
Token
p494
(dp495
g18
I110
sba(i__main__
Token
p496
(dp497
g18
I111
sbasg19
I111
sbasg7
g480
sg38
Nsba(i__main__
Chain
p498
(dp499
g3
(lp500
(i__main__
Mention
p501
(dp502
g7
S't14'
p503
sg9
Nsg10
S'i31'
p504
sg12
Nsg13
Nsg14
(lp505
(i__main__
Token
p506
(dp507
g18
I108
sba(i__main__
Token
p508
(dp509
g18
I109
sba(i__main__
Token
p510
(dp511
g18
I110
sba(i__main__
Token
p512
(dp513
g18
I111
sba(i__main__
Token
p514
(dp515
g18
I112
sba(i__main__
Token
p516
(dp517
g18
I113
sba(i__main__
Token
p518
(dp519
g18
I114
sba(i__main__
Token
p520
(dp521
g18
I115
sba(i__main__
Token
p522
(dp523
g18
I116
sba(i__main__
Token
p524
(dp525
g18
I117
sbasg19
I115
sba(i__main__
Mention
p526
(dp527
g7
S't14'
p528
sg9
S'Anaphora-E'
p529
sg10
S'i33'
p530
sg12
S'i31'
p531
sg13
Nsg14
(lp532
(i__main__
Token
p533
(dp534
g18
I119
sbasg19
I119
sbasg7
g503
sg38
Nsba(i__main__
Chain
p535
(dp536
g3
(lp537
(i__main__
Mention
p538
(dp539
g7
S't15'
p540
sg9
Nsg10
S'i39'
p541
sg12
Nsg13
Nsg14
(lp542
(i__main__
Token
p543
(dp544
g18
I135
sba(i__main__
Token
p545
(dp546
g18
I136
sba(i__main__
Token
p547
(dp548
g18
I137
sbasg19
I137
sba(i__main__
Mention
p549
(dp550
g7
S't15'
p551
sg9
S'Coreference-Identity'
p552
sg10
S'i48'
p553
sg12
S'i39'
p554
sg13
Nsg14
(lp555
(i__main__
Token
p556
(dp557
g18
I201
sba(i__main__
Token
p558
(dp559
g18
I202
sbasg19
I202
sbasg7
g540
sg38
Nsba(i__main__
Chain
p560
(dp561
g3
(lp562
(i__main__
Mention
p563
(dp564
g7
S't16'
p565
sg9
Nsg10
S'i42'
p566
sg12
Nsg13
Nsg14
(lp567
(i__main__
Token
p568
(dp569
g18
I170
sba(i__main__
Token
p570
(dp571
g18
I171
sbasg19
I171
sba(i__main__
Mention
p572
(dp573
g7
S't16'
p574
sg9
S'Anaphora-C'
p575
sg10
S'i43'
p576
sg12
S'i42'
p577
sg13
Nsg14
(lp578
(i__main__
Token
p579
(dp580
g18
I178
sbasg19
I178
sbasg7
g565
sg38
Nsba(i__main__
Chain
p581
(dp582
g3
(lp583
(i__main__
Mention
p584
(dp585
g7
S't17'
p586
sg9
Nsg10
S'i46'
p587
sg12
Nsg13
Nsg14
(lp588
(i__main__
Token
p589
(dp590
g18
I191
sba(i__main__
Token
p591
(dp592
g18
I192
sbasg19
I192
sba(i__main__
Mention
p593
(dp594
g7
S't17'
p595
sg9
S'Coreference-Identity'
p596
sg10
S'i53'
p597
sg12
S'i46'
p598
sg13
Nsg14
(lp599
(i__main__
Token
p600
(dp601
g18
I221
sbasg19
I221
sbasg7
g586
sg38
Nsba(i__main__
Chain
p602
(dp603
g3
(lp604
(i__main__
Mention
p605
(dp606
g7
S't18'
p607
sg9
Nsg10
S'i47'
p608
sg12
Nsg13
Nsg14
(lp609
(i__main__
Token
p610
(dp611
g18
I199
sbasg19
I199
sbasg7
g607
sg38
Nsba(i__main__
Chain
p612
(dp613
g3
(lp614
(i__main__
Mention
p615
(dp616
g7
S't19'
p617
sg9
Nsg10
S'i51'
p618
sg12
Nsg13
Nsg14
(lp619
(i__main__
Token
p620
(dp621
g18
I206
sbasg19
I206
sba(i__main__
Mention
p622
(dp623
g7
S't19'
p624
sg9
S'Coreference-Identity'
p625
sg10
S'i59'
p626
sg12
S'i51'
p627
sg13
Nsg14
(lp628
(i__main__
Token
p629
(dp630
g18
I259
sbasg19
I259
sba(i__main__
Mention
p631
(dp632
g7
S't19'
p633
sg9
S'Coreference-Identity'
p634
sg10
S'i64'
p635
sg12
S'i59'
p636
sg13
Nsg14
(lp637
(i__main__
Token
p638
(dp639
g18
I291
sbasg19
I291
sbasg7
g617
sg38
Nsba(i__main__
Chain
p640
(dp641
g3
(lp642
(i__main__
Mention
p643
(dp644
g7
S't20'
p645
sg9
Nsg10
S'i50'
p646
sg12
Nsg13
Nsg14
(lp647
(i__main__
Token
p648
(dp649
g18
I208
sba(i__main__
Token
p650
(dp651
g18
I209
sbasg19
I209
sba(i__main__
Mention
p652
(dp653
g7
S't20'
p654
sg9
S'Anaphora-C'
p655
sg10
S'i52'
p656
sg12
S'i50'
p657
sg13
Nsg14
(lp658
(i__main__
Token
p659
(dp660
g18
I216
sbasg19
I216
sbasg7
g645
sg38
Nsba(i__main__
Chain
p661
(dp662
g3
(lp663
(i__main__
Mention
p664
(dp665
g7
S't21'
p666
sg9
Nsg10
S'i54'
p667
sg12
Nsg13
Nsg14
(lp668
(i__main__
Token
p669
(dp670
g18
I233
sbasg19
I233
sbasg7
g666
sg38
Nsba(i__main__
Chain
p671
(dp672
g3
(lp673
(i__main__
Mention
p674
(dp675
g7
S't22'
p676
sg9
Nsg10
S'i58'
p677
sg12
Nsg13
Nsg14
(lp678
(i__main__
Token
p679
(dp680
g18
I262
sbasg19
I262
sba(i__main__
Mention
p681
(dp682
g7
S't22'
p683
sg9
S'Coreference-Identity'
p684
sg10
S'i60'
p685
sg12
S'i58'
p686
sg13
Nsg14
(lp687
(i__main__
Token
p688
(dp689
g18
I270
sba(i__main__
Token
p690
(dp691
g18
I271
sbasg19
I271
sbasg7
g676
sg38
Nsba(i__main__
Chain
p692
(dp693
g3
(lp694
(i__main__
Mention
p695
(dp696
g7
S't23'
p697
sg9
Nsg10
S'i62'
p698
sg12
Nsg13
Nsg14
(lp699
(i__main__
Token
p700
(dp701
g18
I283
sba(i__main__
Token
p702
(dp703
g18
I284
sba(i__main__
Token
p704
(dp705
g18
I285
sba(i__main__
Token
p706
(dp707
g18
I286
sbasg19
I286
sba(i__main__
Mention
p708
(dp709
g7
S't23'
p710
sg9
S'Anaphora-C'
p711
sg10
S'i63'
p712
sg12
S'i62'
p713
sg13
Nsg14
(lp714
(i__main__
Token
p715
(dp716
g18
I290
sbasg19
I290
sbasg7
g697
sg38
Nsba.