(lp0
(i__main__
Chain
p1
(dp2
S'mentionList'
p3
(lp4
(i__main__
Mention
p5
(dp6
S'chainId'
p7
S't1'
p8
sS'relType'
p9
NsS'mentionId'
p10
S'i1'
p11
sS'antecedentId'
p12
NsS'crefMod'
p13
NsS'tokenList'
p14
(lp15
(i__main__
Token
p16
(dp17
S'tokenId'
p18
I0
sbasS'mentionHead'
p19
I0
sba(i__main__
Mention
p20
(dp21
g7
S't1'
p22
sg9
S'Coreference-Noun-Noun'
p23
sg10
S'i4'
p24
sg12
S'i1'
p25
sg13
Nsg14
(lp26
(i__main__
Token
p27
(dp28
g18
I9
sbasg19
I9
sba(i__main__
Mention
p29
(dp30
g7
S't1'
p31
sg9
S'Coreference-Identity'
p32
sg10
S'i6'
p33
sg12
S'i4'
p34
sg13
Nsg14
(lp35
(i__main__
Token
p36
(dp37
g18
I23
sbasg19
I23
sba(i__main__
Mention
p38
(dp39
g7
S't1'
p40
sg9
S'Coreference-Noun-Noun'
p41
sg10
S'i7'
p42
sg12
S'i6'
p43
sg13
Nsg14
(lp44
(i__main__
Token
p45
(dp46
g18
I28
sbasg19
I28
sba(i__main__
Mention
p47
(dp48
g7
S't1'
p49
sg9
S'Anaphora-C'
p50
sg10
S'i10'
p51
sg12
S'i7'
p52
sg13
Nsg14
(lp53
(i__main__
Token
p54
(dp55
g18
I43
sbasg19
I43
sba(i__main__
Mention
p56
(dp57
g7
S't1'
p58
sg9
S'Coreference-Noun-Noun'
p59
sg10
S'i16'
p60
sg12
S'i10'
p61
sg13
Nsg14
(lp62
(i__main__
Token
p63
(dp64
g18
I73
sbasg19
I73
sba(i__main__
Mention
p65
(dp66
g7
S't1'
p67
sg9
S'Coreference-Noun-Noun'
p68
sg10
S'i25'
p69
sg12
S'i16'
p70
sg13
Nsg14
(lp71
(i__main__
Token
p72
(dp73
g18
I140
sbasg19
I140
sba(i__main__
Mention
p74
(dp75
g7
S't1'
p76
sg9
S'Coreference-Identity'
p77
sg10
S'i32'
p78
sg12
S'i25'
p79
sg13
Nsg14
(lp80
(i__main__
Token
p81
(dp82
g18
I174
sbasg19
I174
sba(i__main__
Mention
p83
(dp84
g7
S't1'
p85
sg9
S'Coreference-Noun-Noun'
p86
sg10
S'i35'
p87
sg12
S'i32'
p88
sg13
Nsg14
(lp89
(i__main__
Token
p90
(dp91
g18
I186
sbasg19
I186
sba(i__main__
Mention
p92
(dp93
g7
S't1'
p94
sg9
S'Coreference-Identity'
p95
sg10
S'i37'
p96
sg12
S'i35'
p97
sg13
Nsg14
(lp98
(i__main__
Token
p99
(dp100
g18
I198
sbasg19
I198
sbasg7
g8
sS'chainHead'
p101
Nsba(i__main__
Chain
p102
(dp103
g3
(lp104
(i__main__
Mention
p105
(dp106
g7
S't2'
p107
sg9
Nsg10
S'i2'
p108
sg12
Nsg13
Nsg14
(lp109
(i__main__
Token
p110
(dp111
g18
I5
sbasg19
I5
sba(i__main__
Mention
p112
(dp113
g7
S't2'
p114
sg9
S'Coreference-NounComplement'
p115
sg10
S'i3'
p116
sg12
S'i2'
p117
sg13
Nsg14
(lp118
(i__main__
Token
p119
(dp120
g18
I6
sba(i__main__
Token
p121
(dp122
g18
I7
sbasg19
I7
sba(i__main__
Mention
p123
(dp124
g7
S't2'
p125
sg9
S'Coreference-Identity'
p126
sg10
S'i13'
p127
sg12
S'i3'
p128
sg13
Nsg14
(lp129
(i__main__
Token
p130
(dp131
g18
I51
sbasg19
I51
sba(i__main__
Mention
p132
(dp133
g7
S't2'
p134
sg9
S'Anaphora-C'
p135
sg10
S'i14'
p136
sg12
S'i13'
p137
sg13
Nsg14
(lp138
(i__main__
Token
p139
(dp140
g18
I63
sbasg19
I63
sba(i__main__
Mention
p141
(dp142
g7
S't2'
p143
sg9
S'Coreference-Identity'
p144
sg10
S'i18'
p145
sg12
S'i14'
p146
sg13
Nsg14
(lp147
(i__main__
Token
p148
(dp149
g18
I80
sbasg19
I80
sba(i__main__
Mention
p150
(dp151
g7
S't2'
p152
sg9
S'Coreference-Identity'
p153
sg10
S'i20'
p154
sg12
S'i18'
p155
sg13
Nsg14
(lp156
(i__main__
Token
p157
(dp158
g18
I94
sbasg19
I94
sbasg7
g107
sg101
Nsba(i__main__
Chain
p159
(dp160
g3
(lp161
(i__main__
Mention
p162
(dp163
g7
S't3'
p164
sg9
Nsg10
S'i5'
p165
sg12
Nsg13
Nsg14
(lp166
(i__main__
Token
p167
(dp168
g18
I9
sba(i__main__
Token
p169
(dp170
g18
I10
sba(i__main__
Token
p171
(dp172
g18
I11
sba(i__main__
Token
p173
(dp174
g18
I12
sbasg19
I12
sba(i__main__
Mention
p175
(dp176
g7
S't3'
p177
sg9
S'Coreference-Identity'
p178
sg10
S'i26'
p179
sg12
S'i51'
p180
sg13
Nsg14
(lp181
(i__main__
Token
p182
(dp183
g18
I140
sba(i__main__
Token
p184
(dp185
g18
I141
sba(i__main__
Token
p186
(dp187
g18
I142
sba(i__main__
Token
p188
(dp189
g18
I143
sbasg19
I143
sba(i__main__
Mention
p190
(dp191
g7
S't3'
p192
sg9
S'Coreference-Identity'
p193
sg10
S'i33'
p194
sg12
S'i26'
p195
sg13
Nsg14
(lp196
(i__main__
Token
p197
(dp198
g18
I174
sba(i__main__
Token
p199
(dp200
g18
I175
sbasg19
I175
sba(i__main__
Mention
p201
(dp202
g7
S't3'
p203
sg9
S'Coreference-Identity'
p204
sg10
S'i38'
p205
sg12
S'i33'
p206
sg13
Nsg14
(lp207
(i__main__
Token
p208
(dp209
g18
I198
sba(i__main__
Token
p210
(dp211
g18
I199
sbasg19
I199
sba(i__main__
Mention
p212
(dp213
g7
S't3'
p214
sg9
S'Anaphora-C'
p215
sg10
S'i41'
p216
sg12
S'i38'
p217
sg13
Nsg14
(lp218
(i__main__
Token
p219
(dp220
g18
I211
sbasg19
I211
sba(i__main__
Mention
p221
(dp222
g7
S't3'
p223
sg9
S'Coreference-Noun-Noun'
p224
sg10
S'i42'
p225
sg12
S'i41'
p226
sg13
Nsg14
(lp227
(i__main__
Token
p228
(dp229
g18
I225
sba(i__main__
Token
p230
(dp231
g18
I226
sbasg19
I226
sbasg7
g164
sg101
Nsba(i__main__
Chain
p232
(dp233
g3
(lp234
(i__main__
Mention
p235
(dp236
g7
S't4'
p237
sg9
Nsg10
S'i8'
p238
sg12
Nsg13
Nsg14
(lp239
(i__main__
Token
p240
(dp241
g18
I31
sbasg19
I31
sba(i__main__
Mention
p242
(dp243
g7
S't4'
p244
sg9
S'Anaphora-RC'
p245
sg10
S'i9'
p246
sg12
S'i8'
p247
sg13
Nsg14
(lp248
(i__main__
Token
p249
(dp250
g18
I37
sba(i__main__
Token
p251
(dp252
g18
I38
sba(i__main__
Token
p253
(dp254
g18
I39
sba(i__main__
Token
p255
(dp256
g18
I40
sba(i__main__
Token
p257
(dp258
g18
I41
sba(i__main__
Token
p259
(dp260
g18
I42
sba(i__main__
Token
p261
(dp262
g18
I43
sba(i__main__
Token
p263
(dp264
g18
I44
sba(i__main__
Token
p265
(dp266
g18
I45
sba(i__main__
Token
p267
(dp268
g18
I46
sba(i__main__
Token
p269
(dp270
g18
I47
sbasg19
I47
sbasg7
g237
sg101
Nsba(i__main__
Chain
p271
(dp272
g3
(lp273
(i__main__
Mention
p274
(dp275
g7
S't5'
p276
sg9
Nsg10
S'i11'
p277
sg12
Nsg13
Nsg14
(lp278
(i__main__
Token
p279
(dp280
g18
I44
sbasg19
I44
sbasg7
g276
sg101
Nsba(i__main__
Chain
p281
(dp282
g3
(lp283
(i__main__
Mention
p284
(dp285
g7
S't6'
p286
sg9
Nsg10
S'i12'
p287
sg12
Nsg13
Nsg14
(lp288
(i__main__
Token
p289
(dp290
g18
I49
sbasg19
I49
sbasg7
g286
sg101
Nsba(i__main__
Chain
p291
(dp292
g3
(lp293
(i__main__
Mention
p294
(dp295
g7
S't7'
p296
sg9
Nsg10
S'i15'
p297
sg12
Nsg13
Nsg14
(lp298
(i__main__
Token
p299
(dp300
g18
I73
sba(i__main__
Token
p301
(dp302
g18
I74
sbasg19
I74
sba(i__main__
Mention
p303
(dp304
g7
S't7'
p305
sg9
S'Coreference-NounComplement'
p306
sg10
S'i17'
p307
sg12
S'i15'
p308
sg13
Nsg14
(lp309
(i__main__
Token
p310
(dp311
g18
I75
sba(i__main__
Token
p312
(dp313
g18
I76
sbasg19
I76
sba(i__main__
Mention
p314
(dp315
g7
S't7'
p316
sg9
S'Coreference-Identity'
p317
sg10
S'i19'
p318
sg12
S'i17'
p319
sg13
Nsg14
(lp320
(i__main__
Token
p321
(dp322
g18
I92
sbasg19
I92
sba(i__main__
Mention
p323
(dp324
g7
S't7'
p325
sg9
S'Anaphora-C'
p326
sg10
S'i21'
p327
sg12
S'i19'
p328
sg13
Nsg14
(lp329
(i__main__
Token
p330
(dp331
g18
I108
sbasg19
I108
sba(i__main__
Mention
p332
(dp333
g7
S't7'
p334
sg9
S'Coreference-Noun-Noun'
p335
sg10
S'i22'
p336
sg12
S'i21'
p337
sg13
Nsg14
(lp338
(i__main__
Token
p339
(dp340
g18
I123
sbasg19
I123
sba(i__main__
Mention
p341
(dp342
g7
S't7'
p343
sg9
S'Coreference-Noun-Noun'
p344
sg10
S'i28'
p345
sg12
S'i22'
p346
sg13
Nsg14
(lp347
(i__main__
Token
p348
(dp349
g18
I149
sba(i__main__
Token
p350
(dp351
g18
I150
sbasg19
I150
sba(i__main__
Mention
p352
(dp353
g7
S't7'
p354
sg9
S'Anaphora-C'
p355
sg10
S'i36'
p356
sg12
S'i28'
p357
sg13
Nsg14
(lp358
(i__main__
Token
p359
(dp360
g18
I195
sbasg19
I195
sba(i__main__
Mention
p361
(dp362
g7
S't7'
p363
sg9
S'Anaphora-C'
p364
sg10
S'i44'
p365
sg12
S'i36'
p366
sg13
Nsg14
(lp367
(i__main__
Token
p368
(dp369
g18
I231
sbasg19
I231
sbasg7
g296
sg101
Nsba(i__main__
Chain
p370
(dp371
g3
(lp372
(i__main__
Mention
p373
(dp374
g7
S't8'
p375
sg9
Nsg10
S'i23'
p376
sg12
Nsg13
Nsg14
(lp377
(i__main__
Token
p378
(dp379
g18
I133
sba(i__main__
Token
p380
(dp381
g18
I134
sbasg19
I134
sba(i__main__
Mention
p382
(dp383
g7
S't8'
p384
sg9
S'Coreference-Identity'
p385
sg10
S'i30'
p386
sg12
S'i23'
p387
sg13
Nsg14
(lp388
(i__main__
Token
p389
(dp390
g18
I168
sba(i__main__
Token
p391
(dp392
g18
I169
sbasg19
I169
sbasg7
g375
sg101
Nsba(i__main__
Chain
p393
(dp394
g3
(lp395
(i__main__
Mention
p396
(dp397
g7
S't9'
p398
sg9
Nsg10
S'i24'
p399
sg12
Nsg13
Nsg14
(lp400
(i__main__
Token
p401
(dp402
g18
I136
sbasg19
I136
sbasg7
g398
sg101
Nsba(i__main__
Chain
p403
(dp404
g3
(lp405
(i__main__
Mention
p406
(dp407
g7
S't10'
p408
sg9
Nsg10
S'i29'
p409
sg12
Nsg13
Nsg14
(lp410
(i__main__
Token
p411
(dp412
g18
I157
sbasg19
I157
sbasg7
g408
sg101
Nsba(i__main__
Chain
p413
(dp414
g3
(lp415
(i__main__
Mention
p416
(dp417
g7
S't11'
p418
sg9
Nsg10
S'i31'
p419
sg12
Nsg13
Nsg14
(lp420
(i__main__
Token
p421
(dp422
g18
I171
sbasg19
I171
sbasg7
g418
sg101
Nsba(i__main__
Chain
p423
(dp424
g3
(lp425
(i__main__
Mention
p426
(dp427
g7
S't12'
p428
sg9
Nsg10
S'i34'
p429
sg12
Nsg13
Nsg14
(lp430
(i__main__
Token
p431
(dp432
g18
I177
sbasg19
I177
sbasg7
g428
sg101
Nsba(i__main__
Chain
p433
(dp434
g3
(lp435
(i__main__
Mention
p436
(dp437
g7
S't13'
p438
sg9
Nsg10
S'i39'
p439
sg12
Nsg13
Nsg14
(lp440
(i__main__
Token
p441
(dp442
g18
I200
sbasg19
I200
sba(i__main__
Mention
p443
(dp444
g7
S't13'
p445
sg9
S'Coreference-Identity'
p446
sg10
S'i40'
p447
sg12
S'i39'
p448
sg13
Nsg14
(lp449
(i__main__
Token
p450
(dp451
g18
I206
sbasg19
I206
sbasg7
g438
sg101
Nsba(i__main__
Chain
p452
(dp453
g3
(lp454
(i__main__
Mention
p455
(dp456
g7
S't14'
p457
sg9
Nsg10
S'i43'
p458
sg12
Nsg13
Nsg14
(lp459
(i__main__
Token
p460
(dp461
g18
I227
sbasg19
I227
sba(i__main__
Mention
p462
(dp463
g7
S't14'
p464
sg9
S'Anaphora-C'
p465
sg10
S'i45'
p466
sg12
S'i43'
p467
sg13
Nsg14
(lp468
(i__main__
Token
p469
(dp470
g18
I234
sbasg19
I234
sba(i__main__
Mention
p471
(dp472
g7
S't14'
p473
sg9
S'Coreference-Identity'
p474
sg10
S'i48'
p475
sg12
S'i45'
p476
sg13
Nsg14
(lp477
(i__main__
Token
p478
(dp479
g18
I241
sbasg19
I241
sbasg7
g457
sg101
Nsba(i__main__
Chain
p480
(dp481
g3
(lp482
(i__main__
Mention
p483
(dp484
g7
S't15'
p485
sg9
Nsg10
S'i46'
p486
sg12
Nsg13
Nsg14
(lp487
(i__main__
Token
p488
(dp489
g18
I234
sba(i__main__
Token
p490
(dp491
g18
I235
sba(i__main__
Token
p492
(dp493
g18
I236
sba(i__main__
Token
p494
(dp495
g18
I237
sbasg19
I237
sba(i__main__
Mention
p496
(dp497
g7
S't15'
p498
sg9
S'Anaphora-C'
p499
sg10
S'i47'
p500
sg12
S'i46'
p501
sg13
Nsg14
(lp502
(i__main__
Token
p503
(dp504
g18
I239
sbasg19
I239
sbasg7
g485
sg101
Nsba(i__main__
Chain
p505
(dp506
g3
(lp507
(i__main__
Mention
p508
(dp509
g7
S't16'
p510
sg9
Nsg10
S'i49'
p511
sg12
Nsg13
Nsg14
(lp512
(i__main__
Token
p513
(dp514
g18
I243
sbasg19
I243
sbasg7
g510
sg101
Nsba.