(lp0
(i__main__
Chain
p1
(dp2
S'mentionList'
p3
(lp4
(i__main__
Mention
p5
(dp6
S'chainId'
p7
S't1'
p8
sS'relType'
p9
NsS'mentionId'
p10
S'i1'
p11
sS'antecedentId'
p12
NsS'crefMod'
p13
NsS'tokenList'
p14
(lp15
(i__main__
Token
p16
(dp17
S'tokenId'
p18
I3
sbasS'mentionHead'
p19
I3
sba(i__main__
Mention
p20
(dp21
g7
S't1'
p22
sg9
S'Coreference-Identity'
p23
sg10
S'i7'
p24
sg12
S'i1'
p25
sg13
Nsg14
(lp26
(i__main__
Token
p27
(dp28
g18
I24
sbasg19
I24
sba(i__main__
Mention
p29
(dp30
g7
S't1'
p31
sg9
S'Coreference-Identity'
p32
sg10
S'i11'
p33
sg12
S'i7'
p34
sg13
Nsg14
(lp35
(i__main__
Token
p36
(dp37
g18
I40
sbasg19
I40
sba(i__main__
Mention
p38
(dp39
g7
S't1'
p40
sg9
S'Coreference-Identity'
p41
sg10
S'i17'
p42
sg12
S'i11'
p43
sg13
Nsg14
(lp44
(i__main__
Token
p45
(dp46
g18
I66
sbasg19
I66
sba(i__main__
Mention
p47
(dp48
g7
S't1'
p49
sg9
S'Coreference-Identity'
p50
sg10
S'i22'
p51
sg12
S'i17'
p52
sg13
Nsg14
(lp53
(i__main__
Token
p54
(dp55
g18
I90
sbasg19
I90
sba(i__main__
Mention
p56
(dp57
g7
S't1'
p58
sg9
S'Coreference-Identity'
p59
sg10
S'i26'
p60
sg12
S'i22'
p61
sg13
Nsg14
(lp62
(i__main__
Token
p63
(dp64
g18
I120
sbasg19
I120
sbasg7
g8
sS'chainHead'
p65
Nsba(i__main__
Chain
p66
(dp67
g3
(lp68
(i__main__
Mention
p69
(dp70
g7
S't2'
p71
sg9
Nsg10
S'i2'
p72
sg12
Nsg13
Nsg14
(lp73
(i__main__
Token
p74
(dp75
g18
I11
sba(i__main__
Token
p76
(dp77
g18
I12
sbasg19
I12
sba(i__main__
Mention
p78
(dp79
g7
S't2'
p80
sg9
S'Coreference-Noun-Noun'
p81
sg10
S'i3'
p82
sg12
S'i2'
p83
sg13
Nsg14
(lp84
(i__main__
Token
p85
(dp86
g18
I14
sba(i__main__
Token
p87
(dp88
g18
I15
sba(i__main__
Token
p89
(dp90
g18
I16
sba(i__main__
Token
p91
(dp92
g18
I17
sbasg19
I17
sba(i__main__
Mention
p93
(dp94
g7
S't2'
p95
sg9
S'Coreference-NounComplement'
p96
sg10
S'i5'
p97
sg12
S'i3'
p98
sg13
Nsg14
(lp99
(i__main__
Token
p100
(dp101
g18
I18
sba(i__main__
Token
p102
(dp103
g18
I19
sba(i__main__
Token
p104
(dp105
g18
I20
sbasg19
I20
sba(i__main__
Mention
p106
(dp107
g7
S't2'
p108
sg9
S'Coreference-Noun-Noun'
p109
sg10
S'i9'
p110
sg12
S'i5'
p111
sg13
Nsg14
(lp112
(i__main__
Token
p113
(dp114
g18
I37
sba(i__main__
Token
p115
(dp116
g18
I38
sbasg19
I38
sba(i__main__
Mention
p117
(dp118
g7
S't2'
p119
sg9
S'Anaphora-C'
p120
sg10
S'i12'
p121
sg12
S'i9'
p122
sg13
Nsg14
(lp123
(i__main__
Token
p124
(dp125
g18
I48
sbasg19
I48
sba(i__main__
Mention
p126
(dp127
g7
S't2'
p128
sg9
S'Anaphora-C'
p129
sg10
S'i18'
p130
sg12
S'i12'
p131
sg13
Nsg14
(lp132
(i__main__
Token
p133
(dp134
g18
I74
sbasg19
I74
sba(i__main__
Mention
p135
(dp136
g7
S't2'
p137
sg9
S'Coreference-Noun-Noun'
p138
sg10
S'i19'
p139
sg12
S'i18'
p140
sg13
Nsg14
(lp141
(i__main__
Token
p142
(dp143
g18
I80
sbasg19
I80
sba(i__main__
Mention
p144
(dp145
g7
S't2'
p146
sg9
S'Coreference-Identity'
p147
sg10
S'i29'
p148
sg12
S'i19'
p149
sg13
Nsg14
(lp150
(i__main__
Token
p151
(dp152
g18
I148
sbasg19
I148
sbasg7
g71
sg65
Nsba(i__main__
Chain
p153
(dp154
g3
(lp155
(i__main__
Mention
p156
(dp157
g7
S't3'
p158
sg9
Nsg10
S'i4'
p159
sg12
Nsg13
Nsg14
(lp160
(i__main__
Token
p161
(dp162
g18
I14
sba(i__main__
Token
p163
(dp164
g18
I15
sba(i__main__
Token
p165
(dp166
g18
I16
sbasg19
I16
sba(i__main__
Mention
p167
(dp168
g7
S't3'
p169
sg9
S'Coreference-Noun-Noun'
p170
sg10
S'i13'
p171
sg12
S'i4'
p172
sg13
Nsg14
(lp173
(i__main__
Token
p174
(dp175
g18
I49
sbasg19
I49
sbasg7
g158
sg65
Nsba(i__main__
Chain
p176
(dp177
g3
(lp178
(i__main__
Mention
p179
(dp180
g7
S't4'
p181
sg9
Nsg10
S'i6'
p182
sg12
Nsg13
Nsg14
(lp183
(i__main__
Token
p184
(dp185
g18
I24
sba(i__main__
Token
p186
(dp187
g18
I25
sbasg19
I25
sba(i__main__
Mention
p188
(dp189
g7
S't4'
p190
sg9
S'Coreference-Identity'
p191
sg10
S'i21'
p192
sg12
S'i6'
p193
sg13
Nsg14
(lp194
(i__main__
Token
p195
(dp196
g18
I90
sba(i__main__
Token
p197
(dp198
g18
I91
sbasg19
I91
sbasg7
g181
sg65
Nsba(i__main__
Chain
p199
(dp200
g3
(lp201
(i__main__
Mention
p202
(dp203
g7
S't5'
p204
sg9
Nsg10
S'i8'
p205
sg12
Nsg13
Nsg14
(lp206
(i__main__
Token
p207
(dp208
g18
I27
sba(i__main__
Token
p209
(dp210
g18
I28
sbasg19
I28
sba(i__main__
Mention
p211
(dp212
g7
S't5'
p213
sg9
S'Coreference-Noun-Noun'
p214
sg10
S'i10'
p215
sg12
S'i8'
p216
sg13
Nsg14
(lp217
(i__main__
Token
p218
(dp219
g18
I40
sba(i__main__
Token
p220
(dp221
g18
I41
sbasg19
I41
sba(i__main__
Mention
p222
(dp223
g7
S't5'
p224
sg9
S'Coreference-Noun-Noun'
p225
sg10
S'i23'
p226
sg12
S'i10'
p227
sg13
Nsg14
(lp228
(i__main__
Token
p229
(dp230
g18
I93
sba(i__main__
Token
p231
(dp232
g18
I94
sbasg19
I94
sba(i__main__
Mention
p233
(dp234
g7
S't5'
p235
sg9
S'Coreference-Identity'
p236
sg10
S'i30'
p237
sg12
S'i23'
p238
sg13
Nsg14
(lp239
(i__main__
Token
p240
(dp241
g18
I150
sba(i__main__
Token
p242
(dp243
g18
I151
sbasg19
I151
sbasg7
g204
sg65
Nsba(i__main__
Chain
p244
(dp245
g3
(lp246
(i__main__
Mention
p247
(dp248
g7
S't6'
p249
sg9
Nsg10
S'i14'
p250
sg12
Nsg13
Nsg14
(lp251
(i__main__
Token
p252
(dp253
g18
I51
sba(i__main__
Token
p254
(dp255
g18
I52
sbasg19
I52
sba(i__main__
Mention
p256
(dp257
g7
S't6'
p258
sg9
S'Coreference-Identity'
p259
sg10
S'i24'
p260
sg12
S'i14'
p261
sg13
Nsg14
(lp262
(i__main__
Token
p263
(dp264
g18
I96
sba(i__main__
Token
p265
(dp266
g18
I97
sbasg19
I97
sba(i__main__
Mention
p267
(dp268
g7
S't6'
p269
sg9
S'Coreference-Identity'
p270
sg10
S'i31'
p271
sg12
S'i24'
p272
sg13
Nsg14
(lp273
(i__main__
Token
p274
(dp275
g18
I153
sba(i__main__
Token
p276
(dp277
g18
I154
sbasg19
I154
sbasg7
g249
sg65
Nsba(i__main__
Chain
p278
(dp279
g3
(lp280
(i__main__
Mention
p281
(dp282
g7
S't7'
p283
sg9
Nsg10
S'i15'
p284
sg12
Nsg13
Nsg14
(lp285
(i__main__
Token
p286
(dp287
g18
I58
sbasg19
I58
sba(i__main__
Mention
p288
(dp289
g7
S't7'
p290
sg9
S'Coreference-Identity'
p291
sg10
S'i25'
p292
sg12
S'i15'
p293
sg13
Nsg14
(lp294
(i__main__
Token
p295
(dp296
g18
I109
sba(i__main__
Token
p297
(dp298
g18
I110
sbasg19
I110
sbasg7
g283
sg65
Nsba(i__main__
Chain
p299
(dp300
g3
(lp301
(i__main__
Mention
p302
(dp303
g7
S't8'
p304
sg9
Nsg10
S'i16'
p305
sg12
Nsg13
Nsg14
(lp306
(i__main__
Token
p307
(dp308
g18
I64
sbasg19
I64
sba(i__main__
Mention
p309
(dp310
g7
S't8'
p311
sg9
S'Coreference-Identity'
p312
sg10
S'i27'
p313
sg12
S'i16'
p314
sg13
Nsg14
(lp315
(i__main__
Token
p316
(dp317
g18
I129
sbasg19
I129
sbasg7
g304
sg65
Nsba(i__main__
Chain
p318
(dp319
g3
(lp320
(i__main__
Mention
p321
(dp322
g7
S't9'
p323
sg9
Nsg10
S'i20'
p324
sg12
Nsg13
Nsg14
(lp325
(i__main__
Token
p326
(dp327
g18
I82
sba(i__main__
Token
p328
(dp329
g18
I83
sbasg19
I83
sba(i__main__
Mention
p330
(dp331
g7
S't9'
p332
sg9
S'Coreference-Identity'
p333
sg10
S'i28'
p334
sg12
S'i20'
p335
sg13
Nsg14
(lp336
(i__main__
Token
p337
(dp338
g18
I139
sba(i__main__
Token
p339
(dp340
g18
I140
sbasg19
I140
sbasg7
g323
sg65
Nsba.