(lp0
(i__main__
Chain
p1
(dp2
S'mentionList'
p3
(lp4
(i__main__
Mention
p5
(dp6
S'chainId'
p7
S't1'
p8
sS'relType'
p9
NsS'mentionId'
p10
S'i1'
p11
sS'antecedentId'
p12
NsS'crefMod'
p13
NsS'tokenList'
p14
(lp15
(i__main__
Token
p16
(dp17
S'tokenId'
p18
I0
sbasS'mentionHead'
p19
I0
sba(i__main__
Mention
p20
(dp21
g7
S't1'
p22
sg9
S'Coreference-Identity'
p23
sg10
S'i30'
p24
sg12
S'i1'
p25
sg13
Nsg14
(lp26
(i__main__
Token
p27
(dp28
g18
I243
sbasg19
I243
sbasg7
g8
sS'chainHead'
p29
Nsba(i__main__
Chain
p30
(dp31
g3
(lp32
(i__main__
Mention
p33
(dp34
g7
S't2'
p35
sg9
Nsg10
S'i2'
p36
sg12
Nsg13
Nsg14
(lp37
(i__main__
Token
p38
(dp39
g18
I4
sba(i__main__
Token
p40
(dp41
g18
I5
sba(i__main__
Token
p42
(dp43
g18
I6
sba(i__main__
Token
p44
(dp45
g18
I7
sba(i__main__
Token
p46
(dp47
g18
I8
sba(i__main__
Token
p48
(dp49
g18
I9
sba(i__main__
Token
p50
(dp51
g18
I10
sba(i__main__
Token
p52
(dp53
g18
I11
sba(i__main__
Token
p54
(dp55
g18
I12
sbasg19
I12
sba(i__main__
Mention
p56
(dp57
g7
S't2'
p58
sg9
S'Anaphora-E'
p59
sg10
S'i3'
p60
sg12
S'i2'
p61
sg13
Nsg14
(lp62
(i__main__
Token
p63
(dp64
g18
I14
sbasg19
I14
sbasg7
g35
sg29
Nsba(i__main__
Chain
p65
(dp66
g3
(lp67
(i__main__
Mention
p68
(dp69
g7
S't3'
p70
sg9
Nsg10
S'i4'
p71
sg12
Nsg13
Nsg14
(lp72
(i__main__
Token
p73
(dp74
g18
I16
sba(i__main__
Token
p75
(dp76
g18
I17
sbasg19
I17
sba(i__main__
Mention
p77
(dp78
g7
S't3'
p79
sg9
S'Coreference-Noun-Noun'
p80
sg10
S'i6'
p81
sg12
S'i4'
p82
sg13
Nsg14
(lp83
(i__main__
Token
p84
(dp85
g18
I31
sba(i__main__
Token
p86
(dp87
g18
I32
sbasg19
I32
sba(i__main__
Mention
p88
(dp89
g7
S't3'
p90
sg9
S'Coreference-Noun-Noun'
p91
sg10
S'i8'
p92
sg12
S'i6'
p93
sg13
Nsg14
(lp94
(i__main__
Token
p95
(dp96
g18
I41
sbasg19
I41
sba(i__main__
Mention
p97
(dp98
g7
S't3'
p99
sg9
S'Coreference-NounComplement'
p100
sg10
S'i9'
p101
sg12
S'i8'
p102
sg13
Nsg14
(lp103
(i__main__
Token
p104
(dp105
g18
I43
sbasg19
I43
sbasg7
g70
sg29
Nsba(i__main__
Chain
p106
(dp107
g3
(lp108
(i__main__
Mention
p109
(dp110
g7
S't4'
p111
sg9
Nsg10
S'i5'
p112
sg12
Nsg13
Nsg14
(lp113
(i__main__
Token
p114
(dp115
g18
I28
sba(i__main__
Token
p116
(dp117
g18
I29
sbasg19
I29
sba(i__main__
Mention
p118
(dp119
g7
S't4'
p120
sg9
S'Coreference-Identity'
p121
sg10
S'i16'
p122
sg12
S'i5'
p123
sg13
Nsg14
(lp124
(i__main__
Token
p125
(dp126
g18
I83
sba(i__main__
Token
p127
(dp128
g18
I84
sbasg19
I84
sba(i__main__
Mention
p129
(dp130
g7
S't4'
p131
sg9
S'Coreference-Identity'
p132
sg10
S'i27'
p133
sg12
S'i16'
p134
sg13
Nsg14
(lp135
(i__main__
Token
p136
(dp137
g18
I223
sba(i__main__
Token
p138
(dp139
g18
I224
sbasg19
I224
sbasg7
g111
sg29
Nsba(i__main__
Chain
p140
(dp141
g3
(lp142
(i__main__
Mention
p143
(dp144
g7
S't5'
p145
sg9
Nsg10
S'i7'
p146
sg12
Nsg13
Nsg14
(lp147
(i__main__
Token
p148
(dp149
g18
I34
sbasg19
I34
sbasg7
g145
sg29
Nsba(i__main__
Chain
p150
(dp151
g3
(lp152
(i__main__
Mention
p153
(dp154
g7
S't6'
p155
sg9
Nsg10
S'i10'
p156
sg12
Nsg13
Nsg14
(lp157
(i__main__
Token
p158
(dp159
g18
I44
sba(i__main__
Token
p160
(dp161
g18
I45
sbasg19
I45
sba(i__main__
Mention
p162
(dp163
g7
S't6'
p164
sg9
S'Coreference-Identity'
p165
sg10
S'i11'
p166
sg12
S'i10'
p167
sg13
Nsg14
(lp168
(i__main__
Token
p169
(dp170
g18
I50
sbasg19
I50
sba(i__main__
Mention
p171
(dp172
g7
S't6'
p173
sg9
S'Coreference-Identity'
p174
sg10
S'i13'
p175
sg12
S'i11'
p176
sg13
Nsg14
(lp177
(i__main__
Token
p178
(dp179
g18
I59
sbasg19
I59
sbasg7
g155
sg29
Nsba(i__main__
Chain
p180
(dp181
g3
(lp182
(i__main__
Mention
p183
(dp184
g7
S't7'
p185
sg9
Nsg10
S'i12'
p186
sg12
Nsg13
Nsg14
(lp187
(i__main__
Token
p188
(dp189
g18
I51
sbasg19
I51
sbasg7
g185
sg29
Nsba(i__main__
Chain
p190
(dp191
g3
(lp192
(i__main__
Mention
p193
(dp194
g7
S't8'
p195
sg9
Nsg10
S'i14'
p196
sg12
Nsg13
Nsg14
(lp197
(i__main__
Token
p198
(dp199
g18
I75
sba(i__main__
Token
p200
(dp201
g18
I76
sbasg19
I76
sba(i__main__
Mention
p202
(dp203
g7
S't8'
p204
sg9
S'Coreference-NounComplement'
p205
sg10
S'i15'
p206
sg12
S'i14'
p207
sg13
Nsg14
(lp208
(i__main__
Token
p209
(dp210
g18
I77
sba(i__main__
Token
p211
(dp212
g18
I78
sba(i__main__
Token
p213
(dp214
g18
I79
sbasg19
I79
sbasg7
g195
sg29
Nsba(i__main__
Chain
p215
(dp216
g3
(lp217
(i__main__
Mention
p218
(dp219
g7
S't9'
p220
sg9
Nsg10
S'i17'
p221
sg12
Nsg13
Nsg14
(lp222
(i__main__
Token
p223
(dp224
g18
I86
sba(i__main__
Token
p225
(dp226
g18
I87
sbasg19
I87
sba(i__main__
Mention
p227
(dp228
g7
S't9'
p229
sg9
S'Coreference-NounComplement'
p230
sg10
S'i18'
p231
sg12
S'i17'
p232
sg13
Nsg14
(lp233
(i__main__
Token
p234
(dp235
g18
I88
sba(i__main__
Token
p236
(dp237
g18
I89
sbasg19
I89
sbasg7
g220
sg29
Nsba(i__main__
Chain
p238
(dp239
g3
(lp240
(i__main__
Mention
p241
(dp242
g7
S't10'
p243
sg9
Nsg10
S'i19'
p244
sg12
Nsg13
Nsg14
(lp245
(i__main__
Token
p246
(dp247
g18
I105
sba(i__main__
Token
p248
(dp249
g18
I106
sba(i__main__
Token
p250
(dp251
g18
I107
sbasg19
I107
sba(i__main__
Mention
p252
(dp253
g7
S't10'
p254
sg9
S'Coreference-NounComplement'
p255
sg10
S'i20'
p256
sg12
S'i19'
p257
sg13
Nsg14
(lp258
(i__main__
Token
p259
(dp260
g18
I108
sba(i__main__
Token
p261
(dp262
g18
I109
sba(i__main__
Token
p263
(dp264
g18
I110
sbasg19
I110
sbasg7
g243
sg29
Nsba(i__main__
Chain
p265
(dp266
g3
(lp267
(i__main__
Mention
p268
(dp269
g7
S't11'
p270
sg9
Nsg10
S'i21'
p271
sg12
Nsg13
Nsg14
(lp272
(i__main__
Token
p273
(dp274
g18
I112
sba(i__main__
Token
p275
(dp276
g18
I113
sbasg19
I113
sba(i__main__
Mention
p277
(dp278
g7
S't11'
p279
sg9
S'Coreference-Identity'
p280
sg10
S'i22'
p281
sg12
S'i21'
p282
sg13
Nsg14
(lp283
(i__main__
Token
p284
(dp285
g18
I131
sbasg19
I131
sbasg7
g270
sg29
Nsba(i__main__
Chain
p286
(dp287
g3
(lp288
(i__main__
Mention
p289
(dp290
g7
S't12'
p291
sg9
Nsg10
S'i23'
p292
sg12
Nsg13
Nsg14
(lp293
(i__main__
Token
p294
(dp295
g18
I144
sba(i__main__
Token
p296
(dp297
g18
I145
sbasg19
I145
sba(i__main__
Mention
p298
(dp299
g7
S't12'
p300
sg9
S'Coreference-Identity'
p301
sg10
S'i24'
p302
sg12
S'i23'
p303
sg13
Nsg14
(lp304
(i__main__
Token
p305
(dp306
g18
I156
sba(i__main__
Token
p307
(dp308
g18
I157
sbasg19
I157
sbasg7
g291
sg29
Nsba(i__main__
Chain
p309
(dp310
g3
(lp311
(i__main__
Mention
p312
(dp313
g7
S't13'
p314
sg9
Nsg10
S'i25'
p315
sg12
Nsg13
Nsg14
(lp316
(i__main__
Token
p317
(dp318
g18
I203
sba(i__main__
Token
p319
(dp320
g18
I204
sba(i__main__
Token
p321
(dp322
g18
I205
sba(i__main__
Token
p323
(dp324
g18
I206
sbasg19
I206
sba(i__main__
Mention
p325
(dp326
g7
S't13'
p327
sg9
S'Coreference-Bracketed/Abbraviation'
p328
sg10
S'i26'
p329
sg12
S'i17'
p330
sg13
Nsg14
(lp331
(i__main__
Token
p332
(dp333
g18
I208
sbasg19
I208
sbasg7
g314
sg29
Nsba(i__main__
Chain
p334
(dp335
g3
(lp336
(i__main__
Mention
p337
(dp338
g7
S't14'
p339
sg9
Nsg10
S'i28'
p340
sg12
Nsg13
Nsg14
(lp341
(i__main__
Token
p342
(dp343
g18
I226
sba(i__main__
Token
p344
(dp345
g18
I227
sbasg19
I227
sba(i__main__
Mention
p346
(dp347
g7
S't14'
p348
sg9
S'Coreference-NounComplement'
p349
sg10
S'i29'
p350
sg12
S'i28'
p351
sg13
Nsg14
(lp352
(i__main__
Token
p353
(dp354
g18
I228
sba(i__main__
Token
p355
(dp356
g18
I229
sbasg19
I229
sbasg7
g339
sg29
Nsba(i__main__
Chain
p357
(dp358
g3
(lp359
(i__main__
Mention
p360
(dp361
g7
S't15'
p362
sg9
Nsg10
S'i31'
p363
sg12
Nsg13
Nsg14
(lp364
(i__main__
Token
p365
(dp366
g18
I245
sba(i__main__
Token
p367
(dp368
g18
I246
sbasg19
Nsba(i__main__
Mention
p369
(dp370
g7
S't15'
p371
sg9
S'Coreference-NounComplement'
p372
sg10
S'i35'
p373
sg12
S'i31'
p374
sg13
Nsg14
(lp375
(i__main__
Token
p376
(dp377
g18
I247
sba(i__main__
Token
p378
(dp379
g18
I248
sbasg19
I248
sba(i__main__
Mention
p380
(dp381
g7
S't15'
p382
sg9
Nsg10
S'i41'
p383
sg12
Nsg13
Nsg14
(lp384
(i__main__
Token
p385
(dp386
g18
I273
sbasg19
Nsba(i__main__
Mention
p387
(dp388
g7
S't15'
p389
sg9
S'Coreference-Identity'
p390
sg10
S'i45'
p391
sg12
S'i41'
p392
sg13
Nsg14
(lp393
(i__main__
Token
p394
(dp395
g18
I288
sbasg19
I288
sbasg7
g362
sg29
Nsba(i__main__
Chain
p396
(dp397
g3
(lp398
(i__main__
Mention
p399
(dp400
g7
S't16'
p401
sg9
Nsg10
S'i32'
p402
sg12
Nsg13
Nsg14
(lp403
(i__main__
Token
p404
(dp405
g18
I245
sba(i__main__
Token
p406
(dp407
g18
I246
sbasg19
Nsba(i__main__
Mention
p408
(dp409
g7
S't16'
p410
sg9
S'Coreference-NounComplement'
p411
sg10
S'i36'
p412
sg12
S'i32'
p413
sg13
Nsg14
(lp414
(i__main__
Token
p415
(dp416
g18
I250
sba(i__main__
Token
p417
(dp418
g18
I251
sbasg19
I251
sba(i__main__
Mention
p419
(dp420
g7
S't16'
p421
sg9
Nsg10
S'i42'
p422
sg12
Nsg13
Nsg14
(lp423
(i__main__
Token
p424
(dp425
g18
I273
sbasg19
Nsba(i__main__
Mention
p426
(dp427
g7
S't16'
p428
sg9
S'Coreference-Identity'
p429
sg10
S'i46'
p430
sg12
S'i42'
p431
sg13
Nsg14
(lp432
(i__main__
Token
p433
(dp434
g18
I290
sbasg19
I290
sbasg7
g401
sg29
Nsba(i__main__
Chain
p435
(dp436
g3
(lp437
(i__main__
Mention
p438
(dp439
g7
S't17'
p440
sg9
Nsg10
S'i33'
p441
sg12
Nsg13
Nsg14
(lp442
(i__main__
Token
p443
(dp444
g18
I245
sba(i__main__
Token
p445
(dp446
g18
I246
sbasg19
Nsba(i__main__
Mention
p447
(dp448
g7
S't17'
p449
sg9
S'Coreference-NounComplement'
p450
sg10
S'i37'
p451
sg12
S'i33'
p452
sg13
Nsg14
(lp453
(i__main__
Token
p454
(dp455
g18
I253
sba(i__main__
Token
p456
(dp457
g18
I254
sba(i__main__
Token
p458
(dp459
g18
I255
sbasg19
I255
sba(i__main__
Mention
p460
(dp461
g7
S't17'
p462
sg9
Nsg10
S'i43'
p463
sg12
Nsg13
Nsg14
(lp464
(i__main__
Token
p465
(dp466
g18
I273
sbasg19
Nsba(i__main__
Mention
p467
(dp468
g7
S't17'
p469
sg9
S'Coreference-Identity'
p470
sg10
S'i47'
p471
sg12
S'i43'
p472
sg13
Nsg14
(lp473
(i__main__
Token
p474
(dp475
g18
I292
sbasg19
I292
sbasg7
g440
sg29
Nsba(i__main__
Chain
p476
(dp477
g3
(lp478
(i__main__
Mention
p479
(dp480
g7
S't18'
p481
sg9
Nsg10
S'i34'
p482
sg12
Nsg13
Nsg14
(lp483
(i__main__
Token
p484
(dp485
g18
I245
sba(i__main__
Token
p486
(dp487
g18
I246
sbasg19
Nsba(i__main__
Mention
p488
(dp489
g7
S't18'
p490
sg9
S'Coreference-NounComplement'
p491
sg10
S'i38'
p492
sg12
S'i34'
p493
sg13
Nsg14
(lp494
(i__main__
Token
p495
(dp496
g18
I257
sba(i__main__
Token
p497
(dp498
g18
I258
sba(i__main__
Token
p499
(dp500
g18
I259
sbasg19
I259
sba(i__main__
Mention
p501
(dp502
g7
S't18'
p503
sg9
Nsg10
S'i44'
p504
sg12
Nsg13
Nsg14
(lp505
(i__main__
Token
p506
(dp507
g18
I273
sbasg19
Nsba(i__main__
Mention
p508
(dp509
g7
S't18'
p510
sg9
S'Coreference-Identity'
p511
sg10
S'i49'
p512
sg12
S'i44'
p513
sg13
Nsg14
(lp514
(i__main__
Token
p515
(dp516
g18
I302
sbasg19
I302
sbasg7
g481
sg29
Nsba(i__main__
Chain
p517
(dp518
g3
(lp519
(i__main__
Mention
p520
(dp521
g7
S't19'
p522
sg9
Nsg10
S'i39'
p523
sg12
Nsg13
Nsg14
(lp524
(i__main__
Token
p525
(dp526
g18
I261
sba(i__main__
Token
p527
(dp528
g18
I262
sba(i__main__
Token
p529
(dp530
g18
I263
sbasg19
I263
sba(i__main__
Mention
p531
(dp532
g7
S't19'
p533
sg9
S'Coreference-Bracketed/Abbraviation'
p534
sg10
S'i40'
p535
sg12
S'i24'
p536
sg13
Nsg14
(lp537
(i__main__
Token
p538
(dp539
g18
I265
sbasg19
I265
sba(i__main__
Mention
p540
(dp541
g7
S't19'
p542
sg9
S'Coreference-Identity'
p543
sg10
S'i48'
p544
sg12
S'i40'
p545
sg13
Nsg14
(lp546
(i__main__
Token
p547
(dp548
g18
I297
sbasg19
I297
sbasg7
g522
sg29
Nsba.