(lp0
(i__main__
Chain
p1
(dp2
S'mentionList'
p3
(lp4
(i__main__
Mention
p5
(dp6
S'chainId'
p7
S't1'
p8
sS'relType'
p9
NsS'mentionId'
p10
S'i1'
p11
sS'antecedentId'
p12
NsS'crefMod'
p13
NsS'tokenList'
p14
(lp15
(i__main__
Token
p16
(dp17
S'tokenId'
p18
I0
sbasS'mentionHead'
p19
I0
sba(i__main__
Mention
p20
(dp21
g7
S't1'
p22
sg9
S'Coreference-Noun-Noun'
p23
sg10
S'i4'
p24
sg12
S'i1'
p25
sg13
Nsg14
(lp26
(i__main__
Token
p27
(dp28
g18
I33
sbasg19
I33
sbasg7
g8
sS'chainHead'
p29
Nsba(i__main__
Chain
p30
(dp31
g3
(lp32
(i__main__
Mention
p33
(dp34
g7
S't2'
p35
sg9
Nsg10
S'i2'
p36
sg12
Nsg13
Nsg14
(lp37
(i__main__
Token
p38
(dp39
g18
I2
sba(i__main__
Token
p40
(dp41
g18
I3
sba(i__main__
Token
p42
(dp43
g18
I4
sba(i__main__
Token
p44
(dp45
g18
I5
sba(i__main__
Token
p46
(dp47
g18
I6
sbasg19
I6
sba(i__main__
Mention
p48
(dp49
g7
S't2'
p50
sg9
S'Coreference-Abbreviation'
p51
sg10
S'i10'
p52
sg12
S'i2'
p53
sg13
Nsg14
(lp54
(i__main__
Token
p55
(dp56
g18
I56
sbasg19
I56
sba(i__main__
Mention
p57
(dp58
g7
S't2'
p59
sg9
S'Coreference-Noun-Noun'
p60
sg10
S'i18'
p61
sg12
S'i10'
p62
sg13
Nsg14
(lp63
(i__main__
Token
p64
(dp65
g18
I109
sbasg19
I109
sba(i__main__
Mention
p66
(dp67
g7
S't2'
p68
sg9
S'Coreference-Identity'
p69
sg10
S'i19'
p70
sg12
S'i18'
p71
sg13
Nsg14
(lp72
(i__main__
Token
p73
(dp74
g18
I124
sbasg19
I124
sba(i__main__
Mention
p75
(dp76
g7
S't2'
p77
sg9
S'Coreference-Identity'
p78
sg10
S'i34'
p79
sg12
S'i19'
p80
sg13
Nsg14
(lp81
(i__main__
Token
p82
(dp83
g18
I227
sbasg19
I227
sba(i__main__
Mention
p84
(dp85
g7
S't2'
p86
sg9
S'Coreference-Identity'
p87
sg10
S'i39'
p88
sg12
S'i34'
p89
sg13
Nsg14
(lp90
(i__main__
Token
p91
(dp92
g18
I263
sbasg19
I263
sba(i__main__
Mention
p93
(dp94
g7
S't2'
p95
sg9
S'Coreference-Identity'
p96
sg10
S'i56'
p97
sg12
S'i39'
p98
sg13
Nsg14
(lp99
(i__main__
Token
p100
(dp101
g18
I368
sbasg19
I368
sbasg7
g35
sg29
Nsba(i__main__
Chain
p102
(dp103
g3
(lp104
(i__main__
Mention
p105
(dp106
g7
S't3'
p107
sg9
Nsg10
S'i3'
p108
sg12
Nsg13
Nsg14
(lp109
(i__main__
Token
p110
(dp111
g18
I23
sbasg19
I23
sba(i__main__
Mention
p112
(dp113
g7
S't3'
p114
sg9
S'Coreference-Identity'
p115
sg10
S'i7'
p116
sg12
S'i3'
p117
sg13
Nsg14
(lp118
(i__main__
Token
p119
(dp120
g18
I40
sbasg19
I40
sba(i__main__
Mention
p121
(dp122
g7
S't3'
p123
sg9
S'Coreference-Identity'
p124
sg10
S'i11'
p125
sg12
S'i7'
p126
sg13
Nsg14
(lp127
(i__main__
Token
p128
(dp129
g18
I57
sbasg19
I57
sba(i__main__
Mention
p130
(dp131
g7
S't3'
p132
sg9
S'Coreference-Identity'
p133
sg10
S'i22'
p134
sg12
S'i11'
p135
sg13
Nsg14
(lp136
(i__main__
Token
p137
(dp138
g18
I139
sbasg19
I139
sba(i__main__
Mention
p139
(dp140
g7
S't3'
p141
sg9
S'Coreference-Identity'
p142
sg10
S'i55'
p143
sg12
S'i22'
p144
sg13
Nsg14
(lp145
(i__main__
Token
p146
(dp147
g18
I360
sbasg19
I360
sbasg7
g107
sg29
Nsba(i__main__
Chain
p148
(dp149
g3
(lp150
(i__main__
Mention
p151
(dp152
g7
S't4'
p153
sg9
Nsg10
S'i5'
p154
sg12
Nsg13
Nsg14
(lp155
(i__main__
Token
p156
(dp157
g18
I38
sbasg19
I38
sba(i__main__
Mention
p158
(dp159
g7
S't4'
p160
sg9
S'Coreference-Identity'
p161
sg10
S'i54'
p162
sg12
S'i5'
p163
sg13
Nsg14
(lp164
(i__main__
Token
p165
(dp166
g18
I358
sbasg19
I358
sbasg7
g153
sg29
Nsba(i__main__
Chain
p167
(dp168
g3
(lp169
(i__main__
Mention
p170
(dp171
g7
S't5'
p172
sg9
Nsg10
S'i6'
p173
sg12
Nsg13
Nsg14
(lp174
(i__main__
Token
p175
(dp176
g18
I39
sbasg19
I39
sba(i__main__
Mention
p177
(dp178
g7
S't5'
p179
sg9
S'Anaphora-RT'
p180
sg10
S'i8'
p181
sg12
S'i6'
p182
sg13
Nsg14
(lp183
(i__main__
Token
p184
(dp185
g18
I40
sba(i__main__
Token
p186
(dp187
g18
I41
sba(i__main__
Token
p188
(dp189
g18
I42
sba(i__main__
Token
p190
(dp191
g18
I43
sba(i__main__
Token
p192
(dp193
g18
I44
sba(i__main__
Token
p194
(dp195
g18
I45
sba(i__main__
Token
p196
(dp197
g18
I46
sba(i__main__
Token
p198
(dp199
g18
I47
sba(i__main__
Token
p200
(dp201
g18
I48
sba(i__main__
Token
p202
(dp203
g18
I49
sba(i__main__
Token
p204
(dp205
g18
I50
sba(i__main__
Token
p206
(dp207
g18
I51
sba(i__main__
Token
p208
(dp209
g18
I52
sba(i__main__
Token
p210
(dp211
g18
I53
sbasg19
I51
sba(i__main__
Mention
p212
(dp213
g7
S't5'
p214
sg9
S'Anaphora-T'
p215
sg10
S'i9'
p216
sg12
S'i8'
p217
sg13
Nsg14
(lp218
(i__main__
Token
p219
(dp220
g18
I55
sbasg19
I55
sbasg7
g172
sg29
Nsba(i__main__
Chain
p221
(dp222
g3
(lp223
(i__main__
Mention
p224
(dp225
g7
S't6'
p226
sg9
Nsg10
S'i12'
p227
sg12
Nsg13
Nsg14
(lp228
(i__main__
Token
p229
(dp230
g18
I72
sba(i__main__
Token
p231
(dp232
g18
I73
sbasg19
I73
sba(i__main__
Mention
p233
(dp234
g7
S't6'
p235
sg9
S'Coreference-Abbreviation'
p236
sg10
S'i36'
p237
sg12
S'i12'
p238
sg13
Nsg14
(lp239
(i__main__
Token
p240
(dp241
g18
I252
sbasg19
I252
sbasg7
g226
sg29
Nsba(i__main__
Chain
p242
(dp243
g3
(lp244
(i__main__
Mention
p245
(dp246
g7
S't7'
p247
sg9
Nsg10
S'i13'
p248
sg12
Nsg13
Nsg14
(lp249
(i__main__
Token
p250
(dp251
g18
I76
sbasg19
I76
sba(i__main__
Mention
p252
(dp253
g7
S't7'
p254
sg9
S'Coreference-Identity'
p255
sg10
S'i40'
p256
sg12
S'i23'
p257
sg13
Nsg14
(lp258
(i__main__
Token
p259
(dp260
g18
I263
sba(i__main__
Token
p261
(dp262
g18
I264
sba(i__main__
Token
p263
(dp264
g18
I265
sba(i__main__
Token
p265
(dp266
g18
I266
sba(i__main__
Token
p267
(dp268
g18
I267
sbasg19
I267
sba(i__main__
Mention
p269
(dp270
g7
S't7'
p271
sg9
S'Coreference-Identity'
p272
sg10
S'i51'
p273
sg12
S'i40'
p274
sg13
Nsg14
(lp275
(i__main__
Token
p276
(dp277
g18
I344
sbasg19
I344
sba(i__main__
Mention
p278
(dp279
g7
S't7'
p280
sg9
S'Anaphora-C'
p281
sg10
S'i53'
p282
sg12
S'i51'
p283
sg13
Nsg14
(lp284
(i__main__
Token
p285
(dp286
g18
I351
sbasg19
I351
sba(i__main__
Mention
p287
(dp288
g7
S't7'
p289
sg9
S'Coreference-Identity'
p290
sg10
S'i57'
p291
sg12
S'i67'
p292
sg13
Nsg14
(lp293
(i__main__
Token
p294
(dp295
g18
I368
sba(i__main__
Token
p296
(dp297
g18
I369
sba(i__main__
Token
p298
(dp299
g18
I370
sbasg19
I370
sba(i__main__
Mention
p300
(dp301
g7
S't7'
p302
sg9
S'Coreference-Identity'
p303
sg10
S'i64'
p304
sg12
S'i57'
p305
sg13
Nsg14
(lp306
(i__main__
Token
p307
(dp308
g18
I413
sbasg19
I413
sba(i__main__
Mention
p309
(dp310
g7
S't7'
p311
sg9
S'Coreference-Identity'
p312
sg10
S'i65'
p313
sg12
S'i64'
p314
sg13
Nsg14
(lp315
(i__main__
Token
p316
(dp317
g18
I423
sbasg19
I423
sbasg7
g247
sg29
Nsba(i__main__
Chain
p318
(dp319
g3
(lp320
(i__main__
Mention
p321
(dp322
g7
S't8'
p323
sg9
Nsg10
S'i14'
p324
sg12
Nsg13
Nsg14
(lp325
(i__main__
Token
p326
(dp327
g18
I78
sbasg19
I78
sba(i__main__
Mention
p328
(dp329
g7
S't8'
p330
sg9
S'Anaphora-C'
p331
sg10
S'i15'
p332
sg12
S'i14'
p333
sg13
Nsg14
(lp334
(i__main__
Token
p335
(dp336
g18
I85
sbasg19
I85
sba(i__main__
Mention
p337
(dp338
g7
S't8'
p339
sg9
S'Coreference-Identity'
p340
sg10
S'i43'
p341
sg12
S'i15'
p342
sg13
Nsg14
(lp343
(i__main__
Token
p344
(dp345
g18
I279
sbasg19
I279
sbasg7
g323
sg29
Nsba(i__main__
Chain
p346
(dp347
g3
(lp348
(i__main__
Mention
p349
(dp350
g7
S't9'
p351
sg9
Nsg10
S'i16'
p352
sg12
Nsg13
Nsg14
(lp353
(i__main__
Token
p354
(dp355
g18
I92
sbasg19
I92
sbasg7
g351
sg29
Nsba(i__main__
Chain
p356
(dp357
g3
(lp358
(i__main__
Mention
p359
(dp360
g7
S't10'
p361
sg9
Nsg10
S'i17'
p362
sg12
Nsg13
Nsg14
(lp363
(i__main__
Token
p364
(dp365
g18
I105
sbasg19
I105
sba(i__main__
Mention
p366
(dp367
g7
S't10'
p368
sg9
S'Anaphora-C'
p369
sg10
S'i23'
p370
sg12
S'i17'
p371
sg13
Nsg14
(lp372
(i__main__
Token
p373
(dp374
g18
I155
sbasg19
I155
sba(i__main__
Mention
p375
(dp376
g7
S't10'
p377
sg9
S'Coreference-Identity'
p378
sg10
S'i28'
p379
sg12
S'i55'
p380
sg13
Nsg14
(lp381
(i__main__
Token
p382
(dp383
g18
I192
sba(i__main__
Token
p384
(dp385
g18
I193
sba(i__main__
Token
p386
(dp387
g18
I194
sba(i__main__
Token
p388
(dp389
g18
I195
sba(i__main__
Token
p390
(dp391
g18
I196
sbasg19
I196
sba(i__main__
Mention
p392
(dp393
g7
S't10'
p394
sg9
S'Anaphora-C'
p395
sg10
S'i32'
p396
sg12
S'i28'
p397
sg13
Nsg14
(lp398
(i__main__
Token
p399
(dp400
g18
I217
sbasg19
I217
sbasg7
g361
sg29
Nsba(i__main__
Chain
p401
(dp402
g3
(lp403
(i__main__
Mention
p404
(dp405
g7
S't11'
p406
sg9
Nsg10
S'i20'
p407
sg12
Nsg13
Nsg14
(lp408
(i__main__
Token
p409
(dp410
g18
I126
sbasg19
I126
sba(i__main__
Mention
p411
(dp412
g7
S't11'
p413
sg9
S'Coreference-Identity'
p414
sg10
S'i30'
p415
sg12
S'i20'
p416
sg13
Nsg14
(lp417
(i__main__
Token
p418
(dp419
g18
I198
sbasg19
I198
sba(i__main__
Mention
p420
(dp421
g7
S't11'
p422
sg9
S'Anaphora-C'
p423
sg10
S'i31'
p424
sg12
S'i30'
p425
sg13
Nsg14
(lp426
(i__main__
Token
p427
(dp428
g18
I208
sbasg19
I208
sba(i__main__
Mention
p429
(dp430
g7
S't11'
p431
sg9
S'Coreference-Identity'
p432
sg10
S'i33'
p433
sg12
S'i31'
p434
sg13
Nsg14
(lp435
(i__main__
Token
p436
(dp437
g18
I220
sbasg19
I220
sbasg7
g406
sg29
Nsba(i__main__
Chain
p438
(dp439
g3
(lp440
(i__main__
Mention
p441
(dp442
g7
S't12'
p443
sg9
Nsg10
S'i21'
p444
sg12
Nsg13
Nsg14
(lp445
(i__main__
Token
p446
(dp447
g18
I139
sba(i__main__
Token
p448
(dp449
g18
I140
sbasg19
I140
sba(i__main__
Mention
p450
(dp451
g7
S't12'
p452
sg9
S'Coreference-Identity'
p453
sg10
S'i24'
p454
sg12
S'i21'
p455
sg13
Nsg14
(lp456
(i__main__
Token
p457
(dp458
g18
I158
sba(i__main__
Token
p459
(dp460
g18
I159
sbasg19
I159
sbasg7
g443
sg29
Nsba(i__main__
Chain
p461
(dp462
g3
(lp463
(i__main__
Mention
p464
(dp465
g7
S't13'
p466
sg9
Nsg10
S'i25'
p467
sg12
Nsg13
Nsg14
(lp468
(i__main__
Token
p469
(dp470
g18
I174
sbasg19
I174
sba(i__main__
Mention
p471
(dp472
g7
S't13'
p473
sg9
S'Anaphora-C'
p474
sg10
S'i27'
p475
sg12
S'i25'
p476
sg13
Nsg14
(lp477
(i__main__
Token
p478
(dp479
g18
I176
sbasg19
I176
sba(i__main__
Mention
p480
(dp481
g7
S't13'
p482
sg9
S'Coreference-Identity'
p483
sg10
S'i45'
p484
sg12
S'i27'
p485
sg13
Nsg14
(lp486
(i__main__
Token
p487
(dp488
g18
I290
sbasg19
I290
sba(i__main__
Mention
p489
(dp490
g7
S't13'
p491
sg9
S'Anaphora-C'
p492
sg10
S'i46'
p493
sg12
S'i45'
p494
sg13
Nsg14
(lp495
(i__main__
Token
p496
(dp497
g18
I296
sbasg19
I296
sbasg7
g466
sg29
Nsba(i__main__
Chain
p498
(dp499
g3
(lp500
(i__main__
Mention
p501
(dp502
g7
S't14'
p503
sg9
Nsg10
S'i26'
p504
sg12
Nsg13
Nsg14
(lp505
(i__main__
Token
p506
(dp507
g18
I175
sbasg19
I175
sbasg7
g503
sg29
Nsba(i__main__
Chain
p508
(dp509
g3
(lp510
(i__main__
Mention
p511
(dp512
g7
S't15'
p513
sg9
Nsg10
S'i35'
p514
sg12
Nsg13
Nsg14
(lp515
(i__main__
Token
p516
(dp517
g18
I252
sba(i__main__
Token
p518
(dp519
g18
I253
sbasg19
I253
sba(i__main__
Mention
p520
(dp521
g7
S't15'
p522
sg9
S'Coreference-Noun-Noun'
p523
sg10
S'i37'
p524
sg12
S'i35'
p525
sg13
Nsg14
(lp526
(i__main__
Token
p527
(dp528
g18
I258
sbasg19
I258
sba(i__main__
Mention
p529
(dp530
g7
S't15'
p531
sg9
S'Coreference-NounComplement'
p532
sg10
S'i38'
p533
sg12
S'i37'
p534
sg13
Nsg14
(lp535
(i__main__
Token
p536
(dp537
g18
I259
sba(i__main__
Token
p538
(dp539
g18
I260
sba(i__main__
Token
p540
(dp541
g18
I261
sbasg19
I261
sba(i__main__
Mention
p542
(dp543
g7
S't15'
p544
sg9
S'Anaphora-C'
p545
sg10
S'i44'
p546
sg12
S'i38'
p547
sg13
Nsg14
(lp548
(i__main__
Token
p549
(dp550
g18
I285
sbasg19
I285
sba(i__main__
Mention
p551
(dp552
g7
S't15'
p553
sg9
S'Anaphora-C'
p554
sg10
S'i49'
p555
sg12
S'i44'
p556
sg13
Nsg14
(lp557
(i__main__
Token
p558
(dp559
g18
I335
sbasg19
I335
sbasg7
g513
sg29
Nsba(i__main__
Chain
p560
(dp561
g3
(lp562
(i__main__
Mention
p563
(dp564
g7
S't16'
p565
sg9
Nsg10
S'i42'
p566
sg12
Nsg13
Nsg14
(lp567
(i__main__
Token
p568
(dp569
g18
I269
sbasg19
I269
sba(i__main__
Mention
p570
(dp571
g7
S't16'
p572
sg9
S'Coreference-Identity'
p573
sg10
S'i50'
p574
sg12
S'i42'
p575
sg13
Nsg14
(lp576
(i__main__
Token
p577
(dp578
g18
I338
sbasg19
I338
sba(i__main__
Mention
p579
(dp580
g7
S't16'
p581
sg9
S'Coreference-Identity'
p582
sg10
S'i59'
p583
sg12
S'i50'
p584
sg13
Nsg14
(lp585
(i__main__
Token
p586
(dp587
g18
I374
sbasg19
I374
sba(i__main__
Mention
p588
(dp589
g7
S't16'
p590
sg9
S'Anaphora-C'
p591
sg10
S'i60'
p592
sg12
S'i59'
p593
sg13
Nsg14
(lp594
(i__main__
Token
p595
(dp596
g18
I389
sbasg19
I389
sba(i__main__
Mention
p597
(dp598
g7
S't16'
p599
sg9
S'Coreference-Identity'
p600
sg10
S'i66'
p601
sg12
S'i60'
p602
sg13
Nsg14
(lp603
(i__main__
Token
p604
(dp605
g18
I425
sbasg19
I425
sbasg7
g565
sg29
Nsba(i__main__
Chain
p606
(dp607
g3
(lp608
(i__main__
Mention
p609
(dp610
g7
S't17'
p611
sg9
Nsg10
S'i47'
p612
sg12
Nsg13
Nsg14
(lp613
(i__main__
Token
p614
(dp615
g18
I307
sbasg19
I307
sbasg7
g611
sg29
Nsba(i__main__
Chain
p616
(dp617
g3
(lp618
(i__main__
Mention
p619
(dp620
g7
S't18'
p621
sg9
Nsg10
S'i48'
p622
sg12
Nsg13
Nsg14
(lp623
(i__main__
Token
p624
(dp625
g18
I312
sbasg19
I312
sbasg7
g621
sg29
Nsba(i__main__
Chain
p626
(dp627
g3
(lp628
(i__main__
Mention
p629
(dp630
g7
S't19'
p631
sg9
Nsg10
S'i52'
p632
sg12
Nsg13
Nsg14
(lp633
(i__main__
Token
p634
(dp635
g18
I345
sbasg19
I345
sbasg7
g631
sg29
Nsba(i__main__
Chain
p636
(dp637
g3
(lp638
(i__main__
Mention
p639
(dp640
g7
S't20'
p641
sg9
Nsg10
S'i61'
p642
sg12
Nsg13
Nsg14
(lp643
(i__main__
Token
p644
(dp645
g18
I407
sbasg19
I407
sba(i__main__
Mention
p646
(dp647
g7
S't20'
p648
sg9
S'Coreference-Identity'
p649
sg10
S'i67'
p650
sg12
S'i61'
p651
sg13
Nsg14
(lp652
(i__main__
Token
p653
(dp654
g18
I435
sbasg19
I435
sbasg7
g641
sg29
Nsba(i__main__
Chain
p655
(dp656
g3
(lp657
(i__main__
Mention
p658
(dp659
g7
S't21'
p660
sg9
Nsg10
S'i62'
p661
sg12
Nsg13
Nsg14
(lp662
(i__main__
Token
p663
(dp664
g18
I409
sbasg19
I409
sba(i__main__
Mention
p665
(dp666
g7
S't21'
p667
sg9
S'Coreference-NounComplement'
p668
sg10
S'i63'
p669
sg12
S'i62'
p670
sg13
Nsg14
(lp671
(i__main__
Token
p672
(dp673
g18
I410
sba(i__main__
Token
p674
(dp675
g18
I411
sbasg19
I411
sba(i__main__
Mention
p676
(dp677
g7
S't21'
p678
sg9
S'Anaphora-C'
p679
sg10
S'i68'
p680
sg12
S'i63'
p681
sg13
Nsg14
(lp682
(i__main__
Token
p683
(dp684
g18
I444
sbasg19
I444
sba(i__main__
Mention
p685
(dp686
g7
S't21'
p687
sg9
S'Coreference-Identity'
p688
sg10
S'i69'
p689
sg12
S'i69'
p690
sg13
Nsg14
(lp691
(i__main__
Token
p692
(dp693
g18
I451
sba(i__main__
Token
p694
(dp695
g18
I452
sbasg19
I452
sba(i__main__
Mention
p696
(dp697
g7
S't21'
p698
sg9
S'Anaphora-C'
p699
sg10
S'i71'
p700
sg12
S'i69'
p701
sg13
Nsg14
(lp702
(i__main__
Token
p703
(dp704
g18
I466
sbasg19
I466
sbasg7
g660
sg29
Nsba(i__main__
Chain
p705
(dp706
g3
(lp707
(i__main__
Mention
p708
(dp709
g7
S't22'
p710
sg9
Nsg10
S'i72'
p711
sg12
Nsg13
Nsg14
(lp712
(i__main__
Token
p713
(dp714
g18
I467
sbasg19
I467
sbasg7
g710
sg29
Nsba(i__main__
Chain
p715
(dp716
g3
(lp717
(i__main__
Mention
p718
(dp719
g7
S't23'
p720
sg9
Nsg10
S'i73'
p721
sg12
Nsg13
Nsg14
(lp722
(i__main__
Token
p723
(dp724
g18
I468
sbasg19
I468
sbasg7
g720
sg29
Nsba.