(lp0
(i__main__
Chain
p1
(dp2
S'mentionList'
p3
(lp4
(i__main__
Mention
p5
(dp6
S'chainId'
p7
S't1'
p8
sS'relType'
p9
NsS'mentionId'
p10
S'i1'
p11
sS'antecedentId'
p12
NsS'crefMod'
p13
NsS'tokenList'
p14
(lp15
(i__main__
Token
p16
(dp17
S'tokenId'
p18
I4
sba(i__main__
Token
p19
(dp20
g18
I5
sbasS'mentionHead'
p21
I5
sba(i__main__
Mention
p22
(dp23
g7
S't1'
p24
sg9
S'Coreference-Identity'
p25
sg10
S'i25'
p26
sg12
S'i1'
p27
sg13
Nsg14
(lp28
(i__main__
Token
p29
(dp30
g18
I105
sbasg21
I105
sbasg7
g8
sS'chainHead'
p31
Nsba(i__main__
Chain
p32
(dp33
g3
(lp34
(i__main__
Mention
p35
(dp36
g7
S't2'
p37
sg9
Nsg10
S'i2'
p38
sg12
Nsg13
Nsg14
(lp39
(i__main__
Token
p40
(dp41
g18
I9
sba(i__main__
Token
p42
(dp43
g18
I10
sba(i__main__
Token
p44
(dp45
g18
I11
sba(i__main__
Token
p46
(dp47
g18
I12
sba(i__main__
Token
p48
(dp49
g18
I13
sba(i__main__
Token
p50
(dp51
g18
I14
sba(i__main__
Token
p52
(dp53
g18
I15
sbasg21
I15
sba(i__main__
Mention
p54
(dp55
g7
S't2'
p56
sg9
S'Coreference-Identity'
p57
sg10
S'i10'
p58
sg12
S'i2'
p59
sg13
Nsg14
(lp60
(i__main__
Token
p61
(dp62
g18
I35
sba(i__main__
Token
p63
(dp64
g18
I36
sbasg21
I36
sba(i__main__
Mention
p65
(dp66
g7
S't2'
p67
sg9
S'Coreference-Identity'
p68
sg10
S'i26'
p69
sg12
S'i10'
p70
sg13
Nsg14
(lp71
(i__main__
Token
p72
(dp73
g18
I105
sba(i__main__
Token
p74
(dp75
g18
I106
sba(i__main__
Token
p76
(dp77
g18
I107
sba(i__main__
Token
p78
(dp79
g18
I108
sbasg21
I108
sba(i__main__
Mention
p80
(dp81
g7
S't2'
p82
sg9
S'Coreference-Identity'
p83
sg10
S'i29'
p84
sg12
S'i26'
p85
sg13
Nsg14
(lp86
(i__main__
Token
p87
(dp88
g18
I139
sbasg21
I139
sba(i__main__
Mention
p89
(dp90
g7
S't2'
p91
sg9
S'Coreference-Identity'
p92
sg10
S'i37'
p93
sg12
S'i29'
p94
sg13
Nsg14
(lp95
(i__main__
Token
p96
(dp97
g18
I186
sbasg21
I186
sba(i__main__
Mention
p98
(dp99
g7
S't2'
p100
sg9
S'Coreference-Identity'
p101
sg10
S'i41'
p102
sg12
S'i37'
p103
sg13
Nsg14
(lp104
(i__main__
Token
p105
(dp106
g18
I200
sbasg21
I200
sbasg7
g37
sg31
Nsba(i__main__
Chain
p107
(dp108
g3
(lp109
(i__main__
Mention
p110
(dp111
g7
S't3'
p112
sg9
Nsg10
S'i3'
p113
sg12
Nsg13
Nsg14
(lp114
(i__main__
Token
p115
(dp116
g18
I9
sbasg21
I9
sba(i__main__
Mention
p117
(dp118
g7
S't3'
p119
sg9
S'Coreference-Identity'
p120
sg10
S'i12'
p121
sg12
S'i3'
p122
sg13
Nsg14
(lp123
(i__main__
Token
p124
(dp125
g18
I41
sbasg21
I41
sba(i__main__
Mention
p126
(dp127
g7
S't3'
p128
sg9
S'Coreference-Identity'
p129
sg10
S'i14'
p130
sg12
S'i12'
p131
sg13
Nsg14
(lp132
(i__main__
Token
p133
(dp134
g18
I52
sbasg21
I52
sba(i__main__
Mention
p135
(dp136
g7
S't3'
p137
sg9
S'Coreference-Identity'
p138
sg10
S'i18'
p139
sg12
S'i14'
p140
sg13
Nsg14
(lp141
(i__main__
Token
p142
(dp143
g18
I80
sbasg21
I80
sba(i__main__
Mention
p144
(dp145
g7
S't3'
p146
sg9
S'Coreference-Identity'
p147
sg10
S'i32'
p148
sg12
S'i18'
p149
sg13
Nsg14
(lp150
(i__main__
Token
p151
(dp152
g18
I163
sbasg21
I163
sba(i__main__
Mention
p153
(dp154
g7
S't3'
p155
sg9
S'Coreference-Identity'
p156
sg10
S'i34'
p157
sg12
S'i32'
p158
sg13
Nsg14
(lp159
(i__main__
Token
p160
(dp161
g18
I176
sbasg21
I176
sbasg7
g112
sg31
Nsba(i__main__
Chain
p162
(dp163
g3
(lp164
(i__main__
Mention
p165
(dp166
g7
S't4'
p167
sg9
Nsg10
S'i4'
p168
sg12
Nsg13
Nsg14
(lp169
(i__main__
Token
p170
(dp171
g18
I11
sbasg21
I11
sba(i__main__
Mention
p172
(dp173
g7
S't4'
p174
sg9
Nsg10
S'i7'
p175
sg12
Nsg13
Nsg14
(lp176
(i__main__
Token
p177
(dp178
g18
I23
sba(i__main__
Token
p179
(dp180
g18
I24
sbasg21
Nsba(i__main__
Mention
p181
(dp182
g7
S't4'
p183
sg9
S'Coreference-RPartOf'
p184
sg10
S'i8'
p185
sg12
S'i7'
p186
sg13
Nsg14
(lp187
(i__main__
Token
p188
(dp189
g18
I28
sbasg21
I28
sba(i__main__
Mention
p190
(dp191
g7
S't4'
p192
sg9
S'Coreference-Identity'
p193
sg10
S'i28'
p194
sg12
S'i8'
p195
sg13
Nsg14
(lp196
(i__main__
Token
p197
(dp198
g18
I130
sbasg21
I130
sba(i__main__
Mention
p199
(dp200
g7
S't4'
p201
sg9
S'Coreference-Identity'
p202
sg10
S'i30'
p203
sg12
S'i28'
p204
sg13
Nsg14
(lp205
(i__main__
Token
p206
(dp207
g18
I146
sbasg21
I146
sba(i__main__
Mention
p208
(dp209
g7
S't4'
p210
sg9
S'Coreference-Identity'
p211
sg10
S'i33'
p212
sg12
S'i30'
p213
sg13
Nsg14
(lp214
(i__main__
Token
p215
(dp216
g18
I168
sbasg21
I168
sba(i__main__
Mention
p217
(dp218
g7
S't4'
p219
sg9
Nsg10
S'i36'
p220
sg12
Nsg13
Nsg14
(lp221
(i__main__
Token
p222
(dp223
g18
I181
sba(i__main__
Token
p224
(dp225
g18
I182
sbasg21
Nsbasg7
g167
sg31
Nsba(i__main__
Chain
p226
(dp227
g3
(lp228
(i__main__
Mention
p229
(dp230
g7
S't5'
p231
sg9
Nsg10
S'i5'
p232
sg12
Nsg13
Nsg14
(lp233
(i__main__
Token
p234
(dp235
g18
I17
sba(i__main__
Token
p236
(dp237
g18
I18
sba(i__main__
Token
p238
(dp239
g18
I19
sba(i__main__
Token
p240
(dp241
g18
I20
sba(i__main__
Token
p242
(dp243
g18
I21
sbasg21
I21
sba(i__main__
Mention
p244
(dp245
g7
S't5'
p246
sg9
S'Coreference-Identity'
p247
sg10
S'i27'
p248
sg12
S'i5'
p249
sg13
Nsg14
(lp250
(i__main__
Token
p251
(dp252
g18
I123
sba(i__main__
Token
p253
(dp254
g18
I124
sba(i__main__
Token
p255
(dp256
g18
I125
sba(i__main__
Token
p257
(dp258
g18
I126
sba(i__main__
Token
p259
(dp260
g18
I127
sbasg21
I127
sbasg7
g231
sg31
Nsba(i__main__
Chain
p261
(dp262
g3
(lp263
(i__main__
Mention
p264
(dp265
g7
S't6'
p266
sg9
Nsg10
S'i6'
p267
sg12
Nsg13
Nsg14
(lp268
(i__main__
Token
p269
(dp270
g18
I23
sba(i__main__
Token
p271
(dp272
g18
I24
sbasg21
Nsba(i__main__
Mention
p273
(dp274
g7
S't6'
p275
sg9
Nsg10
S'i35'
p276
sg12
Nsg13
Nsg14
(lp277
(i__main__
Token
p278
(dp279
g18
I181
sba(i__main__
Token
p280
(dp281
g18
I182
sbasg21
Nsbasg7
g266
sg31
Nsba(i__main__
Chain
p282
(dp283
g3
(lp284
(i__main__
Mention
p285
(dp286
g7
S't7'
p287
sg9
Nsg10
S'i9'
p288
sg12
Nsg13
Nsg14
(lp289
(i__main__
Token
p290
(dp291
g18
I29
sbasg21
I29
sba(i__main__
Mention
p292
(dp293
g7
S't7'
p294
sg9
S'Coreference-Identity'
p295
sg10
S'i31'
p296
sg12
S'i9'
p297
sg13
Nsg14
(lp298
(i__main__
Token
p299
(dp300
g18
I155
sbasg21
I155
sbasg7
g287
sg31
Nsba(i__main__
Chain
p301
(dp302
g3
(lp303
(i__main__
Mention
p304
(dp305
g7
S't8'
p306
sg9
Nsg10
S'i11'
p307
sg12
Nsg13
Nsg14
(lp308
(i__main__
Token
p309
(dp310
g18
I38
sba(i__main__
Token
p311
(dp312
g18
I39
sbasg21
I39
sba(i__main__
Mention
p313
(dp314
g7
S't8'
p315
sg9
S'Coreference-Noun-Noun'
p316
sg10
S'i38'
p317
sg12
S'i11'
p318
sg13
Nsg14
(lp319
(i__main__
Token
p320
(dp321
g18
I188
sba(i__main__
Token
p322
(dp323
g18
I189
sbasg21
I189
sba(i__main__
Mention
p324
(dp325
g7
S't8'
p326
sg9
S'Coreference-NounComplement'
p327
sg10
S'i39'
p328
sg12
S'i38'
p329
sg13
Nsg14
(lp330
(i__main__
Token
p331
(dp332
g18
I190
sba(i__main__
Token
p333
(dp334
g18
I191
sbasg21
I191
sbasg7
g306
sg31
Nsba(i__main__
Chain
p335
(dp336
g3
(lp337
(i__main__
Mention
p338
(dp339
g7
S't9'
p340
sg9
Nsg10
S'i13'
p341
sg12
Nsg13
Nsg14
(lp342
(i__main__
Token
p343
(dp344
g18
I43
sba(i__main__
Token
p345
(dp346
g18
I44
sbasg21
I44
sba(i__main__
Mention
p347
(dp348
g7
S't9'
p349
sg9
S'Coreference-Identity'
p350
sg10
S'i40'
p351
sg12
S'i13'
p352
sg13
Nsg14
(lp353
(i__main__
Token
p354
(dp355
g18
I193
sba(i__main__
Token
p356
(dp357
g18
I194
sbasg21
I194
sbasg7
g340
sg31
Nsba(i__main__
Chain
p358
(dp359
g3
(lp360
(i__main__
Mention
p361
(dp362
g7
S't10'
p363
sg9
Nsg10
S'i15'
p364
sg12
Nsg13
Nsg14
(lp365
(i__main__
Token
p366
(dp367
g18
I54
sba(i__main__
Token
p368
(dp369
g18
I55
sba(i__main__
Token
p370
(dp371
g18
I56
sbasg21
I56
sba(i__main__
Mention
p372
(dp373
g7
S't10'
p374
sg9
S'Anaphora-C'
p375
sg10
S'i16'
p376
sg12
S'i15'
p377
sg13
Nsg14
(lp378
(i__main__
Token
p379
(dp380
g18
I63
sbasg21
I63
sba(i__main__
Mention
p381
(dp382
g7
S't10'
p383
sg9
S'Coreference-Noun-Noun'
p384
sg10
S'i22'
p385
sg12
S'i16'
p386
sg13
Nsg14
(lp387
(i__main__
Token
p388
(dp389
g18
I91
sba(i__main__
Token
p390
(dp391
g18
I92
sbasg21
I92
sba(i__main__
Mention
p392
(dp393
g7
S't10'
p394
sg9
S'Coreference-Identity'
p395
sg10
S'i42'
p396
sg12
S'i22'
p397
sg13
Nsg14
(lp398
(i__main__
Token
p399
(dp400
g18
I235
sba(i__main__
Token
p401
(dp402
g18
I236
sba(i__main__
Token
p403
(dp404
g18
I237
sba(i__main__
Token
p405
(dp406
g18
I238
sba(i__main__
Token
p407
(dp408
g18
I239
sba(i__main__
Token
p409
(dp410
g18
I240
sba(i__main__
Token
p411
(dp412
g18
I241
sba(i__main__
Token
p413
(dp414
g18
I242
sba(i__main__
Token
p415
(dp416
g18
I243
sba(i__main__
Token
p417
(dp418
g18
I244
sba(i__main__
Token
p419
(dp420
g18
I245
sbasg21
I245
sba(i__main__
Mention
p421
(dp422
g7
S't10'
p423
sg9
S'Coreference-Identity'
p424
sg10
S'i46'
p425
sg12
S'i42'
p426
sg13
Nsg14
(lp427
(i__main__
Token
p428
(dp429
g18
I255
sba(i__main__
Token
p430
(dp431
g18
I256
sbasg21
I256
sbasg7
g363
sg31
Nsba(i__main__
Chain
p432
(dp433
g3
(lp434
(i__main__
Mention
p435
(dp436
g7
S't11'
p437
sg9
Nsg10
S'i17'
p438
sg12
Nsg13
Nsg14
(lp439
(i__main__
Token
p440
(dp441
g18
I73
sba(i__main__
Token
p442
(dp443
g18
I74
sbasg21
I74
sba(i__main__
Mention
p444
(dp445
g7
S't11'
p446
sg9
S'Coreference-Identity'
p447
sg10
S'i43'
p448
sg12
S'i17'
p449
sg13
Nsg14
(lp450
(i__main__
Token
p451
(dp452
g18
I239
sba(i__main__
Token
p453
(dp454
g18
I240
sbasg21
I240
sba(i__main__
Mention
p455
(dp456
g7
S't11'
p457
sg9
S'Coreference-Identity'
p458
sg10
S'i47'
p459
sg12
S'i43'
p460
sg13
Nsg14
(lp461
(i__main__
Token
p462
(dp463
g18
I267
sba(i__main__
Token
p464
(dp465
g18
I268
sbasg21
I268
sbasg7
g437
sg31
Nsba(i__main__
Chain
p466
(dp467
g3
(lp468
(i__main__
Mention
p469
(dp470
g7
S't12'
p471
sg9
Nsg10
S'i19'
p472
sg12
Nsg13
Nsg14
(lp473
(i__main__
Token
p474
(dp475
g18
I82
sbasg21
I82
sba(i__main__
Mention
p476
(dp477
g7
S't12'
p478
sg9
S'Coreference-Noun-Noun'
p479
sg10
S'i20'
p480
sg12
S'i19'
p481
sg13
Nsg14
(lp482
(i__main__
Token
p483
(dp484
g18
I83
sba(i__main__
Token
p485
(dp486
g18
I84
sbasg21
I84
sba(i__main__
Mention
p487
(dp488
g7
S't12'
p489
sg9
S'Coreference-NounComplement'
p490
sg10
S'i21'
p491
sg12
S'i20'
p492
sg13
Nsg14
(lp493
(i__main__
Token
p494
(dp495
g18
I85
sba(i__main__
Token
p496
(dp497
g18
I86
sba(i__main__
Token
p498
(dp499
g18
I87
sbasg21
I87
sba(i__main__
Mention
p500
(dp501
g7
S't12'
p502
sg9
S'Coreference-Noun-Noun'
p503
sg10
S'i44'
p504
sg12
S'i21'
p505
sg13
Nsg14
(lp506
(i__main__
Token
p507
(dp508
g18
I249
sba(i__main__
Token
p509
(dp510
g18
I250
sbasg21
I250
sba(i__main__
Mention
p511
(dp512
g7
S't12'
p513
sg9
S'Coreference-NounComplement'
p514
sg10
S'i45'
p515
sg12
S'i44'
p516
sg13
Nsg14
(lp517
(i__main__
Token
p518
(dp519
g18
I251
sbasg21
I251
sbasg7
g471
sg31
Nsba(i__main__
Chain
p520
(dp521
g3
(lp522
(i__main__
Mention
p523
(dp524
g7
S't13'
p525
sg9
Nsg10
S'i23'
p526
sg12
Nsg13
Nsg14
(lp527
(i__main__
Token
p528
(dp529
g18
I94
sbasg21
I94
sba(i__main__
Mention
p530
(dp531
g7
S't13'
p532
sg9
S'Coreference-Apposition'
p533
sg10
S'i24'
p534
sg12
S'i23'
p535
sg13
Nsg14
(lp536
(i__main__
Token
p537
(dp538
g18
I100
sba(i__main__
Token
p539
(dp540
g18
I101
sba(i__main__
Token
p541
(dp542
g18
I102
sbasg21
I102
sbasg7
g525
sg31
Nsba.