(lp0
(i__main__
Chain
p1
(dp2
S'mentionList'
p3
(lp4
(i__main__
Mention
p5
(dp6
S'chainId'
p7
S't1'
p8
sS'relType'
p9
NsS'mentionId'
p10
S'i1'
p11
sS'antecedentId'
p12
NsS'crefMod'
p13
NsS'tokenList'
p14
(lp15
(i__main__
Token
p16
(dp17
S'tokenId'
p18
I0
sba(i__main__
Token
p19
(dp20
g18
I1
sba(i__main__
Token
p21
(dp22
g18
I2
sba(i__main__
Token
p23
(dp24
g18
I3
sbasS'mentionHead'
p25
I3
sba(i__main__
Mention
p26
(dp27
g7
S't1'
p28
sg9
Nsg10
S'i6'
p29
sg12
Nsg13
Nsg14
(lp30
(i__main__
Token
p31
(dp32
g18
I21
sba(i__main__
Token
p33
(dp34
g18
I22
sbasg25
Nsba(i__main__
Mention
p35
(dp36
g7
S't1'
p37
sg9
S'Coreference-Identity'
p38
sg10
S'i10'
p39
sg12
S'i6'
p40
sg13
Nsg14
(lp41
(i__main__
Token
p42
(dp43
g18
I42
sba(i__main__
Token
p44
(dp45
g18
I43
sbasg25
I43
sba(i__main__
Mention
p46
(dp47
g7
S't1'
p48
sg9
Nsg10
S'i13'
p49
sg12
Nsg13
Nsg14
(lp50
(i__main__
Token
p51
(dp52
g18
I59
sba(i__main__
Token
p53
(dp54
g18
I60
sbasg25
Nsbasg7
g8
sS'chainHead'
p55
Nsba(i__main__
Chain
p56
(dp57
g3
(lp58
(i__main__
Mention
p59
(dp60
g7
S't2'
p61
sg9
Nsg10
S'i2'
p62
sg12
Nsg13
Nsg14
(lp63
(i__main__
Token
p64
(dp65
g18
I5
sba(i__main__
Token
p66
(dp67
g18
I6
sba(i__main__
Token
p68
(dp69
g18
I7
sba(i__main__
Token
p70
(dp71
g18
I8
sbasg25
I8
sba(i__main__
Mention
p72
(dp73
g7
S't2'
p74
sg9
Nsg10
S'i7'
p75
sg12
Nsg13
Nsg14
(lp76
(i__main__
Token
p77
(dp78
g18
I21
sba(i__main__
Token
p79
(dp80
g18
I22
sbasg25
Nsbasg7
g61
sg55
Nsba(i__main__
Chain
p81
(dp82
g3
(lp83
(i__main__
Mention
p84
(dp85
g7
S't3'
p86
sg9
Nsg10
S'i3'
p87
sg12
Nsg13
Nsg14
(lp88
(i__main__
Token
p89
(dp90
g18
I12
sbasg25
I12
sba(i__main__
Mention
p91
(dp92
g7
S't3'
p93
sg9
S'Coreference-Identity'
p94
sg10
S'i8'
p95
sg12
S'i3'
p96
sg13
Nsg14
(lp97
(i__main__
Token
p98
(dp99
g18
I24
sbasg25
I24
sbasg7
g86
sg55
Nsba(i__main__
Chain
p100
(dp101
g3
(lp102
(i__main__
Mention
p103
(dp104
g7
S't4'
p105
sg9
Nsg10
S'i4'
p106
sg12
Nsg13
Nsg14
(lp107
(i__main__
Token
p108
(dp109
g18
I14
sbasg25
I14
sba(i__main__
Mention
p110
(dp111
g7
S't4'
p112
sg9
S'Coreference-NounComplement'
p113
sg10
S'i5'
p114
sg12
S'i4'
p115
sg13
Nsg14
(lp116
(i__main__
Token
p117
(dp118
g18
I15
sba(i__main__
Token
p119
(dp120
g18
I16
sbasg25
I16
sba(i__main__
Mention
p121
(dp122
g7
S't4'
p123
sg9
S'Coreference-Identity'
p124
sg10
S'i11'
p125
sg12
S'i7'
p126
sg13
Nsg14
(lp127
(i__main__
Token
p128
(dp129
g18
I45
sba(i__main__
Token
p130
(dp131
g18
I46
sba(i__main__
Token
p132
(dp133
g18
I47
sbasg25
I47
sba(i__main__
Mention
p134
(dp135
g7
S't4'
p136
sg9
Nsg10
S'i14'
p137
sg12
Nsg13
Nsg14
(lp138
(i__main__
Token
p139
(dp140
g18
I59
sba(i__main__
Token
p141
(dp142
g18
I60
sbasg25
Nsba(i__main__
Mention
p143
(dp144
g7
S't4'
p145
sg9
S'Coreference-Noun-Noun'
p146
sg10
S'i15'
p147
sg12
S'i14'
p148
sg13
Nsg14
(lp149
(i__main__
Token
p150
(dp151
g18
I72
sbasg25
I72
sba(i__main__
Mention
p152
(dp153
g7
S't4'
p154
sg9
S'Anaphora-C'
p155
sg10
S'i21'
p156
sg12
S'i15'
p157
sg13
Nsg14
(lp158
(i__main__
Token
p159
(dp160
g18
I86
sbasg25
I86
sba(i__main__
Mention
p161
(dp162
g7
S't4'
p163
sg9
S'Anaphora-C'
p164
sg10
S'i23'
p165
sg12
S'i21'
p166
sg13
Nsg14
(lp167
(i__main__
Token
p168
(dp169
g18
I93
sbasg25
I93
sba(i__main__
Mention
p170
(dp171
g7
S't4'
p172
sg9
Nsg10
S'i27'
p173
sg12
Nsg13
Nsg14
(lp174
(i__main__
Token
p175
(dp176
g18
I107
sba(i__main__
Token
p177
(dp178
g18
I108
sbasg25
Nsba(i__main__
Mention
p179
(dp180
g7
S't4'
p181
sg9
S'Coreference-PartOf'
p182
sg10
S'i30'
p183
sg12
S'i27'
p184
sg13
Nsg14
(lp185
(i__main__
Token
p186
(dp187
g18
I143
sba(i__main__
Token
p188
(dp189
g18
I144
sbasg25
I144
sbasg7
g105
sg55
Nsba(i__main__
Chain
p190
(dp191
g3
(lp192
(i__main__
Mention
p193
(dp194
g7
S't5'
p195
sg9
Nsg10
S'i9'
p196
sg12
Nsg13
Nsg14
(lp197
(i__main__
Token
p198
(dp199
g18
I27
sba(i__main__
Token
p200
(dp201
g18
I28
sbasg25
I28
sba(i__main__
Mention
p202
(dp203
g7
S't5'
p204
sg9
S'Coreference-Identity'
p205
sg10
S'i26'
p206
sg12
S'i9'
p207
sg13
Nsg14
(lp208
(i__main__
Token
p209
(dp210
g18
I100
sba(i__main__
Token
p211
(dp212
g18
I101
sbasg25
I101
sbasg7
g195
sg55
Nsba(i__main__
Chain
p213
(dp214
g3
(lp215
(i__main__
Mention
p216
(dp217
g7
S't6'
p218
sg9
Nsg10
S'i16'
p219
sg12
Nsg13
Nsg14
(lp220
(i__main__
Token
p221
(dp222
g18
I79
sbasg25
I79
sba(i__main__
Mention
p223
(dp224
g7
S't6'
p225
sg9
S'Coreference-PartOf'
p226
sg10
S'i18'
p227
sg12
S'i27'
p228
sg13
Nsg14
(lp229
(i__main__
Token
p230
(dp231
g18
I84
sba(i__main__
Token
p232
(dp233
g18
I85
sbasg25
I85
sba(i__main__
Mention
p234
(dp235
g7
S't6'
p236
sg9
Nsg10
S'i19'
p237
sg12
Nsg13
Nsg14
(lp238
(i__main__
Token
p239
(dp240
g18
I84
sbasg25
I84
sbasg7
g218
sg55
Nsba(i__main__
Chain
p241
(dp242
g3
(lp243
(i__main__
Mention
p244
(dp245
g7
S't7'
p246
sg9
Nsg10
S'i17'
p247
sg12
Nsg13
Nsg14
(lp248
(i__main__
Token
p249
(dp250
g18
I81
sbasg25
I81
sbasg7
g246
sg55
Nsba(i__main__
Chain
p251
(dp252
g3
(lp253
(i__main__
Mention
p254
(dp255
g7
S't8'
p256
sg9
Nsg10
S'i22'
p257
sg12
Nsg13
Nsg14
(lp258
(i__main__
Token
p259
(dp260
g18
I87
sba(i__main__
Token
p261
(dp262
g18
I88
sba(i__main__
Token
p263
(dp264
g18
I89
sbasg25
I89
sba(i__main__
Mention
p265
(dp266
g7
S't8'
p267
sg9
S'Coreference-Noun-Noun'
p268
sg10
S'i24'
p269
sg12
S'i22'
p270
sg13
Nsg14
(lp271
(i__main__
Token
p272
(dp273
g18
I94
sbasg25
I94
sba(i__main__
Mention
p274
(dp275
g7
S't8'
p276
sg9
Nsg10
S'i28'
p277
sg12
Nsg13
Nsg14
(lp278
(i__main__
Token
p279
(dp280
g18
I107
sba(i__main__
Token
p281
(dp282
g18
I108
sbasg25
Nsbasg7
g256
sg55
Nsba(i__main__
Chain
p283
(dp284
g3
(lp285
(i__main__
Mention
p286
(dp287
g7
S't9'
p288
sg9
Nsg10
S'i25'
p289
sg12
Nsg13
Nsg14
(lp290
(i__main__
Token
p291
(dp292
g18
I96
sbasg25
I96
sba(i__main__
Mention
p293
(dp294
g7
S't9'
p295
sg9
S'Coreference-Identity'
p296
sg10
S'i29'
p297
sg12
S'i25'
p298
sg13
Nsg14
(lp299
(i__main__
Token
p300
(dp301
g18
I122
sbasg25
I122
sbasg7
g288
sg55
Nsba.