(lp0
(i__main__
Chain
p1
(dp2
S'mentionList'
p3
(lp4
(i__main__
Mention
p5
(dp6
S'chainId'
p7
S't1'
p8
sS'relType'
p9
NsS'mentionId'
p10
S'i1'
p11
sS'antecedentId'
p12
NsS'crefMod'
p13
NsS'tokenList'
p14
(lp15
(i__main__
Token
p16
(dp17
S'tokenId'
p18
I0
sbasS'mentionHead'
p19
I0
sba(i__main__
Mention
p20
(dp21
g7
S't1'
p22
sg9
S'Coreference-Identity'
p23
sg10
S'i9'
p24
sg12
S'i1'
p25
sg13
Nsg14
(lp26
(i__main__
Token
p27
(dp28
g18
I39
sbasg19
I39
sbasg7
g8
sS'chainHead'
p29
Nsba(i__main__
Chain
p30
(dp31
g3
(lp32
(i__main__
Mention
p33
(dp34
g7
S't2'
p35
sg9
Nsg10
S'i2'
p36
sg12
Nsg13
Nsg14
(lp37
(i__main__
Token
p38
(dp39
g18
I2
sba(i__main__
Token
p40
(dp41
g18
I3
sbasg19
I3
sba(i__main__
Mention
p42
(dp43
g7
S't2'
p44
sg9
S'Coreference-Identity'
p45
sg10
S'i12'
p46
sg12
S'i137'
p47
sg13
Nsg14
(lp48
(i__main__
Token
p49
(dp50
g18
I59
sbasg19
I59
sbasg7
g35
sg29
Nsba(i__main__
Chain
p51
(dp52
g3
(lp53
(i__main__
Mention
p54
(dp55
g7
S't3'
p56
sg9
Nsg10
S'i3'
p57
sg12
Nsg13
Nsg14
(lp58
(i__main__
Token
p59
(dp60
g18
I5
sba(i__main__
Token
p61
(dp62
g18
I6
sba(i__main__
Token
p63
(dp64
g18
I7
sba(i__main__
Token
p65
(dp66
g18
I8
sbasg19
I8
sba(i__main__
Mention
p67
(dp68
g7
S't3'
p69
sg9
S'Coreference-Identity'
p70
sg10
S'i15'
p71
sg12
S'i3'
p72
sg13
Nsg14
(lp73
(i__main__
Token
p74
(dp75
g18
I68
sba(i__main__
Token
p76
(dp77
g18
I69
sbasg19
I69
sba(i__main__
Mention
p78
(dp79
g7
S't3'
p80
sg9
S'Coreference-Identity'
p81
sg10
S'i17'
p82
sg12
S'i15'
p83
sg13
Nsg14
(lp84
(i__main__
Token
p85
(dp86
g18
I75
sba(i__main__
Token
p87
(dp88
g18
I76
sbasg19
I76
sba(i__main__
Mention
p89
(dp90
g7
S't3'
p91
sg9
S'Coreference-Identity'
p92
sg10
S'i19'
p93
sg12
S'i17'
p94
sg13
Nsg14
(lp95
(i__main__
Token
p96
(dp97
g18
I95
sba(i__main__
Token
p98
(dp99
g18
I96
sbasg19
I96
sba(i__main__
Mention
p100
(dp101
g7
S't3'
p102
sg9
S'Coreference-Identity'
p103
sg10
S'i23'
p104
sg12
S'i19'
p105
sg13
Nsg14
(lp106
(i__main__
Token
p107
(dp108
g18
I122
sba(i__main__
Token
p109
(dp110
g18
I123
sbasg19
I123
sba(i__main__
Mention
p111
(dp112
g7
S't3'
p113
sg9
S'Coreference-Identity'
p114
sg10
S'i26'
p115
sg12
S'i23'
p116
sg13
Nsg14
(lp117
(i__main__
Token
p118
(dp119
g18
I134
sbasg19
I134
sba(i__main__
Mention
p120
(dp121
g7
S't3'
p122
sg9
S'Anaphora-C'
p123
sg10
S'i29'
p124
sg12
S'i26'
p125
sg13
Nsg14
(lp126
(i__main__
Token
p127
(dp128
g18
I147
sbasg19
I147
sba(i__main__
Mention
p129
(dp130
g7
S't3'
p131
sg9
S'Anaphora-C'
p132
sg10
S'i32'
p133
sg12
S'i29'
p134
sg13
Nsg14
(lp135
(i__main__
Token
p136
(dp137
g18
I156
sbasg19
I156
sba(i__main__
Mention
p138
(dp139
g7
S't3'
p140
sg9
S'Coreference-Identity'
p141
sg10
S'i36'
p142
sg12
S'i57'
p143
sg13
Nsg14
(lp144
(i__main__
Token
p145
(dp146
g18
I174
sbasg19
I174
sba(i__main__
Mention
p147
(dp148
g7
S't3'
p149
sg9
S'Coreference-Identity'
p150
sg10
S'i38'
p151
sg12
S'i36'
p152
sg13
Nsg14
(lp153
(i__main__
Token
p154
(dp155
g18
I184
sbasg19
I184
sba(i__main__
Mention
p156
(dp157
g7
S't3'
p158
sg9
S'Coreference-Identity'
p159
sg10
S'i47'
p160
sg12
S'i38'
p161
sg13
Nsg14
(lp162
(i__main__
Token
p163
(dp164
g18
I224
sbasg19
I224
sbasg7
g56
sg29
Nsba(i__main__
Chain
p165
(dp166
g3
(lp167
(i__main__
Mention
p168
(dp169
g7
S't4'
p170
sg9
Nsg10
S'i4'
p171
sg12
Nsg13
Nsg14
(lp172
(i__main__
Token
p173
(dp174
g18
I11
sba(i__main__
Token
p175
(dp176
g18
I12
sbasg19
I12
sba(i__main__
Mention
p177
(dp178
g7
S't4'
p179
sg9
S'Coreference-Identity'
p180
sg10
S'i16'
p181
sg12
S'i4'
p182
sg13
Nsg14
(lp183
(i__main__
Token
p184
(dp185
g18
I72
sbasg19
I72
sba(i__main__
Mention
p186
(dp187
g7
S't4'
p188
sg9
S'Coreference-Identity'
p189
sg10
S'i18'
p190
sg12
S'i16'
p191
sg13
Nsg14
(lp192
(i__main__
Token
p193
(dp194
g18
I91
sbasg19
I91
sba(i__main__
Mention
p195
(dp196
g7
S't4'
p197
sg9
S'Coreference-Identity'
p198
sg10
S'i24'
p199
sg12
S'i55'
p200
sg13
Nsg14
(lp201
(i__main__
Token
p202
(dp203
g18
I126
sbasg19
I126
sba(i__main__
Mention
p204
(dp205
g7
S't4'
p206
sg9
S'Coreference-Identity'
p207
sg10
S'i43'
p208
sg12
S'i24'
p209
sg13
Nsg14
(lp210
(i__main__
Token
p211
(dp212
g18
I206
sba(i__main__
Token
p213
(dp214
g18
I207
sbasg19
I207
sbasg7
g170
sg29
Nsba(i__main__
Chain
p215
(dp216
g3
(lp217
(i__main__
Mention
p218
(dp219
g7
S't5'
p220
sg9
Nsg10
S'i5'
p221
sg12
Nsg13
Nsg14
(lp222
(i__main__
Token
p223
(dp224
g18
I14
sbasg19
I14
sba(i__main__
Mention
p225
(dp226
g7
S't5'
p227
sg9
S'Coreference-Identity'
p228
sg10
S'i6'
p229
sg12
S'i5'
p230
sg13
Nsg14
(lp231
(i__main__
Token
p232
(dp233
g18
I27
sbasg19
I27
sba(i__main__
Mention
p234
(dp235
g7
S't5'
p236
sg9
S'Coreference-Identity'
p237
sg10
S'i11'
p238
sg12
S'i6'
p239
sg13
Nsg14
(lp240
(i__main__
Token
p241
(dp242
g18
I46
sba(i__main__
Token
p243
(dp244
g18
I47
sbasg19
I47
sbasg7
g220
sg29
Nsba(i__main__
Chain
p245
(dp246
g3
(lp247
(i__main__
Mention
p248
(dp249
g7
S't6'
p250
sg9
Nsg10
S'i7'
p251
sg12
Nsg13
Nsg14
(lp252
(i__main__
Token
p253
(dp254
g18
I35
sbasg19
I35
sba(i__main__
Mention
p255
(dp256
g7
S't6'
p257
sg9
S'Anaphora-T'
p258
sg10
S'i8'
p259
sg12
S'i7'
p260
sg13
Nsg14
(lp261
(i__main__
Token
p262
(dp263
g18
I38
sbasg19
I38
sba(i__main__
Mention
p264
(dp265
g7
S't6'
p266
sg9
S'Anaphora-RT'
p267
sg10
S'i10'
p268
sg12
S'i8'
p269
sg13
Nsg14
(lp270
(i__main__
Token
p271
(dp272
g18
I39
sba(i__main__
Token
p273
(dp274
g18
I40
sba(i__main__
Token
p275
(dp276
g18
I41
sba(i__main__
Token
p277
(dp278
g18
I42
sba(i__main__
Token
p279
(dp280
g18
I43
sba(i__main__
Token
p281
(dp282
g18
I44
sba(i__main__
Token
p283
(dp284
g18
I45
sba(i__main__
Token
p285
(dp286
g18
I46
sba(i__main__
Token
p287
(dp288
g18
I47
sba(i__main__
Token
p289
(dp290
g18
I48
sba(i__main__
Token
p291
(dp292
g18
I49
sba(i__main__
Token
p293
(dp294
g18
I50
sba(i__main__
Token
p295
(dp296
g18
I51
sba(i__main__
Token
p297
(dp298
g18
I52
sba(i__main__
Token
p299
(dp300
g18
I53
sba(i__main__
Token
p301
(dp302
g18
I54
sbasg19
I54
sbasg7
g250
sg29
Nsba(i__main__
Chain
p303
(dp304
g3
(lp305
(i__main__
Mention
p306
(dp307
g7
S't7'
p308
sg9
Nsg10
S'i14'
p309
sg12
Nsg13
Nsg14
(lp310
(i__main__
Token
p311
(dp312
g18
I65
sba(i__main__
Token
p313
(dp314
g18
I66
sbasg19
I66
sba(i__main__
Mention
p315
(dp316
g7
S't7'
p317
sg9
S'Coreference-Identity'
p318
sg10
S'i21'
p319
sg12
S'i14'
p320
sg13
Nsg14
(lp321
(i__main__
Token
p322
(dp323
g18
I115
sba(i__main__
Token
p324
(dp325
g18
I116
sbasg19
I116
sba(i__main__
Mention
p326
(dp327
g7
S't7'
p328
sg9
S'Coreference-InferedRelation'
p329
sg10
S'i25'
p330
sg12
S'i21'
p331
sg13
Nsg14
(lp332
(i__main__
Token
p333
(dp334
g18
I129
sba(i__main__
Token
p335
(dp336
g18
I130
sbasg19
I130
sba(i__main__
Mention
p337
(dp338
g7
S't7'
p339
sg9
S'Anaphora-C'
p340
sg10
S'i27'
p341
sg12
S'i25'
p342
sg13
Nsg14
(lp343
(i__main__
Token
p344
(dp345
g18
I141
sbasg19
I141
sba(i__main__
Mention
p346
(dp347
g7
S't7'
p348
sg9
S'Anaphora-C'
p349
sg10
S'i31'
p350
sg12
S'i27'
p351
sg13
Nsg14
(lp352
(i__main__
Token
p353
(dp354
g18
I149
sbasg19
I149
sba(i__main__
Mention
p355
(dp356
g7
S't7'
p357
sg9
S'Anaphora-C'
p358
sg10
S'i34'
p359
sg12
S'i31'
p360
sg13
Nsg14
(lp361
(i__main__
Token
p362
(dp363
g18
I164
sbasg19
I164
sba(i__main__
Mention
p364
(dp365
g7
S't7'
p366
sg9
S'Coreference-InferedRelation'
p367
sg10
S'i35'
p368
sg12
S'i34'
p369
sg13
Nsg14
(lp370
(i__main__
Token
p371
(dp372
g18
I170
sba(i__main__
Token
p373
(dp374
g18
I171
sbasg19
I171
sba(i__main__
Mention
p375
(dp376
g7
S't7'
p377
sg9
S'Anaphora-C'
p378
sg10
S'i37'
p379
sg12
S'i35'
p380
sg13
Nsg14
(lp381
(i__main__
Token
p382
(dp383
g18
I183
sbasg19
I183
sba(i__main__
Mention
p384
(dp385
g7
S't7'
p386
sg9
S'Anaphora-C'
p387
sg10
S'i39'
p388
sg12
S'i37'
p389
sg13
Nsg14
(lp390
(i__main__
Token
p391
(dp392
g18
I190
sbasg19
I190
sba(i__main__
Mention
p393
(dp394
g7
S't7'
p395
sg9
S'Anaphora-C'
p396
sg10
S'i40'
p397
sg12
S'i39'
p398
sg13
Nsg14
(lp399
(i__main__
Token
p400
(dp401
g18
I194
sbasg19
I194
sba(i__main__
Mention
p402
(dp403
g7
S't7'
p404
sg9
S'Anaphora-C'
p405
sg10
S'i41'
p406
sg12
S'i40'
p407
sg13
Nsg14
(lp408
(i__main__
Token
p409
(dp410
g18
I196
sbasg19
I196
sba(i__main__
Mention
p411
(dp412
g7
S't7'
p413
sg9
S'Coreference-Identity'
p414
sg10
S'i44'
p415
sg12
S'i41'
p416
sg13
Nsg14
(lp417
(i__main__
Token
p418
(dp419
g18
I215
sba(i__main__
Token
p420
(dp421
g18
I216
sba(i__main__
Token
p422
(dp423
g18
I217
sbasg19
I217
sba(i__main__
Mention
p424
(dp425
g7
S't7'
p426
sg9
S'Anaphora-C'
p427
sg10
S'i48'
p428
sg12
S'i44'
p429
sg13
Nsg14
(lp430
(i__main__
Token
p431
(dp432
g18
I227
sbasg19
I227
sba(i__main__
Mention
p433
(dp434
g7
S't7'
p435
sg9
S'Coreference-Noun-Noun'
p436
sg10
S'i51'
p437
sg12
S'i48'
p438
sg13
Nsg14
(lp439
(i__main__
Token
p440
(dp441
g18
I240
sbasg19
I240
sbasg7
g308
sg29
Nsba(i__main__
Chain
p442
(dp443
g3
(lp444
(i__main__
Mention
p445
(dp446
g7
S't8'
p447
sg9
Nsg10
S'i20'
p448
sg12
Nsg13
Nsg14
(lp449
(i__main__
Token
p450
(dp451
g18
I109
sbasg19
I109
sba(i__main__
Mention
p452
(dp453
g7
S't8'
p454
sg9
S'Coreference-Identity'
p455
sg10
S'i42'
p456
sg12
S'i20'
p457
sg13
Nsg14
(lp458
(i__main__
Token
p459
(dp460
g18
I204
sbasg19
I204
sba(i__main__
Mention
p461
(dp462
g7
S't8'
p463
sg9
S'Coreference-Identity'
p464
sg10
S'i50'
p465
sg12
S'i42'
p466
sg13
Nsg14
(lp467
(i__main__
Token
p468
(dp469
g18
I235
sbasg19
I235
sbasg7
g447
sg29
Nsba(i__main__
Chain
p470
(dp471
g3
(lp472
(i__main__
Mention
p473
(dp474
g7
S't9'
p475
sg9
Nsg10
S'i22'
p476
sg12
Nsg13
Nsg14
(lp477
(i__main__
Token
p478
(dp479
g18
I118
sbasg19
I118
sba(i__main__
Mention
p480
(dp481
g7
S't9'
p482
sg9
S'Coreference-Identity'
p483
sg10
S'i28'
p484
sg12
S'i22'
p485
sg13
Nsg14
(lp486
(i__main__
Token
p487
(dp488
g18
I142
sbasg19
I142
sbasg7
g475
sg29
Nsba(i__main__
Chain
p489
(dp490
g3
(lp491
(i__main__
Mention
p492
(dp493
g7
S't10'
p494
sg9
Nsg10
S'i45'
p495
sg12
Nsg13
Nsg14
(lp496
(i__main__
Token
p497
(dp498
g18
I215
sba(i__main__
Token
p499
(dp500
g18
I216
sba(i__main__
Token
p501
(dp502
g18
I217
sba(i__main__
Token
p503
(dp504
g18
I218
sba(i__main__
Token
p505
(dp506
g18
I219
sba(i__main__
Token
p507
(dp508
g18
I220
sba(i__main__
Token
p509
(dp510
g18
I221
sbasg19
I221
sba(i__main__
Mention
p511
(dp512
g7
S't10'
p513
sg9
S'Anaphora-E'
p514
sg10
S'i46'
p515
sg12
S'i45'
p516
sg13
Nsg14
(lp517
(i__main__
Token
p518
(dp519
g18
I223
sbasg19
I223
sbasg7
g494
sg29
Nsba.