(lp0
(i__main__
Chain
p1
(dp2
S'mentionList'
p3
(lp4
(i__main__
Mention
p5
(dp6
S'chainId'
p7
S't1'
p8
sS'relType'
p9
NsS'mentionId'
p10
S'i1'
p11
sS'antecedentId'
p12
NsS'crefMod'
p13
NsS'tokenList'
p14
(lp15
(i__main__
Token
p16
(dp17
S'tokenId'
p18
I0
sba(i__main__
Token
p19
(dp20
g18
I1
sbasS'mentionHead'
p21
I1
sba(i__main__
Mention
p22
(dp23
g7
S't1'
p24
sg9
S'Coreference-InferedRelation'
p25
sg10
S'i2'
p26
sg12
S'i1'
p27
sg13
Nsg14
(lp28
(i__main__
Token
p29
(dp30
g18
I31
sbasg21
I31
sba(i__main__
Mention
p31
(dp32
g7
S't1'
p33
sg9
S'Coreference-Identity'
p34
sg10
S'i11'
p35
sg12
S'i2'
p36
sg13
Nsg14
(lp37
(i__main__
Token
p38
(dp39
g18
I128
sba(i__main__
Token
p40
(dp41
g18
I129
sbasg21
I129
sba(i__main__
Mention
p42
(dp43
g7
S't1'
p44
sg9
S'Coreference-Identity'
p45
sg10
S'i18'
p46
sg12
S'i11'
p47
sg13
Nsg14
(lp48
(i__main__
Token
p49
(dp50
g18
I166
sba(i__main__
Token
p51
(dp52
g18
I167
sbasg21
I167
sba(i__main__
Mention
p53
(dp54
g7
S't1'
p55
sg9
S'Coreference-InferedRelation'
p56
sg10
S'i20'
p57
sg12
S'i18'
p58
sg13
Nsg14
(lp59
(i__main__
Token
p60
(dp61
g18
I189
sbasg21
I189
sbasg7
g8
sS'chainHead'
p62
Nsba(i__main__
Chain
p63
(dp64
g3
(lp65
(i__main__
Mention
p66
(dp67
g7
S't2'
p68
sg9
Nsg10
S'i3'
p69
sg12
Nsg13
Nsg14
(lp70
(i__main__
Token
p71
(dp72
g18
I66
sba(i__main__
Token
p73
(dp74
g18
I67
sbasg21
I67
sba(i__main__
Mention
p75
(dp76
g7
S't2'
p77
sg9
S'Coreference-InferedRelation'
p78
sg10
S'i4'
p79
sg12
S'i3'
p80
sg13
Nsg14
(lp81
(i__main__
Token
p82
(dp83
g18
I73
sbasg21
I73
sba(i__main__
Mention
p84
(dp85
g7
S't2'
p86
sg9
S'Coreference-Noun-Noun'
p87
sg10
S'i5'
p88
sg12
S'i4'
p89
sg13
Nsg14
(lp90
(i__main__
Token
p91
(dp92
g18
I74
sba(i__main__
Token
p93
(dp94
g18
I75
sbasg21
I75
sbasg7
g68
sg62
Nsba(i__main__
Chain
p95
(dp96
g3
(lp97
(i__main__
Mention
p98
(dp99
g7
S't3'
p100
sg9
Nsg10
S'i6'
p101
sg12
Nsg13
Nsg14
(lp102
(i__main__
Token
p103
(dp104
g18
I85
sbasg21
I85
sba(i__main__
Mention
p105
(dp106
g7
S't3'
p107
sg9
S'Coreference-Identity'
p108
sg10
S'i8'
p109
sg12
S'i6'
p110
sg13
Nsg14
(lp111
(i__main__
Token
p112
(dp113
g18
I98
sbasg21
I98
sbasg7
g100
sg62
Nsba(i__main__
Chain
p114
(dp115
g3
(lp116
(i__main__
Mention
p117
(dp118
g7
S't4'
p119
sg9
Nsg10
S'i7'
p120
sg12
Nsg13
Nsg14
(lp121
(i__main__
Token
p122
(dp123
g18
I96
sbasg21
I96
sba(i__main__
Mention
p124
(dp125
g7
S't4'
p126
sg9
S'Coreference-Identity'
p127
sg10
S'i21'
p128
sg12
S'i7'
p129
sg13
Nsg14
(lp130
(i__main__
Token
p131
(dp132
g18
I207
sbasg21
I207
sbasg7
g119
sg62
Nsba(i__main__
Chain
p133
(dp134
g3
(lp135
(i__main__
Mention
p136
(dp137
g7
S't5'
p138
sg9
Nsg10
S'i9'
p139
sg12
Nsg13
Nsg14
(lp140
(i__main__
Token
p141
(dp142
g18
I112
sbasg21
I112
sba(i__main__
Mention
p143
(dp144
g7
S't5'
p145
sg9
S'Coreference-NounComplement'
p146
sg10
S'i10'
p147
sg12
S'i9'
p148
sg13
Nsg14
(lp149
(i__main__
Token
p150
(dp151
g18
I113
sba(i__main__
Token
p152
(dp153
g18
I114
sbasg21
I114
sbasg7
g138
sg62
Nsba(i__main__
Chain
p154
(dp155
g3
(lp156
(i__main__
Mention
p157
(dp158
g7
S't6'
p159
sg9
Nsg10
S'i12'
p160
sg12
Nsg13
Nsg14
(lp161
(i__main__
Token
p162
(dp163
g18
I131
sba(i__main__
Token
p164
(dp165
g18
I132
sba(i__main__
Token
p166
(dp167
g18
I133
sba(i__main__
Token
p168
(dp169
g18
I134
sba(i__main__
Token
p170
(dp171
g18
I135
sbasg21
I135
sba(i__main__
Mention
p172
(dp173
g7
S't6'
p174
sg9
S'Coreference-Identity'
p175
sg10
S'i13'
p176
sg12
S'i12'
p177
sg13
Nsg14
(lp178
(i__main__
Token
p179
(dp180
g18
I151
sbasg21
I151
sba(i__main__
Mention
p181
(dp182
g7
S't6'
p183
sg9
S'Coreference-Identity'
p184
sg10
S'i19'
p185
sg12
S'i13'
p186
sg13
Nsg14
(lp187
(i__main__
Token
p188
(dp189
g18
I176
sbasg21
I176
sbasg7
g159
sg62
Nsba(i__main__
Chain
p190
(dp191
g3
(lp192
(i__main__
Mention
p193
(dp194
g7
S't7'
p195
sg9
Nsg10
S'i15'
p196
sg12
Nsg13
Nsg14
(lp197
(i__main__
Token
p198
(dp199
g18
I153
sba(i__main__
Token
p200
(dp201
g18
I154
sbasg21
Nsba(i__main__
Mention
p202
(dp203
g7
S't7'
p204
sg9
S'Coreference-PartOf'
p205
sg10
S'i16'
p206
sg12
S'i15'
p207
sg13
Nsg14
(lp208
(i__main__
Token
p209
(dp210
g18
I155
sba(i__main__
Token
p211
(dp212
g18
I156
sba(i__main__
Token
p213
(dp214
g18
I157
sbasg21
I157
sbasg7
g195
sg62
Nsba(i__main__
Chain
p215
(dp216
g3
(lp217
(i__main__
Mention
p218
(dp219
g7
S't8'
p220
sg9
Nsg10
S'i14'
p221
sg12
Nsg13
Nsg14
(lp222
(i__main__
Token
p223
(dp224
g18
I153
sba(i__main__
Token
p225
(dp226
g18
I154
sbasg21
Nsba(i__main__
Mention
p227
(dp228
g7
S't8'
p229
sg9
S'Coreference-PartOf'
p230
sg10
S'i17'
p231
sg12
S'i14'
p232
sg13
Nsg14
(lp233
(i__main__
Token
p234
(dp235
g18
I159
sba(i__main__
Token
p236
(dp237
g18
I160
sba(i__main__
Token
p238
(dp239
g18
I161
sbasg21
I161
sbasg7
g220
sg62
Nsba.