(lp0
(i__main__
Chain
p1
(dp2
S'mentionList'
p3
(lp4
(i__main__
Mention
p5
(dp6
S'chainId'
p7
S't1'
p8
sS'relType'
p9
NsS'mentionId'
p10
S'i1'
p11
sS'antecedentId'
p12
NsS'crefMod'
p13
NsS'tokenList'
p14
(lp15
(i__main__
Token
p16
(dp17
S'tokenId'
p18
I5
sba(i__main__
Token
p19
(dp20
g18
I6
sba(i__main__
Token
p21
(dp22
g18
I7
sba(i__main__
Token
p23
(dp24
g18
I8
sba(i__main__
Token
p25
(dp26
g18
I9
sbasS'mentionHead'
p27
I9
sba(i__main__
Mention
p28
(dp29
g7
S't1'
p30
sg9
S'Coreference-Identity'
p31
sg10
S'i3'
p32
sg12
S'i1'
p33
sg13
Nsg14
(lp34
(i__main__
Token
p35
(dp36
g18
I26
sbasg27
I26
sba(i__main__
Mention
p37
(dp38
g7
S't1'
p39
sg9
S'Coreference-Noun-Noun'
p40
sg10
S'i5'
p41
sg12
S'i3'
p42
sg13
Nsg14
(lp43
(i__main__
Token
p44
(dp45
g18
I40
sba(i__main__
Token
p46
(dp47
g18
I41
sba(i__main__
Token
p48
(dp49
g18
I42
sba(i__main__
Token
p50
(dp51
g18
I43
sbasg27
I43
sba(i__main__
Mention
p52
(dp53
g7
S't1'
p54
sg9
S'Coreference-Identity'
p55
sg10
S'i36'
p56
sg12
S'i5'
p57
sg13
Nsg14
(lp58
(i__main__
Token
p59
(dp60
g18
I208
sba(i__main__
Token
p61
(dp62
g18
I209
sba(i__main__
Token
p63
(dp64
g18
I210
sba(i__main__
Token
p65
(dp66
g18
I211
sbasg27
I211
sbasg7
g8
sS'chainHead'
p67
Nsba(i__main__
Chain
p68
(dp69
g3
(lp70
(i__main__
Mention
p71
(dp72
g7
S't2'
p73
sg9
Nsg10
S'i2'
p74
sg12
Nsg13
Nsg14
(lp75
(i__main__
Token
p76
(dp77
g18
I10
sba(i__main__
Token
p78
(dp79
g18
I11
sba(i__main__
Token
p80
(dp81
g18
I12
sba(i__main__
Token
p82
(dp83
g18
I13
sba(i__main__
Token
p84
(dp85
g18
I14
sbasg27
I14
sba(i__main__
Mention
p86
(dp87
g7
S't2'
p88
sg9
S'Coreference-Identity'
p89
sg10
S'i34'
p90
sg12
S'i2'
p91
sg13
Nsg14
(lp92
(i__main__
Token
p93
(dp94
g18
I192
sba(i__main__
Token
p95
(dp96
g18
I193
sbasg27
I193
sbasg7
g73
sg67
Nsba(i__main__
Chain
p97
(dp98
g3
(lp99
(i__main__
Mention
p100
(dp101
g7
S't3'
p102
sg9
Nsg10
S'i4'
p103
sg12
Nsg13
Nsg14
(lp104
(i__main__
Token
p105
(dp106
g18
I29
sbasg27
I29
sba(i__main__
Mention
p107
(dp108
g7
S't3'
p109
sg9
S'Coreference-Noun-Noun'
p110
sg10
S'i11'
p111
sg12
S'i4'
p112
sg13
Nsg14
(lp113
(i__main__
Token
p114
(dp115
g18
I80
sbasg27
I80
sba(i__main__
Mention
p116
(dp117
g7
S't3'
p118
sg9
S'Coreference-Noun-Noun'
p119
sg10
S'i12'
p120
sg12
S'i11'
p121
sg13
Nsg14
(lp122
(i__main__
Token
p123
(dp124
g18
I90
sbasg27
I90
sba(i__main__
Mention
p125
(dp126
g7
S't3'
p127
sg9
S'Coreference-Identity'
p128
sg10
S'i15'
p129
sg12
S'i12'
p130
sg13
Nsg14
(lp131
(i__main__
Token
p132
(dp133
g18
I107
sbasg27
I107
sba(i__main__
Mention
p134
(dp135
g7
S't3'
p136
sg9
S'Coreference-Identity'
p137
sg10
S'i16'
p138
sg12
S'i15'
p139
sg13
Nsg14
(lp140
(i__main__
Token
p141
(dp142
g18
I116
sbasg27
I116
sbasg7
g102
sg67
Nsba(i__main__
Chain
p143
(dp144
g3
(lp145
(i__main__
Mention
p146
(dp147
g7
S't4'
p148
sg9
Nsg10
S'i6'
p149
sg12
Nsg13
Nsg14
(lp150
(i__main__
Token
p151
(dp152
g18
I40
sba(i__main__
Token
p153
(dp154
g18
I41
sba(i__main__
Token
p155
(dp156
g18
I42
sba(i__main__
Token
p157
(dp158
g18
I43
sba(i__main__
Token
p159
(dp160
g18
I44
sba(i__main__
Token
p161
(dp162
g18
I45
sba(i__main__
Token
p163
(dp164
g18
I46
sbasg27
I46
sba(i__main__
Mention
p165
(dp166
g7
S't4'
p167
sg9
S'Coreference-Noun-Noun'
p168
sg10
S'i9'
p169
sg12
S'i6'
p170
sg13
Nsg14
(lp171
(i__main__
Token
p172
(dp173
g18
I66
sbasg27
I66
sba(i__main__
Mention
p174
(dp175
g7
S't4'
p176
sg9
S'Coreference-Identity'
p177
sg10
S'i13'
p178
sg12
S'i9'
p179
sg13
Nsg14
(lp180
(i__main__
Token
p181
(dp182
g18
I102
sbasg27
I102
sba(i__main__
Mention
p183
(dp184
g7
S't4'
p185
sg9
S'Coreference-Identity'
p186
sg10
S'i31'
p187
sg12
S'i13'
p188
sg13
Nsg14
(lp189
(i__main__
Token
p190
(dp191
g18
I177
sbasg27
I177
sba(i__main__
Mention
p192
(dp193
g7
S't4'
p194
sg9
S'Anaphora-C'
p195
sg10
S'i32'
p196
sg12
S'i31'
p197
sg13
Nsg14
(lp198
(i__main__
Token
p199
(dp200
g18
I181
sbasg27
I181
sba(i__main__
Mention
p201
(dp202
g7
S't4'
p203
sg9
S'Coreference-Identity'
p204
sg10
S'i37'
p205
sg12
S'i32'
p206
sg13
Nsg14
(lp207
(i__main__
Token
p208
(dp209
g18
I213
sbasg27
I213
sba(i__main__
Mention
p210
(dp211
g7
S't4'
p212
sg9
S'Coreference-Identity'
p213
sg10
S'i42'
p214
sg12
S'i37'
p215
sg13
Nsg14
(lp216
(i__main__
Token
p217
(dp218
g18
I243
sbasg27
I243
sba(i__main__
Mention
p219
(dp220
g7
S't4'
p221
sg9
S'Coreference-Identity'
p222
sg10
S'i45'
p223
sg12
S'i42'
p224
sg13
Nsg14
(lp225
(i__main__
Token
p226
(dp227
g18
I266
sbasg27
I266
sba(i__main__
Mention
p228
(dp229
g7
S't4'
p230
sg9
S'Coreference-Noun-Noun'
p231
sg10
S'i47'
p232
sg12
S'i45'
p233
sg13
Nsg14
(lp234
(i__main__
Token
p235
(dp236
g18
I280
sba(i__main__
Token
p237
(dp238
g18
I281
sbasg27
I281
sba(i__main__
Mention
p239
(dp240
g7
S't4'
p241
sg9
S'Coreference-Noun-Noun'
p242
sg10
S'i53'
p243
sg12
S'i47'
p244
sg13
Nsg14
(lp245
(i__main__
Token
p246
(dp247
g18
I339
sbasg27
I339
sbasg7
g148
sg67
Nsba(i__main__
Chain
p248
(dp249
g3
(lp250
(i__main__
Mention
p251
(dp252
g7
S't5'
p253
sg9
Nsg10
S'i7'
p254
sg12
Nsg13
Nsg14
(lp255
(i__main__
Token
p256
(dp257
g18
I50
sba(i__main__
Token
p258
(dp259
g18
I51
sbasg27
I51
sba(i__main__
Mention
p260
(dp261
g7
S't5'
p262
sg9
S'Anaphora-C'
p263
sg10
S'i8'
p264
sg12
S'i7'
p265
sg13
Nsg14
(lp266
(i__main__
Token
p267
(dp268
g18
I62
sbasg27
I62
sba(i__main__
Mention
p269
(dp270
g7
S't5'
p271
sg9
S'Coreference-Identity'
p272
sg10
S'i10'
p273
sg12
S'i8'
p274
sg13
Nsg14
(lp275
(i__main__
Token
p276
(dp277
g18
I73
sbasg27
I73
sba(i__main__
Mention
p278
(dp279
g7
S't5'
p280
sg9
S'Coreference-Identity'
p281
sg10
S'i33'
p282
sg12
S'i10'
p283
sg13
Nsg14
(lp284
(i__main__
Token
p285
(dp286
g18
I182
sbasg27
I182
sba(i__main__
Mention
p287
(dp288
g7
S't5'
p289
sg9
S'Coreference-Identity'
p290
sg10
S'i35'
p291
sg12
S'i33'
p292
sg13
Nsg14
(lp293
(i__main__
Token
p294
(dp295
g18
I200
sbasg27
I200
sbasg7
g253
sg67
Nsba(i__main__
Chain
p296
(dp297
g3
(lp298
(i__main__
Mention
p299
(dp300
g7
S't6'
p301
sg9
Nsg10
S'i14'
p302
sg12
Nsg13
Nsg14
(lp303
(i__main__
Token
p304
(dp305
g18
I106
sbasg27
I106
sbasg7
g301
sg67
Nsba(i__main__
Chain
p306
(dp307
g3
(lp308
(i__main__
Mention
p309
(dp310
g7
S't7'
p311
sg9
Nsg10
S'i17'
p312
sg12
Nsg13
Nsg14
(lp313
(i__main__
Token
p314
(dp315
g18
I128
sba(i__main__
Token
p316
(dp317
g18
I129
sba(i__main__
Token
p318
(dp319
g18
I130
sba(i__main__
Token
p320
(dp321
g18
I131
sba(i__main__
Token
p322
(dp323
g18
I132
sba(i__main__
Token
p324
(dp325
g18
I133
sbasg27
I133
sba(i__main__
Mention
p326
(dp327
g7
S't7'
p328
sg9
Nsg10
S'i25'
p329
sg12
Nsg13
Nsg14
(lp330
(i__main__
Token
p331
(dp332
g18
I170
sbasg27
Nsbasg7
g311
sg67
Nsba(i__main__
Chain
p333
(dp334
g3
(lp335
(i__main__
Mention
p336
(dp337
g7
S't8'
p338
sg9
Nsg10
S'i18'
p339
sg12
Nsg13
Nsg14
(lp340
(i__main__
Token
p341
(dp342
g18
I135
sba(i__main__
Token
p343
(dp344
g18
I136
sba(i__main__
Token
p345
(dp346
g18
I137
sba(i__main__
Token
p347
(dp348
g18
I138
sba(i__main__
Token
p349
(dp350
g18
I139
sba(i__main__
Token
p351
(dp352
g18
I140
sba(i__main__
Token
p353
(dp354
g18
I141
sba(i__main__
Token
p355
(dp356
g18
I142
sbasg27
I142
sba(i__main__
Mention
p357
(dp358
g7
S't8'
p359
sg9
Nsg10
S'i24'
p360
sg12
Nsg13
Nsg14
(lp361
(i__main__
Token
p362
(dp363
g18
I170
sbasg27
Nsbasg7
g338
sg67
Nsba(i__main__
Chain
p364
(dp365
g3
(lp366
(i__main__
Mention
p367
(dp368
g7
S't9'
p369
sg9
Nsg10
S'i19'
p370
sg12
Nsg13
Nsg14
(lp371
(i__main__
Token
p372
(dp373
g18
I146
sbasg27
I146
sba(i__main__
Mention
p374
(dp375
g7
S't9'
p376
sg9
Nsg10
S'i26'
p377
sg12
Nsg13
Nsg14
(lp378
(i__main__
Token
p379
(dp380
g18
I170
sbasg27
Nsbasg7
g369
sg67
Nsba(i__main__
Chain
p381
(dp382
g3
(lp383
(i__main__
Mention
p384
(dp385
g7
S't10'
p386
sg9
Nsg10
S'i20'
p387
sg12
Nsg13
Nsg14
(lp388
(i__main__
Token
p389
(dp390
g18
I148
sba(i__main__
Token
p391
(dp392
g18
I149
sbasg27
I149
sba(i__main__
Mention
p393
(dp394
g7
S't10'
p395
sg9
Nsg10
S'i27'
p396
sg12
Nsg13
Nsg14
(lp397
(i__main__
Token
p398
(dp399
g18
I170
sbasg27
Nsbasg7
g386
sg67
Nsba(i__main__
Chain
p400
(dp401
g3
(lp402
(i__main__
Mention
p403
(dp404
g7
S't11'
p405
sg9
Nsg10
S'i21'
p406
sg12
Nsg13
Nsg14
(lp407
(i__main__
Token
p408
(dp409
g18
I154
sbasg27
I154
sba(i__main__
Mention
p410
(dp411
g7
S't11'
p412
sg9
Nsg10
S'i28'
p413
sg12
Nsg13
Nsg14
(lp414
(i__main__
Token
p415
(dp416
g18
I170
sbasg27
Nsbasg7
g405
sg67
Nsba(i__main__
Chain
p417
(dp418
g3
(lp419
(i__main__
Mention
p420
(dp421
g7
S't12'
p422
sg9
Nsg10
S'i22'
p423
sg12
Nsg13
Nsg14
(lp424
(i__main__
Token
p425
(dp426
g18
I156
sba(i__main__
Token
p427
(dp428
g18
I157
sba(i__main__
Token
p429
(dp430
g18
I158
sba(i__main__
Token
p431
(dp432
g18
I159
sba(i__main__
Token
p433
(dp434
g18
I160
sba(i__main__
Token
p435
(dp436
g18
I161
sba(i__main__
Token
p437
(dp438
g18
I162
sba(i__main__
Token
p439
(dp440
g18
I163
sbasg27
I163
sba(i__main__
Mention
p441
(dp442
g7
S't12'
p443
sg9
Nsg10
S'i29'
p444
sg12
Nsg13
Nsg14
(lp445
(i__main__
Token
p446
(dp447
g18
I170
sbasg27
Nsbasg7
g422
sg67
Nsba(i__main__
Chain
p448
(dp449
g3
(lp450
(i__main__
Mention
p451
(dp452
g7
S't13'
p453
sg9
Nsg10
S'i23'
p454
sg12
Nsg13
Nsg14
(lp455
(i__main__
Token
p456
(dp457
g18
I165
sba(i__main__
Token
p458
(dp459
g18
I166
sba(i__main__
Token
p460
(dp461
g18
I167
sba(i__main__
Token
p462
(dp463
g18
I168
sbasg27
I168
sba(i__main__
Mention
p464
(dp465
g7
S't13'
p466
sg9
Nsg10
S'i30'
p467
sg12
Nsg13
Nsg14
(lp468
(i__main__
Token
p469
(dp470
g18
I170
sbasg27
Nsbasg7
g453
sg67
Nsba(i__main__
Chain
p471
(dp472
g3
(lp473
(i__main__
Mention
p474
(dp475
g7
S't14'
p476
sg9
Nsg10
S'i38'
p477
sg12
Nsg13
Nsg14
(lp478
(i__main__
Token
p479
(dp480
g18
I217
sba(i__main__
Token
p481
(dp482
g18
I218
sbasg27
I218
sba(i__main__
Mention
p483
(dp484
g7
S't14'
p485
sg9
S'Coreference-Identity'
p486
sg10
S'i43'
p487
sg12
S'i38'
p488
sg13
Nsg14
(lp489
(i__main__
Token
p490
(dp491
g18
I252
sbasg27
I252
sba(i__main__
Mention
p492
(dp493
g7
S't14'
p494
sg9
S'Coreference-Identity'
p495
sg10
S'i55'
p496
sg12
S'i43'
p497
sg13
Nsg14
(lp498
(i__main__
Token
p499
(dp500
g18
I349
sbasg27
I349
sbasg7
g476
sg67
Nsba(i__main__
Chain
p501
(dp502
g3
(lp503
(i__main__
Mention
p504
(dp505
g7
S't15'
p506
sg9
Nsg10
S'i39'
p507
sg12
Nsg13
Nsg14
(lp508
(i__main__
Token
p509
(dp510
g18
I219
sba(i__main__
Token
p511
(dp512
g18
I220
sba(i__main__
Token
p513
(dp514
g18
I221
sbasg27
I220
sba(i__main__
Mention
p515
(dp516
g7
S't15'
p517
sg9
S'Anaphora-C'
p518
sg10
S'i40'
p519
sg12
S'i39'
p520
sg13
Nsg14
(lp521
(i__main__
Token
p522
(dp523
g18
I225
sbasg27
I225
sbasg7
g506
sg67
Nsba(i__main__
Chain
p524
(dp525
g3
(lp526
(i__main__
Mention
p527
(dp528
g7
S't16'
p529
sg9
Nsg10
S'i41'
p530
sg12
Nsg13
Nsg14
(lp531
(i__main__
Token
p532
(dp533
g18
I240
sbasg27
I240
sbasg7
g529
sg67
Nsba(i__main__
Chain
p534
(dp535
g3
(lp536
(i__main__
Mention
p537
(dp538
g7
S't17'
p539
sg9
Nsg10
S'i44'
p540
sg12
Nsg13
Nsg14
(lp541
(i__main__
Token
p542
(dp543
g18
I257
sbasg27
I257
sba(i__main__
Mention
p544
(dp545
g7
S't17'
p546
sg9
S'Coreference-Identity'
p547
sg10
S'i48'
p548
sg12
S'i44'
p549
sg13
Nsg14
(lp550
(i__main__
Token
p551
(dp552
g18
I285
sba(i__main__
Token
p553
(dp554
g18
I286
sbasg27
I286
sbasg7
g539
sg67
Nsba(i__main__
Chain
p555
(dp556
g3
(lp557
(i__main__
Mention
p558
(dp559
g7
S't18'
p560
sg9
Nsg10
S'i46'
p561
sg12
Nsg13
Nsg14
(lp562
(i__main__
Token
p563
(dp564
g18
I270
sbasg27
I270
sbasg7
g560
sg67
Nsba(i__main__
Chain
p565
(dp566
g3
(lp567
(i__main__
Mention
p568
(dp569
g7
S't19'
p570
sg9
Nsg10
S'i49'
p571
sg12
Nsg13
Nsg14
(lp572
(i__main__
Token
p573
(dp574
g18
I297
sba(i__main__
Token
p575
(dp576
g18
I298
sba(i__main__
Token
p577
(dp578
g18
I299
sbasg27
I299
sba(i__main__
Mention
p579
(dp580
g7
S't19'
p581
sg9
S'Coreference-Identity'
p582
sg10
S'i50'
p583
sg12
S'i49'
p584
sg13
Nsg14
(lp585
(i__main__
Token
p586
(dp587
g18
I304
sba(i__main__
Token
p588
(dp589
g18
I305
sbasg27
I305
sba(i__main__
Mention
p590
(dp591
g7
S't19'
p592
sg9
S'Anaphora-C'
p593
sg10
S'i51'
p594
sg12
S'i50'
p595
sg13
Nsg14
(lp596
(i__main__
Token
p597
(dp598
g18
I318
sbasg27
I318
sba(i__main__
Mention
p599
(dp600
g7
S't19'
p601
sg9
S'Anaphora-C'
p602
sg10
S'i52'
p603
sg12
S'i51'
p604
sg13
Nsg14
(lp605
(i__main__
Token
p606
(dp607
g18
I334
sbasg27
I334
sba(i__main__
Mention
p608
(dp609
g7
S't19'
p610
sg9
S'Coreference-Identity'
p611
sg10
S'i54'
p612
sg12
S'i52'
p613
sg13
Nsg14
(lp614
(i__main__
Token
p615
(dp616
g18
I343
sba(i__main__
Token
p617
(dp618
g18
I344
sbasg27
I344
sbasg7
g570
sg67
Nsba(i__main__
Chain
p619
(dp620
g3
(lp621
(i__main__
Mention
p622
(dp623
g7
S't20'
p624
sg9
Nsg10
S'i56'
p625
sg12
Nsg13
Nsg14
(lp626
(i__main__
Token
p627
(dp628
g18
I351
sbasg27
I351
sbasg7
g624
sg67
Nsba.