(lp0
(i__main__
Chain
p1
(dp2
S'mentionList'
p3
(lp4
(i__main__
Mention
p5
(dp6
S'chainId'
p7
S't1'
p8
sS'relType'
p9
NsS'mentionId'
p10
S'i1'
p11
sS'antecedentId'
p12
NsS'crefMod'
p13
NsS'tokenList'
p14
(lp15
(i__main__
Token
p16
(dp17
S'tokenId'
p18
I0
sba(i__main__
Token
p19
(dp20
g18
I1
sba(i__main__
Token
p21
(dp22
g18
I2
sbasS'mentionHead'
p23
I2
sba(i__main__
Mention
p24
(dp25
g7
S't1'
p26
sg9
S'Coreference-Identity'
p27
sg10
S'i42'
p28
sg12
S'i1'
p29
sg13
Nsg14
(lp30
(i__main__
Token
p31
(dp32
g18
I230
sbasg23
I230
sba(i__main__
Mention
p33
(dp34
g7
S't1'
p35
sg9
S'Coreference-Identity'
p36
sg10
S'i57'
p37
sg12
S'i42'
p38
sg13
Nsg14
(lp39
(i__main__
Token
p40
(dp41
g18
I334
sbasg23
I334
sba(i__main__
Mention
p42
(dp43
g7
S't1'
p44
sg9
S'Coreference-Identity'
p45
sg10
S'i60'
p46
sg12
S'i57'
p47
sg13
Nsg14
(lp48
(i__main__
Token
p49
(dp50
g18
I350
sbasg23
I350
sba(i__main__
Mention
p51
(dp52
g7
S't1'
p53
sg9
S'Anaphora-C'
p54
sg10
S'i62'
p55
sg12
S'i60'
p56
sg13
Nsg14
(lp57
(i__main__
Token
p58
(dp59
g18
I361
sbasg23
I361
sba(i__main__
Mention
p60
(dp61
g7
S't1'
p62
sg9
S'Coreference-Identity'
p63
sg10
S'i64'
p64
sg12
S'i62'
p65
sg13
Nsg14
(lp66
(i__main__
Token
p67
(dp68
g18
I378
sbasg23
I378
sbasg7
g8
sS'chainHead'
p69
Nsba(i__main__
Chain
p70
(dp71
g3
(lp72
(i__main__
Mention
p73
(dp74
g7
S't2'
p75
sg9
Nsg10
S'i2'
p76
sg12
Nsg13
Nsg14
(lp77
(i__main__
Token
p78
(dp79
g18
I4
sba(i__main__
Token
p80
(dp81
g18
I5
sbasg23
I5
sba(i__main__
Mention
p82
(dp83
g7
S't2'
p84
sg9
S'Coreference-NounComplement'
p85
sg10
S'i3'
p86
sg12
S'i2'
p87
sg13
Nsg14
(lp88
(i__main__
Token
p89
(dp90
g18
I6
sba(i__main__
Token
p91
(dp92
g18
I7
sba(i__main__
Token
p93
(dp94
g18
I8
sbasg23
I8
sba(i__main__
Mention
p95
(dp96
g7
S't2'
p97
sg9
S'Anaphora-C'
p98
sg10
S'i5'
p99
sg12
S'i3'
p100
sg13
Nsg14
(lp101
(i__main__
Token
p102
(dp103
g18
I18
sbasg23
I18
sba(i__main__
Mention
p104
(dp105
g7
S't2'
p106
sg9
S'Anaphora-C'
p107
sg10
S'i10'
p108
sg12
S'i5'
p109
sg13
Nsg14
(lp110
(i__main__
Token
p111
(dp112
g18
I46
sbasg23
I46
sba(i__main__
Mention
p113
(dp114
g7
S't2'
p115
sg9
S'Coreference-Identity'
p116
sg10
S'i11'
p117
sg12
S'i43'
p118
sg13
Nsg14
(lp119
(i__main__
Token
p120
(dp121
g18
I61
sba(i__main__
Token
p122
(dp123
g18
I62
sba(i__main__
Token
p124
(dp125
g18
I63
sba(i__main__
Token
p126
(dp127
g18
I64
sba(i__main__
Token
p128
(dp129
g18
I65
sba(i__main__
Token
p130
(dp131
g18
I66
sba(i__main__
Token
p132
(dp133
g18
I67
sbasg23
I67
sba(i__main__
Mention
p134
(dp135
g7
S't2'
p136
sg9
S'Anaphora-C'
p137
sg10
S'i13'
p138
sg12
S'i11'
p139
sg13
Nsg14
(lp140
(i__main__
Token
p141
(dp142
g18
I80
sbasg23
I80
sba(i__main__
Mention
p143
(dp144
g7
S't2'
p145
sg9
S'Anaphora-C'
p146
sg10
S'i17'
p147
sg12
S'i13'
p148
sg13
Nsg14
(lp149
(i__main__
Token
p150
(dp151
g18
I100
sbasg23
I100
sba(i__main__
Mention
p152
(dp153
g7
S't2'
p154
sg9
S'Anaphora-C'
p155
sg10
S'i22'
p156
sg12
S'i17'
p157
sg13
Nsg14
(lp158
(i__main__
Token
p159
(dp160
g18
I131
sbasg23
I131
sba(i__main__
Mention
p161
(dp162
g7
S't2'
p163
sg9
S'Coreference-Identity'
p164
sg10
S'i23'
p165
sg12
S'i22'
p166
sg13
Nsg14
(lp167
(i__main__
Token
p168
(dp169
g18
I137
sbasg23
I137
sba(i__main__
Mention
p170
(dp171
g7
S't2'
p172
sg9
S'Anaphora-C'
p173
sg10
S'i27'
p174
sg12
S'i23'
p175
sg13
Nsg14
(lp176
(i__main__
Token
p177
(dp178
g18
I163
sbasg23
I163
sba(i__main__
Mention
p179
(dp180
g7
S't2'
p181
sg9
S'Coreference-Identity'
p182
sg10
S'i32'
p183
sg12
S'i27'
p184
sg13
Nsg14
(lp185
(i__main__
Token
p186
(dp187
g18
I188
sbasg23
I188
sba(i__main__
Mention
p188
(dp189
g7
S't2'
p190
sg9
S'Anaphora-C'
p191
sg10
S'i35'
p192
sg12
S'i32'
p193
sg13
Nsg14
(lp194
(i__main__
Token
p195
(dp196
g18
I198
sbasg23
I198
sba(i__main__
Mention
p197
(dp198
g7
S't2'
p199
sg9
S'Anaphora-C'
p200
sg10
S'i37'
p201
sg12
S'i35'
p202
sg13
Nsg14
(lp203
(i__main__
Token
p204
(dp205
g18
I206
sbasg23
I206
sba(i__main__
Mention
p206
(dp207
g7
S't2'
p208
sg9
S'Coreference-Noun-Noun'
p209
sg10
S'i38'
p210
sg12
S'i37'
p211
sg13
Nsg14
(lp212
(i__main__
Token
p213
(dp214
g18
I216
sba(i__main__
Token
p215
(dp216
g18
I217
sbasg23
I217
sba(i__main__
Mention
p217
(dp218
g7
S't2'
p219
sg9
S'Anaphora-C'
p220
sg10
S'i40'
p221
sg12
S'i38'
p222
sg13
Nsg14
(lp223
(i__main__
Token
p224
(dp225
g18
I220
sbasg23
I220
sba(i__main__
Mention
p226
(dp227
g7
S't2'
p228
sg9
S'Anaphora-C'
p229
sg10
S'i41'
p230
sg12
S'i40'
p231
sg13
Nsg14
(lp232
(i__main__
Token
p233
(dp234
g18
I226
sbasg23
I226
sba(i__main__
Mention
p235
(dp236
g7
S't2'
p237
sg9
S'Anaphora-C'
p238
sg10
S'i44'
p239
sg12
S'i41'
p240
sg13
Nsg14
(lp241
(i__main__
Token
p242
(dp243
g18
I247
sbasg23
I247
sba(i__main__
Mention
p244
(dp245
g7
S't2'
p246
sg9
S'Coreference-Noun-Noun'
p247
sg10
S'i45'
p248
sg12
S'i44'
p249
sg13
Nsg14
(lp250
(i__main__
Token
p251
(dp252
g18
I253
sbasg23
I253
sba(i__main__
Mention
p253
(dp254
g7
S't2'
p255
sg9
S'Coreference-Identity'
p256
sg10
S'i59'
p257
sg12
S'i45'
p258
sg13
Nsg14
(lp259
(i__main__
Token
p260
(dp261
g18
I346
sbasg23
I346
sba(i__main__
Mention
p262
(dp263
g7
S't2'
p264
sg9
S'Anaphora-C'
p265
sg10
S'i67'
p266
sg12
S'i59'
p267
sg13
Nsg14
(lp268
(i__main__
Token
p269
(dp270
g18
I396
sbasg23
I396
sba(i__main__
Mention
p271
(dp272
g7
S't2'
p273
sg9
S'Anaphora-C'
p274
sg10
S'i71'
p275
sg12
S'i67'
p276
sg13
Nsg14
(lp277
(i__main__
Token
p278
(dp279
g18
I410
sbasg23
I410
sba(i__main__
Mention
p280
(dp281
g7
S't2'
p282
sg9
S'Anaphora-C'
p283
sg10
S'i72'
p284
sg12
S'i71'
p285
sg13
Nsg14
(lp286
(i__main__
Token
p287
(dp288
g18
I411
sbasg23
I411
sba(i__main__
Mention
p289
(dp290
g7
S't2'
p291
sg9
S'Coreference-Identity'
p292
sg10
S'i73'
p293
sg12
S'i72'
p294
sg13
Nsg14
(lp295
(i__main__
Token
p296
(dp297
g18
I420
sbasg23
I420
sbasg7
g75
sg69
Nsba(i__main__
Chain
p298
(dp299
g3
(lp300
(i__main__
Mention
p301
(dp302
g7
S't3'
p303
sg9
Nsg10
S'i4'
p304
sg12
Nsg13
Nsg14
(lp305
(i__main__
Token
p306
(dp307
g18
I13
sbasg23
I13
sba(i__main__
Mention
p308
(dp309
g7
S't3'
p310
sg9
S'Coreference-Identity'
p311
sg10
S'i33'
p312
sg12
S'i4'
p313
sg13
Nsg14
(lp314
(i__main__
Token
p315
(dp316
g18
I193
sbasg23
I193
sba(i__main__
Mention
p317
(dp318
g7
S't3'
p319
sg9
S'Coreference-Identity'
p320
sg10
S'i46'
p321
sg12
S'i33'
p322
sg13
Nsg14
(lp323
(i__main__
Token
p324
(dp325
g18
I263
sbasg23
I263
sba(i__main__
Mention
p326
(dp327
g7
S't3'
p328
sg9
S'Coreference-Identity'
p329
sg10
S'i48'
p330
sg12
S'i46'
p331
sg13
Nsg14
(lp332
(i__main__
Token
p333
(dp334
g18
I275
sbasg23
I275
sba(i__main__
Mention
p335
(dp336
g7
S't3'
p337
sg9
S'Coreference-Identity'
p338
sg10
S'i53'
p339
sg12
S'i48'
p340
sg13
Nsg14
(lp341
(i__main__
Token
p342
(dp343
g18
I313
sbasg23
I313
sbasg7
g303
sg69
Nsba(i__main__
Chain
p344
(dp345
g3
(lp346
(i__main__
Mention
p347
(dp348
g7
S't4'
p349
sg9
Nsg10
S'i6'
p350
sg12
Nsg13
Nsg14
(lp351
(i__main__
Token
p352
(dp353
g18
I26
sba(i__main__
Token
p354
(dp355
g18
I27
sbasg23
I27
sba(i__main__
Mention
p356
(dp357
g7
S't4'
p358
sg9
S'Anaphora-C'
p359
sg10
S'i8'
p360
sg12
S'i6'
p361
sg13
Nsg14
(lp362
(i__main__
Token
p363
(dp364
g18
I39
sbasg23
I39
sba(i__main__
Mention
p365
(dp366
g7
S't4'
p367
sg9
S'Coreference-Identity'
p368
sg10
S'i24'
p369
sg12
S'i42'
p370
sg13
Nsg14
(lp371
(i__main__
Token
p372
(dp373
g18
I148
sba(i__main__
Token
p374
(dp375
g18
I149
sba(i__main__
Token
p376
(dp377
g18
I151
sbasg23
I151
sba(i__main__
Mention
p378
(dp379
g7
S't4'
p380
sg9
S'Coreference-Identity'
p381
sg10
S'i28'
p382
sg12
S'i82'
p383
sg13
Nsg14
(lp384
(i__main__
Token
p385
(dp386
g18
I167
sba(i__main__
Token
p387
(dp388
g18
I168
sba(i__main__
Token
p389
(dp390
g18
I170
sbasg23
I170
sba(i__main__
Mention
p391
(dp392
g7
S't4'
p393
sg9
S'Anaphora-C'
p394
sg10
S'i31'
p395
sg12
S'i28'
p396
sg13
Nsg14
(lp397
(i__main__
Token
p398
(dp399
g18
I182
sbasg23
I182
sbasg7
g349
sg69
Nsba(i__main__
Chain
p400
(dp401
g3
(lp402
(i__main__
Mention
p403
(dp404
g7
S't5'
p405
sg9
Nsg10
S'i7'
p406
sg12
Nsg13
Nsg14
(lp407
(i__main__
Token
p408
(dp409
g18
I29
sba(i__main__
Token
p410
(dp411
g18
I30
sba(i__main__
Token
p412
(dp413
g18
I31
sba(i__main__
Token
p414
(dp415
g18
I32
sbasg23
I32
sba(i__main__
Mention
p416
(dp417
g7
S't5'
p418
sg9
S'Coreference-Identity'
p419
sg10
S'i26'
p420
sg12
S'i7'
p421
sg13
Nsg14
(lp422
(i__main__
Token
p423
(dp424
g18
I153
sba(i__main__
Token
p425
(dp426
g18
I154
sba(i__main__
Token
p427
(dp428
g18
I155
sbasg23
I155
sbasg7
g405
sg69
Nsba(i__main__
Chain
p429
(dp430
g3
(lp431
(i__main__
Mention
p432
(dp433
g7
S't6'
p434
sg9
Nsg10
S'i9'
p435
sg12
Nsg13
Nsg14
(lp436
(i__main__
Token
p437
(dp438
g18
I41
sbasg23
I41
sba(i__main__
Mention
p439
(dp440
g7
S't6'
p441
sg9
S'Coreference-Identity'
p442
sg10
S'i30'
p443
sg12
S'i9'
p444
sg13
Nsg14
(lp445
(i__main__
Token
p446
(dp447
g18
I173
sbasg23
I173
sba(i__main__
Mention
p448
(dp449
g7
S't6'
p450
sg9
S'Coreference-Identity'
p451
sg10
S'i43'
p452
sg12
S'i30'
p453
sg13
Nsg14
(lp454
(i__main__
Token
p455
(dp456
g18
I241
sbasg23
I241
sba(i__main__
Mention
p457
(dp458
g7
S't6'
p459
sg9
S'Coreference-Identity'
p460
sg10
S'i47'
p461
sg12
S'i43'
p462
sg13
Nsg14
(lp463
(i__main__
Token
p464
(dp465
g18
I265
sbasg23
I265
sba(i__main__
Mention
p466
(dp467
g7
S't6'
p468
sg9
S'Coreference-Identity'
p469
sg10
S'i49'
p470
sg12
S'i47'
p471
sg13
Nsg14
(lp472
(i__main__
Token
p473
(dp474
g18
I277
sbasg23
I277
sba(i__main__
Mention
p475
(dp476
g7
S't6'
p477
sg9
S'Coreference-Identity'
p478
sg10
S'i50'
p479
sg12
S'i49'
p480
sg13
Nsg14
(lp481
(i__main__
Token
p482
(dp483
g18
I286
sbasg23
I286
sba(i__main__
Mention
p484
(dp485
g7
S't6'
p486
sg9
S'Anaphora-C'
p487
sg10
S'i51'
p488
sg12
S'i50'
p489
sg13
Nsg14
(lp490
(i__main__
Token
p491
(dp492
g18
I300
sbasg23
I300
sba(i__main__
Mention
p493
(dp494
g7
S't6'
p495
sg9
S'Coreference-Identity'
p496
sg10
S'i54'
p497
sg12
S'i51'
p498
sg13
Nsg14
(lp499
(i__main__
Token
p500
(dp501
g18
I319
sbasg23
I319
sba(i__main__
Mention
p502
(dp503
g7
S't6'
p504
sg9
S'Coreference-Identity'
p505
sg10
S'i56'
p506
sg12
S'i54'
p507
sg13
Nsg14
(lp508
(i__main__
Token
p509
(dp510
g18
I328
sbasg23
I328
sbasg7
g434
sg69
Nsba(i__main__
Chain
p511
(dp512
g3
(lp513
(i__main__
Mention
p514
(dp515
g7
S't7'
p516
sg9
Nsg10
S'i14'
p517
sg12
Nsg13
Nsg14
(lp518
(i__main__
Token
p519
(dp520
g18
I81
sba(i__main__
Token
p521
(dp522
g18
I82
sbasg23
I82
sba(i__main__
Mention
p523
(dp524
g7
S't7'
p525
sg9
S'Anaphora-C'
p526
sg10
S'i15'
p527
sg12
S'i14'
p528
sg13
Nsg14
(lp529
(i__main__
Token
p530
(dp531
g18
I88
sbasg23
I88
sbasg7
g516
sg69
Nsba(i__main__
Chain
p532
(dp533
g3
(lp534
(i__main__
Mention
p535
(dp536
g7
S't8'
p537
sg9
Nsg10
S'i16'
p538
sg12
Nsg13
Nsg14
(lp539
(i__main__
Token
p540
(dp541
g18
I93
sbasg23
I93
sbasg7
g537
sg69
Nsba(i__main__
Chain
p542
(dp543
g3
(lp544
(i__main__
Mention
p545
(dp546
g7
S't9'
p547
sg9
Nsg10
S'i18'
p548
sg12
Nsg13
Nsg14
(lp549
(i__main__
Token
p550
(dp551
g18
I102
sba(i__main__
Token
p552
(dp553
g18
I103
sba(i__main__
Token
p554
(dp555
g18
I104
sba(i__main__
Token
p556
(dp557
g18
I105
sba(i__main__
Token
p558
(dp559
g18
I106
sba(i__main__
Token
p560
(dp561
g18
I107
sba(i__main__
Token
p562
(dp563
g18
I108
sba(i__main__
Token
p564
(dp565
g18
I109
sba(i__main__
Token
p566
(dp567
g18
I110
sba(i__main__
Token
p568
(dp569
g18
I111
sbasg23
I110
sba(i__main__
Mention
p570
(dp571
g7
S't9'
p572
sg9
S'Anaphora-C'
p573
sg10
S'i19'
p574
sg12
S'i18'
p575
sg13
Nsg14
(lp576
(i__main__
Token
p577
(dp578
g18
I113
sbasg23
I113
sbasg7
g547
sg69
Nsba(i__main__
Chain
p579
(dp580
g3
(lp581
(i__main__
Mention
p582
(dp583
g7
S't10'
p584
sg9
Nsg10
S'i20'
p585
sg12
Nsg13
Nsg14
(lp586
(i__main__
Token
p587
(dp588
g18
I125
sbasg23
I125
sba(i__main__
Mention
p589
(dp590
g7
S't10'
p591
sg9
S'Anaphora-RC'
p592
sg10
S'i21'
p593
sg12
S'i20'
p594
sg13
Nsg14
(lp595
(i__main__
Token
p596
(dp597
g18
I130
sba(i__main__
Token
p598
(dp599
g18
I131
sba(i__main__
Token
p600
(dp601
g18
I132
sba(i__main__
Token
p602
(dp603
g18
I133
sba(i__main__
Token
p604
(dp605
g18
I134
sba(i__main__
Token
p606
(dp607
g18
I135
sbasg23
I135
sbasg7
g584
sg69
Nsba(i__main__
Chain
p608
(dp609
g3
(lp610
(i__main__
Mention
p611
(dp612
g7
S't11'
p613
sg9
Nsg10
S'i34'
p614
sg12
Nsg13
Nsg14
(lp615
(i__main__
Token
p616
(dp617
g18
I193
sba(i__main__
Token
p618
(dp619
g18
I194
sba(i__main__
Token
p620
(dp621
g18
I195
sba(i__main__
Token
p622
(dp623
g18
I196
sba(i__main__
Token
p624
(dp625
g18
I197
sbasg23
I197
sba(i__main__
Mention
p626
(dp627
g7
S't11'
p628
sg9
S'Anaphora-C'
p629
sg10
S'i36'
p630
sg12
S'i34'
p631
sg13
Nsg14
(lp632
(i__main__
Token
p633
(dp634
g18
I204
sbasg23
I204
sbasg7
g613
sg69
Nsba(i__main__
Chain
p635
(dp636
g3
(lp637
(i__main__
Mention
p638
(dp639
g7
S't12'
p640
sg9
Nsg10
S'i39'
p641
sg12
Nsg13
Nsg14
(lp642
(i__main__
Token
p643
(dp644
g18
I218
sbasg23
I218
sba(i__main__
Mention
p645
(dp646
g7
S't12'
p647
sg9
S'Coreference-Identity'
p648
sg10
S'i55'
p649
sg12
S'i39'
p650
sg13
Nsg14
(lp651
(i__main__
Token
p652
(dp653
g18
I321
sbasg23
I321
sbasg7
g640
sg69
Nsba(i__main__
Chain
p654
(dp655
g3
(lp656
(i__main__
Mention
p657
(dp658
g7
S't13'
p659
sg9
Nsg10
S'i52'
p660
sg12
Nsg13
Nsg14
(lp661
(i__main__
Token
p662
(dp663
g18
I311
sbasg23
I311
sbasg7
g659
sg69
Nsba(i__main__
Chain
p664
(dp665
g3
(lp666
(i__main__
Mention
p667
(dp668
g7
S't14'
p669
sg9
Nsg10
S'i58'
p670
sg12
Nsg13
Nsg14
(lp671
(i__main__
Token
p672
(dp673
g18
I334
sba(i__main__
Token
p674
(dp675
g18
I335
sba(i__main__
Token
p676
(dp677
g18
I336
sba(i__main__
Token
p678
(dp679
g18
I337
sba(i__main__
Token
p680
(dp681
g18
I338
sbasg23
I338
sba(i__main__
Mention
p682
(dp683
g7
S't14'
p684
sg9
S'Anaphora-C'
p685
sg10
S'i65'
p686
sg12
S'i58'
p687
sg13
Nsg14
(lp688
(i__main__
Token
p689
(dp690
g18
I380
sbasg23
I380
sbasg7
g669
sg69
Nsba(i__main__
Chain
p691
(dp692
g3
(lp693
(i__main__
Mention
p694
(dp695
g7
S't15'
p696
sg9
Nsg10
S'i61'
p697
sg12
Nsg13
Nsg14
(lp698
(i__main__
Token
p699
(dp700
g18
I353
sbasg23
I353
sbasg7
g696
sg69
Nsba(i__main__
Chain
p701
(dp702
g3
(lp703
(i__main__
Mention
p704
(dp705
g7
S't16'
p706
sg9
Nsg10
S'i63'
p707
sg12
Nsg13
Nsg14
(lp708
(i__main__
Token
p709
(dp710
g18
I376
sbasg23
I376
sbasg7
g706
sg69
Nsba(i__main__
Chain
p711
(dp712
g3
(lp713
(i__main__
Mention
p714
(dp715
g7
S't17'
p716
sg9
Nsg10
S'i66'
p717
sg12
Nsg13
Nsg14
(lp718
(i__main__
Token
p719
(dp720
g18
I381
sbasg23
I381
sbasg7
g716
sg69
Nsba(i__main__
Chain
p721
(dp722
g3
(lp723
(i__main__
Mention
p724
(dp725
g7
S't18'
p726
sg9
Nsg10
S'i68'
p727
sg12
Nsg13
Nsg14
(lp728
(i__main__
Token
p729
(dp730
g18
I399
sbasg23
I399
sbasg7
g726
sg69
Nsba(i__main__
Chain
p731
(dp732
g3
(lp733
(i__main__
Mention
p734
(dp735
g7
S't19'
p736
sg9
Nsg10
S'i69'
p737
sg12
Nsg13
Nsg14
(lp738
(i__main__
Token
p739
(dp740
g18
I400
sbasg23
I400
sbasg7
g736
sg69
Nsba(i__main__
Chain
p741
(dp742
g3
(lp743
(i__main__
Mention
p744
(dp745
g7
S't20'
p746
sg9
Nsg10
S'i70'
p747
sg12
Nsg13
Nsg14
(lp748
(i__main__
Token
p749
(dp750
g18
I403
sbasg23
I403
sbasg7
g746
sg69
Nsba(i__main__
Chain
p751
(dp752
g3
(lp753
(i__main__
Mention
p754
(dp755
g7
S't21'
p756
sg9
Nsg10
S'i74'
p757
sg12
Nsg13
Nsg14
(lp758
(i__main__
Token
p759
(dp760
g18
I424
sbasg23
I424
sbasg7
g756
sg69
Nsba(i__main__
Chain
p761
(dp762
g3
(lp763
(i__main__
Mention
p764
(dp765
g7
S't22'
p766
sg9
Nsg10
S'i75'
p767
sg12
Nsg13
Nsg14
(lp768
(i__main__
Token
p769
(dp770
g18
I427
sbasg23
I427
sbasg7
g766
sg69
Nsba.