(lp0
(i__main__
Chain
p1
(dp2
S'mentionList'
p3
(lp4
(i__main__
Mention
p5
(dp6
S'chainId'
p7
S't1'
p8
sS'relType'
p9
NsS'mentionId'
p10
S'i1'
p11
sS'antecedentId'
p12
NsS'crefMod'
p13
NsS'tokenList'
p14
(lp15
(i__main__
Token
p16
(dp17
S'tokenId'
p18
I0
sbasS'mentionHead'
p19
I0
sba(i__main__
Mention
p20
(dp21
g7
S't1'
p22
sg9
S'Coreference-Identity'
p23
sg10
S'i7'
p24
sg12
S'i1'
p25
sg13
Nsg14
(lp26
(i__main__
Token
p27
(dp28
g18
I45
sbasg19
I45
sba(i__main__
Mention
p29
(dp30
g7
S't1'
p31
sg9
S'Anaphora-C'
p32
sg10
S'i11'
p33
sg12
S'i7'
p34
sg13
Nsg14
(lp35
(i__main__
Token
p36
(dp37
g18
I58
sbasg19
I58
sba(i__main__
Mention
p38
(dp39
g7
S't1'
p40
sg9
S'Coreference-Identity'
p41
sg10
S'i20'
p42
sg12
S'i11'
p43
sg13
Nsg14
(lp44
(i__main__
Token
p45
(dp46
g18
I110
sbasg19
I110
sbasg7
g8
sS'chainHead'
p47
Nsba(i__main__
Chain
p48
(dp49
g3
(lp50
(i__main__
Mention
p51
(dp52
g7
S't2'
p53
sg9
Nsg10
S'i2'
p54
sg12
Nsg13
Nsg14
(lp55
(i__main__
Token
p56
(dp57
g18
I1
sbasg19
I1
sba(i__main__
Mention
p58
(dp59
g7
S't2'
p60
sg9
S'Anaphora-C'
p61
sg10
S'i4'
p62
sg12
S'i2'
p63
sg13
Nsg14
(lp64
(i__main__
Token
p65
(dp66
g18
I27
sbasg19
I27
sba(i__main__
Mention
p67
(dp68
g7
S't2'
p69
sg9
S'Coreference-Identity'
p70
sg10
S'i6'
p71
sg12
S'i4'
p72
sg13
Nsg14
(lp73
(i__main__
Token
p74
(dp75
g18
I35
sbasg19
I35
sba(i__main__
Mention
p76
(dp77
g7
S't2'
p78
sg9
S'Coreference-Identity'
p79
sg10
S'i9'
p80
sg12
S'i6'
p81
sg13
Nsg14
(lp82
(i__main__
Token
p83
(dp84
g18
I51
sbasg19
I51
sba(i__main__
Mention
p85
(dp86
g7
S't2'
p87
sg9
S'Coreference-Noun-Noun'
p88
sg10
S'i17'
p89
sg12
S'i9'
p90
sg13
Nsg14
(lp91
(i__main__
Token
p92
(dp93
g18
I88
sba(i__main__
Token
p94
(dp95
g18
I89
sbasg19
I89
sbasg7
g53
sg47
Nsba(i__main__
Chain
p96
(dp97
g3
(lp98
(i__main__
Mention
p99
(dp100
g7
S't3'
p101
sg9
Nsg10
S'i3'
p102
sg12
Nsg13
Nsg14
(lp103
(i__main__
Token
p104
(dp105
g18
I18
sba(i__main__
Token
p106
(dp107
g18
I19
sbasg19
I19
sba(i__main__
Mention
p108
(dp109
g7
S't3'
p110
sg9
S'Coreference-Identity'
p111
sg10
S'i18'
p112
sg12
S'i3'
p113
sg13
Nsg14
(lp114
(i__main__
Token
p115
(dp116
g18
I105
sba(i__main__
Token
p117
(dp118
g18
I106
sbasg19
I106
sbasg7
g101
sg47
Nsba(i__main__
Chain
p119
(dp120
g3
(lp121
(i__main__
Mention
p122
(dp123
g7
S't4'
p124
sg9
Nsg10
S'i5'
p125
sg12
Nsg13
Nsg14
(lp126
(i__main__
Token
p127
(dp128
g18
I39
sba(i__main__
Token
p129
(dp130
g18
I40
sba(i__main__
Token
p131
(dp132
g18
I41
sbasg19
I41
sba(i__main__
Mention
p133
(dp134
g7
S't4'
p135
sg9
S'Anaphora-C'
p136
sg10
S'i13'
p137
sg12
S'i5'
p138
sg13
Nsg14
(lp139
(i__main__
Token
p140
(dp141
g18
I68
sbasg19
I68
sba(i__main__
Mention
p142
(dp143
g7
S't4'
p144
sg9
S'Anaphora-C'
p145
sg10
S'i16'
p146
sg12
S'i13'
p147
sg13
Nsg14
(lp148
(i__main__
Token
p149
(dp150
g18
I85
sbasg19
I85
sbasg7
g124
sg47
Nsba(i__main__
Chain
p151
(dp152
g3
(lp153
(i__main__
Mention
p154
(dp155
g7
S't5'
p156
sg9
Nsg10
S'i8'
p157
sg12
Nsg13
Nsg14
(lp158
(i__main__
Token
p159
(dp160
g18
I45
sba(i__main__
Token
p161
(dp162
g18
I46
sba(i__main__
Token
p163
(dp164
g18
I47
sba(i__main__
Token
p165
(dp166
g18
I48
sba(i__main__
Token
p167
(dp168
g18
I49
sba(i__main__
Token
p169
(dp170
g18
I50
sba(i__main__
Token
p171
(dp172
g18
I51
sba(i__main__
Token
p173
(dp174
g18
I52
sba(i__main__
Token
p175
(dp176
g18
I53
sba(i__main__
Token
p177
(dp178
g18
I54
sba(i__main__
Token
p179
(dp180
g18
I55
sba(i__main__
Token
p181
(dp182
g18
I56
sba(i__main__
Token
p183
(dp184
g18
I57
sba(i__main__
Token
p185
(dp186
g18
I58
sba(i__main__
Token
p187
(dp188
g18
I59
sba(i__main__
Token
p189
(dp190
g18
I60
sba(i__main__
Token
p191
(dp192
g18
I61
sba(i__main__
Token
p193
(dp194
g18
I62
sba(i__main__
Token
p195
(dp196
g18
I63
sba(i__main__
Token
p197
(dp198
g18
I64
sbasg19
I62
sba(i__main__
Mention
p199
(dp200
g7
S't5'
p201
sg9
S'Coreference-Noun-Noun'
p202
sg10
S'i12'
p203
sg12
S'i8'
p204
sg13
Nsg14
(lp205
(i__main__
Token
p206
(dp207
g18
I66
sba(i__main__
Token
p208
(dp209
g18
I67
sbasg19
I67
sbasg7
g156
sg47
Nsba(i__main__
Chain
p210
(dp211
g3
(lp212
(i__main__
Mention
p213
(dp214
g7
S't6'
p215
sg9
Nsg10
S'i10'
p216
sg12
Nsg13
Nsg14
(lp217
(i__main__
Token
p218
(dp219
g18
I56
sbasg19
I56
sba(i__main__
Mention
p220
(dp221
g7
S't6'
p222
sg9
S'Coreference-Identity'
p223
sg10
S'i15'
p224
sg12
S'i10'
p225
sg13
Nsg14
(lp226
(i__main__
Token
p227
(dp228
g18
I74
sbasg19
I74
sbasg7
g215
sg47
Nsba(i__main__
Chain
p229
(dp230
g3
(lp231
(i__main__
Mention
p232
(dp233
g7
S't7'
p234
sg9
S'anaphora-?'
p235
sg10
S'i14'
p236
sg12
S'i14'
p237
sg13
Nsg14
(lp238
(i__main__
Token
p239
(dp240
g18
I69
sbasg19
I69
sbasg7
g234
sg47
Nsba(i__main__
Chain
p241
(dp242
g3
(lp243
(i__main__
Mention
p244
(dp245
g7
S't8'
p246
sg9
Nsg10
S'i19'
p247
sg12
Nsg13
Nsg14
(lp248
(i__main__
Token
p249
(dp250
g18
I105
sba(i__main__
Token
p251
(dp252
g18
I106
sba(i__main__
Token
p253
(dp254
g18
I107
sba(i__main__
Token
p255
(dp256
g18
I108
sba(i__main__
Token
p257
(dp258
g18
I109
sba(i__main__
Token
p259
(dp260
g18
I110
sba(i__main__
Token
p261
(dp262
g18
I111
sba(i__main__
Token
p263
(dp264
g18
I112
sba(i__main__
Token
p265
(dp266
g18
I113
sba(i__main__
Token
p267
(dp268
g18
I114
sba(i__main__
Token
p269
(dp270
g18
I115
sba(i__main__
Token
p271
(dp272
g18
I116
sba(i__main__
Token
p273
(dp274
g18
I117
sba(i__main__
Token
p275
(dp276
g18
I118
sba(i__main__
Token
p277
(dp278
g18
I119
sba(i__main__
Token
p279
(dp280
g18
I120
sba(i__main__
Token
p281
(dp282
g18
I121
sbasg19
I120
sba(i__main__
Mention
p283
(dp284
g7
S't8'
p285
sg9
S'Anaphora-E'
p286
sg10
S'i24'
p287
sg12
S'i19'
p288
sg13
Nsg14
(lp289
(i__main__
Token
p290
(dp291
g18
I123
sbasg19
I123
sbasg7
g246
sg47
Nsba(i__main__
Chain
p292
(dp293
g3
(lp294
(i__main__
Mention
p295
(dp296
g7
S't9'
p297
sg9
Nsg10
S'i21'
p298
sg12
Nsg13
Nsg14
(lp299
(i__main__
Token
p300
(dp301
g18
I113
sbasg19
I113
sba(i__main__
Mention
p302
(dp303
g7
S't9'
p304
sg9
S'Coreference-RAbbreviation'
p305
sg10
S'i23'
p306
sg12
S'i21'
p307
sg13
Nsg14
(lp308
(i__main__
Token
p309
(dp310
g18
I115
sba(i__main__
Token
p311
(dp312
g18
I116
sba(i__main__
Token
p313
(dp314
g18
I117
sbasg19
I117
sba(i__main__
Mention
p315
(dp316
g7
S't9'
p317
sg9
S'Coreference-Abbreviation'
p318
sg10
S'i26'
p319
sg12
S'i23'
p320
sg13
Nsg14
(lp321
(i__main__
Token
p322
(dp323
g18
I145
sbasg19
I145
sbasg7
g297
sg47
Nsba(i__main__
Chain
p324
(dp325
g3
(lp326
(i__main__
Mention
p327
(dp328
g7
S't10'
p329
sg9
Nsg10
S'i22'
p330
sg12
Nsg13
Nsg14
(lp331
(i__main__
Token
p332
(dp333
g18
I113
sba(i__main__
Token
p334
(dp335
g18
I119
sbasg19
I119
sba(i__main__
Mention
p336
(dp337
g7
S't10'
p338
sg9
S'Coreference-Identity'
p339
sg10
S'i25'
p340
sg12
S'i22'
p341
sg13
Nsg14
(lp342
(i__main__
Token
p343
(dp344
g18
I133
sbasg19
I133
sba(i__main__
Mention
p345
(dp346
g7
S't10'
p347
sg9
S'Coreference-Identity'
p348
sg10
S'i27'
p349
sg12
S'i25'
p350
sg13
Nsg14
(lp351
(i__main__
Token
p352
(dp353
g18
I145
sba(i__main__
Token
p354
(dp355
g18
I146
sbasg19
I146
sbasg7
g329
sg47
Nsba.