(lp0
(i__main__
Chain
p1
(dp2
S'mentionList'
p3
(lp4
(i__main__
Mention
p5
(dp6
S'chainId'
p7
S't1'
p8
sS'relType'
p9
NsS'mentionId'
p10
S'i1'
p11
sS'antecedentId'
p12
NsS'crefMod'
p13
NsS'tokenList'
p14
(lp15
(i__main__
Token
p16
(dp17
S'tokenId'
p18
I0
sbasS'mentionHead'
p19
I0
sba(i__main__
Mention
p20
(dp21
g7
S't1'
p22
sg9
S'Coreference-Identity'
p23
sg10
S'i23'
p24
sg12
S'i1'
p25
sg13
Nsg14
(lp26
(i__main__
Token
p27
(dp28
g18
I128
sbasg19
I128
sba(i__main__
Mention
p29
(dp30
g7
S't1'
p31
sg9
S'Coreference-Identity'
p32
sg10
S'i31'
p33
sg12
S'i23'
p34
sg13
Nsg14
(lp35
(i__main__
Token
p36
(dp37
g18
I181
sbasg19
I181
sbasg7
g8
sS'chainHead'
p38
Nsba(i__main__
Chain
p39
(dp40
g3
(lp41
(i__main__
Mention
p42
(dp43
g7
S't2'
p44
sg9
Nsg10
S'i2'
p45
sg12
Nsg13
Nsg14
(lp46
(i__main__
Token
p47
(dp48
g18
I17
sbasg19
I17
sba(i__main__
Mention
p49
(dp50
g7
S't2'
p51
sg9
S'Anaphora-C'
p52
sg10
S'i4'
p53
sg12
S'i2'
p54
sg13
Nsg14
(lp55
(i__main__
Token
p56
(dp57
g18
I19
sbasg19
I19
sba(i__main__
Mention
p58
(dp59
g7
S't2'
p60
sg9
S'Coreference-Identity'
p61
sg10
S'i16'
p62
sg12
S'i4'
p63
sg13
Nsg14
(lp64
(i__main__
Token
p65
(dp66
g18
I76
sbasg19
I76
sba(i__main__
Mention
p67
(dp68
g7
S't2'
p69
sg9
S'Coreference-Identity'
p70
sg10
S'i24'
p71
sg12
S'i16'
p72
sg13
Nsg14
(lp73
(i__main__
Token
p74
(dp75
g18
I146
sbasg19
I146
sbasg7
g44
sg38
Nsba(i__main__
Chain
p76
(dp77
g3
(lp78
(i__main__
Mention
p79
(dp80
g7
S't3'
p81
sg9
Nsg10
S'i3'
p82
sg12
Nsg13
Nsg14
(lp83
(i__main__
Token
p84
(dp85
g18
I17
sba(i__main__
Token
p86
(dp87
g18
I18
sba(i__main__
Token
p88
(dp89
g18
I19
sba(i__main__
Token
p90
(dp91
g18
I20
sba(i__main__
Token
p92
(dp93
g18
I21
sba(i__main__
Token
p94
(dp95
g18
I22
sba(i__main__
Token
p96
(dp97
g18
I23
sba(i__main__
Token
p98
(dp99
g18
I24
sba(i__main__
Token
p100
(dp101
g18
I25
sba(i__main__
Token
p102
(dp103
g18
I26
sba(i__main__
Token
p104
(dp105
g18
I27
sba(i__main__
Token
p106
(dp107
g18
I28
sbasg19
I25
sba(i__main__
Mention
p108
(dp109
g7
S't3'
p110
sg9
S'Anaphora-E'
p111
sg10
S'i6'
p112
sg12
S'i3'
p113
sg13
Nsg14
(lp114
(i__main__
Token
p115
(dp116
g18
I30
sbasg19
I30
sbasg7
g81
sg38
Nsba(i__main__
Chain
p117
(dp118
g3
(lp119
(i__main__
Mention
p120
(dp121
g7
S't4'
p122
sg9
Nsg10
S'i5'
p123
sg12
Nsg13
Nsg14
(lp124
(i__main__
Token
p125
(dp126
g18
I24
sbasg19
I24
sba(i__main__
Mention
p127
(dp128
g7
S't4'
p129
sg9
S'Coreference-Identity'
p130
sg10
S'i19'
p131
sg12
S'i5'
p132
sg13
Nsg14
(lp133
(i__main__
Token
p134
(dp135
g18
I105
sbasg19
I105
sbasg7
g122
sg38
Nsba(i__main__
Chain
p136
(dp137
g3
(lp138
(i__main__
Mention
p139
(dp140
g7
S't5'
p141
sg9
Nsg10
S'i7'
p142
sg12
Nsg13
Nsg14
(lp143
(i__main__
Token
p144
(dp145
g18
I36
sbasg19
I36
sba(i__main__
Mention
p146
(dp147
g7
S't5'
p148
sg9
S'Coreference-Identity'
p149
sg10
S'i26'
p150
sg12
S'i7'
p151
sg13
Nsg14
(lp152
(i__main__
Token
p153
(dp154
g18
I156
sbasg19
I156
sbasg7
g141
sg38
Nsba(i__main__
Chain
p155
(dp156
g3
(lp157
(i__main__
Mention
p158
(dp159
g7
S't6'
p160
sg9
Nsg10
S'i8'
p161
sg12
Nsg13
Nsg14
(lp162
(i__main__
Token
p163
(dp164
g18
I41
sbasg19
I41
sba(i__main__
Mention
p165
(dp166
g7
S't6'
p167
sg9
S'Coreference-Identity'
p168
sg10
S'i11'
p169
sg12
S'i8'
p170
sg13
Nsg14
(lp171
(i__main__
Token
p172
(dp173
g18
I62
sbasg19
I62
sba(i__main__
Mention
p174
(dp175
g7
S't6'
p176
sg9
S'Coreference-Identity'
p177
sg10
S'i21'
p178
sg12
S'i11'
p179
sg13
Nsg14
(lp180
(i__main__
Token
p181
(dp182
g18
I119
sbasg19
I119
sba(i__main__
Mention
p183
(dp184
g7
S't6'
p185
sg9
S'Coreference-Identity'
p186
sg10
S'i27'
p187
sg12
S'i21'
p188
sg13
Nsg14
(lp189
(i__main__
Token
p190
(dp191
g18
I158
sbasg19
I158
sba(i__main__
Mention
p192
(dp193
g7
S't6'
p194
sg9
S'Coreference-Identity'
p195
sg10
S'i29'
p196
sg12
S'i27'
p197
sg13
Nsg14
(lp198
(i__main__
Token
p199
(dp200
g18
I165
sbasg19
I165
sbasg7
g160
sg38
Nsba(i__main__
Chain
p201
(dp202
g3
(lp203
(i__main__
Mention
p204
(dp205
g7
S't7'
p206
sg9
Nsg10
S'i9'
p207
sg12
Nsg13
Nsg14
(lp208
(i__main__
Token
p209
(dp210
g18
I43
sba(i__main__
Token
p211
(dp212
g18
I44
sba(i__main__
Token
p213
(dp214
g18
I45
sba(i__main__
Token
p215
(dp216
g18
I46
sba(i__main__
Token
p217
(dp218
g18
I47
sbasg19
I47
sba(i__main__
Mention
p219
(dp220
g7
S't7'
p221
sg9
S'Coreference-Bracketed/Abbraviation'
p222
sg10
S'i10'
p223
sg12
S'i6'
p224
sg13
Nsg14
(lp225
(i__main__
Token
p226
(dp227
g18
I49
sbasg19
I49
sba(i__main__
Mention
p228
(dp229
g7
S't7'
p230
sg9
S'Coreference-Identity'
p231
sg10
S'i22'
p232
sg12
S'i10'
p233
sg13
Nsg14
(lp234
(i__main__
Token
p235
(dp236
g18
I121
sbasg19
I121
sbasg7
g206
sg38
Nsba(i__main__
Chain
p237
(dp238
g3
(lp239
(i__main__
Mention
p240
(dp241
g7
S't8'
p242
sg9
Nsg10
S'i12'
p243
sg12
Nsg13
Nsg14
(lp244
(i__main__
Token
p245
(dp246
g18
I64
sba(i__main__
Token
p247
(dp248
g18
I65
sbasg19
I65
sba(i__main__
Mention
p249
(dp250
g7
S't8'
p251
sg9
S'Coreference-Identity'
p252
sg10
S'i30'
p253
sg12
S'i12'
p254
sg13
Nsg14
(lp255
(i__main__
Token
p256
(dp257
g18
I169
sba(i__main__
Token
p258
(dp259
g18
I170
sbasg19
I170
sbasg7
g242
sg38
Nsba(i__main__
Chain
p260
(dp261
g3
(lp262
(i__main__
Mention
p263
(dp264
g7
S't9'
p265
sg9
Nsg10
S'i13'
p266
sg12
Nsg13
Nsg14
(lp267
(i__main__
Token
p268
(dp269
g18
I68
sbasg19
I68
sba(i__main__
Mention
p270
(dp271
g7
S't9'
p272
sg9
S'Coreference-Identity'
p273
sg10
S'i32'
p274
sg12
S'i13'
p275
sg13
Nsg14
(lp276
(i__main__
Token
p277
(dp278
g18
I194
sbasg19
I194
sbasg7
g265
sg38
Nsba(i__main__
Chain
p279
(dp280
g3
(lp281
(i__main__
Mention
p282
(dp283
g7
S't10'
p284
sg9
Nsg10
S'i14'
p285
sg12
Nsg13
Nsg14
(lp286
(i__main__
Token
p287
(dp288
g18
I71
sba(i__main__
Token
p289
(dp290
g18
I72
sbasg19
I72
sba(i__main__
Mention
p291
(dp292
g7
S't10'
p293
sg9
S'Coreference-NounComplement'
p294
sg10
S'i15'
p295
sg12
S'i14'
p296
sg13
Nsg14
(lp297
(i__main__
Token
p298
(dp299
g18
I73
sba(i__main__
Token
p300
(dp301
g18
I74
sbasg19
I74
sba(i__main__
Mention
p302
(dp303
g7
S't10'
p304
sg9
S'Coreference-Identity'
p305
sg10
S'i18'
p306
sg12
S'i15'
p307
sg13
Nsg14
(lp308
(i__main__
Token
p309
(dp310
g18
I96
sbasg19
I96
sbasg7
g284
sg38
Nsba(i__main__
Chain
p311
(dp312
g3
(lp313
(i__main__
Mention
p314
(dp315
g7
S't11'
p316
sg9
Nsg10
S'i17'
p317
sg12
Nsg13
Nsg14
(lp318
(i__main__
Token
p319
(dp320
g18
I87
sbasg19
I87
sbasg7
g316
sg38
Nsba(i__main__
Chain
p321
(dp322
g3
(lp323
(i__main__
Mention
p324
(dp325
g7
S't12'
p326
sg9
Nsg10
S'i20'
p327
sg12
Nsg13
Nsg14
(lp328
(i__main__
Token
p329
(dp330
g18
I111
sbasg19
I111
sbasg7
g326
sg38
Nsba(i__main__
Chain
p331
(dp332
g3
(lp333
(i__main__
Mention
p334
(dp335
g7
S't13'
p336
sg9
Nsg10
S'i25'
p337
sg12
Nsg13
Nsg14
(lp338
(i__main__
Token
p339
(dp340
g18
I146
sba(i__main__
Token
p341
(dp342
g18
I147
sba(i__main__
Token
p343
(dp344
g18
I148
sba(i__main__
Token
p345
(dp346
g18
I149
sba(i__main__
Token
p347
(dp348
g18
I150
sba(i__main__
Token
p349
(dp350
g18
I151
sba(i__main__
Token
p351
(dp352
g18
I152
sba(i__main__
Token
p353
(dp354
g18
I153
sba(i__main__
Token
p355
(dp356
g18
I154
sba(i__main__
Token
p357
(dp358
g18
I155
sba(i__main__
Token
p359
(dp360
g18
I156
sba(i__main__
Token
p361
(dp362
g18
I157
sba(i__main__
Token
p363
(dp364
g18
I158
sba(i__main__
Token
p365
(dp366
g18
I159
sba(i__main__
Token
p367
(dp368
g18
I160
sba(i__main__
Token
p369
(dp370
g18
I161
sbasg19
I161
sba(i__main__
Mention
p371
(dp372
g7
S't13'
p373
sg9
S'Anaphora-E'
p374
sg10
S'i28'
p375
sg12
S'i25'
p376
sg13
Nsg14
(lp377
(i__main__
Token
p378
(dp379
g18
I163
sbasg19
I163
sbasg7
g336
sg38
Nsba(i__main__
Chain
p380
(dp381
g3
(lp382
(i__main__
Mention
p383
(dp384
g7
S't14'
p385
sg9
Nsg10
S'i33'
p386
sg12
Nsg13
Nsg14
(lp387
(i__main__
Token
p388
(dp389
g18
I196
sba(i__main__
Token
p390
(dp391
g18
I197
sbasg19
I197
sba(i__main__
Mention
p392
(dp393
g7
S't14'
p394
sg9
S'Coreference-NounComplement'
p395
sg10
S'i34'
p396
sg12
S'i33'
p397
sg13
Nsg14
(lp398
(i__main__
Token
p399
(dp400
g18
I198
sba(i__main__
Token
p401
(dp402
g18
I199
sba(i__main__
Token
p403
(dp404
g18
I200
sbasg19
I200
sbasg7
g385
sg38
Nsba.