(lp0
(i__main__
Chain
p1
(dp2
S'mentionList'
p3
(lp4
(i__main__
Mention
p5
(dp6
S'chainId'
p7
S't1'
p8
sS'relType'
p9
NsS'mentionId'
p10
S'i1'
p11
sS'antecedentId'
p12
NsS'crefMod'
p13
NsS'tokenList'
p14
(lp15
(i__main__
Token
p16
(dp17
S'tokenId'
p18
I0
sba(i__main__
Token
p19
(dp20
g18
I1
sbasS'mentionHead'
p21
I1
sba(i__main__
Mention
p22
(dp23
g7
S't1'
p24
sg9
S'Coreference-Identity'
p25
sg10
S'i10'
p26
sg12
S'i1'
p27
sg13
Nsg14
(lp28
(i__main__
Token
p29
(dp30
g18
I56
sbasg21
I56
sba(i__main__
Mention
p31
(dp32
g7
S't1'
p33
sg9
S'Coreference-Identity'
p34
sg10
S'i18'
p35
sg12
S'i10'
p36
sg13
Nsg14
(lp37
(i__main__
Token
p38
(dp39
g18
I97
sba(i__main__
Token
p40
(dp41
g18
I98
sba(i__main__
Token
p42
(dp43
g18
I99
sba(i__main__
Token
p44
(dp45
g18
I100
sba(i__main__
Token
p46
(dp47
g18
I101
sbasg21
I101
sba(i__main__
Mention
p48
(dp49
g7
S't1'
p50
sg9
S'Coreference-Identity'
p51
sg10
S'i43'
p52
sg12
S'i18'
p53
sg13
Nsg14
(lp54
(i__main__
Token
p55
(dp56
g18
I247
sba(i__main__
Token
p57
(dp58
g18
I248
sbasg21
I248
sbasg7
g8
sS'chainHead'
p59
Nsba(i__main__
Chain
p60
(dp61
g3
(lp62
(i__main__
Mention
p63
(dp64
g7
S't2'
p65
sg9
Nsg10
S'i2'
p66
sg12
Nsg13
Nsg14
(lp67
(i__main__
Token
p68
(dp69
g18
I3
sba(i__main__
Token
p70
(dp71
g18
I4
sbasg21
I4
sba(i__main__
Mention
p72
(dp73
g7
S't2'
p74
sg9
S'Coreference-PartOf'
p75
sg10
S'i16'
p76
sg12
S'i2'
p77
sg13
Nsg14
(lp78
(i__main__
Token
p79
(dp80
g18
I72
sba(i__main__
Token
p81
(dp82
g18
I73
sbasg21
I73
sba(i__main__
Mention
p83
(dp84
g7
S't2'
p85
sg9
S'Anaphora-C'
p86
sg10
S'i17'
p87
sg12
S'i16'
p88
sg13
Nsg14
(lp89
(i__main__
Token
p90
(dp91
g18
I90
sbasg21
I90
sbasg7
g65
sg59
Nsba(i__main__
Chain
p92
(dp93
g3
(lp94
(i__main__
Mention
p95
(dp96
g7
S't3'
p97
sg9
Nsg10
S'i3'
p98
sg12
Nsg13
Nsg14
(lp99
(i__main__
Token
p100
(dp101
g18
I12
sba(i__main__
Token
p102
(dp103
g18
I13
sba(i__main__
Token
p104
(dp105
g18
I14
sbasg21
I14
sba(i__main__
Mention
p106
(dp107
g7
S't3'
p108
sg9
S'Coreference-Identity'
p109
sg10
S'i23'
p110
sg12
S'i3'
p111
sg13
Nsg14
(lp112
(i__main__
Token
p113
(dp114
g18
I142
sbasg21
I142
sba(i__main__
Mention
p115
(dp116
g7
S't3'
p117
sg9
S'Coreference-Identity'
p118
sg10
S'i36'
p119
sg12
S'i23'
p120
sg13
Nsg14
(lp121
(i__main__
Token
p122
(dp123
g18
I199
sba(i__main__
Token
p124
(dp125
g18
I200
sba(i__main__
Token
p126
(dp127
g18
I201
sbasg21
I201
sba(i__main__
Mention
p128
(dp129
g7
S't3'
p130
sg9
S'Coreference-Identity'
p131
sg10
S'i44'
p132
sg12
S'i36'
p133
sg13
Nsg14
(lp134
(i__main__
Token
p135
(dp136
g18
I249
sbasg21
I249
sba(i__main__
Mention
p137
(dp138
g7
S't3'
p139
sg9
S'Coreference-Identity'
p140
sg10
S'i45'
p141
sg12
S'i44'
p142
sg13
Nsg14
(lp143
(i__main__
Token
p144
(dp145
g18
I256
sba(i__main__
Token
p146
(dp147
g18
I257
sbasg21
I257
sbasg7
g97
sg59
Nsba(i__main__
Chain
p148
(dp149
g3
(lp150
(i__main__
Mention
p151
(dp152
g7
S't4'
p153
sg9
Nsg10
S'i4'
p154
sg12
Nsg13
Nsg14
(lp155
(i__main__
Token
p156
(dp157
g18
I22
sbasg21
I22
sba(i__main__
Mention
p158
(dp159
g7
S't4'
p160
sg9
S'Anaphora-C'
p161
sg10
S'i6'
p162
sg12
S'i4'
p163
sg13
Nsg14
(lp164
(i__main__
Token
p165
(dp166
g18
I28
sbasg21
I28
sba(i__main__
Mention
p167
(dp168
g7
S't4'
p169
sg9
S'Coreference-InferedRelation'
p170
sg10
S'i12'
p171
sg12
S'i6'
p172
sg13
Nsg14
(lp173
(i__main__
Token
p174
(dp175
g18
I61
sbasg21
I61
sba(i__main__
Mention
p176
(dp177
g7
S't4'
p178
sg9
S'Anaphora-C'
p179
sg10
S'i14'
p180
sg12
S'i12'
p181
sg13
Nsg14
(lp182
(i__main__
Token
p183
(dp184
g18
I64
sbasg21
I64
sba(i__main__
Mention
p185
(dp186
g7
S't4'
p187
sg9
S'Coreference-Identity'
p188
sg10
S'i21'
p189
sg12
S'i14'
p190
sg13
Nsg14
(lp191
(i__main__
Token
p192
(dp193
g18
I132
sbasg21
I132
sba(i__main__
Mention
p194
(dp195
g7
S't4'
p196
sg9
S'Coreference-InferedRelation'
p197
sg10
S'i31'
p198
sg12
S'i21'
p199
sg13
Nsg14
(lp200
(i__main__
Token
p201
(dp202
g18
I167
sbasg21
I167
sba(i__main__
Mention
p203
(dp204
g7
S't4'
p205
sg9
S'Coreference-Identity'
p206
sg10
S'i32'
p207
sg12
S'i31'
p208
sg13
Nsg14
(lp209
(i__main__
Token
p210
(dp211
g18
I175
sbasg21
I175
sba(i__main__
Mention
p212
(dp213
g7
S't4'
p214
sg9
S'Coreference-Identity'
p215
sg10
S'i46'
p216
sg12
S'i32'
p217
sg13
Nsg14
(lp218
(i__main__
Token
p219
(dp220
g18
I266
sbasg21
I266
sba(i__main__
Mention
p221
(dp222
g7
S't4'
p223
sg9
S'Anaphora-C'
p224
sg10
S'i48'
p225
sg12
S'i46'
p226
sg13
Nsg14
(lp227
(i__main__
Token
p228
(dp229
g18
I274
sbasg21
I274
sba(i__main__
Mention
p230
(dp231
g7
S't4'
p232
sg9
S'Anaphora-C'
p233
sg10
S'i51'
p234
sg12
S'i48'
p235
sg13
Nsg14
(lp236
(i__main__
Token
p237
(dp238
g18
I294
sbasg21
I294
sba(i__main__
Mention
p239
(dp240
g7
S't4'
p241
sg9
S'Coreference-InferedRelation'
p242
sg10
S'i53'
p243
sg12
S'i51'
p244
sg13
Nsg14
(lp245
(i__main__
Token
p246
(dp247
g18
I307
sbasg21
I307
sba(i__main__
Mention
p248
(dp249
g7
S't4'
p250
sg9
S'Coreference-InferedRelation'
p251
sg10
S'i55'
p252
sg12
S'i53'
p253
sg13
Nsg14
(lp254
(i__main__
Token
p255
(dp256
g18
I311
sbasg21
I311
sbasg7
g153
sg59
Nsba(i__main__
Chain
p257
(dp258
g3
(lp259
(i__main__
Mention
p260
(dp261
g7
S't5'
p262
sg9
Nsg10
S'i5'
p263
sg12
Nsg13
Nsg14
(lp264
(i__main__
Token
p265
(dp266
g18
I26
sba(i__main__
Token
p267
(dp268
g18
I27
sbasg21
I27
sba(i__main__
Mention
p269
(dp270
g7
S't5'
p271
sg9
S'Anaphora-C'
p272
sg10
S'i7'
p273
sg12
S'i5'
p274
sg13
Nsg14
(lp275
(i__main__
Token
p276
(dp277
g18
I33
sbasg21
I33
sbasg7
g262
sg59
Nsba(i__main__
Chain
p278
(dp279
g3
(lp280
(i__main__
Mention
p281
(dp282
g7
S't6'
p283
sg9
Nsg10
S'i8'
p284
sg12
Nsg13
Nsg14
(lp285
(i__main__
Token
p286
(dp287
g18
I40
sba(i__main__
Token
p288
(dp289
g18
I41
sbasg21
I41
sba(i__main__
Mention
p290
(dp291
g7
S't6'
p292
sg9
S'Coreference-NounComplement'
p293
sg10
S'i9'
p294
sg12
S'i8'
p295
sg13
Nsg14
(lp296
(i__main__
Token
p297
(dp298
g18
I42
sba(i__main__
Token
p299
(dp300
g18
I43
sbasg21
I43
sba(i__main__
Mention
p301
(dp302
g7
S't6'
p303
sg9
S'Coreference-Identity'
p304
sg10
S'i19'
p305
sg12
S'i9'
p306
sg13
Nsg14
(lp307
(i__main__
Token
p308
(dp309
g18
I118
sbasg21
I118
sba(i__main__
Mention
p310
(dp311
g7
S't6'
p312
sg9
S'Anaphora-C'
p313
sg10
S'i20'
p314
sg12
S'i19'
p315
sg13
Nsg14
(lp316
(i__main__
Token
p317
(dp318
g18
I122
sbasg21
I122
sba(i__main__
Mention
p319
(dp320
g7
S't6'
p321
sg9
S'Anaphora-C'
p322
sg10
S'i22'
p323
sg12
S'i20'
p324
sg13
Nsg14
(lp325
(i__main__
Token
p326
(dp327
g18
I136
sbasg21
I136
sba(i__main__
Mention
p328
(dp329
g7
S't6'
p330
sg9
S'Coreference-Noun-Noun'
p331
sg10
S'i24'
p332
sg12
S'i22'
p333
sg13
Nsg14
(lp334
(i__main__
Token
p335
(dp336
g18
I145
sbasg21
I145
sba(i__main__
Mention
p337
(dp338
g7
S't6'
p339
sg9
S'Coreference-NounComplement'
p340
sg10
S'i25'
p341
sg12
S'i24'
p342
sg13
Nsg14
(lp343
(i__main__
Token
p344
(dp345
g18
I146
sbasg21
I146
sba(i__main__
Mention
p346
(dp347
g7
S't6'
p348
sg9
S'Anaphora-C'
p349
sg10
S'i28'
p350
sg12
S'i25'
p351
sg13
Nsg14
(lp352
(i__main__
Token
p353
(dp354
g18
I159
sbasg21
I159
sba(i__main__
Mention
p355
(dp356
g7
S't6'
p357
sg9
S'Anaphora-C'
p358
sg10
S'i38'
p359
sg12
S'i28'
p360
sg13
Nsg14
(lp361
(i__main__
Token
p362
(dp363
g18
I218
sbasg21
I218
sba(i__main__
Mention
p364
(dp365
g7
S't6'
p366
sg9
S'Coreference-Noun-Noun'
p367
sg10
S'i42'
p368
sg12
S'i38'
p369
sg13
Nsg14
(lp370
(i__main__
Token
p371
(dp372
g18
I242
sba(i__main__
Token
p373
(dp374
g18
I243
sbasg21
I243
sba(i__main__
Mention
p375
(dp376
g7
S't6'
p377
sg9
S'Coreference-Noun-Noun'
p378
sg10
S'i49'
p379
sg12
S'i42'
p380
sg13
Nsg14
(lp381
(i__main__
Token
p382
(dp383
g18
I286
sbasg21
I286
sba(i__main__
Mention
p384
(dp385
g7
S't6'
p386
sg9
S'Anaphora-C'
p387
sg10
S'i56'
p388
sg12
S'i49'
p389
sg13
Nsg14
(lp390
(i__main__
Token
p391
(dp392
g18
I321
sbasg21
I321
sba(i__main__
Mention
p393
(dp394
g7
S't6'
p395
sg9
S'Anaphora-C'
p396
sg10
S'i61'
p397
sg12
S'i56'
p398
sg13
Nsg14
(lp399
(i__main__
Token
p400
(dp401
g18
I344
sbasg21
I344
sbasg7
g283
sg59
Nsba(i__main__
Chain
p402
(dp403
g3
(lp404
(i__main__
Mention
p405
(dp406
g7
S't7'
p407
sg9
Nsg10
S'i11'
p408
sg12
Nsg13
Nsg14
(lp409
(i__main__
Token
p410
(dp411
g18
I57
sba(i__main__
Token
p412
(dp413
g18
I58
sba(i__main__
Token
p414
(dp415
g18
I59
sbasg21
I59
sba(i__main__
Mention
p416
(dp417
g7
S't7'
p418
sg9
S'Anaphora-C'
p419
sg10
S'i13'
p420
sg12
S'i11'
p421
sg13
Nsg14
(lp422
(i__main__
Token
p423
(dp424
g18
I63
sbasg21
I63
sbasg7
g407
sg59
Nsba(i__main__
Chain
p425
(dp426
g3
(lp427
(i__main__
Mention
p428
(dp429
g7
S't8'
p430
sg9
Nsg10
S'i15'
p431
sg12
Nsg13
Nsg14
(lp432
(i__main__
Token
p433
(dp434
g18
I70
sbasg21
I70
sbasg7
g430
sg59
Nsba(i__main__
Chain
p435
(dp436
g3
(lp437
(i__main__
Mention
p438
(dp439
g7
S't9'
p440
sg9
Nsg10
S'i26'
p441
sg12
Nsg13
Nsg14
(lp442
(i__main__
Token
p443
(dp444
g18
I148
sba(i__main__
Token
p445
(dp446
g18
I149
sbasg21
I149
sba(i__main__
Mention
p447
(dp448
g7
S't9'
p449
sg9
S'Coreference-Identity'
p450
sg10
S'i47'
p451
sg12
S'i26'
p452
sg13
Nsg14
(lp453
(i__main__
Token
p454
(dp455
g18
I269
sbasg21
I269
sbasg7
g440
sg59
Nsba(i__main__
Chain
p456
(dp457
g3
(lp458
(i__main__
Mention
p459
(dp460
g7
S't10'
p461
sg9
Nsg10
S'i27'
p462
sg12
Nsg13
Nsg14
(lp463
(i__main__
Token
p464
(dp465
g18
I148
sba(i__main__
Token
p466
(dp467
g18
I149
sba(i__main__
Token
p468
(dp469
g18
I150
sba(i__main__
Token
p470
(dp471
g18
I151
sbasg21
I151
sba(i__main__
Mention
p472
(dp473
g7
S't10'
p474
sg9
S'Anaphora-C'
p475
sg10
S'i29'
p476
sg12
S'i27'
p477
sg13
Nsg14
(lp478
(i__main__
Token
p479
(dp480
g18
I160
sbasg21
I160
sbasg7
g461
sg59
Nsba(i__main__
Chain
p481
(dp482
g3
(lp483
(i__main__
Mention
p484
(dp485
g7
S't11'
p486
sg9
Nsg10
S'i30'
p487
sg12
Nsg13
Nsg14
(lp488
(i__main__
Token
p489
(dp490
g18
I161
sbasg21
I161
sbasg7
g486
sg59
Nsba(i__main__
Chain
p491
(dp492
g3
(lp493
(i__main__
Mention
p494
(dp495
g7
S't12'
p496
sg9
Nsg10
S'i33'
p497
sg12
Nsg13
Nsg14
(lp498
(i__main__
Token
p499
(dp500
g18
I191
sbasg21
I191
sbasg7
g496
sg59
Nsba(i__main__
Chain
p501
(dp502
g3
(lp503
(i__main__
Mention
p504
(dp505
g7
S't13'
p506
sg9
Nsg10
S'i34'
p507
sg12
Nsg13
Nsg14
(lp508
(i__main__
Token
p509
(dp510
g18
I194
sba(i__main__
Token
p511
(dp512
g18
I195
sba(i__main__
Token
p513
(dp514
g18
I196
sbasg21
I196
sba(i__main__
Mention
p515
(dp516
g7
S't13'
p517
sg9
S'Coreference-Identity'
p518
sg10
S'i39'
p519
sg12
S'i34'
p520
sg13
Nsg14
(lp521
(i__main__
Token
p522
(dp523
g18
I228
sba(i__main__
Token
p524
(dp525
g18
I229
sbasg21
I229
sbasg7
g506
sg59
Nsba(i__main__
Chain
p526
(dp527
g3
(lp528
(i__main__
Mention
p529
(dp530
g7
S't14'
p531
sg9
Nsg10
S'i35'
p532
sg12
Nsg13
Nsg14
(lp533
(i__main__
Token
p534
(dp535
g18
I195
sbasg21
I195
sba(i__main__
Mention
p536
(dp537
g7
S't14'
p538
sg9
S'Coreference-Identity'
p539
sg10
S'i40'
p540
sg12
S'i35'
p541
sg13
Nsg14
(lp542
(i__main__
Token
p543
(dp544
g18
I228
sbasg21
I228
sbasg7
g531
sg59
Nsba(i__main__
Chain
p545
(dp546
g3
(lp547
(i__main__
Mention
p548
(dp549
g7
S't15'
p550
sg9
Nsg10
S'i37'
p551
sg12
Nsg13
Nsg14
(lp552
(i__main__
Token
p553
(dp554
g18
I204
sbasg21
I204
sba(i__main__
Mention
p555
(dp556
g7
S't15'
p557
sg9
S'Coreference-Identity'
p558
sg10
S'i41'
p559
sg12
S'i37'
p560
sg13
Nsg14
(lp561
(i__main__
Token
p562
(dp563
g18
I233
sbasg21
I233
sbasg7
g550
sg59
Nsba(i__main__
Chain
p564
(dp565
g3
(lp566
(i__main__
Mention
p567
(dp568
g7
S't16'
p569
sg9
Nsg10
S'i50'
p570
sg12
Nsg13
Nsg14
(lp571
(i__main__
Token
p572
(dp573
g18
I290
sbasg21
I290
sbasg7
g569
sg59
Nsba(i__main__
Chain
p574
(dp575
g3
(lp576
(i__main__
Mention
p577
(dp578
g7
S't17'
p579
sg9
Nsg10
S'i52'
p580
sg12
Nsg13
Nsg14
(lp581
(i__main__
Token
p582
(dp583
g18
I301
sba(i__main__
Token
p584
(dp585
g18
I302
sba(i__main__
Token
p586
(dp587
g18
I303
sbasg21
I303
sba(i__main__
Mention
p588
(dp589
g7
S't17'
p590
sg9
S'Anaphora-C'
p591
sg10
S'i54'
p592
sg12
S'i52'
p593
sg13
Nsg14
(lp594
(i__main__
Token
p595
(dp596
g18
I310
sbasg21
I310
sbasg7
g579
sg59
Nsba(i__main__
Chain
p597
(dp598
g3
(lp599
(i__main__
Mention
p600
(dp601
g7
S't18'
p602
sg9
Nsg10
S'i57'
p603
sg12
Nsg13
Nsg14
(lp604
(i__main__
Token
p605
(dp606
g18
I324
sba(i__main__
Token
p607
(dp608
g18
I325
sbasg21
I325
sba(i__main__
Mention
p609
(dp610
g7
S't18'
p611
sg9
S'Coreference-Identity'
p612
sg10
S'i62'
p613
sg12
S'i57'
p614
sg13
Nsg14
(lp615
(i__main__
Token
p616
(dp617
g18
I348
sba(i__main__
Token
p618
(dp619
g18
I349
sbasg21
I349
sbasg7
g602
sg59
Nsba(i__main__
Chain
p620
(dp621
g3
(lp622
(i__main__
Mention
p623
(dp624
g7
S't19'
p625
sg9
Nsg10
S'i58'
p626
sg12
Nsg13
Nsg14
(lp627
(i__main__
Token
p628
(dp629
g18
I324
sba(i__main__
Token
p630
(dp631
g18
I325
sba(i__main__
Token
p632
(dp633
g18
I326
sba(i__main__
Token
p634
(dp635
g18
I327
sba(i__main__
Token
p636
(dp637
g18
I328
sba(i__main__
Token
p638
(dp639
g18
I329
sba(i__main__
Token
p640
(dp641
g18
I330
sba(i__main__
Token
p642
(dp643
g18
I331
sbasg21
I331
sba(i__main__
Mention
p644
(dp645
g7
S't19'
p646
sg9
S'Anaphora-C'
p647
sg10
S'i60'
p648
sg12
S'i58'
p649
sg13
Nsg14
(lp650
(i__main__
Token
p651
(dp652
g18
I337
sbasg21
I337
sbasg7
g625
sg59
Nsba(i__main__
Chain
p653
(dp654
g3
(lp655
(i__main__
Mention
p656
(dp657
g7
S't20'
p658
sg9
Nsg10
S'i59'
p659
sg12
Nsg13
Nsg14
(lp660
(i__main__
Token
p661
(dp662
g18
I327
sba(i__main__
Token
p663
(dp664
g18
I328
sbasg21
I328
sba(i__main__
Mention
p665
(dp666
g7
S't20'
p667
sg9
S'Coreference-Identity'
p668
sg10
S'i63'
p669
sg12
S'i59'
p670
sg13
Nsg14
(lp671
(i__main__
Token
p672
(dp673
g18
I351
sba(i__main__
Token
p674
(dp675
g18
I352
sbasg21
I352
sbasg7
g658
sg59
Nsba.