(lp0
(i__main__
Chain
p1
(dp2
S'mentionList'
p3
(lp4
(i__main__
Mention
p5
(dp6
S'chainId'
p7
S't1'
p8
sS'relType'
p9
NsS'mentionId'
p10
S'i1'
p11
sS'antecedentId'
p12
NsS'crefMod'
p13
NsS'tokenList'
p14
(lp15
(i__main__
Token
p16
(dp17
S'tokenId'
p18
I0
sbasS'mentionHead'
p19
I0
sba(i__main__
Mention
p20
(dp21
g7
S't1'
p22
sg9
S'Coreference-Identity'
p23
sg10
S'i20'
p24
sg12
S'i1'
p25
sg13
Nsg14
(lp26
(i__main__
Token
p27
(dp28
g18
I95
sba(i__main__
Token
p29
(dp30
g18
I96
sbasg19
I96
sbasg7
g8
sS'chainHead'
p31
Nsba(i__main__
Chain
p32
(dp33
g3
(lp34
(i__main__
Mention
p35
(dp36
g7
S't2'
p37
sg9
Nsg10
S'i2'
p38
sg12
Nsg13
Nsg14
(lp39
(i__main__
Token
p40
(dp41
g18
I2
sba(i__main__
Token
p42
(dp43
g18
I3
sba(i__main__
Token
p44
(dp45
g18
I4
sbasg19
I4
sba(i__main__
Mention
p46
(dp47
g7
S't2'
p48
sg9
S'Coreference-NounComplement'
p49
sg10
S'i3'
p50
sg12
S'i2'
p51
sg13
Nsg14
(lp52
(i__main__
Token
p53
(dp54
g18
I5
sba(i__main__
Token
p55
(dp56
g18
I6
sba(i__main__
Token
p57
(dp58
g18
I7
sba(i__main__
Token
p59
(dp60
g18
I8
sbasg19
I8
sba(i__main__
Mention
p61
(dp62
g7
S't2'
p63
sg9
S'Coreference-Abbreviation'
p64
sg10
S'i5'
p65
sg12
S'i3'
p66
sg13
Nsg14
(lp67
(i__main__
Token
p68
(dp69
g18
I10
sbasg19
I10
sba(i__main__
Mention
p70
(dp71
g7
S't2'
p72
sg9
S'Anaphora-C'
p73
sg10
S'i7'
p74
sg12
S'i5'
p75
sg13
Nsg14
(lp76
(i__main__
Token
p77
(dp78
g18
I23
sbasg19
I23
sba(i__main__
Mention
p79
(dp80
g7
S't2'
p81
sg9
S'Coreference-Identity'
p82
sg10
S'i13'
p83
sg12
S'i7'
p84
sg13
Nsg14
(lp85
(i__main__
Token
p86
(dp87
g18
I65
sbasg19
I65
sba(i__main__
Mention
p88
(dp89
g7
S't2'
p90
sg9
S'Coreference-Noun-Noun'
p91
sg10
S'i18'
p92
sg12
S'i13'
p93
sg13
Nsg14
(lp94
(i__main__
Token
p95
(dp96
g18
I84
sba(i__main__
Token
p97
(dp98
g18
I85
sba(i__main__
Token
p99
(dp100
g18
I86
sba(i__main__
Token
p101
(dp102
g18
I87
sba(i__main__
Token
p103
(dp104
g18
I88
sba(i__main__
Token
p105
(dp106
g18
I89
sba(i__main__
Token
p107
(dp108
g18
I90
sbasg19
I90
sba(i__main__
Mention
p109
(dp110
g7
S't2'
p111
sg9
S'Coreference-NounComplement'
p112
sg10
S'i19'
p113
sg12
S'i18'
p114
sg13
Nsg14
(lp115
(i__main__
Token
p116
(dp117
g18
I91
sbasg19
I91
sba(i__main__
Mention
p118
(dp119
g7
S't2'
p120
sg9
S'Anaphora-C'
p121
sg10
S'i22'
p122
sg12
S'i19'
p123
sg13
Nsg14
(lp124
(i__main__
Token
p125
(dp126
g18
I111
sbasg19
I111
sbasg7
g37
sg31
Nsba(i__main__
Chain
p127
(dp128
g3
(lp129
(i__main__
Mention
p130
(dp131
g7
S't3'
p132
sg9
Nsg10
S'i4'
p133
sg12
Nsg13
Nsg14
(lp134
(i__main__
Token
p135
(dp136
g18
I13
sbasg19
I13
sba(i__main__
Mention
p137
(dp138
g7
S't3'
p139
sg9
S'Anaphora-C'
p140
sg10
S'i6'
p141
sg12
S'i4'
p142
sg13
Nsg14
(lp143
(i__main__
Token
p144
(dp145
g18
I22
sbasg19
I22
sba(i__main__
Mention
p146
(dp147
g7
S't3'
p148
sg9
S'Anaphora-C'
p149
sg10
S'i9'
p150
sg12
S'i6'
p151
sg13
Nsg14
(lp152
(i__main__
Token
p153
(dp154
g18
I33
sbasg19
I33
sba(i__main__
Mention
p155
(dp156
g7
S't3'
p157
sg9
S'Coreference-Identity'
p158
sg10
S'i14'
p159
sg12
S'i9'
p160
sg13
Nsg14
(lp161
(i__main__
Token
p162
(dp163
g18
I67
sbasg19
I67
sba(i__main__
Mention
p164
(dp165
g7
S't3'
p166
sg9
S'Anaphora-C'
p167
sg10
S'i15'
p168
sg12
S'i14'
p169
sg13
Nsg14
(lp170
(i__main__
Token
p171
(dp172
g18
I73
sbasg19
I73
sbasg7
g132
sg31
Nsba(i__main__
Chain
p173
(dp174
g3
(lp175
(i__main__
Mention
p176
(dp177
g7
S't4'
p178
sg9
Nsg10
S'i8'
p179
sg12
Nsg13
Nsg14
(lp180
(i__main__
Token
p181
(dp182
g18
I24
sbasg19
I24
sba(i__main__
Mention
p183
(dp184
g7
S't4'
p185
sg9
S'Coreference-Apposition'
p186
sg10
S'i17'
p187
sg12
S'i8'
p188
sg13
Nsg14
(lp189
(i__main__
Token
p190
(dp191
g18
I82
sbasg19
I82
sba(i__main__
Mention
p192
(dp193
g7
S't4'
p194
sg9
S'Coreference-InferedRelation'
p195
sg10
S'i23'
p196
sg12
S'i17'
p197
sg13
Nsg14
(lp198
(i__main__
Token
p199
(dp200
g18
I119
sbasg19
I119
sba(i__main__
Mention
p201
(dp202
g7
S't4'
p203
sg9
S'Coreference-Noun-Noun'
p204
sg10
S'i25'
p205
sg12
S'i23'
p206
sg13
Nsg14
(lp207
(i__main__
Token
p208
(dp209
g18
I130
sbasg19
I130
sba(i__main__
Mention
p210
(dp211
g7
S't4'
p212
sg9
S'Coreference-Noun-Noun'
p213
sg10
S'i26'
p214
sg12
S'i25'
p215
sg13
Nsg14
(lp216
(i__main__
Token
p217
(dp218
g18
I137
sbasg19
I137
sba(i__main__
Mention
p219
(dp220
g7
S't4'
p221
sg9
S'Anaphora-C'
p222
sg10
S'i27'
p223
sg12
S'i26'
p224
sg13
Nsg14
(lp225
(i__main__
Token
p226
(dp227
g18
I144
sbasg19
I144
sba(i__main__
Mention
p228
(dp229
g7
S't4'
p230
sg9
S'Coreference-Identity'
p231
sg10
S'i31'
p232
sg12
S'i27'
p233
sg13
Nsg14
(lp234
(i__main__
Token
p235
(dp236
g18
I157
sbasg19
I157
sba(i__main__
Mention
p237
(dp238
g7
S't4'
p239
sg9
S'Coreference-Identity'
p240
sg10
S'i40'
p241
sg12
S'i31'
p242
sg13
Nsg14
(lp243
(i__main__
Token
p244
(dp245
g18
I185
sbasg19
I185
sba(i__main__
Mention
p246
(dp247
g7
S't4'
p248
sg9
S'Coreference-Noun-Noun'
p249
sg10
S'i50'
p250
sg12
S'i40'
p251
sg13
Nsg14
(lp252
(i__main__
Token
p253
(dp254
g18
I242
sbasg19
I242
sbasg7
g178
sg31
Nsba(i__main__
Chain
p255
(dp256
g3
(lp257
(i__main__
Mention
p258
(dp259
g7
S't5'
p260
sg9
Nsg10
S'i10'
p261
sg12
Nsg13
Nsg14
(lp262
(i__main__
Token
p263
(dp264
g18
I36
sba(i__main__
Token
p265
(dp266
g18
I37
sba(i__main__
Token
p267
(dp268
g18
I38
sbasg19
I38
sba(i__main__
Mention
p269
(dp270
g7
S't5'
p271
sg9
S'Coreference-Identity'
p272
sg10
S'i21'
p273
sg12
S'i10'
p274
sg13
Nsg14
(lp275
(i__main__
Token
p276
(dp277
g18
I104
sbasg19
I104
sbasg7
g260
sg31
Nsba(i__main__
Chain
p278
(dp279
g3
(lp280
(i__main__
Mention
p281
(dp282
g7
S't6'
p283
sg9
Nsg10
S'i11'
p284
sg12
Nsg13
Nsg14
(lp285
(i__main__
Token
p286
(dp287
g18
I61
sbasg19
I61
sba(i__main__
Mention
p288
(dp289
g7
S't6'
p290
sg9
S'Coreference-NounComplement'
p291
sg10
S'i12'
p292
sg12
S'i11'
p293
sg13
Nsg14
(lp294
(i__main__
Token
p295
(dp296
g18
I62
sba(i__main__
Token
p297
(dp298
g18
I63
sbasg19
I63
sba(i__main__
Mention
p299
(dp300
g7
S't6'
p301
sg9
S'Coreference-Identity'
p302
sg10
S'i24'
p303
sg12
S'i12'
p304
sg13
Nsg14
(lp305
(i__main__
Token
p306
(dp307
g18
I125
sba(i__main__
Token
p308
(dp309
g18
I126
sbasg19
I126
sba(i__main__
Mention
p310
(dp311
g7
S't6'
p312
sg9
S'Coreference-Identity'
p313
sg10
S'i29'
p314
sg12
S'i24'
p315
sg13
Nsg14
(lp316
(i__main__
Token
p317
(dp318
g18
I151
sbasg19
I151
sba(i__main__
Mention
p319
(dp320
g7
S't6'
p321
sg9
S'Anaphora-C'
p322
sg10
S'i37'
p323
sg12
S'i29'
p324
sg13
Nsg14
(lp325
(i__main__
Token
p326
(dp327
g18
I180
sbasg19
I180
sba(i__main__
Mention
p328
(dp329
g7
S't6'
p330
sg9
S'Coreference-Identity'
p331
sg10
S'i46'
p332
sg12
S'i37'
p333
sg13
Nsg14
(lp334
(i__main__
Token
p335
(dp336
g18
I216
sbasg19
I216
sba(i__main__
Mention
p337
(dp338
g7
S't6'
p339
sg9
S'Coreference-Identity'
p340
sg10
S'i48'
p341
sg12
S'i46'
p342
sg13
Nsg14
(lp343
(i__main__
Token
p344
(dp345
g18
I227
sba(i__main__
Token
p346
(dp347
g18
I228
sbasg19
I228
sba(i__main__
Mention
p348
(dp349
g7
S't6'
p350
sg9
S'Coreference-Identity'
p351
sg10
S'i51'
p352
sg12
S'i48'
p353
sg13
Nsg14
(lp354
(i__main__
Token
p355
(dp356
g18
I247
sbasg19
I247
sbasg7
g283
sg31
Nsba(i__main__
Chain
p357
(dp358
g3
(lp359
(i__main__
Mention
p360
(dp361
g7
S't7'
p362
sg9
S'anaphora-?'
p363
sg10
S'i16'
p364
sg12
S'i16'
p365
sg13
Nsg14
(lp366
(i__main__
Token
p367
(dp368
g18
I74
sbasg19
I74
sbasg7
g362
sg31
Nsba(i__main__
Chain
p369
(dp370
g3
(lp371
(i__main__
Mention
p372
(dp373
g7
S't8'
p374
sg9
Nsg10
S'i28'
p375
sg12
Nsg13
Nsg14
(lp376
(i__main__
Token
p377
(dp378
g18
I145
sbasg19
I145
sba(i__main__
Mention
p379
(dp380
g7
S't8'
p381
sg9
S'Coreference-Identity'
p382
sg10
S'i30'
p383
sg12
S'i28'
p384
sg13
Nsg14
(lp385
(i__main__
Token
p386
(dp387
g18
I155
sbasg19
I155
sba(i__main__
Mention
p388
(dp389
g7
S't8'
p390
sg9
S'Coreference-Identity'
p391
sg10
S'i38'
p392
sg12
S'i30'
p393
sg13
Nsg14
(lp394
(i__main__
Token
p395
(dp396
g18
I183
sbasg19
I183
sba(i__main__
Mention
p397
(dp398
g7
S't8'
p399
sg9
S'Coreference-Identity'
p400
sg10
S'i43'
p401
sg12
S'i38'
p402
sg13
Nsg14
(lp403
(i__main__
Token
p404
(dp405
g18
I203
sbasg19
I203
sba(i__main__
Mention
p406
(dp407
g7
S't8'
p408
sg9
S'Anaphora-C'
p409
sg10
S'i45'
p410
sg12
S'i43'
p411
sg13
Nsg14
(lp412
(i__main__
Token
p413
(dp414
g18
I209
sbasg19
I209
sba(i__main__
Mention
p415
(dp416
g7
S't8'
p417
sg9
S'Coreference-Identity'
p418
sg10
S'i49'
p419
sg12
S'i45'
p420
sg13
Nsg14
(lp421
(i__main__
Token
p422
(dp423
g18
I236
sbasg19
I236
sba(i__main__
Mention
p424
(dp425
g7
S't8'
p426
sg9
S'Coreference-Identity'
p427
sg10
S'i53'
p428
sg12
S'i49'
p429
sg13
Nsg14
(lp430
(i__main__
Token
p431
(dp432
g18
I250
sbasg19
I250
sbasg7
g374
sg31
Nsba(i__main__
Chain
p433
(dp434
g3
(lp435
(i__main__
Mention
p436
(dp437
g7
S't9'
p438
sg9
Nsg10
S'i32'
p439
sg12
Nsg13
Nsg14
(lp440
(i__main__
Token
p441
(dp442
g18
I159
sbasg19
I159
sba(i__main__
Mention
p443
(dp444
g7
S't9'
p445
sg9
S'Anaphora-C'
p446
sg10
S'i34'
p447
sg12
S'i32'
p448
sg13
Nsg14
(lp449
(i__main__
Token
p450
(dp451
g18
I165
sbasg19
I165
sbasg7
g438
sg31
Nsba(i__main__
Chain
p452
(dp453
g3
(lp454
(i__main__
Mention
p455
(dp456
g7
S't10'
p457
sg9
Nsg10
S'i33'
p458
sg12
Nsg13
Nsg14
(lp459
(i__main__
Token
p460
(dp461
g18
I159
sba(i__main__
Token
p462
(dp463
g18
I160
sba(i__main__
Token
p464
(dp465
g18
I161
sba(i__main__
Token
p466
(dp467
g18
I162
sba(i__main__
Token
p468
(dp469
g18
I163
sbasg19
I163
sba(i__main__
Mention
p470
(dp471
g7
S't10'
p472
sg9
S'Coreference-Noun-Noun'
p473
sg10
S'i36'
p474
sg12
S'i33'
p475
sg13
Nsg14
(lp476
(i__main__
Token
p477
(dp478
g18
I172
sba(i__main__
Token
p479
(dp480
g18
I173
sbasg19
I173
sbasg7
g457
sg31
Nsba(i__main__
Chain
p481
(dp482
g3
(lp483
(i__main__
Mention
p484
(dp485
g7
S't11'
p486
sg9
S'anaphora-?'
p487
sg10
S'i35'
p488
sg12
S'i35'
p489
sg13
Nsg14
(lp490
(i__main__
Token
p491
(dp492
g18
I171
sbasg19
I171
sbasg7
g486
sg31
Nsba(i__main__
Chain
p493
(dp494
g3
(lp495
(i__main__
Mention
p496
(dp497
g7
S't12'
p498
sg9
Nsg10
S'i39'
p499
sg12
Nsg13
Nsg14
(lp500
(i__main__
Token
p501
(dp502
g18
I183
sba(i__main__
Token
p503
(dp504
g18
I184
sba(i__main__
Token
p505
(dp506
g18
I185
sba(i__main__
Token
p507
(dp508
g18
I186
sba(i__main__
Token
p509
(dp510
g18
I187
sba(i__main__
Token
p511
(dp512
g18
I188
sba(i__main__
Token
p513
(dp514
g18
I189
sba(i__main__
Token
p515
(dp516
g18
I190
sba(i__main__
Token
p517
(dp518
g18
I191
sba(i__main__
Token
p519
(dp520
g18
I192
sba(i__main__
Token
p521
(dp522
g18
I193
sba(i__main__
Token
p523
(dp524
g18
I194
sba(i__main__
Token
p525
(dp526
g18
I195
sba(i__main__
Token
p527
(dp528
g18
I196
sba(i__main__
Token
p529
(dp530
g18
I197
sba(i__main__
Token
p531
(dp532
g18
I198
sba(i__main__
Token
p533
(dp534
g18
I199
sba(i__main__
Token
p535
(dp536
g18
I200
sbasg19
I198
sba(i__main__
Mention
p537
(dp538
g7
S't12'
p539
sg9
S'Anaphora-E'
p540
sg10
S'i42'
p541
sg12
S'i39'
p542
sg13
Nsg14
(lp543
(i__main__
Token
p544
(dp545
g18
I202
sbasg19
I202
sbasg7
g498
sg31
Nsba(i__main__
Chain
p546
(dp547
g3
(lp548
(i__main__
Mention
p549
(dp550
g7
S't13'
p551
sg9
Nsg10
S'i41'
p552
sg12
Nsg13
Nsg14
(lp553
(i__main__
Token
p554
(dp555
g18
I187
sba(i__main__
Token
p556
(dp557
g18
I188
sba(i__main__
Token
p558
(dp559
g18
I189
sba(i__main__
Token
p560
(dp561
g18
I190
sba(i__main__
Token
p562
(dp563
g18
I191
sbasg19
I191
sba(i__main__
Mention
p564
(dp565
g7
S't13'
p566
sg9
S'Coreference-Identity'
p567
sg10
S'i44'
p568
sg12
S'i41'
p569
sg13
Nsg14
(lp570
(i__main__
Token
p571
(dp572
g18
I205
sba(i__main__
Token
p573
(dp574
g18
I206
sbasg19
I206
sba(i__main__
Mention
p575
(dp576
g7
S't13'
p577
sg9
S'Coreference-Identity'
p578
sg10
S'i47'
p579
sg12
S'i44'
p580
sg13
Nsg14
(lp581
(i__main__
Token
p582
(dp583
g18
I218
sba(i__main__
Token
p584
(dp585
g18
I219
sbasg19
I219
sbasg7
g551
sg31
Nsba(i__main__
Chain
p586
(dp587
g3
(lp588
(i__main__
Mention
p589
(dp590
g7
S't14'
p591
sg9
Nsg10
S'i52'
p592
sg12
Nsg13
Nsg14
(lp593
(i__main__
Token
p594
(dp595
g18
I250
sba(i__main__
Token
p596
(dp597
g18
I251
sbasg19
I251
sba(i__main__
Mention
p598
(dp599
g7
S't14'
p600
sg9
S'Coreference-NounComplement'
p601
sg10
S'i54'
p602
sg12
S'i52'
p603
sg13
Nsg14
(lp604
(i__main__
Token
p605
(dp606
g18
I252
sba(i__main__
Token
p607
(dp608
g18
I253
sba(i__main__
Token
p609
(dp610
g18
I254
sbasg19
I254
sbasg7
g591
sg31
Nsba(i__main__
Chain
p611
(dp612
g3
(lp613
(i__main__
Mention
p614
(dp615
g7
S't15'
p616
sg9
Nsg10
S'i55'
p617
sg12
Nsg13
Nsg14
(lp618
(i__main__
Token
p619
(dp620
g18
I259
sba(i__main__
Token
p621
(dp622
g18
I260
sba(i__main__
Token
p623
(dp624
g18
I261
sbasg19
I261
sba(i__main__
Mention
p625
(dp626
g7
S't15'
p627
sg9
S'Coreference-NounComplement'
p628
sg10
S'i56'
p629
sg12
S'i55'
p630
sg13
Nsg14
(lp631
(i__main__
Token
p632
(dp633
g18
I262
sba(i__main__
Token
p634
(dp635
g18
I263
sbasg19
I263
sbasg7
g616
sg31
Nsba.