(lp0
(i__main__
Chain
p1
(dp2
S'mentionList'
p3
(lp4
(i__main__
Mention
p5
(dp6
S'chainId'
p7
S't1'
p8
sS'relType'
p9
NsS'mentionId'
p10
S'i1'
p11
sS'antecedentId'
p12
NsS'crefMod'
p13
NsS'tokenList'
p14
(lp15
(i__main__
Token
p16
(dp17
S'tokenId'
p18
I0
sbasS'mentionHead'
p19
I0
sba(i__main__
Mention
p20
(dp21
g7
S't1'
p22
sg9
S'Coreference-Identity'
p23
sg10
S'i12'
p24
sg12
S'i1'
p25
sg13
Nsg14
(lp26
(i__main__
Token
p27
(dp28
g18
I66
sbasg19
I66
sba(i__main__
Mention
p29
(dp30
g7
S't1'
p31
sg9
S'Coreference-Identity'
p32
sg10
S'i49'
p33
sg12
S'i12'
p34
sg13
Nsg14
(lp35
(i__main__
Token
p36
(dp37
g18
I159
sbasg19
I159
sba(i__main__
Mention
p38
(dp39
g7
S't1'
p40
sg9
S'Coreference-Identity'
p41
sg10
S'i71'
p42
sg12
S'i49'
p43
sg13
Nsg14
(lp44
(i__main__
Token
p45
(dp46
g18
I296
sbasg19
I296
sbasg7
g8
sS'chainHead'
p47
Nsba(i__main__
Chain
p48
(dp49
g3
(lp50
(i__main__
Mention
p51
(dp52
g7
S't2'
p53
sg9
Nsg10
S'i2'
p54
sg12
Nsg13
Nsg14
(lp55
(i__main__
Token
p56
(dp57
g18
I2
sbasg19
I2
sba(i__main__
Mention
p58
(dp59
g7
S't2'
p60
sg9
S'Coreference-NounComplement'
p61
sg10
S'i3'
p62
sg12
S'i2'
p63
sg13
Nsg14
(lp64
(i__main__
Token
p65
(dp66
g18
I3
sba(i__main__
Token
p67
(dp68
g18
I4
sbasg19
I4
sba(i__main__
Mention
p69
(dp70
g7
S't2'
p71
sg9
S'Coreference-Identity'
p72
sg10
S'i5'
p73
sg12
S'i3'
p74
sg13
Nsg14
(lp75
(i__main__
Token
p76
(dp77
g18
I19
sbasg19
I19
sba(i__main__
Mention
p78
(dp79
g7
S't2'
p80
sg9
S'Coreference-Identity'
p81
sg10
S'i9'
p82
sg12
S'i5'
p83
sg13
Nsg14
(lp84
(i__main__
Token
p85
(dp86
g18
I42
sbasg19
I42
sba(i__main__
Mention
p87
(dp88
g7
S't2'
p89
sg9
S'Coreference-Identity'
p90
sg10
S'i57'
p91
sg12
S'i9'
p92
sg13
Nsg14
(lp93
(i__main__
Token
p94
(dp95
g18
I220
sba(i__main__
Token
p96
(dp97
g18
I221
sba(i__main__
Token
p98
(dp99
g18
I222
sbasg19
I222
sba(i__main__
Mention
p100
(dp101
g7
S't2'
p102
sg9
S'Coreference-Identity'
p103
sg10
S'i61'
p104
sg12
S'i57'
p105
sg13
Nsg14
(lp106
(i__main__
Token
p107
(dp108
g18
I241
sbasg19
I241
sba(i__main__
Mention
p109
(dp110
g7
S't2'
p111
sg9
S'Coreference-Identity'
p112
sg10
S'i68'
p113
sg12
S'i61'
p114
sg13
Nsg14
(lp115
(i__main__
Token
p116
(dp117
g18
I271
sbasg19
I271
sba(i__main__
Mention
p118
(dp119
g7
S't2'
p120
sg9
S'Coreference-Identity'
p121
sg10
S'i74'
p122
sg12
S'i68'
p123
sg13
Nsg14
(lp124
(i__main__
Token
p125
(dp126
g18
I302
sba(i__main__
Token
p127
(dp128
g18
I303
sbasg19
I303
sba(i__main__
Mention
p129
(dp130
g7
S't2'
p131
sg9
S'Anaphora-C'
p132
sg10
S'i78'
p133
sg12
S'i74'
p134
sg13
Nsg14
(lp135
(i__main__
Token
p136
(dp137
g18
I315
sbasg19
I315
sba(i__main__
Mention
p138
(dp139
g7
S't2'
p140
sg9
S'Anaphora-C'
p141
sg10
S'i79'
p142
sg12
S'i78'
p143
sg13
Nsg14
(lp144
(i__main__
Token
p145
(dp146
g18
I318
sbasg19
I318
sba(i__main__
Mention
p147
(dp148
g7
S't2'
p149
sg9
S'Coreference-Noun-Noun'
p150
sg10
S'i83'
p151
sg12
S'i79'
p152
sg13
Nsg14
(lp153
(i__main__
Token
p154
(dp155
g18
I332
sbasg19
I332
sbasg7
g53
sg47
Nsba(i__main__
Chain
p156
(dp157
g3
(lp158
(i__main__
Mention
p159
(dp160
g7
S't3'
p161
sg9
Nsg10
S'i4'
p162
sg12
Nsg13
Nsg14
(lp163
(i__main__
Token
p164
(dp165
g18
I10
sbasg19
I10
sba(i__main__
Mention
p166
(dp167
g7
S't3'
p168
sg9
S'Coreference-Noun-Noun'
p169
sg10
S'i6'
p170
sg12
S'i4'
p171
sg13
Nsg14
(lp172
(i__main__
Token
p173
(dp174
g18
I28
sbasg19
I28
sba(i__main__
Mention
p175
(dp176
g7
S't3'
p177
sg9
S'Coreference-Noun-Noun'
p178
sg10
S'i8'
p179
sg12
S'i6'
p180
sg13
Nsg14
(lp181
(i__main__
Token
p182
(dp183
g18
I39
sbasg19
I39
sba(i__main__
Mention
p184
(dp185
g7
S't3'
p186
sg9
S'Coreference-Noun-Noun'
p187
sg10
S'i14'
p188
sg12
S'i8'
p189
sg13
Nsg14
(lp190
(i__main__
Token
p191
(dp192
g18
I76
sbasg19
I76
sba(i__main__
Mention
p193
(dp194
g7
S't3'
p195
sg9
S'Coreference-Noun-Noun'
p196
sg10
S'i18'
p197
sg12
S'i14'
p198
sg13
Nsg14
(lp199
(i__main__
Token
p200
(dp201
g18
I87
sbasg19
I87
sba(i__main__
Mention
p202
(dp203
g7
S't3'
p204
sg9
S'Coreference-Identity'
p205
sg10
S'i24'
p206
sg12
S'i18'
p207
sg13
Nsg14
(lp208
(i__main__
Token
p209
(dp210
g18
I100
sbasg19
I100
sba(i__main__
Mention
p211
(dp212
g7
S't3'
p213
sg9
S'Coreference-Noun-Noun'
p214
sg10
S'i31'
p215
sg12
S'i24'
p216
sg13
Nsg14
(lp217
(i__main__
Token
p218
(dp219
g18
I109
sbasg19
I109
sba(i__main__
Mention
p220
(dp221
g7
S't3'
p222
sg9
S'Coreference-Noun-Noun'
p223
sg10
S'i44'
p224
sg12
S'i31'
p225
sg13
Nsg14
(lp226
(i__main__
Token
p227
(dp228
g18
I140
sbasg19
I140
sba(i__main__
Mention
p229
(dp230
g7
S't3'
p231
sg9
S'Coreference-Identity'
p232
sg10
S'i55'
p233
sg12
S'i44'
p234
sg13
Nsg14
(lp235
(i__main__
Token
p236
(dp237
g18
I182
sbasg19
I182
sba(i__main__
Mention
p238
(dp239
g7
S't3'
p240
sg9
S'Coreference-Identity'
p241
sg10
S'i66'
p242
sg12
S'i55'
p243
sg13
Nsg14
(lp244
(i__main__
Token
p245
(dp246
g18
I257
sbasg19
I257
sba(i__main__
Mention
p247
(dp248
g7
S't3'
p249
sg9
S'Coreference-Identity'
p250
sg10
S'i69'
p251
sg12
S'i66'
p252
sg13
Nsg14
(lp253
(i__main__
Token
p254
(dp255
g18
I290
sbasg19
I290
sba(i__main__
Mention
p256
(dp257
g7
S't3'
p258
sg9
S'Anaphora-C'
p259
sg10
S'i73'
p260
sg12
S'i69'
p261
sg13
Nsg14
(lp262
(i__main__
Token
p263
(dp264
g18
I298
sbasg19
I298
sba(i__main__
Mention
p265
(dp266
g7
S't3'
p267
sg9
S'Coreference-Identity'
p268
sg10
S'i80'
p269
sg12
S'i73'
p270
sg13
Nsg14
(lp271
(i__main__
Token
p272
(dp273
g18
I322
sbasg19
I322
sba(i__main__
Mention
p274
(dp275
g7
S't3'
p276
sg9
S'Coreference-Identity'
p277
sg10
S'i84'
p278
sg12
S'i80'
p279
sg13
Nsg14
(lp280
(i__main__
Token
p281
(dp282
g18
I341
sbasg19
I341
sbasg7
g161
sg47
Nsba(i__main__
Chain
p283
(dp284
g3
(lp285
(i__main__
Mention
p286
(dp287
g7
S't4'
p288
sg9
Nsg10
S'i7'
p289
sg12
Nsg13
Nsg14
(lp290
(i__main__
Token
p291
(dp292
g18
I28
sba(i__main__
Token
p293
(dp294
g18
I29
sbasg19
I29
sba(i__main__
Mention
p295
(dp296
g7
S't4'
p297
sg9
S'Coreference-Identity'
p298
sg10
S'i15'
p299
sg12
S'i7'
p300
sg13
Nsg14
(lp301
(i__main__
Token
p302
(dp303
g18
I76
sba(i__main__
Token
p304
(dp305
g18
I77
sbasg19
I77
sba(i__main__
Mention
p306
(dp307
g7
S't4'
p308
sg9
S'Coreference-Identity'
p309
sg10
S'i45'
p310
sg12
S'i15'
p311
sg13
Nsg14
(lp312
(i__main__
Token
p313
(dp314
g18
I140
sba(i__main__
Token
p315
(dp316
g18
I141
sbasg19
I141
sbasg7
g288
sg47
Nsba(i__main__
Chain
p317
(dp318
g3
(lp319
(i__main__
Mention
p320
(dp321
g7
S't5'
p322
sg9
Nsg10
S'i10'
p323
sg12
Nsg13
Nsg14
(lp324
(i__main__
Token
p325
(dp326
g18
I53
sba(i__main__
Token
p327
(dp328
g18
I54
sba(i__main__
Token
p329
(dp330
g18
I55
sba(i__main__
Token
p331
(dp332
g18
I56
sbasg19
I56
sba(i__main__
Mention
p333
(dp334
g7
S't5'
p335
sg9
S'Coreference-Noun-Noun'
p336
sg10
S'i19'
p337
sg12
S'i10'
p338
sg13
Nsg14
(lp339
(i__main__
Token
p340
(dp341
g18
I87
sba(i__main__
Token
p342
(dp343
g18
I88
sbasg19
I88
sba(i__main__
Mention
p344
(dp345
g7
S't5'
p346
sg9
S'Coreference-Identity'
p347
sg10
S'i25'
p348
sg12
S'i19'
p349
sg13
Nsg14
(lp350
(i__main__
Token
p351
(dp352
g18
I100
sba(i__main__
Token
p353
(dp354
g18
I101
sbasg19
I101
sba(i__main__
Mention
p355
(dp356
g7
S't5'
p357
sg9
S'Coreference-Noun-Noun'
p358
sg10
S'i46'
p359
sg12
S'i25'
p360
sg13
Nsg14
(lp361
(i__main__
Token
p362
(dp363
g18
I151
sbasg19
I151
sbasg7
g322
sg47
Nsba(i__main__
Chain
p364
(dp365
g3
(lp366
(i__main__
Mention
p367
(dp368
g7
S't6'
p369
sg9
Nsg10
S'i11'
p370
sg12
Nsg13
Nsg14
(lp371
(i__main__
Token
p372
(dp373
g18
I59
sba(i__main__
Token
p374
(dp375
g18
I60
sba(i__main__
Token
p376
(dp377
g18
I61
sba(i__main__
Token
p378
(dp379
g18
I62
sba(i__main__
Token
p380
(dp381
g18
I63
sbasg19
I63
sba(i__main__
Mention
p382
(dp383
g7
S't6'
p384
sg9
S'Coreference-Identity'
p385
sg10
S'i23'
p386
sg12
S'i11'
p387
sg13
Nsg14
(lp388
(i__main__
Token
p389
(dp390
g18
I95
sbasg19
I95
sba(i__main__
Mention
p391
(dp392
g7
S't6'
p393
sg9
S'Coreference-Identity'
p394
sg10
S'i26'
p395
sg12
S'i23'
p396
sg13
Nsg14
(lp397
(i__main__
Token
p398
(dp399
g18
I103
sbasg19
I103
sba(i__main__
Mention
p400
(dp401
g7
S't6'
p402
sg9
S'Coreference-Identity'
p403
sg10
S'i48'
p404
sg12
S'i26'
p405
sg13
Nsg14
(lp406
(i__main__
Token
p407
(dp408
g18
I156
sbasg19
I156
sbasg7
g369
sg47
Nsba(i__main__
Chain
p409
(dp410
g3
(lp411
(i__main__
Mention
p412
(dp413
g7
S't7'
p414
sg9
Nsg10
S'i13'
p415
sg12
Nsg13
Nsg14
(lp416
(i__main__
Token
p417
(dp418
g18
I68
sba(i__main__
Token
p419
(dp420
g18
I69
sbasg19
I69
sba(i__main__
Mention
p421
(dp422
g7
S't7'
p423
sg9
S'Coreference-Identity'
p424
sg10
S'i22'
p425
sg12
S'i13'
p426
sg13
Nsg14
(lp427
(i__main__
Token
p428
(dp429
g18
I92
sba(i__main__
Token
p430
(dp431
g18
I93
sbasg19
I93
sba(i__main__
Mention
p432
(dp433
g7
S't7'
p434
sg9
S'Coreference-Identity'
p435
sg10
S'i47'
p436
sg12
S'i22'
p437
sg13
Nsg14
(lp438
(i__main__
Token
p439
(dp440
g18
I153
sba(i__main__
Token
p441
(dp442
g18
I154
sbasg19
I154
sba(i__main__
Mention
p443
(dp444
g7
S't7'
p445
sg9
S'Coreference-Identity'
p446
sg10
S'i82'
p447
sg12
S'i47'
p448
sg13
Nsg14
(lp449
(i__main__
Token
p450
(dp451
g18
I329
sba(i__main__
Token
p452
(dp453
g18
I330
sbasg19
I330
sbasg7
g414
sg47
Nsba(i__main__
Chain
p454
(dp455
g3
(lp456
(i__main__
Mention
p457
(dp458
g7
S't8'
p459
sg9
Nsg10
S'i16'
p460
sg12
Nsg13
Nsg14
(lp461
(i__main__
Token
p462
(dp463
g18
I82
sbasg19
I82
sbasg7
g459
sg47
Nsba(i__main__
Chain
p464
(dp465
g3
(lp466
(i__main__
Mention
p467
(dp468
g7
S't9'
p469
sg9
Nsg10
S'i17'
p470
sg12
Nsg13
Nsg14
(lp471
(i__main__
Token
p472
(dp473
g18
I86
sbasg19
I86
sba(i__main__
Mention
p474
(dp475
g7
S't9'
p476
sg9
S'Anaphora-RE'
p477
sg10
S'i20'
p478
sg12
S'i17'
p479
sg13
Nsg14
(lp480
(i__main__
Token
p481
(dp482
g18
I87
sba(i__main__
Token
p483
(dp484
g18
I88
sba(i__main__
Token
p485
(dp486
g18
I89
sba(i__main__
Token
p487
(dp488
g18
I90
sba(i__main__
Token
p489
(dp490
g18
I91
sba(i__main__
Token
p491
(dp492
g18
I92
sba(i__main__
Token
p493
(dp494
g18
I93
sba(i__main__
Token
p495
(dp496
g18
I94
sba(i__main__
Token
p497
(dp498
g18
I95
sba(i__main__
Token
p499
(dp500
g18
I96
sba(i__main__
Token
p501
(dp502
g18
I97
sba(i__main__
Token
p503
(dp504
g18
I98
sbasg19
I96
sbasg7
g469
sg47
Nsba(i__main__
Chain
p505
(dp506
g3
(lp507
(i__main__
Mention
p508
(dp509
g7
S't10'
p510
sg9
Nsg10
S'i27'
p511
sg12
Nsg13
Nsg14
(lp512
(i__main__
Token
p513
(dp514
g18
I106
sbasg19
I106
sba(i__main__
Mention
p515
(dp516
g7
S't10'
p517
sg9
S'Coreference-Identity'
p518
sg10
S'i54'
p519
sg12
S'i27'
p520
sg13
Nsg14
(lp521
(i__main__
Token
p522
(dp523
g18
I175
sbasg19
I175
sbasg7
g510
sg47
Nsba(i__main__
Chain
p524
(dp525
g3
(lp526
(i__main__
Mention
p527
(dp528
g7
S't11'
p529
sg9
Nsg10
S'i28'
p530
sg12
Nsg13
Nsg14
(lp531
(i__main__
Token
p532
(dp533
g18
I108
sba(i__main__
Token
p534
(dp535
g18
I109
sba(i__main__
Token
p536
(dp537
g18
I110
sbasg19
Nsba(i__main__
Mention
p538
(dp539
g7
S't11'
p540
sg9
S'Coreference-NounComplement'
p541
sg10
S'i32'
p542
sg12
S'i28'
p543
sg13
Nsg14
(lp544
(i__main__
Token
p545
(dp546
g18
I111
sba(i__main__
Token
p547
(dp548
g18
I112
sbasg19
I112
sba(i__main__
Mention
p549
(dp550
g7
S't11'
p551
sg9
Nsg10
S'i35'
p552
sg12
Nsg13
Nsg14
(lp553
(i__main__
Token
p554
(dp555
g18
I120
sbasg19
Nsba(i__main__
Mention
p556
(dp557
g7
S't11'
p558
sg9
Nsg10
S'i38'
p559
sg12
Nsg13
Nsg14
(lp560
(i__main__
Token
p561
(dp562
g18
I128
sba(i__main__
Token
p563
(dp564
g18
I129
sba(i__main__
Token
p565
(dp566
g18
I130
sbasg19
Nsba(i__main__
Mention
p567
(dp568
g7
S't11'
p569
sg9
Nsg10
S'i41'
p570
sg12
Nsg13
Nsg14
(lp571
(i__main__
Token
p572
(dp573
g18
I135
sbasg19
Nsbasg7
g529
sg47
Nsba(i__main__
Chain
p574
(dp575
g3
(lp576
(i__main__
Mention
p577
(dp578
g7
S't12'
p579
sg9
Nsg10
S'i29'
p580
sg12
Nsg13
Nsg14
(lp581
(i__main__
Token
p582
(dp583
g18
I108
sba(i__main__
Token
p584
(dp585
g18
I109
sba(i__main__
Token
p586
(dp587
g18
I110
sbasg19
Nsba(i__main__
Mention
p588
(dp589
g7
S't12'
p590
sg9
S'Coreference-NounComplement'
p591
sg10
S'i33'
p592
sg12
S'i29'
p593
sg13
Nsg14
(lp594
(i__main__
Token
p595
(dp596
g18
I114
sba(i__main__
Token
p597
(dp598
g18
I115
sbasg19
I115
sba(i__main__
Mention
p599
(dp600
g7
S't12'
p601
sg9
Nsg10
S'i36'
p602
sg12
Nsg13
Nsg14
(lp603
(i__main__
Token
p604
(dp605
g18
I120
sbasg19
Nsba(i__main__
Mention
p606
(dp607
g7
S't12'
p608
sg9
Nsg10
S'i39'
p609
sg12
Nsg13
Nsg14
(lp610
(i__main__
Token
p611
(dp612
g18
I128
sba(i__main__
Token
p613
(dp614
g18
I129
sba(i__main__
Token
p615
(dp616
g18
I130
sbasg19
Nsba(i__main__
Mention
p617
(dp618
g7
S't12'
p619
sg9
Nsg10
S'i43'
p620
sg12
Nsg13
Nsg14
(lp621
(i__main__
Token
p622
(dp623
g18
I135
sbasg19
Nsbasg7
g579
sg47
Nsba(i__main__
Chain
p624
(dp625
g3
(lp626
(i__main__
Mention
p627
(dp628
g7
S't13'
p629
sg9
Nsg10
S'i30'
p630
sg12
Nsg13
Nsg14
(lp631
(i__main__
Token
p632
(dp633
g18
I108
sba(i__main__
Token
p634
(dp635
g18
I109
sba(i__main__
Token
p636
(dp637
g18
I110
sbasg19
Nsba(i__main__
Mention
p638
(dp639
g7
S't13'
p640
sg9
S'Coreference-NounComplement'
p641
sg10
S'i34'
p642
sg12
S'i30'
p643
sg13
Nsg14
(lp644
(i__main__
Token
p645
(dp646
g18
I117
sba(i__main__
Token
p647
(dp648
g18
I118
sbasg19
I118
sba(i__main__
Mention
p649
(dp650
g7
S't13'
p651
sg9
Nsg10
S'i37'
p652
sg12
Nsg13
Nsg14
(lp653
(i__main__
Token
p654
(dp655
g18
I120
sbasg19
Nsba(i__main__
Mention
p656
(dp657
g7
S't13'
p658
sg9
Nsg10
S'i40'
p659
sg12
Nsg13
Nsg14
(lp660
(i__main__
Token
p661
(dp662
g18
I128
sba(i__main__
Token
p663
(dp664
g18
I129
sba(i__main__
Token
p665
(dp666
g18
I130
sbasg19
Nsba(i__main__
Mention
p667
(dp668
g7
S't13'
p669
sg9
Nsg10
S'i42'
p670
sg12
Nsg13
Nsg14
(lp671
(i__main__
Token
p672
(dp673
g18
I135
sbasg19
Nsbasg7
g629
sg47
Nsba(i__main__
Chain
p674
(dp675
g3
(lp676
(i__main__
Mention
p677
(dp678
g7
S't14'
p679
sg9
Nsg10
S'i50'
p680
sg12
Nsg13
Nsg14
(lp681
(i__main__
Token
p682
(dp683
g18
I161
sba(i__main__
Token
p684
(dp685
g18
I162
sbasg19
I162
sba(i__main__
Mention
p686
(dp687
g7
S't14'
p688
sg9
S'Coreference-Identity'
p689
sg10
S'i52'
p690
sg12
S'i50'
p691
sg13
Nsg14
(lp692
(i__main__
Token
p693
(dp694
g18
I171
sba(i__main__
Token
p695
(dp696
g18
I172
sbasg19
I172
sbasg7
g679
sg47
Nsba(i__main__
Chain
p697
(dp698
g3
(lp699
(i__main__
Mention
p700
(dp701
g7
S't15'
p702
sg9
Nsg10
S'i51'
p703
sg12
Nsg13
Nsg14
(lp704
(i__main__
Token
p705
(dp706
g18
I164
sbasg19
I164
sba(i__main__
Mention
p707
(dp708
g7
S't15'
p709
sg9
S'Coreference-Identity'
p710
sg10
S'i53'
p711
sg12
S'i51'
p712
sg13
Nsg14
(lp713
(i__main__
Token
p714
(dp715
g18
I174
sbasg19
I174
sba(i__main__
Mention
p716
(dp717
g7
S't15'
p718
sg9
S'Anaphora-C'
p719
sg10
S'i56'
p720
sg12
S'i53'
p721
sg13
Nsg14
(lp722
(i__main__
Token
p723
(dp724
g18
I193
sbasg19
I193
sbasg7
g702
sg47
Nsba(i__main__
Chain
p725
(dp726
g3
(lp727
(i__main__
Mention
p728
(dp729
g7
S't16'
p730
sg9
Nsg10
S'i59'
p731
sg12
Nsg13
Nsg14
(lp732
(i__main__
Token
p733
(dp734
g18
I226
sba(i__main__
Token
p735
(dp736
g18
I227
sba(i__main__
Token
p737
(dp738
g18
I228
sba(i__main__
Token
p739
(dp740
g18
I229
sba(i__main__
Token
p741
(dp742
g18
I230
sbasg19
I230
sba(i__main__
Mention
p743
(dp744
g7
S't16'
p745
sg9
S'Coreference-Identity'
p746
sg10
S'i60'
p747
sg12
S'i59'
p748
sg13
Nsg14
(lp749
(i__main__
Token
p750
(dp751
g18
I239
sbasg19
I239
sba(i__main__
Mention
p752
(dp753
g7
S't16'
p754
sg9
S'Coreference-Identity'
p755
sg10
S'i64'
p756
sg12
S'i60'
p757
sg13
Nsg14
(lp758
(i__main__
Token
p759
(dp760
g18
I252
sbasg19
I252
sba(i__main__
Mention
p761
(dp762
g7
S't16'
p763
sg9
S'Coreference-Identity'
p764
sg10
S'i67'
p765
sg12
S'i64'
p766
sg13
Nsg14
(lp767
(i__main__
Token
p768
(dp769
g18
I267
sbasg19
I267
sbasg7
g730
sg47
Nsba(i__main__
Chain
p770
(dp771
g3
(lp772
(i__main__
Mention
p773
(dp774
g7
S't17'
p775
sg9
Nsg10
S'i62'
p776
sg12
Nsg13
Nsg14
(lp777
(i__main__
Token
p778
(dp779
g18
I243
sbasg19
I243
sbasg7
g775
sg47
Nsba(i__main__
Chain
p780
(dp781
g3
(lp782
(i__main__
Mention
p783
(dp784
g7
S't18'
p785
sg9
Nsg10
S'i63'
p786
sg12
Nsg13
Nsg14
(lp787
(i__main__
Token
p788
(dp789
g18
I249
sbasg19
I249
sba(i__main__
Mention
p790
(dp791
g7
S't18'
p792
sg9
S'Coreference-Identity'
p793
sg10
S'i65'
p794
sg12
S'i63'
p795
sg13
Nsg14
(lp796
(i__main__
Token
p797
(dp798
g18
I254
sba(i__main__
Token
p799
(dp800
g18
I255
sbasg19
I255
sbasg7
g785
sg47
Nsba(i__main__
Chain
p801
(dp802
g3
(lp803
(i__main__
Mention
p804
(dp805
g7
S't19'
p806
sg9
Nsg10
S'i70'
p807
sg12
Nsg13
Nsg14
(lp808
(i__main__
Token
p809
(dp810
g18
I293
sbasg19
I293
sba(i__main__
Mention
p811
(dp812
g7
S't19'
p813
sg9
S'Anaphora-RE'
p814
sg10
S'i72'
p815
sg12
S'i70'
p816
sg13
Nsg14
(lp817
(i__main__
Token
p818
(dp819
g18
I296
sba(i__main__
Token
p820
(dp821
g18
I297
sba(i__main__
Token
p822
(dp823
g18
I298
sba(i__main__
Token
p824
(dp825
g18
I299
sba(i__main__
Token
p826
(dp827
g18
I300
sba(i__main__
Token
p828
(dp829
g18
I301
sba(i__main__
Token
p830
(dp831
g18
I302
sba(i__main__
Token
p832
(dp833
g18
I303
sba(i__main__
Token
p834
(dp835
g18
I304
sba(i__main__
Token
p836
(dp837
g18
I305
sba(i__main__
Token
p838
(dp839
g18
I306
sba(i__main__
Token
p840
(dp841
g18
I307
sba(i__main__
Token
p842
(dp843
g18
I308
sba(i__main__
Token
p844
(dp845
g18
I309
sba(i__main__
Token
p846
(dp847
g18
I310
sba(i__main__
Token
p848
(dp849
g18
I311
sba(i__main__
Token
p850
(dp851
g18
I312
sba(i__main__
Token
p852
(dp853
g18
I313
sba(i__main__
Token
p854
(dp855
g18
I314
sba(i__main__
Token
p856
(dp857
g18
I315
sba(i__main__
Token
p858
(dp859
g18
I316
sba(i__main__
Token
p860
(dp861
g18
I317
sba(i__main__
Token
p862
(dp863
g18
I318
sba(i__main__
Token
p864
(dp865
g18
I319
sba(i__main__
Token
p866
(dp867
g18
I320
sbasg19
I320
sbasg7
g806
sg47
Nsba(i__main__
Chain
p868
(dp869
g3
(lp870
(i__main__
Mention
p871
(dp872
g7
S't20'
p873
sg9
Nsg10
S'i75'
p874
sg12
Nsg13
Nsg14
(lp875
(i__main__
Token
p876
(dp877
g18
I306
sbasg19
I306
sbasg7
g873
sg47
Nsba(i__main__
Chain
p878
(dp879
g3
(lp880
(i__main__
Mention
p881
(dp882
g7
S't21'
p883
sg9
Nsg10
S'i76'
p884
sg12
Nsg13
Nsg14
(lp885
(i__main__
Token
p886
(dp887
g18
I307
sbasg19
I307
sba(i__main__
Mention
p888
(dp889
g7
S't21'
p890
sg9
S'Anaphora-C'
p891
sg10
S'i77'
p892
sg12
S'i76'
p893
sg13
Nsg14
(lp894
(i__main__
Token
p895
(dp896
g18
I310
sbasg19
I310
sbasg7
g883
sg47
Nsba(i__main__
Chain
p897
(dp898
g3
(lp899
(i__main__
Mention
p900
(dp901
g7
S't22'
p902
sg9
Nsg10
S'i81'
p903
sg12
Nsg13
Nsg14
(lp904
(i__main__
Token
p905
(dp906
g18
I327
sbasg19
I327
sbasg7
g902
sg47
Nsba(i__main__
Chain
p907
(dp908
g3
(lp909
(i__main__
Mention
p910
(dp911
g7
S't23'
p912
sg9
Nsg10
S'i85'
p913
sg12
Nsg13
Nsg14
(lp914
(i__main__
Token
p915
(dp916
g18
I343
sbasg19
I343
sbasg7
g912
sg47
Nsba.