(lp0
(i__main__
Chain
p1
(dp2
S'mentionList'
p3
(lp4
(i__main__
Mention
p5
(dp6
S'chainId'
p7
S't1'
p8
sS'relType'
p9
NsS'mentionId'
p10
S'i1'
p11
sS'antecedentId'
p12
NsS'crefMod'
p13
NsS'tokenList'
p14
(lp15
(i__main__
Token
p16
(dp17
S'tokenId'
p18
I0
sba(i__main__
Token
p19
(dp20
g18
I1
sba(i__main__
Token
p21
(dp22
g18
I2
sba(i__main__
Token
p23
(dp24
g18
I3
sba(i__main__
Token
p25
(dp26
g18
I4
sbasS'mentionHead'
p27
I1
sba(i__main__
Mention
p28
(dp29
g7
S't1'
p30
sg9
S'Coreference-Bracketed/Abbraviation'
p31
sg10
S'i12'
p32
sg12
S'i1'
p33
sg13
Nsg14
(lp34
(i__main__
Token
p35
(dp36
g18
I64
sba(i__main__
Token
p37
(dp38
g18
I65
sba(i__main__
Token
p39
(dp40
g18
I66
sba(i__main__
Token
p41
(dp42
g18
I67
sbasg27
I64
sbasg7
g8
sS'chainHead'
p43
Nsba(i__main__
Chain
p44
(dp45
g3
(lp46
(i__main__
Mention
p47
(dp48
g7
S't2'
p49
sg9
Nsg10
S'i2'
p50
sg12
Nsg13
Nsg14
(lp51
(i__main__
Token
p52
(dp53
g18
I8
sbasg27
I8
sba(i__main__
Mention
p54
(dp55
g7
S't2'
p56
sg9
S'Coreference-Noun-Noun'
p57
sg10
S'i10'
p58
sg12
S'i2'
p59
sg13
Nsg14
(lp60
(i__main__
Token
p61
(dp62
g18
I38
sbasg27
I38
sba(i__main__
Mention
p63
(dp64
g7
S't2'
p65
sg9
S'Coreference-Noun-Noun'
p66
sg10
S'i11'
p67
sg12
S'i10'
p68
sg13
Nsg14
(lp69
(i__main__
Token
p70
(dp71
g18
I58
sbasg27
I58
sba(i__main__
Mention
p72
(dp73
g7
S't2'
p74
sg9
S'Coreference-Identity'
p75
sg10
S'i41'
p76
sg12
S'i11'
p77
sg13
Nsg14
(lp78
(i__main__
Token
p79
(dp80
g18
I224
sbasg27
I224
sbasg7
g49
sg43
Nsba(i__main__
Chain
p81
(dp82
g3
(lp83
(i__main__
Mention
p84
(dp85
g7
S't3'
p86
sg9
Nsg10
S'i3'
p87
sg12
Nsg13
Nsg14
(lp88
(i__main__
Token
p89
(dp90
g18
I8
sba(i__main__
Token
p91
(dp92
g18
I9
sbasg27
I9
sba(i__main__
Mention
p93
(dp94
g7
S't3'
p95
sg9
S'Coreference-Identity'
p96
sg10
S'i9'
p97
sg12
S'i3'
p98
sg13
Nsg14
(lp99
(i__main__
Token
p100
(dp101
g18
I38
sba(i__main__
Token
p102
(dp103
g18
I39
sbasg27
I39
sba(i__main__
Mention
p104
(dp105
g7
S't3'
p106
sg9
S'Coreference-Identity'
p107
sg10
S'i13'
p108
sg12
S'i9'
p109
sg13
Nsg14
(lp110
(i__main__
Token
p111
(dp112
g18
I72
sbasg27
I72
sba(i__main__
Mention
p113
(dp114
g7
S't3'
p115
sg9
S'Anaphora-C'
p116
sg10
S'i14'
p117
sg12
S'i13'
p118
sg13
Nsg14
(lp119
(i__main__
Token
p120
(dp121
g18
I75
sbasg27
I75
sba(i__main__
Mention
p122
(dp123
g7
S't3'
p124
sg9
S'Anaphora-C'
p125
sg10
S'i15'
p126
sg12
S'i14'
p127
sg13
Nsg14
(lp128
(i__main__
Token
p129
(dp130
g18
I79
sbasg27
I79
sba(i__main__
Mention
p131
(dp132
g7
S't3'
p133
sg9
S'Coreference-Identity'
p134
sg10
S'i16'
p135
sg12
S'i15'
p136
sg13
Nsg14
(lp137
(i__main__
Token
p138
(dp139
g18
I84
sba(i__main__
Token
p140
(dp141
g18
I85
sba(i__main__
Token
p142
(dp143
g18
I86
sbasg27
I86
sba(i__main__
Mention
p144
(dp145
g7
S't3'
p146
sg9
S'Anaphora-C'
p147
sg10
S'i19'
p148
sg12
S'i16'
p149
sg13
Nsg14
(lp150
(i__main__
Token
p151
(dp152
g18
I93
sbasg27
I93
sba(i__main__
Mention
p153
(dp154
g7
S't3'
p155
sg9
S'Coreference-Identity'
p156
sg10
S'i24'
p157
sg12
S'i19'
p158
sg13
Nsg14
(lp159
(i__main__
Token
p160
(dp161
g18
I126
sba(i__main__
Token
p162
(dp163
g18
I127
sba(i__main__
Token
p164
(dp165
g18
I128
sbasg27
I128
sba(i__main__
Mention
p166
(dp167
g7
S't3'
p168
sg9
S'Anaphora-C'
p169
sg10
S'i27'
p170
sg12
S'i24'
p171
sg13
Nsg14
(lp172
(i__main__
Token
p173
(dp174
g18
I135
sbasg27
I135
sbasg7
g86
sg43
Nsba(i__main__
Chain
p175
(dp176
g3
(lp177
(i__main__
Mention
p178
(dp179
g7
S't4'
p180
sg9
Nsg10
S'i4'
p181
sg12
Nsg13
Nsg14
(lp182
(i__main__
Token
p183
(dp184
g18
I13
sba(i__main__
Token
p185
(dp186
g18
I14
sbasg27
I14
sba(i__main__
Mention
p187
(dp188
g7
S't4'
p189
sg9
S'Anaphora-C'
p190
sg10
S'i5'
p191
sg12
S'i4'
p192
sg13
Nsg14
(lp193
(i__main__
Token
p194
(dp195
g18
I18
sbasg27
I18
sba(i__main__
Mention
p196
(dp197
g7
S't4'
p198
sg9
S'Coreference-Identity'
p199
sg10
S'i18'
p200
sg12
S'i5'
p201
sg13
Nsg14
(lp202
(i__main__
Token
p203
(dp204
g18
I88
sba(i__main__
Token
p205
(dp206
g18
I89
sbasg27
I89
sbasg7
g180
sg43
Nsba(i__main__
Chain
p207
(dp208
g3
(lp209
(i__main__
Mention
p210
(dp211
g7
S't5'
p212
sg9
Nsg10
S'i6'
p213
sg12
Nsg13
Nsg14
(lp214
(i__main__
Token
p215
(dp216
g18
I19
sba(i__main__
Token
p217
(dp218
g18
I20
sbasg27
I20
sba(i__main__
Mention
p219
(dp220
g7
S't5'
p221
sg9
S'Coreference-Noun-Noun'
p222
sg10
S'i7'
p223
sg12
S'i6'
p224
sg13
Nsg14
(lp225
(i__main__
Token
p226
(dp227
g18
I22
sba(i__main__
Token
p228
(dp229
g18
I23
sbasg27
I23
sba(i__main__
Mention
p230
(dp231
g7
S't5'
p232
sg9
S'Coreference-NounComplement'
p233
sg10
S'i8'
p234
sg12
S'i7'
p235
sg13
Nsg14
(lp236
(i__main__
Token
p237
(dp238
g18
I24
sba(i__main__
Token
p239
(dp240
g18
I25
sbasg27
I25
sba(i__main__
Mention
p241
(dp242
g7
S't5'
p243
sg9
S'Coreference-Noun-Noun'
p244
sg10
S'i20'
p245
sg12
S'i8'
p246
sg13
Nsg14
(lp247
(i__main__
Token
p248
(dp249
g18
I94
sba(i__main__
Token
p250
(dp251
g18
I95
sba(i__main__
Token
p252
(dp253
g18
I96
sbasg27
I96
sba(i__main__
Mention
p254
(dp255
g7
S't5'
p256
sg9
S'Coreference-Noun-Noun'
p257
sg10
S'i21'
p258
sg12
S'i20'
p259
sg13
Nsg14
(lp260
(i__main__
Token
p261
(dp262
g18
I106
sbasg27
I106
sba(i__main__
Mention
p263
(dp264
g7
S't5'
p265
sg9
S'Coreference-Identity'
p266
sg10
S'i29'
p267
sg12
S'i21'
p268
sg13
Nsg14
(lp269
(i__main__
Token
p270
(dp271
g18
I141
sbasg27
I141
sba(i__main__
Mention
p272
(dp273
g7
S't5'
p274
sg9
S'Coreference-Identity'
p275
sg10
S'i31'
p276
sg12
S'i29'
p277
sg13
Nsg14
(lp278
(i__main__
Token
p279
(dp280
g18
I154
sbasg27
I154
sba(i__main__
Mention
p281
(dp282
g7
S't5'
p283
sg9
S'Coreference-Identity'
p284
sg10
S'i35'
p285
sg12
S'i31'
p286
sg13
Nsg14
(lp287
(i__main__
Token
p288
(dp289
g18
I174
sbasg27
I174
sba(i__main__
Mention
p290
(dp291
g7
S't5'
p292
sg9
S'Coreference-Identity'
p293
sg10
S'i48'
p294
sg12
S'i35'
p295
sg13
Nsg14
(lp296
(i__main__
Token
p297
(dp298
g18
I266
sbasg27
I266
sbasg7
g212
sg43
Nsba(i__main__
Chain
p299
(dp300
g3
(lp301
(i__main__
Mention
p302
(dp303
g7
S't6'
p304
sg9
Nsg10
S'i17'
p305
sg12
Nsg13
Nsg14
(lp306
(i__main__
Token
p307
(dp308
g18
I84
sba(i__main__
Token
p309
(dp310
g18
I85
sbasg27
I85
sba(i__main__
Mention
p311
(dp312
g7
S't6'
p313
sg9
S'Coreference-Identity'
p314
sg10
S'i25'
p315
sg12
S'i17'
p316
sg13
Nsg14
(lp317
(i__main__
Token
p318
(dp319
g18
I126
sba(i__main__
Token
p320
(dp321
g18
I127
sbasg27
I127
sbasg7
g304
sg43
Nsba(i__main__
Chain
p322
(dp323
g3
(lp324
(i__main__
Mention
p325
(dp326
g7
S't7'
p327
sg9
Nsg10
S'i22'
p328
sg12
Nsg13
Nsg14
(lp329
(i__main__
Token
p330
(dp331
g18
I109
sbasg27
I109
sba(i__main__
Mention
p332
(dp333
g7
S't7'
p334
sg9
S'Coreference-Identity'
p335
sg10
S'i23'
p336
sg12
S'i22'
p337
sg13
Nsg14
(lp338
(i__main__
Token
p339
(dp340
g18
I121
sbasg27
I121
sbasg7
g327
sg43
Nsba(i__main__
Chain
p341
(dp342
g3
(lp343
(i__main__
Mention
p344
(dp345
g7
S't8'
p346
sg9
Nsg10
S'i26'
p347
sg12
Nsg13
Nsg14
(lp348
(i__main__
Token
p349
(dp350
g18
I130
sba(i__main__
Token
p351
(dp352
g18
I131
sbasg27
I131
sba(i__main__
Mention
p353
(dp354
g7
S't8'
p355
sg9
S'Coreference-Identity'
p356
sg10
S'i44'
p357
sg12
S'i26'
p358
sg13
Nsg14
(lp359
(i__main__
Token
p360
(dp361
g18
I237
sba(i__main__
Token
p362
(dp363
g18
I238
sbasg27
I238
sba(i__main__
Mention
p364
(dp365
g7
S't8'
p366
sg9
S'Coreference-Identity'
p367
sg10
S'i47'
p368
sg12
S'i44'
p369
sg13
Nsg14
(lp370
(i__main__
Token
p371
(dp372
g18
I260
sba(i__main__
Token
p373
(dp374
g18
I261
sbasg27
I261
sbasg7
g346
sg43
Nsba(i__main__
Chain
p375
(dp376
g3
(lp377
(i__main__
Mention
p378
(dp379
g7
S't9'
p380
sg9
Nsg10
S'i28'
p381
sg12
Nsg13
Nsg14
(lp382
(i__main__
Token
p383
(dp384
g18
I136
sba(i__main__
Token
p385
(dp386
g18
I137
sbasg27
I137
sba(i__main__
Mention
p387
(dp388
g7
S't9'
p389
sg9
S'Coreference-Identity'
p390
sg10
S'i33'
p391
sg12
S'i28'
p392
sg13
Nsg14
(lp393
(i__main__
Token
p394
(dp395
g18
I168
sba(i__main__
Token
p396
(dp397
g18
I169
sbasg27
I169
sbasg7
g380
sg43
Nsba(i__main__
Chain
p398
(dp399
g3
(lp400
(i__main__
Mention
p401
(dp402
g7
S't10'
p403
sg9
Nsg10
S'i30'
p404
sg12
Nsg13
Nsg14
(lp405
(i__main__
Token
p406
(dp407
g18
I151
sba(i__main__
Token
p408
(dp409
g18
I152
sbasg27
I152
sba(i__main__
Mention
p410
(dp411
g7
S't10'
p412
sg9
S'Coreference-Identity'
p413
sg10
S'i32'
p414
sg12
S'i30'
p415
sg13
Nsg14
(lp416
(i__main__
Token
p417
(dp418
g18
I168
sba(i__main__
Token
p419
(dp420
g18
I169
sba(i__main__
Token
p421
(dp422
g18
I170
sbasg27
I170
sba(i__main__
Mention
p423
(dp424
g7
S't10'
p425
sg9
S'Coreference-Identity'
p426
sg10
S'i36'
p427
sg12
S'i32'
p428
sg13
Nsg14
(lp429
(i__main__
Token
p430
(dp431
g18
I186
sba(i__main__
Token
p432
(dp433
g18
I187
sba(i__main__
Token
p434
(dp435
g18
I188
sbasg27
I188
sbasg7
g403
sg43
Nsba(i__main__
Chain
p436
(dp437
g3
(lp438
(i__main__
Mention
p439
(dp440
g7
S't11'
p441
sg9
Nsg10
S'i34'
p442
sg12
Nsg13
Nsg14
(lp443
(i__main__
Token
p444
(dp445
g18
I172
sbasg27
I172
sba(i__main__
Mention
p446
(dp447
g7
S't11'
p448
sg9
S'Coreference-Identity'
p449
sg10
S'i45'
p450
sg12
S'i34'
p451
sg13
Nsg14
(lp452
(i__main__
Token
p453
(dp454
g18
I243
sbasg27
I243
sbasg7
g441
sg43
Nsba(i__main__
Chain
p455
(dp456
g3
(lp457
(i__main__
Mention
p458
(dp459
g7
S't12'
p460
sg9
Nsg10
S'i37'
p461
sg12
Nsg13
Nsg14
(lp462
(i__main__
Token
p463
(dp464
g18
I193
sba(i__main__
Token
p465
(dp466
g18
I194
sba(i__main__
Token
p467
(dp468
g18
I195
sba(i__main__
Token
p469
(dp470
g18
I196
sba(i__main__
Token
p471
(dp472
g18
I197
sba(i__main__
Token
p473
(dp474
g18
I198
sba(i__main__
Token
p475
(dp476
g18
I199
sba(i__main__
Token
p477
(dp478
g18
I200
sba(i__main__
Token
p479
(dp480
g18
I201
sba(i__main__
Token
p481
(dp482
g18
I202
sba(i__main__
Token
p483
(dp484
g18
I203
sba(i__main__
Token
p485
(dp486
g18
I204
sba(i__main__
Token
p487
(dp488
g18
I205
sba(i__main__
Token
p489
(dp490
g18
I206
sba(i__main__
Token
p491
(dp492
g18
I207
sbasg27
I205
sba(i__main__
Mention
p493
(dp494
g7
S't12'
p495
sg9
S'Anaphora-E'
p496
sg10
S'i40'
p497
sg12
S'i37'
p498
sg13
Nsg14
(lp499
(i__main__
Token
p500
(dp501
g18
I209
sbasg27
I209
sbasg7
g460
sg43
Nsba(i__main__
Chain
p502
(dp503
g3
(lp504
(i__main__
Mention
p505
(dp506
g7
S't13'
p507
sg9
Nsg10
S'i38'
p508
sg12
Nsg13
Nsg14
(lp509
(i__main__
Token
p510
(dp511
g18
I199
sbasg27
I199
sbasg7
g507
sg43
Nsba(i__main__
Chain
p512
(dp513
g3
(lp514
(i__main__
Mention
p515
(dp516
g7
S't14'
p517
sg9
Nsg10
S'i39'
p518
sg12
Nsg13
Nsg14
(lp519
(i__main__
Token
p520
(dp521
g18
I201
sbasg27
I201
sbasg7
g517
sg43
Nsba(i__main__
Chain
p522
(dp523
g3
(lp524
(i__main__
Mention
p525
(dp526
g7
S't15'
p527
sg9
Nsg10
S'i42'
p528
sg12
Nsg13
Nsg14
(lp529
(i__main__
Token
p530
(dp531
g18
I229
sba(i__main__
Token
p532
(dp533
g18
I230
sbasg27
I230
sba(i__main__
Mention
p534
(dp535
g7
S't15'
p536
sg9
S'Coreference-NounComplement'
p537
sg10
S'i43'
p538
sg12
S'i42'
p539
sg13
Nsg14
(lp540
(i__main__
Token
p541
(dp542
g18
I231
sba(i__main__
Token
p543
(dp544
g18
I232
sbasg27
I232
sbasg7
g527
sg43
Nsba(i__main__
Chain
p545
(dp546
g3
(lp547
(i__main__
Mention
p548
(dp549
g7
S't16'
p550
sg9
Nsg10
S'i46'
p551
sg12
Nsg13
Nsg14
(lp552
(i__main__
Token
p553
(dp554
g18
I255
sbasg27
I255
sbasg7
g550
sg43
Nsba.