(lp0
(i__main__
Chain
p1
(dp2
S'mentionList'
p3
(lp4
(i__main__
Mention
p5
(dp6
S'chainId'
p7
S't1'
p8
sS'relType'
p9
NsS'mentionId'
p10
S'i1'
p11
sS'antecedentId'
p12
NsS'crefMod'
p13
NsS'tokenList'
p14
(lp15
(i__main__
Token
p16
(dp17
S'tokenId'
p18
I0
sba(i__main__
Token
p19
(dp20
g18
I1
sba(i__main__
Token
p21
(dp22
g18
I2
sba(i__main__
Token
p23
(dp24
g18
I3
sbasS'mentionHead'
p25
I3
sba(i__main__
Mention
p26
(dp27
g7
S't1'
p28
sg9
S'Coreference-NounComplement'
p29
sg10
S'i3'
p30
sg12
S'i1'
p31
sg13
Nsg14
(lp32
(i__main__
Token
p33
(dp34
g18
I4
sba(i__main__
Token
p35
(dp36
g18
I5
sbasg25
I5
sba(i__main__
Mention
p37
(dp38
g7
S't1'
p39
sg9
S'Coreference-Identity'
p40
sg10
S'i13'
p41
sg12
S'i3'
p42
sg13
Nsg14
(lp43
(i__main__
Token
p44
(dp45
g18
I50
sbasg25
I50
sba(i__main__
Mention
p46
(dp47
g7
S't1'
p48
sg9
S'Anaphora-C'
p49
sg10
S'i17'
p50
sg12
S'i13'
p51
sg13
Nsg14
(lp52
(i__main__
Token
p53
(dp54
g18
I66
sbasg25
I66
sba(i__main__
Mention
p55
(dp56
g7
S't1'
p57
sg9
S'Coreference-Identity'
p58
sg10
S'i18'
p59
sg12
S'i17'
p60
sg13
Nsg14
(lp61
(i__main__
Token
p62
(dp63
g18
I70
sbasg25
I70
sba(i__main__
Mention
p64
(dp65
g7
S't1'
p66
sg9
S'Anaphora-C'
p67
sg10
S'i24'
p68
sg12
S'i18'
p69
sg13
Nsg14
(lp70
(i__main__
Token
p71
(dp72
g18
I94
sbasg25
I94
sba(i__main__
Mention
p73
(dp74
g7
S't1'
p75
sg9
S'Coreference-Identity'
p76
sg10
S'i30'
p77
sg12
S'i24'
p78
sg13
Nsg14
(lp79
(i__main__
Token
p80
(dp81
g18
I135
sbasg25
I135
sba(i__main__
Mention
p82
(dp83
g7
S't1'
p84
sg9
S'Coreference-Identity'
p85
sg10
S'i32'
p86
sg12
S'i30'
p87
sg13
Nsg14
(lp88
(i__main__
Token
p89
(dp90
g18
I151
sbasg25
I151
sbasg7
g8
sS'chainHead'
p91
Nsba(i__main__
Chain
p92
(dp93
g3
(lp94
(i__main__
Mention
p95
(dp96
g7
S't2'
p97
sg9
Nsg10
S'i2'
p98
sg12
Nsg13
Nsg14
(lp99
(i__main__
Token
p100
(dp101
g18
I0
sba(i__main__
Token
p102
(dp103
g18
I1
sba(i__main__
Token
p104
(dp105
g18
I2
sbasg25
I2
sba(i__main__
Mention
p106
(dp107
g7
S't2'
p108
sg9
S'Coreference-Identity'
p109
sg10
S'i10'
p110
sg12
S'i2'
p111
sg13
Nsg14
(lp112
(i__main__
Token
p113
(dp114
g18
I30
sbasg25
I30
sba(i__main__
Mention
p115
(dp116
g7
S't2'
p117
sg9
S'Coreference-Noun-Noun'
p118
sg10
S'i27'
p119
sg12
S'i10'
p120
sg13
Nsg14
(lp121
(i__main__
Token
p122
(dp123
g18
I108
sbasg25
I108
sba(i__main__
Mention
p124
(dp125
g7
S't2'
p126
sg9
S'Coreference-Identity'
p127
sg10
S'i34'
p128
sg12
S'i27'
p129
sg13
Nsg14
(lp130
(i__main__
Token
p131
(dp132
g18
I172
sbasg25
I172
sba(i__main__
Mention
p133
(dp134
g7
S't2'
p135
sg9
S'Coreference-Identity'
p136
sg10
S'i41'
p137
sg12
S'i34'
p138
sg13
Nsg14
(lp139
(i__main__
Token
p140
(dp141
g18
I204
sbasg25
I204
sbasg7
g97
sg91
Nsba(i__main__
Chain
p142
(dp143
g3
(lp144
(i__main__
Mention
p145
(dp146
g7
S't3'
p147
sg9
Nsg10
S'i4'
p148
sg12
Nsg13
Nsg14
(lp149
(i__main__
Token
p150
(dp151
g18
I10
sba(i__main__
Token
p152
(dp153
g18
I11
sbasg25
I11
sba(i__main__
Mention
p154
(dp155
g7
S't3'
p156
sg9
S'Coreference-NounComplement'
p157
sg10
S'i6'
p158
sg12
S'i4'
p159
sg13
Nsg14
(lp160
(i__main__
Token
p161
(dp162
g18
I12
sba(i__main__
Token
p163
(dp164
g18
I13
sba(i__main__
Token
p165
(dp166
g18
I14
sbasg25
I14
sba(i__main__
Mention
p167
(dp168
g7
S't3'
p169
sg9
S'Coreference-Identity'
p170
sg10
S'i19'
p171
sg12
S'i6'
p172
sg13
Nsg14
(lp173
(i__main__
Token
p174
(dp175
g18
I75
sba(i__main__
Token
p176
(dp177
g18
I76
sba(i__main__
Token
p178
(dp179
g18
I77
sbasg25
I77
sbasg7
g147
sg91
Nsba(i__main__
Chain
p180
(dp181
g3
(lp182
(i__main__
Mention
p183
(dp184
g7
S't4'
p185
sg9
Nsg10
S'i5'
p186
sg12
Nsg13
Nsg14
(lp187
(i__main__
Token
p188
(dp189
g18
I10
sba(i__main__
Token
p190
(dp191
g18
I11
sba(i__main__
Token
p192
(dp193
g18
I12
sba(i__main__
Token
p194
(dp195
g18
I13
sba(i__main__
Token
p196
(dp197
g18
I14
sba(i__main__
Token
p198
(dp199
g18
I15
sba(i__main__
Token
p200
(dp201
g18
I16
sba(i__main__
Token
p202
(dp203
g18
I17
sba(i__main__
Token
p204
(dp205
g18
I18
sba(i__main__
Token
p206
(dp207
g18
I19
sba(i__main__
Token
p208
(dp209
g18
I20
sba(i__main__
Token
p210
(dp211
g18
I21
sba(i__main__
Token
p212
(dp213
g18
I22
sba(i__main__
Token
p214
(dp215
g18
I23
sba(i__main__
Token
p216
(dp217
g18
I24
sba(i__main__
Token
p218
(dp219
g18
I25
sba(i__main__
Token
p220
(dp221
g18
I26
sba(i__main__
Token
p222
(dp223
g18
I27
sba(i__main__
Token
p224
(dp225
g18
I28
sbasg25
I28
sba(i__main__
Mention
p226
(dp227
g7
S't4'
p228
sg9
S'Coreference-Noun-Noun'
p229
sg10
S'i14'
p230
sg12
S'i5'
p231
sg13
Nsg14
(lp232
(i__main__
Token
p233
(dp234
g18
I52
sba(i__main__
Token
p235
(dp236
g18
I53
sbasg25
I53
sba(i__main__
Mention
p237
(dp238
g7
S't4'
p239
sg9
S'Coreference-Noun-Noun'
p240
sg10
S'i20'
p241
sg12
S'i14'
p242
sg13
Nsg14
(lp243
(i__main__
Token
p244
(dp245
g18
I75
sba(i__main__
Token
p246
(dp247
g18
I76
sba(i__main__
Token
p248
(dp249
g18
I77
sba(i__main__
Token
p250
(dp251
g18
I78
sba(i__main__
Token
p252
(dp253
g18
I79
sba(i__main__
Token
p254
(dp255
g18
I80
sba(i__main__
Token
p256
(dp257
g18
I81
sba(i__main__
Token
p258
(dp259
g18
I82
sba(i__main__
Token
p260
(dp261
g18
I83
sba(i__main__
Token
p262
(dp263
g18
I84
sba(i__main__
Token
p264
(dp265
g18
I85
sba(i__main__
Token
p266
(dp267
g18
I86
sba(i__main__
Token
p268
(dp269
g18
I87
sba(i__main__
Token
p270
(dp271
g18
I88
sba(i__main__
Token
p272
(dp273
g18
I89
sba(i__main__
Token
p274
(dp275
g18
I90
sba(i__main__
Token
p276
(dp277
g18
I91
sba(i__main__
Token
p278
(dp279
g18
I92
sbasg25
I92
sba(i__main__
Mention
p280
(dp281
g7
S't4'
p282
sg9
S'Coreference-Noun-Noun'
p283
sg10
S'i25'
p284
sg12
S'i20'
p285
sg13
Nsg14
(lp286
(i__main__
Token
p287
(dp288
g18
I98
sba(i__main__
Token
p289
(dp290
g18
I99
sbasg25
I99
sbasg7
g185
sg91
Nsba(i__main__
Chain
p291
(dp292
g3
(lp293
(i__main__
Mention
p294
(dp295
g7
S't5'
p296
sg9
Nsg10
S'i7'
p297
sg12
Nsg13
Nsg14
(lp298
(i__main__
Token
p299
(dp300
g18
I18
sbasg25
I18
sba(i__main__
Mention
p301
(dp302
g7
S't5'
p303
sg9
S'Coreference-Apposition'
p304
sg10
S'i9'
p305
sg12
S'i7'
p306
sg13
Nsg14
(lp307
(i__main__
Token
p308
(dp309
g18
I21
sba(i__main__
Token
p310
(dp311
g18
I22
sba(i__main__
Token
p312
(dp313
g18
I23
sba(i__main__
Token
p314
(dp315
g18
I24
sbasg25
I24
sba(i__main__
Mention
p316
(dp317
g7
S't5'
p318
sg9
S'Coreference-Noun-Noun'
p319
sg10
S'i11'
p320
sg12
S'i9'
p321
sg13
Nsg14
(lp322
(i__main__
Token
p323
(dp324
g18
I35
sbasg25
I35
sba(i__main__
Mention
p325
(dp326
g7
S't5'
p327
sg9
S'Coreference-Identity'
p328
sg10
S'i21'
p329
sg12
S'i11'
p330
sg13
Nsg14
(lp331
(i__main__
Token
p332
(dp333
g18
I82
sbasg25
I82
sba(i__main__
Mention
p334
(dp335
g7
S't5'
p336
sg9
S'Coreference-Apposition'
p337
sg10
S'i23'
p338
sg12
S'i21'
p339
sg13
Nsg14
(lp340
(i__main__
Token
p341
(dp342
g18
I85
sba(i__main__
Token
p343
(dp344
g18
I86
sba(i__main__
Token
p345
(dp346
g18
I87
sba(i__main__
Token
p347
(dp348
g18
I88
sbasg25
I88
sba(i__main__
Mention
p349
(dp350
g7
S't5'
p351
sg9
S'Coreference-Noun-Noun'
p352
sg10
S'i35'
p353
sg12
S'i23'
p354
sg13
Nsg14
(lp355
(i__main__
Token
p356
(dp357
g18
I180
sbasg25
I180
sba(i__main__
Mention
p358
(dp359
g7
S't5'
p360
sg9
S'Coreference-Identity'
p361
sg10
S'i39'
p362
sg12
S'i35'
p363
sg13
Nsg14
(lp364
(i__main__
Token
p365
(dp366
g18
I196
sbasg25
I196
sba(i__main__
Mention
p367
(dp368
g7
S't5'
p369
sg9
S'Coreference-Apposition'
p370
sg10
S'i40'
p371
sg12
S'i39'
p372
sg13
Nsg14
(lp373
(i__main__
Token
p374
(dp375
g18
I198
sba(i__main__
Token
p376
(dp377
g18
I199
sba(i__main__
Token
p378
(dp379
g18
I200
sba(i__main__
Token
p380
(dp381
g18
I201
sbasg25
I201
sbasg7
g296
sg91
Nsba(i__main__
Chain
p382
(dp383
g3
(lp384
(i__main__
Mention
p385
(dp386
g7
S't6'
p387
sg9
Nsg10
S'i8'
p388
sg12
Nsg13
Nsg14
(lp389
(i__main__
Token
p390
(dp391
g18
I20
sbasg25
I20
sba(i__main__
Mention
p392
(dp393
g7
S't6'
p394
sg9
S'Coreference-Identity'
p395
sg10
S'i22'
p396
sg12
S'i8'
p397
sg13
Nsg14
(lp398
(i__main__
Token
p399
(dp400
g18
I84
sbasg25
I84
sbasg7
g387
sg91
Nsba(i__main__
Chain
p401
(dp402
g3
(lp403
(i__main__
Mention
p404
(dp405
g7
S't7'
p406
sg9
Nsg10
S'i12'
p407
sg12
Nsg13
Nsg14
(lp408
(i__main__
Token
p409
(dp410
g18
I37
sbasg25
I37
sba(i__main__
Mention
p411
(dp412
g7
S't7'
p413
sg9
S'Coreference-Identity'
p414
sg10
S'i36'
p415
sg12
S'i12'
p416
sg13
Nsg14
(lp417
(i__main__
Token
p418
(dp419
g18
I182
sbasg25
I182
sbasg7
g406
sg91
Nsba(i__main__
Chain
p420
(dp421
g3
(lp422
(i__main__
Mention
p423
(dp424
g7
S't8'
p425
sg9
Nsg10
S'i15'
p426
sg12
Nsg13
Nsg14
(lp427
(i__main__
Token
p428
(dp429
g18
I61
sbasg25
I61
sba(i__main__
Mention
p430
(dp431
g7
S't8'
p432
sg9
S'Coreference-NounComplement'
p433
sg10
S'i16'
p434
sg12
S'i15'
p435
sg13
Nsg14
(lp436
(i__main__
Token
p437
(dp438
g18
I62
sba(i__main__
Token
p439
(dp440
g18
I63
sbasg25
I63
sba(i__main__
Mention
p441
(dp442
g7
S't8'
p443
sg9
S'Coreference-Identity'
p444
sg10
S'i29'
p445
sg12
S'i16'
p446
sg13
Nsg14
(lp447
(i__main__
Token
p448
(dp449
g18
I132
sbasg25
I132
sba(i__main__
Mention
p450
(dp451
g7
S't8'
p452
sg9
S'Coreference-Identity'
p453
sg10
S'i37'
p454
sg12
S'i29'
p455
sg13
Nsg14
(lp456
(i__main__
Token
p457
(dp458
g18
I188
sbasg25
I188
sba(i__main__
Mention
p459
(dp460
g7
S't8'
p461
sg9
S'Anaphora-C'
p462
sg10
S'i38'
p463
sg12
S'i37'
p464
sg13
Nsg14
(lp465
(i__main__
Token
p466
(dp467
g18
I192
sbasg25
I192
sbasg7
g425
sg91
Nsba(i__main__
Chain
p468
(dp469
g3
(lp470
(i__main__
Mention
p471
(dp472
g7
S't9'
p473
sg9
S'anaphora-?'
p474
sg10
S'i26'
p475
sg12
S'i26'
p476
sg13
Nsg14
(lp477
(i__main__
Token
p478
(dp479
g18
I102
sbasg25
I102
sbasg7
g473
sg91
Nsba(i__main__
Chain
p480
(dp481
g3
(lp482
(i__main__
Mention
p483
(dp484
g7
S't10'
p485
sg9
Nsg10
S'i28'
p486
sg12
Nsg13
Nsg14
(lp487
(i__main__
Token
p488
(dp489
g18
I121
sba(i__main__
Token
p490
(dp491
g18
I122
sba(i__main__
Token
p492
(dp493
g18
I123
sba(i__main__
Token
p494
(dp495
g18
I124
sba(i__main__
Token
p496
(dp497
g18
I125
sba(i__main__
Token
p498
(dp499
g18
I126
sba(i__main__
Token
p500
(dp501
g18
I127
sba(i__main__
Token
p502
(dp503
g18
I128
sba(i__main__
Token
p504
(dp505
g18
I129
sba(i__main__
Token
p506
(dp507
g18
I130
sba(i__main__
Token
p508
(dp509
g18
I131
sba(i__main__
Token
p510
(dp511
g18
I132
sba(i__main__
Token
p512
(dp513
g18
I133
sba(i__main__
Token
p514
(dp515
g18
I134
sba(i__main__
Token
p516
(dp517
g18
I135
sba(i__main__
Token
p518
(dp519
g18
I136
sba(i__main__
Token
p520
(dp521
g18
I137
sba(i__main__
Token
p522
(dp523
g18
I138
sba(i__main__
Token
p524
(dp525
g18
I139
sba(i__main__
Token
p526
(dp527
g18
I140
sba(i__main__
Token
p528
(dp529
g18
I141
sba(i__main__
Token
p530
(dp531
g18
I142
sba(i__main__
Token
p532
(dp533
g18
I143
sba(i__main__
Token
p534
(dp535
g18
I144
sba(i__main__
Token
p536
(dp537
g18
I145
sbasg25
I144
sba(i__main__
Mention
p538
(dp539
g7
S't10'
p540
sg9
S'Anaphora-E'
p541
sg10
S'i31'
p542
sg12
S'i28'
p543
sg13
Nsg14
(lp544
(i__main__
Token
p545
(dp546
g18
I147
sbasg25
I147
sbasg7
g485
sg91
Nsba(i__main__
Chain
p547
(dp548
g3
(lp549
(i__main__
Mention
p550
(dp551
g7
S't11'
p552
sg9
S'anaphora-?'
p553
sg10
S'i33'
p554
sg12
S'i33'
p555
sg13
Nsg14
(lp556
(i__main__
Token
p557
(dp558
g18
I153
sbasg25
I153
sbasg7
g552
sg91
Nsba(i__main__
Chain
p559
(dp560
g3
(lp561
(i__main__
Mention
p562
(dp563
g7
S't12'
p564
sg9
S'anaphora-?'
p565
sg10
S'i42'
p566
sg12
S'i42'
p567
sg13
Nsg14
(lp568
(i__main__
Token
p569
(dp570
g18
I206
sbasg25
I206
sbasg7
g564
sg91
Nsba.