(lp0
(i__main__
Chain
p1
(dp2
S'mentionList'
p3
(lp4
(i__main__
Mention
p5
(dp6
S'chainId'
p7
S't1'
p8
sS'relType'
p9
NsS'mentionId'
p10
S'i1'
p11
sS'antecedentId'
p12
NsS'crefMod'
p13
NsS'tokenList'
p14
(lp15
(i__main__
Token
p16
(dp17
S'tokenId'
p18
I0
sba(i__main__
Token
p19
(dp20
g18
I1
sbasS'mentionHead'
p21
I1
sba(i__main__
Mention
p22
(dp23
g7
S't1'
p24
sg9
S'Coreference-Identity'
p25
sg10
S'i10'
p26
sg12
S'i1'
p27
sg13
Nsg14
(lp28
(i__main__
Token
p29
(dp30
g18
I27
sbasg21
I27
sba(i__main__
Mention
p31
(dp32
g7
S't1'
p33
sg9
S'Coreference-Identity'
p34
sg10
S'i33'
p35
sg12
S'i10'
p36
sg13
Nsg14
(lp37
(i__main__
Token
p38
(dp39
g18
I103
sbasg21
I103
sba(i__main__
Mention
p40
(dp41
g7
S't1'
p42
sg9
S'Coreference-Identity'
p43
sg10
S'i48'
p44
sg12
S'i33'
p45
sg13
Nsg14
(lp46
(i__main__
Token
p47
(dp48
g18
I167
sbasg21
I167
sba(i__main__
Mention
p49
(dp50
g7
S't1'
p51
sg9
S'Coreference-Identity'
p52
sg10
S'i70'
p53
sg12
S'i48'
p54
sg13
Nsg14
(lp55
(i__main__
Token
p56
(dp57
g18
I263
sbasg21
I263
sbasg7
g8
sS'chainHead'
p58
Nsba(i__main__
Chain
p59
(dp60
g3
(lp61
(i__main__
Mention
p62
(dp63
g7
S't2'
p64
sg9
Nsg10
S'i2'
p65
sg12
Nsg13
Nsg14
(lp66
(i__main__
Token
p67
(dp68
g18
I3
sbasg21
I3
sba(i__main__
Mention
p69
(dp70
g7
S't2'
p71
sg9
S'Coreference-Identity'
p72
sg10
S'i68'
p73
sg12
S'i2'
p74
sg13
Nsg14
(lp75
(i__main__
Token
p76
(dp77
g18
I260
sbasg21
I260
sbasg7
g64
sg58
Nsba(i__main__
Chain
p78
(dp79
g3
(lp80
(i__main__
Mention
p81
(dp82
g7
S't3'
p83
sg9
Nsg10
S'i3'
p84
sg12
Nsg13
Nsg14
(lp85
(i__main__
Token
p86
(dp87
g18
I9
sbasg21
I9
sba(i__main__
Mention
p88
(dp89
g7
S't3'
p90
sg9
S'Coreference-Identity'
p91
sg10
S'i18'
p92
sg12
S'i3'
p93
sg13
Nsg14
(lp94
(i__main__
Token
p95
(dp96
g18
I47
sbasg21
I47
sba(i__main__
Mention
p97
(dp98
g7
S't3'
p99
sg9
S'Coreference-Identity'
p100
sg10
S'i20'
p101
sg12
S'i18'
p102
sg13
Nsg14
(lp103
(i__main__
Token
p104
(dp105
g18
I58
sbasg21
I58
sba(i__main__
Mention
p106
(dp107
g7
S't3'
p108
sg9
S'Coreference-Identity'
p109
sg10
S'i24'
p110
sg12
S'i20'
p111
sg13
Nsg14
(lp112
(i__main__
Token
p113
(dp114
g18
I68
sbasg21
I68
sba(i__main__
Mention
p115
(dp116
g7
S't3'
p117
sg9
S'Coreference-Identity'
p118
sg10
S'i28'
p119
sg12
S'i24'
p120
sg13
Nsg14
(lp121
(i__main__
Token
p122
(dp123
g18
I84
sbasg21
I84
sba(i__main__
Mention
p124
(dp125
g7
S't3'
p126
sg9
S'Coreference-Identity'
p127
sg10
S'i74'
p128
sg12
S'i28'
p129
sg13
Nsg14
(lp130
(i__main__
Token
p131
(dp132
g18
I269
sbasg21
I269
sbasg7
g83
sg58
Nsba(i__main__
Chain
p133
(dp134
g3
(lp135
(i__main__
Mention
p136
(dp137
g7
S't4'
p138
sg9
Nsg10
S'i4'
p139
sg12
Nsg13
Nsg14
(lp140
(i__main__
Token
p141
(dp142
g18
I9
sba(i__main__
Token
p143
(dp144
g18
I12
sbasg21
Nsba(i__main__
Mention
p145
(dp146
g7
S't4'
p147
sg9
S'Coreference-Identity'
p148
sg10
S'i29'
p149
sg12
S'i4'
p150
sg13
Nsg14
(lp151
(i__main__
Token
p152
(dp153
g18
I84
sba(i__main__
Token
p154
(dp155
g18
I85
sbasg21
I85
sba(i__main__
Mention
p156
(dp157
g7
S't4'
p158
sg9
Nsg10
S'i75'
p159
sg12
Nsg13
Nsg14
(lp160
(i__main__
Token
p161
(dp162
g18
I269
sba(i__main__
Token
p163
(dp164
g18
I270
sbasg21
Nsbasg7
g138
sg58
Nsba(i__main__
Chain
p165
(dp166
g3
(lp167
(i__main__
Mention
p168
(dp169
g7
S't5'
p170
sg9
Nsg10
S'i5'
p171
sg12
Nsg13
Nsg14
(lp172
(i__main__
Token
p173
(dp174
g18
I11
sba(i__main__
Token
p175
(dp176
g18
I12
sbasg21
Nsba(i__main__
Mention
p177
(dp178
g7
S't5'
p179
sg9
S'Coreference-Identity'
p180
sg10
S'i9'
p181
sg12
S'i5'
p182
sg13
Nsg14
(lp183
(i__main__
Token
p184
(dp185
g18
I25
sbasg21
I25
sba(i__main__
Mention
p186
(dp187
g7
S't5'
p188
sg9
S'Coreference-PartOf'
p189
sg10
S'i27'
p190
sg12
S'i9'
p191
sg13
Nsg14
(lp192
(i__main__
Token
p193
(dp194
g18
I82
sba(i__main__
Token
p195
(dp196
g18
I83
sbasg21
I83
sba(i__main__
Mention
p197
(dp198
g7
S't5'
p199
sg9
S'Anaphora-C'
p200
sg10
S'i32'
p201
sg12
S'i27'
p202
sg13
Nsg14
(lp203
(i__main__
Token
p204
(dp205
g18
I102
sbasg21
I102
sba(i__main__
Mention
p206
(dp207
g7
S't5'
p208
sg9
S'Coreference-Identity'
p209
sg10
S'i47'
p210
sg12
S'i32'
p211
sg13
Nsg14
(lp212
(i__main__
Token
p213
(dp214
g18
I165
sbasg21
I165
sba(i__main__
Mention
p215
(dp216
g7
S't5'
p217
sg9
S'Coreference-Identity'
p218
sg10
S'i50'
p219
sg12
S'i47'
p220
sg13
Nsg14
(lp221
(i__main__
Token
p222
(dp223
g18
I178
sba(i__main__
Token
p224
(dp225
g18
I179
sbasg21
I179
sba(i__main__
Mention
p226
(dp227
g7
S't5'
p228
sg9
S'Coreference-Identity'
p229
sg10
S'i61'
p230
sg12
S'i50'
p231
sg13
Nsg14
(lp232
(i__main__
Token
p233
(dp234
g18
I220
sba(i__main__
Token
p235
(dp236
g18
I221
sbasg21
I221
sba(i__main__
Mention
p237
(dp238
g7
S't5'
p239
sg9
S'Anaphora-C'
p240
sg10
S'i63'
p241
sg12
S'i61'
p242
sg13
Nsg14
(lp243
(i__main__
Token
p244
(dp245
g18
I223
sbasg21
I223
sba(i__main__
Mention
p246
(dp247
g7
S't5'
p248
sg9
S'Anaphora-C'
p249
sg10
S'i65'
p250
sg12
S'i63'
p251
sg13
Nsg14
(lp252
(i__main__
Token
p253
(dp254
g18
I230
sbasg21
I230
sba(i__main__
Mention
p255
(dp256
g7
S't5'
p257
sg9
S'Coreference-Identity'
p258
sg10
S'i77'
p259
sg12
S'i65'
p260
sg13
Nsg14
(lp261
(i__main__
Token
p262
(dp263
g18
I287
sba(i__main__
Token
p264
(dp265
g18
I288
sbasg21
I288
sba(i__main__
Mention
p266
(dp267
g7
S't5'
p268
sg9
S'Anaphora-C'
p269
sg10
S'i80'
p270
sg12
S'i77'
p271
sg13
Nsg14
(lp272
(i__main__
Token
p273
(dp274
g18
I295
sbasg21
I295
sba(i__main__
Mention
p275
(dp276
g7
S't5'
p277
sg9
S'Coreference-Identity'
p278
sg10
S'i88'
p279
sg12
S'i80'
p280
sg13
Nsg14
(lp281
(i__main__
Token
p282
(dp283
g18
I316
sbasg21
I316
sbasg7
g170
sg58
Nsba(i__main__
Chain
p284
(dp285
g3
(lp286
(i__main__
Mention
p287
(dp288
g7
S't6'
p289
sg9
Nsg10
S'i6'
p290
sg12
Nsg13
Nsg14
(lp291
(i__main__
Token
p292
(dp293
g18
I11
sbasg21
I11
sba(i__main__
Mention
p294
(dp295
g7
S't6'
p296
sg9
S'Coreference-Identity'
p297
sg10
S'i8'
p298
sg12
S'i6'
p299
sg13
Nsg14
(lp300
(i__main__
Token
p301
(dp302
g18
I23
sbasg21
I23
sba(i__main__
Mention
p303
(dp304
g7
S't6'
p305
sg9
S'Coreference-Identity'
p306
sg10
S'i14'
p307
sg12
S'i8'
p308
sg13
Nsg14
(lp309
(i__main__
Token
p310
(dp311
g18
I33
sbasg21
I33
sba(i__main__
Mention
p312
(dp313
g7
S't6'
p314
sg9
S'Coreference-Identity'
p315
sg10
S'i26'
p316
sg12
S'i14'
p317
sg13
Nsg14
(lp318
(i__main__
Token
p319
(dp320
g18
I80
sbasg21
I80
sba(i__main__
Mention
p321
(dp322
g7
S't6'
p323
sg9
S'Coreference-Identity'
p324
sg10
S'i46'
p325
sg12
S'i26'
p326
sg13
Nsg14
(lp327
(i__main__
Token
p328
(dp329
g18
I163
sbasg21
I163
sba(i__main__
Mention
p330
(dp331
g7
S't6'
p332
sg9
S'Coreference-Identity'
p333
sg10
S'i51'
p334
sg12
S'i46'
p335
sg13
Nsg14
(lp336
(i__main__
Token
p337
(dp338
g18
I178
sbasg21
I178
sba(i__main__
Mention
p339
(dp340
g7
S't6'
p341
sg9
S'Coreference-Identity'
p342
sg10
S'i62'
p343
sg12
S'i51'
p344
sg13
Nsg14
(lp345
(i__main__
Token
p346
(dp347
g18
I220
sbasg21
I220
sba(i__main__
Mention
p348
(dp349
g7
S't6'
p350
sg9
S'Coreference-Identity'
p351
sg10
S'i78'
p352
sg12
S'i62'
p353
sg13
Nsg14
(lp354
(i__main__
Token
p355
(dp356
g18
I287
sbasg21
I287
sbasg7
g289
sg58
Nsba(i__main__
Chain
p357
(dp358
g3
(lp359
(i__main__
Mention
p360
(dp361
g7
S't7'
p362
sg9
Nsg10
S'i7'
p363
sg12
Nsg13
Nsg14
(lp364
(i__main__
Token
p365
(dp366
g18
I21
sbasg21
I21
sba(i__main__
Mention
p367
(dp368
g7
S't7'
p369
sg9
S'Coreference-Identity'
p370
sg10
S'i30'
p371
sg12
S'i7'
p372
sg13
Nsg14
(lp373
(i__main__
Token
p374
(dp375
g18
I98
sbasg21
I98
sba(i__main__
Mention
p376
(dp377
g7
S't7'
p378
sg9
S'Coreference-NounComplement'
p379
sg10
S'i31'
p380
sg12
S'i30'
p381
sg13
Nsg14
(lp382
(i__main__
Token
p383
(dp384
g18
I99
sba(i__main__
Token
p385
(dp386
g18
I100
sbasg21
I100
sba(i__main__
Mention
p387
(dp388
g7
S't7'
p389
sg9
S'Coreference-Noun-Noun'
p390
sg10
S'i49'
p391
sg12
S'i31'
p392
sg13
Nsg14
(lp393
(i__main__
Token
p394
(dp395
g18
I174
sbasg21
I174
sba(i__main__
Mention
p396
(dp397
g7
S't7'
p398
sg9
S'Coreference-Identity'
p399
sg10
S'i56'
p400
sg12
S'i49'
p401
sg13
Nsg14
(lp402
(i__main__
Token
p403
(dp404
g18
I202
sbasg21
I202
sba(i__main__
Mention
p405
(dp406
g7
S't7'
p407
sg9
S'Anaphora-C'
p408
sg10
S'i57'
p409
sg12
S'i56'
p410
sg13
Nsg14
(lp411
(i__main__
Token
p412
(dp413
g18
I204
sbasg21
I204
sba(i__main__
Mention
p414
(dp415
g7
S't7'
p416
sg9
S'Coreference-Identity'
p417
sg10
S'i64'
p418
sg12
S'i57'
p419
sg13
Nsg14
(lp420
(i__main__
Token
p421
(dp422
g18
I229
sbasg21
I229
sba(i__main__
Mention
p423
(dp424
g7
S't7'
p425
sg9
S'Coreference-Identity'
p426
sg10
S'i66'
p427
sg12
S'i64'
p428
sg13
Nsg14
(lp429
(i__main__
Token
p430
(dp431
g18
I236
sbasg21
I236
sba(i__main__
Mention
p432
(dp433
g7
S't7'
p434
sg9
S'Anaphora-C'
p435
sg10
S'i67'
p436
sg12
S'i66'
p437
sg13
Nsg14
(lp438
(i__main__
Token
p439
(dp440
g18
I249
sbasg21
I249
sbasg7
g362
sg58
Nsba(i__main__
Chain
p441
(dp442
g3
(lp443
(i__main__
Mention
p444
(dp445
g7
S't8'
p446
sg9
Nsg10
S'i11'
p447
sg12
Nsg13
Nsg14
(lp448
(i__main__
Token
p449
(dp450
g18
I33
sba(i__main__
Token
p451
(dp452
g18
I34
sbasg21
Nsba(i__main__
Mention
p453
(dp454
g7
S't8'
p455
sg9
S'Coreference-NounComplement'
p456
sg10
S'i15'
p457
sg12
S'i11'
p458
sg13
Nsg14
(lp459
(i__main__
Token
p460
(dp461
g18
I35
sba(i__main__
Token
p462
(dp463
g18
I36
sba(i__main__
Token
p464
(dp465
g18
I37
sbasg21
I37
sbasg7
g446
sg58
Nsba(i__main__
Chain
p466
(dp467
g3
(lp468
(i__main__
Mention
p469
(dp470
g7
S't9'
p471
sg9
Nsg10
S'i12'
p472
sg12
Nsg13
Nsg14
(lp473
(i__main__
Token
p474
(dp475
g18
I33
sba(i__main__
Token
p476
(dp477
g18
I34
sbasg21
Nsba(i__main__
Mention
p478
(dp479
g7
S't9'
p480
sg9
S'Coreference-NounComplement'
p481
sg10
S'i16'
p482
sg12
S'i12'
p483
sg13
Nsg14
(lp484
(i__main__
Token
p485
(dp486
g18
I39
sba(i__main__
Token
p487
(dp488
g18
I40
sbasg21
I40
sbasg7
g471
sg58
Nsba(i__main__
Chain
p489
(dp490
g3
(lp491
(i__main__
Mention
p492
(dp493
g7
S't10'
p494
sg9
Nsg10
S'i13'
p495
sg12
Nsg13
Nsg14
(lp496
(i__main__
Token
p497
(dp498
g18
I33
sba(i__main__
Token
p499
(dp500
g18
I34
sbasg21
Nsba(i__main__
Mention
p501
(dp502
g7
S't10'
p503
sg9
S'Coreference-NounComplement'
p504
sg10
S'i17'
p505
sg12
S'i13'
p506
sg13
Nsg14
(lp507
(i__main__
Token
p508
(dp509
g18
I42
sba(i__main__
Token
p510
(dp511
g18
I43
sba(i__main__
Token
p512
(dp513
g18
I44
sba(i__main__
Token
p514
(dp515
g18
I45
sbasg21
I45
sba(i__main__
Mention
p516
(dp517
g7
S't10'
p518
sg9
S'Coreference-Noun-Noun'
p519
sg10
S'i34'
p520
sg12
S'i17'
p521
sg13
Nsg14
(lp522
(i__main__
Token
p523
(dp524
g18
I115
sbasg21
I115
sba(i__main__
Mention
p525
(dp526
g7
S't10'
p527
sg9
S'Coreference-NounComplement'
p528
sg10
S'i35'
p529
sg12
S'i34'
p530
sg13
Nsg14
(lp531
(i__main__
Token
p532
(dp533
g18
I116
sba(i__main__
Token
p534
(dp535
g18
I117
sbasg21
I117
sba(i__main__
Mention
p536
(dp537
g7
S't10'
p538
sg9
S'Anaphora-C'
p539
sg10
S'i38'
p540
sg12
S'i35'
p541
sg13
Nsg14
(lp542
(i__main__
Token
p543
(dp544
g18
I130
sbasg21
I130
sbasg7
g494
sg58
Nsba(i__main__
Chain
p545
(dp546
g3
(lp547
(i__main__
Mention
p548
(dp549
g7
S't11'
p550
sg9
Nsg10
S'i19'
p551
sg12
Nsg13
Nsg14
(lp552
(i__main__
Token
p553
(dp554
g18
I47
sba(i__main__
Token
p555
(dp556
g18
I48
sbasg21
I48
sba(i__main__
Mention
p557
(dp558
g7
S't11'
p559
sg9
S'Coreference-PartOf'
p560
sg10
S'i23'
p561
sg12
S'i19'
p562
sg13
Nsg14
(lp563
(i__main__
Token
p564
(dp565
g18
I67
sba(i__main__
Token
p566
(dp567
g18
I68
sba(i__main__
Token
p568
(dp569
g18
I69
sbasg21
I69
sbasg7
g550
sg58
Nsba(i__main__
Chain
p570
(dp571
g3
(lp572
(i__main__
Mention
p573
(dp574
g7
S't12'
p575
sg9
Nsg10
S'i21'
p576
sg12
Nsg13
Nsg14
(lp577
(i__main__
Token
p578
(dp579
g18
I58
sba(i__main__
Token
p580
(dp581
g18
I59
sbasg21
I59
sba(i__main__
Mention
p582
(dp583
g7
S't12'
p584
sg9
S'Coreference-NounComplement'
p585
sg10
S'i22'
p586
sg12
S'i21'
p587
sg13
Nsg14
(lp588
(i__main__
Token
p589
(dp590
g18
I60
sba(i__main__
Token
p591
(dp592
g18
I61
sbasg21
I61
sba(i__main__
Mention
p593
(dp594
g7
S't12'
p595
sg9
S'Coreference-Identity'
p596
sg10
S'i25'
p597
sg12
S'i22'
p598
sg13
Nsg14
(lp599
(i__main__
Token
p600
(dp601
g18
I71
sbasg21
I71
sbasg7
g575
sg58
Nsba(i__main__
Chain
p602
(dp603
g3
(lp604
(i__main__
Mention
p605
(dp606
g7
S't13'
p607
sg9
Nsg10
S'i36'
p608
sg12
Nsg13
Nsg14
(lp609
(i__main__
Token
p610
(dp611
g18
I119
sbasg21
I119
sba(i__main__
Mention
p612
(dp613
g7
S't13'
p614
sg9
S'Coreference-NounComplement'
p615
sg10
S'i37'
p616
sg12
S'i36'
p617
sg13
Nsg14
(lp618
(i__main__
Token
p619
(dp620
g18
I120
sba(i__main__
Token
p621
(dp622
g18
I121
sbasg21
I121
sba(i__main__
Mention
p623
(dp624
g7
S't13'
p625
sg9
S'Coreference-Noun-Noun'
p626
sg10
S'i39'
p627
sg12
S'i37'
p628
sg13
Nsg14
(lp629
(i__main__
Token
p630
(dp631
g18
I131
sbasg21
I131
sba(i__main__
Mention
p632
(dp633
g7
S't13'
p634
sg9
S'Coreference-Noun-Noun'
p635
sg10
S'i45'
p636
sg12
S'i39'
p637
sg13
Nsg14
(lp638
(i__main__
Token
p639
(dp640
g18
I155
sbasg21
I155
sba(i__main__
Mention
p641
(dp642
g7
S't13'
p643
sg9
S'Coreference-Noun-Noun'
p644
sg10
S'i58'
p645
sg12
S'i45'
p646
sg13
Nsg14
(lp647
(i__main__
Token
p648
(dp649
g18
I214
sbasg21
I214
sba(i__main__
Mention
p650
(dp651
g7
S't13'
p652
sg9
S'Coreference-Identity'
p653
sg10
S'i90'
p654
sg12
S'i58'
p655
sg13
Nsg14
(lp656
(i__main__
Token
p657
(dp658
g18
I215
sba(i__main__
Token
p659
(dp660
g18
I216
sbasg21
I216
sbasg7
g607
sg58
Nsba(i__main__
Chain
p661
(dp662
g3
(lp663
(i__main__
Mention
p664
(dp665
g7
S't14'
p666
sg9
S'Coreference-NounComplement'
p667
sg10
S'i40'
p668
sg12
S'i30'
p669
sg13
Nsg14
(lp670
(i__main__
Token
p671
(dp672
g18
I141
sba(i__main__
Token
p673
(dp674
g18
I142
sba(i__main__
Token
p675
(dp676
g18
I143
sba(i__main__
Token
p677
(dp678
g18
I144
sba(i__main__
Token
p679
(dp680
g18
I145
sba(i__main__
Token
p681
(dp682
g18
I146
sba(i__main__
Token
p683
(dp684
g18
I147
sba(i__main__
Token
p685
(dp686
g18
I148
sbasg21
I148
sbasg7
g666
sg58
Nsba(i__main__
Chain
p687
(dp688
g3
(lp689
(i__main__
Mention
p690
(dp691
g7
S't15'
p692
sg9
Nsg10
S'i42'
p693
sg12
Nsg13
Nsg14
(lp694
(i__main__
Token
p695
(dp696
g18
I150
sba(i__main__
Token
p697
(dp698
g18
I151
sbasg21
I151
sba(i__main__
Mention
p699
(dp700
g7
S't15'
p701
sg9
S'Coreference-NounComplement'
p702
sg10
S'i43'
p703
sg12
S'i42'
p704
sg13
Nsg14
(lp705
(i__main__
Token
p706
(dp707
g18
I152
sba(i__main__
Token
p708
(dp709
g18
I153
sbasg21
I153
sbasg7
g692
sg58
Nsba(i__main__
Chain
p710
(dp711
g3
(lp712
(i__main__
Mention
p713
(dp714
g7
S't16'
p715
sg9
Nsg10
S'i52'
p716
sg12
Nsg13
Nsg14
(lp717
(i__main__
Token
p718
(dp719
g18
I194
sbasg21
I194
sba(i__main__
Mention
p720
(dp721
g7
S't16'
p722
sg9
S'Coreference-NounComplement'
p723
sg10
S'i53'
p724
sg12
S'i52'
p725
sg13
Nsg14
(lp726
(i__main__
Token
p727
(dp728
g18
I195
sba(i__main__
Token
p729
(dp730
g18
I196
sbasg21
I196
sbasg7
g715
sg58
Nsba(i__main__
Chain
p731
(dp732
g3
(lp733
(i__main__
Mention
p734
(dp735
g7
S't17'
p736
sg9
Nsg10
S'i54'
p737
sg12
Nsg13
Nsg14
(lp738
(i__main__
Token
p739
(dp740
g18
I198
sba(i__main__
Token
p741
(dp742
g18
I199
sbasg21
I199
sba(i__main__
Mention
p743
(dp744
g7
S't17'
p745
sg9
S'Coreference-NounComplement'
p746
sg10
S'i55'
p747
sg12
S'i54'
p748
sg13
Nsg14
(lp749
(i__main__
Token
p750
(dp751
g18
I200
sbasg21
I200
sbasg7
g736
sg58
Nsba(i__main__
Chain
p752
(dp753
g3
(lp754
(i__main__
Mention
p755
(dp756
g7
S't18'
p757
sg9
Nsg10
S'i69'
p758
sg12
Nsg13
Nsg14
(lp759
(i__main__
Token
p760
(dp761
g18
I262
sbasg21
I262
sba(i__main__
Mention
p762
(dp763
g7
S't18'
p764
sg9
S'Anaphora-RT'
p765
sg10
S'i71'
p766
sg12
S'i69'
p767
sg13
Nsg14
(lp768
(i__main__
Token
p769
(dp770
g18
I263
sba(i__main__
Token
p771
(dp772
g18
I264
sba(i__main__
Token
p773
(dp774
g18
I265
sba(i__main__
Token
p775
(dp776
g18
I266
sba(i__main__
Token
p777
(dp778
g18
I267
sbasg21
I267
sbasg7
g757
sg58
Nsba(i__main__
Chain
p779
(dp780
g3
(lp781
(i__main__
Mention
p782
(dp783
g7
S't19'
p784
sg9
Nsg10
S'i72'
p785
sg12
Nsg13
Nsg14
(lp786
(i__main__
Token
p787
(dp788
g18
I268
sbasg21
I268
sbasg7
g784
sg58
Nsba(i__main__
Chain
p789
(dp790
g3
(lp791
(i__main__
Mention
p792
(dp793
g7
S't20'
p794
sg9
Nsg10
S'i73'
p795
sg12
Nsg13
Nsg14
(lp796
(i__main__
Token
p797
(dp798
g18
I269
sba(i__main__
Token
p799
(dp800
g18
I270
sbasg21
Nsba(i__main__
Mention
p801
(dp802
g7
S't20'
p803
sg9
S'Coreference-NounComplement'
p804
sg10
S'i76'
p805
sg12
S'i73'
p806
sg13
Nsg14
(lp807
(i__main__
Token
p808
(dp809
g18
I271
sba(i__main__
Token
p810
(dp811
g18
I272
sbasg21
I272
sba(i__main__
Mention
p812
(dp813
g7
S't20'
p814
sg9
S'Coreference-Identity'
p815
sg10
S'i82'
p816
sg12
S'i76'
p817
sg13
Nsg14
(lp818
(i__main__
Token
p819
(dp820
g18
I304
sbasg21
I304
sba(i__main__
Mention
p821
(dp822
g7
S't20'
p823
sg9
S'Anaphora-C'
p824
sg10
S'i84'
p825
sg12
S'i82'
p826
sg13
Nsg14
(lp827
(i__main__
Token
p828
(dp829
g18
I308
sbasg21
I308
sba(i__main__
Mention
p830
(dp831
g7
S't20'
p832
sg9
S'Anaphora-C'
p833
sg10
S'i86'
p834
sg12
S'i84'
p835
sg13
Nsg14
(lp836
(i__main__
Token
p837
(dp838
g18
I309
sbasg21
I309
sbasg7
g794
sg58
Nsba(i__main__
Chain
p839
(dp840
g3
(lp841
(i__main__
Mention
p842
(dp843
g7
S't21'
p844
sg9
Nsg10
S'i79'
p845
sg12
Nsg13
Nsg14
(lp846
(i__main__
Token
p847
(dp848
g18
I287
sba(i__main__
Token
p849
(dp850
g18
I288
sba(i__main__
Token
p851
(dp852
g18
I289
sba(i__main__
Token
p853
(dp854
g18
I290
sba(i__main__
Token
p855
(dp856
g18
I291
sba(i__main__
Token
p857
(dp858
g18
I292
sba(i__main__
Token
p859
(dp860
g18
I293
sba(i__main__
Token
p861
(dp862
g18
I294
sba(i__main__
Token
p863
(dp864
g18
I295
sba(i__main__
Token
p865
(dp866
g18
I296
sba(i__main__
Token
p867
(dp868
g18
I297
sba(i__main__
Token
p869
(dp870
g18
I298
sba(i__main__
Token
p871
(dp872
g18
I299
sba(i__main__
Token
p873
(dp874
g18
I300
sbasg21
I299
sba(i__main__
Mention
p875
(dp876
g7
S't21'
p877
sg9
S'Anaphora-E'
p878
sg10
S'i81'
p879
sg12
S'i79'
p880
sg13
Nsg14
(lp881
(i__main__
Token
p882
(dp883
g18
I302
sbasg21
I302
sbasg7
g844
sg58
Nsba(i__main__
Chain
p884
(dp885
g3
(lp886
(i__main__
Mention
p887
(dp888
g7
S't22'
p889
sg9
Nsg10
S'i83'
p890
sg12
Nsg13
Nsg14
(lp891
(i__main__
Token
p892
(dp893
g18
I304
sba(i__main__
Token
p894
(dp895
g18
I305
sba(i__main__
Token
p896
(dp897
g18
I306
sba(i__main__
Token
p898
(dp899
g18
I307
sba(i__main__
Token
p900
(dp901
g18
I308
sba(i__main__
Token
p902
(dp903
g18
I309
sba(i__main__
Token
p904
(dp905
g18
I310
sba(i__main__
Token
p906
(dp907
g18
I311
sba(i__main__
Token
p908
(dp909
g18
I312
sba(i__main__
Token
p910
(dp911
g18
I313
sba(i__main__
Token
p912
(dp913
g18
I314
sba(i__main__
Token
p914
(dp915
g18
I315
sba(i__main__
Token
p916
(dp917
g18
I316
sba(i__main__
Token
p918
(dp919
g18
I317
sba(i__main__
Token
p920
(dp921
g18
I318
sbasg21
I318
sba(i__main__
Mention
p922
(dp923
g7
S't22'
p924
sg9
S'Anaphora-E'
p925
sg10
S'i89'
p926
sg12
S'i83'
p927
sg13
Nsg14
(lp928
(i__main__
Token
p929
(dp930
g18
I320
sbasg21
I320
sbasg7
g889
sg58
Nsba(i__main__
Chain
p931
(dp932
g3
(lp933
(i__main__
Mention
p934
(dp935
g7
S't23'
p936
sg9
Nsg10
S'i85'
p937
sg12
Nsg13
Nsg14
(lp938
(i__main__
Token
p939
(dp940
g18
I308
sba(i__main__
Token
p941
(dp942
g18
I309
sba(i__main__
Token
p943
(dp944
g18
I310
sba(i__main__
Token
p945
(dp946
g18
I311
sba(i__main__
Token
p947
(dp948
g18
I312
sba(i__main__
Token
p949
(dp950
g18
I313
sbasg21
I312
sba(i__main__
Mention
p951
(dp952
g7
S't23'
p953
sg9
S'Anaphora-E'
p954
sg10
S'i87'
p955
sg12
S'i85'
p956
sg13
Nsg14
(lp957
(i__main__
Token
p958
(dp959
g18
I314
sbasg21
I314
sbasg7
g936
sg58
Nsba.