(lp0
(i__main__
Chain
p1
(dp2
S'mentionList'
p3
(lp4
(i__main__
Mention
p5
(dp6
S'chainId'
p7
S't1'
p8
sS'relType'
p9
NsS'mentionId'
p10
S'i1'
p11
sS'antecedentId'
p12
NsS'crefMod'
p13
NsS'tokenList'
p14
(lp15
(i__main__
Token
p16
(dp17
S'tokenId'
p18
I0
sba(i__main__
Token
p19
(dp20
g18
I1
sba(i__main__
Token
p21
(dp22
g18
I2
sbasS'mentionHead'
p23
I2
sba(i__main__
Mention
p24
(dp25
g7
S't1'
p26
sg9
S'Coreference-Abbreviation'
p27
sg10
S'i3'
p28
sg12
S'i1'
p29
sg13
Nsg14
(lp30
(i__main__
Token
p31
(dp32
g18
I4
sbasg23
I4
sba(i__main__
Mention
p33
(dp34
g7
S't1'
p35
sg9
S'Coreference-InferedRelation'
p36
sg10
S'i9'
p37
sg12
S'i3'
p38
sg13
Nsg14
(lp39
(i__main__
Token
p40
(dp41
g18
I29
sbasg23
I29
sba(i__main__
Mention
p42
(dp43
g7
S't1'
p44
sg9
S'Coreference-Identity'
p45
sg10
S'i19'
p46
sg12
S'i9'
p47
sg13
Nsg14
(lp48
(i__main__
Token
p49
(dp50
g18
I84
sbasg23
I84
sba(i__main__
Mention
p51
(dp52
g7
S't1'
p53
sg9
S'Coreference-Noun-Noun'
p54
sg10
S'i25'
p55
sg12
S'i19'
p56
sg13
Nsg14
(lp57
(i__main__
Token
p58
(dp59
g18
I115
sbasg23
I115
sbasg7
g8
sS'chainHead'
p60
Nsba(i__main__
Chain
p61
(dp62
g3
(lp63
(i__main__
Mention
p64
(dp65
g7
S't2'
p66
sg9
Nsg10
S'i2'
p67
sg12
Nsg13
Nsg14
(lp68
(i__main__
Token
p69
(dp70
g18
I7
sba(i__main__
Token
p71
(dp72
g18
I8
sbasg23
I8
sba(i__main__
Mention
p73
(dp74
g7
S't2'
p75
sg9
S'Coreference-Noun-Noun'
p76
sg10
S'i4'
p77
sg12
S'i2'
p78
sg13
Nsg14
(lp79
(i__main__
Token
p80
(dp81
g18
I12
sbasg23
I12
sba(i__main__
Mention
p82
(dp83
g7
S't2'
p84
sg9
S'Coreference-NounComplement'
p85
sg10
S'i5'
p86
sg12
S'i4'
p87
sg13
Nsg14
(lp88
(i__main__
Token
p89
(dp90
g18
I13
sba(i__main__
Token
p91
(dp92
g18
I14
sbasg23
I14
sbasg7
g66
sg60
Nsba(i__main__
Chain
p93
(dp94
g3
(lp95
(i__main__
Mention
p96
(dp97
g7
S't3'
p98
sg9
S'anaphora-C'
p99
sg10
S'i6'
p100
sg12
S'i5'
p101
sg13
Nsg14
(lp102
(i__main__
Token
p103
(dp104
g18
I16
sbasg23
I16
sba(i__main__
Mention
p105
(dp106
g7
S't3'
p107
sg9
S'Anaphora-RC'
p108
sg10
S'i8'
p109
sg12
S'i6'
p110
sg13
Nsg14
(lp111
(i__main__
Token
p112
(dp113
g18
I20
sbasg23
I20
sba(i__main__
Mention
p114
(dp115
g7
S't3'
p116
sg9
S'Coreference-Identity'
p117
sg10
S'i14'
p118
sg12
S'i8'
p119
sg13
Nsg14
(lp120
(i__main__
Token
p121
(dp122
g18
I44
sbasg23
I44
sba(i__main__
Mention
p123
(dp124
g7
S't3'
p125
sg9
S'Coreference-Identity'
p126
sg10
S'i21'
p127
sg12
S'i14'
p128
sg13
Nsg14
(lp129
(i__main__
Token
p130
(dp131
g18
I92
sbasg23
I92
sbasg7
g98
sg60
Nsba(i__main__
Chain
p132
(dp133
g3
(lp134
(i__main__
Mention
p135
(dp136
g7
S't4'
p137
sg9
Nsg10
S'i7'
p138
sg12
Nsg13
Nsg14
(lp139
(i__main__
Token
p140
(dp141
g18
I16
sba(i__main__
Token
p142
(dp143
g18
I17
sba(i__main__
Token
p144
(dp145
g18
I18
sba(i__main__
Token
p146
(dp147
g18
I19
sba(i__main__
Token
p148
(dp149
g18
I20
sba(i__main__
Token
p150
(dp151
g18
I21
sba(i__main__
Token
p152
(dp153
g18
I22
sba(i__main__
Token
p154
(dp155
g18
I23
sba(i__main__
Token
p156
(dp157
g18
I24
sba(i__main__
Token
p158
(dp159
g18
I25
sba(i__main__
Token
p160
(dp161
g18
I26
sba(i__main__
Token
p162
(dp163
g18
I27
sbasg23
I27
sba(i__main__
Mention
p164
(dp165
g7
S't4'
p166
sg9
S'Coreference-Identity'
p167
sg10
S'i15'
p168
sg12
S'i7'
p169
sg13
Nsg14
(lp170
(i__main__
Token
p171
(dp172
g18
I46
sba(i__main__
Token
p173
(dp174
g18
I47
sbasg23
I47
sba(i__main__
Mention
p175
(dp176
g7
S't4'
p177
sg9
S'Coreference-Identity'
p178
sg10
S'i23'
p179
sg12
S'i15'
p180
sg13
Nsg14
(lp181
(i__main__
Token
p182
(dp183
g18
I98
sba(i__main__
Token
p184
(dp185
g18
I99
sbasg23
I99
sbasg7
g137
sg60
Nsba(i__main__
Chain
p186
(dp187
g3
(lp188
(i__main__
Mention
p189
(dp190
g7
S't5'
p191
sg9
Nsg10
S'i10'
p192
sg12
Nsg13
Nsg14
(lp193
(i__main__
Token
p194
(dp195
g18
I29
sba(i__main__
Token
p196
(dp197
g18
I30
sbasg23
I30
sba(i__main__
Mention
p198
(dp199
g7
S't5'
p200
sg9
S'Coreference-NounComplement'
p201
sg10
S'i11'
p202
sg12
S'i10'
p203
sg13
Nsg14
(lp204
(i__main__
Token
p205
(dp206
g18
I31
sba(i__main__
Token
p207
(dp208
g18
I32
sbasg23
I32
sba(i__main__
Mention
p209
(dp210
g7
S't5'
p211
sg9
S'Anaphora-C'
p212
sg10
S'i13'
p213
sg12
S'i11'
p214
sg13
Nsg14
(lp215
(i__main__
Token
p216
(dp217
g18
I40
sbasg23
I40
sba(i__main__
Mention
p218
(dp219
g7
S't5'
p220
sg9
S'Coreference-Identity'
p221
sg10
S'i16'
p222
sg12
S'i13'
p223
sg13
Nsg14
(lp224
(i__main__
Token
p225
(dp226
g18
I59
sbasg23
I59
sba(i__main__
Mention
p227
(dp228
g7
S't5'
p229
sg9
S'Anaphora-C'
p230
sg10
S'i20'
p231
sg12
S'i16'
p232
sg13
Nsg14
(lp233
(i__main__
Token
p234
(dp235
g18
I89
sbasg23
I89
sba(i__main__
Mention
p236
(dp237
g7
S't5'
p238
sg9
S'Coreference-Noun-Noun'
p239
sg10
S'i26'
p240
sg12
S'i20'
p241
sg13
Nsg14
(lp242
(i__main__
Token
p243
(dp244
g18
I115
sba(i__main__
Token
p245
(dp246
g18
I116
sbasg23
I116
sba(i__main__
Mention
p247
(dp248
g7
S't5'
p249
sg9
S'Anaphora-C'
p250
sg10
S'i28'
p251
sg12
S'i26'
p252
sg13
Nsg14
(lp253
(i__main__
Token
p254
(dp255
g18
I131
sbasg23
I131
sba(i__main__
Mention
p256
(dp257
g7
S't5'
p258
sg9
S'Anaphora-C'
p259
sg10
S'i31'
p260
sg12
S'i28'
p261
sg13
Nsg14
(lp262
(i__main__
Token
p263
(dp264
g18
I142
sbasg23
I142
sba(i__main__
Mention
p265
(dp266
g7
S't5'
p267
sg9
S'Anaphora-C'
p268
sg10
S'i34'
p269
sg12
S'i31'
p270
sg13
Nsg14
(lp271
(i__main__
Token
p272
(dp273
g18
I160
sbasg23
I160
sbasg7
g191
sg60
Nsba(i__main__
Chain
p274
(dp275
g3
(lp276
(i__main__
Mention
p277
(dp278
g7
S't6'
p279
sg9
Nsg10
S'i12'
p280
sg12
Nsg13
Nsg14
(lp281
(i__main__
Token
p282
(dp283
g18
I34
sbasg23
I34
sba(i__main__
Mention
p284
(dp285
g7
S't6'
p286
sg9
S'Coreference-Identity'
p287
sg10
S'i17'
p288
sg12
S'i12'
p289
sg13
Nsg14
(lp290
(i__main__
Token
p291
(dp292
g18
I72
sbasg23
I72
sba(i__main__
Mention
p293
(dp294
g7
S't6'
p295
sg9
S'Coreference-Identity'
p296
sg10
S'i22'
p297
sg12
S'i17'
p298
sg13
Nsg14
(lp299
(i__main__
Token
p300
(dp301
g18
I94
sba(i__main__
Token
p302
(dp303
g18
I95
sba(i__main__
Token
p304
(dp305
g18
I96
sbasg23
I96
sba(i__main__
Mention
p306
(dp307
g7
S't6'
p308
sg9
S'Coreference-Identity'
p309
sg10
S'i35'
p310
sg12
S'i22'
p311
sg13
Nsg14
(lp312
(i__main__
Token
p313
(dp314
g18
I168
sbasg23
I168
sbasg7
g279
sg60
Nsba(i__main__
Chain
p315
(dp316
g3
(lp317
(i__main__
Mention
p318
(dp319
g7
S't7'
p320
sg9
S'anaphora-?'
p321
sg10
S'i18'
p322
sg12
S'i18'
p323
sg13
Nsg14
(lp324
(i__main__
Token
p325
(dp326
g18
I73
sbasg23
I73
sbasg7
g320
sg60
Nsba(i__main__
Chain
p327
(dp328
g3
(lp329
(i__main__
Mention
p330
(dp331
g7
S't8'
p332
sg9
Nsg10
S'i24'
p333
sg12
Nsg13
Nsg14
(lp334
(i__main__
Token
p335
(dp336
g18
I95
sbasg23
I95
sba(i__main__
Mention
p337
(dp338
g7
S't8'
p339
sg9
S'Coreference-Identity'
p340
sg10
S'i30'
p341
sg12
S'i24'
p342
sg13
Nsg14
(lp343
(i__main__
Token
p344
(dp345
g18
I136
sbasg23
I136
sba(i__main__
Mention
p346
(dp347
g7
S't8'
p348
sg9
S'Coreference-Identity'
p349
sg10
S'i33'
p350
sg12
S'i30'
p351
sg13
Nsg14
(lp352
(i__main__
Token
p353
(dp354
g18
I152
sbasg23
I152
sbasg7
g332
sg60
Nsba(i__main__
Chain
p355
(dp356
g3
(lp357
(i__main__
Mention
p358
(dp359
g7
S't9'
p360
sg9
Nsg10
S'i27'
p361
sg12
Nsg13
Nsg14
(lp362
(i__main__
Token
p363
(dp364
g18
I121
sbasg23
I121
sba(i__main__
Mention
p365
(dp366
g7
S't9'
p367
sg9
S'Anaphora-C'
p368
sg10
S'i29'
p369
sg12
S'i27'
p370
sg13
Nsg14
(lp371
(i__main__
Token
p372
(dp373
g18
I132
sbasg23
I132
sba(i__main__
Mention
p374
(dp375
g7
S't9'
p376
sg9
S'Coreference-Identity'
p377
sg10
S'i32'
p378
sg12
S'i29'
p379
sg13
Nsg14
(lp380
(i__main__
Token
p381
(dp382
g18
I145
sbasg23
I145
sbasg7
g360
sg60
Nsba.