(lp0
(i__main__
Chain
p1
(dp2
S'mentionList'
p3
(lp4
(i__main__
Mention
p5
(dp6
S'chainId'
p7
S't1'
p8
sS'relType'
p9
NsS'mentionId'
p10
S'i1'
p11
sS'antecedentId'
p12
NsS'crefMod'
p13
NsS'tokenList'
p14
(lp15
(i__main__
Token
p16
(dp17
S'tokenId'
p18
I0
sba(i__main__
Token
p19
(dp20
g18
I1
sba(i__main__
Token
p21
(dp22
g18
I2
sba(i__main__
Token
p23
(dp24
g18
I3
sbasS'mentionHead'
p25
I3
sba(i__main__
Mention
p26
(dp27
g7
S't1'
p28
sg9
S'Coreference-Identity'
p29
sg10
S'i23'
p30
sg12
S'i1'
p31
sg13
Nsg14
(lp32
(i__main__
Token
p33
(dp34
g18
I201
sba(i__main__
Token
p35
(dp36
g18
I202
sbasg25
I202
sbasg7
g8
sS'chainHead'
p37
Nsba(i__main__
Chain
p38
(dp39
g3
(lp40
(i__main__
Mention
p41
(dp42
g7
S't2'
p43
sg9
S'anaphora-?'
p44
sg10
S'i2'
p45
sg12
S'i2'
p46
sg13
Nsg14
(lp47
(i__main__
Token
p48
(dp49
g18
I8
sbasg25
I8
sbasg7
g43
sg37
Nsba(i__main__
Chain
p50
(dp51
g3
(lp52
(i__main__
Mention
p53
(dp54
g7
S't3'
p55
sg9
Nsg10
S'i3'
p56
sg12
Nsg13
Nsg14
(lp57
(i__main__
Token
p58
(dp59
g18
I9
sba(i__main__
Token
p60
(dp61
g18
I10
sbasg25
I10
sba(i__main__
Mention
p62
(dp63
g7
S't3'
p64
sg9
S'Coreference-RPartOf'
p65
sg10
S'i25'
p66
sg12
S'i3'
p67
sg13
Nsg14
(lp68
(i__main__
Token
p69
(dp70
g18
I242
sba(i__main__
Token
p71
(dp72
g18
I243
sbasg25
I243
sbasg7
g55
sg37
Nsba(i__main__
Chain
p73
(dp74
g3
(lp75
(i__main__
Mention
p76
(dp77
g7
S't4'
p78
sg9
Nsg10
S'i4'
p79
sg12
Nsg13
Nsg14
(lp80
(i__main__
Token
p81
(dp82
g18
I12
sba(i__main__
Token
p83
(dp84
g18
I13
sbasg25
I13
sba(i__main__
Mention
p85
(dp86
g7
S't4'
p87
sg9
S'Coreference-Abbreviation'
p88
sg10
S'i5'
p89
sg12
S'i4'
p90
sg13
Nsg14
(lp91
(i__main__
Token
p92
(dp93
g18
I16
sbasg25
I16
sba(i__main__
Mention
p94
(dp95
g7
S't4'
p96
sg9
S'Coreference-RAbbreviation'
p97
sg10
S'i26'
p98
sg12
S'i5'
p99
sg13
Nsg14
(lp100
(i__main__
Token
p101
(dp102
g18
I245
sba(i__main__
Token
p103
(dp104
g18
I246
sbasg25
I246
sbasg7
g78
sg37
Nsba(i__main__
Chain
p105
(dp106
g3
(lp107
(i__main__
Mention
p108
(dp109
g7
S't5'
p110
sg9
Nsg10
S'i6'
p111
sg12
Nsg13
Nsg14
(lp112
(i__main__
Token
p113
(dp114
g18
I23
sba(i__main__
Token
p115
(dp116
g18
I24
sba(i__main__
Token
p117
(dp118
g18
I25
sba(i__main__
Token
p119
(dp120
g18
I26
sba(i__main__
Token
p121
(dp122
g18
I27
sbasg25
I27
sba(i__main__
Mention
p123
(dp124
g7
S't5'
p125
sg9
S'Coreference-Abbreviation'
p126
sg10
S'i7'
p127
sg12
S'i6'
p128
sg13
Nsg14
(lp129
(i__main__
Token
p130
(dp131
g18
I29
sbasg25
I29
sba(i__main__
Mention
p132
(dp133
g7
S't5'
p134
sg9
S'Coreference-Noun-Noun'
p135
sg10
S'i12'
p136
sg12
S'i7'
p137
sg13
Nsg14
(lp138
(i__main__
Token
p139
(dp140
g18
I53
sbasg25
I53
sba(i__main__
Mention
p141
(dp142
g7
S't5'
p143
sg9
S'Coreference-Identity'
p144
sg10
S'i13'
p145
sg12
S'i12'
p146
sg13
Nsg14
(lp147
(i__main__
Token
p148
(dp149
g18
I83
sbasg25
I83
sba(i__main__
Mention
p150
(dp151
g7
S't5'
p152
sg9
S'Coreference-Identity'
p153
sg10
S'i22'
p154
sg12
S'i13'
p155
sg13
Nsg14
(lp156
(i__main__
Token
p157
(dp158
g18
I187
sbasg25
I187
sba(i__main__
Mention
p159
(dp160
g7
S't5'
p161
sg9
S'Coreference-Identity'
p162
sg10
S'i27'
p163
sg12
S'i22'
p164
sg13
Nsg14
(lp165
(i__main__
Token
p166
(dp167
g18
I253
sbasg25
I253
sba(i__main__
Mention
p168
(dp169
g7
S't5'
p170
sg9
S'Anaphora-C'
p171
sg10
S'i31'
p172
sg12
S'i27'
p173
sg13
Nsg14
(lp174
(i__main__
Token
p175
(dp176
g18
I271
sbasg25
I271
sba(i__main__
Mention
p177
(dp178
g7
S't5'
p179
sg9
S'Coreference-Identity'
p180
sg10
S'i35'
p181
sg12
S'i31'
p182
sg13
Nsg14
(lp183
(i__main__
Token
p184
(dp185
g18
I302
sbasg25
I302
sbasg7
g110
sg37
Nsba(i__main__
Chain
p186
(dp187
g3
(lp188
(i__main__
Mention
p189
(dp190
g7
S't6'
p191
sg9
S'anaphora-?'
p192
sg10
S'i8'
p193
sg12
S'i8'
p194
sg13
Nsg14
(lp195
(i__main__
Token
p196
(dp197
g18
I34
sbasg25
I34
sbasg7
g191
sg37
Nsba(i__main__
Chain
p198
(dp199
g3
(lp200
(i__main__
Mention
p201
(dp202
g7
S't7'
p203
sg9
Nsg10
S'i9'
p204
sg12
Nsg13
Nsg14
(lp205
(i__main__
Token
p206
(dp207
g18
I36
sba(i__main__
Token
p208
(dp209
g18
I37
sba(i__main__
Token
p210
(dp211
g18
I38
sbasg25
I38
sba(i__main__
Mention
p212
(dp213
g7
S't7'
p214
sg9
S'Anaphora-C'
p215
sg10
S'i10'
p216
sg12
S'i9'
p217
sg13
Nsg14
(lp218
(i__main__
Token
p219
(dp220
g18
I44
sbasg25
I44
sbasg7
g203
sg37
Nsba(i__main__
Chain
p221
(dp222
g3
(lp223
(i__main__
Mention
p224
(dp225
g7
S't8'
p226
sg9
Nsg10
S'i11'
p227
sg12
Nsg13
Nsg14
(lp228
(i__main__
Token
p229
(dp230
g18
I45
sba(i__main__
Token
p231
(dp232
g18
I46
sba(i__main__
Token
p233
(dp234
g18
I47
sbasg25
I47
sba(i__main__
Mention
p235
(dp236
g7
S't8'
p237
sg9
S'Coreference-Identity'
p238
sg10
S'i16'
p239
sg12
S'i11'
p240
sg13
Nsg14
(lp241
(i__main__
Token
p242
(dp243
g18
I128
sbasg25
I128
sba(i__main__
Mention
p244
(dp245
g7
S't8'
p246
sg9
S'Coreference-Identity'
p247
sg10
S'i17'
p248
sg12
S'i16'
p249
sg13
Nsg14
(lp250
(i__main__
Token
p251
(dp252
g18
I145
sbasg25
I145
sba(i__main__
Mention
p253
(dp254
g7
S't8'
p255
sg9
S'Anaphora-C'
p256
sg10
S'i18'
p257
sg12
S'i17'
p258
sg13
Nsg14
(lp259
(i__main__
Token
p260
(dp261
g18
I147
sbasg25
I147
sba(i__main__
Mention
p262
(dp263
g7
S't8'
p264
sg9
S'Anaphora-C'
p265
sg10
S'i19'
p266
sg12
S'i18'
p267
sg13
Nsg14
(lp268
(i__main__
Token
p269
(dp270
g18
I149
sbasg25
I149
sbasg7
g226
sg37
Nsba(i__main__
Chain
p271
(dp272
g3
(lp273
(i__main__
Mention
p274
(dp275
g7
S't9'
p276
sg9
Nsg10
S'i14'
p277
sg12
Nsg13
Nsg14
(lp278
(i__main__
Token
p279
(dp280
g18
I85
sbasg25
I85
sba(i__main__
Mention
p281
(dp282
g7
S't9'
p283
sg9
S'Coreference-Identity'
p284
sg10
S'i33'
p285
sg12
S'i14'
p286
sg13
Nsg14
(lp287
(i__main__
Token
p288
(dp289
g18
I282
sbasg25
I282
sbasg7
g276
sg37
Nsba(i__main__
Chain
p290
(dp291
g3
(lp292
(i__main__
Mention
p293
(dp294
g7
S't10'
p295
sg9
S'anaphora-?'
p296
sg10
S'i15'
p297
sg12
S'i15'
p298
sg13
Nsg14
(lp299
(i__main__
Token
p300
(dp301
g18
I105
sbasg25
I105
sbasg7
g295
sg37
Nsba(i__main__
Chain
p302
(dp303
g3
(lp304
(i__main__
Mention
p305
(dp306
g7
S't11'
p307
sg9
Nsg10
S'i20'
p308
sg12
Nsg13
Nsg14
(lp309
(i__main__
Token
p310
(dp311
g18
I162
sba(i__main__
Token
p312
(dp313
g18
I163
sbasg25
I163
sba(i__main__
Mention
p314
(dp315
g7
S't11'
p316
sg9
S'Anaphora-C'
p317
sg10
S'i21'
p318
sg12
S'i20'
p319
sg13
Nsg14
(lp320
(i__main__
Token
p321
(dp322
g18
I165
sbasg25
I165
sba(i__main__
Mention
p323
(dp324
g7
S't11'
p325
sg9
S'Coreference-Identity'
p326
sg10
S'i34'
p327
sg12
S'i21'
p328
sg13
Nsg14
(lp329
(i__main__
Token
p330
(dp331
g18
I294
sba(i__main__
Token
p332
(dp333
g18
I295
sbasg25
I295
sbasg7
g307
sg37
Nsba(i__main__
Chain
p334
(dp335
g3
(lp336
(i__main__
Mention
p337
(dp338
g7
S't12'
p339
sg9
S'anaphora-?'
p340
sg10
S'i24'
p341
sg12
S'i24'
p342
sg13
Nsg14
(lp343
(i__main__
Token
p344
(dp345
g18
I216
sbasg25
I216
sbasg7
g339
sg37
Nsba(i__main__
Chain
p346
(dp347
g3
(lp348
(i__main__
Mention
p349
(dp350
g7
S't13'
p351
sg9
S'anaphora-?'
p352
sg10
S'i28'
p353
sg12
S'i28'
p354
sg13
Nsg14
(lp355
(i__main__
Token
p356
(dp357
g18
I255
sbasg25
I255
sba(i__main__
Mention
p358
(dp359
g7
S't13'
p360
sg9
S'Anaphora-RC'
p361
sg10
S'i29'
p362
sg12
S'i28'
p363
sg13
Nsg14
(lp364
(i__main__
Token
p365
(dp366
g18
I260
sba(i__main__
Token
p367
(dp368
g18
I261
sba(i__main__
Token
p369
(dp370
g18
I262
sba(i__main__
Token
p371
(dp372
g18
I263
sba(i__main__
Token
p373
(dp374
g18
I264
sba(i__main__
Token
p375
(dp376
g18
I265
sba(i__main__
Token
p377
(dp378
g18
I266
sba(i__main__
Token
p379
(dp380
g18
I267
sba(i__main__
Token
p381
(dp382
g18
I268
sba(i__main__
Token
p383
(dp384
g18
I269
sba(i__main__
Token
p385
(dp386
g18
I270
sba(i__main__
Token
p387
(dp388
g18
I271
sba(i__main__
Token
p389
(dp390
g18
I272
sba(i__main__
Token
p391
(dp392
g18
I273
sba(i__main__
Token
p393
(dp394
g18
I274
sba(i__main__
Token
p395
(dp396
g18
I275
sba(i__main__
Token
p397
(dp398
g18
I276
sba(i__main__
Token
p399
(dp400
g18
I277
sba(i__main__
Token
p401
(dp402
g18
I278
sba(i__main__
Token
p403
(dp404
g18
I279
sba(i__main__
Token
p405
(dp406
g18
I280
sbasg25
I279
sbasg7
g351
sg37
Nsba(i__main__
Chain
p407
(dp408
g3
(lp409
(i__main__
Mention
p410
(dp411
g7
S't14'
p412
sg9
S'anaphora-?'
p413
sg10
S'i30'
p414
sg12
S'i30'
p415
sg13
Nsg14
(lp416
(i__main__
Token
p417
(dp418
g18
I267
sbasg25
I267
sbasg7
g412
sg37
Nsba(i__main__
Chain
p419
(dp420
g3
(lp421
(i__main__
Mention
p422
(dp423
g7
S't15'
p424
sg9
S'anaphora-?'
p425
sg10
S'i32'
p426
sg12
S'i32'
p427
sg13
Nsg14
(lp428
(i__main__
Token
p429
(dp430
g18
I275
sbasg25
I275
sbasg7
g424
sg37
Nsba.