(lp0
(i__main__
Chain
p1
(dp2
S'mentionList'
p3
(lp4
(i__main__
Mention
p5
(dp6
S'chainId'
p7
S't1'
p8
sS'relType'
p9
NsS'mentionId'
p10
S'i1'
p11
sS'antecedentId'
p12
NsS'crefMod'
p13
NsS'tokenList'
p14
(lp15
(i__main__
Token
p16
(dp17
S'tokenId'
p18
I7
sba(i__main__
Token
p19
(dp20
g18
I8
sbasS'mentionHead'
p21
I8
sba(i__main__
Mention
p22
(dp23
g7
S't1'
p24
sg9
S'Coreference-NounComplement'
p25
sg10
S'i2'
p26
sg12
S'i1'
p27
sg13
Nsg14
(lp28
(i__main__
Token
p29
(dp30
g18
I9
sba(i__main__
Token
p31
(dp32
g18
I10
sba(i__main__
Token
p33
(dp34
g18
I11
sba(i__main__
Token
p35
(dp36
g18
I12
sba(i__main__
Token
p37
(dp38
g18
I13
sbasg21
I11
sba(i__main__
Mention
p39
(dp40
g7
S't1'
p41
sg9
S'Coreference-Identity'
p42
sg10
S'i26'
p43
sg12
S'i2'
p44
sg13
Nsg14
(lp45
(i__main__
Token
p46
(dp47
g18
I107
sba(i__main__
Token
p48
(dp49
g18
I108
sba(i__main__
Token
p50
(dp51
g18
I109
sba(i__main__
Token
p52
(dp53
g18
I110
sba(i__main__
Token
p54
(dp55
g18
I111
sbasg21
I109
sba(i__main__
Mention
p56
(dp57
g7
S't1'
p58
sg9
S'Coreference-Noun-Noun'
p59
sg10
S'i35'
p60
sg12
S'i26'
p61
sg13
Nsg14
(lp62
(i__main__
Token
p63
(dp64
g18
I154
sba(i__main__
Token
p65
(dp66
g18
I155
sbasg21
I155
sba(i__main__
Mention
p67
(dp68
g7
S't1'
p69
sg9
S'Anaphora-C'
p70
sg10
S'i36'
p71
sg12
S'i35'
p72
sg13
Nsg14
(lp73
(i__main__
Token
p74
(dp75
g18
I159
sbasg21
I159
sba(i__main__
Mention
p76
(dp77
g7
S't1'
p78
sg9
S'Anaphora-C'
p79
sg10
S'i37'
p80
sg12
S'i36'
p81
sg13
Nsg14
(lp82
(i__main__
Token
p83
(dp84
g18
I172
sbasg21
I172
sbasg7
g8
sS'chainHead'
p85
Nsba(i__main__
Chain
p86
(dp87
g3
(lp88
(i__main__
Mention
p89
(dp90
g7
S't2'
p91
sg9
Nsg10
S'i3'
p92
sg12
Nsg13
Nsg14
(lp93
(i__main__
Token
p94
(dp95
g18
I15
sba(i__main__
Token
p96
(dp97
g18
I16
sba(i__main__
Token
p98
(dp99
g18
I17
sbasg21
I17
sba(i__main__
Mention
p100
(dp101
g7
S't2'
p102
sg9
S'Coreference-Identity'
p103
sg10
S'i9'
p104
sg12
S'i3'
p105
sg13
Nsg14
(lp106
(i__main__
Token
p107
(dp108
g18
I43
sbasg21
I43
sba(i__main__
Mention
p109
(dp110
g7
S't2'
p111
sg9
S'Anaphora-C'
p112
sg10
S'i10'
p113
sg12
S'i9'
p114
sg13
Nsg14
(lp115
(i__main__
Token
p116
(dp117
g18
I45
sbasg21
I45
sba(i__main__
Mention
p118
(dp119
g7
S't2'
p120
sg9
Nsg10
S'i13'
p121
sg12
Nsg13
Nsg14
(lp122
(i__main__
Token
p123
(dp124
g18
I50
sba(i__main__
Token
p125
(dp126
g18
I51
sbasg21
Nsba(i__main__
Mention
p127
(dp128
g7
S't2'
p129
sg9
Nsg10
S'i14'
p130
sg12
Nsg13
Nsg14
(lp131
(i__main__
Token
p132
(dp133
g18
I56
sbasg21
Nsba(i__main__
Mention
p134
(dp135
g7
S't2'
p136
sg9
Nsg10
S'i18'
p137
sg12
Nsg13
Nsg14
(lp138
(i__main__
Token
p139
(dp140
g18
I71
sbasg21
Nsba(i__main__
Mention
p141
(dp142
g7
S't2'
p143
sg9
S'Coreference-PartOf'
p144
sg10
S'i23'
p145
sg12
S'i18'
p146
sg13
Nsg14
(lp147
(i__main__
Token
p148
(dp149
g18
I96
sbasg21
I96
sba(i__main__
Mention
p150
(dp151
g7
S't2'
p152
sg9
S'Anaphora-C'
p153
sg10
S'i24'
p154
sg12
S'i23'
p155
sg13
Nsg14
(lp156
(i__main__
Token
p157
(dp158
g18
I98
sbasg21
I98
sba(i__main__
Mention
p159
(dp160
g7
S't2'
p161
sg9
S'Coreference-Identity'
p162
sg10
S'i28'
p163
sg12
S'i24'
p164
sg13
Nsg14
(lp165
(i__main__
Token
p166
(dp167
g18
I118
sbasg21
I118
sba(i__main__
Mention
p168
(dp169
g7
S't2'
p170
sg9
S'Coreference-Identity'
p171
sg10
S'i56'
p172
sg12
S'i28'
p173
sg13
Nsg14
(lp174
(i__main__
Token
p175
(dp176
g18
I284
sbasg21
I284
sba(i__main__
Mention
p177
(dp178
g7
S't2'
p179
sg9
S'Anaphora-C'
p180
sg10
S'i57'
p181
sg12
S'i56'
p182
sg13
Nsg14
(lp183
(i__main__
Token
p184
(dp185
g18
I288
sbasg21
I288
sba(i__main__
Mention
p186
(dp187
g7
S't2'
p188
sg9
Nsg10
S'i59'
p189
sg12
Nsg13
Nsg14
(lp190
(i__main__
Token
p191
(dp192
g18
I294
sbasg21
Nsba(i__main__
Mention
p193
(dp194
g7
S't2'
p195
sg9
S'Coreference-PartOf'
p196
sg10
S'i67'
p197
sg12
S'i59'
p198
sg13
Nsg14
(lp199
(i__main__
Token
p200
(dp201
g18
I323
sbasg21
I323
sba(i__main__
Mention
p202
(dp203
g7
S't2'
p204
sg9
S'Anaphora-C'
p205
sg10
S'i68'
p206
sg12
S'i67'
p207
sg13
Nsg14
(lp208
(i__main__
Token
p209
(dp210
g18
I325
sbasg21
I325
sba(i__main__
Mention
p211
(dp212
g7
S't2'
p213
sg9
Nsg10
S'i70'
p214
sg12
Nsg13
Nsg14
(lp215
(i__main__
Token
p216
(dp217
g18
I330
sbasg21
Nsba(i__main__
Mention
p218
(dp219
g7
S't2'
p220
sg9
Nsg10
S'i72'
p221
sg12
Nsg13
Nsg14
(lp222
(i__main__
Token
p223
(dp224
g18
I334
sbasg21
Nsba(i__main__
Mention
p225
(dp226
g7
S't2'
p227
sg9
Nsg10
S'i78'
p228
sg12
Nsg13
Nsg14
(lp229
(i__main__
Token
p230
(dp231
g18
I363
sbasg21
Nsba(i__main__
Mention
p232
(dp233
g7
S't2'
p234
sg9
S'Coreference-Identity'
p235
sg10
S'i84'
p236
sg12
S'i78'
p237
sg13
Nsg14
(lp238
(i__main__
Token
p239
(dp240
g18
I402
sbasg21
I402
sba(i__main__
Mention
p241
(dp242
g7
S't2'
p243
sg9
S'Anaphora-C'
p244
sg10
S'i85'
p245
sg12
S'i84'
p246
sg13
Nsg14
(lp247
(i__main__
Token
p248
(dp249
g18
I404
sbasg21
I404
sbasg7
g91
sg85
Nsba(i__main__
Chain
p250
(dp251
g3
(lp252
(i__main__
Mention
p253
(dp254
g7
S't3'
p255
sg9
Nsg10
S'i4'
p256
sg12
Nsg13
Nsg14
(lp257
(i__main__
Token
p258
(dp259
g18
I19
sbasg21
I19
sba(i__main__
Mention
p260
(dp261
g7
S't3'
p262
sg9
S'Coreference-NounComplement'
p263
sg10
S'i5'
p264
sg12
S'i4'
p265
sg13
Nsg14
(lp266
(i__main__
Token
p267
(dp268
g18
I20
sba(i__main__
Token
p269
(dp270
g18
I21
sbasg21
I21
sba(i__main__
Mention
p271
(dp272
g7
S't3'
p273
sg9
S'Coreference-Noun-Noun'
p274
sg10
S'i11'
p275
sg12
S'i5'
p276
sg13
Nsg14
(lp277
(i__main__
Token
p278
(dp279
g18
I46
sbasg21
I46
sba(i__main__
Mention
p280
(dp281
g7
S't3'
p282
sg9
Nsg10
S'i12'
p283
sg12
Nsg13
Nsg14
(lp284
(i__main__
Token
p285
(dp286
g18
I50
sba(i__main__
Token
p287
(dp288
g18
I51
sbasg21
Nsba(i__main__
Mention
p289
(dp290
g7
S't3'
p291
sg9
Nsg10
S'i15'
p292
sg12
Nsg13
Nsg14
(lp293
(i__main__
Token
p294
(dp295
g18
I56
sbasg21
Nsba(i__main__
Mention
p296
(dp297
g7
S't3'
p298
sg9
Nsg10
S'i19'
p299
sg12
Nsg13
Nsg14
(lp300
(i__main__
Token
p301
(dp302
g18
I71
sbasg21
Nsba(i__main__
Mention
p303
(dp304
g7
S't3'
p305
sg9
S'Coreference-PartOf'
p306
sg10
S'i25'
p307
sg12
S'i19'
p308
sg13
Nsg14
(lp309
(i__main__
Token
p310
(dp311
g18
I99
sbasg21
I99
sba(i__main__
Mention
p312
(dp313
g7
S't3'
p314
sg9
S'Coreference-Identity'
p315
sg10
S'i29'
p316
sg12
S'i25'
p317
sg13
Nsg14
(lp318
(i__main__
Token
p319
(dp320
g18
I120
sbasg21
I120
sba(i__main__
Mention
p321
(dp322
g7
S't3'
p323
sg9
S'Coreference-NounComplement'
p324
sg10
S'i30'
p325
sg12
S'i29'
p326
sg13
Nsg14
(lp327
(i__main__
Token
p328
(dp329
g18
I121
sba(i__main__
Token
p330
(dp331
g18
I122
sbasg21
I122
sba(i__main__
Mention
p332
(dp333
g7
S't3'
p334
sg9
S'Coreference-Identity'
p335
sg10
S'i38'
p336
sg12
S'i30'
p337
sg13
Nsg14
(lp338
(i__main__
Token
p339
(dp340
g18
I173
sba(i__main__
Token
p341
(dp342
g18
I174
sbasg21
I174
sba(i__main__
Mention
p343
(dp344
g7
S't3'
p345
sg9
S'Coreference-Noun-Noun'
p346
sg10
S'i45'
p347
sg12
S'i38'
p348
sg13
Nsg14
(lp349
(i__main__
Token
p350
(dp351
g18
I216
sbasg21
I216
sba(i__main__
Mention
p352
(dp353
g7
S't3'
p354
sg9
S'Coreference-NounComplement'
p355
sg10
S'i46'
p356
sg12
S'i45'
p357
sg13
Nsg14
(lp358
(i__main__
Token
p359
(dp360
g18
I217
sba(i__main__
Token
p361
(dp362
g18
I218
sbasg21
I218
sba(i__main__
Mention
p363
(dp364
g7
S't3'
p365
sg9
S'Coreference-Identity'
p366
sg10
S'i47'
p367
sg12
S'i46'
p368
sg13
Nsg14
(lp369
(i__main__
Token
p370
(dp371
g18
I244
sba(i__main__
Token
p372
(dp373
g18
I245
sbasg21
I245
sba(i__main__
Mention
p374
(dp375
g7
S't3'
p376
sg9
S'Coreference-Identity'
p377
sg10
S'i58'
p378
sg12
S'i47'
p379
sg13
Nsg14
(lp380
(i__main__
Token
p381
(dp382
g18
I290
sbasg21
I290
sba(i__main__
Mention
p383
(dp384
g7
S't3'
p385
sg9
Nsg10
S'i60'
p386
sg12
Nsg13
Nsg14
(lp387
(i__main__
Token
p388
(dp389
g18
I294
sbasg21
Nsba(i__main__
Mention
p390
(dp391
g7
S't3'
p392
sg9
S'Coreference-PartOf'
p393
sg10
S'i69'
p394
sg12
S'i60'
p395
sg13
Nsg14
(lp396
(i__main__
Token
p397
(dp398
g18
I326
sbasg21
I326
sba(i__main__
Mention
p399
(dp400
g7
S't3'
p401
sg9
Nsg10
S'i71'
p402
sg12
Nsg13
Nsg14
(lp403
(i__main__
Token
p404
(dp405
g18
I330
sbasg21
Nsba(i__main__
Mention
p406
(dp407
g7
S't3'
p408
sg9
Nsg10
S'i73'
p409
sg12
Nsg13
Nsg14
(lp410
(i__main__
Token
p411
(dp412
g18
I334
sbasg21
Nsba(i__main__
Mention
p413
(dp414
g7
S't3'
p415
sg9
Nsg10
S'i79'
p416
sg12
Nsg13
Nsg14
(lp417
(i__main__
Token
p418
(dp419
g18
I363
sbasg21
Nsba(i__main__
Mention
p420
(dp421
g7
S't3'
p422
sg9
S'Coreference-Identity'
p423
sg10
S'i86'
p424
sg12
S'i79'
p425
sg13
Nsg14
(lp426
(i__main__
Token
p427
(dp428
g18
I405
sbasg21
I405
sbasg7
g255
sg85
Nsba(i__main__
Chain
p429
(dp430
g3
(lp431
(i__main__
Mention
p432
(dp433
g7
S't4'
p434
sg9
Nsg10
S'i6'
p435
sg12
Nsg13
Nsg14
(lp436
(i__main__
Token
p437
(dp438
g18
I23
sba(i__main__
Token
p439
(dp440
g18
I24
sbasg21
I24
sba(i__main__
Mention
p441
(dp442
g7
S't4'
p443
sg9
S'Coreference-NounComplement'
p444
sg10
S'i27'
p445
sg12
S'i6'
p446
sg13
Nsg14
(lp447
(i__main__
Token
p448
(dp449
g18
I115
sba(i__main__
Token
p450
(dp451
g18
I116
sba(i__main__
Token
p452
(dp453
g18
I117
sbasg21
I115
sba(i__main__
Mention
p454
(dp455
g7
S't4'
p456
sg9
S'Coreference-Noun-Noun'
p457
sg10
S'i31'
p458
sg12
S'i27'
p459
sg13
Nsg14
(lp460
(i__main__
Token
p461
(dp462
g18
I127
sba(i__main__
Token
p463
(dp464
g18
I128
sba(i__main__
Token
p465
(dp466
g18
I129
sbasg21
I129
sba(i__main__
Mention
p467
(dp468
g7
S't4'
p469
sg9
S'Coreference-Identity'
p470
sg10
S'i34'
p471
sg12
S'i31'
p472
sg13
Nsg14
(lp473
(i__main__
Token
p474
(dp475
g18
I153
sbasg21
I153
sba(i__main__
Mention
p476
(dp477
g7
S't4'
p478
sg9
S'Coreference-Noun-Noun'
p479
sg10
S'i53'
p480
sg12
S'i34'
p481
sg13
Nsg14
(lp482
(i__main__
Token
p483
(dp484
g18
I279
sba(i__main__
Token
p485
(dp486
g18
I280
sba(i__main__
Token
p487
(dp488
g18
I281
sbasg21
I279
sba(i__main__
Mention
p489
(dp490
g7
S't4'
p491
sg9
S'Coreference-Noun-Noun'
p492
sg10
S'i64'
p493
sg12
S'i53'
p494
sg13
Nsg14
(lp495
(i__main__
Token
p496
(dp497
g18
I308
sba(i__main__
Token
p498
(dp499
g18
I309
sbasg21
I309
sbasg7
g434
sg85
Nsba(i__main__
Chain
p500
(dp501
g3
(lp502
(i__main__
Mention
p503
(dp504
g7
S't5'
p505
sg9
Nsg10
S'i7'
p506
sg12
Nsg13
Nsg14
(lp507
(i__main__
Token
p508
(dp509
g18
I30
sbasg21
I30
sba(i__main__
Mention
p510
(dp511
g7
S't5'
p512
sg9
S'Coreference-Identity'
p513
sg10
S'i17'
p514
sg12
S'i7'
p515
sg13
Nsg14
(lp516
(i__main__
Token
p517
(dp518
g18
I63
sbasg21
I63
sba(i__main__
Mention
p519
(dp520
g7
S't5'
p521
sg9
S'Coreference-Noun-Noun'
p522
sg10
S'i32'
p523
sg12
S'i17'
p524
sg13
Nsg14
(lp525
(i__main__
Token
p526
(dp527
g18
I140
sba(i__main__
Token
p528
(dp529
g18
I141
sba(i__main__
Token
p530
(dp531
g18
I142
sbasg21
I142
sba(i__main__
Mention
p532
(dp533
g7
S't5'
p534
sg9
S'Coreference-Noun-Noun'
p535
sg10
S'i33'
p536
sg12
S'i32'
p537
sg13
Nsg14
(lp538
(i__main__
Token
p539
(dp540
g18
I148
sbasg21
I148
sba(i__main__
Mention
p541
(dp542
g7
S't5'
p543
sg9
S'Coreference-Identity'
p544
sg10
S'i39'
p545
sg12
S'i33'
p546
sg13
Nsg14
(lp547
(i__main__
Token
p548
(dp549
g18
I176
sbasg21
I176
sba(i__main__
Mention
p550
(dp551
g7
S't5'
p552
sg9
S'Coreference-Noun-Noun'
p553
sg10
S'i44'
p554
sg12
S'i39'
p555
sg13
Nsg14
(lp556
(i__main__
Token
p557
(dp558
g18
I209
sba(i__main__
Token
p559
(dp560
g18
I210
sba(i__main__
Token
p561
(dp562
g18
I211
sbasg21
I211
sba(i__main__
Mention
p563
(dp564
g7
S't5'
p565
sg9
S'Coreference-Noun-Noun'
p566
sg10
S'i76'
p567
sg12
S'i44'
p568
sg13
Nsg14
(lp569
(i__main__
Token
p570
(dp571
g18
I354
sbasg21
I354
sba(i__main__
Mention
p572
(dp573
g7
S't5'
p574
sg9
S'Coreference-Identity'
p575
sg10
S'i80'
p576
sg12
S'i76'
p577
sg13
Nsg14
(lp578
(i__main__
Token
p579
(dp580
g18
I371
sba(i__main__
Token
p581
(dp582
g18
I372
sbasg21
I372
sbasg7
g505
sg85
Nsba(i__main__
Chain
p583
(dp584
g3
(lp585
(i__main__
Mention
p586
(dp587
g7
S't6'
p588
sg9
Nsg10
S'i8'
p589
sg12
Nsg13
Nsg14
(lp590
(i__main__
Token
p591
(dp592
g18
I31
sba(i__main__
Token
p593
(dp594
g18
I32
sbasg21
I32
sba(i__main__
Mention
p595
(dp596
g7
S't6'
p597
sg9
S'Coreference-Identity'
p598
sg10
S'i16'
p599
sg12
S'i8'
p600
sg13
Nsg14
(lp601
(i__main__
Token
p602
(dp603
g18
I57
sba(i__main__
Token
p604
(dp605
g18
I58
sbasg21
I58
sba(i__main__
Mention
p606
(dp607
g7
S't6'
p608
sg9
S'Coreference-Identity'
p609
sg10
S'i20'
p610
sg12
S'i16'
p611
sg13
Nsg14
(lp612
(i__main__
Token
p613
(dp614
g18
I81
sbasg21
I81
sba(i__main__
Mention
p615
(dp616
g7
S't6'
p617
sg9
S'Coreference-Identity'
p618
sg10
S'i40'
p619
sg12
S'i20'
p620
sg13
Nsg14
(lp621
(i__main__
Token
p622
(dp623
g18
I188
sbasg21
I188
sba(i__main__
Mention
p624
(dp625
g7
S't6'
p626
sg9
S'Coreference-Identity'
p627
sg10
S'i48'
p628
sg12
S'i40'
p629
sg13
Nsg14
(lp630
(i__main__
Token
p631
(dp632
g18
I263
sbasg21
I263
sba(i__main__
Mention
p633
(dp634
g7
S't6'
p635
sg9
S'Coreference-Identity'
p636
sg10
S'i50'
p637
sg12
S'i48'
p638
sg13
Nsg14
(lp639
(i__main__
Token
p640
(dp641
g18
I275
sbasg21
I275
sba(i__main__
Mention
p642
(dp643
g7
S't6'
p644
sg9
S'Coreference-Identity'
p645
sg10
S'i65'
p646
sg12
S'i50'
p647
sg13
Nsg14
(lp648
(i__main__
Token
p649
(dp650
g18
I315
sbasg21
I315
sba(i__main__
Mention
p651
(dp652
g7
S't6'
p653
sg9
S'Coreference-Identity'
p654
sg10
S'i75'
p655
sg12
S'i65'
p656
sg13
Nsg14
(lp657
(i__main__
Token
p658
(dp659
g18
I349
sbasg21
I349
sba(i__main__
Mention
p660
(dp661
g7
S't6'
p662
sg9
S'Coreference-Identity'
p663
sg10
S'i81'
p664
sg12
S'i75'
p665
sg13
Nsg14
(lp666
(i__main__
Token
p667
(dp668
g18
I388
sba(i__main__
Token
p669
(dp670
g18
I389
sbasg21
I389
sbasg7
g588
sg85
Nsba(i__main__
Chain
p671
(dp672
g3
(lp673
(i__main__
Mention
p674
(dp675
g7
S't7'
p676
sg9
Nsg10
S'i21'
p677
sg12
Nsg13
Nsg14
(lp678
(i__main__
Token
p679
(dp680
g18
I85
sbasg21
I85
sba(i__main__
Mention
p681
(dp682
g7
S't7'
p683
sg9
S'Coreference-NounComplement'
p684
sg10
S'i22'
p685
sg12
S'i21'
p686
sg13
Nsg14
(lp687
(i__main__
Token
p688
(dp689
g18
I86
sba(i__main__
Token
p690
(dp691
g18
I87
sba(i__main__
Token
p692
(dp693
g18
I88
sbasg21
I88
sba(i__main__
Mention
p694
(dp695
g7
S't7'
p696
sg9
S'Coreference-Noun-Noun'
p697
sg10
S'i82'
p698
sg12
S'i22'
p699
sg13
Nsg14
(lp700
(i__main__
Token
p701
(dp702
g18
I394
sbasg21
I394
sba(i__main__
Mention
p703
(dp704
g7
S't7'
p705
sg9
S'Coreference-NounComplement'
p706
sg10
S'i83'
p707
sg12
S'i82'
p708
sg13
Nsg14
(lp709
(i__main__
Token
p710
(dp711
g18
I395
sba(i__main__
Token
p712
(dp713
g18
I396
sba(i__main__
Token
p714
(dp715
g18
I397
sbasg21
I397
sbasg7
g676
sg85
Nsba(i__main__
Chain
p716
(dp717
g3
(lp718
(i__main__
Mention
p719
(dp720
g7
S't8'
p721
sg9
Nsg10
S'i41'
p722
sg12
Nsg13
Nsg14
(lp723
(i__main__
Token
p724
(dp725
g18
I193
sba(i__main__
Token
p726
(dp727
g18
I194
sbasg21
I194
sba(i__main__
Mention
p728
(dp729
g7
S't8'
p730
sg9
S'Coreference-NounComplement'
p731
sg10
S'i42'
p732
sg12
S'i41'
p733
sg13
Nsg14
(lp734
(i__main__
Token
p735
(dp736
g18
I195
sba(i__main__
Token
p737
(dp738
g18
I196
sba(i__main__
Token
p739
(dp740
g18
I197
sba(i__main__
Token
p741
(dp742
g18
I198
sbasg21
I198
sba(i__main__
Mention
p743
(dp744
g7
S't8'
p745
sg9
S'Anaphora-C'
p746
sg10
S'i43'
p747
sg12
S'i42'
p748
sg13
Nsg14
(lp749
(i__main__
Token
p750
(dp751
g18
I200
sbasg21
I200
sbasg7
g721
sg85
Nsba(i__main__
Chain
p752
(dp753
g3
(lp754
(i__main__
Mention
p755
(dp756
g7
S't9'
p757
sg9
Nsg10
S'i49'
p758
sg12
Nsg13
Nsg14
(lp759
(i__main__
Token
p760
(dp761
g18
I265
sbasg21
I265
sba(i__main__
Mention
p762
(dp763
g7
S't9'
p764
sg9
S'Coreference-Identity'
p765
sg10
S'i51'
p766
sg12
S'i49'
p767
sg13
Nsg14
(lp768
(i__main__
Token
p769
(dp770
g18
I277
sbasg21
I277
sba(i__main__
Mention
p771
(dp772
g7
S't9'
p773
sg9
S'Coreference-Identity'
p774
sg10
S'i62'
p775
sg12
S'i51'
p776
sg13
Nsg14
(lp777
(i__main__
Token
p778
(dp779
g18
I296
sbasg21
I296
sba(i__main__
Mention
p780
(dp781
g7
S't9'
p782
sg9
S'Coreference-Identity'
p783
sg10
S'i66'
p784
sg12
S'i62'
p785
sg13
Nsg14
(lp786
(i__main__
Token
p787
(dp788
g18
I317
sbasg21
I317
sbasg7
g757
sg85
Nsba(i__main__
Chain
p789
(dp790
g3
(lp791
(i__main__
Mention
p792
(dp793
g7
S't10'
p794
sg9
Nsg10
S'i52'
p795
sg12
Nsg13
Nsg14
(lp796
(i__main__
Token
p797
(dp798
g18
I278
sbasg21
I278
sba(i__main__
Mention
p799
(dp800
g7
S't10'
p801
sg9
S'Anaphora-RT'
p802
sg10
S'i54'
p803
sg12
S'i52'
p804
sg13
Nsg14
(lp805
(i__main__
Token
p806
(dp807
g18
I279
sba(i__main__
Token
p808
(dp809
g18
I280
sba(i__main__
Token
p810
(dp811
g18
I281
sba(i__main__
Token
p812
(dp813
g18
I282
sbasg21
I282
sbasg7
g794
sg85
Nsba(i__main__
Chain
p814
(dp815
g3
(lp816
(i__main__
Mention
p817
(dp818
g7
S't11'
p819
sg9
Nsg10
S'i55'
p820
sg12
Nsg13
Nsg14
(lp821
(i__main__
Token
p822
(dp823
g18
I283
sbasg21
I283
sbasg7
g819
sg85
Nsba(i__main__
Chain
p824
(dp825
g3
(lp826
(i__main__
Mention
p827
(dp828
g7
S't12'
p829
sg9
Nsg10
S'i61'
p830
sg12
Nsg13
Nsg14
(lp831
(i__main__
Token
p832
(dp833
g18
I294
sba(i__main__
Token
p834
(dp835
g18
I295
sba(i__main__
Token
p836
(dp837
g18
I296
sba(i__main__
Token
p838
(dp839
g18
I297
sba(i__main__
Token
p840
(dp841
g18
I298
sba(i__main__
Token
p842
(dp843
g18
I299
sba(i__main__
Token
p844
(dp845
g18
I300
sbasg21
I300
sba(i__main__
Mention
p846
(dp847
g7
S't12'
p848
sg9
S'Anaphora-E'
p849
sg10
S'i63'
p850
sg12
S'i61'
p851
sg13
Nsg14
(lp852
(i__main__
Token
p853
(dp854
g18
I302
sbasg21
I302
sbasg7
g829
sg85
Nsba(i__main__
Chain
p855
(dp856
g3
(lp857
(i__main__
Mention
p858
(dp859
g7
S't13'
p860
sg9
Nsg10
S'i74'
p861
sg12
Nsg13
Nsg14
(lp862
(i__main__
Token
p863
(dp864
g18
I342
sbasg21
I342
sbasg7
g860
sg85
Nsba(i__main__
Chain
p865
(dp866
g3
(lp867
(i__main__
Mention
p868
(dp869
g7
S't14'
p870
sg9
Nsg10
S'i77'
p871
sg12
Nsg13
Nsg14
(lp872
(i__main__
Token
p873
(dp874
g18
I361
sbasg21
I361
sbasg7
g870
sg85
Nsba(i__main__
Chain
p875
(dp876
g3
(lp877
(i__main__
Mention
p878
(dp879
g7
S't15'
p880
sg9
Nsg10
S'i87'
p881
sg12
Nsg13
Nsg14
(lp882
(i__main__
Token
p883
(dp884
g18
I409
sbasg21
I409
sbasg7
g880
sg85
Nsba.