(lp0
(i__main__
Chain
p1
(dp2
S'mentionList'
p3
(lp4
(i__main__
Mention
p5
(dp6
S'chainId'
p7
S't1'
p8
sS'relType'
p9
NsS'mentionId'
p10
S'i1'
p11
sS'antecedentId'
p12
NsS'crefMod'
p13
NsS'tokenList'
p14
(lp15
(i__main__
Token
p16
(dp17
S'tokenId'
p18
I3
sba(i__main__
Token
p19
(dp20
g18
I4
sbasS'mentionHead'
p21
I4
sba(i__main__
Mention
p22
(dp23
g7
S't1'
p24
sg9
S'Coreference-Identity'
p25
sg10
S'i12'
p26
sg12
S'i1'
p27
sg13
Nsg14
(lp28
(i__main__
Token
p29
(dp30
g18
I70
sbasg21
I70
sba(i__main__
Mention
p31
(dp32
g7
S't1'
p33
sg9
S'Coreference-Identity'
p34
sg10
S'i18'
p35
sg12
S'i12'
p36
sg13
Nsg14
(lp37
(i__main__
Token
p38
(dp39
g18
I107
sbasg21
I107
sbasg7
g8
sS'chainHead'
p40
Nsba(i__main__
Chain
p41
(dp42
g3
(lp43
(i__main__
Mention
p44
(dp45
g7
S't2'
p46
sg9
Nsg10
S'i2'
p47
sg12
Nsg13
Nsg14
(lp48
(i__main__
Token
p49
(dp50
g18
I6
sbasg21
I6
sba(i__main__
Mention
p51
(dp52
g7
S't2'
p53
sg9
S'Coreference-Identity'
p54
sg10
S'i14'
p55
sg12
S'i2'
p56
sg13
Nsg14
(lp57
(i__main__
Token
p58
(dp59
g18
I72
sbasg21
I72
sba(i__main__
Mention
p60
(dp61
g7
S't2'
p62
sg9
S'Coreference-Identity'
p63
sg10
S'i21'
p64
sg12
S'i14'
p65
sg13
Nsg14
(lp66
(i__main__
Token
p67
(dp68
g18
I109
sbasg21
I109
sbasg7
g46
sg40
Nsba(i__main__
Chain
p69
(dp70
g3
(lp71
(i__main__
Mention
p72
(dp73
g7
S't3'
p74
sg9
Nsg10
S'i3'
p75
sg12
Nsg13
Nsg14
(lp76
(i__main__
Token
p77
(dp78
g18
I11
sba(i__main__
Token
p79
(dp80
g18
I12
sba(i__main__
Token
p81
(dp82
g18
I13
sbasg21
I13
sba(i__main__
Mention
p83
(dp84
g7
S't3'
p85
sg9
S'Coreference-Identity'
p86
sg10
S'i6'
p87
sg12
S'i3'
p88
sg13
Nsg14
(lp89
(i__main__
Token
p90
(dp91
g18
I24
sba(i__main__
Token
p92
(dp93
g18
I25
sba(i__main__
Token
p94
(dp95
g18
I26
sbasg21
I26
sba(i__main__
Mention
p96
(dp97
g7
S't3'
p98
sg9
S'Coreference-Noun-Noun'
p99
sg10
S'i13'
p100
sg12
S'i6'
p101
sg13
Nsg14
(lp102
(i__main__
Token
p103
(dp104
g18
I75
sba(i__main__
Token
p105
(dp106
g18
I76
sbasg21
I76
sba(i__main__
Mention
p107
(dp108
g7
S't3'
p109
sg9
S'Coreference-Noun-Noun'
p110
sg10
S'i15'
p111
sg12
S'i13'
p112
sg13
Nsg14
(lp113
(i__main__
Token
p114
(dp115
g18
I86
sba(i__main__
Token
p116
(dp117
g18
I87
sbasg21
I87
sba(i__main__
Mention
p118
(dp119
g7
S't3'
p120
sg9
S'Anaphora-C'
p121
sg10
S'i17'
p122
sg12
S'i15'
p123
sg13
Nsg14
(lp124
(i__main__
Token
p125
(dp126
g18
I99
sbasg21
I99
sba(i__main__
Mention
p127
(dp128
g7
S't3'
p129
sg9
S'Coreference-Identity'
p130
sg10
S'i20'
p131
sg12
S'i17'
p132
sg13
Nsg14
(lp133
(i__main__
Token
p134
(dp135
g18
I111
sba(i__main__
Token
p136
(dp137
g18
I112
sbasg21
I112
sba(i__main__
Mention
p138
(dp139
g7
S't3'
p140
sg9
S'Anaphora-C'
p141
sg10
S'i22'
p142
sg12
S'i20'
p143
sg13
Nsg14
(lp144
(i__main__
Token
p145
(dp146
g18
I120
sbasg21
I120
sba(i__main__
Mention
p147
(dp148
g7
S't3'
p149
sg9
S'Anaphora-C'
p150
sg10
S'i23'
p151
sg12
S'i22'
p152
sg13
Nsg14
(lp153
(i__main__
Token
p154
(dp155
g18
I131
sbasg21
I131
sbasg7
g74
sg40
Nsba(i__main__
Chain
p156
(dp157
g3
(lp158
(i__main__
Mention
p159
(dp160
g7
S't4'
p161
sg9
Nsg10
S'i4'
p162
sg12
Nsg13
Nsg14
(lp163
(i__main__
Token
p164
(dp165
g18
I11
sbasg21
I11
sba(i__main__
Mention
p166
(dp167
g7
S't4'
p168
sg9
S'Coreference-Noun-Noun'
p169
sg10
S'i7'
p170
sg12
S'i4'
p171
sg13
Nsg14
(lp172
(i__main__
Token
p173
(dp174
g18
I27
sba(i__main__
Token
p175
(dp176
g18
I28
sbasg21
I28
sba(i__main__
Mention
p177
(dp178
g7
S't4'
p179
sg9
S'Coreference-Identity'
p180
sg10
S'i24'
p181
sg12
S'i25'
p182
sg13
Nsg14
(lp183
(i__main__
Token
p184
(dp185
g18
I147
sbasg21
I147
sbasg7
g161
sg40
Nsba(i__main__
Chain
p186
(dp187
g3
(lp188
(i__main__
Mention
p189
(dp190
g7
S't5'
p191
sg9
Nsg10
S'i5'
p192
sg12
Nsg13
Nsg14
(lp193
(i__main__
Token
p194
(dp195
g18
I15
sbasg21
I15
sba(i__main__
Mention
p196
(dp197
g7
S't5'
p198
sg9
S'Coreference-Identity'
p199
sg10
S'i10'
p200
sg12
S'i5'
p201
sg13
Nsg14
(lp202
(i__main__
Token
p203
(dp204
g18
I63
sbasg21
I63
sbasg7
g191
sg40
Nsba(i__main__
Chain
p205
(dp206
g3
(lp207
(i__main__
Mention
p208
(dp209
g7
S't6'
p210
sg9
Nsg10
S'i8'
p211
sg12
Nsg13
Nsg14
(lp212
(i__main__
Token
p213
(dp214
g18
I31
sba(i__main__
Token
p215
(dp216
g18
I32
sbasg21
I32
sba(i__main__
Mention
p217
(dp218
g7
S't6'
p219
sg9
S'Coreference-NounComplement'
p220
sg10
S'i9'
p221
sg12
S'i8'
p222
sg13
Nsg14
(lp223
(i__main__
Token
p224
(dp225
g18
I36
sba(i__main__
Token
p226
(dp227
g18
I37
sbasg21
I37
sbasg7
g210
sg40
Nsba(i__main__
Chain
p228
(dp229
g3
(lp230
(i__main__
Mention
p231
(dp232
g7
S't7'
p233
sg9
Nsg10
S'i11'
p234
sg12
Nsg13
Nsg14
(lp235
(i__main__
Token
p236
(dp237
g18
I70
sba(i__main__
Token
p238
(dp239
g18
I71
sba(i__main__
Token
p240
(dp241
g18
I72
sba(i__main__
Token
p242
(dp243
g18
I73
sbasg21
I73
sba(i__main__
Mention
p244
(dp245
g7
S't7'
p246
sg9
S'Coreference-Identity'
p247
sg10
S'i19'
p248
sg12
S'i11'
p249
sg13
Nsg14
(lp250
(i__main__
Token
p251
(dp252
g18
I107
sba(i__main__
Token
p253
(dp254
g18
I108
sba(i__main__
Token
p255
(dp256
g18
I109
sbasg21
I108
sbasg7
g233
sg40
Nsba(i__main__
Chain
p257
(dp258
g3
(lp259
(i__main__
Mention
p260
(dp261
g7
S't8'
p262
sg9
S'anaphora-?'
p263
sg10
S'i16'
p264
sg12
S'i16'
p265
sg13
Nsg14
(lp266
(i__main__
Token
p267
(dp268
g18
I98
sbasg21
I98
sbasg7
g262
sg40
Nsba(i__main__
Chain
p269
(dp270
g3
(lp271
(i__main__
Mention
p272
(dp273
g7
S't9'
p274
sg9
Nsg10
S'i26'
p275
sg12
Nsg13
Nsg14
(lp276
(i__main__
Token
p277
(dp278
g18
I156
sba(i__main__
Token
p279
(dp280
g18
I157
sba(i__main__
Token
p281
(dp282
g18
I158
sbasg21
I158
sbasg7
g274
sg40
Nsba(i__main__
Chain
p283
(dp284
g3
(lp285
(i__main__
Mention
p286
(dp287
g7
S't10'
p288
sg9
S'anaphora-?'
p289
sg10
S'i27'
p290
sg12
S'i27'
p291
sg13
Nsg14
(lp292
(i__main__
Token
p293
(dp294
g18
I161
sbasg21
I161
sbasg7
g288
sg40
Nsba.