(lp0
(i__main__
Chain
p1
(dp2
S'mentionList'
p3
(lp4
(i__main__
Mention
p5
(dp6
S'chainId'
p7
S't1'
p8
sS'relType'
p9
NsS'mentionId'
p10
S'i1'
p11
sS'antecedentId'
p12
NsS'crefMod'
p13
NsS'tokenList'
p14
(lp15
(i__main__
Token
p16
(dp17
S'tokenId'
p18
I3
sba(i__main__
Token
p19
(dp20
g18
I4
sbasS'mentionHead'
p21
I4
sba(i__main__
Mention
p22
(dp23
g7
S't1'
p24
sg9
S'Coreference-Identity'
p25
sg10
S'i29'
p26
sg12
S'i1'
p27
sg13
Nsg14
(lp28
(i__main__
Token
p29
(dp30
g18
I125
sbasg21
I125
sbasg7
g8
sS'chainHead'
p31
Nsba(i__main__
Chain
p32
(dp33
g3
(lp34
(i__main__
Mention
p35
(dp36
g7
S't2'
p37
sg9
Nsg10
S'i2'
p38
sg12
Nsg13
Nsg14
(lp39
(i__main__
Token
p40
(dp41
g18
I6
sbasg21
I6
sba(i__main__
Mention
p42
(dp43
g7
S't2'
p44
sg9
S'Coreference-NounComplement'
p45
sg10
S'i3'
p46
sg12
S'i2'
p47
sg13
Nsg14
(lp48
(i__main__
Token
p49
(dp50
g18
I7
sba(i__main__
Token
p51
(dp52
g18
I8
sbasg21
I8
sba(i__main__
Mention
p53
(dp54
g7
S't2'
p55
sg9
S'Coreference-Identity'
p56
sg10
S'i17'
p57
sg12
S'i3'
p58
sg13
Nsg14
(lp59
(i__main__
Token
p60
(dp61
g18
I63
sbasg21
I63
sba(i__main__
Mention
p62
(dp63
g7
S't2'
p64
sg9
S'Coreference-Noun-Noun'
p65
sg10
S'i21'
p66
sg12
S'i17'
p67
sg13
Nsg14
(lp68
(i__main__
Token
p69
(dp70
g18
I81
sbasg21
I81
sba(i__main__
Mention
p71
(dp72
g7
S't2'
p73
sg9
S'Coreference-Noun-Noun'
p74
sg10
S'i28'
p75
sg12
S'i21'
p76
sg13
Nsg14
(lp77
(i__main__
Token
p78
(dp79
g18
I123
sbasg21
I123
sbasg7
g37
sg31
Nsba(i__main__
Chain
p80
(dp81
g3
(lp82
(i__main__
Mention
p83
(dp84
g7
S't3'
p85
sg9
S'anaphora-?'
p86
sg10
S'i4'
p87
sg12
S'i5'
p88
sg13
Nsg14
(lp89
(i__main__
Token
p90
(dp91
g18
I15
sbasg21
I15
sba(i__main__
Mention
p92
(dp93
g7
S't3'
p94
sg9
S'Anaphora-RC'
p95
sg10
S'i16'
p96
sg12
S'i4'
p97
sg13
Nsg14
(lp98
(i__main__
Token
p99
(dp100
g18
I63
sba(i__main__
Token
p101
(dp102
g18
I64
sbasg21
I64
sba(i__main__
Mention
p103
(dp104
g7
S't3'
p105
sg9
S'Coreference-Identity'
p106
sg10
S'i22'
p107
sg12
S'i16'
p108
sg13
Nsg14
(lp109
(i__main__
Token
p110
(dp111
g18
I89
sbasg21
I89
sbasg7
g85
sg31
Nsba(i__main__
Chain
p112
(dp113
g3
(lp114
(i__main__
Mention
p115
(dp116
g7
S't4'
p117
sg9
Nsg10
S'i6'
p118
sg12
Nsg13
Nsg14
(lp119
(i__main__
Token
p120
(dp121
g18
I16
sba(i__main__
Token
p122
(dp123
g18
I17
sba(i__main__
Token
p124
(dp125
g18
I18
sbasg21
I18
sba(i__main__
Mention
p126
(dp127
g7
S't4'
p128
sg9
S'Coreference-Identity'
p129
sg10
S'i45'
p130
sg12
S'i6'
p131
sg13
Nsg14
(lp132
(i__main__
Token
p133
(dp134
g18
I219
sba(i__main__
Token
p135
(dp136
g18
I220
sba(i__main__
Token
p137
(dp138
g18
I221
sbasg21
I221
sba(i__main__
Mention
p139
(dp140
g7
S't4'
p141
sg9
S'Coreference-Identity'
p142
sg10
S'i51'
p143
sg12
S'i45'
p144
sg13
Nsg14
(lp145
(i__main__
Token
p146
(dp147
g18
I239
sbasg21
I239
sbasg7
g117
sg31
Nsba(i__main__
Chain
p148
(dp149
g3
(lp150
(i__main__
Mention
p151
(dp152
g7
S't5'
p153
sg9
Nsg10
S'i7'
p154
sg12
Nsg13
Nsg14
(lp155
(i__main__
Token
p156
(dp157
g18
I20
sba(i__main__
Token
p158
(dp159
g18
I21
sba(i__main__
Token
p160
(dp161
g18
I22
sbasg21
I22
sba(i__main__
Mention
p162
(dp163
g7
S't5'
p164
sg9
S'Anaphora-C'
p165
sg10
S'i8'
p166
sg12
S'i7'
p167
sg13
Nsg14
(lp168
(i__main__
Token
p169
(dp170
g18
I24
sbasg21
I24
sba(i__main__
Mention
p171
(dp172
g7
S't5'
p173
sg9
S'Coreference-Noun-Noun'
p174
sg10
S'i15'
p175
sg12
S'i8'
p176
sg13
Nsg14
(lp177
(i__main__
Token
p178
(dp179
g18
I60
sbasg21
I60
sba(i__main__
Mention
p180
(dp181
g7
S't5'
p182
sg9
S'Coreference-Identity'
p183
sg10
S'i23'
p184
sg12
S'i15'
p185
sg13
Nsg14
(lp186
(i__main__
Token
p187
(dp188
g18
I93
sbasg21
I93
sba(i__main__
Mention
p189
(dp190
g7
S't5'
p191
sg9
S'Anaphora-C'
p192
sg10
S'i27'
p193
sg12
S'i23'
p194
sg13
Nsg14
(lp195
(i__main__
Token
p196
(dp197
g18
I116
sbasg21
I116
sbasg7
g153
sg31
Nsba(i__main__
Chain
p198
(dp199
g3
(lp200
(i__main__
Mention
p201
(dp202
g7
S't6'
p203
sg9
Nsg10
S'i9'
p204
sg12
Nsg13
Nsg14
(lp205
(i__main__
Token
p206
(dp207
g18
I26
sba(i__main__
Token
p208
(dp209
g18
I27
sbasg21
I27
sba(i__main__
Mention
p210
(dp211
g7
S't6'
p212
sg9
S'Coreference-Noun-Noun'
p213
sg10
S'i12'
p214
sg12
S'i9'
p215
sg13
Nsg14
(lp216
(i__main__
Token
p217
(dp218
g18
I49
sbasg21
I49
sba(i__main__
Mention
p219
(dp220
g7
S't6'
p221
sg9
S'Coreference-NounComplement'
p222
sg10
S'i13'
p223
sg12
S'i12'
p224
sg13
Nsg14
(lp225
(i__main__
Token
p226
(dp227
g18
I50
sbasg21
I50
sba(i__main__
Mention
p228
(dp229
g7
S't6'
p230
sg9
S'Coreference-Noun-Noun'
p231
sg10
S'i25'
p232
sg12
S'i13'
p233
sg13
Nsg14
(lp234
(i__main__
Token
p235
(dp236
g18
I96
sbasg21
I96
sba(i__main__
Mention
p237
(dp238
g7
S't6'
p239
sg9
S'Coreference-Noun-Noun'
p240
sg10
S'i35'
p241
sg12
S'i25'
p242
sg13
Nsg14
(lp243
(i__main__
Token
p244
(dp245
g18
I156
sba(i__main__
Token
p246
(dp247
g18
I157
sbasg21
I157
sba(i__main__
Mention
p248
(dp249
g7
S't6'
p250
sg9
S'Coreference-Noun-Noun'
p251
sg10
S'i36'
p252
sg12
S'i35'
p253
sg13
Nsg14
(lp254
(i__main__
Token
p255
(dp256
g18
I159
sbasg21
I159
sba(i__main__
Mention
p257
(dp258
g7
S't6'
p259
sg9
S'Coreference-Noun-Noun'
p260
sg10
S'i37'
p261
sg12
S'i36'
p262
sg13
Nsg14
(lp263
(i__main__
Token
p264
(dp265
g18
I176
sbasg21
I176
sba(i__main__
Mention
p266
(dp267
g7
S't6'
p268
sg9
S'Coreference-Identity'
p269
sg10
S'i40'
p270
sg12
S'i37'
p271
sg13
Nsg14
(lp272
(i__main__
Token
p273
(dp274
g18
I196
sbasg21
I196
sba(i__main__
Mention
p275
(dp276
g7
S't6'
p277
sg9
S'Coreference-Noun-Noun'
p278
sg10
S'i43'
p279
sg12
S'i40'
p280
sg13
Nsg14
(lp281
(i__main__
Token
p282
(dp283
g18
I217
sbasg21
I217
sba(i__main__
Mention
p284
(dp285
g7
S't6'
p286
sg9
S'Coreference-NounComplement'
p287
sg10
S'i44'
p288
sg12
S'i43'
p289
sg13
Nsg14
(lp290
(i__main__
Token
p291
(dp292
g18
I218
sbasg21
I218
sba(i__main__
Mention
p293
(dp294
g7
S't6'
p295
sg9
S'Coreference-Apposition'
p296
sg10
S'i46'
p297
sg12
S'i44'
p298
sg13
Nsg14
(lp299
(i__main__
Token
p300
(dp301
g18
I223
sbasg21
I223
sba(i__main__
Mention
p302
(dp303
g7
S't6'
p304
sg9
S'Anaphora-C'
p305
sg10
S'i47'
p306
sg12
S'i46'
p307
sg13
Nsg14
(lp308
(i__main__
Token
p309
(dp310
g18
I226
sbasg21
I226
sba(i__main__
Mention
p311
(dp312
g7
S't6'
p313
sg9
S'Anaphora-C'
p314
sg10
S'i49'
p315
sg12
S'i47'
p316
sg13
Nsg14
(lp317
(i__main__
Token
p318
(dp319
g18
I238
sbasg21
I238
sbasg7
g203
sg31
Nsba(i__main__
Chain
p320
(dp321
g3
(lp322
(i__main__
Mention
p323
(dp324
g7
S't7'
p325
sg9
Nsg10
S'i10'
p326
sg12
Nsg13
Nsg14
(lp327
(i__main__
Token
p328
(dp329
g18
I40
sbasg21
I40
sba(i__main__
Mention
p330
(dp331
g7
S't7'
p332
sg9
S'Coreference-NounComplement'
p333
sg10
S'i11'
p334
sg12
S'i10'
p335
sg13
Nsg14
(lp336
(i__main__
Token
p337
(dp338
g18
I41
sba(i__main__
Token
p339
(dp340
g18
I42
sbasg21
I42
sba(i__main__
Mention
p341
(dp342
g7
S't7'
p343
sg9
S'Coreference-Noun-Noun'
p344
sg10
S'i18'
p345
sg12
S'i11'
p346
sg13
Nsg14
(lp347
(i__main__
Token
p348
(dp349
g18
I71
sbasg21
I71
sba(i__main__
Mention
p350
(dp351
g7
S't7'
p352
sg9
S'Coreference-Identity'
p353
sg10
S'i19'
p354
sg12
S'i18'
p355
sg13
Nsg14
(lp356
(i__main__
Token
p357
(dp358
g18
I78
sbasg21
I78
sba(i__main__
Mention
p359
(dp360
g7
S't7'
p361
sg9
S'Coreference-NounComplement'
p362
sg10
S'i20'
p363
sg12
S'i19'
p364
sg13
Nsg14
(lp365
(i__main__
Token
p366
(dp367
g18
I79
sba(i__main__
Token
p368
(dp369
g18
I80
sbasg21
I80
sba(i__main__
Mention
p370
(dp371
g7
S't7'
p372
sg9
S'Coreference-Noun-Noun'
p373
sg10
S'i26'
p374
sg12
S'i20'
p375
sg13
Nsg14
(lp376
(i__main__
Token
p377
(dp378
g18
I114
sba(i__main__
Token
p379
(dp380
g18
I115
sbasg21
I115
sba(i__main__
Mention
p381
(dp382
g7
S't7'
p383
sg9
S'Coreference-Noun-Noun'
p384
sg10
S'i32'
p385
sg12
S'i26'
p386
sg13
Nsg14
(lp387
(i__main__
Token
p388
(dp389
g18
I146
sbasg21
I146
sba(i__main__
Mention
p390
(dp391
g7
S't7'
p392
sg9
S'Coreference-Identity'
p393
sg10
S'i34'
p394
sg12
S'i32'
p395
sg13
Nsg14
(lp396
(i__main__
Token
p397
(dp398
g18
I152
sbasg21
I152
sbasg7
g325
sg31
Nsba(i__main__
Chain
p399
(dp400
g3
(lp401
(i__main__
Mention
p402
(dp403
g7
S't8'
p404
sg9
S'anaphora-?'
p405
sg10
S'i14'
p406
sg12
S'i14'
p407
sg13
Nsg14
(lp408
(i__main__
Token
p409
(dp410
g18
I55
sbasg21
I55
sbasg7
g404
sg31
Nsba(i__main__
Chain
p411
(dp412
g3
(lp413
(i__main__
Mention
p414
(dp415
g7
S't9'
p416
sg9
Nsg10
S'i24'
p417
sg12
Nsg13
Nsg14
(lp418
(i__main__
Token
p419
(dp420
g18
I93
sba(i__main__
Token
p421
(dp422
g18
I94
sba(i__main__
Token
p423
(dp424
g18
I95
sba(i__main__
Token
p425
(dp426
g18
I96
sba(i__main__
Token
p427
(dp428
g18
I97
sba(i__main__
Token
p429
(dp430
g18
I98
sba(i__main__
Token
p431
(dp432
g18
I99
sba(i__main__
Token
p433
(dp434
g18
I100
sba(i__main__
Token
p435
(dp436
g18
I101
sba(i__main__
Token
p437
(dp438
g18
I102
sba(i__main__
Token
p439
(dp440
g18
I103
sba(i__main__
Token
p441
(dp442
g18
I104
sba(i__main__
Token
p443
(dp444
g18
I105
sba(i__main__
Token
p445
(dp446
g18
I106
sba(i__main__
Token
p447
(dp448
g18
I107
sba(i__main__
Token
p449
(dp450
g18
I108
sba(i__main__
Token
p451
(dp452
g18
I109
sbasg21
I109
sba(i__main__
Mention
p453
(dp454
g7
S't9'
p455
sg9
S'Anaphora-E'
p456
sg10
S'i30'
p457
sg12
S'i24'
p458
sg13
Nsg14
(lp459
(i__main__
Token
p460
(dp461
g18
I137
sbasg21
I137
sbasg7
g416
sg31
Nsba(i__main__
Chain
p462
(dp463
g3
(lp464
(i__main__
Mention
p465
(dp466
g7
S't10'
p467
sg9
Nsg10
S'i31'
p468
sg12
Nsg13
Nsg14
(lp469
(i__main__
Token
p470
(dp471
g18
I139
sba(i__main__
Token
p472
(dp473
g18
I140
sba(i__main__
Token
p474
(dp475
g18
I141
sba(i__main__
Token
p476
(dp477
g18
I142
sba(i__main__
Token
p478
(dp479
g18
I143
sba(i__main__
Token
p480
(dp481
g18
I144
sba(i__main__
Token
p482
(dp483
g18
I145
sba(i__main__
Token
p484
(dp485
g18
I146
sba(i__main__
Token
p486
(dp487
g18
I147
sba(i__main__
Token
p488
(dp489
g18
I148
sba(i__main__
Token
p490
(dp491
g18
I149
sbasg21
I148
sba(i__main__
Mention
p492
(dp493
g7
S't10'
p494
sg9
S'Anaphora-T'
p495
sg10
S'i33'
p496
sg12
S'i31'
p497
sg13
Nsg14
(lp498
(i__main__
Token
p499
(dp500
g18
I151
sbasg21
I151
sbasg7
g467
sg31
Nsba(i__main__
Chain
p501
(dp502
g3
(lp503
(i__main__
Mention
p504
(dp505
g7
S't11'
p506
sg9
Nsg10
S'i38'
p507
sg12
Nsg13
Nsg14
(lp508
(i__main__
Token
p509
(dp510
g18
I190
sba(i__main__
Token
p511
(dp512
g18
I191
sbasg21
I191
sba(i__main__
Mention
p513
(dp514
g7
S't11'
p515
sg9
S'Coreference-NounComplement'
p516
sg10
S'i39'
p517
sg12
S'i38'
p518
sg13
Nsg14
(lp519
(i__main__
Token
p520
(dp521
g18
I192
sba(i__main__
Token
p522
(dp523
g18
I193
sba(i__main__
Token
p524
(dp525
g18
I194
sbasg21
I194
sbasg7
g506
sg31
Nsba(i__main__
Chain
p526
(dp527
g3
(lp528
(i__main__
Mention
p529
(dp530
g7
S't12'
p531
sg9
Nsg10
S'i41'
p532
sg12
Nsg13
Nsg14
(lp533
(i__main__
Token
p534
(dp535
g18
I213
sbasg21
I213
sba(i__main__
Mention
p536
(dp537
g7
S't12'
p538
sg9
S'Coreference-NounComplement'
p539
sg10
S'i42'
p540
sg12
S'i41'
p541
sg13
Nsg14
(lp542
(i__main__
Token
p543
(dp544
g18
I214
sba(i__main__
Token
p545
(dp546
g18
I215
sbasg21
I215
sbasg7
g531
sg31
Nsba(i__main__
Chain
p547
(dp548
g3
(lp549
(i__main__
Mention
p550
(dp551
g7
S't13'
p552
sg9
Nsg10
S'i48'
p553
sg12
Nsg13
Nsg14
(lp554
(i__main__
Token
p555
(dp556
g18
I237
sbasg21
I237
sba(i__main__
Mention
p557
(dp558
g7
S't13'
p559
sg9
S'Anaphora-RT'
p560
sg10
S'i50'
p561
sg12
S'i48'
p562
sg13
Nsg14
(lp563
(i__main__
Token
p564
(dp565
g18
I238
sba(i__main__
Token
p566
(dp567
g18
I239
sba(i__main__
Token
p568
(dp569
g18
I240
sba(i__main__
Token
p570
(dp571
g18
I241
sba(i__main__
Token
p572
(dp573
g18
I242
sba(i__main__
Token
p574
(dp575
g18
I243
sba(i__main__
Token
p576
(dp577
g18
I244
sba(i__main__
Token
p578
(dp579
g18
I245
sba(i__main__
Token
p580
(dp581
g18
I246
sbasg21
I244
sbasg7
g552
sg31
Nsba.