(lp0
(i__main__
Chain
p1
(dp2
S'mentionList'
p3
(lp4
(i__main__
Mention
p5
(dp6
S'chainId'
p7
S't1'
p8
sS'relType'
p9
NsS'mentionId'
p10
S'i1'
p11
sS'antecedentId'
p12
NsS'crefMod'
p13
NsS'tokenList'
p14
(lp15
(i__main__
Token
p16
(dp17
S'tokenId'
p18
I0
sbasS'mentionHead'
p19
I0
sba(i__main__
Mention
p20
(dp21
g7
S't1'
p22
sg9
S'Coreference-Identity'
p23
sg10
S'i5'
p24
sg12
S'i1'
p25
sg13
Nsg14
(lp26
(i__main__
Token
p27
(dp28
g18
I25
sbasg19
I25
sbasg7
g8
sS'chainHead'
p29
Nsba(i__main__
Chain
p30
(dp31
g3
(lp32
(i__main__
Mention
p33
(dp34
g7
S't2'
p35
sg9
Nsg10
S'i2'
p36
sg12
Nsg13
Nsg14
(lp37
(i__main__
Token
p38
(dp39
g18
I11
sbasg19
I11
sba(i__main__
Mention
p40
(dp41
g7
S't2'
p42
sg9
S'Coreference-Identity'
p43
sg10
S'i10'
p44
sg12
S'i2'
p45
sg13
Nsg14
(lp46
(i__main__
Token
p47
(dp48
g18
I45
sbasg19
I45
sba(i__main__
Mention
p49
(dp50
g7
S't2'
p51
sg9
S'Coreference-Identity'
p52
sg10
S'i15'
p53
sg12
S'i10'
p54
sg13
Nsg14
(lp55
(i__main__
Token
p56
(dp57
g18
I100
sbasg19
I100
sbasg7
g35
sg29
Nsba(i__main__
Chain
p58
(dp59
g3
(lp60
(i__main__
Mention
p61
(dp62
g7
S't3'
p63
sg9
Nsg10
S'i3'
p64
sg12
Nsg13
Nsg14
(lp65
(i__main__
Token
p66
(dp67
g18
I16
sba(i__main__
Token
p68
(dp69
g18
I17
sba(i__main__
Token
p70
(dp71
g18
I18
sbasg19
Nsba(i__main__
Mention
p72
(dp73
g7
S't3'
p74
sg9
S'Coreference-PartOf'
p75
sg10
S'i7'
p76
sg12
S'i3'
p77
sg13
Nsg14
(lp78
(i__main__
Token
p79
(dp80
g18
I28
sbasg19
I28
sba(i__main__
Mention
p81
(dp82
g7
S't3'
p83
sg9
S'Coreference-Identity'
p84
sg10
S'i11'
p85
sg12
S'i7'
p86
sg13
Nsg14
(lp87
(i__main__
Token
p88
(dp89
g18
I47
sbasg19
I47
sba(i__main__
Mention
p90
(dp91
g7
S't3'
p92
sg9
S'Coreference-Identity'
p93
sg10
S'i13'
p94
sg12
S'i11'
p95
sg13
Nsg14
(lp96
(i__main__
Token
p97
(dp98
g18
I69
sbasg19
I69
sba(i__main__
Mention
p99
(dp100
g7
S't3'
p101
sg9
S'Coreference-Identity'
p102
sg10
S'i14'
p103
sg12
S'i13'
p104
sg13
Nsg14
(lp105
(i__main__
Token
p106
(dp107
g18
I85
sbasg19
I85
sbasg7
g63
sg29
Nsba(i__main__
Chain
p108
(dp109
g3
(lp110
(i__main__
Mention
p111
(dp112
g7
S't4'
p113
sg9
Nsg10
S'i4'
p114
sg12
Nsg13
Nsg14
(lp115
(i__main__
Token
p116
(dp117
g18
I16
sba(i__main__
Token
p118
(dp119
g18
I17
sba(i__main__
Token
p120
(dp121
g18
I18
sbasg19
Nsba(i__main__
Mention
p122
(dp123
g7
S't4'
p124
sg9
S'Coreference-PartOf'
p125
sg10
S'i16'
p126
sg12
S'i4'
p127
sg13
Nsg14
(lp128
(i__main__
Token
p129
(dp130
g18
I102
sbasg19
I102
sba(i__main__
Mention
p131
(dp132
g7
S't4'
p133
sg9
S'Coreference-Identity'
p134
sg10
S'i17'
p135
sg12
S'i16'
p136
sg13
Nsg14
(lp137
(i__main__
Token
p138
(dp139
g18
I122
sbasg19
I122
sbasg7
g113
sg29
Nsba(i__main__
Chain
p140
(dp141
g3
(lp142
(i__main__
Mention
p143
(dp144
g7
S't5'
p145
sg9
Nsg10
S'i6'
p146
sg12
Nsg13
Nsg14
(lp147
(i__main__
Token
p148
(dp149
g18
I25
sba(i__main__
Token
p150
(dp151
g18
I26
sba(i__main__
Token
p152
(dp153
g18
I27
sba(i__main__
Token
p154
(dp155
g18
I28
sba(i__main__
Token
p156
(dp157
g18
I29
sba(i__main__
Token
p158
(dp159
g18
I30
sba(i__main__
Token
p160
(dp161
g18
I31
sba(i__main__
Token
p162
(dp163
g18
I32
sba(i__main__
Token
p164
(dp165
g18
I33
sba(i__main__
Token
p166
(dp167
g18
I34
sba(i__main__
Token
p168
(dp169
g18
I35
sba(i__main__
Token
p170
(dp171
g18
I36
sba(i__main__
Token
p172
(dp173
g18
I37
sba(i__main__
Token
p174
(dp175
g18
I38
sba(i__main__
Token
p176
(dp177
g18
I39
sbasg19
I38
sba(i__main__
Mention
p178
(dp179
g7
S't5'
p180
sg9
S'Anaphora-E'
p181
sg10
S'i8'
p182
sg12
S'i6'
p183
sg13
Nsg14
(lp184
(i__main__
Token
p185
(dp186
g18
I41
sbasg19
I41
sbasg7
g145
sg29
Nsba(i__main__
Chain
p187
(dp188
g3
(lp189
(i__main__
Mention
p190
(dp191
g7
S't6'
p192
sg9
Nsg10
S'i9'
p193
sg12
Nsg13
Nsg14
(lp194
(i__main__
Token
p195
(dp196
g18
I44
sba(i__main__
Token
p197
(dp198
g18
I45
sba(i__main__
Token
p199
(dp200
g18
I46
sba(i__main__
Token
p201
(dp202
g18
I47
sba(i__main__
Token
p203
(dp204
g18
I48
sba(i__main__
Token
p205
(dp206
g18
I49
sba(i__main__
Token
p207
(dp208
g18
I50
sba(i__main__
Token
p209
(dp210
g18
I51
sba(i__main__
Token
p211
(dp212
g18
I52
sba(i__main__
Token
p213
(dp214
g18
I53
sba(i__main__
Token
p215
(dp216
g18
I54
sba(i__main__
Token
p217
(dp218
g18
I55
sba(i__main__
Token
p219
(dp220
g18
I56
sba(i__main__
Token
p221
(dp222
g18
I57
sba(i__main__
Token
p223
(dp224
g18
I58
sba(i__main__
Token
p225
(dp226
g18
I59
sba(i__main__
Token
p227
(dp228
g18
I60
sba(i__main__
Token
p229
(dp230
g18
I61
sba(i__main__
Token
p231
(dp232
g18
I62
sbasg19
I62
sba(i__main__
Mention
p233
(dp234
g7
S't6'
p235
sg9
S'Anaphora-E'
p236
sg10
S'i12'
p237
sg12
S'i9'
p238
sg13
Nsg14
(lp239
(i__main__
Token
p240
(dp241
g18
I64
sbasg19
I64
sbasg7
g192
sg29
Nsba.