(lp0
(i__main__
Chain
p1
(dp2
S'mentionList'
p3
(lp4
(i__main__
Mention
p5
(dp6
S'chainId'
p7
S't1'
p8
sS'relType'
p9
NsS'mentionId'
p10
S'i1'
p11
sS'antecedentId'
p12
NsS'crefMod'
p13
NsS'tokenList'
p14
(lp15
(i__main__
Token
p16
(dp17
S'tokenId'
p18
I0
sba(i__main__
Token
p19
(dp20
g18
I1
sbasS'mentionHead'
p21
I1
sba(i__main__
Mention
p22
(dp23
g7
S't1'
p24
sg9
S'Coreference-Noun-Noun'
p25
sg10
S'i5'
p26
sg12
S'i1'
p27
sg13
Nsg14
(lp28
(i__main__
Token
p29
(dp30
g18
I12
sbasg21
I12
sba(i__main__
Mention
p31
(dp32
g7
S't1'
p33
sg9
S'Coreference-Identity'
p34
sg10
S'i19'
p35
sg12
S'i5'
p36
sg13
Nsg14
(lp37
(i__main__
Token
p38
(dp39
g18
I94
sbasg21
I94
sba(i__main__
Mention
p40
(dp41
g7
S't1'
p42
sg9
S'Coreference-Identity'
p43
sg10
S'i38'
p44
sg12
S'i19'
p45
sg13
Nsg14
(lp46
(i__main__
Token
p47
(dp48
g18
I230
sbasg21
I230
sba(i__main__
Mention
p49
(dp50
g7
S't1'
p51
sg9
S'Coreference-Identity'
p52
sg10
S'i42'
p53
sg12
S'i38'
p54
sg13
Nsg14
(lp55
(i__main__
Token
p56
(dp57
g18
I249
sbasg21
I249
sbasg7
g8
sS'chainHead'
p58
Nsba(i__main__
Chain
p59
(dp60
g3
(lp61
(i__main__
Mention
p62
(dp63
g7
S't2'
p64
sg9
Nsg10
S'i2'
p65
sg12
Nsg13
Nsg14
(lp66
(i__main__
Token
p67
(dp68
g18
I3
sba(i__main__
Token
p69
(dp70
g18
I4
sbasg21
I4
sba(i__main__
Mention
p71
(dp72
g7
S't2'
p73
sg9
S'Coreference-RPartOf'
p74
sg10
S'i16'
p75
sg12
S'i2'
p76
sg13
Nsg14
(lp77
(i__main__
Token
p78
(dp79
g18
I76
sba(i__main__
Token
p80
(dp81
g18
I77
sba(i__main__
Token
p82
(dp83
g18
I78
sba(i__main__
Token
p84
(dp85
g18
I79
sba(i__main__
Token
p86
(dp87
g18
I80
sba(i__main__
Token
p88
(dp89
g18
I81
sbasg21
I81
sba(i__main__
Mention
p90
(dp91
g7
S't2'
p92
sg9
S'Coreference-PartOf'
p93
sg10
S'i39'
p94
sg12
S'i16'
p95
sg13
Nsg14
(lp96
(i__main__
Token
p97
(dp98
g18
I230
sba(i__main__
Token
p99
(dp100
g18
I231
sba(i__main__
Token
p101
(dp102
g18
I232
sba(i__main__
Token
p103
(dp104
g18
I233
sba(i__main__
Token
p105
(dp106
g18
I234
sbasg21
I234
sbasg7
g64
sg58
Nsba(i__main__
Chain
p107
(dp108
g3
(lp109
(i__main__
Mention
p110
(dp111
g7
S't3'
p112
sg9
Nsg10
S'i3'
p113
sg12
Nsg13
Nsg14
(lp114
(i__main__
Token
p115
(dp116
g18
I10
sbasg21
I10
sba(i__main__
Mention
p117
(dp118
g7
S't3'
p119
sg9
S'Coreference-Noun-Noun'
p120
sg10
S'i7'
p121
sg12
S'i3'
p122
sg13
Nsg14
(lp123
(i__main__
Token
p124
(dp125
g18
I20
sbasg21
I20
sba(i__main__
Mention
p126
(dp127
g7
S't3'
p128
sg9
S'Coreference-Noun-Noun'
p129
sg10
S'i13'
p130
sg12
S'i7'
p131
sg13
Nsg14
(lp132
(i__main__
Token
p133
(dp134
g18
I62
sbasg21
I62
sba(i__main__
Mention
p135
(dp136
g7
S't3'
p137
sg9
S'Coreference-Noun-Noun'
p138
sg10
S'i17'
p139
sg12
S'i13'
p140
sg13
Nsg14
(lp141
(i__main__
Token
p142
(dp143
g18
I83
sbasg21
I83
sba(i__main__
Mention
p144
(dp145
g7
S't3'
p146
sg9
S'Coreference-Identity'
p147
sg10
S'i18'
p148
sg12
S'i17'
p149
sg13
Nsg14
(lp150
(i__main__
Token
p151
(dp152
g18
I93
sbasg21
I93
sba(i__main__
Mention
p153
(dp154
g7
S't3'
p155
sg9
S'Coreference-Identity'
p156
sg10
S'i22'
p157
sg12
S'i18'
p158
sg13
Nsg14
(lp159
(i__main__
Token
p160
(dp161
g18
I118
sbasg21
I118
sba(i__main__
Mention
p162
(dp163
g7
S't3'
p164
sg9
S'Coreference-Noun-Noun'
p165
sg10
S'i35'
p166
sg12
S'i22'
p167
sg13
Nsg14
(lp168
(i__main__
Token
p169
(dp170
g18
I219
sbasg21
I219
sba(i__main__
Mention
p171
(dp172
g7
S't3'
p173
sg9
S'Coreference-Noun-Noun'
p174
sg10
S'i40'
p175
sg12
S'i35'
p176
sg13
Nsg14
(lp177
(i__main__
Token
p178
(dp179
g18
I236
sbasg21
I236
sba(i__main__
Mention
p180
(dp181
g7
S't3'
p182
sg9
S'Coreference-Identity'
p183
sg10
S'i41'
p184
sg12
S'i40'
p185
sg13
Nsg14
(lp186
(i__main__
Token
p187
(dp188
g18
I247
sbasg21
I247
sba(i__main__
Mention
p189
(dp190
g7
S't3'
p191
sg9
S'Coreference-Identity'
p192
sg10
S'i46'
p193
sg12
S'i41'
p194
sg13
Nsg14
(lp195
(i__main__
Token
p196
(dp197
g18
I289
sbasg21
I289
sba(i__main__
Mention
p198
(dp199
g7
S't3'
p200
sg9
S'Coreference-Identity'
p201
sg10
S'i51'
p202
sg12
S'i46'
p203
sg13
Nsg14
(lp204
(i__main__
Token
p205
(dp206
g18
I304
sbasg21
I304
sba(i__main__
Mention
p207
(dp208
g7
S't3'
p209
sg9
S'Coreference-Identity'
p210
sg10
S'i54'
p211
sg12
S'i51'
p212
sg13
Nsg14
(lp213
(i__main__
Token
p214
(dp215
g18
I323
sbasg21
I323
sbasg7
g112
sg58
Nsba(i__main__
Chain
p216
(dp217
g3
(lp218
(i__main__
Mention
p219
(dp220
g7
S't4'
p221
sg9
Nsg10
S'i4'
p222
sg12
Nsg13
Nsg14
(lp223
(i__main__
Token
p224
(dp225
g18
I12
sba(i__main__
Token
p226
(dp227
g18
I13
sbasg21
I13
sba(i__main__
Mention
p228
(dp229
g7
S't4'
p230
sg9
S'Coreference-NounComplement'
p231
sg10
S'i6'
p232
sg12
S'i4'
p233
sg13
Nsg14
(lp234
(i__main__
Token
p235
(dp236
g18
I14
sba(i__main__
Token
p237
(dp238
g18
I15
sbasg21
I15
sba(i__main__
Mention
p239
(dp240
g7
S't4'
p241
sg9
S'Coreference-Identity'
p242
sg10
S'i8'
p243
sg12
S'i6'
p244
sg13
Nsg14
(lp245
(i__main__
Token
p246
(dp247
g18
I30
sbasg21
I30
sba(i__main__
Mention
p248
(dp249
g7
S't4'
p250
sg9
S'Anaphora-C'
p251
sg10
S'i10'
p252
sg12
S'i8'
p253
sg13
Nsg14
(lp254
(i__main__
Token
p255
(dp256
g18
I40
sbasg21
I40
sba(i__main__
Mention
p257
(dp258
g7
S't4'
p259
sg9
S'Coreference-Identity'
p260
sg10
S'i20'
p261
sg12
S'i10'
p262
sg13
Nsg14
(lp263
(i__main__
Token
p264
(dp265
g18
I100
sbasg21
I100
sba(i__main__
Mention
p266
(dp267
g7
S't4'
p268
sg9
S'Coreference-Identity'
p269
sg10
S'i21'
p270
sg12
S'i20'
p271
sg13
Nsg14
(lp272
(i__main__
Token
p273
(dp274
g18
I113
sbasg21
I113
sba(i__main__
Mention
p275
(dp276
g7
S't4'
p277
sg9
S'Anaphora-C'
p278
sg10
S'i23'
p279
sg12
S'i21'
p280
sg13
Nsg14
(lp281
(i__main__
Token
p282
(dp283
g18
I132
sbasg21
I132
sba(i__main__
Mention
p284
(dp285
g7
S't4'
p286
sg9
S'Anaphora-C'
p287
sg10
S'i24'
p288
sg12
S'i23'
p289
sg13
Nsg14
(lp290
(i__main__
Token
p291
(dp292
g18
I136
sbasg21
I136
sba(i__main__
Mention
p293
(dp294
g7
S't4'
p295
sg9
S'Anaphora-C'
p296
sg10
S'i25'
p297
sg12
S'i24'
p298
sg13
Nsg14
(lp299
(i__main__
Token
p300
(dp301
g18
I141
sbasg21
I141
sba(i__main__
Mention
p302
(dp303
g7
S't4'
p304
sg9
S'Anaphora-C'
p305
sg10
S'i28'
p306
sg12
S'i25'
p307
sg13
Nsg14
(lp308
(i__main__
Token
p309
(dp310
g18
I158
sbasg21
I158
sba(i__main__
Mention
p311
(dp312
g7
S't4'
p313
sg9
S'Coreference-Identity'
p314
sg10
S'i30'
p315
sg12
S'i28'
p316
sg13
Nsg14
(lp317
(i__main__
Token
p318
(dp319
g18
I175
sbasg21
I175
sba(i__main__
Mention
p320
(dp321
g7
S't4'
p322
sg9
S'Coreference-Identity'
p323
sg10
S'i31'
p324
sg12
S'i30'
p325
sg13
Nsg14
(lp326
(i__main__
Token
p327
(dp328
g18
I188
sbasg21
I188
sba(i__main__
Mention
p329
(dp330
g7
S't4'
p331
sg9
S'Anaphora-C'
p332
sg10
S'i32'
p333
sg12
S'i31'
p334
sg13
Nsg14
(lp335
(i__main__
Token
p336
(dp337
g18
I203
sbasg21
I203
sba(i__main__
Mention
p338
(dp339
g7
S't4'
p340
sg9
S'Coreference-Identity'
p341
sg10
S'i34'
p342
sg12
S'i32'
p343
sg13
Nsg14
(lp344
(i__main__
Token
p345
(dp346
g18
I214
sbasg21
I214
sba(i__main__
Mention
p347
(dp348
g7
S't4'
p349
sg9
S'Coreference-Identity'
p350
sg10
S'i49'
p351
sg12
S'i34'
p352
sg13
Nsg14
(lp353
(i__main__
Token
p354
(dp355
g18
I298
sbasg21
I298
sba(i__main__
Mention
p356
(dp357
g7
S't4'
p358
sg9
S'Coreference-Identity'
p359
sg10
S'i53'
p360
sg12
S'i49'
p361
sg13
Nsg14
(lp362
(i__main__
Token
p363
(dp364
g18
I317
sbasg21
I317
sba(i__main__
Mention
p365
(dp366
g7
S't4'
p367
sg9
S'Coreference-Identity'
p368
sg10
S'i59'
p369
sg12
S'i53'
p370
sg13
Nsg14
(lp371
(i__main__
Token
p372
(dp373
g18
I331
sbasg21
I331
sbasg7
g221
sg58
Nsba(i__main__
Chain
p374
(dp375
g3
(lp376
(i__main__
Mention
p377
(dp378
g7
S't5'
p379
sg9
Nsg10
S'i9'
p380
sg12
Nsg13
Nsg14
(lp381
(i__main__
Token
p382
(dp383
g18
I32
sba(i__main__
Token
p384
(dp385
g18
I33
sbasg21
I33
sba(i__main__
Mention
p386
(dp387
g7
S't5'
p388
sg9
S'Coreference-Identity'
p389
sg10
S'i29'
p390
sg12
S'i9'
p391
sg13
Nsg14
(lp392
(i__main__
Token
p393
(dp394
g18
I159
sba(i__main__
Token
p395
(dp396
g18
I160
sbasg21
I160
sbasg7
g379
sg58
Nsba(i__main__
Chain
p397
(dp398
g3
(lp399
(i__main__
Mention
p400
(dp401
g7
S't6'
p402
sg9
Nsg10
S'i11'
p403
sg12
Nsg13
Nsg14
(lp404
(i__main__
Token
p405
(dp406
g18
I43
sba(i__main__
Token
p407
(dp408
g18
I44
sbasg21
I44
sba(i__main__
Mention
p409
(dp410
g7
S't6'
p411
sg9
S'Coreference-Identity'
p412
sg10
S'i33'
p413
sg12
S'i11'
p414
sg13
Nsg14
(lp415
(i__main__
Token
p416
(dp417
g18
I206
sba(i__main__
Token
p418
(dp419
g18
I207
sbasg21
I207
sbasg7
g402
sg58
Nsba(i__main__
Chain
p420
(dp421
g3
(lp422
(i__main__
Mention
p423
(dp424
g7
S't7'
p425
sg9
Nsg10
S'i12'
p426
sg12
Nsg13
Nsg14
(lp427
(i__main__
Token
p428
(dp429
g18
I60
sbasg21
I60
sbasg7
g425
sg58
Nsba(i__main__
Chain
p430
(dp431
g3
(lp432
(i__main__
Mention
p433
(dp434
g7
S't8'
p435
sg9
Nsg10
S'i14'
p436
sg12
Nsg13
Nsg14
(lp437
(i__main__
Token
p438
(dp439
g18
I64
sba(i__main__
Token
p440
(dp441
g18
I65
sbasg21
I65
sba(i__main__
Mention
p442
(dp443
g7
S't8'
p444
sg9
S'Anaphora-C'
p445
sg10
S'i15'
p446
sg12
S'i14'
p447
sg13
Nsg14
(lp448
(i__main__
Token
p449
(dp450
g18
I69
sbasg21
I69
sba(i__main__
Mention
p451
(dp452
g7
S't8'
p453
sg9
S'Coreference-Noun-Noun'
p454
sg10
S'i36'
p455
sg12
S'i15'
p456
sg13
Nsg14
(lp457
(i__main__
Token
p458
(dp459
g18
I220
sba(i__main__
Token
p460
(dp461
g18
I221
sbasg21
I221
sba(i__main__
Mention
p462
(dp463
g7
S't8'
p464
sg9
S'Anaphora-C'
p465
sg10
S'i37'
p466
sg12
S'i36'
p467
sg13
Nsg14
(lp468
(i__main__
Token
p469
(dp470
g18
I229
sbasg21
I229
sbasg7
g435
sg58
Nsba(i__main__
Chain
p471
(dp472
g3
(lp473
(i__main__
Mention
p474
(dp475
g7
S't9'
p476
sg9
Nsg10
S'i26'
p477
sg12
Nsg13
Nsg14
(lp478
(i__main__
Token
p479
(dp480
g18
I143
sba(i__main__
Token
p481
(dp482
g18
I144
sbasg21
I144
sba(i__main__
Mention
p483
(dp484
g7
S't9'
p485
sg9
S'Anaphora-C'
p486
sg10
S'i27'
p487
sg12
S'i26'
p488
sg13
Nsg14
(lp489
(i__main__
Token
p490
(dp491
g18
I150
sbasg21
I150
sbasg7
g476
sg58
Nsba(i__main__
Chain
p492
(dp493
g3
(lp494
(i__main__
Mention
p495
(dp496
g7
S't10'
p497
sg9
Nsg10
S'i43'
p498
sg12
Nsg13
Nsg14
(lp499
(i__main__
Token
p500
(dp501
g18
I263
sba(i__main__
Token
p502
(dp503
g18
I264
sbasg21
I264
sba(i__main__
Mention
p504
(dp505
g7
S't10'
p506
sg9
S'Coreference-NounComplement'
p507
sg10
S'i44'
p508
sg12
S'i43'
p509
sg13
Nsg14
(lp510
(i__main__
Token
p511
(dp512
g18
I265
sba(i__main__
Token
p513
(dp514
g18
I266
sbasg21
I266
sba(i__main__
Mention
p515
(dp516
g7
S't10'
p517
sg9
S'Anaphora-C'
p518
sg10
S'i45'
p519
sg12
S'i44'
p520
sg13
Nsg14
(lp521
(i__main__
Token
p522
(dp523
g18
I274
sbasg21
I274
sbasg7
g497
sg58
Nsba(i__main__
Chain
p524
(dp525
g3
(lp526
(i__main__
Mention
p527
(dp528
g7
S't11'
p529
sg9
Nsg10
S'i47'
p530
sg12
Nsg13
Nsg14
(lp531
(i__main__
Token
p532
(dp533
g18
I291
sba(i__main__
Token
p534
(dp535
g18
I292
sbasg21
I292
sba(i__main__
Mention
p536
(dp537
g7
S't11'
p538
sg9
S'Coreference-NounComplement'
p539
sg10
S'i48'
p540
sg12
S'i47'
p541
sg13
Nsg14
(lp542
(i__main__
Token
p543
(dp544
g18
I293
sba(i__main__
Token
p545
(dp546
g18
I294
sbasg21
I294
sba(i__main__
Mention
p547
(dp548
g7
S't11'
p549
sg9
S'Anaphora-C'
p550
sg10
S'i52'
p551
sg12
S'i48'
p552
sg13
Nsg14
(lp553
(i__main__
Token
p554
(dp555
g18
I312
sbasg21
I312
sbasg7
g529
sg58
Nsba(i__main__
Chain
p556
(dp557
g3
(lp558
(i__main__
Mention
p559
(dp560
g7
S't12'
p561
sg9
Nsg10
S'i50'
p562
sg12
Nsg13
Nsg14
(lp563
(i__main__
Token
p564
(dp565
g18
I303
sbasg21
I303
sbasg7
g561
sg58
Nsba(i__main__
Chain
p566
(dp567
g3
(lp568
(i__main__
Mention
p569
(dp570
g7
S't13'
p571
sg9
Nsg10
S'i55'
p572
sg12
Nsg13
Nsg14
(lp573
(i__main__
Token
p574
(dp575
g18
I323
sba(i__main__
Token
p576
(dp577
g18
I324
sbasg21
Nsba(i__main__
Mention
p578
(dp579
g7
S't13'
p580
sg9
S'Coreference-NounComplement'
p581
sg10
S'i57'
p582
sg12
S'i55'
p583
sg13
Nsg14
(lp584
(i__main__
Token
p585
(dp586
g18
I325
sba(i__main__
Token
p587
(dp588
g18
I326
sbasg21
I326
sbasg7
g571
sg58
Nsba(i__main__
Chain
p589
(dp590
g3
(lp591
(i__main__
Mention
p592
(dp593
g7
S't14'
p594
sg9
Nsg10
S'i56'
p595
sg12
Nsg13
Nsg14
(lp596
(i__main__
Token
p597
(dp598
g18
I323
sba(i__main__
Token
p599
(dp600
g18
I324
sbasg21
Nsba(i__main__
Mention
p601
(dp602
g7
S't14'
p603
sg9
S'Coreference-NounComplement'
p604
sg10
S'i58'
p605
sg12
S'i56'
p606
sg13
Nsg14
(lp607
(i__main__
Token
p608
(dp609
g18
I328
sba(i__main__
Token
p610
(dp611
g18
I329
sbasg21
I329
sbasg7
g594
sg58
Nsba(i__main__
Chain
p612
(dp613
g3
(lp614
(i__main__
Mention
p615
(dp616
g7
S't15'
p617
sg9
Nsg10
S'i60'
p618
sg12
Nsg13
Nsg14
(lp619
(i__main__
Token
p620
(dp621
g18
I342
sbasg21
I342
sbasg7
g617
sg58
Nsba.