(lp0
(i__main__
Chain
p1
(dp2
S'mentionList'
p3
(lp4
(i__main__
Mention
p5
(dp6
S'chainId'
p7
S't1'
p8
sS'relType'
p9
NsS'mentionId'
p10
S'i1'
p11
sS'antecedentId'
p12
NsS'crefMod'
p13
NsS'tokenList'
p14
(lp15
(i__main__
Token
p16
(dp17
S'tokenId'
p18
I0
sbasS'mentionHead'
p19
I0
sba(i__main__
Mention
p20
(dp21
g7
S't1'
p22
sg9
S'Coreference-Identity'
p23
sg10
S'i24'
p24
sg12
S'i1'
p25
sg13
Nsg14
(lp26
(i__main__
Token
p27
(dp28
g18
I162
sbasg19
I162
sbasg7
g8
sS'chainHead'
p29
Nsba(i__main__
Chain
p30
(dp31
g3
(lp32
(i__main__
Mention
p33
(dp34
g7
S't2'
p35
sg9
Nsg10
S'i2'
p36
sg12
Nsg13
Nsg14
(lp37
(i__main__
Token
p38
(dp39
g18
I2
sba(i__main__
Token
p40
(dp41
g18
I3
sbasg19
I3
sba(i__main__
Mention
p42
(dp43
g7
S't2'
p44
sg9
S'Coreference-Noun-Noun'
p45
sg10
S'i3'
p46
sg12
S'i2'
p47
sg13
Nsg14
(lp48
(i__main__
Token
p49
(dp50
g18
I5
sba(i__main__
Token
p51
(dp52
g18
I6
sbasg19
I6
sba(i__main__
Mention
p53
(dp54
g7
S't2'
p55
sg9
S'Coreference-NounComplement'
p56
sg10
S'i4'
p57
sg12
S'i3'
p58
sg13
Nsg14
(lp59
(i__main__
Token
p60
(dp61
g18
I7
sba(i__main__
Token
p62
(dp63
g18
I8
sba(i__main__
Token
p64
(dp65
g18
I9
sbasg19
I9
sba(i__main__
Mention
p66
(dp67
g7
S't2'
p68
sg9
S'Anaphora-C'
p69
sg10
S'i8'
p70
sg12
S'i4'
p71
sg13
Nsg14
(lp72
(i__main__
Token
p73
(dp74
g18
I42
sbasg19
I42
sba(i__main__
Mention
p75
(dp76
g7
S't2'
p77
sg9
S'Coreference-Identity'
p78
sg10
S'i11'
p79
sg12
S'i8'
p80
sg13
Nsg14
(lp81
(i__main__
Token
p82
(dp83
g18
I69
sbasg19
I69
sba(i__main__
Mention
p84
(dp85
g7
S't2'
p86
sg9
S'Anaphora-C'
p87
sg10
S'i16'
p88
sg12
S'i11'
p89
sg13
Nsg14
(lp90
(i__main__
Token
p91
(dp92
g18
I94
sbasg19
I94
sba(i__main__
Mention
p93
(dp94
g7
S't2'
p95
sg9
S'Anaphora-C'
p96
sg10
S'i17'
p97
sg12
S'i16'
p98
sg13
Nsg14
(lp99
(i__main__
Token
p100
(dp101
g18
I103
sbasg19
I103
sba(i__main__
Mention
p102
(dp103
g7
S't2'
p104
sg9
S'Coreference-Identity'
p105
sg10
S'i23'
p106
sg12
S'i17'
p107
sg13
Nsg14
(lp108
(i__main__
Token
p109
(dp110
g18
I147
sbasg19
I147
sba(i__main__
Mention
p111
(dp112
g7
S't2'
p113
sg9
S'Coreference-Identity'
p114
sg10
S'i26'
p115
sg12
S'i23'
p116
sg13
Nsg14
(lp117
(i__main__
Token
p118
(dp119
g18
I196
sbasg19
I196
sba(i__main__
Mention
p120
(dp121
g7
S't2'
p122
sg9
S'Anaphora-C'
p123
sg10
S'i36'
p124
sg12
S'i26'
p125
sg13
Nsg14
(lp126
(i__main__
Token
p127
(dp128
g18
I231
sbasg19
I231
sba(i__main__
Mention
p129
(dp130
g7
S't2'
p131
sg9
S'Anaphora-C'
p132
sg10
S'i39'
p133
sg12
S'i36'
p134
sg13
Nsg14
(lp135
(i__main__
Token
p136
(dp137
g18
I255
sbasg19
I255
sba(i__main__
Mention
p138
(dp139
g7
S't2'
p140
sg9
S'Coreference-Identity'
p141
sg10
S'i42'
p142
sg12
S'i39'
p143
sg13
Nsg14
(lp144
(i__main__
Token
p145
(dp146
g18
I277
sbasg19
I277
sba(i__main__
Mention
p147
(dp148
g7
S't2'
p149
sg9
S'Anaphora-C'
p150
sg10
S'i43'
p151
sg12
S'i42'
p152
sg13
Nsg14
(lp153
(i__main__
Token
p154
(dp155
g18
I286
sbasg19
I286
sbasg7
g35
sg29
Nsba(i__main__
Chain
p156
(dp157
g3
(lp158
(i__main__
Mention
p159
(dp160
g7
S't3'
p161
sg9
Nsg10
S'i5'
p162
sg12
Nsg13
Nsg14
(lp163
(i__main__
Token
p164
(dp165
g18
I15
sbasg19
I15
sba(i__main__
Mention
p166
(dp167
g7
S't3'
p168
sg9
S'Coreference-Identity'
p169
sg10
S'i41'
p170
sg12
S'i5'
p171
sg13
Nsg14
(lp172
(i__main__
Token
p173
(dp174
g18
I269
sbasg19
I269
sbasg7
g161
sg29
Nsba(i__main__
Chain
p175
(dp176
g3
(lp177
(i__main__
Mention
p178
(dp179
g7
S't4'
p180
sg9
Nsg10
S'i6'
p181
sg12
Nsg13
Nsg14
(lp182
(i__main__
Token
p183
(dp184
g18
I17
sbasg19
I17
sba(i__main__
Mention
p185
(dp186
g7
S't4'
p187
sg9
S'Anaphora-C'
p188
sg10
S'i7'
p189
sg12
S'i6'
p190
sg13
Nsg14
(lp191
(i__main__
Token
p192
(dp193
g18
I30
sbasg19
I30
sba(i__main__
Mention
p194
(dp195
g7
S't4'
p196
sg9
S'Coreference-Identity'
p197
sg10
S'i18'
p198
sg12
S'i7'
p199
sg13
Nsg14
(lp200
(i__main__
Token
p201
(dp202
g18
I106
sbasg19
I106
sba(i__main__
Mention
p203
(dp204
g7
S't4'
p205
sg9
S'Coreference-Identity'
p206
sg10
S'i21'
p207
sg12
S'i18'
p208
sg13
Nsg14
(lp209
(i__main__
Token
p210
(dp211
g18
I126
sbasg19
I126
sbasg7
g180
sg29
Nsba(i__main__
Chain
p212
(dp213
g3
(lp214
(i__main__
Mention
p215
(dp216
g7
S't5'
p217
sg9
Nsg10
S'i9'
p218
sg12
Nsg13
Nsg14
(lp219
(i__main__
Token
p220
(dp221
g18
I45
sbasg19
I45
sba(i__main__
Mention
p222
(dp223
g7
S't5'
p224
sg9
S'Coreference-Identity'
p225
sg10
S'i12'
p226
sg12
S'i9'
p227
sg13
Nsg14
(lp228
(i__main__
Token
p229
(dp230
g18
I77
sbasg19
I77
sba(i__main__
Mention
p231
(dp232
g7
S't5'
p233
sg9
S'Coreference-Identity'
p234
sg10
S'i22'
p235
sg12
S'i12'
p236
sg13
Nsg14
(lp237
(i__main__
Token
p238
(dp239
g18
I142
sbasg19
I142
sba(i__main__
Mention
p240
(dp241
g7
S't5'
p242
sg9
S'Coreference-Identity'
p243
sg10
S'i25'
p244
sg12
S'i22'
p245
sg13
Nsg14
(lp246
(i__main__
Token
p247
(dp248
g18
I173
sbasg19
I173
sba(i__main__
Mention
p249
(dp250
g7
S't5'
p251
sg9
S'Coreference-Identity'
p252
sg10
S'i28'
p253
sg12
S'i25'
p254
sg13
Nsg14
(lp255
(i__main__
Token
p256
(dp257
g18
I202
sbasg19
I202
sba(i__main__
Mention
p258
(dp259
g7
S't5'
p260
sg9
S'Coreference-Identity'
p261
sg10
S'i44'
p262
sg12
S'i28'
p263
sg13
Nsg14
(lp264
(i__main__
Token
p265
(dp266
g18
I287
sbasg19
I287
sbasg7
g217
sg29
Nsba(i__main__
Chain
p267
(dp268
g3
(lp269
(i__main__
Mention
p270
(dp271
g7
S't6'
p272
sg9
Nsg10
S'i10'
p273
sg12
Nsg13
Nsg14
(lp274
(i__main__
Token
p275
(dp276
g18
I47
sbasg19
I47
sba(i__main__
Mention
p277
(dp278
g7
S't6'
p279
sg9
S'Coreference-Identity'
p280
sg10
S'i14'
p281
sg12
S'i10'
p282
sg13
Nsg14
(lp283
(i__main__
Token
p284
(dp285
g18
I89
sbasg19
I89
sba(i__main__
Mention
p286
(dp287
g7
S't6'
p288
sg9
S'Coreference-Identity'
p289
sg10
S'i31'
p290
sg12
S'i14'
p291
sg13
Nsg14
(lp292
(i__main__
Token
p293
(dp294
g18
I215
sbasg19
I215
sbasg7
g272
sg29
Nsba(i__main__
Chain
p295
(dp296
g3
(lp297
(i__main__
Mention
p298
(dp299
g7
S't7'
p300
sg9
S'anaphora-?'
p301
sg10
S'i13'
p302
sg12
S'i13'
p303
sg13
Nsg14
(lp304
(i__main__
Token
p305
(dp306
g18
I84
sbasg19
I84
sbasg7
g300
sg29
Nsba(i__main__
Chain
p307
(dp308
g3
(lp309
(i__main__
Mention
p310
(dp311
g7
S't8'
p312
sg9
Nsg10
S'i15'
p313
sg12
Nsg13
Nsg14
(lp314
(i__main__
Token
p315
(dp316
g18
I89
sba(i__main__
Token
p317
(dp318
g18
I90
sbasg19
I90
sba(i__main__
Mention
p319
(dp320
g7
S't8'
p321
sg9
S'Coreference-Noun-Noun'
p322
sg10
S'i19'
p323
sg12
S'i15'
p324
sg13
Nsg14
(lp325
(i__main__
Token
p326
(dp327
g18
I114
sbasg19
I114
sbasg7
g312
sg29
Nsba(i__main__
Chain
p328
(dp329
g3
(lp330
(i__main__
Mention
p331
(dp332
g7
S't9'
p333
sg9
S'anaphora-?'
p334
sg10
S'i20'
p335
sg12
S'i20'
p336
sg13
Nsg14
(lp337
(i__main__
Token
p338
(dp339
g18
I121
sbasg19
I121
sbasg7
g333
sg29
Nsba(i__main__
Chain
p340
(dp341
g3
(lp342
(i__main__
Mention
p343
(dp344
g7
S't10'
p345
sg9
Nsg10
S'i27'
p346
sg12
Nsg13
Nsg14
(lp347
(i__main__
Token
p348
(dp349
g18
I200
sbasg19
I200
sba(i__main__
Mention
p350
(dp351
g7
S't10'
p352
sg9
S'Coreference-Identity'
p353
sg10
S'i33'
p354
sg12
S'i27'
p355
sg13
Nsg14
(lp356
(i__main__
Token
p357
(dp358
g18
I220
sbasg19
I220
sbasg7
g345
sg29
Nsba(i__main__
Chain
p359
(dp360
g3
(lp361
(i__main__
Mention
p362
(dp363
g7
S't11'
p364
sg9
Nsg10
S'i29'
p365
sg12
Nsg13
Nsg14
(lp366
(i__main__
Token
p367
(dp368
g18
I204
sbasg19
I204
sba(i__main__
Mention
p369
(dp370
g7
S't11'
p371
sg9
S'Anaphora-C'
p372
sg10
S'i30'
p373
sg12
S'i29'
p374
sg13
Nsg14
(lp375
(i__main__
Token
p376
(dp377
g18
I208
sbasg19
I208
sba(i__main__
Mention
p378
(dp379
g7
S't11'
p380
sg9
S'Anaphora-C'
p381
sg10
S'i32'
p382
sg12
S'i30'
p383
sg13
Nsg14
(lp384
(i__main__
Token
p385
(dp386
g18
I217
sbasg19
I217
sbasg7
g364
sg29
Nsba(i__main__
Chain
p387
(dp388
g3
(lp389
(i__main__
Mention
p390
(dp391
g7
S't12'
p392
sg9
Nsg10
S'i34'
p393
sg12
Nsg13
Nsg14
(lp394
(i__main__
Token
p395
(dp396
g18
I225
sbasg19
I225
sba(i__main__
Mention
p397
(dp398
g7
S't12'
p399
sg9
S'Coreference-Identity'
p400
sg10
S'i38'
p401
sg12
S'i34'
p402
sg13
Nsg14
(lp403
(i__main__
Token
p404
(dp405
g18
I244
sbasg19
I244
sba(i__main__
Mention
p406
(dp407
g7
S't12'
p408
sg9
S'Coreference-Identity'
p409
sg10
S'i40'
p410
sg12
S'i38'
p411
sg13
Nsg14
(lp412
(i__main__
Token
p413
(dp414
g18
I261
sbasg19
I261
sbasg7
g392
sg29
Nsba(i__main__
Chain
p415
(dp416
g3
(lp417
(i__main__
Mention
p418
(dp419
g7
S't13'
p420
sg9
Nsg10
S'i35'
p421
sg12
Nsg13
Nsg14
(lp422
(i__main__
Token
p423
(dp424
g18
I227
sbasg19
I227
sba(i__main__
Mention
p425
(dp426
g7
S't13'
p427
sg9
S'Anaphora-C'
p428
sg10
S'i37'
p429
sg12
S'i35'
p430
sg13
Nsg14
(lp431
(i__main__
Token
p432
(dp433
g18
I234
sbasg19
I234
sbasg7
g420
sg29
Nsba.