(lp0
(i__main__
Chain
p1
(dp2
S'mentionList'
p3
(lp4
(i__main__
Mention
p5
(dp6
S'chainId'
p7
S't1'
p8
sS'relType'
p9
NsS'mentionId'
p10
S'i1'
p11
sS'antecedentId'
p12
NsS'crefMod'
p13
NsS'tokenList'
p14
(lp15
(i__main__
Token
p16
(dp17
S'tokenId'
p18
I3
sba(i__main__
Token
p19
(dp20
g18
I4
sbasS'mentionHead'
p21
I4
sba(i__main__
Mention
p22
(dp23
g7
S't1'
p24
sg9
S'Anaphora-C'
p25
sg10
S'i2'
p26
sg12
S'i1'
p27
sg13
Nsg14
(lp28
(i__main__
Token
p29
(dp30
g18
I15
sbasg21
I15
sbasg7
g8
sS'chainHead'
p31
Nsba(i__main__
Chain
p32
(dp33
g3
(lp34
(i__main__
Mention
p35
(dp36
g7
S't2'
p37
sg9
Nsg10
S'i3'
p38
sg12
Nsg13
Nsg14
(lp39
(i__main__
Token
p40
(dp41
g18
I19
sbasg21
I19
sba(i__main__
Mention
p42
(dp43
g7
S't2'
p44
sg9
S'Coreference-Identity'
p45
sg10
S'i10'
p46
sg12
S'i3'
p47
sg13
Nsg14
(lp48
(i__main__
Token
p49
(dp50
g18
I64
sbasg21
I64
sba(i__main__
Mention
p51
(dp52
g7
S't2'
p53
sg9
S'Coreference-Identity'
p54
sg10
S'i14'
p55
sg12
S'i10'
p56
sg13
Nsg14
(lp57
(i__main__
Token
p58
(dp59
g18
I84
sba(i__main__
Token
p60
(dp61
g18
I85
sbasg21
I85
sbasg7
g37
sg31
Nsba(i__main__
Chain
p62
(dp63
g3
(lp64
(i__main__
Mention
p65
(dp66
g7
S't3'
p67
sg9
Nsg10
S'i4'
p68
sg12
Nsg13
Nsg14
(lp69
(i__main__
Token
p70
(dp71
g18
I23
sbasg21
I23
sbasg7
g67
sg31
Nsba(i__main__
Chain
p72
(dp73
g3
(lp74
(i__main__
Mention
p75
(dp76
g7
S't4'
p77
sg9
Nsg10
S'i5'
p78
sg12
Nsg13
Nsg14
(lp79
(i__main__
Token
p80
(dp81
g18
I30
sbasg21
I30
sbasg7
g77
sg31
Nsba(i__main__
Chain
p82
(dp83
g3
(lp84
(i__main__
Mention
p85
(dp86
g7
S't5'
p87
sg9
Nsg10
S'i6'
p88
sg12
Nsg13
Nsg14
(lp89
(i__main__
Token
p90
(dp91
g18
I46
sbasg21
I46
sba(i__main__
Mention
p92
(dp93
g7
S't5'
p94
sg9
S'Anaphora-C'
p95
sg10
S'i9'
p96
sg12
S'i6'
p97
sg13
Nsg14
(lp98
(i__main__
Token
p99
(dp100
g18
I60
sbasg21
I60
sbasg7
g87
sg31
Nsba(i__main__
Chain
p101
(dp102
g3
(lp103
(i__main__
Mention
p104
(dp105
g7
S't6'
p106
sg9
Nsg10
S'i7'
p107
sg12
Nsg13
Nsg14
(lp108
(i__main__
Token
p109
(dp110
g18
I54
sbasg21
I54
sba(i__main__
Mention
p111
(dp112
g7
S't6'
p113
sg9
S'Coreference-Identity'
p114
sg10
S'i13'
p115
sg12
S'i7'
p116
sg13
Nsg14
(lp117
(i__main__
Token
p118
(dp119
g18
I84
sbasg21
I84
sba(i__main__
Mention
p120
(dp121
g7
S't6'
p122
sg9
S'Coreference-Identity'
p123
sg10
S'i19'
p124
sg12
S'i13'
p125
sg13
Nsg14
(lp126
(i__main__
Token
p127
(dp128
g18
I105
sbasg21
I105
sba(i__main__
Mention
p129
(dp130
g7
S't6'
p131
sg9
S'Anaphora-C'
p132
sg10
S'i28'
p133
sg12
S'i19'
p134
sg13
Nsg14
(lp135
(i__main__
Token
p136
(dp137
g18
I153
sbasg21
I153
sbasg7
g106
sg31
Nsba(i__main__
Chain
p138
(dp139
g3
(lp140
(i__main__
Mention
p141
(dp142
g7
S't7'
p143
sg9
Nsg10
S'i8'
p144
sg12
Nsg13
Nsg14
(lp145
(i__main__
Token
p146
(dp147
g18
I54
sba(i__main__
Token
p148
(dp149
g18
I55
sbasg21
I55
sba(i__main__
Mention
p150
(dp151
g7
S't7'
p152
sg9
S'Coreference-Identity'
p153
sg10
S'i12'
p154
sg12
S'i8'
p155
sg13
Nsg14
(lp156
(i__main__
Token
p157
(dp158
g18
I78
sbasg21
I78
sba(i__main__
Mention
p159
(dp160
g7
S't7'
p161
sg9
S'Coreference-Identity'
p162
sg10
S'i20'
p163
sg12
S'i12'
p164
sg13
Nsg14
(lp165
(i__main__
Token
p166
(dp167
g18
I105
sba(i__main__
Token
p168
(dp169
g18
I106
sbasg21
I106
sba(i__main__
Mention
p170
(dp171
g7
S't7'
p172
sg9
S'Coreference-Identity'
p173
sg10
S'i22'
p174
sg12
S'i20'
p175
sg13
Nsg14
(lp176
(i__main__
Token
p177
(dp178
g18
I131
sbasg21
I131
sba(i__main__
Mention
p179
(dp180
g7
S't7'
p181
sg9
S'Coreference-Identity'
p182
sg10
S'i26'
p183
sg12
S'i22'
p184
sg13
Nsg14
(lp185
(i__main__
Token
p186
(dp187
g18
I147
sbasg21
I147
sba(i__main__
Mention
p188
(dp189
g7
S't7'
p190
sg9
S'Coreference-Identity'
p191
sg10
S'i31'
p192
sg12
S'i26'
p193
sg13
Nsg14
(lp194
(i__main__
Token
p195
(dp196
g18
I164
sbasg21
I164
sbasg7
g143
sg31
Nsba(i__main__
Chain
p197
(dp198
g3
(lp199
(i__main__
Mention
p200
(dp201
g7
S't8'
p202
sg9
Nsg10
S'i11'
p203
sg12
Nsg13
Nsg14
(lp204
(i__main__
Token
p205
(dp206
g18
I68
sbasg21
I68
sbasg7
g202
sg31
Nsba(i__main__
Chain
p207
(dp208
g3
(lp209
(i__main__
Mention
p210
(dp211
g7
S't9'
p212
sg9
Nsg10
S'i15'
p213
sg12
Nsg13
Nsg14
(lp214
(i__main__
Token
p215
(dp216
g18
I98
sbasg21
I98
sba(i__main__
Mention
p217
(dp218
g7
S't9'
p219
sg9
S'Anaphora-C'
p220
sg10
S'i16'
p221
sg12
S'i15'
p222
sg13
Nsg14
(lp223
(i__main__
Token
p224
(dp225
g18
I100
sbasg21
I100
sbasg7
g212
sg31
Nsba(i__main__
Chain
p226
(dp227
g3
(lp228
(i__main__
Mention
p229
(dp230
g7
S't10'
p231
sg9
Nsg10
S'i17'
p232
sg12
Nsg13
Nsg14
(lp233
(i__main__
Token
p234
(dp235
g18
I101
sbasg21
I101
sba(i__main__
Mention
p236
(dp237
g7
S't10'
p238
sg9
S'Coreference-NounComplement'
p239
sg10
S'i18'
p240
sg12
S'i17'
p241
sg13
Nsg14
(lp242
(i__main__
Token
p243
(dp244
g18
I102
sbasg21
I102
sbasg7
g231
sg31
Nsba(i__main__
Chain
p245
(dp246
g3
(lp247
(i__main__
Mention
p248
(dp249
g7
S't11'
p250
sg9
Nsg10
S'i21'
p251
sg12
Nsg13
Nsg14
(lp252
(i__main__
Token
p253
(dp254
g18
I124
sba(i__main__
Token
p255
(dp256
g18
I125
sbasg21
I125
sba(i__main__
Mention
p257
(dp258
g7
S't11'
p259
sg9
S'Coreference-Identity'
p260
sg10
S'i23'
p261
sg12
S'i21'
p262
sg13
Nsg14
(lp263
(i__main__
Token
p264
(dp265
g18
I137
sba(i__main__
Token
p266
(dp267
g18
I138
sbasg21
I138
sba(i__main__
Mention
p268
(dp269
g7
S't11'
p270
sg9
S'Anaphora-C'
p271
sg10
S'i32'
p272
sg12
S'i23'
p273
sg13
Nsg14
(lp274
(i__main__
Token
p275
(dp276
g18
I169
sbasg21
I169
sbasg7
g250
sg31
Nsba(i__main__
Chain
p277
(dp278
g3
(lp279
(i__main__
Mention
p280
(dp281
g7
S't12'
p282
sg9
Nsg10
S'i24'
p283
sg12
Nsg13
Nsg14
(lp284
(i__main__
Token
p285
(dp286
g18
I143
sbasg21
I143
sbasg7
g282
sg31
Nsba(i__main__
Chain
p287
(dp288
g3
(lp289
(i__main__
Mention
p290
(dp291
g7
S't13'
p292
sg9
Nsg10
S'i25'
p293
sg12
Nsg13
Nsg14
(lp294
(i__main__
Token
p295
(dp296
g18
I144
sba(i__main__
Token
p297
(dp298
g18
I145
sbasg21
I145
sba(i__main__
Mention
p299
(dp300
g7
S't13'
p301
sg9
S'Anaphora-C'
p302
sg10
S'i30'
p303
sg12
S'i25'
p304
sg13
Nsg14
(lp305
(i__main__
Token
p306
(dp307
g18
I162
sbasg21
I162
sbasg7
g292
sg31
Nsba(i__main__
Chain
p308
(dp309
g3
(lp310
(i__main__
Mention
p311
(dp312
g7
S't14'
p313
sg9
Nsg10
S'i27'
p314
sg12
Nsg13
Nsg14
(lp315
(i__main__
Token
p316
(dp317
g18
I152
sbasg21
I152
sbasg7
g313
sg31
Nsba(i__main__
Chain
p318
(dp319
g3
(lp320
(i__main__
Mention
p321
(dp322
g7
S't15'
p323
sg9
Nsg10
S'i29'
p324
sg12
Nsg13
Nsg14
(lp325
(i__main__
Token
p326
(dp327
g18
I156
sbasg21
I156
sbasg7
g323
sg31
Nsba(i__main__
Chain
p328
(dp329
g3
(lp330
(i__main__
Mention
p331
(dp332
g7
S't16'
p333
sg9
Nsg10
S'i33'
p334
sg12
Nsg13
Nsg14
(lp335
(i__main__
Token
p336
(dp337
g18
I172
sbasg21
I172
sbasg7
g333
sg31
Nsba.