(lp0
(i__main__
Chain
p1
(dp2
S'mentionList'
p3
(lp4
(i__main__
Mention
p5
(dp6
S'chainId'
p7
S't1'
p8
sS'relType'
p9
NsS'mentionId'
p10
S'i1'
p11
sS'antecedentId'
p12
NsS'crefMod'
p13
NsS'tokenList'
p14
(lp15
(i__main__
Token
p16
(dp17
S'tokenId'
p18
I8
sba(i__main__
Token
p19
(dp20
g18
I9
sbasS'mentionHead'
p21
I9
sba(i__main__
Mention
p22
(dp23
g7
S't1'
p24
sg9
S'Coreference-Noun-Noun'
p25
sg10
S'i2'
p26
sg12
S'i1'
p27
sg13
Nsg14
(lp28
(i__main__
Token
p29
(dp30
g18
I11
sba(i__main__
Token
p31
(dp32
g18
I12
sbasg21
I12
sba(i__main__
Mention
p33
(dp34
g7
S't1'
p35
sg9
S'Coreference-NounComplement'
p36
sg10
S'i3'
p37
sg12
S'i2'
p38
sg13
Nsg14
(lp39
(i__main__
Token
p40
(dp41
g18
I13
sba(i__main__
Token
p42
(dp43
g18
I14
sba(i__main__
Token
p44
(dp45
g18
I15
sbasg21
I15
sba(i__main__
Mention
p46
(dp47
g7
S't1'
p48
sg9
S'Coreference-Noun-Noun'
p49
sg10
S'i4'
p50
sg12
S'i3'
p51
sg13
Nsg14
(lp52
(i__main__
Token
p53
(dp54
g18
I17
sba(i__main__
Token
p55
(dp56
g18
I18
sba(i__main__
Token
p57
(dp58
g18
I19
sba(i__main__
Token
p59
(dp60
g18
I20
sbasg21
I20
sba(i__main__
Mention
p61
(dp62
g7
S't1'
p63
sg9
S'Coreference-Noun-Noun'
p64
sg10
S'i6'
p65
sg12
S'i4'
p66
sg13
Nsg14
(lp67
(i__main__
Token
p68
(dp69
g18
I25
sba(i__main__
Token
p70
(dp71
g18
I26
sba(i__main__
Token
p72
(dp73
g18
I27
sbasg21
I27
sba(i__main__
Mention
p74
(dp75
g7
S't1'
p76
sg9
S'Coreference-Noun-Noun'
p77
sg10
S'i10'
p78
sg12
S'i6'
p79
sg13
Nsg14
(lp80
(i__main__
Token
p81
(dp82
g18
I35
sbasg21
I35
sba(i__main__
Mention
p83
(dp84
g7
S't1'
p85
sg9
S'Coreference-Noun-Noun'
p86
sg10
S'i11'
p87
sg12
S'i10'
p88
sg13
Nsg14
(lp89
(i__main__
Token
p90
(dp91
g18
I38
sbasg21
I38
sba(i__main__
Mention
p92
(dp93
g7
S't1'
p94
sg9
S'Coreference-Identity'
p95
sg10
S'i14'
p96
sg12
S'i11'
p97
sg13
Nsg14
(lp98
(i__main__
Token
p99
(dp100
g18
I63
sbasg21
I63
sba(i__main__
Mention
p101
(dp102
g7
S't1'
p103
sg9
S'Coreference-Identity'
p104
sg10
S'i15'
p105
sg12
S'i14'
p106
sg13
Nsg14
(lp107
(i__main__
Token
p108
(dp109
g18
I81
sbasg21
I81
sba(i__main__
Mention
p110
(dp111
g7
S't1'
p112
sg9
S'Anaphora-C'
p113
sg10
S'i17'
p114
sg12
S'i15'
p115
sg13
Nsg14
(lp116
(i__main__
Token
p117
(dp118
g18
I91
sbasg21
I91
sba(i__main__
Mention
p119
(dp120
g7
S't1'
p121
sg9
S'Coreference-Noun-Noun'
p122
sg10
S'i20'
p123
sg12
S'i17'
p124
sg13
Nsg14
(lp125
(i__main__
Token
p126
(dp127
g18
I96
sba(i__main__
Token
p128
(dp129
g18
I97
sbasg21
I97
sba(i__main__
Mention
p130
(dp131
g7
S't1'
p132
sg9
S'Anaphora-C'
p133
sg10
S'i22'
p134
sg12
S'i20'
p135
sg13
Nsg14
(lp136
(i__main__
Token
p137
(dp138
g18
I102
sbasg21
I102
sba(i__main__
Mention
p139
(dp140
g7
S't1'
p141
sg9
S'Coreference-Identity'
p142
sg10
S'i26'
p143
sg12
S'i22'
p144
sg13
Nsg14
(lp145
(i__main__
Token
p146
(dp147
g18
I112
sbasg21
I112
sba(i__main__
Mention
p148
(dp149
g7
S't1'
p150
sg9
S'Anaphora-C'
p151
sg10
S'i27'
p152
sg12
S'i26'
p153
sg13
Nsg14
(lp154
(i__main__
Token
p155
(dp156
g18
I117
sbasg21
I117
sba(i__main__
Mention
p157
(dp158
g7
S't1'
p159
sg9
S'Coreference-Noun-Noun'
p160
sg10
S'i28'
p161
sg12
S'i27'
p162
sg13
Nsg14
(lp163
(i__main__
Token
p164
(dp165
g18
I126
sbasg21
I126
sba(i__main__
Mention
p166
(dp167
g7
S't1'
p168
sg9
S'Anaphora-C'
p169
sg10
S'i29'
p170
sg12
S'i28'
p171
sg13
Nsg14
(lp172
(i__main__
Token
p173
(dp174
g18
I140
sbasg21
I140
sba(i__main__
Mention
p175
(dp176
g7
S't1'
p177
sg9
S'Coreference-Noun-Noun'
p178
sg10
S'i30'
p179
sg12
S'i29'
p180
sg13
Nsg14
(lp181
(i__main__
Token
p182
(dp183
g18
I141
sba(i__main__
Token
p184
(dp185
g18
I142
sbasg21
I142
sba(i__main__
Mention
p186
(dp187
g7
S't1'
p188
sg9
S'Anaphora-C'
p189
sg10
S'i31'
p190
sg12
S'i30'
p191
sg13
Nsg14
(lp192
(i__main__
Token
p193
(dp194
g18
I147
sbasg21
I147
sba(i__main__
Mention
p195
(dp196
g7
S't1'
p197
sg9
S'Anaphora-C'
p198
sg10
S'i33'
p199
sg12
S'i31'
p200
sg13
Nsg14
(lp201
(i__main__
Token
p202
(dp203
g18
I160
sbasg21
I160
sba(i__main__
Mention
p204
(dp205
g7
S't1'
p206
sg9
S'Coreference-Noun-Noun'
p207
sg10
S'i34'
p208
sg12
S'i33'
p209
sg13
Nsg14
(lp210
(i__main__
Token
p211
(dp212
g18
I171
sbasg21
I171
sbasg7
g8
sS'chainHead'
p213
Nsba(i__main__
Chain
p214
(dp215
g3
(lp216
(i__main__
Mention
p217
(dp218
g7
S't2'
p219
sg9
Nsg10
S'i7'
p220
sg12
Nsg13
Nsg14
(lp221
(i__main__
Token
p222
(dp223
g18
I29
sbasg21
I29
sba(i__main__
Mention
p224
(dp225
g7
S't2'
p226
sg9
S'Coreference-Identity'
p227
sg10
S'i24'
p228
sg12
S'i7'
p229
sg13
Nsg14
(lp230
(i__main__
Token
p231
(dp232
g18
I107
sbasg21
I107
sbasg7
g219
sg213
Nsba(i__main__
Chain
p233
(dp234
g3
(lp235
(i__main__
Mention
p236
(dp237
g7
S't3'
p238
sg9
Nsg10
S'i8'
p239
sg12
Nsg13
Nsg14
(lp240
(i__main__
Token
p241
(dp242
g18
I31
sbasg21
I31
sba(i__main__
Mention
p243
(dp244
g7
S't3'
p245
sg9
S'Coreference-Identity'
p246
sg10
S'i23'
p247
sg12
S'i8'
p248
sg13
Nsg14
(lp249
(i__main__
Token
p250
(dp251
g18
I105
sbasg21
I105
sbasg7
g238
sg213
Nsba(i__main__
Chain
p252
(dp253
g3
(lp254
(i__main__
Mention
p255
(dp256
g7
S't4'
p257
sg9
Nsg10
S'i9'
p258
sg12
Nsg13
Nsg14
(lp259
(i__main__
Token
p260
(dp261
g18
I33
sbasg21
I33
sba(i__main__
Mention
p262
(dp263
g7
S't4'
p264
sg9
S'Coreference-Identity'
p265
sg10
S'i19'
p266
sg12
S'i9'
p267
sg13
Nsg14
(lp268
(i__main__
Token
p269
(dp270
g18
I94
sbasg21
I94
sba(i__main__
Mention
p271
(dp272
g7
S't4'
p273
sg9
S'Coreference-Identity'
p274
sg10
S'i25'
p275
sg12
S'i19'
p276
sg13
Nsg14
(lp277
(i__main__
Token
p278
(dp279
g18
I110
sbasg21
I110
sbasg7
g257
sg213
Nsba(i__main__
Chain
p280
(dp281
g3
(lp282
(i__main__
Mention
p283
(dp284
g7
S't5'
p285
sg9
Nsg10
S'i12'
p286
sg12
Nsg13
Nsg14
(lp287
(i__main__
Token
p288
(dp289
g18
I39
sba(i__main__
Token
p290
(dp291
g18
I40
sbasg21
I40
sba(i__main__
Mention
p292
(dp293
g7
S't5'
p294
sg9
S'Coreference-Identity'
p295
sg10
S'i13'
p296
sg12
S'i12'
p297
sg13
Nsg14
(lp298
(i__main__
Token
p299
(dp300
g18
I51
sbasg21
I51
sbasg7
g285
sg213
Nsba(i__main__
Chain
p301
(dp302
g3
(lp303
(i__main__
Mention
p304
(dp305
g7
S't6'
p306
sg9
Nsg10
S'i16'
p307
sg12
Nsg13
Nsg14
(lp308
(i__main__
Token
p309
(dp310
g18
I84
sba(i__main__
Token
p311
(dp312
g18
I85
sba(i__main__
Token
p313
(dp314
g18
I86
sbasg21
I86
sba(i__main__
Mention
p315
(dp316
g7
S't6'
p317
sg9
S'Coreference-Identity'
p318
sg10
S'i32'
p319
sg12
S'i16'
p320
sg13
Nsg14
(lp321
(i__main__
Token
p322
(dp323
g18
I148
sba(i__main__
Token
p324
(dp325
g18
I149
sbasg21
I149
sbasg7
g306
sg213
Nsba(i__main__
Chain
p326
(dp327
g3
(lp328
(i__main__
Mention
p329
(dp330
g7
S't7'
p331
sg9
Nsg10
S'i18'
p332
sg12
Nsg13
Nsg14
(lp333
(i__main__
Token
p334
(dp335
g18
I91
sba(i__main__
Token
p336
(dp337
g18
I92
sba(i__main__
Token
p338
(dp339
g18
I93
sba(i__main__
Token
p340
(dp341
g18
I94
sba(i__main__
Token
p342
(dp343
g18
I95
sba(i__main__
Token
p344
(dp345
g18
I97
sba(i__main__
Token
p346
(dp347
g18
I98
sbasg21
I98
sba(i__main__
Mention
p348
(dp349
g7
S't7'
p350
sg9
S'Anaphora-E'
p351
sg10
S'i21'
p352
sg12
S'i18'
p353
sg13
Nsg14
(lp354
(i__main__
Token
p355
(dp356
g18
I100
sbasg21
I100
sbasg7
g331
sg213
Nsba.