(lp0
(i__main__
Chain
p1
(dp2
S'mentionList'
p3
(lp4
(i__main__
Mention
p5
(dp6
S'chainId'
p7
S't1'
p8
sS'relType'
p9
NsS'mentionId'
p10
S'i1'
p11
sS'antecedentId'
p12
NsS'crefMod'
p13
NsS'tokenList'
p14
(lp15
(i__main__
Token
p16
(dp17
S'tokenId'
p18
I14
sba(i__main__
Token
p19
(dp20
g18
I15
sbasS'mentionHead'
p21
I15
sba(i__main__
Mention
p22
(dp23
g7
S't1'
p24
sg9
S'Coreference-Identity'
p25
sg10
S'i8'
p26
sg12
S'i1'
p27
sg13
Nsg14
(lp28
(i__main__
Token
p29
(dp30
g18
I39
sba(i__main__
Token
p31
(dp32
g18
I40
sbasg21
I40
sba(i__main__
Mention
p33
(dp34
g7
S't1'
p35
sg9
S'Coreference-Identity'
p36
sg10
S'i16'
p37
sg12
S'i8'
p38
sg13
Nsg14
(lp39
(i__main__
Token
p40
(dp41
g18
I92
sba(i__main__
Token
p42
(dp43
g18
I93
sbasg21
I93
sba(i__main__
Mention
p44
(dp45
g7
S't1'
p46
sg9
S'Coreference-Identity'
p47
sg10
S'i17'
p48
sg12
S'i16'
p49
sg13
Nsg14
(lp50
(i__main__
Token
p51
(dp52
g18
I118
sba(i__main__
Token
p53
(dp54
g18
I119
sbasg21
I119
sba(i__main__
Mention
p55
(dp56
g7
S't1'
p57
sg9
S'Coreference-Identity'
p58
sg10
S'i21'
p59
sg12
S'i17'
p60
sg13
Nsg14
(lp61
(i__main__
Token
p62
(dp63
g18
I147
sba(i__main__
Token
p64
(dp65
g18
I148
sbasg21
I148
sba(i__main__
Mention
p66
(dp67
g7
S't1'
p68
sg9
S'Anaphora-C'
p69
sg10
S'i25'
p70
sg12
S'i21'
p71
sg13
Nsg14
(lp72
(i__main__
Token
p73
(dp74
g18
I182
sbasg21
I182
sba(i__main__
Mention
p75
(dp76
g7
S't1'
p77
sg9
S'Coreference-Identity'
p78
sg10
S'i27'
p79
sg12
S'i25'
p80
sg13
Nsg14
(lp81
(i__main__
Token
p82
(dp83
g18
I204
sba(i__main__
Token
p84
(dp85
g18
I205
sbasg21
I205
sba(i__main__
Mention
p86
(dp87
g7
S't1'
p88
sg9
S'Anaphora-C'
p89
sg10
S'i32'
p90
sg12
S'i27'
p91
sg13
Nsg14
(lp92
(i__main__
Token
p93
(dp94
g18
I220
sbasg21
I220
sbasg7
g8
sS'chainHead'
p95
Nsba(i__main__
Chain
p96
(dp97
g3
(lp98
(i__main__
Mention
p99
(dp100
g7
S't2'
p101
sg9
Nsg10
S'i2'
p102
sg12
Nsg13
Nsg14
(lp103
(i__main__
Token
p104
(dp105
g18
I20
sba(i__main__
Token
p106
(dp107
g18
I21
sbasg21
I21
sba(i__main__
Mention
p108
(dp109
g7
S't2'
p110
sg9
S'Coreference-Identity'
p111
sg10
S'i10'
p112
sg12
S'i2'
p113
sg13
Nsg14
(lp114
(i__main__
Token
p115
(dp116
g18
I66
sba(i__main__
Token
p117
(dp118
g18
I67
sbasg21
I67
sba(i__main__
Mention
p119
(dp120
g7
S't2'
p121
sg9
S'Coreference-Identity'
p122
sg10
S'i12'
p123
sg12
S'i10'
p124
sg13
Nsg14
(lp125
(i__main__
Token
p126
(dp127
g18
I75
sbasg21
I75
sba(i__main__
Mention
p128
(dp129
g7
S't2'
p130
sg9
S'Coreference-Identity'
p131
sg10
S'i36'
p132
sg12
S'i12'
p133
sg13
Nsg14
(lp134
(i__main__
Token
p135
(dp136
g18
I265
sbasg21
I265
sba(i__main__
Mention
p137
(dp138
g7
S't2'
p139
sg9
S'Coreference-Identity'
p140
sg10
S'i40'
p141
sg12
S'i36'
p142
sg13
Nsg14
(lp143
(i__main__
Token
p144
(dp145
g18
I291
sbasg21
I291
sbasg7
g101
sg95
Nsba(i__main__
Chain
p146
(dp147
g3
(lp148
(i__main__
Mention
p149
(dp150
g7
S't3'
p151
sg9
Nsg10
S'i3'
p152
sg12
Nsg13
Nsg14
(lp153
(i__main__
Token
p154
(dp155
g18
I20
sbasg21
I20
sba(i__main__
Mention
p156
(dp157
g7
S't3'
p158
sg9
S'Coreference-Identity'
p159
sg10
S'i11'
p160
sg12
S'i3'
p161
sg13
Nsg14
(lp162
(i__main__
Token
p163
(dp164
g18
I66
sbasg21
I66
sba(i__main__
Mention
p165
(dp166
g7
S't3'
p167
sg9
S'Coreference-Identity'
p168
sg10
S'i18'
p169
sg12
S'i11'
p170
sg13
Nsg14
(lp171
(i__main__
Token
p172
(dp173
g18
I129
sbasg21
I129
sba(i__main__
Mention
p174
(dp175
g7
S't3'
p176
sg9
S'Coreference-Identity'
p177
sg10
S'i34'
p178
sg12
S'i18'
p179
sg13
Nsg14
(lp180
(i__main__
Token
p181
(dp182
g18
I236
sbasg21
I236
sba(i__main__
Mention
p183
(dp184
g7
S't3'
p185
sg9
S'Coreference-Identity'
p186
sg10
S'i35'
p187
sg12
S'i34'
p188
sg13
Nsg14
(lp189
(i__main__
Token
p190
(dp191
g18
I263
sbasg21
I263
sbasg7
g151
sg95
Nsba(i__main__
Chain
p192
(dp193
g3
(lp194
(i__main__
Mention
p195
(dp196
g7
S't4'
p197
sg9
Nsg10
S'i4'
p198
sg12
Nsg13
Nsg14
(lp199
(i__main__
Token
p200
(dp201
g18
I27
sba(i__main__
Token
p202
(dp203
g18
I28
sbasg21
I28
sba(i__main__
Mention
p204
(dp205
g7
S't4'
p206
sg9
S'Coreference-Identity'
p207
sg10
S'i14'
p208
sg12
S'i4'
p209
sg13
Nsg14
(lp210
(i__main__
Token
p211
(dp212
g18
I85
sba(i__main__
Token
p213
(dp214
g18
I86
sbasg21
I86
sbasg7
g197
sg95
Nsba(i__main__
Chain
p215
(dp216
g3
(lp217
(i__main__
Mention
p218
(dp219
g7
S't5'
p220
sg9
Nsg10
S'i5'
p221
sg12
Nsg13
Nsg14
(lp222
(i__main__
Token
p223
(dp224
g18
I30
sbasg21
I30
sba(i__main__
Mention
p225
(dp226
g7
S't5'
p227
sg9
S'Coreference-NounComplement'
p228
sg10
S'i6'
p229
sg12
S'i5'
p230
sg13
Nsg14
(lp231
(i__main__
Token
p232
(dp233
g18
I31
sba(i__main__
Token
p234
(dp235
g18
I32
sbasg21
I32
sba(i__main__
Mention
p236
(dp237
g7
S't5'
p238
sg9
S'Coreference-Identity'
p239
sg10
S'i15'
p240
sg12
S'i6'
p241
sg13
Nsg14
(lp242
(i__main__
Token
p243
(dp244
g18
I89
sbasg21
I89
sba(i__main__
Mention
p245
(dp246
g7
S't5'
p247
sg9
S'Coreference-Noun-Noun'
p248
sg10
S'i19'
p249
sg12
S'i15'
p250
sg13
Nsg14
(lp251
(i__main__
Token
p252
(dp253
g18
I142
sbasg21
I142
sba(i__main__
Mention
p254
(dp255
g7
S't5'
p256
sg9
S'Coreference-NounComplement'
p257
sg10
S'i20'
p258
sg12
S'i19'
p259
sg13
Nsg14
(lp260
(i__main__
Token
p261
(dp262
g18
I143
sbasg21
I143
sba(i__main__
Mention
p263
(dp264
g7
S't5'
p265
sg9
S'Anaphora-C'
p266
sg10
S'i22'
p267
sg12
S'i20'
p268
sg13
Nsg14
(lp269
(i__main__
Token
p270
(dp271
g18
I154
sbasg21
I154
sbasg7
g220
sg95
Nsba(i__main__
Chain
p272
(dp273
g3
(lp274
(i__main__
Mention
p275
(dp276
g7
S't6'
p277
sg9
Nsg10
S'i7'
p278
sg12
Nsg13
Nsg14
(lp279
(i__main__
Token
p280
(dp281
g18
I38
sbasg21
I38
sba(i__main__
Mention
p282
(dp283
g7
S't6'
p284
sg9
S'Coreference-PartOf'
p285
sg10
S'i37'
p286
sg12
S'i7'
p287
sg13
Nsg14
(lp288
(i__main__
Token
p289
(dp290
g18
I276
sba(i__main__
Token
p291
(dp292
g18
I277
sbasg21
I277
sbasg7
g277
sg95
Nsba(i__main__
Chain
p293
(dp294
g3
(lp295
(i__main__
Mention
p296
(dp297
g7
S't7'
p298
sg9
Nsg10
S'i9'
p299
sg12
Nsg13
Nsg14
(lp300
(i__main__
Token
p301
(dp302
g18
I43
sbasg21
I43
sba(i__main__
Mention
p303
(dp304
g7
S't7'
p305
sg9
S'Coreference-Identity'
p306
sg10
S'i23'
p307
sg12
S'i9'
p308
sg13
Nsg14
(lp309
(i__main__
Token
p310
(dp311
g18
I155
sbasg21
I155
sba(i__main__
Mention
p312
(dp313
g7
S't7'
p314
sg9
S'Anaphora-C'
p315
sg10
S'i24'
p316
sg12
S'i23'
p317
sg13
Nsg14
(lp318
(i__main__
Token
p319
(dp320
g18
I157
sbasg21
I157
sba(i__main__
Mention
p321
(dp322
g7
S't7'
p323
sg9
S'Coreference-Identity'
p324
sg10
S'i28'
p325
sg12
S'i24'
p326
sg13
Nsg14
(lp327
(i__main__
Token
p328
(dp329
g18
I207
sbasg21
I207
sba(i__main__
Mention
p330
(dp331
g7
S't7'
p332
sg9
S'Anaphora-C'
p333
sg10
S'i29'
p334
sg12
S'i28'
p335
sg13
Nsg14
(lp336
(i__main__
Token
p337
(dp338
g18
I211
sbasg21
I211
sbasg7
g298
sg95
Nsba(i__main__
Chain
p339
(dp340
g3
(lp341
(i__main__
Mention
p342
(dp343
g7
S't8'
p344
sg9
Nsg10
S'i13'
p345
sg12
Nsg13
Nsg14
(lp346
(i__main__
Token
p347
(dp348
g18
I80
sbasg21
I80
sba(i__main__
Mention
p349
(dp350
g7
S't8'
p351
sg9
S'Coreference-Identity'
p352
sg10
S'i33'
p353
sg12
S'i13'
p354
sg13
Nsg14
(lp355
(i__main__
Token
p356
(dp357
g18
I221
sbasg21
I221
sbasg7
g344
sg95
Nsba(i__main__
Chain
p358
(dp359
g3
(lp360
(i__main__
Mention
p361
(dp362
g7
S't9'
p363
sg9
Nsg10
S'i26'
p364
sg12
Nsg13
Nsg14
(lp365
(i__main__
Token
p366
(dp367
g18
I191
sbasg21
I191
sba(i__main__
Mention
p368
(dp369
g7
S't9'
p370
sg9
S'Coreference-Identity'
p371
sg10
S'i38'
p372
sg12
S'i26'
p373
sg13
Nsg14
(lp374
(i__main__
Token
p375
(dp376
g18
I279
sbasg21
I279
sbasg7
g363
sg95
Nsba(i__main__
Chain
p377
(dp378
g3
(lp379
(i__main__
Mention
p380
(dp381
g7
S't10'
p382
sg9
Nsg10
S'i30'
p383
sg12
Nsg13
Nsg14
(lp384
(i__main__
Token
p385
(dp386
g18
I212
sba(i__main__
Token
p387
(dp388
g18
I213
sba(i__main__
Token
p389
(dp390
g18
I214
sbasg21
I214
sba(i__main__
Mention
p391
(dp392
g7
S't10'
p393
sg9
S'Anaphora-C'
p394
sg10
S'i31'
p395
sg12
S'i30'
p396
sg13
Nsg14
(lp397
(i__main__
Token
p398
(dp399
g18
I218
sbasg21
I218
sbasg7
g382
sg95
Nsba(i__main__
Chain
p400
(dp401
g3
(lp402
(i__main__
Mention
p403
(dp404
g7
S't11'
p405
sg9
Nsg10
S'i39'
p406
sg12
Nsg13
Nsg14
(lp407
(i__main__
Token
p408
(dp409
g18
I288
sbasg21
I288
sbasg7
g405
sg95
Nsba.