(lp0
(i__main__
Chain
p1
(dp2
S'mentionList'
p3
(lp4
(i__main__
Mention
p5
(dp6
S'chainId'
p7
S't1'
p8
sS'relType'
p9
NsS'mentionId'
p10
S'i1'
p11
sS'antecedentId'
p12
NsS'crefMod'
p13
NsS'tokenList'
p14
(lp15
(i__main__
Token
p16
(dp17
S'tokenId'
p18
I0
sba(i__main__
Token
p19
(dp20
g18
I1
sba(i__main__
Token
p21
(dp22
g18
I2
sbasS'mentionHead'
p23
I2
sba(i__main__
Mention
p24
(dp25
g7
S't1'
p26
sg9
S'Coreference-Abbreviation'
p27
sg10
S'i4'
p28
sg12
S'i1'
p29
sg13
Nsg14
(lp30
(i__main__
Token
p31
(dp32
g18
I4
sbasg23
I4
sba(i__main__
Mention
p33
(dp34
g7
S't1'
p35
sg9
S'Coreference-Identity'
p36
sg10
S'i11'
p37
sg12
S'i4'
p38
sg13
Nsg14
(lp39
(i__main__
Token
p40
(dp41
g18
I38
sbasg23
I38
sba(i__main__
Mention
p42
(dp43
g7
S't1'
p44
sg9
S'Coreference-Identity'
p45
sg10
S'i29'
p46
sg12
S'i11'
p47
sg13
Nsg14
(lp48
(i__main__
Token
p49
(dp50
g18
I110
sbasg23
I110
sba(i__main__
Mention
p51
(dp52
g7
S't1'
p53
sg9
S'Coreference-Identity'
p54
sg10
S'i45'
p55
sg12
S'i29'
p56
sg13
Nsg14
(lp57
(i__main__
Token
p58
(dp59
g18
I178
sbasg23
I178
sbasg7
g8
sS'chainHead'
p60
Nsba(i__main__
Chain
p61
(dp62
g3
(lp63
(i__main__
Mention
p64
(dp65
g7
S't2'
p66
sg9
Nsg10
S'i2'
p67
sg12
Nsg13
Nsg14
(lp68
(i__main__
Token
p69
(dp70
g18
I0
sba(i__main__
Token
p71
(dp72
g18
I1
sba(i__main__
Token
p73
(dp74
g18
I2
sba(i__main__
Token
p75
(dp76
g18
I6
sba(i__main__
Token
p77
(dp78
g18
I7
sbasg23
I7
sba(i__main__
Mention
p79
(dp80
g7
S't2'
p81
sg9
S'Coreference-Identity'
p82
sg10
S'i12'
p83
sg12
S'i2'
p84
sg13
Nsg14
(lp85
(i__main__
Token
p86
(dp87
g18
I38
sba(i__main__
Token
p88
(dp89
g18
I39
sba(i__main__
Token
p90
(dp91
g18
I40
sbasg23
I40
sba(i__main__
Mention
p92
(dp93
g7
S't2'
p94
sg9
S'Coreference-Identity'
p95
sg10
S'i30'
p96
sg12
S'i12'
p97
sg13
Nsg14
(lp98
(i__main__
Token
p99
(dp100
g18
I110
sba(i__main__
Token
p101
(dp102
g18
I111
sba(i__main__
Token
p103
(dp104
g18
I112
sbasg23
I112
sbasg7
g66
sg60
Nsba(i__main__
Chain
p105
(dp106
g3
(lp107
(i__main__
Mention
p108
(dp109
g7
S't3'
p110
sg9
Nsg10
S'i3'
p111
sg12
Nsg13
Nsg14
(lp112
(i__main__
Token
p113
(dp114
g18
I0
sba(i__main__
Token
p115
(dp116
g18
I1
sba(i__main__
Token
p117
(dp118
g18
I2
sba(i__main__
Token
p119
(dp120
g18
I3
sba(i__main__
Token
p121
(dp122
g18
I4
sba(i__main__
Token
p123
(dp124
g18
I5
sba(i__main__
Token
p125
(dp126
g18
I6
sba(i__main__
Token
p127
(dp128
g18
I7
sba(i__main__
Token
p129
(dp130
g18
I8
sba(i__main__
Token
p131
(dp132
g18
I9
sba(i__main__
Token
p133
(dp134
g18
I10
sba(i__main__
Token
p135
(dp136
g18
I11
sba(i__main__
Token
p137
(dp138
g18
I12
sba(i__main__
Token
p139
(dp140
g18
I13
sbasg23
I13
sba(i__main__
Mention
p141
(dp142
g7
S't3'
p143
sg9
S'Coreference-Noun-Noun'
p144
sg10
S'i6'
p145
sg12
S'i3'
p146
sg13
Nsg14
(lp147
(i__main__
Token
p148
(dp149
g18
I18
sbasg23
I18
sba(i__main__
Mention
p150
(dp151
g7
S't3'
p152
sg9
S'Coreference-Identity'
p153
sg10
S'i16'
p154
sg12
S'i6'
p155
sg13
Nsg14
(lp156
(i__main__
Token
p157
(dp158
g18
I68
sba(i__main__
Token
p159
(dp160
g18
I69
sbasg23
I69
sba(i__main__
Mention
p161
(dp162
g7
S't3'
p163
sg9
S'Anaphora-C'
p164
sg10
S'i43'
p165
sg12
S'i16'
p166
sg13
Nsg14
(lp167
(i__main__
Token
p168
(dp169
g18
I175
sbasg23
I175
sbasg7
g110
sg60
Nsba(i__main__
Chain
p170
(dp171
g3
(lp172
(i__main__
Mention
p173
(dp174
g7
S't4'
p175
sg9
Nsg10
S'i5'
p176
sg12
Nsg13
Nsg14
(lp177
(i__main__
Token
p178
(dp179
g18
I15
sba(i__main__
Token
p180
(dp181
g18
I16
sbasg23
I16
sba(i__main__
Mention
p182
(dp183
g7
S't4'
p184
sg9
S'Coreference-Identity'
p185
sg10
S'i15'
p186
sg12
S'i5'
p187
sg13
Nsg14
(lp188
(i__main__
Token
p189
(dp190
g18
I66
sbasg23
I66
sbasg7
g175
sg60
Nsba(i__main__
Chain
p191
(dp192
g3
(lp193
(i__main__
Mention
p194
(dp195
g7
S't5'
p196
sg9
Nsg10
S'i7'
p197
sg12
Nsg13
Nsg14
(lp198
(i__main__
Token
p199
(dp200
g18
I20
sbasg23
I20
sba(i__main__
Mention
p201
(dp202
g7
S't5'
p203
sg9
S'Coreference-Identity'
p204
sg10
S'i50'
p205
sg12
S'i7'
p206
sg13
Nsg14
(lp207
(i__main__
Token
p208
(dp209
g18
I200
sba(i__main__
Token
p210
(dp211
g18
I201
sbasg23
I201
sba(i__main__
Mention
p212
(dp213
g7
S't5'
p214
sg9
S'Coreference-Identity'
p215
sg10
S'i53'
p216
sg12
S'i50'
p217
sg13
Nsg14
(lp218
(i__main__
Token
p219
(dp220
g18
I232
sba(i__main__
Token
p221
(dp222
g18
I233
sba(i__main__
Token
p223
(dp224
g18
I234
sbasg23
I234
sbasg7
g196
sg60
Nsba(i__main__
Chain
p225
(dp226
g3
(lp227
(i__main__
Mention
p228
(dp229
g7
S't6'
p230
sg9
Nsg10
S'i8'
p231
sg12
Nsg13
Nsg14
(lp232
(i__main__
Token
p233
(dp234
g18
I24
sbasg23
I24
sba(i__main__
Mention
p235
(dp236
g7
S't6'
p237
sg9
S'Coreference-Identity'
p238
sg10
S'i38'
p239
sg12
S'i8'
p240
sg13
Nsg14
(lp241
(i__main__
Token
p242
(dp243
g18
I136
sbasg23
I136
sbasg7
g230
sg60
Nsba(i__main__
Chain
p244
(dp245
g3
(lp246
(i__main__
Mention
p247
(dp248
g7
S't7'
p249
sg9
Nsg10
S'i9'
p250
sg12
Nsg13
Nsg14
(lp251
(i__main__
Token
p252
(dp253
g18
I27
sba(i__main__
Token
p254
(dp255
g18
I28
sbasg23
I28
sba(i__main__
Mention
p256
(dp257
g7
S't7'
p258
sg9
S'Coreference-Identity'
p259
sg10
S'i13'
p260
sg12
S'i9'
p261
sg13
Nsg14
(lp262
(i__main__
Token
p263
(dp264
g18
I48
sbasg23
I48
sba(i__main__
Mention
p265
(dp266
g7
S't7'
p267
sg9
S'Coreference-Identity'
p268
sg10
S'i14'
p269
sg12
S'i13'
p270
sg13
Nsg14
(lp271
(i__main__
Token
p272
(dp273
g18
I64
sbasg23
I64
sba(i__main__
Mention
p274
(dp275
g7
S't7'
p276
sg9
S'Anaphora-C'
p277
sg10
S'i19'
p278
sg12
S'i14'
p279
sg13
Nsg14
(lp280
(i__main__
Token
p281
(dp282
g18
I80
sbasg23
I80
sba(i__main__
Mention
p283
(dp284
g7
S't7'
p285
sg9
S'Coreference-Identity'
p286
sg10
S'i26'
p287
sg12
S'i19'
p288
sg13
Nsg14
(lp289
(i__main__
Token
p290
(dp291
g18
I103
sbasg23
I103
sba(i__main__
Mention
p292
(dp293
g7
S't7'
p294
sg9
S'Coreference-Identity'
p295
sg10
S'i35'
p296
sg12
S'i26'
p297
sg13
Nsg14
(lp298
(i__main__
Token
p299
(dp300
g18
I129
sbasg23
I129
sba(i__main__
Mention
p301
(dp302
g7
S't7'
p303
sg9
S'Anaphora-C'
p304
sg10
S'i36'
p305
sg12
S'i35'
p306
sg13
Nsg14
(lp307
(i__main__
Token
p308
(dp309
g18
I131
sbasg23
I131
sba(i__main__
Mention
p310
(dp311
g7
S't7'
p312
sg9
S'Coreference-Identity'
p313
sg10
S'i40'
p314
sg12
S'i36'
p315
sg13
Nsg14
(lp316
(i__main__
Token
p317
(dp318
g18
I155
sbasg23
I155
sba(i__main__
Mention
p319
(dp320
g7
S't7'
p321
sg9
S'Anaphora-C'
p322
sg10
S'i47'
p323
sg12
S'i40'
p324
sg13
Nsg14
(lp325
(i__main__
Token
p326
(dp327
g18
I190
sbasg23
I190
sba(i__main__
Mention
p328
(dp329
g7
S't7'
p330
sg9
S'Coreference-Identity'
p331
sg10
S'i52'
p332
sg12
S'i47'
p333
sg13
Nsg14
(lp334
(i__main__
Token
p335
(dp336
g18
I210
sbasg23
I210
sbasg7
g249
sg60
Nsba(i__main__
Chain
p337
(dp338
g3
(lp339
(i__main__
Mention
p340
(dp341
g7
S't8'
p342
sg9
Nsg10
S'i10'
p343
sg12
Nsg13
Nsg14
(lp344
(i__main__
Token
p345
(dp346
g18
I45
sbasg23
I45
sba(i__main__
Mention
p347
(dp348
g7
S't8'
p349
sg9
S'Coreference-Identity'
p350
sg10
S'i31'
p351
sg12
S'i10'
p352
sg13
Nsg14
(lp353
(i__main__
Token
p354
(dp355
g18
I117
sbasg23
I117
sba(i__main__
Mention
p356
(dp357
g7
S't8'
p358
sg9
S'Coreference-Identity'
p359
sg10
S'i37'
p360
sg12
S'i31'
p361
sg13
Nsg14
(lp362
(i__main__
Token
p363
(dp364
g18
I132
sbasg23
I132
sba(i__main__
Mention
p365
(dp366
g7
S't8'
p367
sg9
S'Coreference-Identity'
p368
sg10
S'i41'
p369
sg12
S'i37'
p370
sg13
Nsg14
(lp371
(i__main__
Token
p372
(dp373
g18
I160
sba(i__main__
Token
p374
(dp375
g18
I161
sbasg23
I161
sbasg7
g342
sg60
Nsba(i__main__
Chain
p376
(dp377
g3
(lp378
(i__main__
Mention
p379
(dp380
g7
S't9'
p381
sg9
Nsg10
S'i17'
p382
sg12
Nsg13
Nsg14
(lp383
(i__main__
Token
p384
(dp385
g18
I72
sba(i__main__
Token
p386
(dp387
g18
I73
sba(i__main__
Token
p388
(dp389
g18
I74
sba(i__main__
Token
p390
(dp391
g18
I75
sbasg23
I74
sba(i__main__
Mention
p392
(dp393
g7
S't9'
p394
sg9
S'Anaphora-C'
p395
sg10
S'i18'
p396
sg12
S'i17'
p397
sg13
Nsg14
(lp398
(i__main__
Token
p399
(dp400
g18
I78
sbasg23
I78
sbasg7
g381
sg60
Nsba(i__main__
Chain
p401
(dp402
g3
(lp403
(i__main__
Mention
p404
(dp405
g7
S't10'
p406
sg9
Nsg10
S'i20'
p407
sg12
Nsg13
Nsg14
(lp408
(i__main__
Token
p409
(dp410
g18
I90
sbasg23
I90
sba(i__main__
Mention
p411
(dp412
g7
S't10'
p413
sg9
Nsg10
S'i23'
p414
sg12
Nsg13
Nsg14
(lp415
(i__main__
Token
p416
(dp417
g18
I96
sba(i__main__
Token
p418
(dp419
g18
I97
sbasg23
Nsba(i__main__
Mention
p420
(dp421
g7
S't10'
p422
sg9
S'Coreference-PartOf'
p423
sg10
S'i32'
p424
sg12
S'i23'
p425
sg13
Nsg14
(lp426
(i__main__
Token
p427
(dp428
g18
I121
sbasg23
I121
sbasg7
g406
sg60
Nsba(i__main__
Chain
p429
(dp430
g3
(lp431
(i__main__
Mention
p432
(dp433
g7
S't11'
p434
sg9
Nsg10
S'i21'
p435
sg12
Nsg13
Nsg14
(lp436
(i__main__
Token
p437
(dp438
g18
I92
sbasg23
I92
sba(i__main__
Mention
p439
(dp440
g7
S't11'
p441
sg9
Nsg10
S'i24'
p442
sg12
Nsg13
Nsg14
(lp443
(i__main__
Token
p444
(dp445
g18
I96
sba(i__main__
Token
p446
(dp447
g18
I97
sbasg23
Nsba(i__main__
Mention
p448
(dp449
g7
S't11'
p450
sg9
S'Coreference-PartOf'
p451
sg10
S'i54'
p452
sg12
S'i24'
p453
sg13
Nsg14
(lp454
(i__main__
Token
p455
(dp456
g18
I237
sbasg23
I237
sbasg7
g434
sg60
Nsba(i__main__
Chain
p457
(dp458
g3
(lp459
(i__main__
Mention
p460
(dp461
g7
S't12'
p462
sg9
Nsg10
S'i22'
p463
sg12
Nsg13
Nsg14
(lp464
(i__main__
Token
p465
(dp466
g18
I94
sbasg23
I94
sba(i__main__
Mention
p467
(dp468
g7
S't12'
p469
sg9
Nsg10
S'i25'
p470
sg12
Nsg13
Nsg14
(lp471
(i__main__
Token
p472
(dp473
g18
I96
sba(i__main__
Token
p474
(dp475
g18
I97
sbasg23
Nsbasg7
g462
sg60
Nsba(i__main__
Chain
p476
(dp477
g3
(lp478
(i__main__
Mention
p479
(dp480
g7
S't13'
p481
sg9
Nsg10
S'i27'
p482
sg12
Nsg13
Nsg14
(lp483
(i__main__
Token
p484
(dp485
g18
I105
sbasg23
I105
sba(i__main__
Mention
p486
(dp487
g7
S't13'
p488
sg9
S'Anaphora-C'
p489
sg10
S'i28'
p490
sg12
S'i27'
p491
sg13
Nsg14
(lp492
(i__main__
Token
p493
(dp494
g18
I109
sbasg23
I109
sbasg7
g481
sg60
Nsba(i__main__
Chain
p495
(dp496
g3
(lp497
(i__main__
Mention
p498
(dp499
g7
S't14'
p500
sg9
Nsg10
S'i33'
p501
sg12
Nsg13
Nsg14
(lp502
(i__main__
Token
p503
(dp504
g18
I121
sba(i__main__
Token
p505
(dp506
g18
I122
sbasg23
I122
sba(i__main__
Mention
p507
(dp508
g7
S't14'
p509
sg9
S'Coreference-NounComplement'
p510
sg10
S'i34'
p511
sg12
S'i33'
p512
sg13
Nsg14
(lp513
(i__main__
Token
p514
(dp515
g18
I123
sba(i__main__
Token
p516
(dp517
g18
I124
sba(i__main__
Token
p518
(dp519
g18
I125
sbasg23
I125
sba(i__main__
Mention
p520
(dp521
g7
S't14'
p522
sg9
S'Coreference-Identity'
p523
sg10
S'i39'
p524
sg12
S'i34'
p525
sg13
Nsg14
(lp526
(i__main__
Token
p527
(dp528
g18
I151
sbasg23
I151
sba(i__main__
Mention
p529
(dp530
g7
S't14'
p531
sg9
S'Coreference-Identity'
p532
sg10
S'i51'
p533
sg12
S'i39'
p534
sg13
Nsg14
(lp535
(i__main__
Token
p536
(dp537
g18
I205
sbasg23
I205
sbasg7
g500
sg60
Nsba(i__main__
Chain
p538
(dp539
g3
(lp540
(i__main__
Mention
p541
(dp542
g7
S't15'
p543
sg9
Nsg10
S'i42'
p544
sg12
Nsg13
Nsg14
(lp545
(i__main__
Token
p546
(dp547
g18
I167
sba(i__main__
Token
p548
(dp549
g18
I168
sbasg23
I168
sba(i__main__
Mention
p550
(dp551
g7
S't15'
p552
sg9
S'Coreference-Identity'
p553
sg10
S'i57'
p554
sg12
S'i42'
p555
sg13
Nsg14
(lp556
(i__main__
Token
p557
(dp558
g18
I277
sba(i__main__
Token
p559
(dp560
g18
I278
sbasg23
I278
sbasg7
g543
sg60
Nsba(i__main__
Chain
p561
(dp562
g3
(lp563
(i__main__
Mention
p564
(dp565
g7
S't16'
p566
sg9
Nsg10
S'i44'
p567
sg12
Nsg13
Nsg14
(lp568
(i__main__
Token
p569
(dp570
g18
I176
sba(i__main__
Token
p571
(dp572
g18
I177
sba(i__main__
Token
p573
(dp574
g18
I178
sba(i__main__
Token
p575
(dp576
g18
I179
sbasg23
I179
sba(i__main__
Mention
p577
(dp578
g7
S't16'
p579
sg9
S'Anaphora-C'
p580
sg10
S'i46'
p581
sg12
S'i44'
p582
sg13
Nsg14
(lp583
(i__main__
Token
p584
(dp585
g18
I181
sbasg23
I181
sbasg7
g566
sg60
Nsba(i__main__
Chain
p586
(dp587
g3
(lp588
(i__main__
Mention
p589
(dp590
g7
S't17'
p591
sg9
S'anaphora-?'
p592
sg10
S'i48'
p593
sg12
S'i48'
p594
sg13
Nsg14
(lp595
(i__main__
Token
p596
(dp597
g18
I191
sbasg23
I191
sba(i__main__
Mention
p598
(dp599
g7
S't17'
p600
sg9
S'Anaphora-RC'
p601
sg10
S'i49'
p602
sg12
S'i48'
p603
sg13
Nsg14
(lp604
(i__main__
Token
p605
(dp606
g18
I195
sba(i__main__
Token
p607
(dp608
g18
I196
sba(i__main__
Token
p609
(dp610
g18
I197
sba(i__main__
Token
p611
(dp612
g18
I198
sba(i__main__
Token
p613
(dp614
g18
I199
sba(i__main__
Token
p615
(dp616
g18
I200
sba(i__main__
Token
p617
(dp618
g18
I201
sba(i__main__
Token
p619
(dp620
g18
I202
sba(i__main__
Token
p621
(dp622
g18
I203
sbasg23
I203
sbasg7
g591
sg60
Nsba(i__main__
Chain
p623
(dp624
g3
(lp625
(i__main__
Mention
p626
(dp627
g7
S't18'
p628
sg9
Nsg10
S'i55'
p629
sg12
Nsg13
Nsg14
(lp630
(i__main__
Token
p631
(dp632
g18
I239
sbasg23
I239
sba(i__main__
Mention
p633
(dp634
g7
S't18'
p635
sg9
S'Coreference-NounComplement'
p636
sg10
S'i56'
p637
sg12
S'i55'
p638
sg13
Nsg14
(lp639
(i__main__
Token
p640
(dp641
g18
I240
sba(i__main__
Token
p642
(dp643
g18
I241
sba(i__main__
Token
p644
(dp645
g18
I242
sbasg23
I242
sbasg7
g628
sg60
Nsba.