(lp0
(i__main__
Chain
p1
(dp2
S'mentionList'
p3
(lp4
(i__main__
Mention
p5
(dp6
S'chainId'
p7
S't1'
p8
sS'relType'
p9
NsS'mentionId'
p10
S'i1'
p11
sS'antecedentId'
p12
NsS'crefMod'
p13
NsS'tokenList'
p14
(lp15
(i__main__
Token
p16
(dp17
S'tokenId'
p18
I0
sbasS'mentionHead'
p19
I0
sba(i__main__
Mention
p20
(dp21
g7
S't1'
p22
sg9
S'Anaphora-C'
p23
sg10
S'i6'
p24
sg12
S'i1'
p25
sg13
Nsg14
(lp26
(i__main__
Token
p27
(dp28
g18
I18
sbasg19
I18
sba(i__main__
Mention
p29
(dp30
g7
S't1'
p31
sg9
S'Coreference-Identity'
p32
sg10
S'i14'
p33
sg12
S'i6'
p34
sg13
Nsg14
(lp35
(i__main__
Token
p36
(dp37
g18
I66
sbasg19
I66
sba(i__main__
Mention
p38
(dp39
g7
S't1'
p40
sg9
S'Coreference-Identity'
p41
sg10
S'i28'
p42
sg12
S'i14'
p43
sg13
Nsg14
(lp44
(i__main__
Token
p45
(dp46
g18
I144
sbasg19
I144
sbasg7
g8
sS'chainHead'
p47
Nsba(i__main__
Chain
p48
(dp49
g3
(lp50
(i__main__
Mention
p51
(dp52
g7
S't2'
p53
sg9
Nsg10
S'i2'
p54
sg12
Nsg13
Nsg14
(lp55
(i__main__
Token
p56
(dp57
g18
I2
sba(i__main__
Token
p58
(dp59
g18
I3
sba(i__main__
Token
p60
(dp61
g18
I4
sba(i__main__
Token
p62
(dp63
g18
I5
sba(i__main__
Token
p64
(dp65
g18
I6
sba(i__main__
Token
p66
(dp67
g18
I7
sba(i__main__
Token
p68
(dp69
g18
I8
sbasg19
I8
sba(i__main__
Mention
p70
(dp71
g7
S't2'
p72
sg9
S'Anaphora-C'
p73
sg10
S'i4'
p74
sg12
S'i2'
p75
sg13
Nsg14
(lp76
(i__main__
Token
p77
(dp78
g18
I16
sbasg19
I16
sbasg7
g53
sg47
Nsba(i__main__
Chain
p79
(dp80
g3
(lp81
(i__main__
Mention
p82
(dp83
g7
S't3'
p84
sg9
Nsg10
S'i3'
p85
sg12
Nsg13
Nsg14
(lp86
(i__main__
Token
p87
(dp88
g18
I2
sbasg19
I2
sba(i__main__
Mention
p89
(dp90
g7
S't3'
p91
sg9
S'Coreference-Identity'
p92
sg10
S'i26'
p93
sg12
S'i3'
p94
sg13
Nsg14
(lp95
(i__main__
Token
p96
(dp97
g18
I128
sbasg19
I128
sba(i__main__
Mention
p98
(dp99
g7
S't3'
p100
sg9
S'Coreference-Identity'
p101
sg10
S'i35'
p102
sg12
S'i26'
p103
sg13
Nsg14
(lp104
(i__main__
Token
p105
(dp106
g18
I181
sbasg19
I181
sba(i__main__
Mention
p107
(dp108
g7
S't3'
p109
sg9
S'Coreference-Identity'
p110
sg10
S'i58'
p111
sg12
S'i35'
p112
sg13
Nsg14
(lp113
(i__main__
Token
p114
(dp115
g18
I281
sbasg19
I281
sba(i__main__
Mention
p116
(dp117
g7
S't3'
p118
sg9
S'Coreference-Identity'
p119
sg10
S'i63'
p120
sg12
S'i58'
p121
sg13
Nsg14
(lp122
(i__main__
Token
p123
(dp124
g18
I376
sbasg19
I376
sbasg7
g84
sg47
Nsba(i__main__
Chain
p125
(dp126
g3
(lp127
(i__main__
Mention
p128
(dp129
g7
S't4'
p130
sg9
Nsg10
S'i7'
p131
sg12
Nsg13
Nsg14
(lp132
(i__main__
Token
p133
(dp134
g18
I19
sbasg19
I19
sba(i__main__
Mention
p135
(dp136
g7
S't4'
p137
sg9
S'Coreference-Identity'
p138
sg10
S'i8'
p139
sg12
S'i7'
p140
sg13
Nsg14
(lp141
(i__main__
Token
p142
(dp143
g18
I32
sbasg19
I32
sba(i__main__
Mention
p144
(dp145
g7
S't4'
p146
sg9
S'Coreference-Identity'
p147
sg10
S'i37'
p148
sg12
S'i8'
p149
sg13
Nsg14
(lp150
(i__main__
Token
p151
(dp152
g18
I192
sbasg19
I192
sba(i__main__
Mention
p153
(dp154
g7
S't4'
p155
sg9
S'Coreference-InferedRelation'
p156
sg10
S'i42'
p157
sg12
S'i37'
p158
sg13
Nsg14
(lp159
(i__main__
Token
p160
(dp161
g18
I205
sbasg19
I205
sba(i__main__
Mention
p162
(dp163
g7
S't4'
p164
sg9
S'Coreference-InferedRelation'
p165
sg10
S'i47'
p166
sg12
S'i42'
p167
sg13
Nsg14
(lp168
(i__main__
Token
p169
(dp170
g18
I223
sbasg19
I223
sbasg7
g130
sg47
Nsba(i__main__
Chain
p171
(dp172
g3
(lp173
(i__main__
Mention
p174
(dp175
g7
S't5'
p176
sg9
Nsg10
S'i9'
p177
sg12
Nsg13
Nsg14
(lp178
(i__main__
Token
p179
(dp180
g18
I32
sba(i__main__
Token
p181
(dp182
g18
I33
sba(i__main__
Token
p183
(dp184
g18
I34
sba(i__main__
Token
p185
(dp186
g18
I35
sba(i__main__
Token
p187
(dp188
g18
I36
sba(i__main__
Token
p189
(dp190
g18
I37
sba(i__main__
Token
p191
(dp192
g18
I38
sba(i__main__
Token
p193
(dp194
g18
I39
sba(i__main__
Token
p195
(dp196
g18
I40
sba(i__main__
Token
p197
(dp198
g18
I41
sba(i__main__
Token
p199
(dp200
g18
I42
sba(i__main__
Token
p201
(dp202
g18
I43
sba(i__main__
Token
p203
(dp204
g18
I44
sba(i__main__
Token
p205
(dp206
g18
I45
sba(i__main__
Token
p207
(dp208
g18
I46
sbasg19
I46
sba(i__main__
Mention
p209
(dp210
g7
S't5'
p211
sg9
S'Coreference-Noun-Noun'
p212
sg10
S'i52'
p213
sg12
S'i53'
p214
sg13
Nsg14
(lp215
(i__main__
Token
p216
(dp217
g18
I249
sba(i__main__
Token
p218
(dp219
g18
I250
sba(i__main__
Token
p220
(dp221
g18
I251
sba(i__main__
Token
p222
(dp223
g18
I252
sba(i__main__
Token
p224
(dp225
g18
I253
sba(i__main__
Token
p226
(dp227
g18
I254
sba(i__main__
Token
p228
(dp229
g18
I255
sbasg19
I255
sba(i__main__
Mention
p230
(dp231
g7
S't5'
p232
sg9
S'Anaphora-C'
p233
sg10
S'i54'
p234
sg12
S'i52'
p235
sg13
Nsg14
(lp236
(i__main__
Token
p237
(dp238
g18
I256
sbasg19
I256
sbasg7
g176
sg47
Nsba(i__main__
Chain
p239
(dp240
g3
(lp241
(i__main__
Mention
p242
(dp243
g7
S't6'
p244
sg9
Nsg10
S'i10'
p245
sg12
Nsg13
Nsg14
(lp246
(i__main__
Token
p247
(dp248
g18
I48
sbasg19
I48
sba(i__main__
Mention
p249
(dp250
g7
S't6'
p251
sg9
S'Coreference-Identity'
p252
sg10
S'i57'
p253
sg12
S'i10'
p254
sg13
Nsg14
(lp255
(i__main__
Token
p256
(dp257
g18
I277
sbasg19
I277
sbasg7
g244
sg47
Nsba(i__main__
Chain
p258
(dp259
g3
(lp260
(i__main__
Mention
p261
(dp262
g7
S't7'
p263
sg9
Nsg10
S'i11'
p264
sg12
Nsg13
Nsg14
(lp265
(i__main__
Token
p266
(dp267
g18
I50
sba(i__main__
Token
p268
(dp269
g18
I51
sba(i__main__
Token
p270
(dp271
g18
I52
sbasg19
I52
sba(i__main__
Mention
p272
(dp273
g7
S't7'
p274
sg9
S'Coreference-NounComplement'
p275
sg10
S'i12'
p276
sg12
S'i11'
p277
sg13
Nsg14
(lp278
(i__main__
Token
p279
(dp280
g18
I53
sba(i__main__
Token
p281
(dp282
g18
I54
sbasg19
I54
sba(i__main__
Mention
p283
(dp284
g7
S't7'
p285
sg9
S'Coreference-Noun-Noun'
p286
sg10
S'i43'
p287
sg12
S'i12'
p288
sg13
Nsg14
(lp289
(i__main__
Token
p290
(dp291
g18
I205
sba(i__main__
Token
p292
(dp293
g18
I206
sba(i__main__
Token
p294
(dp295
g18
I207
sba(i__main__
Token
p296
(dp297
g18
I208
sba(i__main__
Token
p298
(dp299
g18
I209
sbasg19
I208
sba(i__main__
Mention
p300
(dp301
g7
S't7'
p302
sg9
S'Coreference-NounComplement'
p303
sg10
S'i44'
p304
sg12
S'i43'
p305
sg13
Nsg14
(lp306
(i__main__
Token
p307
(dp308
g18
I211
sba(i__main__
Token
p309
(dp310
g18
I212
sbasg19
I212
sba(i__main__
Mention
p311
(dp312
g7
S't7'
p313
sg9
S'Coreference-Identity'
p314
sg10
S'i55'
p315
sg12
S'i44'
p316
sg13
Nsg14
(lp317
(i__main__
Token
p318
(dp319
g18
I267
sba(i__main__
Token
p320
(dp321
g18
I268
sbasg19
I268
sba(i__main__
Mention
p322
(dp323
g7
S't7'
p324
sg9
S'Coreference-Identity'
p325
sg10
S'i70'
p326
sg12
S'i55'
p327
sg13
Nsg14
(lp328
(i__main__
Token
p329
(dp330
g18
I445
sba(i__main__
Token
p331
(dp332
g18
I446
sbasg19
I446
sbasg7
g263
sg47
Nsba(i__main__
Chain
p333
(dp334
g3
(lp335
(i__main__
Mention
p336
(dp337
g7
S't8'
p338
sg9
Nsg10
S'i13'
p339
sg12
Nsg13
Nsg14
(lp340
(i__main__
Token
p341
(dp342
g18
I60
sbasg19
I60
sba(i__main__
Mention
p343
(dp344
g7
S't8'
p345
sg9
S'Coreference-Identity'
p346
sg10
S'i46'
p347
sg12
S'i13'
p348
sg13
Nsg14
(lp349
(i__main__
Token
p350
(dp351
g18
I215
sbasg19
I215
sba(i__main__
Mention
p352
(dp353
g7
S't8'
p354
sg9
S'Coreference-Identity'
p355
sg10
S'i56'
p356
sg12
S'i46'
p357
sg13
Nsg14
(lp358
(i__main__
Token
p359
(dp360
g18
I271
sba(i__main__
Token
p361
(dp362
g18
I272
sbasg19
I272
sba(i__main__
Mention
p363
(dp364
g7
S't8'
p365
sg9
S'Coreference-Identity'
p366
sg10
S'i66'
p367
sg12
S'i56'
p368
sg13
Nsg14
(lp369
(i__main__
Token
p370
(dp371
g18
I428
sba(i__main__
Token
p372
(dp373
g18
I429
sbasg19
I429
sba(i__main__
Mention
p374
(dp375
g7
S't8'
p376
sg9
S'Coreference-Identity'
p377
sg10
S'i76'
p378
sg12
S'i19'
p379
sg13
Nsg14
(lp380
(i__main__
Token
p381
(dp382
g18
I461
sbasg19
I461
sbasg7
g338
sg47
Nsba(i__main__
Chain
p383
(dp384
g3
(lp385
(i__main__
Mention
p386
(dp387
g7
S't9'
p388
sg9
Nsg10
S'i15'
p389
sg12
Nsg13
Nsg14
(lp390
(i__main__
Token
p391
(dp392
g18
I71
sba(i__main__
Token
p393
(dp394
g18
I72
sbasg19
I72
sba(i__main__
Mention
p395
(dp396
g7
S't9'
p397
sg9
S'Coreference-Identity'
p398
sg10
S'i20'
p399
sg12
S'i15'
p400
sg13
Nsg14
(lp401
(i__main__
Token
p402
(dp403
g18
I100
sba(i__main__
Token
p404
(dp405
g18
I101
sbasg19
I101
sbasg7
g388
sg47
Nsba(i__main__
Chain
p406
(dp407
g3
(lp408
(i__main__
Mention
p409
(dp410
g7
S't10'
p411
sg9
Nsg10
S'i16'
p412
sg12
Nsg13
Nsg14
(lp413
(i__main__
Token
p414
(dp415
g18
I74
sbasg19
I74
sba(i__main__
Mention
p416
(dp417
g7
S't10'
p418
sg9
S'Coreference-Identity'
p419
sg10
S'i24'
p420
sg12
S'i16'
p421
sg13
Nsg14
(lp422
(i__main__
Token
p423
(dp424
g18
I126
sbasg19
I126
sba(i__main__
Mention
p425
(dp426
g7
S't10'
p427
sg9
S'Coreference-Identity'
p428
sg10
S'i30'
p429
sg12
S'i24'
p430
sg13
Nsg14
(lp431
(i__main__
Token
p432
(dp433
g18
I145
sbasg19
I145
sba(i__main__
Mention
p434
(dp435
g7
S't10'
p436
sg9
S'Coreference-Identity'
p437
sg10
S'i72'
p438
sg12
S'i30'
p439
sg13
Nsg14
(lp440
(i__main__
Token
p441
(dp442
g18
I448
sbasg19
I448
sbasg7
g411
sg47
Nsba(i__main__
Chain
p443
(dp444
g3
(lp445
(i__main__
Mention
p446
(dp447
g7
S't11'
p448
sg9
Nsg10
S'i17'
p449
sg12
Nsg13
Nsg14
(lp450
(i__main__
Token
p451
(dp452
g18
I87
sbasg19
I87
sba(i__main__
Mention
p453
(dp454
g7
S't11'
p455
sg9
S'Coreference-Identity'
p456
sg10
S'i65'
p457
sg12
S'i17'
p458
sg13
Nsg14
(lp459
(i__main__
Token
p460
(dp461
g18
I423
sbasg19
I423
sbasg7
g448
sg47
Nsba(i__main__
Chain
p462
(dp463
g3
(lp464
(i__main__
Mention
p465
(dp466
g7
S't12'
p467
sg9
Nsg10
S'i18'
p468
sg12
Nsg13
Nsg14
(lp469
(i__main__
Token
p470
(dp471
g18
I93
sba(i__main__
Token
p472
(dp473
g18
I94
sbasg19
I94
sba(i__main__
Mention
p474
(dp475
g7
S't12'
p476
sg9
S'Coreference-NounComplement'
p477
sg10
S'i19'
p478
sg12
S'i18'
p479
sg13
Nsg14
(lp480
(i__main__
Token
p481
(dp482
g18
I95
sba(i__main__
Token
p483
(dp484
g18
I96
sbasg19
I96
sba(i__main__
Mention
p485
(dp486
g7
S't12'
p487
sg9
S'Coreference-Noun-Noun'
p488
sg10
S'i36'
p489
sg12
S'i19'
p490
sg13
Nsg14
(lp491
(i__main__
Token
p492
(dp493
g18
I187
sba(i__main__
Token
p494
(dp495
g18
I188
sbasg19
I188
sba(i__main__
Mention
p496
(dp497
g7
S't12'
p498
sg9
S'Anaphora-C'
p499
sg10
S'i48'
p500
sg12
S'i36'
p501
sg13
Nsg14
(lp502
(i__main__
Token
p503
(dp504
g18
I229
sbasg19
I229
sba(i__main__
Mention
p505
(dp506
g7
S't12'
p507
sg9
S'Anaphora-C'
p508
sg10
S'i49'
p509
sg12
S'i48'
p510
sg13
Nsg14
(lp511
(i__main__
Token
p512
(dp513
g18
I237
sbasg19
I237
sba(i__main__
Mention
p514
(dp515
g7
S't12'
p516
sg9
S'Coreference-Noun-Noun'
p517
sg10
S'i51'
p518
sg12
S'i49'
p519
sg13
Nsg14
(lp520
(i__main__
Token
p521
(dp522
g18
I245
sbasg19
I245
sba(i__main__
Mention
p523
(dp524
g7
S't12'
p525
sg9
S'Coreference-Noun-Noun'
p526
sg10
S'i59'
p527
sg12
S'i51'
p528
sg13
Nsg14
(lp529
(i__main__
Token
p530
(dp531
g18
I293
sba(i__main__
Token
p532
(dp533
g18
I294
sbasg19
I294
sba(i__main__
Mention
p534
(dp535
g7
S't12'
p536
sg9
S'Anaphora-C'
p537
sg10
S'i60'
p538
sg12
S'i59'
p539
sg13
Nsg14
(lp540
(i__main__
Token
p541
(dp542
g18
I318
sbasg19
I318
sba(i__main__
Mention
p543
(dp544
g7
S't12'
p545
sg9
S'Coreference-Noun-Noun'
p546
sg10
S'i61'
p547
sg12
S'i60'
p548
sg13
Nsg14
(lp549
(i__main__
Token
p550
(dp551
g18
I345
sbasg19
I345
sba(i__main__
Mention
p552
(dp553
g7
S't12'
p554
sg9
S'Anaphora-C'
p555
sg10
S'i62'
p556
sg12
S'i61'
p557
sg13
Nsg14
(lp558
(i__main__
Token
p559
(dp560
g18
I373
sbasg19
I373
sba(i__main__
Mention
p561
(dp562
g7
S't12'
p563
sg9
S'Anaphora-C'
p564
sg10
S'i64'
p565
sg12
S'i62'
p566
sg13
Nsg14
(lp567
(i__main__
Token
p568
(dp569
g18
I406
sbasg19
I406
sba(i__main__
Mention
p570
(dp571
g7
S't12'
p572
sg9
S'Coreference-Identity'
p573
sg10
S'i67'
p574
sg12
S'i64'
p575
sg13
Nsg14
(lp576
(i__main__
Token
p577
(dp578
g18
I439
sbasg19
I439
sba(i__main__
Mention
p579
(dp580
g7
S't12'
p581
sg9
S'Anaphora-C'
p582
sg10
S'i68'
p583
sg12
S'i67'
p584
sg13
Nsg14
(lp585
(i__main__
Token
p586
(dp587
g18
I443
sbasg19
I443
sba(i__main__
Mention
p588
(dp589
g7
S't12'
p590
sg9
S'Anaphora-C'
p591
sg10
S'i69'
p592
sg12
S'i68'
p593
sg13
Nsg14
(lp594
(i__main__
Token
p595
(dp596
g18
I444
sbasg19
I444
sba(i__main__
Mention
p597
(dp598
g7
S't12'
p599
sg9
S'Anaphora-C'
p600
sg10
S'i73'
p601
sg12
S'i69'
p602
sg13
Nsg14
(lp603
(i__main__
Token
p604
(dp605
g18
I451
sbasg19
I451
sba(i__main__
Mention
p606
(dp607
g7
S't12'
p608
sg9
S'Anaphora-C'
p609
sg10
S'i74'
p610
sg12
S'i73'
p611
sg13
Nsg14
(lp612
(i__main__
Token
p613
(dp614
g18
I459
sbasg19
I459
sba(i__main__
Mention
p615
(dp616
g7
S't12'
p617
sg9
S'Anaphora-C'
p618
sg10
S'i75'
p619
sg12
S'i74'
p620
sg13
Nsg14
(lp621
(i__main__
Token
p622
(dp623
g18
I460
sbasg19
I460
sba(i__main__
Mention
p624
(dp625
g7
S't12'
p626
sg9
S'Anaphora-C'
p627
sg10
S'i79'
p628
sg12
S'i75'
p629
sg13
Nsg14
(lp630
(i__main__
Token
p631
(dp632
g18
I477
sbasg19
I477
sbasg7
g467
sg47
Nsba(i__main__
Chain
p633
(dp634
g3
(lp635
(i__main__
Mention
p636
(dp637
g7
S't13'
p638
sg9
Nsg10
S'i21'
p639
sg12
Nsg13
Nsg14
(lp640
(i__main__
Token
p641
(dp642
g18
I119
sbasg19
I119
sba(i__main__
Mention
p643
(dp644
g7
S't13'
p645
sg9
S'Anaphora-E'
p646
sg10
S'i23'
p647
sg12
S'i21'
p648
sg13
Nsg14
(lp649
(i__main__
Token
p650
(dp651
g18
I126
sba(i__main__
Token
p652
(dp653
g18
I127
sba(i__main__
Token
p654
(dp655
g18
I128
sba(i__main__
Token
p656
(dp657
g18
I129
sba(i__main__
Token
p658
(dp659
g18
I130
sba(i__main__
Token
p660
(dp661
g18
I131
sba(i__main__
Token
p662
(dp663
g18
I132
sba(i__main__
Token
p664
(dp665
g18
I133
sba(i__main__
Token
p666
(dp667
g18
I134
sba(i__main__
Token
p668
(dp669
g18
I135
sba(i__main__
Token
p670
(dp671
g18
I136
sba(i__main__
Token
p672
(dp673
g18
I137
sba(i__main__
Token
p674
(dp675
g18
I138
sba(i__main__
Token
p676
(dp677
g18
I139
sba(i__main__
Token
p678
(dp679
g18
I140
sba(i__main__
Token
p680
(dp681
g18
I141
sba(i__main__
Token
p682
(dp683
g18
I142
sbasg19
I140
sbasg7
g638
sg47
Nsba(i__main__
Chain
p684
(dp685
g3
(lp686
(i__main__
Mention
p687
(dp688
g7
S't14'
p689
sg9
Nsg10
S'i22'
p690
sg12
Nsg13
Nsg14
(lp691
(i__main__
Token
p692
(dp693
g18
I126
sba(i__main__
Token
p694
(dp695
g18
I127
sbasg19
I127
sba(i__main__
Mention
p696
(dp697
g7
S't14'
p698
sg9
S'Coreference-Identity'
p699
sg10
S'i71'
p700
sg12
S'i22'
p701
sg13
Nsg14
(lp702
(i__main__
Token
p703
(dp704
g18
I448
sba(i__main__
Token
p705
(dp706
g18
I449
sbasg19
I449
sbasg7
g689
sg47
Nsba(i__main__
Chain
p707
(dp708
g3
(lp709
(i__main__
Mention
p710
(dp711
g7
S't15'
p712
sg9
Nsg10
S'i25'
p713
sg12
Nsg13
Nsg14
(lp714
(i__main__
Token
p715
(dp716
g18
I128
sba(i__main__
Token
p717
(dp718
g18
I129
sba(i__main__
Token
p719
(dp720
g18
I130
sbasg19
I130
sba(i__main__
Mention
p721
(dp722
g7
S't15'
p723
sg9
S'Coreference-Abbreviation'
p724
sg10
S'i27'
p725
sg12
S'i25'
p726
sg13
Nsg14
(lp727
(i__main__
Token
p728
(dp729
g18
I132
sbasg19
I132
sba(i__main__
Mention
p730
(dp731
g7
S't15'
p732
sg9
S'Coreference-Identity'
p733
sg10
S'i33'
p734
sg12
S'i27'
p735
sg13
Nsg14
(lp736
(i__main__
Token
p737
(dp738
g18
I168
sbasg19
I168
sbasg7
g712
sg47
Nsba(i__main__
Chain
p739
(dp740
g3
(lp741
(i__main__
Mention
p742
(dp743
g7
S't16'
p744
sg9
Nsg10
S'i29'
p745
sg12
Nsg13
Nsg14
(lp746
(i__main__
Token
p747
(dp748
g18
I145
sba(i__main__
Token
p749
(dp750
g18
I146
sba(i__main__
Token
p751
(dp752
g18
I147
sba(i__main__
Token
p753
(dp754
g18
I148
sba(i__main__
Token
p755
(dp756
g18
I149
sba(i__main__
Token
p757
(dp758
g18
I150
sba(i__main__
Token
p759
(dp760
g18
I151
sba(i__main__
Token
p761
(dp762
g18
I152
sba(i__main__
Token
p763
(dp764
g18
I153
sba(i__main__
Token
p765
(dp766
g18
I154
sba(i__main__
Token
p767
(dp768
g18
I155
sba(i__main__
Token
p769
(dp770
g18
I156
sba(i__main__
Token
p771
(dp772
g18
I157
sbasg19
I157
sba(i__main__
Mention
p773
(dp774
g7
S't16'
p775
sg9
S'Anaphora-E'
p776
sg10
S'i31'
p777
sg12
S'i29'
p778
sg13
Nsg14
(lp779
(i__main__
Token
p780
(dp781
g18
I167
sbasg19
I167
sbasg7
g744
sg47
Nsba(i__main__
Chain
p782
(dp783
g3
(lp784
(i__main__
Mention
p785
(dp786
g7
S't17'
p787
sg9
Nsg10
S'i34'
p788
sg12
Nsg13
Nsg14
(lp789
(i__main__
Token
p790
(dp791
g18
I181
sba(i__main__
Token
p792
(dp793
g18
I182
sbasg19
I182
sba(i__main__
Mention
p794
(dp795
g7
S't17'
p796
sg9
S'Anaphora-C'
p797
sg10
S'i40'
p798
sg12
S'i34'
p799
sg13
Nsg14
(lp800
(i__main__
Token
p801
(dp802
g18
I204
sbasg19
I204
sba(i__main__
Mention
p803
(dp804
g7
S't17'
p805
sg9
S'Anaphora-C'
p806
sg10
S'i45'
p807
sg12
S'i40'
p808
sg13
Nsg14
(lp809
(i__main__
Token
p810
(dp811
g18
I214
sbasg19
I214
sbasg7
g787
sg47
Nsba(i__main__
Chain
p812
(dp813
g3
(lp814
(i__main__
Mention
p815
(dp816
g7
S't18'
p817
sg9
Nsg10
S'i38'
p818
sg12
Nsg13
Nsg14
(lp819
(i__main__
Token
p820
(dp821
g18
I195
sbasg19
I195
sba(i__main__
Mention
p822
(dp823
g7
S't18'
p824
sg9
S'Anaphora-RE'
p825
sg10
S'i41'
p826
sg12
S'i38'
p827
sg13
Nsg14
(lp828
(i__main__
Token
p829
(dp830
g18
I204
sba(i__main__
Token
p831
(dp832
g18
I205
sba(i__main__
Token
p833
(dp834
g18
I206
sba(i__main__
Token
p835
(dp836
g18
I207
sba(i__main__
Token
p837
(dp838
g18
I208
sba(i__main__
Token
p839
(dp840
g18
I209
sba(i__main__
Token
p841
(dp842
g18
I210
sba(i__main__
Token
p843
(dp844
g18
I211
sba(i__main__
Token
p845
(dp846
g18
I212
sba(i__main__
Token
p847
(dp848
g18
I213
sba(i__main__
Token
p849
(dp850
g18
I214
sba(i__main__
Token
p851
(dp852
g18
I215
sba(i__main__
Token
p853
(dp854
g18
I216
sba(i__main__
Token
p855
(dp856
g18
I217
sba(i__main__
Token
p857
(dp858
g18
I218
sbasg19
I217
sbasg7
g817
sg47
Nsba(i__main__
Chain
p859
(dp860
g3
(lp861
(i__main__
Mention
p862
(dp863
g7
S't19'
p864
sg9
S'anaphora-?'
p865
sg10
S'i39'
p866
sg12
S'i39'
p867
sg13
Nsg14
(lp868
(i__main__
Token
p869
(dp870
g18
I199
sbasg19
I199
sbasg7
g864
sg47
Nsba(i__main__
Chain
p871
(dp872
g3
(lp873
(i__main__
Mention
p874
(dp875
g7
S't20'
p876
sg9
S'anaphora-?'
p877
sg10
S'i50'
p878
sg12
S'i50'
p879
sg13
Nsg14
(lp880
(i__main__
Token
p881
(dp882
g18
I239
sbasg19
I239
sbasg7
g876
sg47
Nsba(i__main__
Chain
p883
(dp884
g3
(lp885
(i__main__
Mention
p886
(dp887
g7
S't21'
p888
sg9
S'anaphora-?'
p889
sg10
S'i78'
p890
sg12
S'i78'
p891
sg13
Nsg14
(lp892
(i__main__
Token
p893
(dp894
g18
I464
sbasg19
I464
sbasg7
g888
sg47
Nsba.