(lp0
(i__main__
Chain
p1
(dp2
S'mentionList'
p3
(lp4
(i__main__
Mention
p5
(dp6
S'chainId'
p7
S't1'
p8
sS'relType'
p9
NsS'mentionId'
p10
S'i1'
p11
sS'antecedentId'
p12
NsS'crefMod'
p13
NsS'tokenList'
p14
(lp15
(i__main__
Token
p16
(dp17
S'tokenId'
p18
I0
sba(i__main__
Token
p19
(dp20
g18
I1
sbasS'mentionHead'
p21
I1
sba(i__main__
Mention
p22
(dp23
g7
S't1'
p24
sg9
S'Coreference-RPartOf'
p25
sg10
S'i5'
p26
sg12
S'i1'
p27
sg13
Nsg14
(lp28
(i__main__
Token
p29
(dp30
g18
I16
sbasg21
I16
sba(i__main__
Mention
p31
(dp32
g7
S't1'
p33
sg9
S'Coreference-PartOf'
p34
sg10
S'i7'
p35
sg12
S'i5'
p36
sg13
Nsg14
(lp37
(i__main__
Token
p38
(dp39
g18
I30
sba(i__main__
Token
p40
(dp41
g18
I31
sba(i__main__
Token
p42
(dp43
g18
I32
sba(i__main__
Token
p44
(dp45
g18
I33
sba(i__main__
Token
p46
(dp47
g18
I34
sba(i__main__
Token
p48
(dp49
g18
I35
sba(i__main__
Token
p50
(dp51
g18
I36
sba(i__main__
Token
p52
(dp53
g18
I37
sba(i__main__
Token
p54
(dp55
g18
I38
sbasg21
I38
sba(i__main__
Mention
p56
(dp57
g7
S't1'
p58
sg9
S'Anaphora-C'
p59
sg10
S'i9'
p60
sg12
S'i7'
p61
sg13
Nsg14
(lp62
(i__main__
Token
p63
(dp64
g18
I42
sbasg21
I42
sba(i__main__
Mention
p65
(dp66
g7
S't1'
p67
sg9
S'Coreference-PartOf-WMain'
p68
sg10
S'i17'
p69
sg12
S'i9'
p70
sg13
Nsg14
(lp71
(i__main__
Token
p72
(dp73
g18
I125
sbasg21
I125
sba(i__main__
Mention
p74
(dp75
g7
S't1'
p76
sg9
S'Coreference-PartOf-WMain'
p77
sg10
S'i21'
p78
sg12
S'i17'
p79
sg13
Nsg14
(lp80
(i__main__
Token
p81
(dp82
g18
I150
sbasg21
I150
sba(i__main__
Mention
p83
(dp84
g7
S't1'
p85
sg9
S'Coreference-RPartOf'
p86
sg10
S'i27'
p87
sg12
S'i21'
p88
sg13
Nsg14
(lp89
(i__main__
Token
p90
(dp91
g18
I200
sbasg21
I200
sba(i__main__
Mention
p92
(dp93
g7
S't1'
p94
sg9
S'Coreference-PartOf'
p95
sg10
S'i28'
p96
sg12
S'i27'
p97
sg13
Nsg14
(lp98
(i__main__
Token
p99
(dp100
g18
I219
sbasg21
I219
sbasg7
g8
sS'chainHead'
p101
Nsba(i__main__
Chain
p102
(dp103
g3
(lp104
(i__main__
Mention
p105
(dp106
g7
S't2'
p107
sg9
Nsg10
S'i2'
p108
sg12
Nsg13
Nsg14
(lp109
(i__main__
Token
p110
(dp111
g18
I3
sbasg21
I3
sba(i__main__
Mention
p112
(dp113
g7
S't2'
p114
sg9
S'Anaphora-E'
p115
sg10
S'i3'
p116
sg12
S'i2'
p117
sg13
Nsg14
(lp118
(i__main__
Token
p119
(dp120
g18
I8
sba(i__main__
Token
p121
(dp122
g18
I9
sba(i__main__
Token
p123
(dp124
g18
I10
sba(i__main__
Token
p125
(dp126
g18
I11
sba(i__main__
Token
p127
(dp128
g18
I12
sba(i__main__
Token
p129
(dp130
g18
I13
sba(i__main__
Token
p131
(dp132
g18
I14
sbasg21
I14
sbasg7
g107
sg101
Nsba(i__main__
Chain
p133
(dp134
g3
(lp135
(i__main__
Mention
p136
(dp137
g7
S't3'
p138
sg9
Nsg10
S'i4'
p139
sg12
Nsg13
Nsg14
(lp140
(i__main__
Token
p141
(dp142
g18
I8
sba(i__main__
Token
p143
(dp144
g18
I9
sbasg21
I9
sba(i__main__
Mention
p145
(dp146
g7
S't3'
p147
sg9
S'Coreference-Identity'
p148
sg10
S'i8'
p149
sg12
S'i4'
p150
sg13
Nsg14
(lp151
(i__main__
Token
p152
(dp153
g18
I40
sbasg21
I40
sbasg7
g138
sg101
Nsba(i__main__
Chain
p154
(dp155
g3
(lp156
(i__main__
Mention
p157
(dp158
g7
S't4'
p159
sg9
Nsg10
S'i6'
p160
sg12
Nsg13
Nsg14
(lp161
(i__main__
Token
p162
(dp163
g18
I22
sba(i__main__
Token
p164
(dp165
g18
I23
sbasg21
I23
sba(i__main__
Mention
p166
(dp167
g7
S't4'
p168
sg9
S'Coreference-InferedRelation'
p169
sg10
S'i25'
p170
sg12
S'i6'
p171
sg13
Nsg14
(lp172
(i__main__
Token
p173
(dp174
g18
I182
sba(i__main__
Token
p175
(dp176
g18
I183
sbasg21
I183
sba(i__main__
Mention
p177
(dp178
g7
S't4'
p179
sg9
S'Coreference-InferedRelation'
p180
sg10
S'i40'
p181
sg12
S'i25'
p182
sg13
Nsg14
(lp183
(i__main__
Token
p184
(dp185
g18
I274
sba(i__main__
Token
p186
(dp187
g18
I275
sbasg21
I275
sbasg7
g159
sg101
Nsba(i__main__
Chain
p188
(dp189
g3
(lp190
(i__main__
Mention
p191
(dp192
g7
S't5'
p193
sg9
Nsg10
S'i10'
p194
sg12
Nsg13
Nsg14
(lp195
(i__main__
Token
p196
(dp197
g18
I45
sbasg21
I45
sba(i__main__
Mention
p198
(dp199
g7
S't5'
p200
sg9
S'Coreference-Identity'
p201
sg10
S'i26'
p202
sg12
S'i10'
p203
sg13
Nsg14
(lp204
(i__main__
Token
p205
(dp206
g18
I185
sbasg21
I185
sbasg7
g193
sg101
Nsba(i__main__
Chain
p207
(dp208
g3
(lp209
(i__main__
Mention
p210
(dp211
g7
S't6'
p212
sg9
Nsg10
S'i11'
p213
sg12
Nsg13
Nsg14
(lp214
(i__main__
Token
p215
(dp216
g18
I64
sba(i__main__
Token
p217
(dp218
g18
I65
sbasg21
I65
sba(i__main__
Mention
p219
(dp220
g7
S't6'
p221
sg9
S'Coreference-Noun-Noun'
p222
sg10
S'i41'
p223
sg12
S'i11'
p224
sg13
Nsg14
(lp225
(i__main__
Token
p226
(dp227
g18
I289
sba(i__main__
Token
p228
(dp229
g18
I290
sbasg21
I290
sbasg7
g212
sg101
Nsba(i__main__
Chain
p230
(dp231
g3
(lp232
(i__main__
Mention
p233
(dp234
g7
S't7'
p235
sg9
Nsg10
S'i12'
p236
sg12
Nsg13
Nsg14
(lp237
(i__main__
Token
p238
(dp239
g18
I88
sba(i__main__
Token
p240
(dp241
g18
I89
sbasg21
I89
sba(i__main__
Mention
p242
(dp243
g7
S't7'
p244
sg9
S'Coreference-Identity'
p245
sg10
S'i30'
p246
sg12
S'i12'
p247
sg13
Nsg14
(lp248
(i__main__
Token
p249
(dp250
g18
I230
sbasg21
I230
sba(i__main__
Mention
p251
(dp252
g7
S't7'
p253
sg9
S'Coreference-Identity'
p254
sg10
S'i37'
p255
sg12
S'i30'
p256
sg13
Nsg14
(lp257
(i__main__
Token
p258
(dp259
g18
I259
sbasg21
I259
sba(i__main__
Mention
p260
(dp261
g7
S't7'
p262
sg9
S'Anaphora-C'
p263
sg10
S'i38'
p264
sg12
S'i37'
p265
sg13
Nsg14
(lp266
(i__main__
Token
p267
(dp268
g18
I265
sbasg21
I265
sbasg7
g235
sg101
Nsba(i__main__
Chain
p269
(dp270
g3
(lp271
(i__main__
Mention
p272
(dp273
g7
S't8'
p274
sg9
Nsg10
S'i13'
p275
sg12
Nsg13
Nsg14
(lp276
(i__main__
Token
p277
(dp278
g18
I91
sbasg21
I91
sba(i__main__
Mention
p279
(dp280
g7
S't8'
p281
sg9
S'Coreference-Noun-Noun'
p282
sg10
S'i14'
p283
sg12
S'i13'
p284
sg13
Nsg14
(lp285
(i__main__
Token
p286
(dp287
g18
I96
sba(i__main__
Token
p288
(dp289
g18
I97
sbasg21
I97
sba(i__main__
Mention
p290
(dp291
g7
S't8'
p292
sg9
S'Coreference-Noun-Noun'
p293
sg10
S'i31'
p294
sg12
S'i14'
p295
sg13
Nsg14
(lp296
(i__main__
Token
p297
(dp298
g18
I232
sbasg21
I232
sba(i__main__
Mention
p299
(dp300
g7
S't8'
p301
sg9
S'Coreference-Identity'
p302
sg10
S'i39'
p303
sg12
S'i31'
p304
sg13
Nsg14
(lp305
(i__main__
Token
p306
(dp307
g18
I266
sbasg21
I266
sbasg7
g274
sg101
Nsba(i__main__
Chain
p308
(dp309
g3
(lp310
(i__main__
Mention
p311
(dp312
g7
S't9'
p313
sg9
Nsg10
S'i15'
p314
sg12
Nsg13
Nsg14
(lp315
(i__main__
Token
p316
(dp317
g18
I99
sba(i__main__
Token
p318
(dp319
g18
I100
sbasg21
Nsba(i__main__
Mention
p320
(dp321
g7
S't9'
p322
sg9
S'Coreference-PartOf'
p323
sg10
S'i32'
p324
sg12
S'i15'
p325
sg13
Nsg14
(lp326
(i__main__
Token
p327
(dp328
g18
I236
sba(i__main__
Token
p329
(dp330
g18
I237
sbasg21
I237
sba(i__main__
Mention
p331
(dp332
g7
S't9'
p333
sg9
Nsg10
S'i36'
p334
sg12
Nsg13
Nsg14
(lp335
(i__main__
Token
p336
(dp337
g18
I256
sba(i__main__
Token
p338
(dp339
g18
I257
sbasg21
Nsbasg7
g313
sg101
Nsba(i__main__
Chain
p340
(dp341
g3
(lp342
(i__main__
Mention
p343
(dp344
g7
S't10'
p345
sg9
Nsg10
S'i16'
p346
sg12
Nsg13
Nsg14
(lp347
(i__main__
Token
p348
(dp349
g18
I99
sba(i__main__
Token
p350
(dp351
g18
I100
sbasg21
Nsba(i__main__
Mention
p352
(dp353
g7
S't10'
p354
sg9
S'Coreference-PartOf'
p355
sg10
S'i33'
p356
sg12
S'i16'
p357
sg13
Nsg14
(lp358
(i__main__
Token
p359
(dp360
g18
I242
sba(i__main__
Token
p361
(dp362
g18
I243
sbasg21
I243
sba(i__main__
Mention
p363
(dp364
g7
S't10'
p365
sg9
Nsg10
S'i35'
p366
sg12
Nsg13
Nsg14
(lp367
(i__main__
Token
p368
(dp369
g18
I256
sba(i__main__
Token
p370
(dp371
g18
I257
sbasg21
Nsbasg7
g345
sg101
Nsba(i__main__
Chain
p372
(dp373
g3
(lp374
(i__main__
Mention
p375
(dp376
g7
S't11'
p377
sg9
S'anaphora-?'
p378
sg10
S'i18'
p379
sg12
S'i18'
p380
sg13
Nsg14
(lp381
(i__main__
Token
p382
(dp383
g18
I129
sbasg21
I129
sbasg7
g377
sg101
Nsba(i__main__
Chain
p384
(dp385
g3
(lp386
(i__main__
Mention
p387
(dp388
g7
S't12'
p389
sg9
Nsg10
S'i19'
p390
sg12
Nsg13
Nsg14
(lp391
(i__main__
Token
p392
(dp393
g18
I135
sbasg21
I135
sba(i__main__
Mention
p394
(dp395
g7
S't12'
p396
sg9
S'Anaphora-RT'
p397
sg10
S'i20'
p398
sg12
S'i19'
p399
sg13
Nsg14
(lp400
(i__main__
Token
p401
(dp402
g18
I136
sba(i__main__
Token
p403
(dp404
g18
I137
sba(i__main__
Token
p405
(dp406
g18
I138
sba(i__main__
Token
p407
(dp408
g18
I139
sba(i__main__
Token
p409
(dp410
g18
I140
sba(i__main__
Token
p411
(dp412
g18
I141
sba(i__main__
Token
p413
(dp414
g18
I142
sba(i__main__
Token
p415
(dp416
g18
I143
sba(i__main__
Token
p417
(dp418
g18
I144
sba(i__main__
Token
p419
(dp420
g18
I145
sba(i__main__
Token
p421
(dp422
g18
I146
sba(i__main__
Token
p423
(dp424
g18
I147
sba(i__main__
Token
p425
(dp426
g18
I148
sba(i__main__
Token
p427
(dp428
g18
I149
sba(i__main__
Token
p429
(dp430
g18
I150
sba(i__main__
Token
p431
(dp432
g18
I151
sba(i__main__
Token
p433
(dp434
g18
I152
sba(i__main__
Token
p435
(dp436
g18
I153
sba(i__main__
Token
p437
(dp438
g18
I154
sba(i__main__
Token
p439
(dp440
g18
I155
sba(i__main__
Token
p441
(dp442
g18
I156
sba(i__main__
Token
p443
(dp444
g18
I157
sba(i__main__
Token
p445
(dp446
g18
I158
sba(i__main__
Token
p447
(dp448
g18
I159
sba(i__main__
Token
p449
(dp450
g18
I160
sba(i__main__
Token
p451
(dp452
g18
I161
sba(i__main__
Token
p453
(dp454
g18
I162
sba(i__main__
Token
p455
(dp456
g18
I163
sba(i__main__
Token
p457
(dp458
g18
I164
sba(i__main__
Token
p459
(dp460
g18
I165
sba(i__main__
Token
p461
(dp462
g18
I166
sba(i__main__
Token
p463
(dp464
g18
I167
sba(i__main__
Token
p465
(dp466
g18
I168
sba(i__main__
Token
p467
(dp468
g18
I169
sba(i__main__
Token
p469
(dp470
g18
I170
sba(i__main__
Token
p471
(dp472
g18
I171
sba(i__main__
Token
p473
(dp474
g18
I172
sba(i__main__
Token
p475
(dp476
g18
I173
sba(i__main__
Token
p477
(dp478
g18
I174
sba(i__main__
Token
p479
(dp480
g18
I175
sba(i__main__
Token
p481
(dp482
g18
I176
sba(i__main__
Token
p483
(dp484
g18
I177
sba(i__main__
Token
p485
(dp486
g18
I178
sbasg21
I177
sbasg7
g389
sg101
Nsba(i__main__
Chain
p487
(dp488
g3
(lp489
(i__main__
Mention
p490
(dp491
g7
S't13'
p492
sg9
S'anaphora-?'
p493
sg10
S'i22'
p494
sg12
S'i22'
p495
sg13
Nsg14
(lp496
(i__main__
Token
p497
(dp498
g18
I179
sbasg21
I179
sbasg7
g492
sg101
Nsba(i__main__
Chain
p499
(dp500
g3
(lp501
(i__main__
Mention
p502
(dp503
g7
S't14'
p504
sg9
S'anaphora-E'
p505
sg10
S'i23'
p506
sg12
S'i24'
p507
sg13
Nsg14
(lp508
(i__main__
Token
p509
(dp510
g18
I180
sbasg21
I180
sbasg7
g504
sg101
Nsba(i__main__
Chain
p511
(dp512
g3
(lp513
(i__main__
Mention
p514
(dp515
g7
S't15'
p516
sg9
Nsg10
S'i29'
p517
sg12
Nsg13
Nsg14
(lp518
(i__main__
Token
p519
(dp520
g18
I225
sba(i__main__
Token
p521
(dp522
g18
I226
sbasg21
I226
sba(i__main__
Mention
p523
(dp524
g7
S't15'
p525
sg9
S'Anaphora-C'
p526
sg10
S'i34'
p527
sg12
S'i29'
p528
sg13
Nsg14
(lp529
(i__main__
Token
p530
(dp531
g18
I253
sbasg21
I253
sbasg7
g516
sg101
Nsba.