(lp0
(i__main__
Chain
p1
(dp2
S'mentionList'
p3
(lp4
(i__main__
Mention
p5
(dp6
S'chainId'
p7
S't1'
p8
sS'relType'
p9
NsS'mentionId'
p10
S'i1'
p11
sS'antecedentId'
p12
NsS'crefMod'
p13
NsS'tokenList'
p14
(lp15
(i__main__
Token
p16
(dp17
S'tokenId'
p18
I0
sba(i__main__
Token
p19
(dp20
g18
I1
sbasS'mentionHead'
p21
I1
sba(i__main__
Mention
p22
(dp23
g7
S't1'
p24
sg9
S'Coreference-NounComplement'
p25
sg10
S'i2'
p26
sg12
S'i1'
p27
sg13
Nsg14
(lp28
(i__main__
Token
p29
(dp30
g18
I2
sba(i__main__
Token
p31
(dp32
g18
I3
sba(i__main__
Token
p33
(dp34
g18
I4
sbasg21
I4
sba(i__main__
Mention
p35
(dp36
g7
S't1'
p37
sg9
S'Coreference-Identity'
p38
sg10
S'i8'
p39
sg12
S'i2'
p40
sg13
Nsg14
(lp41
(i__main__
Token
p42
(dp43
g18
I37
sbasg21
I37
sba(i__main__
Mention
p44
(dp45
g7
S't1'
p46
sg9
S'Anaphora-C'
p47
sg10
S'i10'
p48
sg12
S'i8'
p49
sg13
Nsg14
(lp50
(i__main__
Token
p51
(dp52
g18
I49
sbasg21
I49
sba(i__main__
Mention
p53
(dp54
g7
S't1'
p55
sg9
S'Coreference-Identity'
p56
sg10
S'i14'
p57
sg12
S'i10'
p58
sg13
Nsg14
(lp59
(i__main__
Token
p60
(dp61
g18
I83
sbasg21
I83
sba(i__main__
Mention
p62
(dp63
g7
S't1'
p64
sg9
S'Coreference-Identity'
p65
sg10
S'i16'
p66
sg12
S'i14'
p67
sg13
Nsg14
(lp68
(i__main__
Token
p69
(dp70
g18
I100
sbasg21
I100
sba(i__main__
Mention
p71
(dp72
g7
S't1'
p73
sg9
S'Coreference-Identity'
p74
sg10
S'i24'
p75
sg12
S'i16'
p76
sg13
Nsg14
(lp77
(i__main__
Token
p78
(dp79
g18
I143
sbasg21
I143
sbasg7
g8
sS'chainHead'
p80
Nsba(i__main__
Chain
p81
(dp82
g3
(lp83
(i__main__
Mention
p84
(dp85
g7
S't2'
p86
sg9
Nsg10
S'i3'
p87
sg12
Nsg13
Nsg14
(lp88
(i__main__
Token
p89
(dp90
g18
I6
sbasg21
I6
sba(i__main__
Mention
p91
(dp92
g7
S't2'
p93
sg9
S'Coreference-Identity'
p94
sg10
S'i19'
p95
sg12
S'i3'
p96
sg13
Nsg14
(lp97
(i__main__
Token
p98
(dp99
g18
I126
sbasg21
I126
sbasg7
g86
sg80
Nsba(i__main__
Chain
p100
(dp101
g3
(lp102
(i__main__
Mention
p103
(dp104
g7
S't3'
p105
sg9
Nsg10
S'i4'
p106
sg12
Nsg13
Nsg14
(lp107
(i__main__
Token
p108
(dp109
g18
I11
sbasg21
I11
sba(i__main__
Mention
p110
(dp111
g7
S't3'
p112
sg9
S'Coreference-Identity'
p113
sg10
S'i20'
p114
sg12
S'i4'
p115
sg13
Nsg14
(lp116
(i__main__
Token
p117
(dp118
g18
I130
sbasg21
I130
sba(i__main__
Mention
p119
(dp120
g7
S't3'
p121
sg9
S'Coreference-Identity'
p122
sg10
S'i26'
p123
sg12
S'i20'
p124
sg13
Nsg14
(lp125
(i__main__
Token
p126
(dp127
g18
I154
sba(i__main__
Token
p128
(dp129
g18
I155
sbasg21
I155
sbasg7
g105
sg80
Nsba(i__main__
Chain
p130
(dp131
g3
(lp132
(i__main__
Mention
p133
(dp134
g7
S't4'
p135
sg9
Nsg10
S'i5'
p136
sg12
Nsg13
Nsg14
(lp137
(i__main__
Token
p138
(dp139
g18
I20
sba(i__main__
Token
p140
(dp141
g18
I21
sba(i__main__
Token
p142
(dp143
g18
I22
sbasg21
I22
sba(i__main__
Mention
p144
(dp145
g7
S't4'
p146
sg9
S'Coreference-Identity'
p147
sg10
S'i11'
p148
sg12
S'i5'
p149
sg13
Nsg14
(lp150
(i__main__
Token
p151
(dp152
g18
I50
sba(i__main__
Token
p153
(dp154
g18
I51
sba(i__main__
Token
p155
(dp156
g18
I52
sbasg21
I52
sbasg7
g135
sg80
Nsba(i__main__
Chain
p157
(dp158
g3
(lp159
(i__main__
Mention
p160
(dp161
g7
S't5'
p162
sg9
S'anaphora-?'
p163
sg10
S'i6'
p164
sg12
S'i6'
p165
sg13
Nsg14
(lp166
(i__main__
Token
p167
(dp168
g18
I28
sbasg21
I28
sbasg7
g162
sg80
Nsba(i__main__
Chain
p169
(dp170
g3
(lp171
(i__main__
Mention
p172
(dp173
g7
S't6'
p174
sg9
Nsg10
S'i7'
p175
sg12
Nsg13
Nsg14
(lp176
(i__main__
Token
p177
(dp178
g18
I32
sbasg21
I32
sba(i__main__
Mention
p179
(dp180
g7
S't6'
p181
sg9
S'Coreference-Identity'
p182
sg10
S'i9'
p183
sg12
S'i7'
p184
sg13
Nsg14
(lp185
(i__main__
Token
p186
(dp187
g18
I42
sba(i__main__
Token
p188
(dp189
g18
I43
sba(i__main__
Token
p190
(dp191
g18
I44
sbasg21
I44
sbasg7
g174
sg80
Nsba(i__main__
Chain
p192
(dp193
g3
(lp194
(i__main__
Mention
p195
(dp196
g7
S't7'
p197
sg9
Nsg10
S'i12'
p198
sg12
Nsg13
Nsg14
(lp199
(i__main__
Token
p200
(dp201
g18
I70
sba(i__main__
Token
p202
(dp203
g18
I71
sbasg21
I71
sba(i__main__
Mention
p204
(dp205
g7
S't7'
p206
sg9
S'Anaphora-C'
p207
sg10
S'i13'
p208
sg12
S'i12'
p209
sg13
Nsg14
(lp210
(i__main__
Token
p211
(dp212
g18
I73
sbasg21
I73
sba(i__main__
Mention
p213
(dp214
g7
S't7'
p215
sg9
S'Coreference-Identity'
p216
sg10
S'i22'
p217
sg12
S'i13'
p218
sg13
Nsg14
(lp219
(i__main__
Token
p220
(dp221
g18
I134
sba(i__main__
Token
p222
(dp223
g18
I135
sbasg21
I135
sba(i__main__
Mention
p224
(dp225
g7
S't7'
p226
sg9
S'Anaphora-C'
p227
sg10
S'i23'
p228
sg12
S'i22'
p229
sg13
Nsg14
(lp230
(i__main__
Token
p231
(dp232
g18
I140
sbasg21
I140
sbasg7
g197
sg80
Nsba(i__main__
Chain
p233
(dp234
g3
(lp235
(i__main__
Mention
p236
(dp237
g7
S't8'
p238
sg9
Nsg10
S'i15'
p239
sg12
Nsg13
Nsg14
(lp240
(i__main__
Token
p241
(dp242
g18
I94
sbasg21
I94
sba(i__main__
Mention
p243
(dp244
g7
S't8'
p245
sg9
S'Anaphora-C'
p246
sg10
S'i17'
p247
sg12
S'i15'
p248
sg13
Nsg14
(lp249
(i__main__
Token
p250
(dp251
g18
I105
sbasg21
I105
sba(i__main__
Mention
p252
(dp253
g7
S't8'
p254
sg9
S'Coreference-Identity'
p255
sg10
S'i25'
p256
sg12
S'i17'
p257
sg13
Nsg14
(lp258
(i__main__
Token
p259
(dp260
g18
I152
sbasg21
I152
sbasg7
g238
sg80
Nsba(i__main__
Chain
p261
(dp262
g3
(lp263
(i__main__
Mention
p264
(dp265
g7
S't9'
p266
sg9
S'anaphora-?'
p267
sg10
S'i18'
p268
sg12
S'i18'
p269
sg13
Nsg14
(lp270
(i__main__
Token
p271
(dp272
g18
I106
sbasg21
I106
sbasg7
g266
sg80
Nsba(i__main__
Chain
p273
(dp274
g3
(lp275
(i__main__
Mention
p276
(dp277
g7
S't10'
p278
sg9
Nsg10
S'i21'
p279
sg12
Nsg13
Nsg14
(lp280
(i__main__
Token
p281
(dp282
g18
I132
sbasg21
I132
sba(i__main__
Mention
p283
(dp284
g7
S't10'
p285
sg9
S'Coreference-Identity'
p286
sg10
S'i27'
p287
sg12
S'i21'
p288
sg13
Nsg14
(lp289
(i__main__
Token
p290
(dp291
g18
I157
sbasg21
I157
sbasg7
g278
sg80
Nsba.