(lp0
(i__main__
Chain
p1
(dp2
S'mentionList'
p3
(lp4
(i__main__
Mention
p5
(dp6
S'chainId'
p7
S't1'
p8
sS'relType'
p9
NsS'mentionId'
p10
S'i1'
p11
sS'antecedentId'
p12
NsS'crefMod'
p13
NsS'tokenList'
p14
(lp15
(i__main__
Token
p16
(dp17
S'tokenId'
p18
I9
sba(i__main__
Token
p19
(dp20
g18
I10
sba(i__main__
Token
p21
(dp22
g18
I11
sbasS'mentionHead'
p23
I11
sba(i__main__
Mention
p24
(dp25
g7
S't1'
p26
sg9
S'Coreference-Identity'
p27
sg10
S'i13'
p28
sg12
S'i1'
p29
sg13
Nsg14
(lp30
(i__main__
Token
p31
(dp32
g18
I56
sba(i__main__
Token
p33
(dp34
g18
I57
sba(i__main__
Token
p35
(dp36
g18
I58
sba(i__main__
Token
p37
(dp38
g18
I59
sba(i__main__
Token
p39
(dp40
g18
I60
sba(i__main__
Token
p41
(dp42
g18
I61
sba(i__main__
Token
p43
(dp44
g18
I62
sba(i__main__
Token
p45
(dp46
g18
I63
sba(i__main__
Token
p47
(dp48
g18
I64
sbasg23
I64
sba(i__main__
Mention
p49
(dp50
g7
S't1'
p51
sg9
S'Coreference-Identity'
p52
sg10
S'i32'
p53
sg12
S'i13'
p54
sg13
Nsg14
(lp55
(i__main__
Token
p56
(dp57
g18
I264
sbasg23
I264
sba(i__main__
Mention
p58
(dp59
g7
S't1'
p60
sg9
S'Coreference-Identity'
p61
sg10
S'i35'
p62
sg12
S'i32'
p63
sg13
Nsg14
(lp64
(i__main__
Token
p65
(dp66
g18
I287
sba(i__main__
Token
p67
(dp68
g18
I288
sba(i__main__
Token
p69
(dp70
g18
I289
sbasg23
I289
sbasg7
g8
sS'chainHead'
p71
Nsba(i__main__
Chain
p72
(dp73
g3
(lp74
(i__main__
Mention
p75
(dp76
g7
S't2'
p77
sg9
Nsg10
S'i2'
p78
sg12
Nsg13
Nsg14
(lp79
(i__main__
Token
p80
(dp81
g18
I20
sbasg23
I20
sba(i__main__
Mention
p82
(dp83
g7
S't2'
p84
sg9
S'Coreference-Identity'
p85
sg10
S'i28'
p86
sg12
S'i2'
p87
sg13
Nsg14
(lp88
(i__main__
Token
p89
(dp90
g18
I231
sbasg23
I231
sbasg7
g77
sg71
Nsba(i__main__
Chain
p91
(dp92
g3
(lp93
(i__main__
Mention
p94
(dp95
g7
S't3'
p96
sg9
Nsg10
S'i3'
p97
sg12
Nsg13
Nsg14
(lp98
(i__main__
Token
p99
(dp100
g18
I26
sba(i__main__
Token
p101
(dp102
g18
I27
sba(i__main__
Token
p103
(dp104
g18
I28
sba(i__main__
Token
p105
(dp106
g18
I29
sba(i__main__
Token
p107
(dp108
g18
I30
sba(i__main__
Token
p109
(dp110
g18
I31
sba(i__main__
Token
p111
(dp112
g18
I32
sbasg23
I32
sba(i__main__
Mention
p113
(dp114
g7
S't3'
p115
sg9
S'Anaphora-E'
p116
sg10
S'i6'
p117
sg12
S'i3'
p118
sg13
Nsg14
(lp119
(i__main__
Token
p120
(dp121
g18
I34
sbasg23
I34
sba(i__main__
Mention
p122
(dp123
g7
S't3'
p124
sg9
S'Coreference-Identity'
p125
sg10
S'i14'
p126
sg12
S'i6'
p127
sg13
Nsg14
(lp128
(i__main__
Token
p129
(dp130
g18
I67
sba(i__main__
Token
p131
(dp132
g18
I68
sba(i__main__
Token
p133
(dp134
g18
I69
sba(i__main__
Token
p135
(dp136
g18
I70
sba(i__main__
Token
p137
(dp138
g18
I71
sba(i__main__
Token
p139
(dp140
g18
I72
sba(i__main__
Token
p141
(dp142
g18
I73
sbasg23
I73
sba(i__main__
Mention
p143
(dp144
g7
S't3'
p145
sg9
S'Anaphora-E'
p146
sg10
S'i17'
p147
sg12
S'i14'
p148
sg13
Nsg14
(lp149
(i__main__
Token
p150
(dp151
g18
I75
sbasg23
I75
sbasg7
g96
sg71
Nsba(i__main__
Chain
p152
(dp153
g3
(lp154
(i__main__
Mention
p155
(dp156
g7
S't4'
p157
sg9
Nsg10
S'i4'
p158
sg12
Nsg13
Nsg14
(lp159
(i__main__
Token
p160
(dp161
g18
I29
sba(i__main__
Token
p162
(dp163
g18
I30
sbasg23
Nsba(i__main__
Mention
p164
(dp165
g7
S't4'
p166
sg9
Nsg10
S'i15'
p167
sg12
Nsg13
Nsg14
(lp168
(i__main__
Token
p169
(dp170
g18
I70
sba(i__main__
Token
p171
(dp172
g18
I71
sbasg23
Nsba(i__main__
Mention
p173
(dp174
g7
S't4'
p175
sg9
Nsg10
S'i30'
p176
sg12
Nsg13
Nsg14
(lp177
(i__main__
Token
p178
(dp179
g18
I260
sba(i__main__
Token
p180
(dp181
g18
I261
sbasg23
Nsbasg7
g157
sg71
Nsba(i__main__
Chain
p182
(dp183
g3
(lp184
(i__main__
Mention
p185
(dp186
g7
S't5'
p187
sg9
Nsg10
S'i5'
p188
sg12
Nsg13
Nsg14
(lp189
(i__main__
Token
p190
(dp191
g18
I30
sbasg23
Nsba(i__main__
Mention
p192
(dp193
g7
S't5'
p194
sg9
Nsg10
S'i16'
p195
sg12
Nsg13
Nsg14
(lp196
(i__main__
Token
p197
(dp198
g18
I71
sbasg23
Nsba(i__main__
Mention
p199
(dp200
g7
S't5'
p201
sg9
S'Coreference-Identity'
p202
sg10
S'i24'
p203
sg12
S'i16'
p204
sg13
Nsg14
(lp205
(i__main__
Token
p206
(dp207
g18
I96
sbasg23
I96
sba(i__main__
Mention
p208
(dp209
g7
S't5'
p210
sg9
S'Coreference-Identity'
p211
sg10
S'i25'
p212
sg12
S'i24'
p213
sg13
Nsg14
(lp214
(i__main__
Token
p215
(dp216
g18
I132
sbasg23
I132
sba(i__main__
Mention
p217
(dp218
g7
S't5'
p219
sg9
Nsg10
S'i31'
p220
sg12
Nsg13
Nsg14
(lp221
(i__main__
Token
p222
(dp223
g18
I261
sbasg23
Nsbasg7
g187
sg71
Nsba(i__main__
Chain
p224
(dp225
g3
(lp226
(i__main__
Mention
p227
(dp228
g7
S't6'
p229
sg9
Nsg10
S'i8'
p230
sg12
Nsg13
Nsg14
(lp231
(i__main__
Token
p232
(dp233
g18
I35
sbasg23
I35
sba(i__main__
Mention
p234
(dp235
g7
S't6'
p236
sg9
S'Coreference-Identity'
p237
sg10
S'i21'
p238
sg12
S'i8'
p239
sg13
Nsg14
(lp240
(i__main__
Token
p241
(dp242
g18
I78
sbasg23
I78
sbasg7
g229
sg71
Nsba(i__main__
Chain
p243
(dp244
g3
(lp245
(i__main__
Mention
p246
(dp247
g7
S't7'
p248
sg9
Nsg10
S'i9'
p249
sg12
Nsg13
Nsg14
(lp250
(i__main__
Token
p251
(dp252
g18
I35
sba(i__main__
Token
p253
(dp254
g18
I36
sba(i__main__
Token
p255
(dp256
g18
I37
sba(i__main__
Token
p257
(dp258
g18
I38
sba(i__main__
Token
p259
(dp260
g18
I39
sba(i__main__
Token
p261
(dp262
g18
I40
sbasg23
Nsba(i__main__
Mention
p263
(dp264
g7
S't7'
p265
sg9
Nsg10
S'i19'
p266
sg12
Nsg13
Nsg14
(lp267
(i__main__
Token
p268
(dp269
g18
I76
sbasg23
Nsbasg7
g248
sg71
Nsba(i__main__
Chain
p270
(dp271
g3
(lp272
(i__main__
Mention
p273
(dp274
g7
S't8'
p275
sg9
Nsg10
S'i10'
p276
sg12
Nsg13
Nsg14
(lp277
(i__main__
Token
p278
(dp279
g18
I40
sbasg23
Nsba(i__main__
Mention
p280
(dp281
g7
S't8'
p282
sg9
Nsg10
S'i20'
p283
sg12
Nsg13
Nsg14
(lp284
(i__main__
Token
p285
(dp286
g18
I76
sbasg23
Nsba(i__main__
Mention
p287
(dp288
g7
S't8'
p289
sg9
S'Coreference-Identity'
p290
sg10
S'i29'
p291
sg12
S'i20'
p292
sg13
Nsg14
(lp293
(i__main__
Token
p294
(dp295
g18
I252
sbasg23
I252
sbasg7
g275
sg71
Nsba(i__main__
Chain
p296
(dp297
g3
(lp298
(i__main__
Mention
p299
(dp300
g7
S't9'
p301
sg9
Nsg10
S'i11'
p302
sg12
Nsg13
Nsg14
(lp303
(i__main__
Token
p304
(dp305
g18
I42
sba(i__main__
Token
p306
(dp307
g18
I43
sbasg23
I43
sba(i__main__
Mention
p308
(dp309
g7
S't9'
p310
sg9
S'Coreference-Identity'
p311
sg10
S'i22'
p312
sg12
S'i11'
p313
sg13
Nsg14
(lp314
(i__main__
Token
p315
(dp316
g18
I80
sba(i__main__
Token
p317
(dp318
g18
I81
sbasg23
I81
sbasg7
g301
sg71
Nsba(i__main__
Chain
p319
(dp320
g3
(lp321
(i__main__
Mention
p322
(dp323
g7
S't10'
p324
sg9
Nsg10
S'i12'
p325
sg12
Nsg13
Nsg14
(lp326
(i__main__
Token
p327
(dp328
g18
I51
sbasg23
I51
sba(i__main__
Mention
p329
(dp330
g7
S't10'
p331
sg9
S'Coreference-Identity'
p332
sg10
S'i33'
p333
sg12
S'i12'
p334
sg13
Nsg14
(lp335
(i__main__
Token
p336
(dp337
g18
I280
sbasg23
I280
sba(i__main__
Mention
p338
(dp339
g7
S't10'
p340
sg9
S'Anaphora-C'
p341
sg10
S'i34'
p342
sg12
S'i33'
p343
sg13
Nsg14
(lp344
(i__main__
Token
p345
(dp346
g18
I282
sbasg23
I282
sbasg7
g324
sg71
Nsba(i__main__
Chain
p347
(dp348
g3
(lp349
(i__main__
Mention
p350
(dp351
g7
S't11'
p352
sg9
Nsg10
S'i23'
p353
sg12
Nsg13
Nsg14
(lp354
(i__main__
Token
p355
(dp356
g18
I91
sbasg23
I91
sba(i__main__
Mention
p357
(dp358
g7
S't11'
p359
sg9
S'Coreference-Identity'
p360
sg10
S'i26'
p361
sg12
S'i23'
p362
sg13
Nsg14
(lp363
(i__main__
Token
p364
(dp365
g18
I193
sbasg23
I193
sbasg7
g352
sg71
Nsba(i__main__
Chain
p366
(dp367
g3
(lp368
(i__main__
Mention
p369
(dp370
g7
S't12'
p371
sg9
S'anaphora-?'
p372
sg10
S'i27'
p373
sg12
S'i27'
p374
sg13
Nsg14
(lp375
(i__main__
Token
p376
(dp377
g18
I208
sbasg23
I208
sbasg7
g371
sg71
Nsba.