(lp0
(i__main__
Chain
p1
(dp2
S'mentionList'
p3
(lp4
(i__main__
Mention
p5
(dp6
S'chainId'
p7
S't1'
p8
sS'relType'
p9
NsS'mentionId'
p10
S'i1'
p11
sS'antecedentId'
p12
NsS'crefMod'
p13
NsS'tokenList'
p14
(lp15
(i__main__
Token
p16
(dp17
S'tokenId'
p18
I0
sbasS'mentionHead'
p19
I0
sba(i__main__
Mention
p20
(dp21
g7
S't1'
p22
sg9
S'Coreference-Identity'
p23
sg10
S'i20'
p24
sg12
S'i1'
p25
sg13
Nsg14
(lp26
(i__main__
Token
p27
(dp28
g18
I97
sbasg19
I97
sba(i__main__
Mention
p29
(dp30
g7
S't1'
p31
sg9
S'Coreference-Identity'
p32
sg10
S'i52'
p33
sg12
S'i20'
p34
sg13
Nsg14
(lp35
(i__main__
Token
p36
(dp37
g18
I234
sbasg19
I234
sba(i__main__
Mention
p38
(dp39
g7
S't1'
p40
sg9
S'Coreference-Identity'
p41
sg10
S'i63'
p42
sg12
S'i52'
p43
sg13
Nsg14
(lp44
(i__main__
Token
p45
(dp46
g18
I283
sbasg19
I283
sbasg7
g8
sS'chainHead'
p47
Nsba(i__main__
Chain
p48
(dp49
g3
(lp50
(i__main__
Mention
p51
(dp52
g7
S't2'
p53
sg9
Nsg10
S'i2'
p54
sg12
Nsg13
Nsg14
(lp55
(i__main__
Token
p56
(dp57
g18
I0
sba(i__main__
Token
p58
(dp59
g18
I1
sbasg19
I1
sba(i__main__
Mention
p60
(dp61
g7
S't2'
p62
sg9
S'Coreference-Identity'
p63
sg10
S'i10'
p64
sg12
S'i2'
p65
sg13
Nsg14
(lp66
(i__main__
Token
p67
(dp68
g18
I39
sbasg19
I39
sba(i__main__
Mention
p69
(dp70
g7
S't2'
p71
sg9
S'Coreference-Identity'
p72
sg10
S'i21'
p73
sg12
S'i10'
p74
sg13
Nsg14
(lp75
(i__main__
Token
p76
(dp77
g18
I97
sba(i__main__
Token
p78
(dp79
g18
I98
sbasg19
I98
sba(i__main__
Mention
p80
(dp81
g7
S't2'
p82
sg9
S'Coreference-Identity'
p83
sg10
S'i30'
p84
sg12
S'i21'
p85
sg13
Nsg14
(lp86
(i__main__
Token
p87
(dp88
g18
I138
sbasg19
I138
sba(i__main__
Mention
p89
(dp90
g7
S't2'
p91
sg9
S'Coreference-Identity'
p92
sg10
S'i54'
p93
sg12
S'i30'
p94
sg13
Nsg14
(lp95
(i__main__
Token
p96
(dp97
g18
I234
sba(i__main__
Token
p98
(dp99
g18
I235
sbasg19
I235
sba(i__main__
Mention
p100
(dp101
g7
S't2'
p102
sg9
S'Coreference-Identity'
p103
sg10
S'i62'
p104
sg12
S'i54'
p105
sg13
Nsg14
(lp106
(i__main__
Token
p107
(dp108
g18
I280
sbasg19
I280
sba(i__main__
Mention
p109
(dp110
g7
S't2'
p111
sg9
S'Coreference-Identity'
p112
sg10
S'i65'
p113
sg12
S'i62'
p114
sg13
Nsg14
(lp115
(i__main__
Token
p116
(dp117
g18
I299
sbasg19
I299
sba(i__main__
Mention
p118
(dp119
g7
S't2'
p120
sg9
S'Coreference-Identity'
p121
sg10
S'i72'
p122
sg12
S'i65'
p123
sg13
Nsg14
(lp124
(i__main__
Token
p125
(dp126
g18
I363
sbasg19
I363
sbasg7
g53
sg47
Nsba(i__main__
Chain
p127
(dp128
g3
(lp129
(i__main__
Mention
p130
(dp131
g7
S't3'
p132
sg9
Nsg10
S'i3'
p133
sg12
Nsg13
Nsg14
(lp134
(i__main__
Token
p135
(dp136
g18
I4
sbasg19
I4
sba(i__main__
Mention
p137
(dp138
g7
S't3'
p139
sg9
S'Coreference-Identity'
p140
sg10
S'i9'
p141
sg12
S'i3'
p142
sg13
Nsg14
(lp143
(i__main__
Token
p144
(dp145
g18
I39
sba(i__main__
Token
p146
(dp147
g18
I40
sbasg19
I40
sba(i__main__
Mention
p148
(dp149
g7
S't3'
p150
sg9
S'Coreference-Identity'
p151
sg10
S'i29'
p152
sg12
S'i9'
p153
sg13
Nsg14
(lp154
(i__main__
Token
p155
(dp156
g18
I138
sba(i__main__
Token
p157
(dp158
g18
I139
sbasg19
I139
sba(i__main__
Mention
p159
(dp160
g7
S't3'
p161
sg9
S'Coreference-Identity'
p162
sg10
S'i53'
p163
sg12
S'i29'
p164
sg13
Nsg14
(lp165
(i__main__
Token
p166
(dp167
g18
I234
sba(i__main__
Token
p168
(dp169
g18
I235
sba(i__main__
Token
p170
(dp171
g18
I236
sbasg19
I236
sba(i__main__
Mention
p172
(dp173
g7
S't3'
p174
sg9
S'Coreference-Identity'
p175
sg10
S'i64'
p176
sg12
S'i53'
p177
sg13
Nsg14
(lp178
(i__main__
Token
p179
(dp180
g18
I299
sba(i__main__
Token
p181
(dp182
g18
I300
sbasg19
I300
sba(i__main__
Mention
p183
(dp184
g7
S't3'
p185
sg9
S'Coreference-Identity'
p186
sg10
S'i71'
p187
sg12
S'i64'
p188
sg13
Nsg14
(lp189
(i__main__
Token
p190
(dp191
g18
I363
sba(i__main__
Token
p192
(dp193
g18
I364
sbasg19
I364
sba(i__main__
Mention
p194
(dp195
g7
S't3'
p196
sg9
S'Anaphora-C'
p197
sg10
S'i73'
p198
sg12
S'i71'
p199
sg13
Nsg14
(lp200
(i__main__
Token
p201
(dp202
g18
I374
sbasg19
I374
sbasg7
g132
sg47
Nsba(i__main__
Chain
p203
(dp204
g3
(lp205
(i__main__
Mention
p206
(dp207
g7
S't4'
p208
sg9
Nsg10
S'i4'
p209
sg12
Nsg13
Nsg14
(lp210
(i__main__
Token
p211
(dp212
g18
I6
sbasg19
I6
sba(i__main__
Mention
p213
(dp214
g7
S't4'
p215
sg9
S'Coreference-Identity'
p216
sg10
S'i55'
p217
sg12
S'i4'
p218
sg13
Nsg14
(lp219
(i__main__
Token
p220
(dp221
g18
I238
sbasg19
I238
sba(i__main__
Mention
p222
(dp223
g7
S't4'
p224
sg9
S'Coreference-Identity'
p225
sg10
S'i74'
p226
sg12
S'i55'
p227
sg13
Nsg14
(lp228
(i__main__
Token
p229
(dp230
g18
I375
sbasg19
I375
sbasg7
g208
sg47
Nsba(i__main__
Chain
p231
(dp232
g3
(lp233
(i__main__
Mention
p234
(dp235
g7
S't5'
p236
sg9
Nsg10
S'i5'
p237
sg12
Nsg13
Nsg14
(lp238
(i__main__
Token
p239
(dp240
g18
I10
sba(i__main__
Token
p241
(dp242
g18
I11
sbasg19
I11
sba(i__main__
Mention
p243
(dp244
g7
S't5'
p245
sg9
S'Coreference-Identity'
p246
sg10
S'i8'
p247
sg12
S'i5'
p248
sg13
Nsg14
(lp249
(i__main__
Token
p250
(dp251
g18
I31
sbasg19
I31
sba(i__main__
Mention
p252
(dp253
g7
S't5'
p254
sg9
S'Coreference-Identity'
p255
sg10
S'i11'
p256
sg12
S'i8'
p257
sg13
Nsg14
(lp258
(i__main__
Token
p259
(dp260
g18
I56
sba(i__main__
Token
p261
(dp262
g18
I57
sbasg19
I57
sba(i__main__
Mention
p263
(dp264
g7
S't5'
p265
sg9
S'Coreference-Identity'
p266
sg10
S'i18'
p267
sg12
S'i11'
p268
sg13
Nsg14
(lp269
(i__main__
Token
p270
(dp271
g18
I72
sba(i__main__
Token
p272
(dp273
g18
I73
sbasg19
I73
sba(i__main__
Mention
p274
(dp275
g7
S't5'
p276
sg9
S'Coreference-Identity'
p277
sg10
S'i25'
p278
sg12
S'i18'
p279
sg13
Nsg14
(lp280
(i__main__
Token
p281
(dp282
g18
I114
sba(i__main__
Token
p283
(dp284
g18
I115
sbasg19
I115
sba(i__main__
Mention
p285
(dp286
g7
S't5'
p287
sg9
S'Coreference-Identity'
p288
sg10
S'i31'
p289
sg12
S'i25'
p290
sg13
Nsg14
(lp291
(i__main__
Token
p292
(dp293
g18
I154
sba(i__main__
Token
p294
(dp295
g18
I155
sbasg19
I155
sba(i__main__
Mention
p296
(dp297
g7
S't5'
p298
sg9
S'Coreference-Identity'
p299
sg10
S'i32'
p300
sg12
S'i31'
p301
sg13
Nsg14
(lp302
(i__main__
Token
p303
(dp304
g18
I166
sbasg19
I166
sba(i__main__
Mention
p305
(dp306
g7
S't5'
p307
sg9
S'Coreference-Identity'
p308
sg10
S'i36'
p309
sg12
S'i32'
p310
sg13
Nsg14
(lp311
(i__main__
Token
p312
(dp313
g18
I179
sbasg19
I179
sba(i__main__
Mention
p314
(dp315
g7
S't5'
p316
sg9
S'Coreference-Identity'
p317
sg10
S'i38'
p318
sg12
S'i36'
p319
sg13
Nsg14
(lp320
(i__main__
Token
p321
(dp322
g18
I188
sba(i__main__
Token
p323
(dp324
g18
I189
sbasg19
I189
sba(i__main__
Mention
p325
(dp326
g7
S't5'
p327
sg9
S'Coreference-Identity'
p328
sg10
S'i46'
p329
sg12
S'i38'
p330
sg13
Nsg14
(lp331
(i__main__
Token
p332
(dp333
g18
I215
sba(i__main__
Token
p334
(dp335
g18
I216
sbasg19
I216
sba(i__main__
Mention
p336
(dp337
g7
S't5'
p338
sg9
S'Coreference-Identity'
p339
sg10
S'i56'
p340
sg12
S'i46'
p341
sg13
Nsg14
(lp342
(i__main__
Token
p343
(dp344
g18
I241
sba(i__main__
Token
p345
(dp346
g18
I242
sbasg19
I242
sba(i__main__
Mention
p347
(dp348
g7
S't5'
p349
sg9
S'Coreference-Identity'
p350
sg10
S'i57'
p351
sg12
S'i56'
p352
sg13
Nsg14
(lp353
(i__main__
Token
p354
(dp355
g18
I254
sbasg19
I254
sbasg7
g236
sg47
Nsba(i__main__
Chain
p356
(dp357
g3
(lp358
(i__main__
Mention
p359
(dp360
g7
S't6'
p361
sg9
Nsg10
S'i6'
p362
sg12
Nsg13
Nsg14
(lp363
(i__main__
Token
p364
(dp365
g18
I13
sba(i__main__
Token
p366
(dp367
g18
I14
sbasg19
I14
sba(i__main__
Mention
p368
(dp369
g7
S't6'
p370
sg9
S'Coreference-Identity'
p371
sg10
S'i7'
p372
sg12
S'i6'
p373
sg13
Nsg14
(lp374
(i__main__
Token
p375
(dp376
g18
I29
sbasg19
I29
sba(i__main__
Mention
p377
(dp378
g7
S't6'
p379
sg9
S'Coreference-Identity'
p380
sg10
S'i16'
p381
sg12
S'i7'
p382
sg13
Nsg14
(lp383
(i__main__
Token
p384
(dp385
g18
I66
sbasg19
I66
sba(i__main__
Mention
p386
(dp387
g7
S't6'
p388
sg9
S'Coreference-Identity'
p389
sg10
S'i26'
p390
sg12
S'i16'
p391
sg13
Nsg14
(lp392
(i__main__
Token
p393
(dp394
g18
I124
sbasg19
I124
sba(i__main__
Mention
p395
(dp396
g7
S't6'
p397
sg9
S'Coreference-Identity'
p398
sg10
S'i47'
p399
sg12
S'i26'
p400
sg13
Nsg14
(lp401
(i__main__
Token
p402
(dp403
g18
I223
sbasg19
I223
sbasg7
g361
sg47
Nsba(i__main__
Chain
p404
(dp405
g3
(lp406
(i__main__
Mention
p407
(dp408
g7
S't7'
p409
sg9
Nsg10
S'i12'
p410
sg12
Nsg13
Nsg14
(lp411
(i__main__
Token
p412
(dp413
g18
I56
sba(i__main__
Token
p414
(dp415
g18
I57
sba(i__main__
Token
p416
(dp417
g18
I58
sba(i__main__
Token
p418
(dp419
g18
I59
sba(i__main__
Token
p420
(dp421
g18
I60
sba(i__main__
Token
p422
(dp423
g18
I61
sba(i__main__
Token
p424
(dp425
g18
I62
sba(i__main__
Token
p426
(dp427
g18
I63
sba(i__main__
Token
p428
(dp429
g18
I64
sbasg19
I64
sba(i__main__
Mention
p430
(dp431
g7
S't7'
p432
sg9
S'Coreference-Identity'
p433
sg10
S'i23'
p434
sg12
S'i12'
p435
sg13
Nsg14
(lp436
(i__main__
Token
p437
(dp438
g18
I110
sba(i__main__
Token
p439
(dp440
g18
I111
sba(i__main__
Token
p441
(dp442
g18
I112
sba(i__main__
Token
p443
(dp444
g18
I113
sba(i__main__
Token
p445
(dp446
g18
I114
sba(i__main__
Token
p447
(dp448
g18
I115
sba(i__main__
Token
p449
(dp450
g18
I116
sba(i__main__
Token
p451
(dp452
g18
I117
sba(i__main__
Token
p453
(dp454
g18
I118
sbasg19
I118
sba(i__main__
Mention
p455
(dp456
g7
S't7'
p457
sg9
S'Coreference-Identity'
p458
sg10
S'i27'
p459
sg12
S'i23'
p460
sg13
Nsg14
(lp461
(i__main__
Token
p462
(dp463
g18
I125
sba(i__main__
Token
p464
(dp465
g18
I126
sbasg19
I126
sbasg7
g409
sg47
Nsba(i__main__
Chain
p466
(dp467
g3
(lp468
(i__main__
Mention
p469
(dp470
g7
S't8'
p471
sg9
Nsg10
S'i13'
p472
sg12
Nsg13
Nsg14
(lp473
(i__main__
Token
p474
(dp475
g18
I56
sba(i__main__
Token
p476
(dp477
g18
I57
sba(i__main__
Token
p478
(dp479
g18
I58
sba(i__main__
Token
p480
(dp481
g18
I59
sba(i__main__
Token
p482
(dp483
g18
I60
sba(i__main__
Token
p484
(dp485
g18
I61
sba(i__main__
Token
p486
(dp487
g18
I62
sba(i__main__
Token
p488
(dp489
g18
I63
sba(i__main__
Token
p490
(dp491
g18
I64
sba(i__main__
Token
p492
(dp493
g18
I65
sba(i__main__
Token
p494
(dp495
g18
I66
sba(i__main__
Token
p496
(dp497
g18
I67
sba(i__main__
Token
p498
(dp499
g18
I68
sba(i__main__
Token
p500
(dp501
g18
I69
sbasg19
I69
sba(i__main__
Mention
p502
(dp503
g7
S't8'
p504
sg9
S'Anaphora-C'
p505
sg10
S'i17'
p506
sg12
S'i13'
p507
sg13
Nsg14
(lp508
(i__main__
Token
p509
(dp510
g18
I71
sbasg19
I71
sbasg7
g471
sg47
Nsba(i__main__
Chain
p511
(dp512
g3
(lp513
(i__main__
Mention
p514
(dp515
g7
S't9'
p516
sg9
Nsg10
S'i14'
p517
sg12
Nsg13
Nsg14
(lp518
(i__main__
Token
p519
(dp520
g18
I59
sba(i__main__
Token
p521
(dp522
g18
I60
sba(i__main__
Token
p523
(dp524
g18
I61
sbasg19
I61
sba(i__main__
Mention
p525
(dp526
g7
S't9'
p527
sg9
S'Coreference-Identity'
p528
sg10
S'i22'
p529
sg12
S'i14'
p530
sg13
Nsg14
(lp531
(i__main__
Token
p532
(dp533
g18
I110
sba(i__main__
Token
p534
(dp535
g18
I111
sba(i__main__
Token
p536
(dp537
g18
I112
sbasg19
I112
sba(i__main__
Mention
p538
(dp539
g7
S't9'
p540
sg9
S'Coreference-Identity'
p541
sg10
S'i39'
p542
sg12
S'i22'
p543
sg13
Nsg14
(lp544
(i__main__
Token
p545
(dp546
g18
I195
sba(i__main__
Token
p547
(dp548
g18
I196
sbasg19
I196
sba(i__main__
Mention
p549
(dp550
g7
S't9'
p551
sg9
S'Coreference-Identity'
p552
sg10
S'i41'
p553
sg12
S'i39'
p554
sg13
Nsg14
(lp555
(i__main__
Token
p556
(dp557
g18
I202
sba(i__main__
Token
p558
(dp559
g18
I203
sbasg19
I203
sba(i__main__
Mention
p560
(dp561
g7
S't9'
p562
sg9
S'Coreference-Identity'
p563
sg10
S'i50'
p564
sg12
S'i41'
p565
sg13
Nsg14
(lp566
(i__main__
Token
p567
(dp568
g18
I229
sba(i__main__
Token
p569
(dp570
g18
I230
sbasg19
I230
sbasg7
g516
sg47
Nsba(i__main__
Chain
p571
(dp572
g3
(lp573
(i__main__
Mention
p574
(dp575
g7
S't10'
p576
sg9
Nsg10
S'i15'
p577
sg12
Nsg13
Nsg14
(lp578
(i__main__
Token
p579
(dp580
g18
I59
sba(i__main__
Token
p581
(dp582
g18
I60
sbasg19
I60
sba(i__main__
Mention
p583
(dp584
g7
S't10'
p585
sg9
S'Coreference-Identity'
p586
sg10
S'i24'
p587
sg12
S'i15'
p588
sg13
Nsg14
(lp589
(i__main__
Token
p590
(dp591
g18
I110
sba(i__main__
Token
p592
(dp593
g18
I111
sbasg19
I111
sba(i__main__
Mention
p594
(dp595
g7
S't10'
p596
sg9
S'Coreference-Noun-Noun'
p597
sg10
S'i40'
p598
sg12
S'i24'
p599
sg13
Nsg14
(lp600
(i__main__
Token
p601
(dp602
g18
I195
sbasg19
I195
sba(i__main__
Mention
p603
(dp604
g7
S't10'
p605
sg9
S'Coreference-Identity'
p606
sg10
S'i42'
p607
sg12
S'i40'
p608
sg13
Nsg14
(lp609
(i__main__
Token
p610
(dp611
g18
I202
sbasg19
I202
sba(i__main__
Mention
p612
(dp613
g7
S't10'
p614
sg9
S'Coreference-Identity'
p615
sg10
S'i51'
p616
sg12
S'i42'
p617
sg13
Nsg14
(lp618
(i__main__
Token
p619
(dp620
g18
I229
sbasg19
I229
sbasg7
g576
sg47
Nsba(i__main__
Chain
p621
(dp622
g3
(lp623
(i__main__
Mention
p624
(dp625
g7
S't11'
p626
sg9
Nsg10
S'i19'
p627
sg12
Nsg13
Nsg14
(lp628
(i__main__
Token
p629
(dp630
g18
I95
sbasg19
I95
sba(i__main__
Mention
p631
(dp632
g7
S't11'
p633
sg9
S'Coreference-Identity'
p634
sg10
S'i28'
p635
sg12
S'i19'
p636
sg13
Nsg14
(lp637
(i__main__
Token
p638
(dp639
g18
I132
sbasg19
I132
sba(i__main__
Mention
p640
(dp641
g7
S't11'
p642
sg9
S'Coreference-Identity'
p643
sg10
S'i37'
p644
sg12
S'i28'
p645
sg13
Nsg14
(lp646
(i__main__
Token
p647
(dp648
g18
I184
sbasg19
I184
sba(i__main__
Mention
p649
(dp650
g7
S't11'
p651
sg9
S'Coreference-Identity'
p652
sg10
S'i45'
p653
sg12
S'i37'
p654
sg13
Nsg14
(lp655
(i__main__
Token
p656
(dp657
g18
I211
sbasg19
I211
sbasg7
g626
sg47
Nsba(i__main__
Chain
p658
(dp659
g3
(lp660
(i__main__
Mention
p661
(dp662
g7
S't12'
p663
sg9
Nsg10
S'i33'
p664
sg12
Nsg13
Nsg14
(lp665
(i__main__
Token
p666
(dp667
g18
I167
sbasg19
I167
sba(i__main__
Mention
p668
(dp669
g7
S't12'
p670
sg9
S'Anaphora-RC'
p671
sg10
S'i35'
p672
sg12
S'i33'
p673
sg13
Nsg14
(lp674
(i__main__
Token
p675
(dp676
g18
I171
sba(i__main__
Token
p677
(dp678
g18
I172
sba(i__main__
Token
p679
(dp680
g18
I173
sba(i__main__
Token
p681
(dp682
g18
I174
sba(i__main__
Token
p683
(dp684
g18
I175
sba(i__main__
Token
p685
(dp686
g18
I176
sba(i__main__
Token
p687
(dp688
g18
I177
sba(i__main__
Token
p689
(dp690
g18
I178
sba(i__main__
Token
p691
(dp692
g18
I179
sba(i__main__
Token
p693
(dp694
g18
I180
sba(i__main__
Token
p695
(dp696
g18
I181
sba(i__main__
Token
p697
(dp698
g18
I182
sbasg19
I181
sbasg7
g663
sg47
Nsba(i__main__
Chain
p699
(dp700
g3
(lp701
(i__main__
Mention
p702
(dp703
g7
S't13'
p704
sg9
Nsg10
S'i34'
p705
sg12
Nsg13
Nsg14
(lp706
(i__main__
Token
p707
(dp708
g18
I171
sbasg19
I171
sbasg7
g704
sg47
Nsba(i__main__
Chain
p709
(dp710
g3
(lp711
(i__main__
Mention
p712
(dp713
g7
S't14'
p714
sg9
Nsg10
S'i43'
p715
sg12
Nsg13
Nsg14
(lp716
(i__main__
Token
p717
(dp718
g18
I205
sba(i__main__
Token
p719
(dp720
g18
I206
sbasg19
I206
sba(i__main__
Mention
p721
(dp722
g7
S't14'
p723
sg9
S'Coreference-NounComplement'
p724
sg10
S'i44'
p725
sg12
S'i43'
p726
sg13
Nsg14
(lp727
(i__main__
Token
p728
(dp729
g18
I207
sba(i__main__
Token
p730
(dp731
g18
I208
sba(i__main__
Token
p732
(dp733
g18
I209
sbasg19
I209
sbasg7
g714
sg47
Nsba(i__main__
Chain
p734
(dp735
g3
(lp736
(i__main__
Mention
p737
(dp738
g7
S't15'
p739
sg9
Nsg10
S'i48'
p740
sg12
Nsg13
Nsg14
(lp741
(i__main__
Token
p742
(dp743
g18
I224
sba(i__main__
Token
p744
(dp745
g18
I225
sba(i__main__
Token
p746
(dp747
g18
I226
sbasg19
I226
sba(i__main__
Mention
p748
(dp749
g7
S't15'
p750
sg9
S'Anaphora-C'
p751
sg10
S'i49'
p752
sg12
S'i48'
p753
sg13
Nsg14
(lp754
(i__main__
Token
p755
(dp756
g18
I228
sbasg19
I228
sbasg7
g739
sg47
Nsba(i__main__
Chain
p757
(dp758
g3
(lp759
(i__main__
Mention
p760
(dp761
g7
S't16'
p762
sg9
Nsg10
S'i58'
p763
sg12
Nsg13
Nsg14
(lp764
(i__main__
Token
p765
(dp766
g18
I256
sba(i__main__
Token
p767
(dp768
g18
I257
sbasg19
I257
sba(i__main__
Mention
p769
(dp770
g7
S't16'
p771
sg9
S'Coreference-NounComplement'
p772
sg10
S'i59'
p773
sg12
S'i58'
p774
sg13
Nsg14
(lp775
(i__main__
Token
p776
(dp777
g18
I258
sba(i__main__
Token
p778
(dp779
g18
I259
sba(i__main__
Token
p780
(dp781
g18
I260
sba(i__main__
Token
p782
(dp783
g18
I261
sbasg19
I261
sbasg7
g762
sg47
Nsba(i__main__
Chain
p784
(dp785
g3
(lp786
(i__main__
Mention
p787
(dp788
g7
S't17'
p789
sg9
Nsg10
S'i60'
p790
sg12
Nsg13
Nsg14
(lp791
(i__main__
Token
p792
(dp793
g18
I266
sba(i__main__
Token
p794
(dp795
g18
I267
sbasg19
I267
sba(i__main__
Mention
p796
(dp797
g7
S't17'
p798
sg9
S'Coreference-NounComplement'
p799
sg10
S'i61'
p800
sg12
S'i60'
p801
sg13
Nsg14
(lp802
(i__main__
Token
p803
(dp804
g18
I268
sba(i__main__
Token
p805
(dp806
g18
I269
sba(i__main__
Token
p807
(dp808
g18
I270
sba(i__main__
Token
p809
(dp810
g18
I271
sbasg19
I271
sbasg7
g789
sg47
Nsba(i__main__
Chain
p811
(dp812
g3
(lp813
(i__main__
Mention
p814
(dp815
g7
S't18'
p816
sg9
Nsg10
S'i66'
p817
sg12
Nsg13
Nsg14
(lp818
(i__main__
Token
p819
(dp820
g18
I303
sba(i__main__
Token
p821
(dp822
g18
I304
sbasg19
I304
sba(i__main__
Mention
p823
(dp824
g7
S't18'
p825
sg9
S'Anaphora-C'
p826
sg10
S'i67'
p827
sg12
S'i66'
p828
sg13
Nsg14
(lp829
(i__main__
Token
p830
(dp831
g18
I309
sbasg19
I309
sbasg7
g816
sg47
Nsba(i__main__
Chain
p832
(dp833
g3
(lp834
(i__main__
Mention
p835
(dp836
g7
S't19'
p837
sg9
Nsg10
S'i68'
p838
sg12
Nsg13
Nsg14
(lp839
(i__main__
Token
p840
(dp841
g18
I345
sbasg19
I345
sba(i__main__
Mention
p842
(dp843
g7
S't19'
p844
sg9
S'Anaphora-C'
p845
sg10
S'i69'
p846
sg12
S'i68'
p847
sg13
Nsg14
(lp848
(i__main__
Token
p849
(dp850
g18
I347
sbasg19
I347
sba(i__main__
Mention
p851
(dp852
g7
S't19'
p853
sg9
S'Anaphora-C'
p854
sg10
S'i70'
p855
sg12
S'i69'
p856
sg13
Nsg14
(lp857
(i__main__
Token
p858
(dp859
g18
I355
sbasg19
I355
sbasg7
g837
sg47
Nsba.