(lp0
(i__main__
Chain
p1
(dp2
S'mentionList'
p3
(lp4
(i__main__
Mention
p5
(dp6
S'chainId'
p7
S't1'
p8
sS'relType'
p9
NsS'mentionId'
p10
S'i1'
p11
sS'antecedentId'
p12
NsS'crefMod'
p13
NsS'tokenList'
p14
(lp15
(i__main__
Token
p16
(dp17
S'tokenId'
p18
I0
sba(i__main__
Token
p19
(dp20
g18
I1
sbasS'mentionHead'
p21
I1
sba(i__main__
Mention
p22
(dp23
g7
S't1'
p24
sg9
S'Coreference-Bracketed/Abbraviation'
p25
sg10
S'i17'
p26
sg12
S'i1'
p27
sg13
Nsg14
(lp28
(i__main__
Token
p29
(dp30
g18
I129
sbasg21
I129
sba(i__main__
Mention
p31
(dp32
g7
S't1'
p33
sg9
S'Coreference-Bracketed/Abbraviation'
p34
sg10
S'i25'
p35
sg12
S'i11'
p36
sg13
Nsg14
(lp37
(i__main__
Token
p38
(dp39
g18
I169
sbasg21
I169
sba(i__main__
Mention
p40
(dp41
g7
S't1'
p42
sg9
S'Coreference-Bracketed/Abbraviation'
p43
sg10
S'i37'
p44
sg12
S'i12'
p45
sg13
Nsg14
(lp46
(i__main__
Token
p47
(dp48
g18
I222
sbasg21
I222
sba(i__main__
Mention
p49
(dp50
g7
S't1'
p51
sg9
S'Coreference-Bracketed/Abbraviation'
p52
sg10
S'i47'
p53
sg12
S'i13'
p54
sg13
Nsg14
(lp55
(i__main__
Token
p56
(dp57
g18
I251
sbasg21
I251
sba(i__main__
Mention
p58
(dp59
g7
S't1'
p60
sg9
S'Coreference-Bracketed/Abbraviation'
p61
sg10
S'i56'
p62
sg12
S'i47'
p63
sg13
Nsg14
(lp64
(i__main__
Token
p65
(dp66
g18
I314
sbasg21
I314
sbasg7
g8
sS'chainHead'
p67
Nsba(i__main__
Chain
p68
(dp69
g3
(lp70
(i__main__
Mention
p71
(dp72
g7
S't2'
p73
sg9
Nsg10
S'i2'
p74
sg12
Nsg13
Nsg14
(lp75
(i__main__
Token
p76
(dp77
g18
I3
sba(i__main__
Token
p78
(dp79
g18
I4
sbasg21
I4
sba(i__main__
Mention
p80
(dp81
g7
S't2'
p82
sg9
S'Coreference-NounComplement'
p83
sg10
S'i3'
p84
sg12
S'i2'
p85
sg13
Nsg14
(lp86
(i__main__
Token
p87
(dp88
g18
I5
sba(i__main__
Token
p89
(dp90
g18
I6
sbasg21
I6
sba(i__main__
Mention
p91
(dp92
g7
S't2'
p93
sg9
S'Anaphora-C'
p94
sg10
S'i4'
p95
sg12
S'i3'
p96
sg13
Nsg14
(lp97
(i__main__
Token
p98
(dp99
g18
I11
sbasg21
I11
sba(i__main__
Mention
p100
(dp101
g7
S't2'
p102
sg9
S'Coreference-Identity'
p103
sg10
S'i21'
p104
sg12
S'i4'
p105
sg13
Nsg14
(lp106
(i__main__
Token
p107
(dp108
g18
I147
sba(i__main__
Token
p109
(dp110
g18
I148
sbasg21
I148
sba(i__main__
Mention
p111
(dp112
g7
S't2'
p113
sg9
S'Coreference-Identity'
p114
sg10
S'i24'
p115
sg12
S'i21'
p116
sg13
Nsg14
(lp117
(i__main__
Token
p118
(dp119
g18
I166
sba(i__main__
Token
p120
(dp121
g18
I167
sbasg21
I167
sba(i__main__
Mention
p122
(dp123
g7
S't2'
p124
sg9
S'Coreference-Identity'
p125
sg10
S'i28'
p126
sg12
S'i24'
p127
sg13
Nsg14
(lp128
(i__main__
Token
p129
(dp130
g18
I184
sba(i__main__
Token
p131
(dp132
g18
I185
sbasg21
I185
sba(i__main__
Mention
p133
(dp134
g7
S't2'
p135
sg9
S'Anaphora-C'
p136
sg10
S'i29'
p137
sg12
S'i28'
p138
sg13
Nsg14
(lp139
(i__main__
Token
p140
(dp141
g18
I190
sbasg21
I190
sba(i__main__
Mention
p142
(dp143
g7
S't2'
p144
sg9
S'Coreference-Identity'
p145
sg10
S'i33'
p146
sg12
S'i29'
p147
sg13
Nsg14
(lp148
(i__main__
Token
p149
(dp150
g18
I206
sba(i__main__
Token
p151
(dp152
g18
I207
sbasg21
I207
sba(i__main__
Mention
p153
(dp154
g7
S't2'
p155
sg9
S'Coreference-Identity'
p156
sg10
S'i45'
p157
sg12
S'i33'
p158
sg13
Nsg14
(lp159
(i__main__
Token
p160
(dp161
g18
I245
sba(i__main__
Token
p162
(dp163
g18
I246
sbasg21
I246
sbasg7
g73
sg67
Nsba(i__main__
Chain
p164
(dp165
g3
(lp166
(i__main__
Mention
p167
(dp168
g7
S't3'
p169
sg9
Nsg10
S'i5'
p170
sg12
Nsg13
Nsg14
(lp171
(i__main__
Token
p172
(dp173
g18
I12
sbasg21
I12
sba(i__main__
Mention
p174
(dp175
g7
S't3'
p176
sg9
S'Coreference-Noun-Noun'
p177
sg10
S'i34'
p178
sg12
S'i5'
p179
sg13
Nsg14
(lp180
(i__main__
Token
p181
(dp182
g18
I209
sbasg21
I209
sbasg7
g169
sg67
Nsba(i__main__
Chain
p183
(dp184
g3
(lp185
(i__main__
Mention
p186
(dp187
g7
S't4'
p188
sg9
Nsg10
S'i6'
p189
sg12
Nsg13
Nsg14
(lp190
(i__main__
Token
p191
(dp192
g18
I26
sbasg21
I26
sba(i__main__
Mention
p193
(dp194
g7
S't4'
p195
sg9
S'Coreference-Identity'
p196
sg10
S'i36'
p197
sg12
S'i6'
p198
sg13
Nsg14
(lp199
(i__main__
Token
p200
(dp201
g18
I212
sbasg21
I212
sba(i__main__
Mention
p202
(dp203
g7
S't4'
p204
sg9
S'Coreference-Identity'
p205
sg10
S'i41'
p206
sg12
S'i36'
p207
sg13
Nsg14
(lp208
(i__main__
Token
p209
(dp210
g18
I231
sbasg21
I231
sbasg7
g188
sg67
Nsba(i__main__
Chain
p211
(dp212
g3
(lp213
(i__main__
Mention
p214
(dp215
g7
S't5'
p216
sg9
Nsg10
S'i7'
p217
sg12
Nsg13
Nsg14
(lp218
(i__main__
Token
p219
(dp220
g18
I30
sbasg21
I30
sba(i__main__
Mention
p221
(dp222
g7
S't5'
p223
sg9
S'Coreference-Identity'
p224
sg10
S'i10'
p225
sg12
S'i7'
p226
sg13
Nsg14
(lp227
(i__main__
Token
p228
(dp229
g18
I52
sbasg21
I52
sba(i__main__
Mention
p230
(dp231
g7
S't5'
p232
sg9
S'Coreference-Identity'
p233
sg10
S'i16'
p234
sg12
S'i10'
p235
sg13
Nsg14
(lp236
(i__main__
Token
p237
(dp238
g18
I124
sbasg21
I124
sba(i__main__
Mention
p239
(dp240
g7
S't5'
p241
sg9
S'Coreference-Identity'
p242
sg10
S'i50'
p243
sg12
S'i16'
p244
sg13
Nsg14
(lp245
(i__main__
Token
p246
(dp247
g18
I261
sbasg21
I261
sba(i__main__
Mention
p248
(dp249
g7
S't5'
p250
sg9
S'Coreference-Identity'
p251
sg10
S'i55'
p252
sg12
S'i50'
p253
sg13
Nsg14
(lp254
(i__main__
Token
p255
(dp256
g18
I312
sbasg21
I312
sbasg7
g216
sg67
Nsba(i__main__
Chain
p257
(dp258
g3
(lp259
(i__main__
Mention
p260
(dp261
g7
S't6'
p262
sg9
Nsg10
S'i8'
p263
sg12
Nsg13
Nsg14
(lp264
(i__main__
Token
p265
(dp266
g18
I33
sba(i__main__
Token
p267
(dp268
g18
I34
sba(i__main__
Token
p269
(dp270
g18
I35
sba(i__main__
Token
p271
(dp272
g18
I36
sbasg21
I36
sba(i__main__
Mention
p273
(dp274
g7
S't6'
p275
sg9
S'Coreference-Identity'
p276
sg10
S'i30'
p277
sg12
S'i8'
p278
sg13
Nsg14
(lp279
(i__main__
Token
p280
(dp281
g18
I196
sbasg21
I196
sba(i__main__
Mention
p282
(dp283
g7
S't6'
p284
sg9
S'Coreference-Identity'
p285
sg10
S'i69'
p286
sg12
S'i30'
p287
sg13
Nsg14
(lp288
(i__main__
Token
p289
(dp290
g18
I348
sbasg21
I348
sbasg7
g262
sg67
Nsba(i__main__
Chain
p291
(dp292
g3
(lp293
(i__main__
Mention
p294
(dp295
g7
S't7'
p296
sg9
Nsg10
S'i9'
p297
sg12
Nsg13
Nsg14
(lp298
(i__main__
Token
p299
(dp300
g18
I49
sbasg21
I49
sba(i__main__
Mention
p301
(dp302
g7
S't7'
p303
sg9
S'Coreference-Identity'
p304
sg10
S'i12'
p305
sg12
S'i9'
p306
sg13
Nsg14
(lp307
(i__main__
Token
p308
(dp309
g18
I74
sbasg21
I74
sba(i__main__
Mention
p310
(dp311
g7
S't7'
p312
sg9
S'Coreference-Identity'
p313
sg10
S'i68'
p314
sg12
S'i12'
p315
sg13
Nsg14
(lp316
(i__main__
Token
p317
(dp318
g18
I345
sbasg21
I345
sbasg7
g296
sg67
Nsba(i__main__
Chain
p319
(dp320
g3
(lp321
(i__main__
Mention
p322
(dp323
g7
S't8'
p324
sg9
Nsg10
S'i11'
p325
sg12
Nsg13
Nsg14
(lp326
(i__main__
Token
p327
(dp328
g18
I67
sbasg21
I67
sba(i__main__
Mention
p329
(dp330
g7
S't8'
p331
sg9
S'Coreference-Identity'
p332
sg10
S'i54'
p333
sg12
S'i11'
p334
sg13
Nsg14
(lp335
(i__main__
Token
p336
(dp337
g18
I307
sbasg21
I307
sbasg7
g324
sg67
Nsba(i__main__
Chain
p338
(dp339
g3
(lp340
(i__main__
Mention
p341
(dp342
g7
S't9'
p343
sg9
Nsg10
S'i13'
p344
sg12
Nsg13
Nsg14
(lp345
(i__main__
Token
p346
(dp347
g18
I80
sbasg21
I80
sba(i__main__
Mention
p348
(dp349
g7
S't9'
p350
sg9
S'Coreference-Identity'
p351
sg10
S'i52'
p352
sg12
S'i13'
p353
sg13
Nsg14
(lp354
(i__main__
Token
p355
(dp356
g18
I270
sbasg21
I270
sbasg7
g343
sg67
Nsba(i__main__
Chain
p357
(dp358
g3
(lp359
(i__main__
Mention
p360
(dp361
g7
S't10'
p362
sg9
Nsg10
S'i14'
p363
sg12
Nsg13
Nsg14
(lp364
(i__main__
Token
p365
(dp366
g18
I101
sba(i__main__
Token
p367
(dp368
g18
I102
sbasg21
I102
sba(i__main__
Mention
p369
(dp370
g7
S't10'
p371
sg9
S'Anaphora-C'
p372
sg10
S'i15'
p373
sg12
S'i14'
p374
sg13
Nsg14
(lp375
(i__main__
Token
p376
(dp377
g18
I115
sbasg21
I115
sbasg7
g362
sg67
Nsba(i__main__
Chain
p378
(dp379
g3
(lp380
(i__main__
Mention
p381
(dp382
g7
S't11'
p383
sg9
Nsg10
S'i18'
p384
sg12
Nsg13
Nsg14
(lp385
(i__main__
Token
p386
(dp387
g18
I131
sba(i__main__
Token
p388
(dp389
g18
I132
sbasg21
I132
sba(i__main__
Mention
p390
(dp391
g7
S't11'
p392
sg9
S'Coreference-NounComplement'
p393
sg10
S'i19'
p394
sg12
S'i18'
p395
sg13
Nsg14
(lp396
(i__main__
Token
p397
(dp398
g18
I133
sba(i__main__
Token
p399
(dp400
g18
I134
sba(i__main__
Token
p401
(dp402
g18
I135
sbasg21
I135
sba(i__main__
Mention
p403
(dp404
g7
S't11'
p405
sg9
S'Anaphora-C'
p406
sg10
S'i20'
p407
sg12
S'i19'
p408
sg13
Nsg14
(lp409
(i__main__
Token
p410
(dp411
g18
I139
sbasg21
I139
sbasg7
g383
sg67
Nsba(i__main__
Chain
p412
(dp413
g3
(lp414
(i__main__
Mention
p415
(dp416
g7
S't12'
p417
sg9
Nsg10
S'i22'
p418
sg12
Nsg13
Nsg14
(lp419
(i__main__
Token
p420
(dp421
g18
I158
sbasg21
I158
sba(i__main__
Mention
p422
(dp423
g7
S't12'
p424
sg9
S'Coreference-NounComplement'
p425
sg10
S'i23'
p426
sg12
S'i22'
p427
sg13
Nsg14
(lp428
(i__main__
Token
p429
(dp430
g18
I159
sba(i__main__
Token
p431
(dp432
g18
I160
sbasg21
I160
sbasg7
g417
sg67
Nsba(i__main__
Chain
p433
(dp434
g3
(lp435
(i__main__
Mention
p436
(dp437
g7
S't13'
p438
sg9
Nsg10
S'i26'
p439
sg12
Nsg13
Nsg14
(lp440
(i__main__
Token
p441
(dp442
g18
I177
sba(i__main__
Token
p443
(dp444
g18
I178
sbasg21
I178
sba(i__main__
Mention
p445
(dp446
g7
S't13'
p447
sg9
S'Coreference-NounComplement'
p448
sg10
S'i27'
p449
sg12
S'i26'
p450
sg13
Nsg14
(lp451
(i__main__
Token
p452
(dp453
g18
I179
sba(i__main__
Token
p454
(dp455
g18
I180
sbasg21
I180
sbasg7
g438
sg67
Nsba(i__main__
Chain
p456
(dp457
g3
(lp458
(i__main__
Mention
p459
(dp460
g7
S't14'
p461
sg9
Nsg10
S'i31'
p462
sg12
Nsg13
Nsg14
(lp463
(i__main__
Token
p464
(dp465
g18
I198
sba(i__main__
Token
p466
(dp467
g18
I199
sbasg21
I199
sba(i__main__
Mention
p468
(dp469
g7
S't14'
p470
sg9
S'Coreference-NounComplement'
p471
sg10
S'i32'
p472
sg12
S'i31'
p473
sg13
Nsg14
(lp474
(i__main__
Token
p475
(dp476
g18
I200
sba(i__main__
Token
p477
(dp478
g18
I201
sba(i__main__
Token
p479
(dp480
g18
I202
sbasg21
I202
sbasg7
g461
sg67
Nsba(i__main__
Chain
p481
(dp482
g3
(lp483
(i__main__
Mention
p484
(dp485
g7
S't15'
p486
sg9
Nsg10
S'i35'
p487
sg12
Nsg13
Nsg14
(lp488
(i__main__
Token
p489
(dp490
g18
I211
sba(i__main__
Token
p491
(dp492
g18
I212
sba(i__main__
Token
p493
(dp494
g18
I213
sbasg21
I213
sba(i__main__
Mention
p495
(dp496
g7
S't15'
p497
sg9
S'Coreference-Identity'
p498
sg10
S'i42'
p499
sg12
S'i35'
p500
sg13
Nsg14
(lp501
(i__main__
Token
p502
(dp503
g18
I233
sbasg21
I233
sbasg7
g486
sg67
Nsba(i__main__
Chain
p504
(dp505
g3
(lp506
(i__main__
Mention
p507
(dp508
g7
S't16'
p509
sg9
Nsg10
S'i38'
p510
sg12
Nsg13
Nsg14
(lp511
(i__main__
Token
p512
(dp513
g18
I222
sba(i__main__
Token
p514
(dp515
g18
I223
sbasg21
I223
sba(i__main__
Mention
p516
(dp517
g7
S't16'
p518
sg9
S'Coreference-NounComplement'
p519
sg10
S'i39'
p520
sg12
S'i38'
p521
sg13
Nsg14
(lp522
(i__main__
Token
p523
(dp524
g18
I224
sba(i__main__
Token
p525
(dp526
g18
I225
sbasg21
I225
sba(i__main__
Mention
p527
(dp528
g7
S't16'
p529
sg9
S'Anaphora-C'
p530
sg10
S'i44'
p531
sg12
S'i39'
p532
sg13
Nsg14
(lp533
(i__main__
Token
p534
(dp535
g18
I239
sbasg21
I239
sbasg7
g509
sg67
Nsba(i__main__
Chain
p536
(dp537
g3
(lp538
(i__main__
Mention
p539
(dp540
g7
S't17'
p541
sg9
Nsg10
S'i40'
p542
sg12
Nsg13
Nsg14
(lp543
(i__main__
Token
p544
(dp545
g18
I229
sba(i__main__
Token
p546
(dp547
g18
I230
sbasg21
I230
sba(i__main__
Mention
p548
(dp549
g7
S't17'
p550
sg9
S'Anaphora-C'
p551
sg10
S'i43'
p552
sg12
S'i40'
p553
sg13
Nsg14
(lp554
(i__main__
Token
p555
(dp556
g18
I238
sbasg21
I238
sbasg7
g541
sg67
Nsba(i__main__
Chain
p557
(dp558
g3
(lp559
(i__main__
Mention
p560
(dp561
g7
S't18'
p562
sg9
Nsg10
S'i46'
p563
sg12
Nsg13
Nsg14
(lp564
(i__main__
Token
p565
(dp566
g18
I247
sbasg21
I247
sbasg7
g562
sg67
Nsba(i__main__
Chain
p567
(dp568
g3
(lp569
(i__main__
Mention
p570
(dp571
g7
S't19'
p572
sg9
Nsg10
S'i48'
p573
sg12
Nsg13
Nsg14
(lp574
(i__main__
Token
p575
(dp576
g18
I251
sba(i__main__
Token
p577
(dp578
g18
I252
sbasg21
I252
sba(i__main__
Mention
p579
(dp580
g7
S't19'
p581
sg9
S'Coreference-NounComplement'
p582
sg10
S'i49'
p583
sg12
S'i48'
p584
sg13
Nsg14
(lp585
(i__main__
Token
p586
(dp587
g18
I253
sba(i__main__
Token
p588
(dp589
g18
I254
sbasg21
I254
sba(i__main__
Mention
p590
(dp591
g7
S't19'
p592
sg9
S'Anaphora-C'
p593
sg10
S'i51'
p594
sg12
S'i49'
p595
sg13
Nsg14
(lp596
(i__main__
Token
p597
(dp598
g18
I266
sbasg21
I266
sba(i__main__
Mention
p599
(dp600
g7
S't19'
p601
sg9
S'Anaphora-C'
p602
sg10
S'i53'
p603
sg12
S'i51'
p604
sg13
Nsg14
(lp605
(i__main__
Token
p606
(dp607
g18
I273
sbasg21
I273
sbasg7
g572
sg67
Nsba(i__main__
Chain
p608
(dp609
g3
(lp610
(i__main__
Mention
p611
(dp612
g7
S't20'
p613
sg9
Nsg10
S'i57'
p614
sg12
Nsg13
Nsg14
(lp615
(i__main__
Token
p616
(dp617
g18
I316
sba(i__main__
Token
p618
(dp619
g18
I317
sbasg21
I317
sba(i__main__
Mention
p620
(dp621
g7
S't20'
p622
sg9
S'Coreference-Noun-Noun'
p623
sg10
S'i58'
p624
sg12
S'i57'
p625
sg13
Nsg14
(lp626
(i__main__
Token
p627
(dp628
g18
I322
sbasg21
I322
sba(i__main__
Mention
p629
(dp630
g7
S't20'
p631
sg9
S'Coreference-NounComplement'
p632
sg10
S'i59'
p633
sg12
S'i58'
p634
sg13
Nsg14
(lp635
(i__main__
Token
p636
(dp637
g18
I323
sba(i__main__
Token
p638
(dp639
g18
I324
sbasg21
I324
sbasg7
g613
sg67
Nsba(i__main__
Chain
p640
(dp641
g3
(lp642
(i__main__
Mention
p643
(dp644
g7
S't21'
p645
sg9
Nsg10
S'i60'
p646
sg12
Nsg13
Nsg14
(lp647
(i__main__
Token
p648
(dp649
g18
I326
sbasg21
Nsba(i__main__
Mention
p650
(dp651
g7
S't21'
p652
sg9
S'Coreference-NounComplement'
p653
sg10
S'i64'
p654
sg12
S'i60'
p655
sg13
Nsg14
(lp656
(i__main__
Token
p657
(dp658
g18
I327
sba(i__main__
Token
p659
(dp660
g18
I328
sba(i__main__
Token
p661
(dp662
g18
I329
sbasg21
I329
sbasg7
g645
sg67
Nsba(i__main__
Chain
p663
(dp664
g3
(lp665
(i__main__
Mention
p666
(dp667
g7
S't22'
p668
sg9
Nsg10
S'i61'
p669
sg12
Nsg13
Nsg14
(lp670
(i__main__
Token
p671
(dp672
g18
I326
sbasg21
Nsba(i__main__
Mention
p673
(dp674
g7
S't22'
p675
sg9
S'Coreference-NounComplement'
p676
sg10
S'i65'
p677
sg12
S'i61'
p678
sg13
Nsg14
(lp679
(i__main__
Token
p680
(dp681
g18
I331
sba(i__main__
Token
p682
(dp683
g18
I332
sba(i__main__
Token
p684
(dp685
g18
I333
sbasg21
I333
sbasg7
g668
sg67
Nsba(i__main__
Chain
p686
(dp687
g3
(lp688
(i__main__
Mention
p689
(dp690
g7
S't23'
p691
sg9
Nsg10
S'i62'
p692
sg12
Nsg13
Nsg14
(lp693
(i__main__
Token
p694
(dp695
g18
I326
sbasg21
Nsba(i__main__
Mention
p696
(dp697
g7
S't23'
p698
sg9
S'Coreference-NounComplement'
p699
sg10
S'i66'
p700
sg12
S'i62'
p701
sg13
Nsg14
(lp702
(i__main__
Token
p703
(dp704
g18
I335
sba(i__main__
Token
p705
(dp706
g18
I336
sba(i__main__
Token
p707
(dp708
g18
I337
sbasg21
I337
sbasg7
g691
sg67
Nsba(i__main__
Chain
p709
(dp710
g3
(lp711
(i__main__
Mention
p712
(dp713
g7
S't24'
p714
sg9
Nsg10
S'i63'
p715
sg12
Nsg13
Nsg14
(lp716
(i__main__
Token
p717
(dp718
g18
I326
sbasg21
Nsba(i__main__
Mention
p719
(dp720
g7
S't24'
p721
sg9
S'Coreference-NounComplement'
p722
sg10
S'i67'
p723
sg12
S'i63'
p724
sg13
Nsg14
(lp725
(i__main__
Token
p726
(dp727
g18
I339
sba(i__main__
Token
p728
(dp729
g18
I340
sbasg21
I340
sbasg7
g714
sg67
Nsba(i__main__
Chain
p730
(dp731
g3
(lp732
(i__main__
Mention
p733
(dp734
g7
S't25'
p735
sg9
Nsg10
S'i70'
p736
sg12
Nsg13
Nsg14
(lp737
(i__main__
Token
p738
(dp739
g18
I350
sba(i__main__
Token
p740
(dp741
g18
I351
sbasg21
I351
sba(i__main__
Mention
p742
(dp743
g7
S't25'
p744
sg9
S'Coreference-NounComplement'
p745
sg10
S'i71'
p746
sg12
S'i70'
p747
sg13
Nsg14
(lp748
(i__main__
Token
p749
(dp750
g18
I352
sba(i__main__
Token
p751
(dp752
g18
I353
sbasg21
I353
sbasg7
g735
sg67
Nsba.