(lp0
(i__main__
Chain
p1
(dp2
S'mentionList'
p3
(lp4
(i__main__
Mention
p5
(dp6
S'chainId'
p7
S't1'
p8
sS'relType'
p9
NsS'mentionId'
p10
S'i1'
p11
sS'antecedentId'
p12
NsS'crefMod'
p13
NsS'tokenList'
p14
(lp15
(i__main__
Token
p16
(dp17
S'tokenId'
p18
I0
sba(i__main__
Token
p19
(dp20
g18
I1
sba(i__main__
Token
p21
(dp22
g18
I2
sbasS'mentionHead'
p23
I2
sba(i__main__
Mention
p24
(dp25
g7
S't1'
p26
sg9
S'Coreference-Abbreviation'
p27
sg10
S'i4'
p28
sg12
S'i1'
p29
sg13
Nsg14
(lp30
(i__main__
Token
p31
(dp32
g18
I4
sbasg23
I4
sba(i__main__
Mention
p33
(dp34
g7
S't1'
p35
sg9
S'Coreference-Noun-Noun'
p36
sg10
S'i17'
p37
sg12
S'i4'
p38
sg13
Nsg14
(lp39
(i__main__
Token
p40
(dp41
g18
I43
sbasg23
I43
sba(i__main__
Mention
p42
(dp43
g7
S't1'
p44
sg9
S'Coreference-Noun-Noun'
p45
sg10
S'i21'
p46
sg12
S'i17'
p47
sg13
Nsg14
(lp48
(i__main__
Token
p49
(dp50
g18
I57
sbasg23
I57
sba(i__main__
Mention
p51
(dp52
g7
S't1'
p53
sg9
S'Coreference-Noun-Noun'
p54
sg10
S'i24'
p55
sg12
S'i21'
p56
sg13
Nsg14
(lp57
(i__main__
Token
p58
(dp59
g18
I76
sbasg23
I76
sba(i__main__
Mention
p60
(dp61
g7
S't1'
p62
sg9
S'Coreference-Identity'
p63
sg10
S'i33'
p64
sg12
S'i24'
p65
sg13
Nsg14
(lp66
(i__main__
Token
p67
(dp68
g18
I105
sbasg23
I105
sbasg7
g8
sS'chainHead'
p69
Nsba(i__main__
Chain
p70
(dp71
g3
(lp72
(i__main__
Mention
p73
(dp74
g7
S't2'
p75
sg9
Nsg10
S'i2'
p76
sg12
Nsg13
Nsg14
(lp77
(i__main__
Token
p78
(dp79
g18
I0
sbasg23
I0
sba(i__main__
Mention
p80
(dp81
g7
S't2'
p82
sg9
S'Coreference-Identity'
p83
sg10
S'i6'
p84
sg12
S'i2'
p85
sg13
Nsg14
(lp86
(i__main__
Token
p87
(dp88
g18
I9
sbasg23
I9
sba(i__main__
Mention
p89
(dp90
g7
S't2'
p91
sg9
S'Coreference-Identity'
p92
sg10
S'i27'
p93
sg12
S'i6'
p94
sg13
Nsg14
(lp95
(i__main__
Token
p96
(dp97
g18
I82
sbasg23
I82
sbasg7
g75
sg69
Nsba(i__main__
Chain
p98
(dp99
g3
(lp100
(i__main__
Mention
p101
(dp102
g7
S't3'
p103
sg9
Nsg10
S'i3'
p104
sg12
Nsg13
Nsg14
(lp105
(i__main__
Token
p106
(dp107
g18
I1
sbasg23
I1
sba(i__main__
Mention
p108
(dp109
g7
S't3'
p110
sg9
S'Coreference-Identity'
p111
sg10
S'i7'
p112
sg12
S'i3'
p113
sg13
Nsg14
(lp114
(i__main__
Token
p115
(dp116
g18
I10
sbasg23
I10
sba(i__main__
Mention
p117
(dp118
g7
S't3'
p119
sg9
S'Coreference-Identity'
p120
sg10
S'i16'
p121
sg12
S'i7'
p122
sg13
Nsg14
(lp123
(i__main__
Token
p124
(dp125
g18
I37
sbasg23
I37
sba(i__main__
Mention
p126
(dp127
g7
S't3'
p128
sg9
S'Coreference-Identity'
p129
sg10
S'i28'
p130
sg12
S'i16'
p131
sg13
Nsg14
(lp132
(i__main__
Token
p133
(dp134
g18
I85
sbasg23
I85
sbasg7
g103
sg69
Nsba(i__main__
Chain
p135
(dp136
g3
(lp137
(i__main__
Mention
p138
(dp139
g7
S't4'
p140
sg9
Nsg10
S'i5'
p141
sg12
Nsg13
Nsg14
(lp142
(i__main__
Token
p143
(dp144
g18
I7
sbasg23
I7
sba(i__main__
Mention
p145
(dp146
g7
S't4'
p147
sg9
S'Coreference-Identity'
p148
sg10
S'i15'
p149
sg12
S'i5'
p150
sg13
Nsg14
(lp151
(i__main__
Token
p152
(dp153
g18
I33
sbasg23
I33
sbasg7
g140
sg69
Nsba(i__main__
Chain
p154
(dp155
g3
(lp156
(i__main__
Mention
p157
(dp158
g7
S't5'
p159
sg9
Nsg10
S'i8'
p160
sg12
Nsg13
Nsg14
(lp161
(i__main__
Token
p162
(dp163
g18
I10
sba(i__main__
Token
p164
(dp165
g18
I11
sbasg23
I11
sba(i__main__
Mention
p166
(dp167
g7
S't5'
p168
sg9
S'Coreference-RPartOf'
p169
sg10
S'i29'
p170
sg12
S'i8'
p171
sg13
Nsg14
(lp172
(i__main__
Token
p173
(dp174
g18
I85
sba(i__main__
Token
p175
(dp176
g18
I86
sbasg23
I86
sbasg7
g159
sg69
Nsba(i__main__
Chain
p177
(dp178
g3
(lp179
(i__main__
Mention
p180
(dp181
g7
S't6'
p182
sg9
Nsg10
S'i9'
p183
sg12
Nsg13
Nsg14
(lp184
(i__main__
Token
p185
(dp186
g18
I15
sba(i__main__
Token
p187
(dp188
g18
I16
sbasg23
I16
sba(i__main__
Mention
p189
(dp190
g7
S't6'
p191
sg9
S'Coreference-NounComplement'
p192
sg10
S'i10'
p193
sg12
S'i9'
p194
sg13
Nsg14
(lp195
(i__main__
Token
p196
(dp197
g18
I17
sba(i__main__
Token
p198
(dp199
g18
I18
sbasg23
I18
sba(i__main__
Mention
p200
(dp201
g7
S't6'
p202
sg9
S'Anaphora-C'
p203
sg10
S'i11'
p204
sg12
S'i10'
p205
sg13
Nsg14
(lp206
(i__main__
Token
p207
(dp208
g18
I20
sbasg23
I20
sba(i__main__
Mention
p209
(dp210
g7
S't6'
p211
sg9
S'Coreference-Identity'
p212
sg10
S'i30'
p213
sg12
S'i11'
p214
sg13
Nsg14
(lp215
(i__main__
Token
p216
(dp217
g18
I91
sbasg23
I91
sbasg7
g182
sg69
Nsba(i__main__
Chain
p218
(dp219
g3
(lp220
(i__main__
Mention
p221
(dp222
g7
S't7'
p223
sg9
Nsg10
S'i12'
p224
sg12
Nsg13
Nsg14
(lp225
(i__main__
Token
p226
(dp227
g18
I21
sbasg23
I21
sba(i__main__
Mention
p228
(dp229
g7
S't7'
p230
sg9
S'Coreference-NounComplement'
p231
sg10
S'i13'
p232
sg12
S'i12'
p233
sg13
Nsg14
(lp234
(i__main__
Token
p235
(dp236
g18
I22
sba(i__main__
Token
p237
(dp238
g18
I23
sbasg23
I23
sba(i__main__
Mention
p239
(dp240
g7
S't7'
p241
sg9
S'Coreference-Identity'
p242
sg10
S'i31'
p243
sg12
S'i13'
p244
sg13
Nsg14
(lp245
(i__main__
Token
p246
(dp247
g18
I93
sbasg23
I93
sbasg7
g223
sg69
Nsba(i__main__
Chain
p248
(dp249
g3
(lp250
(i__main__
Mention
p251
(dp252
g7
S't8'
p253
sg9
Nsg10
S'i14'
p254
sg12
Nsg13
Nsg14
(lp255
(i__main__
Token
p256
(dp257
g18
I25
sbasg23
I25
sba(i__main__
Mention
p258
(dp259
g7
S't8'
p260
sg9
S'Coreference-Identity'
p261
sg10
S'i32'
p262
sg12
S'i14'
p263
sg13
Nsg14
(lp264
(i__main__
Token
p265
(dp266
g18
I95
sbasg23
I95
sbasg7
g253
sg69
Nsba(i__main__
Chain
p267
(dp268
g3
(lp269
(i__main__
Mention
p270
(dp271
g7
S't9'
p272
sg9
Nsg10
S'i18'
p273
sg12
Nsg13
Nsg14
(lp274
(i__main__
Token
p275
(dp276
g18
I45
sba(i__main__
Token
p277
(dp278
g18
I46
sbasg23
I46
sba(i__main__
Mention
p279
(dp280
g7
S't9'
p281
sg9
S'Coreference-NounComplement'
p282
sg10
S'i19'
p283
sg12
S'i18'
p284
sg13
Nsg14
(lp285
(i__main__
Token
p286
(dp287
g18
I47
sba(i__main__
Token
p288
(dp289
g18
I48
sbasg23
I48
sba(i__main__
Mention
p290
(dp291
g7
S't9'
p292
sg9
S'Coreference-Identity'
p293
sg10
S'i34'
p294
sg12
S'i19'
p295
sg13
Nsg14
(lp296
(i__main__
Token
p297
(dp298
g18
I107
sbasg23
I107
sbasg7
g272
sg69
Nsba(i__main__
Chain
p299
(dp300
g3
(lp301
(i__main__
Mention
p302
(dp303
g7
S't10'
p304
sg9
Nsg10
S'i20'
p305
sg12
Nsg13
Nsg14
(lp306
(i__main__
Token
p307
(dp308
g18
I51
sbasg23
I51
sba(i__main__
Mention
p309
(dp310
g7
S't10'
p311
sg9
S'Coreference-Identity'
p312
sg10
S'i35'
p313
sg12
S'i20'
p314
sg13
Nsg14
(lp315
(i__main__
Token
p316
(dp317
g18
I110
sbasg23
I110
sbasg7
g304
sg69
Nsba(i__main__
Chain
p318
(dp319
g3
(lp320
(i__main__
Mention
p321
(dp322
g7
S't11'
p323
sg9
Nsg10
S'i22'
p324
sg12
Nsg13
Nsg14
(lp325
(i__main__
Token
p326
(dp327
g18
I57
sba(i__main__
Token
p328
(dp329
g18
I58
sba(i__main__
Token
p330
(dp331
g18
I59
sba(i__main__
Token
p332
(dp333
g18
I60
sba(i__main__
Token
p334
(dp335
g18
I61
sba(i__main__
Token
p336
(dp337
g18
I62
sbasg23
I58
sba(i__main__
Mention
p338
(dp339
g7
S't11'
p340
sg9
S'Coreference-NounComplement'
p341
sg10
S'i23'
p342
sg12
S'i22'
p343
sg13
Nsg14
(lp344
(i__main__
Token
p345
(dp346
g18
I63
sba(i__main__
Token
p347
(dp348
g18
I64
sbasg23
I64
sbasg7
g323
sg69
Nsba(i__main__
Chain
p349
(dp350
g3
(lp351
(i__main__
Mention
p352
(dp353
g7
S't12'
p354
sg9
Nsg10
S'i25'
p355
sg12
Nsg13
Nsg14
(lp356
(i__main__
Token
p357
(dp358
g18
I78
sbasg23
I78
sba(i__main__
Mention
p359
(dp360
g7
S't12'
p361
sg9
S'Coreference-NounComplement'
p362
sg10
S'i26'
p363
sg12
S'i25'
p364
sg13
Nsg14
(lp365
(i__main__
Token
p366
(dp367
g18
I79
sba(i__main__
Token
p368
(dp369
g18
I80
sbasg23
I80
sbasg7
g354
sg69
Nsba(i__main__
Chain
p370
(dp371
g3
(lp372
(i__main__
Mention
p373
(dp374
g7
S't13'
p375
sg9
Nsg10
S'i36'
p376
sg12
Nsg13
Nsg14
(lp377
(i__main__
Token
p378
(dp379
g18
I125
sba(i__main__
Token
p380
(dp381
g18
I126
sbasg23
I126
sba(i__main__
Mention
p382
(dp383
g7
S't13'
p384
sg9
S'Anaphora-C'
p385
sg10
S'i37'
p386
sg12
S'i36'
p387
sg13
Nsg14
(lp388
(i__main__
Token
p389
(dp390
g18
I128
sbasg23
I128
sbasg7
g375
sg69
Nsba.