(lp0
(i__main__
Chain
p1
(dp2
S'mentionList'
p3
(lp4
(i__main__
Mention
p5
(dp6
S'chainId'
p7
S't1'
p8
sS'relType'
p9
NsS'mentionId'
p10
S'i1'
p11
sS'antecedentId'
p12
NsS'crefMod'
p13
NsS'tokenList'
p14
(lp15
(i__main__
Token
p16
(dp17
S'tokenId'
p18
I3
sbasS'mentionHead'
p19
I3
sba(i__main__
Mention
p20
(dp21
g7
S't1'
p22
sg9
S'Coreference-NounComplement'
p23
sg10
S'i2'
p24
sg12
S'i1'
p25
sg13
Nsg14
(lp26
(i__main__
Token
p27
(dp28
g18
I4
sba(i__main__
Token
p29
(dp30
g18
I5
sbasg19
I5
sba(i__main__
Mention
p31
(dp32
g7
S't1'
p33
sg9
S'Anaphora-C'
p34
sg10
S'i4'
p35
sg12
S'i2'
p36
sg13
Nsg14
(lp37
(i__main__
Token
p38
(dp39
g18
I16
sbasg19
I16
sba(i__main__
Mention
p40
(dp41
g7
S't1'
p42
sg9
S'Anaphora-C'
p43
sg10
S'i8'
p44
sg12
S'i4'
p45
sg13
Nsg14
(lp46
(i__main__
Token
p47
(dp48
g18
I33
sbasg19
I33
sba(i__main__
Mention
p49
(dp50
g7
S't1'
p51
sg9
S'Coreference-Noun-Noun'
p52
sg10
S'i13'
p53
sg12
S'i8'
p54
sg13
Nsg14
(lp55
(i__main__
Token
p56
(dp57
g18
I55
sba(i__main__
Token
p58
(dp59
g18
I56
sbasg19
I56
sba(i__main__
Mention
p60
(dp61
g7
S't1'
p62
sg9
S'Anaphora-C'
p63
sg10
S'i15'
p64
sg12
S'i13'
p65
sg13
Nsg14
(lp66
(i__main__
Token
p67
(dp68
g18
I64
sbasg19
I64
sba(i__main__
Mention
p69
(dp70
g7
S't1'
p71
sg9
S'Anaphora-C'
p72
sg10
S'i19'
p73
sg12
S'i15'
p74
sg13
Nsg14
(lp75
(i__main__
Token
p76
(dp77
g18
I81
sbasg19
I81
sba(i__main__
Mention
p78
(dp79
g7
S't1'
p80
sg9
S'Coreference-Noun-Noun'
p81
sg10
S'i21'
p82
sg12
S'i19'
p83
sg13
Nsg14
(lp84
(i__main__
Token
p85
(dp86
g18
I100
sbasg19
I100
sba(i__main__
Mention
p87
(dp88
g7
S't1'
p89
sg9
S'Coreference-Identity'
p90
sg10
S'i26'
p91
sg12
S'i21'
p92
sg13
Nsg14
(lp93
(i__main__
Token
p94
(dp95
g18
I122
sbasg19
I122
sba(i__main__
Mention
p96
(dp97
g7
S't1'
p98
sg9
S'Anaphora-C'
p99
sg10
S'i27'
p100
sg12
S'i26'
p101
sg13
Nsg14
(lp102
(i__main__
Token
p103
(dp104
g18
I123
sbasg19
I123
sba(i__main__
Mention
p105
(dp106
g7
S't1'
p107
sg9
S'Anaphora-C'
p108
sg10
S'i31'
p109
sg12
S'i27'
p110
sg13
Nsg14
(lp111
(i__main__
Token
p112
(dp113
g18
I150
sbasg19
I150
sba(i__main__
Mention
p114
(dp115
g7
S't1'
p116
sg9
S'Anaphora-C'
p117
sg10
S'i38'
p118
sg12
S'i31'
p119
sg13
Nsg14
(lp120
(i__main__
Token
p121
(dp122
g18
I169
sbasg19
I169
sba(i__main__
Mention
p123
(dp124
g7
S't1'
p125
sg9
S'Anaphora-C'
p126
sg10
S'i41'
p127
sg12
S'i38'
p128
sg13
Nsg14
(lp129
(i__main__
Token
p130
(dp131
g18
I181
sbasg19
I181
sba(i__main__
Mention
p132
(dp133
g7
S't1'
p134
sg9
S'Anaphora-C'
p135
sg10
S'i44'
p136
sg12
S'i41'
p137
sg13
Nsg14
(lp138
(i__main__
Token
p139
(dp140
g18
I203
sbasg19
I203
sba(i__main__
Mention
p141
(dp142
g7
S't1'
p143
sg9
S'Anaphora-C'
p144
sg10
S'i47'
p145
sg12
S'i44'
p146
sg13
Nsg14
(lp147
(i__main__
Token
p148
(dp149
g18
I217
sbasg19
I217
sba(i__main__
Mention
p150
(dp151
g7
S't1'
p152
sg9
S'Coreference-Noun-Noun'
p153
sg10
S'i52'
p154
sg12
S'i47'
p155
sg13
Nsg14
(lp156
(i__main__
Token
p157
(dp158
g18
I238
sba(i__main__
Token
p159
(dp160
g18
I239
sbasg19
I239
sba(i__main__
Mention
p161
(dp162
g7
S't1'
p163
sg9
S'Anaphora-C'
p164
sg10
S'i54'
p165
sg12
S'i52'
p166
sg13
Nsg14
(lp167
(i__main__
Token
p168
(dp169
g18
I260
sbasg19
I260
sba(i__main__
Mention
p170
(dp171
g7
S't1'
p172
sg9
S'Coreference-Noun-Noun'
p173
sg10
S'i57'
p174
sg12
S'i54'
p175
sg13
Nsg14
(lp176
(i__main__
Token
p177
(dp178
g18
I281
sbasg19
I281
sba(i__main__
Mention
p179
(dp180
g7
S't1'
p181
sg9
S'Anaphora-C'
p182
sg10
S'i61'
p183
sg12
S'i57'
p184
sg13
Nsg14
(lp185
(i__main__
Token
p186
(dp187
g18
I294
sbasg19
I294
sbasg7
g8
sS'chainHead'
p188
Nsba(i__main__
Chain
p189
(dp190
g3
(lp191
(i__main__
Mention
p192
(dp193
g7
S't2'
p194
sg9
S'anaphora-?'
p195
sg10
S'i3'
p196
sg12
S'i3'
p197
sg13
Nsg14
(lp198
(i__main__
Token
p199
(dp200
g18
I14
sbasg19
I14
sbasg7
g194
sg188
Nsba(i__main__
Chain
p201
(dp202
g3
(lp203
(i__main__
Mention
p204
(dp205
g7
S't3'
p206
sg9
Nsg10
S'i5'
p207
sg12
Nsg13
Nsg14
(lp208
(i__main__
Token
p209
(dp210
g18
I20
sba(i__main__
Token
p211
(dp212
g18
I21
sbasg19
I21
sba(i__main__
Mention
p213
(dp214
g7
S't3'
p215
sg9
S'Coreference-Noun-Noun'
p216
sg10
S'i45'
p217
sg12
S'i5'
p218
sg13
Nsg14
(lp219
(i__main__
Token
p220
(dp221
g18
I204
sba(i__main__
Token
p222
(dp223
g18
I205
sbasg19
I205
sba(i__main__
Mention
p224
(dp225
g7
S't3'
p226
sg9
S'Coreference-Apposition'
p227
sg10
S'i48'
p228
sg12
S'i45'
p229
sg13
Nsg14
(lp230
(i__main__
Token
p231
(dp232
g18
I221
sba(i__main__
Token
p233
(dp234
g18
I222
sbasg19
I222
sbasg7
g206
sg188
Nsba(i__main__
Chain
p235
(dp236
g3
(lp237
(i__main__
Mention
p238
(dp239
g7
S't4'
p240
sg9
Nsg10
S'i6'
p241
sg12
Nsg13
Nsg14
(lp242
(i__main__
Token
p243
(dp244
g18
I27
sba(i__main__
Token
p245
(dp246
g18
I28
sbasg19
I28
sba(i__main__
Mention
p247
(dp248
g7
S't4'
p249
sg9
S'Coreference-Noun-Noun'
p250
sg10
S'i28'
p251
sg12
S'i6'
p252
sg13
Nsg14
(lp253
(i__main__
Token
p254
(dp255
g18
I127
sbasg19
I127
sba(i__main__
Mention
p256
(dp257
g7
S't4'
p258
sg9
S'Coreference-Noun-Noun'
p259
sg10
S'i49'
p260
sg12
S'i28'
p261
sg13
Nsg14
(lp262
(i__main__
Token
p263
(dp264
g18
I230
sbasg19
I230
sba(i__main__
Mention
p265
(dp266
g7
S't4'
p267
sg9
S'Coreference-Noun-Noun'
p268
sg10
S'i51'
p269
sg12
S'i49'
p270
sg13
Nsg14
(lp271
(i__main__
Token
p272
(dp273
g18
I236
sbasg19
I236
sbasg7
g240
sg188
Nsba(i__main__
Chain
p274
(dp275
g3
(lp276
(i__main__
Mention
p277
(dp278
g7
S't5'
p279
sg9
Nsg10
S'i7'
p280
sg12
Nsg13
Nsg14
(lp281
(i__main__
Token
p282
(dp283
g18
I30
sbasg19
I30
sba(i__main__
Mention
p284
(dp285
g7
S't5'
p286
sg9
S'Coreference-Identity'
p287
sg10
S'i25'
p288
sg12
S'i7'
p289
sg13
Nsg14
(lp290
(i__main__
Token
p291
(dp292
g18
I119
sbasg19
I119
sba(i__main__
Mention
p293
(dp294
g7
S't5'
p295
sg9
S'Coreference-Identity'
p296
sg10
S'i50'
p297
sg12
S'i25'
p298
sg13
Nsg14
(lp299
(i__main__
Token
p300
(dp301
g18
I230
sba(i__main__
Token
p302
(dp303
g18
I231
sbasg19
I231
sbasg7
g279
sg188
Nsba(i__main__
Chain
p304
(dp305
g3
(lp306
(i__main__
Mention
p307
(dp308
g7
S't6'
p309
sg9
Nsg10
S'i9'
p310
sg12
Nsg13
Nsg14
(lp311
(i__main__
Token
p312
(dp313
g18
I34
sba(i__main__
Token
p314
(dp315
g18
I35
sba(i__main__
Token
p316
(dp317
g18
I36
sba(i__main__
Token
p318
(dp319
g18
I37
sbasg19
I37
sba(i__main__
Mention
p320
(dp321
g7
S't6'
p322
sg9
S'Anaphora-E'
p323
sg10
S'i11'
p324
sg12
S'i9'
p325
sg13
Nsg14
(lp326
(i__main__
Token
p327
(dp328
g18
I43
sbasg19
I43
sba(i__main__
Mention
p329
(dp330
g7
S't6'
p331
sg9
S'Coreference-Identity'
p332
sg10
S'i39'
p333
sg12
S'i11'
p334
sg13
Nsg14
(lp335
(i__main__
Token
p336
(dp337
g18
I170
sba(i__main__
Token
p338
(dp339
g18
I171
sba(i__main__
Token
p340
(dp341
g18
I172
sba(i__main__
Token
p342
(dp343
g18
I173
sbasg19
I173
sba(i__main__
Mention
p344
(dp345
g7
S't6'
p346
sg9
S'Coreference-Identity'
p347
sg10
S'i42'
p348
sg12
S'i39'
p349
sg13
Nsg14
(lp350
(i__main__
Token
p351
(dp352
g18
I187
sba(i__main__
Token
p353
(dp354
g18
I188
sba(i__main__
Token
p355
(dp356
g18
I189
sba(i__main__
Token
p357
(dp358
g18
I190
sbasg19
I190
sbasg7
g309
sg188
Nsba(i__main__
Chain
p359
(dp360
g3
(lp361
(i__main__
Mention
p362
(dp363
g7
S't7'
p364
sg9
Nsg10
S'i10'
p365
sg12
Nsg13
Nsg14
(lp366
(i__main__
Token
p367
(dp368
g18
I39
sbasg19
I39
sba(i__main__
Mention
p369
(dp370
g7
S't7'
p371
sg9
S'Coreference-Identity'
p372
sg10
S'i40'
p373
sg12
S'i10'
p374
sg13
Nsg14
(lp375
(i__main__
Token
p376
(dp377
g18
I175
sbasg19
I175
sba(i__main__
Mention
p378
(dp379
g7
S't7'
p380
sg9
S'Coreference-InferedRelation'
p381
sg10
S'i43'
p382
sg12
S'i40'
p383
sg13
Nsg14
(lp384
(i__main__
Token
p385
(dp386
g18
I192
sbasg19
I192
sbasg7
g364
sg188
Nsba(i__main__
Chain
p387
(dp388
g3
(lp389
(i__main__
Mention
p390
(dp391
g7
S't8'
p392
sg9
S'anaphora-?'
p393
sg10
S'i12'
p394
sg12
S'i12'
p395
sg13
Nsg14
(lp396
(i__main__
Token
p397
(dp398
g18
I44
sbasg19
I44
sbasg7
g392
sg188
Nsba(i__main__
Chain
p399
(dp400
g3
(lp401
(i__main__
Mention
p402
(dp403
g7
S't9'
p404
sg9
Nsg10
S'i14'
p405
sg12
Nsg13
Nsg14
(lp406
(i__main__
Token
p407
(dp408
g18
I57
sbasg19
I57
sba(i__main__
Mention
p409
(dp410
g7
S't9'
p411
sg9
S'Coreference-Identity'
p412
sg10
S'i18'
p413
sg12
S'i14'
p414
sg13
Nsg14
(lp415
(i__main__
Token
p416
(dp417
g18
I76
sbasg19
I76
sba(i__main__
Mention
p418
(dp419
g7
S't9'
p420
sg9
S'Coreference-Identity'
p421
sg10
S'i29'
p422
sg12
S'i18'
p423
sg13
Nsg14
(lp424
(i__main__
Token
p425
(dp426
g18
I131
sbasg19
I131
sba(i__main__
Mention
p427
(dp428
g7
S't9'
p429
sg9
S'Coreference-Identity'
p430
sg10
S'i30'
p431
sg12
S'i29'
p432
sg13
Nsg14
(lp433
(i__main__
Token
p434
(dp435
g18
I138
sbasg19
I138
sba(i__main__
Mention
p436
(dp437
g7
S't9'
p438
sg9
S'Coreference-Identity'
p439
sg10
S'i33'
p440
sg12
S'i30'
p441
sg13
Nsg14
(lp442
(i__main__
Token
p443
(dp444
g18
I156
sbasg19
I156
sba(i__main__
Mention
p445
(dp446
g7
S't9'
p447
sg9
S'Coreference-Identity'
p448
sg10
S'i56'
p449
sg12
S'i33'
p450
sg13
Nsg14
(lp451
(i__main__
Token
p452
(dp453
g18
I276
sbasg19
I276
sbasg7
g404
sg188
Nsba(i__main__
Chain
p454
(dp455
g3
(lp456
(i__main__
Mention
p457
(dp458
g7
S't10'
p459
sg9
Nsg10
S'i16'
p460
sg12
Nsg13
Nsg14
(lp461
(i__main__
Token
p462
(dp463
g18
I65
sba(i__main__
Token
p464
(dp465
g18
I66
sba(i__main__
Token
p466
(dp467
g18
I67
sbasg19
I67
sba(i__main__
Mention
p468
(dp469
g7
S't10'
p470
sg9
S'Coreference-Abbreviation'
p471
sg10
S'i17'
p472
sg12
S'i16'
p473
sg13
Nsg14
(lp474
(i__main__
Token
p475
(dp476
g18
I69
sbasg19
I69
sba(i__main__
Mention
p477
(dp478
g7
S't10'
p479
sg9
S'Coreference-Identity'
p480
sg10
S'i20'
p481
sg12
S'i17'
p482
sg13
Nsg14
(lp483
(i__main__
Token
p484
(dp485
g18
I82
sbasg19
I82
sba(i__main__
Mention
p486
(dp487
g7
S't10'
p488
sg9
S'Coreference-Identity'
p489
sg10
S'i53'
p490
sg12
S'i20'
p491
sg13
Nsg14
(lp492
(i__main__
Token
p493
(dp494
g18
I254
sbasg19
I254
sbasg7
g459
sg188
Nsba(i__main__
Chain
p495
(dp496
g3
(lp497
(i__main__
Mention
p498
(dp499
g7
S't11'
p500
sg9
Nsg10
S'i22'
p501
sg12
Nsg13
Nsg14
(lp502
(i__main__
Token
p503
(dp504
g18
I101
sbasg19
I101
sba(i__main__
Mention
p505
(dp506
g7
S't11'
p507
sg9
S'Coreference-Apposition'
p508
sg10
S'i23'
p509
sg12
S'i22'
p510
sg13
Nsg14
(lp511
(i__main__
Token
p512
(dp513
g18
I103
sbasg19
I103
sba(i__main__
Mention
p514
(dp515
g7
S't11'
p516
sg9
S'Coreference-Identity'
p517
sg10
S'i24'
p518
sg12
S'i23'
p519
sg13
Nsg14
(lp520
(i__main__
Token
p521
(dp522
g18
I108
sba(i__main__
Token
p523
(dp524
g18
I109
sbasg19
I109
sbasg7
g500
sg188
Nsba(i__main__
Chain
p525
(dp526
g3
(lp527
(i__main__
Mention
p528
(dp529
g7
S't12'
p530
sg9
Nsg10
S'i32'
p531
sg12
Nsg13
Nsg14
(lp532
(i__main__
Token
p533
(dp534
g18
I151
sbasg19
I151
sba(i__main__
Mention
p535
(dp536
g7
S't12'
p537
sg9
S'Coreference-Identity'
p538
sg10
S'i35'
p539
sg12
S'i32'
p540
sg13
Nsg14
(lp541
(i__main__
Token
p542
(dp543
g18
I159
sbasg19
I159
sbasg7
g530
sg188
Nsba(i__main__
Chain
p544
(dp545
g3
(lp546
(i__main__
Mention
p547
(dp548
g7
S't13'
p549
sg9
Nsg10
S'i34'
p550
sg12
Nsg13
Nsg14
(lp551
(i__main__
Token
p552
(dp553
g18
I157
sbasg19
I157
sba(i__main__
Mention
p554
(dp555
g7
S't13'
p556
sg9
S'Anaphora-RT'
p557
sg10
S'i36'
p558
sg12
S'i34'
p559
sg13
Nsg14
(lp560
(i__main__
Token
p561
(dp562
g18
I159
sba(i__main__
Token
p563
(dp564
g18
I160
sba(i__main__
Token
p565
(dp566
g18
I161
sba(i__main__
Token
p567
(dp568
g18
I162
sba(i__main__
Token
p569
(dp570
g18
I163
sba(i__main__
Token
p571
(dp572
g18
I164
sba(i__main__
Token
p573
(dp574
g18
I165
sbasg19
I165
sba(i__main__
Mention
p575
(dp576
g7
S't13'
p577
sg9
S'Anaphora-T'
p578
sg10
S'i37'
p579
sg12
S'i36'
p580
sg13
Nsg14
(lp581
(i__main__
Token
p582
(dp583
g18
I167
sbasg19
I167
sbasg7
g549
sg188
Nsba(i__main__
Chain
p584
(dp585
g3
(lp586
(i__main__
Mention
p587
(dp588
g7
S't14'
p589
sg9
S'anaphora-?'
p590
sg10
S'i46'
p591
sg12
S'i46'
p592
sg13
Nsg14
(lp593
(i__main__
Token
p594
(dp595
g18
I216
sbasg19
I216
sbasg7
g589
sg188
Nsba(i__main__
Chain
p596
(dp597
g3
(lp598
(i__main__
Mention
p599
(dp600
g7
S't15'
p601
sg9
S'anaphora-?'
p602
sg10
S'i55'
p603
sg12
S'i55'
p604
sg13
Nsg14
(lp605
(i__main__
Token
p606
(dp607
g18
I265
sbasg19
I265
sbasg7
g601
sg188
Nsba(i__main__
Chain
p608
(dp609
g3
(lp610
(i__main__
Mention
p611
(dp612
g7
S't16'
p613
sg9
S'anaphora-?'
p614
sg10
S'i58'
p615
sg12
S'i58'
p616
sg13
Nsg14
(lp617
(i__main__
Token
p618
(dp619
g18
I283
sbasg19
I283
sbasg7
g613
sg188
Nsba(i__main__
Chain
p620
(dp621
g3
(lp622
(i__main__
Mention
p623
(dp624
g7
S't17'
p625
sg9
Nsg10
S'i59'
p626
sg12
Nsg13
Nsg14
(lp627
(i__main__
Token
p628
(dp629
g18
I284
sba(i__main__
Token
p630
(dp631
g18
I285
sba(i__main__
Token
p632
(dp633
g18
I286
sba(i__main__
Token
p634
(dp635
g18
I287
sba(i__main__
Token
p636
(dp637
g18
I288
sba(i__main__
Token
p638
(dp639
g18
I289
sbasg19
I288
sba(i__main__
Mention
p640
(dp641
g7
S't17'
p642
sg9
S'Anaphora-E'
p643
sg10
S'i60'
p644
sg12
S'i59'
p645
sg13
Nsg14
(lp646
(i__main__
Token
p647
(dp648
g18
I291
sbasg19
I291
sbasg7
g625
sg188
Nsba.