(lp0
(i__main__
Chain
p1
(dp2
S'mentionList'
p3
(lp4
(i__main__
Mention
p5
(dp6
S'chainId'
p7
S't1'
p8
sS'relType'
p9
NsS'mentionId'
p10
S'i1'
p11
sS'antecedentId'
p12
NsS'crefMod'
p13
NsS'tokenList'
p14
(lp15
(i__main__
Token
p16
(dp17
S'tokenId'
p18
I0
sbasS'mentionHead'
p19
I0
sba(i__main__
Mention
p20
(dp21
g7
S't1'
p22
sg9
Nsg10
S'i72'
p23
sg12
Nsg13
Nsg14
(lp24
(i__main__
Token
p25
(dp26
g18
I351
sba(i__main__
Token
p27
(dp28
g18
I352
sbasg19
Nsba(i__main__
Mention
p29
(dp30
g7
S't1'
p31
sg9
Nsg10
S'i81'
p32
sg12
Nsg13
Nsg14
(lp33
(i__main__
Token
p34
(dp35
g18
I396
sba(i__main__
Token
p36
(dp37
g18
I397
sbasg19
Nsbasg7
g8
sS'chainHead'
p38
Nsba(i__main__
Chain
p39
(dp40
g3
(lp41
(i__main__
Mention
p42
(dp43
g7
S't2'
p44
sg9
Nsg10
S'i2'
p45
sg12
Nsg13
Nsg14
(lp46
(i__main__
Token
p47
(dp48
g18
I2
sbasg19
I2
sba(i__main__
Mention
p49
(dp50
g7
S't2'
p51
sg9
S'Coreference-Identity'
p52
sg10
S'i9'
p53
sg12
S'i2'
p54
sg13
Nsg14
(lp55
(i__main__
Token
p56
(dp57
g18
I49
sbasg19
I49
sba(i__main__
Mention
p58
(dp59
g7
S't2'
p60
sg9
S'Coreference-Identity'
p61
sg10
S'i64'
p62
sg12
S'i9'
p63
sg13
Nsg14
(lp64
(i__main__
Token
p65
(dp66
g18
I325
sbasg19
I325
sba(i__main__
Mention
p67
(dp68
g7
S't2'
p69
sg9
Nsg10
S'i71'
p70
sg12
Nsg13
Nsg14
(lp71
(i__main__
Token
p72
(dp73
g18
I351
sba(i__main__
Token
p74
(dp75
g18
I352
sbasg19
Nsba(i__main__
Mention
p76
(dp77
g7
S't2'
p78
sg9
Nsg10
S'i82'
p79
sg12
Nsg13
Nsg14
(lp80
(i__main__
Token
p81
(dp82
g18
I396
sba(i__main__
Token
p83
(dp84
g18
I397
sbasg19
Nsba(i__main__
Mention
p85
(dp86
g7
S't2'
p87
sg9
S'Coreference-PartOf'
p88
sg10
S'i97'
p89
sg12
S'i102'
p90
sg13
Nsg14
(lp91
(i__main__
Token
p92
(dp93
g18
I446
sbasg19
I446
sbasg7
g44
sg38
Nsba(i__main__
Chain
p94
(dp95
g3
(lp96
(i__main__
Mention
p97
(dp98
g7
S't3'
p99
sg9
Nsg10
S'i3'
p100
sg12
Nsg13
Nsg14
(lp101
(i__main__
Token
p102
(dp103
g18
I10
sbasg19
I10
sba(i__main__
Mention
p104
(dp105
g7
S't3'
p106
sg9
S'Coreference-Identity'
p107
sg10
S'i76'
p108
sg12
S'i3'
p109
sg13
Nsg14
(lp110
(i__main__
Token
p111
(dp112
g18
I365
sba(i__main__
Token
p113
(dp114
g18
I366
sbasg19
I366
sba(i__main__
Mention
p115
(dp116
g7
S't3'
p117
sg9
S'Coreference-Identity'
p118
sg10
S'i90'
p119
sg12
S'i76'
p120
sg13
Nsg14
(lp121
(i__main__
Token
p122
(dp123
g18
I418
sba(i__main__
Token
p124
(dp125
g18
I419
sbasg19
I419
sbasg7
g99
sg38
Nsba(i__main__
Chain
p126
(dp127
g3
(lp128
(i__main__
Mention
p129
(dp130
g7
S't4'
p131
sg9
Nsg10
S'i4'
p132
sg12
Nsg13
Nsg14
(lp133
(i__main__
Token
p134
(dp135
g18
I15
sba(i__main__
Token
p136
(dp137
g18
I16
sbasg19
I16
sba(i__main__
Mention
p138
(dp139
g7
S't4'
p140
sg9
S'Coreference-Identity'
p141
sg10
S'i16'
p142
sg12
S'i4'
p143
sg13
Nsg14
(lp144
(i__main__
Token
p145
(dp146
g18
I76
sba(i__main__
Token
p147
(dp148
g18
I77
sbasg19
I77
sbasg7
g131
sg38
Nsba(i__main__
Chain
p149
(dp150
g3
(lp151
(i__main__
Mention
p152
(dp153
g7
S't5'
p154
sg9
Nsg10
S'i5'
p155
sg12
Nsg13
Nsg14
(lp156
(i__main__
Token
p157
(dp158
g18
I25
sba(i__main__
Token
p159
(dp160
g18
I26
sbasg19
I26
sba(i__main__
Mention
p161
(dp162
g7
S't5'
p163
sg9
S'Anaphora-C'
p164
sg10
S'i6'
p165
sg12
S'i5'
p166
sg13
Nsg14
(lp167
(i__main__
Token
p168
(dp169
g18
I36
sbasg19
I36
sba(i__main__
Mention
p170
(dp171
g7
S't5'
p172
sg9
S'Anaphora-C'
p173
sg10
S'i7'
p174
sg12
S'i6'
p175
sg13
Nsg14
(lp176
(i__main__
Token
p177
(dp178
g18
I44
sbasg19
I44
sba(i__main__
Mention
p179
(dp180
g7
S't5'
p181
sg9
S'Anaphora-C'
p182
sg10
S'i10'
p183
sg12
S'i7'
p184
sg13
Nsg14
(lp185
(i__main__
Token
p186
(dp187
g18
I53
sbasg19
I53
sba(i__main__
Mention
p188
(dp189
g7
S't5'
p190
sg9
S'Anaphora-C'
p191
sg10
S'i12'
p192
sg12
S'i10'
p193
sg13
Nsg14
(lp194
(i__main__
Token
p195
(dp196
g18
I60
sbasg19
I60
sba(i__main__
Mention
p197
(dp198
g7
S't5'
p199
sg9
S'Anaphora-C'
p200
sg10
S'i15'
p201
sg12
S'i12'
p202
sg13
Nsg14
(lp203
(i__main__
Token
p204
(dp205
g18
I66
sbasg19
I66
sba(i__main__
Mention
p206
(dp207
g7
S't5'
p208
sg9
S'Coreference-Identity'
p209
sg10
S'i17'
p210
sg12
S'i15'
p211
sg13
Nsg14
(lp212
(i__main__
Token
p213
(dp214
g18
I90
sbasg19
I90
sba(i__main__
Mention
p215
(dp216
g7
S't5'
p217
sg9
S'Anaphora-C'
p218
sg10
S'i18'
p219
sg12
S'i17'
p220
sg13
Nsg14
(lp221
(i__main__
Token
p222
(dp223
g18
I92
sbasg19
I92
sba(i__main__
Mention
p224
(dp225
g7
S't5'
p226
sg9
S'Anaphora-C'
p227
sg10
S'i23'
p228
sg12
S'i18'
p229
sg13
Nsg14
(lp230
(i__main__
Token
p231
(dp232
g18
I114
sbasg19
I114
sba(i__main__
Mention
p233
(dp234
g7
S't5'
p235
sg9
S'Coreference-Identity'
p236
sg10
S'i36'
p237
sg12
S'i23'
p238
sg13
Nsg14
(lp239
(i__main__
Token
p240
(dp241
g18
I192
sba(i__main__
Token
p242
(dp243
g18
I193
sbasg19
I193
sba(i__main__
Mention
p244
(dp245
g7
S't5'
p246
sg9
S'Coreference-Noun-Noun'
p247
sg10
S'i43'
p248
sg12
S'i36'
p249
sg13
Nsg14
(lp250
(i__main__
Token
p251
(dp252
g18
I247
sbasg19
I247
sba(i__main__
Mention
p253
(dp254
g7
S't5'
p255
sg9
S'Coreference-NounComplement'
p256
sg10
S'i44'
p257
sg12
S'i43'
p258
sg13
Nsg14
(lp259
(i__main__
Token
p260
(dp261
g18
I248
sba(i__main__
Token
p262
(dp263
g18
I249
sbasg19
I249
sba(i__main__
Mention
p264
(dp265
g7
S't5'
p266
sg9
S'Anaphora-C'
p267
sg10
S'i46'
p268
sg12
S'i44'
p269
sg13
Nsg14
(lp270
(i__main__
Token
p271
(dp272
g18
I260
sbasg19
I260
sba(i__main__
Mention
p273
(dp274
g7
S't5'
p275
sg9
S'Anaphora-C'
p276
sg10
S'i47'
p277
sg12
S'i46'
p278
sg13
Nsg14
(lp279
(i__main__
Token
p280
(dp281
g18
I261
sbasg19
I261
sba(i__main__
Mention
p282
(dp283
g7
S't5'
p284
sg9
S'Anaphora-C'
p285
sg10
S'i49'
p286
sg12
S'i47'
p287
sg13
Nsg14
(lp288
(i__main__
Token
p289
(dp290
g18
I278
sbasg19
I278
sba(i__main__
Mention
p291
(dp292
g7
S't5'
p293
sg9
S'Anaphora-C'
p294
sg10
S'i52'
p295
sg12
S'i49'
p296
sg13
Nsg14
(lp297
(i__main__
Token
p298
(dp299
g18
I287
sbasg19
I287
sba(i__main__
Mention
p300
(dp301
g7
S't5'
p302
sg9
S'Anaphora-C'
p303
sg10
S'i54'
p304
sg12
S'i52'
p305
sg13
Nsg14
(lp306
(i__main__
Token
p307
(dp308
g18
I298
sbasg19
I298
sba(i__main__
Mention
p309
(dp310
g7
S't5'
p311
sg9
S'Anaphora-C'
p312
sg10
S'i56'
p313
sg12
S'i54'
p314
sg13
Nsg14
(lp315
(i__main__
Token
p316
(dp317
g18
I304
sbasg19
I304
sba(i__main__
Mention
p318
(dp319
g7
S't5'
p320
sg9
S'Coreference-Identity'
p321
sg10
S'i60'
p322
sg12
S'i56'
p323
sg13
Nsg14
(lp324
(i__main__
Token
p325
(dp326
g18
I312
sbasg19
I312
sba(i__main__
Mention
p327
(dp328
g7
S't5'
p329
sg9
S'Anaphora-C'
p330
sg10
S'i61'
p331
sg12
S'i60'
p332
sg13
Nsg14
(lp333
(i__main__
Token
p334
(dp335
g18
I317
sbasg19
I317
sba(i__main__
Mention
p336
(dp337
g7
S't5'
p338
sg9
S'Anaphora-C'
p339
sg10
S'i66'
p340
sg12
S'i61'
p341
sg13
Nsg14
(lp342
(i__main__
Token
p343
(dp344
g18
I335
sbasg19
I335
sba(i__main__
Mention
p345
(dp346
g7
S't5'
p347
sg9
S'Anaphora-C'
p348
sg10
S'i69'
p349
sg12
S'i66'
p350
sg13
Nsg14
(lp351
(i__main__
Token
p352
(dp353
g18
I341
sbasg19
I341
sbasg7
g154
sg38
Nsba(i__main__
Chain
p354
(dp355
g3
(lp356
(i__main__
Mention
p357
(dp358
g7
S't6'
p359
sg9
Nsg10
S'i8'
p360
sg12
Nsg13
Nsg14
(lp361
(i__main__
Token
p362
(dp363
g18
I45
sba(i__main__
Token
p364
(dp365
g18
I46
sbasg19
I46
sba(i__main__
Mention
p366
(dp367
g7
S't6'
p368
sg9
S'Coreference-Identity'
p369
sg10
S'i45'
p370
sg12
S'i8'
p371
sg13
Nsg14
(lp372
(i__main__
Token
p373
(dp374
g18
I256
sba(i__main__
Token
p375
(dp376
g18
I257
sbasg19
I257
sbasg7
g359
sg38
Nsba(i__main__
Chain
p377
(dp378
g3
(lp379
(i__main__
Mention
p380
(dp381
g7
S't7'
p382
sg9
Nsg10
S'i11'
p383
sg12
Nsg13
Nsg14
(lp384
(i__main__
Token
p385
(dp386
g18
I54
sbasg19
I54
sba(i__main__
Mention
p387
(dp388
g7
S't7'
p389
sg9
S'Coreference-Identity'
p390
sg10
S'i14'
p391
sg12
S'i11'
p392
sg13
Nsg14
(lp393
(i__main__
Token
p394
(dp395
g18
I61
sbasg19
I61
sba(i__main__
Mention
p396
(dp397
g7
S't7'
p398
sg9
S'Coreference-Identity'
p399
sg10
S'i19'
p400
sg12
S'i14'
p401
sg13
Nsg14
(lp402
(i__main__
Token
p403
(dp404
g18
I93
sbasg19
I93
sba(i__main__
Mention
p405
(dp406
g7
S't7'
p407
sg9
S'Coreference-Noun-Noun'
p408
sg10
S'i22'
p409
sg12
S'i19'
p410
sg13
Nsg14
(lp411
(i__main__
Token
p412
(dp413
g18
I108
sbasg19
I108
sba(i__main__
Mention
p414
(dp415
g7
S't7'
p416
sg9
S'Coreference-Noun-Noun'
p417
sg10
S'i48'
p418
sg12
S'i22'
p419
sg13
Nsg14
(lp420
(i__main__
Token
p421
(dp422
g18
I262
sbasg19
I262
sba(i__main__
Mention
p423
(dp424
g7
S't7'
p425
sg9
S'Anaphora-C'
p426
sg10
S'i51'
p427
sg12
S'i48'
p428
sg13
Nsg14
(lp429
(i__main__
Token
p430
(dp431
g18
I280
sbasg19
I280
sba(i__main__
Mention
p432
(dp433
g7
S't7'
p434
sg9
S'Anaphora-C'
p435
sg10
S'i62'
p436
sg12
S'i51'
p437
sg13
Nsg14
(lp438
(i__main__
Token
p439
(dp440
g18
I318
sbasg19
I318
sba(i__main__
Mention
p441
(dp442
g7
S't7'
p443
sg9
S'Anaphora-C'
p444
sg10
S'i63'
p445
sg12
S'i62'
p446
sg13
Nsg14
(lp447
(i__main__
Token
p448
(dp449
g18
I324
sbasg19
I324
sba(i__main__
Mention
p450
(dp451
g7
S't7'
p452
sg9
S'Anaphora-C'
p453
sg10
S'i70'
p454
sg12
S'i63'
p455
sg13
Nsg14
(lp456
(i__main__
Token
p457
(dp458
g18
I342
sbasg19
I342
sbasg7
g382
sg38
Nsba(i__main__
Chain
p459
(dp460
g3
(lp461
(i__main__
Mention
p462
(dp463
g7
S't8'
p464
sg9
S'anaphora-?'
p465
sg10
S'i20'
p466
sg12
S'i20'
p467
sg13
Nsg14
(lp468
(i__main__
Token
p469
(dp470
g18
I103
sbasg19
I103
sba(i__main__
Mention
p471
(dp472
g7
S't8'
p473
sg9
S'Anaphora-E'
p474
sg10
S'i21'
p475
sg12
S'i20'
p476
sg13
Nsg14
(lp477
(i__main__
Token
p478
(dp479
g18
I108
sba(i__main__
Token
p480
(dp481
g18
I109
sba(i__main__
Token
p482
(dp483
g18
I110
sba(i__main__
Token
p484
(dp485
g18
I111
sba(i__main__
Token
p486
(dp487
g18
I112
sba(i__main__
Token
p488
(dp489
g18
I113
sba(i__main__
Token
p490
(dp491
g18
I114
sba(i__main__
Token
p492
(dp493
g18
I115
sba(i__main__
Token
p494
(dp495
g18
I116
sba(i__main__
Token
p496
(dp497
g18
I117
sba(i__main__
Token
p498
(dp499
g18
I118
sba(i__main__
Token
p500
(dp501
g18
I119
sba(i__main__
Token
p502
(dp503
g18
I120
sba(i__main__
Token
p504
(dp505
g18
I121
sbasg19
I120
sbasg7
g464
sg38
Nsba(i__main__
Chain
p506
(dp507
g3
(lp508
(i__main__
Mention
p509
(dp510
g7
S't9'
p511
sg9
Nsg10
S'i24'
p512
sg12
Nsg13
Nsg14
(lp513
(i__main__
Token
p514
(dp515
g18
I115
sbasg19
I115
sba(i__main__
Mention
p516
(dp517
g7
S't9'
p518
sg9
S'Coreference-Identity'
p519
sg10
S'i50'
p520
sg12
S'i24'
p521
sg13
Nsg14
(lp522
(i__main__
Token
p523
(dp524
g18
I279
sbasg19
I279
sba(i__main__
Mention
p525
(dp526
g7
S't9'
p527
sg9
S'Coreference-Identity'
p528
sg10
S'i53'
p529
sg12
S'i50'
p530
sg13
Nsg14
(lp531
(i__main__
Token
p532
(dp533
g18
I290
sbasg19
I290
sba(i__main__
Mention
p534
(dp535
g7
S't9'
p536
sg9
S'Coreference-Identity'
p537
sg10
S'i55'
p538
sg12
S'i53'
p539
sg13
Nsg14
(lp540
(i__main__
Token
p541
(dp542
g18
I299
sbasg19
I299
sbasg7
g511
sg38
Nsba(i__main__
Chain
p543
(dp544
g3
(lp545
(i__main__
Mention
p546
(dp547
g7
S't10'
p548
sg9
Nsg10
S'i25'
p549
sg12
Nsg13
Nsg14
(lp550
(i__main__
Token
p551
(dp552
g18
I125
sba(i__main__
Token
p553
(dp554
g18
I126
sbasg19
I126
sba(i__main__
Mention
p555
(dp556
g7
S't10'
p557
sg9
S'Coreference-Identity'
p558
sg10
S'i42'
p559
sg12
S'i25'
p560
sg13
Nsg14
(lp561
(i__main__
Token
p562
(dp563
g18
I222
sbasg19
I222
sbasg7
g548
sg38
Nsba(i__main__
Chain
p564
(dp565
g3
(lp566
(i__main__
Mention
p567
(dp568
g7
S't11'
p569
sg9
Nsg10
S'i26'
p570
sg12
Nsg13
Nsg14
(lp571
(i__main__
Token
p572
(dp573
g18
I131
sba(i__main__
Token
p574
(dp575
g18
I132
sba(i__main__
Token
p576
(dp577
g18
I133
sba(i__main__
Token
p578
(dp579
g18
I134
sbasg19
I134
sba(i__main__
Mention
p580
(dp581
g7
S't11'
p582
sg9
S'Coreference-Identity'
p583
sg10
S'i27'
p584
sg12
S'i26'
p585
sg13
Nsg14
(lp586
(i__main__
Token
p587
(dp588
g18
I141
sba(i__main__
Token
p589
(dp590
g18
I142
sba(i__main__
Token
p591
(dp592
g18
I143
sbasg19
I143
sba(i__main__
Mention
p593
(dp594
g7
S't11'
p595
sg9
S'Anaphora-C'
p596
sg10
S'i28'
p597
sg12
S'i27'
p598
sg13
Nsg14
(lp599
(i__main__
Token
p600
(dp601
g18
I150
sbasg19
I150
sba(i__main__
Mention
p602
(dp603
g7
S't11'
p604
sg9
S'Anaphora-C'
p605
sg10
S'i31'
p606
sg12
S'i28'
p607
sg13
Nsg14
(lp608
(i__main__
Token
p609
(dp610
g18
I157
sbasg19
I157
sba(i__main__
Mention
p611
(dp612
g7
S't11'
p613
sg9
S'Anaphora-C'
p614
sg10
S'i35'
p615
sg12
S'i31'
p616
sg13
Nsg14
(lp617
(i__main__
Token
p618
(dp619
g18
I168
sbasg19
I168
sbasg7
g569
sg38
Nsba(i__main__
Chain
p620
(dp621
g3
(lp622
(i__main__
Mention
p623
(dp624
g7
S't12'
p625
sg9
Nsg10
S'i29'
p626
sg12
Nsg13
Nsg14
(lp627
(i__main__
Token
p628
(dp629
g18
I151
sbasg19
I151
sba(i__main__
Mention
p630
(dp631
g7
S't12'
p632
sg9
S'Anaphora-C'
p633
sg10
S'i33'
p634
sg12
S'i29'
p635
sg13
Nsg14
(lp636
(i__main__
Token
p637
(dp638
g18
I161
sbasg19
I161
sbasg7
g625
sg38
Nsba(i__main__
Chain
p639
(dp640
g3
(lp641
(i__main__
Mention
p642
(dp643
g7
S't13'
p644
sg9
Nsg10
S'i30'
p645
sg12
Nsg13
Nsg14
(lp646
(i__main__
Token
p647
(dp648
g18
I156
sbasg19
I156
sba(i__main__
Mention
p649
(dp650
g7
S't13'
p651
sg9
S'Anaphora-RT'
p652
sg10
S'i32'
p653
sg12
S'i30'
p654
sg13
Nsg14
(lp655
(i__main__
Token
p656
(dp657
g18
I157
sba(i__main__
Token
p658
(dp659
g18
I158
sba(i__main__
Token
p660
(dp661
g18
I159
sbasg19
I159
sbasg7
g644
sg38
Nsba(i__main__
Chain
p662
(dp663
g3
(lp664
(i__main__
Mention
p665
(dp666
g7
S't14'
p667
sg9
S'anaphora-?'
p668
sg10
S'i34'
p669
sg12
S'i34'
p670
sg13
Nsg14
(lp671
(i__main__
Token
p672
(dp673
g18
I167
sbasg19
I167
sbasg7
g667
sg38
Nsba(i__main__
Chain
p674
(dp675
g3
(lp676
(i__main__
Mention
p677
(dp678
g7
S't15'
p679
sg9
Nsg10
S'i37'
p680
sg12
Nsg13
Nsg14
(lp681
(i__main__
Token
p682
(dp683
g18
I195
sbasg19
I195
sba(i__main__
Mention
p684
(dp685
g7
S't15'
p686
sg9
S'Coreference-NounComplement'
p687
sg10
S'i38'
p688
sg12
S'i37'
p689
sg13
Nsg14
(lp690
(i__main__
Token
p691
(dp692
g18
I196
sbasg19
I196
sba(i__main__
Mention
p693
(dp694
g7
S't15'
p695
sg9
S'Anaphora-C'
p696
sg10
S'i39'
p697
sg12
S'i38'
p698
sg13
Nsg14
(lp699
(i__main__
Token
p700
(dp701
g18
I211
sbasg19
I211
sba(i__main__
Mention
p702
(dp703
g7
S't15'
p704
sg9
S'Anaphora-C'
p705
sg10
S'i40'
p706
sg12
S'i39'
p707
sg13
Nsg14
(lp708
(i__main__
Token
p709
(dp710
g18
I212
sbasg19
I212
sba(i__main__
Mention
p711
(dp712
g7
S't15'
p713
sg9
S'Coreference-Identity'
p714
sg10
S'i77'
p715
sg12
S'i40'
p716
sg13
Nsg14
(lp717
(i__main__
Token
p718
(dp719
g18
I375
sbasg19
I375
sba(i__main__
Mention
p720
(dp721
g7
S't15'
p722
sg9
S'Anaphora-C'
p723
sg10
S'i78'
p724
sg12
S'i77'
p725
sg13
Nsg14
(lp726
(i__main__
Token
p727
(dp728
g18
I379
sbasg19
I379
sba(i__main__
Mention
p729
(dp730
g7
S't15'
p731
sg9
S'Anaphora-C'
p732
sg10
S'i79'
p733
sg12
S'i78'
p734
sg13
Nsg14
(lp735
(i__main__
Token
p736
(dp737
g18
I386
sbasg19
I386
sba(i__main__
Mention
p738
(dp739
g7
S't15'
p740
sg9
S'Anaphora-C'
p741
sg10
S'i80'
p742
sg12
S'i79'
p743
sg13
Nsg14
(lp744
(i__main__
Token
p745
(dp746
g18
I390
sbasg19
I390
sba(i__main__
Mention
p747
(dp748
g7
S't15'
p749
sg9
S'Anaphora-C'
p750
sg10
S'i88'
p751
sg12
S'i80'
p752
sg13
Nsg14
(lp753
(i__main__
Token
p754
(dp755
g18
I404
sbasg19
I404
sba(i__main__
Mention
p756
(dp757
g7
S't15'
p758
sg9
S'Coreference-Identity'
p759
sg10
S'i92'
p760
sg12
S'i88'
p761
sg13
Nsg14
(lp762
(i__main__
Token
p763
(dp764
g18
I430
sbasg19
I430
sba(i__main__
Mention
p765
(dp766
g7
S't15'
p767
sg9
S'Anaphora-C'
p768
sg10
S'i93'
p769
sg12
S'i92'
p770
sg13
Nsg14
(lp771
(i__main__
Token
p772
(dp773
g18
I434
sbasg19
I434
sba(i__main__
Mention
p774
(dp775
g7
S't15'
p776
sg9
S'Anaphora-C'
p777
sg10
S'i95'
p778
sg12
S'i93'
p779
sg13
Nsg14
(lp780
(i__main__
Token
p781
(dp782
g18
I440
sbasg19
I440
sba(i__main__
Mention
p783
(dp784
g7
S't15'
p785
sg9
S'Anaphora-C'
p786
sg10
S'i96'
p787
sg12
S'i95'
p788
sg13
Nsg14
(lp789
(i__main__
Token
p790
(dp791
g18
I444
sbasg19
I444
sbasg7
g679
sg38
Nsba(i__main__
Chain
p792
(dp793
g3
(lp794
(i__main__
Mention
p795
(dp796
g7
S't16'
p797
sg9
Nsg10
S'i41'
p798
sg12
Nsg13
Nsg14
(lp799
(i__main__
Token
p800
(dp801
g18
I213
sbasg19
I213
sba(i__main__
Mention
p802
(dp803
g7
S't16'
p804
sg9
S'Coreference-Identity'
p805
sg10
S'i94'
p806
sg12
S'i41'
p807
sg13
Nsg14
(lp808
(i__main__
Token
p809
(dp810
g18
I435
sbasg19
I435
sba(i__main__
Mention
p811
(dp812
g7
S't16'
p813
sg9
S'Anaphora-C'
p814
sg10
S'i98'
p815
sg12
S'i94'
p816
sg13
Nsg14
(lp817
(i__main__
Token
p818
(dp819
g18
I448
sbasg19
I448
sbasg7
g797
sg38
Nsba(i__main__
Chain
p820
(dp821
g3
(lp822
(i__main__
Mention
p823
(dp824
g7
S't17'
p825
sg9
S'anaphora-E'
p826
sg10
S'i57'
p827
sg12
S'i58'
p828
sg13
Nsg14
(lp829
(i__main__
Token
p830
(dp831
g18
I305
sbasg19
I305
sbasg7
g825
sg38
Nsba(i__main__
Chain
p832
(dp833
g3
(lp834
(i__main__
Mention
p835
(dp836
g7
S't18'
p837
sg9
S'anaphora-?'
p838
sg10
S'i59'
p839
sg12
S'i59'
p840
sg13
Nsg14
(lp841
(i__main__
Token
p842
(dp843
g18
I308
sbasg19
I308
sbasg7
g837
sg38
Nsba(i__main__
Chain
p844
(dp845
g3
(lp846
(i__main__
Mention
p847
(dp848
g7
S't19'
p849
sg9
Nsg10
S'i65'
p850
sg12
Nsg13
Nsg14
(lp851
(i__main__
Token
p852
(dp853
g18
I334
sbasg19
I334
sba(i__main__
Mention
p854
(dp855
g7
S't19'
p856
sg9
S'Anaphora-RT'
p857
sg10
S'i67'
p858
sg12
S'i65'
p859
sg13
Nsg14
(lp860
(i__main__
Token
p861
(dp862
g18
I335
sba(i__main__
Token
p863
(dp864
g18
I336
sba(i__main__
Token
p865
(dp866
g18
I337
sba(i__main__
Token
p867
(dp868
g18
I338
sba(i__main__
Token
p869
(dp870
g18
I339
sbasg19
I339
sbasg7
g849
sg38
Nsba(i__main__
Chain
p871
(dp872
g3
(lp873
(i__main__
Mention
p874
(dp875
g7
S't20'
p876
sg9
S'anaphora-?'
p877
sg10
S'i68'
p878
sg12
S'i68'
p879
sg13
Nsg14
(lp880
(i__main__
Token
p881
(dp882
g18
I340
sbasg19
I340
sbasg7
g876
sg38
Nsba(i__main__
Chain
p883
(dp884
g3
(lp885
(i__main__
Mention
p886
(dp887
g7
S't21'
p888
sg9
Nsg10
S'i74'
p889
sg12
Nsg13
Nsg14
(lp890
(i__main__
Token
p891
(dp892
g18
I356
sbasg19
I356
sba(i__main__
Mention
p893
(dp894
g7
S't21'
p895
sg9
S'Anaphora-C'
p896
sg10
S'i75'
p897
sg12
S'i74'
p898
sg13
Nsg14
(lp899
(i__main__
Token
p900
(dp901
g18
I361
sbasg19
I361
sbasg7
g888
sg38
Nsba(i__main__
Chain
p902
(dp903
g3
(lp904
(i__main__
Mention
p905
(dp906
g7
S't22'
p907
sg9
S'anaphora-?'
p908
sg10
S'i83'
p909
sg12
S'i83'
p910
sg13
Nsg14
(lp911
(i__main__
Token
p912
(dp913
g18
I399
sbasg19
I399
sbasg7
g907
sg38
Nsba(i__main__
Chain
p914
(dp915
g3
(lp916
(i__main__
Mention
p917
(dp918
g7
S't23'
p919
sg9
S'anaphora-?'
p920
sg10
S'i84'
p921
sg12
S'i84'
p922
sg13
Nsg14
(lp923
(i__main__
Token
p924
(dp925
g18
I400
sbasg19
I400
sbasg7
g919
sg38
Nsba(i__main__
Chain
p926
(dp927
g3
(lp928
(i__main__
Mention
p929
(dp930
g7
S't24'
p931
sg9
Nsg10
S'i85'
p932
sg12
Nsg13
Nsg14
(lp933
(i__main__
Token
p934
(dp935
g18
I401
sbasg19
I401
sba(i__main__
Mention
p936
(dp937
g7
S't24'
p938
sg9
S'Anaphora-C'
p939
sg10
S'i86'
p940
sg12
S'i85'
p941
sg13
Nsg14
(lp942
(i__main__
Token
p943
(dp944
g18
I403
sbasg19
I403
sba(i__main__
Mention
p945
(dp946
g7
S't24'
p947
sg9
S'Coreference-Identity'
p948
sg10
S'i89'
p949
sg12
S'i86'
p950
sg13
Nsg14
(lp951
(i__main__
Token
p952
(dp953
g18
I409
sba(i__main__
Token
p954
(dp955
g18
I410
sbasg19
I410
sbasg7
g931
sg38
Nsba(i__main__
Chain
p956
(dp957
g3
(lp958
(i__main__
Mention
p959
(dp960
g7
S't25'
p961
sg9
S'anaphora-?'
p962
sg10
S'i91'
p963
sg12
S'i91'
p964
sg13
Nsg14
(lp965
(i__main__
Token
p966
(dp967
g18
I421
sba(i__main__
Token
p968
(dp969
g18
I422
sbasg19
I422
sbasg7
g961
sg38
Nsba.