(lp0
(i__main__
Chain
p1
(dp2
S'mentionList'
p3
(lp4
(i__main__
Mention
p5
(dp6
S'chainId'
p7
S't1'
p8
sS'relType'
p9
NsS'mentionId'
p10
S'i1'
p11
sS'antecedentId'
p12
NsS'crefMod'
p13
NsS'tokenList'
p14
(lp15
(i__main__
Token
p16
(dp17
S'tokenId'
p18
I2
sba(i__main__
Token
p19
(dp20
g18
I3
sba(i__main__
Token
p21
(dp22
g18
I4
sbasS'mentionHead'
p23
I4
sba(i__main__
Mention
p24
(dp25
g7
S't1'
p26
sg9
S'Coreference-Identity'
p27
sg10
S'i2'
p28
sg12
S'i1'
p29
sg13
Nsg14
(lp30
(i__main__
Token
p31
(dp32
g18
I18
sbasg23
I18
sba(i__main__
Mention
p33
(dp34
g7
S't1'
p35
sg9
S'Coreference-Identity'
p36
sg10
S'i6'
p37
sg12
S'i2'
p38
sg13
Nsg14
(lp39
(i__main__
Token
p40
(dp41
g18
I48
sbasg23
I48
sbasg7
g8
sS'chainHead'
p42
Nsba(i__main__
Chain
p43
(dp44
g3
(lp45
(i__main__
Mention
p46
(dp47
g7
S't2'
p48
sg9
Nsg10
S'i3'
p49
sg12
Nsg13
Nsg14
(lp50
(i__main__
Token
p51
(dp52
g18
I20
sba(i__main__
Token
p53
(dp54
g18
I21
sba(i__main__
Token
p55
(dp56
g18
I22
sba(i__main__
Token
p57
(dp58
g18
I23
sba(i__main__
Token
p59
(dp60
g18
I24
sba(i__main__
Token
p61
(dp62
g18
I25
sba(i__main__
Token
p63
(dp64
g18
I26
sba(i__main__
Token
p65
(dp66
g18
I27
sba(i__main__
Token
p67
(dp68
g18
I28
sba(i__main__
Token
p69
(dp70
g18
I29
sba(i__main__
Token
p71
(dp72
g18
I30
sba(i__main__
Token
p73
(dp74
g18
I31
sba(i__main__
Token
p75
(dp76
g18
I32
sba(i__main__
Token
p77
(dp78
g18
I33
sba(i__main__
Token
p79
(dp80
g18
I34
sba(i__main__
Token
p81
(dp82
g18
I35
sba(i__main__
Token
p83
(dp84
g18
I36
sba(i__main__
Token
p85
(dp86
g18
I37
sba(i__main__
Token
p87
(dp88
g18
I38
sba(i__main__
Token
p89
(dp90
g18
I39
sba(i__main__
Token
p91
(dp92
g18
I40
sba(i__main__
Token
p93
(dp94
g18
I41
sbasg23
I38
sba(i__main__
Mention
p95
(dp96
g7
S't2'
p97
sg9
S'Coreference-Noun-Noun'
p98
sg10
S'i4'
p99
sg12
S'i3'
p100
sg13
Nsg14
(lp101
(i__main__
Token
p102
(dp103
g18
I43
sba(i__main__
Token
p104
(dp105
g18
I44
sbasg23
I44
sbasg7
g48
sg42
Nsba(i__main__
Chain
p106
(dp107
g3
(lp108
(i__main__
Mention
p109
(dp110
g7
S't3'
p111
sg9
Nsg10
S'i5'
p112
sg12
Nsg13
Nsg14
(lp113
(i__main__
Token
p114
(dp115
g18
I46
sbasg23
I46
sba(i__main__
Mention
p116
(dp117
g7
S't3'
p118
sg9
S'Coreference-Identity'
p119
sg10
S'i12'
p120
sg12
S'i5'
p121
sg13
Nsg14
(lp122
(i__main__
Token
p123
(dp124
g18
I69
sbasg23
I69
sbasg7
g111
sg42
Nsba(i__main__
Chain
p125
(dp126
g3
(lp127
(i__main__
Mention
p128
(dp129
g7
S't4'
p130
sg9
Nsg10
S'i7'
p131
sg12
Nsg13
Nsg14
(lp132
(i__main__
Token
p133
(dp134
g18
I50
sbasg23
I50
sba(i__main__
Mention
p135
(dp136
g7
S't4'
p137
sg9
Nsg10
S'i10'
p138
sg12
Nsg13
Nsg14
(lp139
(i__main__
Token
p140
(dp141
g18
I53
sbasg23
Nsba(i__main__
Mention
p142
(dp143
g7
S't4'
p144
sg9
Nsg10
S'i18'
p145
sg12
Nsg13
Nsg14
(lp146
(i__main__
Token
p147
(dp148
g18
I110
sba(i__main__
Token
p149
(dp150
g18
I111
sbasg23
Nsba(i__main__
Mention
p151
(dp152
g7
S't4'
p153
sg9
Nsg10
S'i29'
p154
sg12
Nsg13
Nsg14
(lp155
(i__main__
Token
p156
(dp157
g18
I173
sba(i__main__
Token
p158
(dp159
g18
I174
sbasg23
Nsbasg7
g130
sg42
Nsba(i__main__
Chain
p160
(dp161
g3
(lp162
(i__main__
Mention
p163
(dp164
g7
S't5'
p165
sg9
Nsg10
S'i8'
p166
sg12
Nsg13
Nsg14
(lp167
(i__main__
Token
p168
(dp169
g18
I52
sbasg23
I52
sba(i__main__
Mention
p170
(dp171
g7
S't5'
p172
sg9
Nsg10
S'i9'
p173
sg12
Nsg13
Nsg14
(lp174
(i__main__
Token
p175
(dp176
g18
I53
sbasg23
Nsba(i__main__
Mention
p177
(dp178
g7
S't5'
p179
sg9
Nsg10
S'i17'
p180
sg12
Nsg13
Nsg14
(lp181
(i__main__
Token
p182
(dp183
g18
I110
sba(i__main__
Token
p184
(dp185
g18
I111
sbasg23
Nsba(i__main__
Mention
p186
(dp187
g7
S't5'
p188
sg9
S'Coreference-PartOf'
p189
sg10
S'i23'
p190
sg12
S'i17'
p191
sg13
Nsg14
(lp192
(i__main__
Token
p193
(dp194
g18
I139
sba(i__main__
Token
p195
(dp196
g18
I140
sbasg23
I140
sba(i__main__
Mention
p197
(dp198
g7
S't5'
p199
sg9
Nsg10
S'i28'
p200
sg12
Nsg13
Nsg14
(lp201
(i__main__
Token
p202
(dp203
g18
I170
sba(i__main__
Token
p204
(dp205
g18
I174
sbasg23
Nsbasg7
g165
sg42
Nsba(i__main__
Chain
p206
(dp207
g3
(lp208
(i__main__
Mention
p209
(dp210
g7
S't6'
p211
sg9
Nsg10
S'i11'
p212
sg12
Nsg13
Nsg14
(lp213
(i__main__
Token
p214
(dp215
g18
I57
sba(i__main__
Token
p216
(dp217
g18
I58
sbasg23
I58
sba(i__main__
Mention
p218
(dp219
g7
S't6'
p220
sg9
S'Coreference-Identity'
p221
sg10
S'i13'
p222
sg12
S'i11'
p223
sg13
Nsg14
(lp224
(i__main__
Token
p225
(dp226
g18
I75
sbasg23
I75
sba(i__main__
Mention
p227
(dp228
g7
S't6'
p229
sg9
S'Coreference-Identity'
p230
sg10
S'i19'
p231
sg12
S'i13'
p232
sg13
Nsg14
(lp233
(i__main__
Token
p234
(dp235
g18
I114
sbasg23
I114
sbasg7
g211
sg42
Nsba(i__main__
Chain
p236
(dp237
g3
(lp238
(i__main__
Mention
p239
(dp240
g7
S't7'
p241
sg9
Nsg10
S'i14'
p242
sg12
Nsg13
Nsg14
(lp243
(i__main__
Token
p244
(dp245
g18
I87
sba(i__main__
Token
p246
(dp247
g18
I88
sba(i__main__
Token
p248
(dp249
g18
I89
sba(i__main__
Token
p250
(dp251
g18
I90
sba(i__main__
Token
p252
(dp253
g18
I91
sbasg23
I91
sba(i__main__
Mention
p254
(dp255
g7
S't7'
p256
sg9
S'Anaphora-C'
p257
sg10
S'i16'
p258
sg12
S'i14'
p259
sg13
Nsg14
(lp260
(i__main__
Token
p261
(dp262
g18
I99
sbasg23
I99
sbasg7
g241
sg42
Nsba(i__main__
Chain
p263
(dp264
g3
(lp265
(i__main__
Mention
p266
(dp267
g7
S't8'
p268
sg9
S'anaphora-?'
p269
sg10
S'i15'
p270
sg12
S'i15'
p271
sg13
Nsg14
(lp272
(i__main__
Token
p273
(dp274
g18
I97
sbasg23
I97
sbasg7
g268
sg42
Nsba(i__main__
Chain
p275
(dp276
g3
(lp277
(i__main__
Mention
p278
(dp279
g7
S't9'
p280
sg9
Nsg10
S'i20'
p281
sg12
Nsg13
Nsg14
(lp282
(i__main__
Token
p283
(dp284
g18
I125
sbasg23
I125
sba(i__main__
Mention
p285
(dp286
g7
S't9'
p287
sg9
S'Coreference-Identity'
p288
sg10
S'i25'
p289
sg12
S'i20'
p290
sg13
Nsg14
(lp291
(i__main__
Token
p292
(dp293
g18
I162
sbasg23
I162
sbasg7
g280
sg42
Nsba(i__main__
Chain
p294
(dp295
g3
(lp296
(i__main__
Mention
p297
(dp298
g7
S't10'
p299
sg9
Nsg10
S'i21'
p300
sg12
Nsg13
Nsg14
(lp301
(i__main__
Token
p302
(dp303
g18
I130
sba(i__main__
Token
p304
(dp305
g18
I131
sbasg23
I131
sba(i__main__
Mention
p306
(dp307
g7
S't10'
p308
sg9
S'Coreference-NounComplement'
p309
sg10
S'i22'
p310
sg12
S'i21'
p311
sg13
Nsg14
(lp312
(i__main__
Token
p313
(dp314
g18
I132
sbasg23
I132
sbasg7
g299
sg42
Nsba(i__main__
Chain
p315
(dp316
g3
(lp317
(i__main__
Mention
p318
(dp319
g7
S't11'
p320
sg9
S'anaphora-?'
p321
sg10
S'i24'
p322
sg12
S'i24'
p323
sg13
Nsg14
(lp324
(i__main__
Token
p325
(dp326
g18
I150
sbasg23
I150
sbasg7
g320
sg42
Nsba(i__main__
Chain
p327
(dp328
g3
(lp329
(i__main__
Mention
p330
(dp331
g7
S't12'
p332
sg9
Nsg10
S'i26'
p333
sg12
Nsg13
Nsg14
(lp334
(i__main__
Token
p335
(dp336
g18
I164
sba(i__main__
Token
p337
(dp338
g18
I165
sbasg23
I165
sba(i__main__
Mention
p339
(dp340
g7
S't12'
p341
sg9
S'Anaphora-C'
p342
sg10
S'i27'
p343
sg12
S'i26'
p344
sg13
Nsg14
(lp345
(i__main__
Token
p346
(dp347
g18
I167
sbasg23
I167
sbasg7
g332
sg42
Nsba.