(lp0
(i__main__
Chain
p1
(dp2
S'mentionList'
p3
(lp4
(i__main__
Mention
p5
(dp6
S'chainId'
p7
S't1'
p8
sS'relType'
p9
NsS'mentionId'
p10
S'i1'
p11
sS'antecedentId'
p12
NsS'crefMod'
p13
NsS'tokenList'
p14
(lp15
(i__main__
Token
p16
(dp17
S'tokenId'
p18
I0
sbasS'mentionHead'
p19
I0
sba(i__main__
Mention
p20
(dp21
g7
S't1'
p22
sg9
S'Anaphora-C'
p23
sg10
S'i3'
p24
sg12
S'i1'
p25
sg13
Nsg14
(lp26
(i__main__
Token
p27
(dp28
g18
I7
sbasg19
I7
sba(i__main__
Mention
p29
(dp30
g7
S't1'
p31
sg9
S'Coreference-Identity'
p32
sg10
S'i7'
p33
sg12
S'i3'
p34
sg13
Nsg14
(lp35
(i__main__
Token
p36
(dp37
g18
I43
sbasg19
I43
sba(i__main__
Mention
p38
(dp39
g7
S't1'
p40
sg9
Nsg10
S'i8'
p41
sg12
Nsg13
Nsg14
(lp42
(i__main__
Token
p43
(dp44
g18
I54
sba(i__main__
Token
p45
(dp46
g18
I55
sbasg19
Nsba(i__main__
Mention
p47
(dp48
g7
S't1'
p49
sg9
S'Coreference-Identity'
p50
sg10
S'i14'
p51
sg12
S'i8'
p52
sg13
Nsg14
(lp53
(i__main__
Token
p54
(dp55
g18
I83
sbasg19
I83
sba(i__main__
Mention
p56
(dp57
g7
S't1'
p58
sg9
S'Coreference-Identity'
p59
sg10
S'i21'
p60
sg12
S'i14'
p61
sg13
Nsg14
(lp62
(i__main__
Token
p63
(dp64
g18
I108
sbasg19
I108
sba(i__main__
Mention
p65
(dp66
g7
S't1'
p67
sg9
S'Coreference-Identity'
p68
sg10
S'i29'
p69
sg12
S'i21'
p70
sg13
Nsg14
(lp71
(i__main__
Token
p72
(dp73
g18
I159
sbasg19
I159
sba(i__main__
Mention
p74
(dp75
g7
S't1'
p76
sg9
S'Coreference-Identity'
p77
sg10
S'i32'
p78
sg12
S'i29'
p79
sg13
Nsg14
(lp80
(i__main__
Token
p81
(dp82
g18
I179
sbasg19
I179
sba(i__main__
Mention
p83
(dp84
g7
S't1'
p85
sg9
S'Coreference-Identity'
p86
sg10
S'i36'
p87
sg12
S'i32'
p88
sg13
Nsg14
(lp89
(i__main__
Token
p90
(dp91
g18
I208
sbasg19
I208
sba(i__main__
Mention
p92
(dp93
g7
S't1'
p94
sg9
S'Coreference-Identity'
p95
sg10
S'i38'
p96
sg12
S'i36'
p97
sg13
Nsg14
(lp98
(i__main__
Token
p99
(dp100
g18
I222
sbasg19
I222
sba(i__main__
Mention
p101
(dp102
g7
S't1'
p103
sg9
S'Coreference-Identity'
p104
sg10
S'i43'
p105
sg12
S'i38'
p106
sg13
Nsg14
(lp107
(i__main__
Token
p108
(dp109
g18
I255
sbasg19
I255
sbasg7
g8
sS'chainHead'
p110
Nsba(i__main__
Chain
p111
(dp112
g3
(lp113
(i__main__
Mention
p114
(dp115
g7
S't2'
p116
sg9
Nsg10
S'i2'
p117
sg12
Nsg13
Nsg14
(lp118
(i__main__
Token
p119
(dp120
g18
I2
sbasg19
I2
sba(i__main__
Mention
p121
(dp122
g7
S't2'
p123
sg9
S'Coreference-Identity'
p124
sg10
S'i4'
p125
sg12
S'i2'
p126
sg13
Nsg14
(lp127
(i__main__
Token
p128
(dp129
g18
I27
sbasg19
I27
sba(i__main__
Mention
p130
(dp131
g7
S't2'
p132
sg9
Nsg10
S'i9'
p133
sg12
Nsg13
Nsg14
(lp134
(i__main__
Token
p135
(dp136
g18
I54
sba(i__main__
Token
p137
(dp138
g18
I55
sbasg19
Nsba(i__main__
Mention
p139
(dp140
g7
S't2'
p141
sg9
S'Coreference-Identity'
p142
sg10
S'i11'
p143
sg12
S'i9'
p144
sg13
Nsg14
(lp145
(i__main__
Token
p146
(dp147
g18
I76
sbasg19
I76
sba(i__main__
Mention
p148
(dp149
g7
S't2'
p150
sg9
S'Coreference-Identity'
p151
sg10
S'i26'
p152
sg12
S'i11'
p153
sg13
Nsg14
(lp154
(i__main__
Token
p155
(dp156
g18
I129
sbasg19
I129
sba(i__main__
Mention
p157
(dp158
g7
S't2'
p159
sg9
S'Coreference-Identity'
p160
sg10
S'i33'
p161
sg12
S'i26'
p162
sg13
Nsg14
(lp163
(i__main__
Token
p164
(dp165
g18
I183
sbasg19
I183
sbasg7
g116
sg110
Nsba(i__main__
Chain
p166
(dp167
g3
(lp168
(i__main__
Mention
p169
(dp170
g7
S't3'
p171
sg9
Nsg10
S'i5'
p172
sg12
Nsg13
Nsg14
(lp173
(i__main__
Token
p174
(dp175
g18
I29
sba(i__main__
Token
p176
(dp177
g18
I30
sbasg19
I30
sba(i__main__
Mention
p178
(dp179
g7
S't3'
p180
sg9
S'Coreference-NounComplement'
p181
sg10
S'i6'
p182
sg12
S'i5'
p183
sg13
Nsg14
(lp184
(i__main__
Token
p185
(dp186
g18
I31
sba(i__main__
Token
p187
(dp188
g18
I32
sba(i__main__
Token
p189
(dp190
g18
I33
sbasg19
I33
sba(i__main__
Mention
p191
(dp192
g7
S't3'
p193
sg9
S'Coreference-Identity'
p194
sg10
S'i25'
p195
sg12
S'i6'
p196
sg13
Nsg14
(lp197
(i__main__
Token
p198
(dp199
g18
I125
sbasg19
I125
sba(i__main__
Mention
p200
(dp201
g7
S't3'
p202
sg9
S'Coreference-Identity'
p203
sg10
S'i27'
p204
sg12
S'i25'
p205
sg13
Nsg14
(lp206
(i__main__
Token
p207
(dp208
g18
I151
sbasg19
I151
sba(i__main__
Mention
p209
(dp210
g7
S't3'
p211
sg9
S'Anaphora-C'
p212
sg10
S'i28'
p213
sg12
S'i27'
p214
sg13
Nsg14
(lp215
(i__main__
Token
p216
(dp217
g18
I155
sbasg19
I155
sba(i__main__
Mention
p218
(dp219
g7
S't3'
p220
sg9
S'Anaphora-C'
p221
sg10
S'i30'
p222
sg12
S'i28'
p223
sg13
Nsg14
(lp224
(i__main__
Token
p225
(dp226
g18
I161
sbasg19
I161
sba(i__main__
Mention
p227
(dp228
g7
S't3'
p229
sg9
S'Coreference-Identity'
p230
sg10
S'i31'
p231
sg12
S'i30'
p232
sg13
Nsg14
(lp233
(i__main__
Token
p234
(dp235
g18
I169
sbasg19
I169
sba(i__main__
Mention
p236
(dp237
g7
S't3'
p238
sg9
S'Coreference-Identity'
p239
sg10
S'i39'
p240
sg12
S'i31'
p241
sg13
Nsg14
(lp242
(i__main__
Token
p243
(dp244
g18
I236
sbasg19
I236
sbasg7
g171
sg110
Nsba(i__main__
Chain
p245
(dp246
g3
(lp247
(i__main__
Mention
p248
(dp249
g7
S't4'
p250
sg9
Nsg10
S'i10'
p251
sg12
Nsg13
Nsg14
(lp252
(i__main__
Token
p253
(dp254
g18
I54
sba(i__main__
Token
p255
(dp256
g18
I55
sba(i__main__
Token
p257
(dp258
g18
I56
sba(i__main__
Token
p259
(dp260
g18
I57
sba(i__main__
Token
p261
(dp262
g18
I58
sba(i__main__
Token
p263
(dp264
g18
I59
sba(i__main__
Token
p265
(dp266
g18
I60
sba(i__main__
Token
p267
(dp268
g18
I61
sba(i__main__
Token
p269
(dp270
g18
I62
sba(i__main__
Token
p271
(dp272
g18
I63
sba(i__main__
Token
p273
(dp274
g18
I64
sbasg19
I64
sba(i__main__
Mention
p275
(dp276
g7
S't4'
p277
sg9
S'Coreference-Noun-Noun'
p278
sg10
S'i17'
p279
sg12
S'i10'
p280
sg13
Nsg14
(lp281
(i__main__
Token
p282
(dp283
g18
I89
sba(i__main__
Token
p284
(dp285
g18
I90
sbasg19
I90
sba(i__main__
Mention
p286
(dp287
g7
S't4'
p288
sg9
S'Coreference-Noun-Noun'
p289
sg10
S'i22'
p290
sg12
S'i17'
p291
sg13
Nsg14
(lp292
(i__main__
Token
p293
(dp294
g18
I109
sba(i__main__
Token
p295
(dp296
g18
I110
sbasg19
I110
sbasg7
g250
sg110
Nsba(i__main__
Chain
p297
(dp298
g3
(lp299
(i__main__
Mention
p300
(dp301
g7
S't5'
p302
sg9
Nsg10
S'i12'
p303
sg12
Nsg13
Nsg14
(lp304
(i__main__
Token
p305
(dp306
g18
I78
sbasg19
I78
sba(i__main__
Mention
p307
(dp308
g7
S't5'
p309
sg9
S'Coreference-NounComplement'
p310
sg10
S'i13'
p311
sg12
S'i12'
p312
sg13
Nsg14
(lp313
(i__main__
Token
p314
(dp315
g18
I79
sba(i__main__
Token
p316
(dp317
g18
I80
sba(i__main__
Token
p318
(dp319
g18
I81
sbasg19
I81
sbasg7
g302
sg110
Nsba(i__main__
Chain
p320
(dp321
g3
(lp322
(i__main__
Mention
p323
(dp324
g7
S't6'
p325
sg9
Nsg10
S'i15'
p326
sg12
Nsg13
Nsg14
(lp327
(i__main__
Token
p328
(dp329
g18
I85
sbasg19
I85
sba(i__main__
Mention
p330
(dp331
g7
S't6'
p332
sg9
S'Coreference-NounComplement'
p333
sg10
S'i16'
p334
sg12
S'i15'
p335
sg13
Nsg14
(lp336
(i__main__
Token
p337
(dp338
g18
I86
sba(i__main__
Token
p339
(dp340
g18
I87
sbasg19
I87
sba(i__main__
Mention
p341
(dp342
g7
S't6'
p343
sg9
S'Coreference-Identity'
p344
sg10
S'i20'
p345
sg12
S'i16'
p346
sg13
Nsg14
(lp347
(i__main__
Token
p348
(dp349
g18
I102
sbasg19
I102
sba(i__main__
Mention
p350
(dp351
g7
S't6'
p352
sg9
S'Coreference-Identity'
p353
sg10
S'i35'
p354
sg12
S'i20'
p355
sg13
Nsg14
(lp356
(i__main__
Token
p357
(dp358
g18
I201
sba(i__main__
Token
p359
(dp360
g18
I202
sbasg19
I202
sba(i__main__
Mention
p361
(dp362
g7
S't6'
p363
sg9
S'Coreference-Identity'
p364
sg10
S'i40'
p365
sg12
S'i35'
p366
sg13
Nsg14
(lp367
(i__main__
Token
p368
(dp369
g18
I238
sbasg19
I238
sbasg7
g325
sg110
Nsba(i__main__
Chain
p370
(dp371
g3
(lp372
(i__main__
Mention
p373
(dp374
g7
S't7'
p375
sg9
Nsg10
S'i18'
p376
sg12
Nsg13
Nsg14
(lp377
(i__main__
Token
p378
(dp379
g18
I92
sba(i__main__
Token
p380
(dp381
g18
I93
sba(i__main__
Token
p382
(dp383
g18
I94
sbasg19
I94
sba(i__main__
Mention
p384
(dp385
g7
S't7'
p386
sg9
S'Coreference-Identity'
p387
sg10
S'i19'
p388
sg12
S'i18'
p389
sg13
Nsg14
(lp390
(i__main__
Token
p391
(dp392
g18
I98
sba(i__main__
Token
p393
(dp394
g18
I99
sba(i__main__
Token
p395
(dp396
g18
I100
sbasg19
I100
sba(i__main__
Mention
p397
(dp398
g7
S't7'
p399
sg9
S'Coreference-Identity'
p400
sg10
S'i23'
p401
sg12
S'i19'
p402
sg13
Nsg14
(lp403
(i__main__
Token
p404
(dp405
g18
I115
sba(i__main__
Token
p406
(dp407
g18
I116
sba(i__main__
Token
p408
(dp409
g18
I117
sbasg19
I117
sbasg7
g375
sg110
Nsba(i__main__
Chain
p410
(dp411
g3
(lp412
(i__main__
Mention
p413
(dp414
g7
S't8'
p415
sg9
S'anaphora-?'
p416
sg10
S'i24'
p417
sg12
S'i24'
p418
sg13
Nsg14
(lp419
(i__main__
Token
p420
(dp421
g18
I121
sbasg19
I121
sbasg7
g415
sg110
Nsba(i__main__
Chain
p422
(dp423
g3
(lp424
(i__main__
Mention
p425
(dp426
g7
S't9'
p427
sg9
S'anaphora-?'
p428
sg10
S'i34'
p429
sg12
S'i34'
p430
sg13
Nsg14
(lp431
(i__main__
Token
p432
(dp433
g18
I199
sbasg19
I199
sbasg7
g427
sg110
Nsba(i__main__
Chain
p434
(dp435
g3
(lp436
(i__main__
Mention
p437
(dp438
g7
S't10'
p439
sg9
S'anaphora-?'
p440
sg10
S'i37'
p441
sg12
S'i37'
p442
sg13
Nsg14
(lp443
(i__main__
Token
p444
(dp445
g18
I219
sbasg19
I219
sbasg7
g439
sg110
Nsba(i__main__
Chain
p446
(dp447
g3
(lp448
(i__main__
Mention
p449
(dp450
g7
S't11'
p451
sg9
Nsg10
S'i41'
p452
sg12
Nsg13
Nsg14
(lp453
(i__main__
Token
p454
(dp455
g18
I240
sba(i__main__
Token
p456
(dp457
g18
I241
sbasg19
I241
sba(i__main__
Mention
p458
(dp459
g7
S't11'
p460
sg9
S'Anaphora-C'
p461
sg10
S'i42'
p462
sg12
S'i41'
p463
sg13
Nsg14
(lp464
(i__main__
Token
p465
(dp466
g18
I246
sbasg19
I246
sbasg7
g451
sg110
Nsba(i__main__
Chain
p467
(dp468
g3
(lp469
(i__main__
Mention
p470
(dp471
g7
S't12'
p472
sg9
S'anaphora-?'
p473
sg10
S'i44'
p474
sg12
S'i44'
p475
sg13
Nsg14
(lp476
(i__main__
Token
p477
(dp478
g18
I257
sbasg19
I257
sbasg7
g472
sg110
Nsba.