(lp0
(i__main__
Chain
p1
(dp2
S'mentionList'
p3
(lp4
(i__main__
Mention
p5
(dp6
S'chainId'
p7
S't1'
p8
sS'relType'
p9
NsS'mentionId'
p10
S'i1'
p11
sS'antecedentId'
p12
NsS'crefMod'
p13
NsS'tokenList'
p14
(lp15
(i__main__
Token
p16
(dp17
S'tokenId'
p18
I0
sbasS'mentionHead'
p19
I0
sba(i__main__
Mention
p20
(dp21
g7
S't1'
p22
sg9
S'Coreference-Identity'
p23
sg10
S'i7'
p24
sg12
S'i1'
p25
sg13
Nsg14
(lp26
(i__main__
Token
p27
(dp28
g18
I35
sbasg19
I35
sba(i__main__
Mention
p29
(dp30
g7
S't1'
p31
sg9
S'Coreference-Identity'
p32
sg10
S'i15'
p33
sg12
S'i7'
p34
sg13
Nsg14
(lp35
(i__main__
Token
p36
(dp37
g18
I96
sbasg19
I96
sba(i__main__
Mention
p38
(dp39
g7
S't1'
p40
sg9
S'Coreference-Identity'
p41
sg10
S'i33'
p42
sg12
S'i15'
p43
sg13
Nsg14
(lp44
(i__main__
Token
p45
(dp46
g18
I261
sbasg19
I261
sbasg7
g8
sS'chainHead'
p47
Nsba(i__main__
Chain
p48
(dp49
g3
(lp50
(i__main__
Mention
p51
(dp52
g7
S't2'
p53
sg9
Nsg10
S'i2'
p54
sg12
Nsg13
Nsg14
(lp55
(i__main__
Token
p56
(dp57
g18
I2
sba(i__main__
Token
p58
(dp59
g18
I3
sbasg19
I3
sba(i__main__
Mention
p60
(dp61
g7
S't2'
p62
sg9
S'Coreference-Apposition'
p63
sg10
S'i4'
p64
sg12
S'i2'
p65
sg13
Nsg14
(lp66
(i__main__
Token
p67
(dp68
g18
I8
sba(i__main__
Token
p69
(dp70
g18
I9
sba(i__main__
Token
p71
(dp72
g18
I10
sbasg19
I10
sba(i__main__
Mention
p73
(dp74
g7
S't2'
p75
sg9
S'Anaphora-C'
p76
sg10
S'i5'
p77
sg12
S'i4'
p78
sg13
Nsg14
(lp79
(i__main__
Token
p80
(dp81
g18
I13
sbasg19
I13
sba(i__main__
Mention
p82
(dp83
g7
S't2'
p84
sg9
S'Coreference-Noun-Noun'
p85
sg10
S'i9'
p86
sg12
S'i5'
p87
sg13
Nsg14
(lp88
(i__main__
Token
p89
(dp90
g18
I42
sba(i__main__
Token
p91
(dp92
g18
I43
sbasg19
I43
sba(i__main__
Mention
p93
(dp94
g7
S't2'
p95
sg9
S'Coreference-Identity'
p96
sg10
S'i17'
p97
sg12
S'i9'
p98
sg13
Nsg14
(lp99
(i__main__
Token
p100
(dp101
g18
I106
sba(i__main__
Token
p102
(dp103
g18
I107
sbasg19
I107
sba(i__main__
Mention
p104
(dp105
g7
S't2'
p106
sg9
S'Coreference-Identity'
p107
sg10
S'i22'
p108
sg12
S'i17'
p109
sg13
Nsg14
(lp110
(i__main__
Token
p111
(dp112
g18
I153
sbasg19
I153
sba(i__main__
Mention
p113
(dp114
g7
S't2'
p115
sg9
S'Coreference-Identity'
p116
sg10
S'i23'
p117
sg12
S'i22'
p118
sg13
Nsg14
(lp119
(i__main__
Token
p120
(dp121
g18
I157
sbasg19
I157
sba(i__main__
Mention
p122
(dp123
g7
S't2'
p124
sg9
S'Coreference-Identity'
p125
sg10
S'i28'
p126
sg12
S'i23'
p127
sg13
Nsg14
(lp128
(i__main__
Token
p129
(dp130
g18
I184
sbasg19
I184
sba(i__main__
Mention
p131
(dp132
g7
S't2'
p133
sg9
S'Coreference-Identity'
p134
sg10
S'i32'
p135
sg12
S'i28'
p136
sg13
Nsg14
(lp137
(i__main__
Token
p138
(dp139
g18
I237
sbasg19
I237
sbasg7
g53
sg47
Nsba(i__main__
Chain
p140
(dp141
g3
(lp142
(i__main__
Mention
p143
(dp144
g7
S't3'
p145
sg9
Nsg10
S'i3'
p146
sg12
Nsg13
Nsg14
(lp147
(i__main__
Token
p148
(dp149
g18
I4
sbasg19
I4
sba(i__main__
Mention
p150
(dp151
g7
S't3'
p152
sg9
S'Coreference-Identity'
p153
sg10
S'i8'
p154
sg12
S'i3'
p155
sg13
Nsg14
(lp156
(i__main__
Token
p157
(dp158
g18
I41
sbasg19
I41
sba(i__main__
Mention
p159
(dp160
g7
S't3'
p161
sg9
S'Coreference-Identity'
p162
sg10
S'i11'
p163
sg12
S'i8'
p164
sg13
Nsg14
(lp165
(i__main__
Token
p166
(dp167
g18
I53
sba(i__main__
Token
p168
(dp169
g18
I54
sbasg19
I54
sba(i__main__
Mention
p170
(dp171
g7
S't3'
p172
sg9
S'Coreference-Identity'
p173
sg10
S'i14'
p174
sg12
S'i11'
p175
sg13
Nsg14
(lp176
(i__main__
Token
p177
(dp178
g18
I75
sbasg19
I75
sba(i__main__
Mention
p179
(dp180
g7
S't3'
p181
sg9
S'Coreference-Identity'
p182
sg10
S'i25'
p183
sg12
S'i14'
p184
sg13
Nsg14
(lp185
(i__main__
Token
p186
(dp187
g18
I163
sba(i__main__
Token
p188
(dp189
g18
I164
sbasg19
I164
sba(i__main__
Mention
p190
(dp191
g7
S't3'
p192
sg9
S'Coreference-Identity'
p193
sg10
S'i29'
p194
sg12
S'i25'
p195
sg13
Nsg14
(lp196
(i__main__
Token
p197
(dp198
g18
I206
sbasg19
I206
sba(i__main__
Mention
p199
(dp200
g7
S't3'
p201
sg9
S'Coreference-Identity'
p202
sg10
S'i35'
p203
sg12
S'i29'
p204
sg13
Nsg14
(lp205
(i__main__
Token
p206
(dp207
g18
I266
sbasg19
I266
sbasg7
g145
sg47
Nsba(i__main__
Chain
p208
(dp209
g3
(lp210
(i__main__
Mention
p211
(dp212
g7
S't4'
p213
sg9
Nsg10
S'i6'
p214
sg12
Nsg13
Nsg14
(lp215
(i__main__
Token
p216
(dp217
g18
I15
sbasg19
I15
sba(i__main__
Mention
p218
(dp219
g7
S't4'
p220
sg9
S'Coreference-Identity'
p221
sg10
S'i34'
p222
sg12
S'i6'
p223
sg13
Nsg14
(lp224
(i__main__
Token
p225
(dp226
g18
I263
sba(i__main__
Token
p227
(dp228
g18
I264
sbasg19
I264
sba(i__main__
Mention
p229
(dp230
g7
S't4'
p231
sg9
S'Coreference-Identity'
p232
sg10
S'i37'
p233
sg12
S'i34'
p234
sg13
Nsg14
(lp235
(i__main__
Token
p236
(dp237
g18
I283
sbasg19
I283
sbasg7
g213
sg47
Nsba(i__main__
Chain
p238
(dp239
g3
(lp240
(i__main__
Mention
p241
(dp242
g7
S't5'
p243
sg9
Nsg10
S'i10'
p244
sg12
Nsg13
Nsg14
(lp245
(i__main__
Token
p246
(dp247
g18
I48
sbasg19
I48
sbasg7
g243
sg47
Nsba(i__main__
Chain
p248
(dp249
g3
(lp250
(i__main__
Mention
p251
(dp252
g7
S't6'
p253
sg9
Nsg10
S'i12'
p254
sg12
Nsg13
Nsg14
(lp255
(i__main__
Token
p256
(dp257
g18
I57
sba(i__main__
Token
p258
(dp259
g18
I58
sba(i__main__
Token
p260
(dp261
g18
I59
sba(i__main__
Token
p262
(dp263
g18
I60
sbasg19
I60
sba(i__main__
Mention
p264
(dp265
g7
S't6'
p266
sg9
S'Coreference-Identity'
p267
sg10
S'i39'
p268
sg12
S'i12'
p269
sg13
Nsg14
(lp270
(i__main__
Token
p271
(dp272
g18
I289
sbasg19
I289
sbasg7
g253
sg47
Nsba(i__main__
Chain
p273
(dp274
g3
(lp275
(i__main__
Mention
p276
(dp277
g7
S't7'
p278
sg9
Nsg10
S'i13'
p279
sg12
Nsg13
Nsg14
(lp280
(i__main__
Token
p281
(dp282
g18
I62
sba(i__main__
Token
p283
(dp284
g18
I63
sbasg19
I63
sba(i__main__
Mention
p285
(dp286
g7
S't7'
p287
sg9
S'Coreference-Identity'
p288
sg10
S'i40'
p289
sg12
S'i13'
p290
sg13
Nsg14
(lp291
(i__main__
Token
p292
(dp293
g18
I291
sba(i__main__
Token
p294
(dp295
g18
I292
sbasg19
I292
sbasg7
g278
sg47
Nsba(i__main__
Chain
p296
(dp297
g3
(lp298
(i__main__
Mention
p299
(dp300
g7
S't8'
p301
sg9
Nsg10
S'i16'
p302
sg12
Nsg13
Nsg14
(lp303
(i__main__
Token
p304
(dp305
g18
I103
sbasg19
I103
sba(i__main__
Mention
p306
(dp307
g7
S't8'
p308
sg9
S'Coreference-Identity'
p309
sg10
S'i27'
p310
sg12
S'i16'
p311
sg13
Nsg14
(lp312
(i__main__
Token
p313
(dp314
g18
I181
sbasg19
I181
sbasg7
g301
sg47
Nsba(i__main__
Chain
p315
(dp316
g3
(lp317
(i__main__
Mention
p318
(dp319
g7
S't9'
p320
sg9
Nsg10
S'i18'
p321
sg12
Nsg13
Nsg14
(lp322
(i__main__
Token
p323
(dp324
g18
I109
sba(i__main__
Token
p325
(dp326
g18
I110
sba(i__main__
Token
p327
(dp328
g18
I111
sba(i__main__
Token
p329
(dp330
g18
I112
sba(i__main__
Token
p331
(dp332
g18
I113
sbasg19
I113
sba(i__main__
Mention
p333
(dp334
g7
S't9'
p335
sg9
S'Coreference-Identity'
p336
sg10
S'i42'
p337
sg12
S'i18'
p338
sg13
Nsg14
(lp339
(i__main__
Token
p340
(dp341
g18
I301
sba(i__main__
Token
p342
(dp343
g18
I302
sba(i__main__
Token
p344
(dp345
g18
I303
sba(i__main__
Token
p346
(dp347
g18
I304
sba(i__main__
Token
p348
(dp349
g18
I305
sbasg19
I305
sbasg7
g320
sg47
Nsba(i__main__
Chain
p350
(dp351
g3
(lp352
(i__main__
Mention
p353
(dp354
g7
S't10'
p355
sg9
Nsg10
S'i19'
p356
sg12
Nsg13
Nsg14
(lp357
(i__main__
Token
p358
(dp359
g18
I117
sba(i__main__
Token
p360
(dp361
g18
I118
sba(i__main__
Token
p362
(dp363
g18
I119
sba(i__main__
Token
p364
(dp365
g18
I120
sba(i__main__
Token
p366
(dp367
g18
I121
sbasg19
I121
sba(i__main__
Mention
p368
(dp369
g7
S't10'
p370
sg9
S'Coreference-Identity'
p371
sg10
S'i44'
p372
sg12
S'i19'
p373
sg13
Nsg14
(lp374
(i__main__
Token
p375
(dp376
g18
I317
sbasg19
I317
sbasg7
g355
sg47
Nsba(i__main__
Chain
p377
(dp378
g3
(lp379
(i__main__
Mention
p380
(dp381
g7
S't11'
p382
sg9
Nsg10
S'i20'
p383
sg12
Nsg13
Nsg14
(lp384
(i__main__
Token
p385
(dp386
g18
I125
sba(i__main__
Token
p387
(dp388
g18
I126
sbasg19
I126
sba(i__main__
Mention
p389
(dp390
g7
S't11'
p391
sg9
S'Coreference-Identity'
p392
sg10
S'i43'
p393
sg12
S'i20'
p394
sg13
Nsg14
(lp395
(i__main__
Token
p396
(dp397
g18
I313
sba(i__main__
Token
p398
(dp399
g18
I314
sbasg19
I314
sbasg7
g382
sg47
Nsba(i__main__
Chain
p400
(dp401
g3
(lp402
(i__main__
Mention
p403
(dp404
g7
S't12'
p405
sg9
Nsg10
S'i21'
p406
sg12
Nsg13
Nsg14
(lp407
(i__main__
Token
p408
(dp409
g18
I137
sbasg19
I137
sbasg7
g405
sg47
Nsba(i__main__
Chain
p410
(dp411
g3
(lp412
(i__main__
Mention
p413
(dp414
g7
S't13'
p415
sg9
Nsg10
S'i24'
p416
sg12
Nsg13
Nsg14
(lp417
(i__main__
Token
p418
(dp419
g18
I159
sba(i__main__
Token
p420
(dp421
g18
I160
sba(i__main__
Token
p422
(dp423
g18
I161
sba(i__main__
Token
p424
(dp425
g18
I162
sbasg19
I162
sba(i__main__
Mention
p426
(dp427
g7
S't13'
p428
sg9
S'Anaphora-C'
p429
sg10
S'i26'
p430
sg12
S'i24'
p431
sg13
Nsg14
(lp432
(i__main__
Token
p433
(dp434
g18
I173
sbasg19
I173
sbasg7
g415
sg47
Nsba(i__main__
Chain
p435
(dp436
g3
(lp437
(i__main__
Mention
p438
(dp439
g7
S't14'
p440
sg9
Nsg10
S'i30'
p441
sg12
Nsg13
Nsg14
(lp442
(i__main__
Token
p443
(dp444
g18
I206
sba(i__main__
Token
p445
(dp446
g18
I207
sba(i__main__
Token
p447
(dp448
g18
I208
sba(i__main__
Token
p449
(dp450
g18
I209
sba(i__main__
Token
p451
(dp452
g18
I210
sba(i__main__
Token
p453
(dp454
g18
I211
sba(i__main__
Token
p455
(dp456
g18
I212
sbasg19
I212
sba(i__main__
Mention
p457
(dp458
g7
S't14'
p459
sg9
S'Coreference-Identity'
p460
sg10
S'i31'
p461
sg12
S'i30'
p462
sg13
Nsg14
(lp463
(i__main__
Token
p464
(dp465
g18
I228
sba(i__main__
Token
p466
(dp467
g18
I229
sbasg19
I229
sbasg7
g440
sg47
Nsba(i__main__
Chain
p468
(dp469
g3
(lp470
(i__main__
Mention
p471
(dp472
g7
S't15'
p473
sg9
Nsg10
S'i36'
p474
sg12
Nsg13
Nsg14
(lp475
(i__main__
Token
p476
(dp477
g18
I278
sbasg19
I278
sbasg7
g473
sg47
Nsba(i__main__
Chain
p478
(dp479
g3
(lp480
(i__main__
Mention
p481
(dp482
g7
S't16'
p483
sg9
Nsg10
S'i38'
p484
sg12
Nsg13
Nsg14
(lp485
(i__main__
Token
p486
(dp487
g18
I285
sba(i__main__
Token
p488
(dp489
g18
I286
sba(i__main__
Token
p490
(dp491
g18
I287
sba(i__main__
Token
p492
(dp493
g18
I288
sbasg19
I288
sba(i__main__
Mention
p494
(dp495
g7
S't16'
p496
sg9
S'Anaphora-C'
p497
sg10
S'i41'
p498
sg12
S'i38'
p499
sg13
Nsg14
(lp500
(i__main__
Token
p501
(dp502
g18
I299
sbasg19
I299
sbasg7
g483
sg47
Nsba.