(lp0
(i__main__
Chain
p1
(dp2
S'mentionList'
p3
(lp4
(i__main__
Mention
p5
(dp6
S'chainId'
p7
S't1'
p8
sS'relType'
p9
NsS'mentionId'
p10
S'i1'
p11
sS'antecedentId'
p12
NsS'crefMod'
p13
NsS'tokenList'
p14
(lp15
(i__main__
Token
p16
(dp17
S'tokenId'
p18
I0
sba(i__main__
Token
p19
(dp20
g18
I1
sbasS'mentionHead'
p21
I1
sba(i__main__
Mention
p22
(dp23
g7
S't1'
p24
sg9
S'Coreference-Noun-Noun'
p25
sg10
S'i12'
p26
sg12
S'i1'
p27
sg13
Nsg14
(lp28
(i__main__
Token
p29
(dp30
g18
I62
sba(i__main__
Token
p31
(dp32
g18
I63
sbasg21
I63
sba(i__main__
Mention
p33
(dp34
g7
S't1'
p35
sg9
S'Coreference-Noun-Noun'
p36
sg10
S'i13'
p37
sg12
S'i12'
p38
sg13
Nsg14
(lp39
(i__main__
Token
p40
(dp41
g18
I69
sbasg21
I69
sba(i__main__
Mention
p42
(dp43
g7
S't1'
p44
sg9
S'Coreference-NounComplement'
p45
sg10
S'i14'
p46
sg12
S'i13'
p47
sg13
Nsg14
(lp48
(i__main__
Token
p49
(dp50
g18
I70
sba(i__main__
Token
p51
(dp52
g18
I71
sbasg21
I71
sba(i__main__
Mention
p53
(dp54
g7
S't1'
p55
sg9
S'Coreference-Identity'
p56
sg10
S'i81'
p57
sg12
S'i14'
p58
sg13
Nsg14
(lp59
(i__main__
Token
p60
(dp61
g18
I406
sba(i__main__
Token
p62
(dp63
g18
I407
sbasg21
I407
sbasg7
g8
sS'chainHead'
p64
Nsba(i__main__
Chain
p65
(dp66
g3
(lp67
(i__main__
Mention
p68
(dp69
g7
S't2'
p70
sg9
Nsg10
S'i2'
p71
sg12
Nsg13
Nsg14
(lp72
(i__main__
Token
p73
(dp74
g18
I0
sba(i__main__
Token
p75
(dp76
g18
I1
sba(i__main__
Token
p77
(dp78
g18
I2
sbasg21
I2
sba(i__main__
Mention
p79
(dp80
g7
S't2'
p81
sg9
S'Coreference-Noun-Noun'
p82
sg10
S'i15'
p83
sg12
S'i2'
p84
sg13
Nsg14
(lp85
(i__main__
Token
p86
(dp87
g18
I73
sbasg21
I73
sba(i__main__
Mention
p88
(dp89
g7
S't2'
p90
sg9
S'Coreference-Noun-Noun'
p91
sg10
S'i61'
p92
sg12
S'i15'
p93
sg13
Nsg14
(lp94
(i__main__
Token
p95
(dp96
g18
I291
sbasg21
I291
sba(i__main__
Mention
p97
(dp98
g7
S't2'
p99
sg9
S'Coreference-Noun-Noun'
p100
sg10
S'i82'
p101
sg12
S'i61'
p102
sg13
Nsg14
(lp103
(i__main__
Token
p104
(dp105
g18
I409
sbasg21
I409
sbasg7
g70
sg64
Nsba(i__main__
Chain
p106
(dp107
g3
(lp108
(i__main__
Mention
p109
(dp110
g7
S't3'
p111
sg9
Nsg10
S'i3'
p112
sg12
Nsg13
Nsg14
(lp113
(i__main__
Token
p114
(dp115
g18
I7
sba(i__main__
Token
p116
(dp117
g18
I8
sba(i__main__
Token
p118
(dp119
g18
I9
sbasg21
I9
sba(i__main__
Mention
p120
(dp121
g7
S't3'
p122
sg9
S'Coreference-Abbreviation'
p123
sg10
S'i4'
p124
sg12
S'i3'
p125
sg13
Nsg14
(lp126
(i__main__
Token
p127
(dp128
g18
I10
sbasg21
I10
sba(i__main__
Mention
p129
(dp130
g7
S't3'
p131
sg9
S'Anaphora-C'
p132
sg10
S'i7'
p133
sg12
S'i4'
p134
sg13
Nsg14
(lp135
(i__main__
Token
p136
(dp137
g18
I21
sbasg21
I21
sba(i__main__
Mention
p138
(dp139
g7
S't3'
p140
sg9
S'Coreference-Identity'
p141
sg10
S'i17'
p142
sg12
S'i7'
p143
sg13
Nsg14
(lp144
(i__main__
Token
p145
(dp146
g18
I93
sbasg21
I93
sba(i__main__
Mention
p147
(dp148
g7
S't3'
p149
sg9
S'Anaphora-C'
p150
sg10
S'i19'
p151
sg12
S'i17'
p152
sg13
Nsg14
(lp153
(i__main__
Token
p154
(dp155
g18
I100
sbasg21
I100
sbasg7
g111
sg64
Nsba(i__main__
Chain
p156
(dp157
g3
(lp158
(i__main__
Mention
p159
(dp160
g7
S't4'
p161
sg9
Nsg10
S'i5'
p162
sg12
Nsg13
Nsg14
(lp163
(i__main__
Token
p164
(dp165
g18
I12
sba(i__main__
Token
p166
(dp167
g18
I13
sbasg21
I13
sba(i__main__
Mention
p168
(dp169
g7
S't4'
p170
sg9
S'Coreference-NounComplement'
p171
sg10
S'i6'
p172
sg12
S'i5'
p173
sg13
Nsg14
(lp174
(i__main__
Token
p175
(dp176
g18
I14
sba(i__main__
Token
p177
(dp178
g18
I15
sbasg21
I15
sba(i__main__
Mention
p179
(dp180
g7
S't4'
p181
sg9
S'Coreference-Identity'
p182
sg10
S'i16'
p183
sg12
S'i6'
p184
sg13
Nsg14
(lp185
(i__main__
Token
p186
(dp187
g18
I81
sbasg21
I81
sba(i__main__
Mention
p188
(dp189
g7
S't4'
p190
sg9
S'Coreference-Identity'
p191
sg10
S'i18'
p192
sg12
S'i16'
p193
sg13
Nsg14
(lp194
(i__main__
Token
p195
(dp196
g18
I95
sbasg21
I95
sba(i__main__
Mention
p197
(dp198
g7
S't4'
p199
sg9
S'Coreference-Identity'
p200
sg10
S'i21'
p201
sg12
S'i18'
p202
sg13
Nsg14
(lp203
(i__main__
Token
p204
(dp205
g18
I111
sbasg21
I111
sba(i__main__
Mention
p206
(dp207
g7
S't4'
p208
sg9
S'Anaphora-C'
p209
sg10
S'i22'
p210
sg12
S'i21'
p211
sg13
Nsg14
(lp212
(i__main__
Token
p213
(dp214
g18
I121
sbasg21
I121
sba(i__main__
Mention
p215
(dp216
g7
S't4'
p217
sg9
S'Coreference-Identity'
p218
sg10
S'i26'
p219
sg12
S'i22'
p220
sg13
Nsg14
(lp221
(i__main__
Token
p222
(dp223
g18
I138
sbasg21
I138
sba(i__main__
Mention
p224
(dp225
g7
S't4'
p226
sg9
S'Coreference-Identity'
p227
sg10
S'i31'
p228
sg12
S'i26'
p229
sg13
Nsg14
(lp230
(i__main__
Token
p231
(dp232
g18
I147
sbasg21
I147
sba(i__main__
Mention
p233
(dp234
g7
S't4'
p235
sg9
S'Coreference-Identity'
p236
sg10
S'i39'
p237
sg12
S'i31'
p238
sg13
Nsg14
(lp239
(i__main__
Token
p240
(dp241
g18
I174
sbasg21
I174
sba(i__main__
Mention
p242
(dp243
g7
S't4'
p244
sg9
S'Coreference-Identity'
p245
sg10
S'i48'
p246
sg12
S'i39'
p247
sg13
Nsg14
(lp248
(i__main__
Token
p249
(dp250
g18
I198
sbasg21
I198
sba(i__main__
Mention
p251
(dp252
g7
S't4'
p253
sg9
S'Coreference-Identity'
p254
sg10
S'i49'
p255
sg12
S'i48'
p256
sg13
Nsg14
(lp257
(i__main__
Token
p258
(dp259
g18
I209
sba(i__main__
Token
p260
(dp261
g18
I210
sbasg21
I210
sba(i__main__
Mention
p262
(dp263
g7
S't4'
p264
sg9
S'Coreference-Identity'
p265
sg10
S'i50'
p266
sg12
S'i49'
p267
sg13
Nsg14
(lp268
(i__main__
Token
p269
(dp270
g18
I216
sba(i__main__
Token
p271
(dp272
g18
I217
sbasg21
I217
sba(i__main__
Mention
p273
(dp274
g7
S't4'
p275
sg9
S'Anaphora-C'
p276
sg10
S'i52'
p277
sg12
S'i50'
p278
sg13
Nsg14
(lp279
(i__main__
Token
p280
(dp281
g18
I233
sbasg21
I233
sba(i__main__
Mention
p282
(dp283
g7
S't4'
p284
sg9
S'Anaphora-C'
p285
sg10
S'i53'
p286
sg12
S'i52'
p287
sg13
Nsg14
(lp288
(i__main__
Token
p289
(dp290
g18
I236
sbasg21
I236
sbasg7
g161
sg64
Nsba(i__main__
Chain
p291
(dp292
g3
(lp293
(i__main__
Mention
p294
(dp295
g7
S't5'
p296
sg9
Nsg10
S'i8'
p297
sg12
Nsg13
Nsg14
(lp298
(i__main__
Token
p299
(dp300
g18
I38
sba(i__main__
Token
p301
(dp302
g18
I39
sbasg21
I39
sba(i__main__
Mention
p303
(dp304
g7
S't5'
p305
sg9
S'Coreference-Identity'
p306
sg10
S'i11'
p307
sg12
S'i8'
p308
sg13
Nsg14
(lp309
(i__main__
Token
p310
(dp311
g18
I59
sba(i__main__
Token
p312
(dp313
g18
I60
sbasg21
I60
sba(i__main__
Mention
p314
(dp315
g7
S't5'
p316
sg9
S'Coreference-Identity'
p317
sg10
S'i23'
p318
sg12
S'i11'
p319
sg13
Nsg14
(lp320
(i__main__
Token
p321
(dp322
g18
I122
sbasg21
I122
sba(i__main__
Mention
p323
(dp324
g7
S't5'
p325
sg9
S'Coreference-Identity'
p326
sg10
S'i25'
p327
sg12
S'i23'
p328
sg13
Nsg14
(lp329
(i__main__
Token
p330
(dp331
g18
I131
sbasg21
I131
sba(i__main__
Mention
p332
(dp333
g7
S't5'
p334
sg9
S'Coreference-Identity'
p335
sg10
S'i56'
p336
sg12
S'i25'
p337
sg13
Nsg14
(lp338
(i__main__
Token
p339
(dp340
g18
I254
sba(i__main__
Token
p341
(dp342
g18
I255
sbasg21
I255
sba(i__main__
Mention
p343
(dp344
g7
S't5'
p345
sg9
S'Coreference-Identity'
p346
sg10
S'i63'
p347
sg12
S'i56'
p348
sg13
Nsg14
(lp349
(i__main__
Token
p350
(dp351
g18
I307
sbasg21
I307
sba(i__main__
Mention
p352
(dp353
g7
S't5'
p354
sg9
S'Coreference-Identity'
p355
sg10
S'i75'
p356
sg12
S'i63'
p357
sg13
Nsg14
(lp358
(i__main__
Token
p359
(dp360
g18
I377
sbasg21
I377
sba(i__main__
Mention
p361
(dp362
g7
S't5'
p363
sg9
S'Coreference-Identity'
p364
sg10
S'i79'
p365
sg12
S'i75'
p366
sg13
Nsg14
(lp367
(i__main__
Token
p368
(dp369
g18
I392
sbasg21
I392
sbasg7
g296
sg64
Nsba(i__main__
Chain
p370
(dp371
g3
(lp372
(i__main__
Mention
p373
(dp374
g7
S't6'
p375
sg9
Nsg10
S'i9'
p376
sg12
Nsg13
Nsg14
(lp377
(i__main__
Token
p378
(dp379
g18
I41
sbasg21
I41
sba(i__main__
Mention
p380
(dp381
g7
S't6'
p382
sg9
S'Coreference-NounComplement'
p383
sg10
S'i10'
p384
sg12
S'i9'
p385
sg13
Nsg14
(lp386
(i__main__
Token
p387
(dp388
g18
I42
sba(i__main__
Token
p389
(dp390
g18
I43
sbasg21
I43
sba(i__main__
Mention
p391
(dp392
g7
S't6'
p393
sg9
S'Coreference-Noun-Noun'
p394
sg10
S'i57'
p395
sg12
S'i10'
p396
sg13
Nsg14
(lp397
(i__main__
Token
p398
(dp399
g18
I257
sbasg21
I257
sba(i__main__
Mention
p400
(dp401
g7
S't6'
p402
sg9
S'Coreference-NounComplement'
p403
sg10
S'i58'
p404
sg12
S'i57'
p405
sg13
Nsg14
(lp406
(i__main__
Token
p407
(dp408
g18
I258
sba(i__main__
Token
p409
(dp410
g18
I259
sbasg21
I259
sba(i__main__
Mention
p411
(dp412
g7
S't6'
p413
sg9
S'Coreference-Identity'
p414
sg10
S'i59'
p415
sg12
S'i58'
p416
sg13
Nsg14
(lp417
(i__main__
Token
p418
(dp419
g18
I270
sbasg21
I270
sba(i__main__
Mention
p420
(dp421
g7
S't6'
p422
sg9
S'Coreference-Identity'
p423
sg10
S'i62'
p424
sg12
S'i59'
p425
sg13
Nsg14
(lp426
(i__main__
Token
p427
(dp428
g18
I301
sbasg21
I301
sba(i__main__
Mention
p429
(dp430
g7
S't6'
p431
sg9
S'Coreference-Identity'
p432
sg10
S'i68'
p433
sg12
S'i62'
p434
sg13
Nsg14
(lp435
(i__main__
Token
p436
(dp437
g18
I321
sbasg21
I321
sba(i__main__
Mention
p438
(dp439
g7
S't6'
p440
sg9
S'Anaphora-C'
p441
sg10
S'i69'
p442
sg12
S'i68'
p443
sg13
Nsg14
(lp444
(i__main__
Token
p445
(dp446
g18
I334
sbasg21
I334
sba(i__main__
Mention
p447
(dp448
g7
S't6'
p449
sg9
S'Coreference-Identity'
p450
sg10
S'i70'
p451
sg12
S'i69'
p452
sg13
Nsg14
(lp453
(i__main__
Token
p454
(dp455
g18
I342
sbasg21
I342
sba(i__main__
Mention
p456
(dp457
g7
S't6'
p458
sg9
S'Anaphora-C'
p459
sg10
S'i71'
p460
sg12
S'i70'
p461
sg13
Nsg14
(lp462
(i__main__
Token
p463
(dp464
g18
I346
sbasg21
I346
sba(i__main__
Mention
p465
(dp466
g7
S't6'
p467
sg9
S'Coreference-Identity'
p468
sg10
S'i74'
p469
sg12
S'i71'
p470
sg13
Nsg14
(lp471
(i__main__
Token
p472
(dp473
g18
I373
sbasg21
I373
sba(i__main__
Mention
p474
(dp475
g7
S't6'
p476
sg9
S'Coreference-Identity'
p477
sg10
S'i83'
p478
sg12
S'i74'
p479
sg13
Nsg14
(lp480
(i__main__
Token
p481
(dp482
g18
I419
sbasg21
I419
sba(i__main__
Mention
p483
(dp484
g7
S't6'
p485
sg9
S'Anaphora-C'
p486
sg10
S'i84'
p487
sg12
S'i83'
p488
sg13
Nsg14
(lp489
(i__main__
Token
p490
(dp491
g18
I425
sbasg21
I425
sbasg7
g375
sg64
Nsba(i__main__
Chain
p492
(dp493
g3
(lp494
(i__main__
Mention
p495
(dp496
g7
S't7'
p497
sg9
Nsg10
S'i24'
p498
sg12
Nsg13
Nsg14
(lp499
(i__main__
Token
p500
(dp501
g18
I122
sba(i__main__
Token
p502
(dp503
g18
I123
sba(i__main__
Token
p504
(dp505
g18
I124
sba(i__main__
Token
p506
(dp507
g18
I125
sba(i__main__
Token
p508
(dp509
g18
I126
sba(i__main__
Token
p510
(dp511
g18
I127
sbasg21
I127
sba(i__main__
Mention
p512
(dp513
g7
S't7'
p514
sg9
S'Coreference-Identity'
p515
sg10
S'i32'
p516
sg12
S'i24'
p517
sg13
Nsg14
(lp518
(i__main__
Token
p519
(dp520
g18
I148
sba(i__main__
Token
p521
(dp522
g18
I149
sbasg21
I149
sbasg7
g497
sg64
Nsba(i__main__
Chain
p523
(dp524
g3
(lp525
(i__main__
Mention
p526
(dp527
g7
S't8'
p528
sg9
Nsg10
S'i28'
p529
sg12
Nsg13
Nsg14
(lp530
(i__main__
Token
p531
(dp532
g18
I140
sbasg21
Nsba(i__main__
Mention
p533
(dp534
g7
S't8'
p535
sg9
S'Coreference-NounComplement'
p536
sg10
S'i29'
p537
sg12
S'i28'
p538
sg13
Nsg14
(lp539
(i__main__
Token
p540
(dp541
g18
I141
sbasg21
I141
sba(i__main__
Mention
p542
(dp543
g7
S't8'
p544
sg9
Nsg10
S'i35'
p545
sg12
Nsg13
Nsg14
(lp546
(i__main__
Token
p547
(dp548
g18
I167
sbasg21
Nsba(i__main__
Mention
p549
(dp550
g7
S't8'
p551
sg9
Nsg10
S'i40'
p552
sg12
Nsg13
Nsg14
(lp553
(i__main__
Token
p554
(dp555
g18
I184
sbasg21
Nsba(i__main__
Mention
p556
(dp557
g7
S't8'
p558
sg9
Nsg10
S'i42'
p559
sg12
Nsg13
Nsg14
(lp560
(i__main__
Token
p561
(dp562
g18
I188
sbasg21
Nsba(i__main__
Mention
p563
(dp564
g7
S't8'
p565
sg9
Nsg10
S'i45'
p566
sg12
Nsg13
Nsg14
(lp567
(i__main__
Token
p568
(dp569
g18
I195
sbasg21
Nsba(i__main__
Mention
p570
(dp571
g7
S't8'
p572
sg9
Nsg10
S'i65'
p573
sg12
Nsg13
Nsg14
(lp574
(i__main__
Token
p575
(dp576
g18
I309
sbasg21
Nsba(i__main__
Mention
p577
(dp578
g7
S't8'
p579
sg9
S'Coreference-NounComplement'
p580
sg10
S'i66'
p581
sg12
S'i65'
p582
sg13
Nsg14
(lp583
(i__main__
Token
p584
(dp585
g18
I310
sba(i__main__
Token
p586
(dp587
g18
I311
sba(i__main__
Token
p588
(dp589
g18
I312
sbasg21
I312
sbasg7
g528
sg64
Nsba(i__main__
Chain
p590
(dp591
g3
(lp592
(i__main__
Mention
p593
(dp594
g7
S't9'
p595
sg9
Nsg10
S'i27'
p596
sg12
Nsg13
Nsg14
(lp597
(i__main__
Token
p598
(dp599
g18
I140
sbasg21
Nsba(i__main__
Mention
p600
(dp601
g7
S't9'
p602
sg9
S'Coreference-NounComplement'
p603
sg10
S'i30'
p604
sg12
S'i27'
p605
sg13
Nsg14
(lp606
(i__main__
Token
p607
(dp608
g18
I143
sbasg21
I143
sba(i__main__
Mention
p609
(dp610
g7
S't9'
p611
sg9
Nsg10
S'i36'
p612
sg12
Nsg13
Nsg14
(lp613
(i__main__
Token
p614
(dp615
g18
I167
sbasg21
Nsba(i__main__
Mention
p616
(dp617
g7
S't9'
p618
sg9
Nsg10
S'i41'
p619
sg12
Nsg13
Nsg14
(lp620
(i__main__
Token
p621
(dp622
g18
I184
sbasg21
Nsba(i__main__
Mention
p623
(dp624
g7
S't9'
p625
sg9
Nsg10
S'i43'
p626
sg12
Nsg13
Nsg14
(lp627
(i__main__
Token
p628
(dp629
g18
I188
sbasg21
Nsba(i__main__
Mention
p630
(dp631
g7
S't9'
p632
sg9
Nsg10
S'i46'
p633
sg12
Nsg13
Nsg14
(lp634
(i__main__
Token
p635
(dp636
g18
I195
sbasg21
Nsba(i__main__
Mention
p637
(dp638
g7
S't9'
p639
sg9
Nsg10
S'i64'
p640
sg12
Nsg13
Nsg14
(lp641
(i__main__
Token
p642
(dp643
g18
I309
sbasg21
Nsba(i__main__
Mention
p644
(dp645
g7
S't9'
p646
sg9
S'Coreference-NounComplement'
p647
sg10
S'i67'
p648
sg12
S'i64'
p649
sg13
Nsg14
(lp650
(i__main__
Token
p651
(dp652
g18
I314
sba(i__main__
Token
p653
(dp654
g18
I315
sbasg21
I315
sbasg7
g595
sg64
Nsba(i__main__
Chain
p655
(dp656
g3
(lp657
(i__main__
Mention
p658
(dp659
g7
S't10'
p660
sg9
Nsg10
S'i33'
p661
sg12
Nsg13
Nsg14
(lp662
(i__main__
Token
p663
(dp664
g18
I162
sbasg21
I162
sba(i__main__
Mention
p665
(dp666
g7
S't10'
p667
sg9
Nsg10
S'i34'
p668
sg12
Nsg13
Nsg14
(lp669
(i__main__
Token
p670
(dp671
g18
I166
sba(i__main__
Token
p672
(dp673
g18
I167
sba(i__main__
Token
p674
(dp675
g18
I168
sba(i__main__
Token
p676
(dp677
g18
I169
sba(i__main__
Token
p678
(dp679
g18
I170
sba(i__main__
Token
p680
(dp681
g18
I171
sba(i__main__
Token
p682
(dp683
g18
I172
sba(i__main__
Token
p684
(dp685
g18
I173
sba(i__main__
Token
p686
(dp687
g18
I174
sba(i__main__
Token
p688
(dp689
g18
I175
sba(i__main__
Token
p690
(dp691
g18
I176
sba(i__main__
Token
p692
(dp693
g18
I177
sba(i__main__
Token
p694
(dp695
g18
I178
sba(i__main__
Token
p696
(dp697
g18
I179
sba(i__main__
Token
p698
(dp699
g18
I180
sba(i__main__
Token
p700
(dp701
g18
I181
sba(i__main__
Token
p702
(dp703
g18
I182
sbasg21
Nsbasg7
g660
sg64
Nsba(i__main__
Chain
p704
(dp705
g3
(lp706
(i__main__
Mention
p707
(dp708
g7
S't11'
p709
sg9
Nsg10
S'i37'
p710
sg12
Nsg13
Nsg14
(lp711
(i__main__
Token
p712
(dp713
g18
I168
sbasg21
I168
sba(i__main__
Mention
p714
(dp715
g7
S't11'
p716
sg9
Nsg10
S'i38'
p717
sg12
Nsg13
Nsg14
(lp718
(i__main__
Token
p719
(dp720
g18
I173
sba(i__main__
Token
p721
(dp722
g18
I174
sba(i__main__
Token
p723
(dp724
g18
I175
sba(i__main__
Token
p725
(dp726
g18
I176
sba(i__main__
Token
p727
(dp728
g18
I177
sba(i__main__
Token
p729
(dp730
g18
I178
sba(i__main__
Token
p731
(dp732
g18
I179
sba(i__main__
Token
p733
(dp734
g18
I180
sba(i__main__
Token
p735
(dp736
g18
I181
sba(i__main__
Token
p737
(dp738
g18
I182
sbasg21
Nsba(i__main__
Mention
p739
(dp740
g7
S't11'
p741
sg9
Nsg10
S'i44'
p742
sg12
Nsg13
Nsg14
(lp743
(i__main__
Token
p744
(dp745
g18
I189
sbasg21
Nsbasg7
g709
sg64
Nsba(i__main__
Chain
p746
(dp747
g3
(lp748
(i__main__
Mention
p749
(dp750
g7
S't12'
p751
sg9
S'anaphora-?'
p752
sg10
S'i51'
p753
sg12
S'i51'
p754
sg13
Nsg14
(lp755
(i__main__
Token
p756
(dp757
g18
I230
sbasg21
I230
sbasg7
g751
sg64
Nsba(i__main__
Chain
p758
(dp759
g3
(lp760
(i__main__
Mention
p761
(dp762
g7
S't13'
p763
sg9
Nsg10
S'i54'
p764
sg12
Nsg13
Nsg14
(lp765
(i__main__
Token
p766
(dp767
g18
I247
sba(i__main__
Token
p768
(dp769
g18
I248
sba(i__main__
Token
p770
(dp771
g18
I249
sba(i__main__
Token
p772
(dp773
g18
I250
sbasg21
I250
sba(i__main__
Mention
p774
(dp775
g7
S't13'
p776
sg9
S'Coreference-NounComplement'
p777
sg10
S'i55'
p778
sg12
S'i54'
p779
sg13
Nsg14
(lp780
(i__main__
Token
p781
(dp782
g18
I251
sba(i__main__
Token
p783
(dp784
g18
I252
sbasg21
I252
sbasg7
g763
sg64
Nsba(i__main__
Chain
p785
(dp786
g3
(lp787
(i__main__
Mention
p788
(dp789
g7
S't14'
p790
sg9
Nsg10
S'i60'
p791
sg12
Nsg13
Nsg14
(lp792
(i__main__
Token
p793
(dp794
g18
I286
sbasg21
I286
sba(i__main__
Mention
p795
(dp796
g7
S't14'
p797
sg9
S'Coreference-Identity'
p798
sg10
S'i86'
p799
sg12
S'i60'
p800
sg13
Nsg14
(lp801
(i__main__
Token
p802
(dp803
g18
I431
sbasg21
I431
sba(i__main__
Mention
p804
(dp805
g7
S't14'
p806
sg9
S'Coreference-Identity'
p807
sg10
S'i87'
p808
sg12
S'i86'
p809
sg13
Nsg14
(lp810
(i__main__
Token
p811
(dp812
g18
I437
sbasg21
I437
sbasg7
g790
sg64
Nsba(i__main__
Chain
p813
(dp814
g3
(lp815
(i__main__
Mention
p816
(dp817
g7
S't15'
p818
sg9
S'anaphora-?'
p819
sg10
S'i72'
p820
sg12
S'i72'
p821
sg13
Nsg14
(lp822
(i__main__
Token
p823
(dp824
g18
I347
sbasg21
I347
sbasg7
g818
sg64
Nsba(i__main__
Chain
p825
(dp826
g3
(lp827
(i__main__
Mention
p828
(dp829
g7
S't16'
p830
sg9
Nsg10
S'i73'
p831
sg12
Nsg13
Nsg14
(lp832
(i__main__
Token
p833
(dp834
g18
I366
sbasg21
I366
sba(i__main__
Mention
p835
(dp836
g7
S't16'
p837
sg9
Nsg10
S'i77'
p838
sg12
Nsg13
Nsg14
(lp839
(i__main__
Token
p840
(dp841
g18
I386
sbasg21
Nsbasg7
g830
sg64
Nsba(i__main__
Chain
p842
(dp843
g3
(lp844
(i__main__
Mention
p845
(dp846
g7
S't17'
p847
sg9
Nsg10
S'i76'
p848
sg12
Nsg13
Nsg14
(lp849
(i__main__
Token
p850
(dp851
g18
I384
sba(i__main__
Token
p852
(dp853
g18
I385
sba(i__main__
Token
p854
(dp855
g18
I386
sbasg21
Nsba(i__main__
Mention
p856
(dp857
g7
S't17'
p858
sg9
S'Coreference-Noun-Noun'
p859
sg10
S'i78'
p860
sg12
S'i76'
p861
sg13
Nsg14
(lp862
(i__main__
Token
p863
(dp864
g18
I390
sba(i__main__
Token
p865
(dp866
g18
I391
sbasg21
I391
sbasg7
g847
sg64
Nsba(i__main__
Chain
p867
(dp868
g3
(lp869
(i__main__
Mention
p870
(dp871
g7
S't18'
p872
sg9
Nsg10
S'i80'
p873
sg12
Nsg13
Nsg14
(lp874
(i__main__
Token
p875
(dp876
g18
I402
sba(i__main__
Token
p877
(dp878
g18
I403
sba(i__main__
Token
p879
(dp880
g18
I404
sba(i__main__
Token
p881
(dp882
g18
I405
sba(i__main__
Token
p883
(dp884
g18
I406
sba(i__main__
Token
p885
(dp886
g18
I407
sba(i__main__
Token
p887
(dp888
g18
I408
sba(i__main__
Token
p889
(dp890
g18
I409
sba(i__main__
Token
p891
(dp892
g18
I410
sba(i__main__
Token
p893
(dp894
g18
I411
sba(i__main__
Token
p895
(dp896
g18
I412
sba(i__main__
Token
p897
(dp898
g18
I413
sba(i__main__
Token
p899
(dp900
g18
I414
sba(i__main__
Token
p901
(dp902
g18
I415
sba(i__main__
Token
p903
(dp904
g18
I416
sba(i__main__
Token
p905
(dp906
g18
I417
sbasg21
I416
sba(i__main__
Mention
p907
(dp908
g7
S't18'
p909
sg9
S'Coreference-Noun-Noun'
p910
sg10
S'i85'
p911
sg12
S'i80'
p912
sg13
Nsg14
(lp913
(i__main__
Token
p914
(dp915
g18
I426
sba(i__main__
Token
p916
(dp917
g18
I427
sbasg21
I427
sba(i__main__
Mention
p918
(dp919
g7
S't18'
p920
sg9
S'Anaphora-C'
p921
sg10
S'i88'
p922
sg12
S'i85'
p923
sg13
Nsg14
(lp924
(i__main__
Token
p925
(dp926
g18
I441
sbasg21
I441
sbasg7
g872
sg64
Nsba.