(lp0
(i__main__
Chain
p1
(dp2
S'mentionList'
p3
(lp4
(i__main__
Mention
p5
(dp6
S'chainId'
p7
S't1'
p8
sS'relType'
p9
NsS'mentionId'
p10
S'i1'
p11
sS'antecedentId'
p12
NsS'crefMod'
p13
NsS'tokenList'
p14
(lp15
(i__main__
Token
p16
(dp17
S'tokenId'
p18
I0
sbasS'mentionHead'
p19
I0
sba(i__main__
Mention
p20
(dp21
g7
S't1'
p22
sg9
S'Coreference-Identity'
p23
sg10
S'i6'
p24
sg12
S'i1'
p25
sg13
Nsg14
(lp26
(i__main__
Token
p27
(dp28
g18
I31
sbasg19
I31
sba(i__main__
Mention
p29
(dp30
g7
S't1'
p31
sg9
S'Coreference-Identity'
p32
sg10
S'i18'
p33
sg12
S'i6'
p34
sg13
Nsg14
(lp35
(i__main__
Token
p36
(dp37
g18
I102
sbasg19
I102
sba(i__main__
Mention
p38
(dp39
g7
S't1'
p40
sg9
S'Coreference-Identity'
p41
sg10
S'i26'
p42
sg12
S'i18'
p43
sg13
Nsg14
(lp44
(i__main__
Token
p45
(dp46
g18
I131
sbasg19
I131
sba(i__main__
Mention
p47
(dp48
g7
S't1'
p49
sg9
S'Coreference-Identity'
p50
sg10
S'i64'
p51
sg12
S'i26'
p52
sg13
Nsg14
(lp53
(i__main__
Token
p54
(dp55
g18
I343
sbasg19
I343
sbasg7
g8
sS'chainHead'
p56
Nsba(i__main__
Chain
p57
(dp58
g3
(lp59
(i__main__
Mention
p60
(dp61
g7
S't2'
p62
sg9
Nsg10
S'i2'
p63
sg12
Nsg13
Nsg14
(lp64
(i__main__
Token
p65
(dp66
g18
I2
sba(i__main__
Token
p67
(dp68
g18
I3
sbasg19
I3
sba(i__main__
Mention
p69
(dp70
g7
S't2'
p71
sg9
S'Coreference-Identity'
p72
sg10
S'i39'
p73
sg12
S'i2'
p74
sg13
Nsg14
(lp75
(i__main__
Token
p76
(dp77
g18
I220
sba(i__main__
Token
p78
(dp79
g18
I221
sbasg19
I221
sba(i__main__
Mention
p80
(dp81
g7
S't2'
p82
sg9
S'Coreference-Identity'
p83
sg10
S'i45'
p84
sg12
S'i39'
p85
sg13
Nsg14
(lp86
(i__main__
Token
p87
(dp88
g18
I243
sba(i__main__
Token
p89
(dp90
g18
I244
sbasg19
I244
sba(i__main__
Mention
p91
(dp92
g7
S't2'
p93
sg9
S'Coreference-Identity'
p94
sg10
S'i50'
p95
sg12
S'i45'
p96
sg13
Nsg14
(lp97
(i__main__
Token
p98
(dp99
g18
I274
sba(i__main__
Token
p100
(dp101
g18
I275
sbasg19
I275
sbasg7
g62
sg56
Nsba(i__main__
Chain
p102
(dp103
g3
(lp104
(i__main__
Mention
p105
(dp106
g7
S't3'
p107
sg9
Nsg10
S'i3'
p108
sg12
Nsg13
Nsg14
(lp109
(i__main__
Token
p110
(dp111
g18
I6
sbasg19
I6
sba(i__main__
Mention
p112
(dp113
g7
S't3'
p114
sg9
S'Coreference-Identity'
p115
sg10
S'i40'
p116
sg12
S'i3'
p117
sg13
Nsg14
(lp118
(i__main__
Token
p119
(dp120
g18
I223
sbasg19
I223
sba(i__main__
Mention
p121
(dp122
g7
S't3'
p123
sg9
S'Coreference-Identity'
p124
sg10
S'i46'
p125
sg12
S'i40'
p126
sg13
Nsg14
(lp127
(i__main__
Token
p128
(dp129
g18
I246
sbasg19
I246
sba(i__main__
Mention
p130
(dp131
g7
S't3'
p132
sg9
S'Coreference-Identity'
p133
sg10
S'i48'
p134
sg12
S'i46'
p135
sg13
Nsg14
(lp136
(i__main__
Token
p137
(dp138
g18
I267
sba(i__main__
Token
p139
(dp140
g18
I268
sbasg19
I268
sba(i__main__
Mention
p141
(dp142
g7
S't3'
p143
sg9
S'Coreference-Noun-Noun'
p144
sg10
S'i51'
p145
sg12
S'i48'
p146
sg13
Nsg14
(lp147
(i__main__
Token
p148
(dp149
g18
I277
sba(i__main__
Token
p150
(dp151
g18
I278
sbasg19
I278
sbasg7
g107
sg56
Nsba(i__main__
Chain
p152
(dp153
g3
(lp154
(i__main__
Mention
p155
(dp156
g7
S't4'
p157
sg9
Nsg10
S'i4'
p158
sg12
Nsg13
Nsg14
(lp159
(i__main__
Token
p160
(dp161
g18
I16
sbasg19
I16
sba(i__main__
Mention
p162
(dp163
g7
S't4'
p164
sg9
S'Coreference-Identity'
p165
sg10
S'i7'
p166
sg12
S'i4'
p167
sg13
Nsg14
(lp168
(i__main__
Token
p169
(dp170
g18
I33
sbasg19
I33
sba(i__main__
Mention
p171
(dp172
g7
S't4'
p173
sg9
S'Coreference-Identity'
p174
sg10
S'i12'
p175
sg12
S'i7'
p176
sg13
Nsg14
(lp177
(i__main__
Token
p178
(dp179
g18
I66
sbasg19
I66
sba(i__main__
Mention
p180
(dp181
g7
S't4'
p182
sg9
Nsg10
S'i16'
p183
sg12
Nsg13
Nsg14
(lp184
(i__main__
Token
p185
(dp186
g18
I86
sba(i__main__
Token
p187
(dp188
g18
I87
sba(i__main__
Token
p189
(dp190
g18
I88
sbasg19
Nsba(i__main__
Mention
p191
(dp192
g7
S't4'
p193
sg9
S'Coreference-PartOf'
p194
sg10
S'i22'
p195
sg12
S'i16'
p196
sg13
Nsg14
(lp197
(i__main__
Token
p198
(dp199
g18
I121
sbasg19
I121
sba(i__main__
Mention
p200
(dp201
g7
S't4'
p202
sg9
S'Coreference-Identity'
p203
sg10
S'i28'
p204
sg12
S'i22'
p205
sg13
Nsg14
(lp206
(i__main__
Token
p207
(dp208
g18
I154
sbasg19
I154
sba(i__main__
Mention
p209
(dp210
g7
S't4'
p211
sg9
S'Coreference-Identity'
p212
sg10
S'i29'
p213
sg12
S'i28'
p214
sg13
Nsg14
(lp215
(i__main__
Token
p216
(dp217
g18
I164
sbasg19
I164
sba(i__main__
Mention
p218
(dp219
g7
S't4'
p220
sg9
S'Coreference-Identity'
p221
sg10
S'i30'
p222
sg12
S'i29'
p223
sg13
Nsg14
(lp224
(i__main__
Token
p225
(dp226
g18
I180
sbasg19
I180
sba(i__main__
Mention
p227
(dp228
g7
S't4'
p229
sg9
S'Anaphora-C'
p230
sg10
S'i31'
p231
sg12
S'i30'
p232
sg13
Nsg14
(lp233
(i__main__
Token
p234
(dp235
g18
I182
sbasg19
I182
sba(i__main__
Mention
p236
(dp237
g7
S't4'
p238
sg9
S'Coreference-Identity'
p239
sg10
S'i33'
p240
sg12
S'i31'
p241
sg13
Nsg14
(lp242
(i__main__
Token
p243
(dp244
g18
I199
sbasg19
I199
sba(i__main__
Mention
p245
(dp246
g7
S't4'
p247
sg9
S'Coreference-Identity'
p248
sg10
S'i35'
p249
sg12
S'i33'
p250
sg13
Nsg14
(lp251
(i__main__
Token
p252
(dp253
g18
I203
sbasg19
I203
sba(i__main__
Mention
p254
(dp255
g7
S't4'
p256
sg9
S'Coreference-Identity'
p257
sg10
S'i43'
p258
sg12
S'i35'
p259
sg13
Nsg14
(lp260
(i__main__
Token
p261
(dp262
g18
I235
sbasg19
I235
sba(i__main__
Mention
p263
(dp264
g7
S't4'
p265
sg9
S'Coreference-Identity'
p266
sg10
S'i54'
p267
sg12
S'i43'
p268
sg13
Nsg14
(lp269
(i__main__
Token
p270
(dp271
g18
I292
sbasg19
I292
sba(i__main__
Mention
p272
(dp273
g7
S't4'
p274
sg9
Nsg10
S'i58'
p275
sg12
Nsg13
Nsg14
(lp276
(i__main__
Token
p277
(dp278
g18
I307
sbasg19
Nsba(i__main__
Mention
p279
(dp280
g7
S't4'
p281
sg9
S'Coreference-Identity'
p282
sg10
S'i61'
p283
sg12
S'i58'
p284
sg13
Nsg14
(lp285
(i__main__
Token
p286
(dp287
g18
I326
sbasg19
I326
sba(i__main__
Mention
p288
(dp289
g7
S't4'
p290
sg9
S'Anaphora-C'
p291
sg10
S'i62'
p292
sg12
S'i61'
p293
sg13
Nsg14
(lp294
(i__main__
Token
p295
(dp296
g18
I327
sbasg19
I327
sba(i__main__
Mention
p297
(dp298
g7
S't4'
p299
sg9
S'Coreference-Identity'
p300
sg10
S'i65'
p301
sg12
S'i62'
p302
sg13
Nsg14
(lp303
(i__main__
Token
p304
(dp305
g18
I355
sbasg19
I355
sbasg7
g157
sg56
Nsba(i__main__
Chain
p306
(dp307
g3
(lp308
(i__main__
Mention
p309
(dp310
g7
S't5'
p311
sg9
Nsg10
S'i5'
p312
sg12
Nsg13
Nsg14
(lp313
(i__main__
Token
p314
(dp315
g18
I18
sba(i__main__
Token
p316
(dp317
g18
I19
sba(i__main__
Token
p318
(dp319
g18
I20
sbasg19
I20
sba(i__main__
Mention
p320
(dp321
g7
S't5'
p322
sg9
S'Coreference-Identity'
p323
sg10
S'i44'
p324
sg12
S'i5'
p325
sg13
Nsg14
(lp326
(i__main__
Token
p327
(dp328
g18
I237
sba(i__main__
Token
p329
(dp330
g18
I238
sba(i__main__
Token
p331
(dp332
g18
I239
sbasg19
I239
sbasg7
g311
sg56
Nsba(i__main__
Chain
p333
(dp334
g3
(lp335
(i__main__
Mention
p336
(dp337
g7
S't6'
p338
sg9
Nsg10
S'i8'
p339
sg12
Nsg13
Nsg14
(lp340
(i__main__
Token
p341
(dp342
g18
I35
sbasg19
I35
sba(i__main__
Mention
p343
(dp344
g7
S't6'
p345
sg9
S'Coreference-Identity'
p346
sg10
S'i13'
p347
sg12
S'i8'
p348
sg13
Nsg14
(lp349
(i__main__
Token
p350
(dp351
g18
I68
sbasg19
I68
sba(i__main__
Mention
p352
(dp353
g7
S't6'
p354
sg9
Nsg10
S'i15'
p355
sg12
Nsg13
Nsg14
(lp356
(i__main__
Token
p357
(dp358
g18
I86
sba(i__main__
Token
p359
(dp360
g18
I87
sba(i__main__
Token
p361
(dp362
g18
I88
sbasg19
Nsba(i__main__
Mention
p363
(dp364
g7
S't6'
p365
sg9
S'Coreference-PartOf'
p366
sg10
S'i19'
p367
sg12
S'i15'
p368
sg13
Nsg14
(lp369
(i__main__
Token
p370
(dp371
g18
I103
sbasg19
I103
sba(i__main__
Mention
p372
(dp373
g7
S't6'
p374
sg9
S'Anaphora-C'
p375
sg10
S'i20'
p376
sg12
S'i19'
p377
sg13
Nsg14
(lp378
(i__main__
Token
p379
(dp380
g18
I105
sbasg19
I105
sba(i__main__
Mention
p381
(dp382
g7
S't6'
p383
sg9
S'Coreference-Identity'
p384
sg10
S'i24'
p385
sg12
S'i20'
p386
sg13
Nsg14
(lp387
(i__main__
Token
p388
(dp389
g18
I123
sbasg19
I123
sbasg7
g338
sg56
Nsba(i__main__
Chain
p390
(dp391
g3
(lp392
(i__main__
Mention
p393
(dp394
g7
S't7'
p395
sg9
Nsg10
S'i9'
p396
sg12
Nsg13
Nsg14
(lp397
(i__main__
Token
p398
(dp399
g18
I39
sba(i__main__
Token
p400
(dp401
g18
I40
sba(i__main__
Token
p402
(dp403
g18
I41
sba(i__main__
Token
p404
(dp405
g18
I42
sbasg19
I42
sba(i__main__
Mention
p406
(dp407
g7
S't7'
p408
sg9
S'Coreference-InferedRelation'
p409
sg10
S'i14'
p410
sg12
S'i9'
p411
sg13
Nsg14
(lp412
(i__main__
Token
p413
(dp414
g18
I72
sba(i__main__
Token
p415
(dp416
g18
I73
sba(i__main__
Token
p417
(dp418
g18
I74
sba(i__main__
Token
p419
(dp420
g18
I75
sba(i__main__
Token
p421
(dp422
g18
I76
sba(i__main__
Token
p423
(dp424
g18
I77
sbasg19
I77
sbasg7
g395
sg56
Nsba(i__main__
Chain
p425
(dp426
g3
(lp427
(i__main__
Mention
p428
(dp429
g7
S't8'
p430
sg9
Nsg10
S'i10'
p431
sg12
Nsg13
Nsg14
(lp432
(i__main__
Token
p433
(dp434
g18
I55
sbasg19
I55
sba(i__main__
Mention
p435
(dp436
g7
S't8'
p437
sg9
S'Coreference-NounComplement'
p438
sg10
S'i11'
p439
sg12
S'i10'
p440
sg13
Nsg14
(lp441
(i__main__
Token
p442
(dp443
g18
I56
sba(i__main__
Token
p444
(dp445
g18
I57
sbasg19
I57
sba(i__main__
Mention
p446
(dp447
g7
S't8'
p448
sg9
S'Anaphora-C'
p449
sg10
S'i17'
p450
sg12
S'i11'
p451
sg13
Nsg14
(lp452
(i__main__
Token
p453
(dp454
g18
I99
sbasg19
I99
sba(i__main__
Mention
p455
(dp456
g7
S't8'
p457
sg9
S'Anaphora-C'
p458
sg10
S'i27'
p459
sg12
S'i17'
p460
sg13
Nsg14
(lp461
(i__main__
Token
p462
(dp463
g18
I148
sbasg19
I148
sba(i__main__
Mention
p464
(dp465
g7
S't8'
p466
sg9
S'Anaphora-C'
p467
sg10
S'i34'
p468
sg12
S'i27'
p469
sg13
Nsg14
(lp470
(i__main__
Token
p471
(dp472
g18
I200
sbasg19
I200
sba(i__main__
Mention
p473
(dp474
g7
S't8'
p475
sg9
S'Anaphora-C'
p476
sg10
S'i41'
p477
sg12
S'i34'
p478
sg13
Nsg14
(lp479
(i__main__
Token
p480
(dp481
g18
I228
sbasg19
I228
sba(i__main__
Mention
p482
(dp483
g7
S't8'
p484
sg9
S'Anaphora-C'
p485
sg10
S'i42'
p486
sg12
S'i41'
p487
sg13
Nsg14
(lp488
(i__main__
Token
p489
(dp490
g18
I231
sbasg19
I231
sba(i__main__
Mention
p491
(dp492
g7
S't8'
p493
sg9
S'Anaphora-C'
p494
sg10
S'i49'
p495
sg12
S'i42'
p496
sg13
Nsg14
(lp497
(i__main__
Token
p498
(dp499
g18
I271
sbasg19
I271
sba(i__main__
Mention
p500
(dp501
g7
S't8'
p502
sg9
S'Anaphora-C'
p503
sg10
S'i52'
p504
sg12
S'i49'
p505
sg13
Nsg14
(lp506
(i__main__
Token
p507
(dp508
g18
I288
sbasg19
I288
sba(i__main__
Mention
p509
(dp510
g7
S't8'
p511
sg9
S'Anaphora-C'
p512
sg10
S'i53'
p513
sg12
S'i52'
p514
sg13
Nsg14
(lp515
(i__main__
Token
p516
(dp517
g18
I291
sbasg19
I291
sba(i__main__
Mention
p518
(dp519
g7
S't8'
p520
sg9
S'Anaphora-C'
p521
sg10
S'i55'
p522
sg12
S'i53'
p523
sg13
Nsg14
(lp524
(i__main__
Token
p525
(dp526
g18
I295
sbasg19
I295
sba(i__main__
Mention
p527
(dp528
g7
S't8'
p529
sg9
Nsg10
S'i59'
p530
sg12
Nsg13
Nsg14
(lp531
(i__main__
Token
p532
(dp533
g18
I307
sbasg19
Nsba(i__main__
Mention
p534
(dp535
g7
S't8'
p536
sg9
S'Anaphora-C'
p537
sg10
S'i60'
p538
sg12
S'i59'
p539
sg13
Nsg14
(lp540
(i__main__
Token
p541
(dp542
g18
I322
sbasg19
I322
sba(i__main__
Mention
p543
(dp544
g7
S't8'
p545
sg9
S'Anaphora-C'
p546
sg10
S'i63'
p547
sg12
S'i60'
p548
sg13
Nsg14
(lp549
(i__main__
Token
p550
(dp551
g18
I338
sbasg19
I338
sbasg7
g430
sg56
Nsba(i__main__
Chain
p552
(dp553
g3
(lp554
(i__main__
Mention
p555
(dp556
g7
S't9'
p557
sg9
Nsg10
S'i21'
p558
sg12
Nsg13
Nsg14
(lp559
(i__main__
Token
p560
(dp561
g18
I118
sbasg19
I118
sbasg7
g557
sg56
Nsba(i__main__
Chain
p562
(dp563
g3
(lp564
(i__main__
Mention
p565
(dp566
g7
S't10'
p567
sg9
Nsg10
S'i23'
p568
sg12
Nsg13
Nsg14
(lp569
(i__main__
Token
p570
(dp571
g18
I121
sba(i__main__
Token
p572
(dp573
g18
I122
sba(i__main__
Token
p574
(dp575
g18
I123
sba(i__main__
Token
p576
(dp577
g18
I124
sba(i__main__
Token
p578
(dp579
g18
I125
sba(i__main__
Token
p580
(dp581
g18
I126
sba(i__main__
Token
p582
(dp583
g18
I127
sbasg19
I126
sba(i__main__
Mention
p584
(dp585
g7
S't10'
p586
sg9
S'Anaphora-C'
p587
sg10
S'i25'
p588
sg12
S'i23'
p589
sg13
Nsg14
(lp590
(i__main__
Token
p591
(dp592
g18
I129
sbasg19
I129
sbasg7
g567
sg56
Nsba(i__main__
Chain
p593
(dp594
g3
(lp595
(i__main__
Mention
p596
(dp597
g7
S't11'
p598
sg9
Nsg10
S'i32'
p599
sg12
Nsg13
Nsg14
(lp600
(i__main__
Token
p601
(dp602
g18
I194
sba(i__main__
Token
p603
(dp604
g18
I195
sbasg19
I195
sba(i__main__
Mention
p605
(dp606
g7
S't11'
p607
sg9
S'Coreference-Identity'
p608
sg10
S'i36'
p609
sg12
S'i32'
p610
sg13
Nsg14
(lp611
(i__main__
Token
p612
(dp613
g18
I208
sba(i__main__
Token
p614
(dp615
g18
I209
sbasg19
I209
sbasg7
g598
sg56
Nsba(i__main__
Chain
p616
(dp617
g3
(lp618
(i__main__
Mention
p619
(dp620
g7
S't12'
p621
sg9
Nsg10
S'i37'
p622
sg12
Nsg13
Nsg14
(lp623
(i__main__
Token
p624
(dp625
g18
I214
sbasg19
I214
sba(i__main__
Mention
p626
(dp627
g7
S't12'
p628
sg9
S'Anaphora-RC'
p629
sg10
S'i38'
p630
sg12
S'i37'
p631
sg13
Nsg14
(lp632
(i__main__
Token
p633
(dp634
g18
I219
sba(i__main__
Token
p635
(dp636
g18
I220
sba(i__main__
Token
p637
(dp638
g18
I221
sba(i__main__
Token
p639
(dp640
g18
I222
sba(i__main__
Token
p641
(dp642
g18
I223
sba(i__main__
Token
p643
(dp644
g18
I224
sba(i__main__
Token
p645
(dp646
g18
I225
sbasg19
I225
sbasg7
g621
sg56
Nsba(i__main__
Chain
p647
(dp648
g3
(lp649
(i__main__
Mention
p650
(dp651
g7
S't13'
p652
sg9
Nsg10
S'i47'
p653
sg12
Nsg13
Nsg14
(lp654
(i__main__
Token
p655
(dp656
g18
I247
sbasg19
I247
sbasg7
g652
sg56
Nsba(i__main__
Chain
p657
(dp658
g3
(lp659
(i__main__
Mention
p660
(dp661
g7
S't14'
p662
sg9
Nsg10
S'i56'
p663
sg12
Nsg13
Nsg14
(lp664
(i__main__
Token
p665
(dp666
g18
I299
sbasg19
I299
sba(i__main__
Mention
p667
(dp668
g7
S't14'
p669
sg9
S'Anaphora-RC'
p670
sg10
S'i57'
p671
sg12
S'i56'
p672
sg13
Nsg14
(lp673
(i__main__
Token
p674
(dp675
g18
I306
sba(i__main__
Token
p676
(dp677
g18
I307
sba(i__main__
Token
p678
(dp679
g18
I308
sba(i__main__
Token
p680
(dp681
g18
I309
sba(i__main__
Token
p682
(dp683
g18
I310
sba(i__main__
Token
p684
(dp685
g18
I311
sba(i__main__
Token
p686
(dp687
g18
I312
sba(i__main__
Token
p688
(dp689
g18
I313
sba(i__main__
Token
p690
(dp691
g18
I314
sba(i__main__
Token
p692
(dp693
g18
I315
sba(i__main__
Token
p694
(dp695
g18
I316
sba(i__main__
Token
p696
(dp697
g18
I317
sba(i__main__
Token
p698
(dp699
g18
I318
sba(i__main__
Token
p700
(dp701
g18
I319
sba(i__main__
Token
p702
(dp703
g18
I320
sbasg19
I319
sbasg7
g662
sg56
Nsba.