(lp0
(i__main__
Chain
p1
(dp2
S'mentionList'
p3
(lp4
(i__main__
Mention
p5
(dp6
S'chainId'
p7
S't1'
p8
sS'relType'
p9
NsS'mentionId'
p10
S'i1'
p11
sS'antecedentId'
p12
NsS'crefMod'
p13
NsS'tokenList'
p14
(lp15
(i__main__
Token
p16
(dp17
S'tokenId'
p18
I0
sbasS'mentionHead'
p19
I0
sba(i__main__
Mention
p20
(dp21
g7
S't1'
p22
sg9
S'Coreference-Noun-Noun'
p23
sg10
S'i19'
p24
sg12
S'i1'
p25
sg13
Nsg14
(lp26
(i__main__
Token
p27
(dp28
g18
I57
sbasg19
I57
sba(i__main__
Mention
p29
(dp30
g7
S't1'
p31
sg9
S'Coreference-Noun-Noun'
p32
sg10
S'i20'
p33
sg12
S'i112'
p34
sg13
Nsg14
(lp35
(i__main__
Token
p36
(dp37
g18
I68
sbasg19
I68
sba(i__main__
Mention
p38
(dp39
g7
S't1'
p40
sg9
S'Coreference-Noun-Noun'
p41
sg10
S'i23'
p42
sg12
S'i20'
p43
sg13
Nsg14
(lp44
(i__main__
Token
p45
(dp46
g18
I84
sbasg19
I84
sba(i__main__
Mention
p47
(dp48
g7
S't1'
p49
sg9
S'Coreference-Noun-Noun'
p50
sg10
S'i36'
p51
sg12
S'i118'
p52
sg13
Nsg14
(lp53
(i__main__
Token
p54
(dp55
g18
I131
sbasg19
I131
sba(i__main__
Mention
p56
(dp57
g7
S't1'
p58
sg9
S'Coreference-Noun-Noun'
p59
sg10
S'i71'
p60
sg12
S'i36'
p61
sg13
Nsg14
(lp62
(i__main__
Token
p63
(dp64
g18
I240
sbasg19
I240
sba(i__main__
Mention
p65
(dp66
g7
S't1'
p67
sg9
S'Coreference-Noun-Noun'
p68
sg10
S'i74'
p69
sg12
S'i113'
p70
sg13
Nsg14
(lp71
(i__main__
Token
p72
(dp73
g18
I255
sba(i__main__
Token
p74
(dp75
g18
I256
sba(i__main__
Token
p76
(dp77
g18
I257
sbasg19
I257
sba(i__main__
Mention
p78
(dp79
g7
S't1'
p80
sg9
S'Coreference-Noun-Noun'
p81
sg10
S'i78'
p82
sg12
S'i74'
p83
sg13
Nsg14
(lp84
(i__main__
Token
p85
(dp86
g18
I261
sbasg19
I261
sba(i__main__
Mention
p87
(dp88
g7
S't1'
p89
sg9
S'Coreference-Noun-Noun'
p90
sg10
S'i86'
p91
sg12
S'i119'
p92
sg13
Nsg14
(lp93
(i__main__
Token
p94
(dp95
g18
I283
sbasg19
I283
sba(i__main__
Mention
p96
(dp97
g7
S't1'
p98
sg9
S'Coreference-Noun-Noun'
p99
sg10
S'i89'
p100
sg12
S'i86'
p101
sg13
Nsg14
(lp102
(i__main__
Token
p103
(dp104
g18
I301
sbasg19
I301
sba(i__main__
Mention
p105
(dp106
g7
S't1'
p107
sg9
S'Coreference-Noun-Noun'
p108
sg10
S'i93'
p109
sg12
S'i89'
p110
sg13
Nsg14
(lp111
(i__main__
Token
p112
(dp113
g18
I319
sbasg19
I319
sba(i__main__
Mention
p114
(dp115
g7
S't1'
p116
sg9
S'Coreference-Identity'
p117
sg10
S'i103'
p118
sg12
S'i93'
p119
sg13
Nsg14
(lp120
(i__main__
Token
p121
(dp122
g18
I380
sbasg19
I380
sbasg7
g8
sS'chainHead'
p123
Nsba(i__main__
Chain
p124
(dp125
g3
(lp126
(i__main__
Mention
p127
(dp128
g7
S't2'
p129
sg9
Nsg10
S'i2'
p130
sg12
Nsg13
Nsg14
(lp131
(i__main__
Token
p132
(dp133
g18
I4
sbasg19
I4
sba(i__main__
Mention
p134
(dp135
g7
S't2'
p136
sg9
S'Coreference-NounComplement'
p137
sg10
S'i3'
p138
sg12
S'i2'
p139
sg13
Nsg14
(lp140
(i__main__
Token
p141
(dp142
g18
I5
sba(i__main__
Token
p143
(dp144
g18
I6
sba(i__main__
Token
p145
(dp146
g18
I7
sbasg19
I7
sba(i__main__
Mention
p147
(dp148
g7
S't2'
p149
sg9
S'Anaphora-C'
p150
sg10
S'i4'
p151
sg12
S'i3'
p152
sg13
Nsg14
(lp153
(i__main__
Token
p154
(dp155
g18
I9
sbasg19
I9
sba(i__main__
Mention
p156
(dp157
g7
S't2'
p158
sg9
S'Coreference-Identity'
p159
sg10
S'i6'
p160
sg12
S'i4'
p161
sg13
Nsg14
(lp162
(i__main__
Token
p163
(dp164
g18
I21
sbasg19
I21
sba(i__main__
Mention
p165
(dp166
g7
S't2'
p167
sg9
S'Anaphora-C'
p168
sg10
S'i7'
p169
sg12
S'i6'
p170
sg13
Nsg14
(lp171
(i__main__
Token
p172
(dp173
g18
I23
sbasg19
I23
sba(i__main__
Mention
p174
(dp175
g7
S't2'
p176
sg9
S'Coreference-Identity'
p177
sg10
S'i12'
p178
sg12
S'i7'
p179
sg13
Nsg14
(lp180
(i__main__
Token
p181
(dp182
g18
I43
sbasg19
I43
sba(i__main__
Mention
p183
(dp184
g7
S't2'
p185
sg9
S'Coreference-Identity'
p186
sg10
S'i47'
p187
sg12
S'i12'
p188
sg13
Nsg14
(lp189
(i__main__
Token
p190
(dp191
g18
I169
sbasg19
I169
sba(i__main__
Mention
p192
(dp193
g7
S't2'
p194
sg9
S'Anaphora-C'
p195
sg10
S'i51'
p196
sg12
S'i47'
p197
sg13
Nsg14
(lp198
(i__main__
Token
p199
(dp200
g18
I176
sbasg19
I176
sba(i__main__
Mention
p201
(dp202
g7
S't2'
p203
sg9
S'Coreference-Identity'
p204
sg10
S'i61'
p205
sg12
S'i70'
p206
sg13
Nsg14
(lp207
(i__main__
Token
p208
(dp209
g18
I208
sbasg19
I208
sba(i__main__
Mention
p210
(dp211
g7
S't2'
p212
sg9
S'Anaphora-C'
p213
sg10
S'i62'
p214
sg12
S'i61'
p215
sg13
Nsg14
(lp216
(i__main__
Token
p217
(dp218
g18
I217
sbasg19
I217
sba(i__main__
Mention
p219
(dp220
g7
S't2'
p221
sg9
S'Coreference-Identity'
p222
sg10
S'i64'
p223
sg12
S'i62'
p224
sg13
Nsg14
(lp225
(i__main__
Token
p226
(dp227
g18
I226
sbasg19
I226
sba(i__main__
Mention
p228
(dp229
g7
S't2'
p230
sg9
S'Anaphora-C'
p231
sg10
S'i72'
p232
sg12
S'i64'
p233
sg13
Nsg14
(lp234
(i__main__
Token
p235
(dp236
g18
I247
sbasg19
I247
sbasg7
g129
sg123
Nsba(i__main__
Chain
p237
(dp238
g3
(lp239
(i__main__
Mention
p240
(dp241
g7
S't3'
p242
sg9
Nsg10
S'i5'
p243
sg12
Nsg13
Nsg14
(lp244
(i__main__
Token
p245
(dp246
g18
I10
sbasg19
I10
sba(i__main__
Mention
p247
(dp248
g7
S't3'
p249
sg9
S'Coreference-Identity'
p250
sg10
S'i53'
p251
sg12
S'i5'
p252
sg13
Nsg14
(lp253
(i__main__
Token
p254
(dp255
g18
I183
sbasg19
I183
sbasg7
g242
sg123
Nsba(i__main__
Chain
p256
(dp257
g3
(lp258
(i__main__
Mention
p259
(dp260
g7
S't4'
p261
sg9
Nsg10
S'i8'
p262
sg12
Nsg13
Nsg14
(lp263
(i__main__
Token
p264
(dp265
g18
I25
sba(i__main__
Token
p266
(dp267
g18
I26
sbasg19
Nsba(i__main__
Mention
p268
(dp269
g7
S't4'
p270
sg9
Nsg10
S'i41'
p271
sg12
Nsg13
Nsg14
(lp272
(i__main__
Token
p273
(dp274
g18
I152
sba(i__main__
Token
p275
(dp276
g18
I153
sbasg19
Nsba(i__main__
Mention
p277
(dp278
g7
S't4'
p279
sg9
Nsg10
S'i56'
p280
sg12
Nsg13
Nsg14
(lp281
(i__main__
Token
p282
(dp283
g18
I193
sba(i__main__
Token
p284
(dp285
g18
I194
sbasg19
Nsba(i__main__
Mention
p286
(dp287
g7
S't4'
p288
sg9
Nsg10
S'i82'
p289
sg12
Nsg13
Nsg14
(lp290
(i__main__
Token
p291
(dp292
g18
I274
sba(i__main__
Token
p293
(dp294
g18
I275
sbasg19
Nsba(i__main__
Mention
p295
(dp296
g7
S't4'
p297
sg9
Nsg10
S'i108'
p298
sg12
Nsg13
Nsg14
(lp299
(i__main__
Token
p300
(dp301
g18
I401
sba(i__main__
Token
p302
(dp303
g18
I402
sbasg19
Nsbasg7
g261
sg123
Nsba(i__main__
Chain
p304
(dp305
g3
(lp306
(i__main__
Mention
p307
(dp308
g7
S't5'
p309
sg9
Nsg10
S'i9'
p310
sg12
Nsg13
Nsg14
(lp311
(i__main__
Token
p312
(dp313
g18
I26
sbasg19
Nsba(i__main__
Mention
p314
(dp315
g7
S't5'
p316
sg9
Nsg10
S'i42'
p317
sg12
Nsg13
Nsg14
(lp318
(i__main__
Token
p319
(dp320
g18
I153
sbasg19
Nsba(i__main__
Mention
p321
(dp322
g7
S't5'
p323
sg9
Nsg10
S'i45'
p324
sg12
Nsg13
Nsg14
(lp325
(i__main__
Token
p326
(dp327
g18
I155
sbasg19
Nsba(i__main__
Mention
p328
(dp329
g7
S't5'
p330
sg9
Nsg10
S'i50'
p331
sg12
Nsg13
Nsg14
(lp332
(i__main__
Token
p333
(dp334
g18
I172
sbasg19
Nsba(i__main__
Mention
p335
(dp336
g7
S't5'
p337
sg9
Nsg10
S'i57'
p338
sg12
Nsg13
Nsg14
(lp339
(i__main__
Token
p340
(dp341
g18
I194
sbasg19
Nsba(i__main__
Mention
p342
(dp343
g7
S't5'
p344
sg9
Nsg10
S'i83'
p345
sg12
Nsg13
Nsg14
(lp346
(i__main__
Token
p347
(dp348
g18
I275
sbasg19
Nsba(i__main__
Mention
p349
(dp350
g7
S't5'
p351
sg9
Nsg10
S'i109'
p352
sg12
Nsg13
Nsg14
(lp353
(i__main__
Token
p354
(dp355
g18
I402
sbasg19
Nsba(i__main__
Mention
p356
(dp357
g7
S't5'
p358
sg9
Nsg10
S'i112'
p359
sg12
Nsg13
Nsg14
(lp360
(i__main__
Token
p361
(dp362
g18
I404
sbasg19
Nsbasg7
g309
sg123
Nsba(i__main__
Chain
p363
(dp364
g3
(lp365
(i__main__
Mention
p366
(dp367
g7
S't6'
p368
sg9
Nsg10
S'i10'
p369
sg12
Nsg13
Nsg14
(lp370
(i__main__
Token
p371
(dp372
g18
I35
sbasg19
I35
sba(i__main__
Mention
p373
(dp374
g7
S't6'
p375
sg9
S'Coreference-NounComplement'
p376
sg10
S'i11'
p377
sg12
S'i10'
p378
sg13
Nsg14
(lp379
(i__main__
Token
p380
(dp381
g18
I36
sba(i__main__
Token
p382
(dp383
g18
I37
sbasg19
I37
sba(i__main__
Mention
p384
(dp385
g7
S't6'
p386
sg9
S'Coreference-Noun-Noun'
p387
sg10
S'i14'
p388
sg12
S'i11'
p389
sg13
Nsg14
(lp390
(i__main__
Token
p391
(dp392
g18
I47
sbasg19
I47
sba(i__main__
Mention
p393
(dp394
g7
S't6'
p395
sg9
S'Coreference-NounComplement'
p396
sg10
S'i15'
p397
sg12
S'i14'
p398
sg13
Nsg14
(lp399
(i__main__
Token
p400
(dp401
g18
I48
sba(i__main__
Token
p402
(dp403
g18
I49
sbasg19
I49
sba(i__main__
Mention
p404
(dp405
g7
S't6'
p406
sg9
S'Anaphora-C'
p407
sg10
S'i16'
p408
sg12
S'i15'
p409
sg13
Nsg14
(lp410
(i__main__
Token
p411
(dp412
g18
I53
sbasg19
I53
sba(i__main__
Mention
p413
(dp414
g7
S't6'
p415
sg9
S'Coreference-Noun-Noun'
p416
sg10
S'i66'
p417
sg12
S'i68'
p418
sg13
Nsg14
(lp419
(i__main__
Token
p420
(dp421
g18
I230
sbasg19
I230
sba(i__main__
Mention
p422
(dp423
g7
S't6'
p424
sg9
S'Coreference-NounComplement'
p425
sg10
S'i67'
p426
sg12
S'i66'
p427
sg13
Nsg14
(lp428
(i__main__
Token
p429
(dp430
g18
I231
sba(i__main__
Token
p431
(dp432
g18
I232
sbasg19
I232
sba(i__main__
Mention
p433
(dp434
g7
S't6'
p435
sg9
S'Anaphora-C'
p436
sg10
S'i68'
p437
sg12
S'i67'
p438
sg13
Nsg14
(lp439
(i__main__
Token
p440
(dp441
g18
I236
sbasg19
I236
sba(i__main__
Mention
p442
(dp443
g7
S't6'
p444
sg9
S'Coreference-Noun-Noun'
p445
sg10
S'i95'
p446
sg12
S'i71'
p447
sg13
Nsg14
(lp448
(i__main__
Token
p449
(dp450
g18
I339
sbasg19
I339
sba(i__main__
Mention
p451
(dp452
g7
S't6'
p453
sg9
S'Coreference-NounComplement'
p454
sg10
S'i96'
p455
sg12
S'i95'
p456
sg13
Nsg14
(lp457
(i__main__
Token
p458
(dp459
g18
I340
sba(i__main__
Token
p460
(dp461
g18
I341
sbasg19
I341
sbasg7
g368
sg123
Nsba(i__main__
Chain
p462
(dp463
g3
(lp464
(i__main__
Mention
p465
(dp466
g7
S't7'
p467
sg9
Nsg10
S'i13'
p468
sg12
Nsg13
Nsg14
(lp469
(i__main__
Token
p470
(dp471
g18
I45
sbasg19
I45
sba(i__main__
Mention
p472
(dp473
g7
S't7'
p474
sg9
S'Coreference-Identity'
p475
sg10
S'i24'
p476
sg12
S'i13'
p477
sg13
Nsg14
(lp478
(i__main__
Token
p479
(dp480
g18
I87
sbasg19
I87
sba(i__main__
Mention
p481
(dp482
g7
S't7'
p483
sg9
S'Coreference-Identity'
p484
sg10
S'i65'
p485
sg12
S'i24'
p486
sg13
Nsg14
(lp487
(i__main__
Token
p488
(dp489
g18
I228
sbasg19
I228
sbasg7
g467
sg123
Nsba(i__main__
Chain
p490
(dp491
g3
(lp492
(i__main__
Mention
p493
(dp494
g7
S't8'
p495
sg9
Nsg10
S'i18'
p496
sg12
Nsg13
Nsg14
(lp497
(i__main__
Token
p498
(dp499
g18
I54
sba(i__main__
Token
p500
(dp501
g18
I55
sbasg19
I55
sba(i__main__
Mention
p502
(dp503
g7
S't8'
p504
sg9
S'Coreference-Identity'
p505
sg10
S'i33'
p506
sg12
S'i18'
p507
sg13
Nsg14
(lp508
(i__main__
Token
p509
(dp510
g18
I122
sba(i__main__
Token
p511
(dp512
g18
I123
sbasg19
I123
sba(i__main__
Mention
p513
(dp514
g7
S't8'
p515
sg9
S'Coreference-Identity'
p516
sg10
S'i70'
p517
sg12
S'i33'
p518
sg13
Nsg14
(lp519
(i__main__
Token
p520
(dp521
g18
I237
sba(i__main__
Token
p522
(dp523
g18
I238
sbasg19
I238
sba(i__main__
Mention
p524
(dp525
g7
S't8'
p526
sg9
S'Coreference-Identity'
p527
sg10
S'i100'
p528
sg12
S'i70'
p529
sg13
Nsg14
(lp530
(i__main__
Token
p531
(dp532
g18
I371
sba(i__main__
Token
p533
(dp534
g18
I372
sbasg19
I372
sba(i__main__
Mention
p535
(dp536
g7
S't8'
p537
sg9
S'Coreference-Noun-Noun'
p538
sg10
S'i107'
p539
sg12
S'i100'
p540
sg13
Nsg14
(lp541
(i__main__
Token
p542
(dp543
g18
I395
sbasg19
I395
sbasg7
g495
sg123
Nsba(i__main__
Chain
p544
(dp545
g3
(lp546
(i__main__
Mention
p547
(dp548
g7
S't9'
p549
sg9
Nsg10
S'i21'
p550
sg12
Nsg13
Nsg14
(lp551
(i__main__
Token
p552
(dp553
g18
I82
sbasg19
I82
sba(i__main__
Mention
p554
(dp555
g7
S't9'
p556
sg9
S'Coreference-Identity'
p557
sg10
S'i75'
p558
sg12
S'i21'
p559
sg13
Nsg14
(lp560
(i__main__
Token
p561
(dp562
g18
I259
sbasg19
I259
sbasg7
g549
sg123
Nsba(i__main__
Chain
p563
(dp564
g3
(lp565
(i__main__
Mention
p566
(dp567
g7
S't10'
p568
sg9
Nsg10
S'i22'
p569
sg12
Nsg13
Nsg14
(lp570
(i__main__
Token
p571
(dp572
g18
I84
sba(i__main__
Token
p573
(dp574
g18
I85
sbasg19
I85
sba(i__main__
Mention
p575
(dp576
g7
S't10'
p577
sg9
S'Coreference-Identity'
p578
sg10
S'i77'
p579
sg12
S'i22'
p580
sg13
Nsg14
(lp581
(i__main__
Token
p582
(dp583
g18
I261
sba(i__main__
Token
p584
(dp585
g18
I262
sbasg19
I262
sbasg7
g568
sg123
Nsba(i__main__
Chain
p586
(dp587
g3
(lp588
(i__main__
Mention
p589
(dp590
g7
S't11'
p591
sg9
Nsg10
S'i25'
p592
sg12
Nsg13
Nsg14
(lp593
(i__main__
Token
p594
(dp595
g18
I91
sbasg19
I91
sba(i__main__
Mention
p596
(dp597
g7
S't11'
p598
sg9
S'Coreference-Identity'
p599
sg10
S'i40'
p600
sg12
S'i25'
p601
sg13
Nsg14
(lp602
(i__main__
Token
p603
(dp604
g18
I149
sbasg19
I149
sba(i__main__
Mention
p605
(dp606
g7
S't11'
p607
sg9
S'Coreference-Identity'
p608
sg10
S'i54'
p609
sg12
S'i86'
p610
sg13
Nsg14
(lp611
(i__main__
Token
p612
(dp613
g18
I190
sbasg19
I190
sbasg7
g591
sg123
Nsba(i__main__
Chain
p614
(dp615
g3
(lp616
(i__main__
Mention
p617
(dp618
g7
S't12'
p619
sg9
Nsg10
S'i26'
p620
sg12
Nsg13
Nsg14
(lp621
(i__main__
Token
p622
(dp623
g18
I94
sba(i__main__
Token
p624
(dp625
g18
I95
sba(i__main__
Token
p626
(dp627
g18
I96
sbasg19
I96
sba(i__main__
Mention
p628
(dp629
g7
S't12'
p630
sg9
S'Coreference-Abbreviation'
p631
sg10
S'i27'
p632
sg12
S'i26'
p633
sg13
Nsg14
(lp634
(i__main__
Token
p635
(dp636
g18
I98
sbasg19
I98
sba(i__main__
Mention
p637
(dp638
g7
S't12'
p639
sg9
S'Coreference-Identity'
p640
sg10
S'i55'
p641
sg12
S'i27'
p642
sg13
Nsg14
(lp643
(i__main__
Token
p644
(dp645
g18
I193
sbasg19
I193
sba(i__main__
Mention
p646
(dp647
g7
S't12'
p648
sg9
S'Coreference-Identity'
p649
sg10
S'i81'
p650
sg12
S'i55'
p651
sg13
Nsg14
(lp652
(i__main__
Token
p653
(dp654
g18
I274
sbasg19
I274
sbasg7
g619
sg123
Nsba(i__main__
Chain
p655
(dp656
g3
(lp657
(i__main__
Mention
p658
(dp659
g7
S't13'
p660
sg9
Nsg10
S'i28'
p661
sg12
Nsg13
Nsg14
(lp662
(i__main__
Token
p663
(dp664
g18
I101
sba(i__main__
Token
p665
(dp666
g18
I102
sba(i__main__
Token
p667
(dp668
g18
I103
sbasg19
I103
sba(i__main__
Mention
p669
(dp670
g7
S't13'
p671
sg9
S'Coreference-Identity'
p672
sg10
S'i84'
p673
sg12
S'i28'
p674
sg13
Nsg14
(lp675
(i__main__
Token
p676
(dp677
g18
I277
sba(i__main__
Token
p678
(dp679
g18
I278
sba(i__main__
Token
p680
(dp681
g18
I279
sbasg19
I279
sbasg7
g660
sg123
Nsba(i__main__
Chain
p682
(dp683
g3
(lp684
(i__main__
Mention
p685
(dp686
g7
S't14'
p687
sg9
Nsg10
S'i29'
p688
sg12
Nsg13
Nsg14
(lp689
(i__main__
Token
p690
(dp691
g18
I105
sbasg19
I105
sba(i__main__
Mention
p692
(dp693
g7
S't14'
p694
sg9
S'Coreference-Identity'
p695
sg10
S'i85'
p696
sg12
S'i29'
p697
sg13
Nsg14
(lp698
(i__main__
Token
p699
(dp700
g18
I281
sbasg19
I281
sba(i__main__
Mention
p701
(dp702
g7
S't14'
p703
sg9
S'Coreference-Identity'
p704
sg10
S'i90'
p705
sg12
S'i85'
p706
sg13
Nsg14
(lp707
(i__main__
Token
p708
(dp709
g18
I310
sbasg19
I310
sbasg7
g687
sg123
Nsba(i__main__
Chain
p710
(dp711
g3
(lp712
(i__main__
Mention
p713
(dp714
g7
S't15'
p715
sg9
Nsg10
S'i30'
p716
sg12
Nsg13
Nsg14
(lp717
(i__main__
Token
p718
(dp719
g18
I108
sbasg19
I108
sba(i__main__
Mention
p720
(dp721
g7
S't15'
p722
sg9
S'Coreference-Identity'
p723
sg10
S'i39'
p724
sg12
S'i30'
p725
sg13
Nsg14
(lp726
(i__main__
Token
p727
(dp728
g18
I136
sbasg19
I136
sba(i__main__
Mention
p729
(dp730
g7
S't15'
p731
sg9
S'Coreference-Identity'
p732
sg10
S'i46'
p733
sg12
S'i39'
p734
sg13
Nsg14
(lp735
(i__main__
Token
p736
(dp737
g18
I158
sbasg19
I158
sba(i__main__
Mention
p738
(dp739
g7
S't15'
p740
sg9
S'Coreference-Identity'
p741
sg10
S'i59'
p742
sg12
S'i46'
p743
sg13
Nsg14
(lp744
(i__main__
Token
p745
(dp746
g18
I202
sbasg19
I202
sba(i__main__
Mention
p747
(dp748
g7
S't15'
p749
sg9
S'Coreference-Identity'
p750
sg10
S'i73'
p751
sg12
S'i59'
p752
sg13
Nsg14
(lp753
(i__main__
Token
p754
(dp755
g18
I248
sbasg19
I248
sba(i__main__
Mention
p756
(dp757
g7
S't15'
p758
sg9
S'Coreference-Identity'
p759
sg10
S'i87'
p760
sg12
S'i73'
p761
sg13
Nsg14
(lp762
(i__main__
Token
p763
(dp764
g18
I289
sbasg19
I289
sba(i__main__
Mention
p765
(dp766
g7
S't15'
p767
sg9
S'Coreference-Identity'
p768
sg10
S'i91'
p769
sg12
S'i87'
p770
sg13
Nsg14
(lp771
(i__main__
Token
p772
(dp773
g18
I313
sbasg19
I313
sba(i__main__
Mention
p774
(dp775
g7
S't15'
p776
sg9
S'Coreference-Identity'
p777
sg10
S'i92'
p778
sg12
S'i91'
p779
sg13
Nsg14
(lp780
(i__main__
Token
p781
(dp782
g18
I317
sbasg19
I317
sba(i__main__
Mention
p783
(dp784
g7
S't15'
p785
sg9
S'Coreference-Identity'
p786
sg10
S'i106'
p787
sg12
S'i92'
p788
sg13
Nsg14
(lp789
(i__main__
Token
p790
(dp791
g18
I385
sbasg19
I385
sba(i__main__
Mention
p792
(dp793
g7
S't15'
p794
sg9
S'Coreference-Identity'
p795
sg10
S'i113'
p796
sg12
S'i106'
p797
sg13
Nsg14
(lp798
(i__main__
Token
p799
(dp800
g18
I407
sbasg19
I407
sba(i__main__
Mention
p801
(dp802
g7
S't15'
p803
sg9
S'Coreference-Identity'
p804
sg10
S'i122'
p805
sg12
S'i113'
p806
sg13
Nsg14
(lp807
(i__main__
Token
p808
(dp809
g18
I432
sbasg19
I432
sbasg7
g715
sg123
Nsba(i__main__
Chain
p810
(dp811
g3
(lp812
(i__main__
Mention
p813
(dp814
g7
S't16'
p815
sg9
Nsg10
S'i31'
p816
sg12
Nsg13
Nsg14
(lp817
(i__main__
Token
p818
(dp819
g18
I108
sba(i__main__
Token
p820
(dp821
g18
I109
sbasg19
I109
sba(i__main__
Mention
p822
(dp823
g7
S't16'
p824
sg9
S'Coreference-Identity'
p825
sg10
S'i60'
p826
sg12
S'i31'
p827
sg13
Nsg14
(lp828
(i__main__
Token
p829
(dp830
g18
I202
sba(i__main__
Token
p831
(dp832
g18
I203
sbasg19
I203
sbasg7
g815
sg123
Nsba(i__main__
Chain
p833
(dp834
g3
(lp835
(i__main__
Mention
p836
(dp837
g7
S't17'
p838
sg9
Nsg10
S'i32'
p839
sg12
Nsg13
Nsg14
(lp840
(i__main__
Token
p841
(dp842
g18
I113
sbasg19
I113
sba(i__main__
Mention
p843
(dp844
g7
S't17'
p845
sg9
S'Coreference-Identity'
p846
sg10
S'i37'
p847
sg12
S'i32'
p848
sg13
Nsg14
(lp849
(i__main__
Token
p850
(dp851
g18
I133
sbasg19
I133
sba(i__main__
Mention
p852
(dp853
g7
S't17'
p854
sg9
S'Coreference-Identity'
p855
sg10
S'i104'
p856
sg12
S'i37'
p857
sg13
Nsg14
(lp858
(i__main__
Token
p859
(dp860
g18
I382
sbasg19
I382
sba(i__main__
Mention
p861
(dp862
g7
S't17'
p863
sg9
S'Coreference-Identity'
p864
sg10
S'i121'
p865
sg12
S'i104'
p866
sg13
Nsg14
(lp867
(i__main__
Token
p868
(dp869
g18
I429
sbasg19
I429
sbasg7
g838
sg123
Nsba(i__main__
Chain
p870
(dp871
g3
(lp872
(i__main__
Mention
p873
(dp874
g7
S't18'
p875
sg9
Nsg10
S'i34'
p876
sg12
Nsg13
Nsg14
(lp877
(i__main__
Token
p878
(dp879
g18
I126
sba(i__main__
Token
p880
(dp881
g18
I127
sbasg19
I127
sba(i__main__
Mention
p882
(dp883
g7
S't18'
p884
sg9
S'Coreference-NounComplement'
p885
sg10
S'i35'
p886
sg12
S'i34'
p887
sg13
Nsg14
(lp888
(i__main__
Token
p889
(dp890
g18
I128
sba(i__main__
Token
p891
(dp892
g18
I129
sbasg19
I129
sba(i__main__
Mention
p893
(dp894
g7
S't18'
p895
sg9
S'Coreference-Noun-Noun'
p896
sg10
S'i101'
p897
sg12
S'i35'
p898
sg13
Nsg14
(lp899
(i__main__
Token
p900
(dp901
g18
I375
sba(i__main__
Token
p902
(dp903
g18
I376
sbasg19
I376
sba(i__main__
Mention
p904
(dp905
g7
S't18'
p906
sg9
S'Coreference-NounComplement'
p907
sg10
S'i102'
p908
sg12
S'i101'
p909
sg13
Nsg14
(lp910
(i__main__
Token
p911
(dp912
g18
I377
sba(i__main__
Token
p913
(dp914
g18
I378
sbasg19
I378
sba(i__main__
Mention
p915
(dp916
g7
S't18'
p917
sg9
S'Coreference-Identity'
p918
sg10
S'i116'
p919
sg12
S'i102'
p920
sg13
Nsg14
(lp921
(i__main__
Token
p922
(dp923
g18
I419
sbasg19
I419
sba(i__main__
Mention
p924
(dp925
g7
S't18'
p926
sg9
S'Anaphora-C'
p927
sg10
S'i119'
p928
sg12
S'i116'
p929
sg13
Nsg14
(lp930
(i__main__
Token
p931
(dp932
g18
I428
sbasg19
I428
sbasg7
g875
sg123
Nsba(i__main__
Chain
p933
(dp934
g3
(lp935
(i__main__
Mention
p936
(dp937
g7
S't19'
p938
sg9
Nsg10
S'i38'
p939
sg12
Nsg13
Nsg14
(lp940
(i__main__
Token
p941
(dp942
g18
I140
sbasg19
I140
sba(i__main__
Mention
p943
(dp944
g7
S't19'
p945
sg9
S'Coreference-Identity'
p946
sg10
S'i105'
p947
sg12
S'i38'
p948
sg13
Nsg14
(lp949
(i__main__
Token
p950
(dp951
g18
I389
sbasg19
I389
sba(i__main__
Mention
p952
(dp953
g7
S't19'
p954
sg9
S'Coreference-Identity'
p955
sg10
S'i117'
p956
sg12
S'i105'
p957
sg13
Nsg14
(lp958
(i__main__
Token
p959
(dp960
g18
I421
sbasg19
I421
sba(i__main__
Mention
p961
(dp962
g7
S't19'
p963
sg9
S'Anaphora-C'
p964
sg10
S'i118'
p965
sg12
S'i117'
p966
sg13
Nsg14
(lp967
(i__main__
Token
p968
(dp969
g18
I427
sbasg19
I427
sbasg7
g938
sg123
Nsba(i__main__
Chain
p970
(dp971
g3
(lp972
(i__main__
Mention
p973
(dp974
g7
S't20'
p975
sg9
Nsg10
S'i43'
p976
sg12
Nsg13
Nsg14
(lp977
(i__main__
Token
p978
(dp979
g18
I154
sba(i__main__
Token
p980
(dp981
g18
I155
sbasg19
Nsba(i__main__
Mention
p982
(dp983
g7
S't20'
p984
sg9
Nsg10
S'i48'
p985
sg12
Nsg13
Nsg14
(lp986
(i__main__
Token
p987
(dp988
g18
I171
sba(i__main__
Token
p989
(dp990
g18
I172
sbasg19
Nsba(i__main__
Mention
p991
(dp992
g7
S't20'
p993
sg9
Nsg10
S'i110'
p994
sg12
Nsg13
Nsg14
(lp995
(i__main__
Token
p996
(dp997
g18
I403
sba(i__main__
Token
p998
(dp999
g18
I404
sbasg19
Nsbasg7
g975
sg123
Nsba(i__main__
Chain
p1000
(dp1001
g3
(lp1002
(i__main__
Mention
p1003
(dp1004
g7
S't21'
p1005
sg9
Nsg10
S'i44'
p1006
sg12
Nsg13
Nsg14
(lp1007
(i__main__
Token
p1008
(dp1009
g18
I154
sbasg19
I154
sba(i__main__
Mention
p1010
(dp1011
g7
S't21'
p1012
sg9
S'Coreference-Identity'
p1013
sg10
S'i49'
p1014
sg12
S'i44'
p1015
sg13
Nsg14
(lp1016
(i__main__
Token
p1017
(dp1018
g18
I171
sbasg19
I171
sba(i__main__
Mention
p1019
(dp1020
g7
S't21'
p1021
sg9
S'Coreference-Identity'
p1022
sg10
S'i111'
p1023
sg12
S'i49'
p1024
sg13
Nsg14
(lp1025
(i__main__
Token
p1026
(dp1027
g18
I403
sbasg19
I403
sbasg7
g1005
sg123
Nsba(i__main__
Chain
p1028
(dp1029
g3
(lp1030
(i__main__
Mention
p1031
(dp1032
g7
S't22'
p1033
sg9
S'anaphora-?'
p1034
sg10
S'i58'
p1035
sg12
S'i58'
p1036
sg13
Nsg14
(lp1037
(i__main__
Token
p1038
(dp1039
g18
I196
sbasg19
I196
sbasg7
g1033
sg123
Nsba(i__main__
Chain
p1040
(dp1041
g3
(lp1042
(i__main__
Mention
p1043
(dp1044
g7
S't23'
p1045
sg9
S'anaphora-?'
p1046
sg10
S'i63'
p1047
sg12
S'i63'
p1048
sg13
Nsg14
(lp1049
(i__main__
Token
p1050
(dp1051
g18
I220
sbasg19
I220
sbasg7
g1045
sg123
Nsba(i__main__
Chain
p1052
(dp1053
g3
(lp1054
(i__main__
Mention
p1055
(dp1056
g7
S't24'
p1057
sg9
Nsg10
S'i76'
p1058
sg12
Nsg13
Nsg14
(lp1059
(i__main__
Token
p1060
(dp1061
g18
I264
sbasg19
I264
sba(i__main__
Mention
p1062
(dp1063
g7
S't24'
p1064
sg9
S'Coreference-NounComplement'
p1065
sg10
S'i79'
p1066
sg12
S'i76'
p1067
sg13
Nsg14
(lp1068
(i__main__
Token
p1069
(dp1070
g18
I265
sba(i__main__
Token
p1071
(dp1072
g18
I266
sba(i__main__
Token
p1073
(dp1074
g18
I267
sbasg19
I267
sba(i__main__
Mention
p1075
(dp1076
g7
S't24'
p1077
sg9
S'Anaphora-C'
p1078
sg10
S'i80'
p1079
sg12
S'i79'
p1080
sg13
Nsg14
(lp1081
(i__main__
Token
p1082
(dp1083
g18
I273
sbasg19
I273
sba(i__main__
Mention
p1084
(dp1085
g7
S't24'
p1086
sg9
S'Anaphora-C'
p1087
sg10
S'i88'
p1088
sg12
S'i80'
p1089
sg13
Nsg14
(lp1090
(i__main__
Token
p1091
(dp1092
g18
I298
sbasg19
I298
sba(i__main__
Mention
p1093
(dp1094
g7
S't24'
p1095
sg9
S'Anaphora-C'
p1096
sg10
S'i94'
p1097
sg12
S'i88'
p1098
sg13
Nsg14
(lp1099
(i__main__
Token
p1100
(dp1101
g18
I336
sbasg19
I336
sbasg7
g1057
sg123
Nsba(i__main__
Chain
p1102
(dp1103
g3
(lp1104
(i__main__
Mention
p1105
(dp1106
g7
S't25'
p1107
sg9
Nsg10
S'i97'
p1108
sg12
Nsg13
Nsg14
(lp1109
(i__main__
Token
p1110
(dp1111
g18
I343
sbasg19
I343
sba(i__main__
Mention
p1112
(dp1113
g7
S't25'
p1114
sg9
S'Coreference-NounComplement'
p1115
sg10
S'i98'
p1116
sg12
S'i97'
p1117
sg13
Nsg14
(lp1118
(i__main__
Token
p1119
(dp1120
g18
I344
sba(i__main__
Token
p1121
(dp1122
g18
I345
sbasg19
I345
sbasg7
g1107
sg123
Nsba(i__main__
Chain
p1123
(dp1124
g3
(lp1125
(i__main__
Mention
p1126
(dp1127
g7
S't26'
p1128
sg9
Nsg10
S'i99'
p1129
sg12
Nsg13
Nsg14
(lp1130
(i__main__
Token
p1131
(dp1132
g18
I365
sba(i__main__
Token
p1133
(dp1134
g18
I366
sba(i__main__
Token
p1135
(dp1136
g18
I367
sbasg19
I367
sba(i__main__
Mention
p1137
(dp1138
g7
S't26'
p1139
sg9
S'Coreference-Identity'
p1140
sg10
S'i114'
p1141
sg12
S'i99'
p1142
sg13
Nsg14
(lp1143
(i__main__
Token
p1144
(dp1145
g18
I414
sbasg19
I414
sba(i__main__
Mention
p1146
(dp1147
g7
S't26'
p1148
sg9
S'Anaphora-C'
p1149
sg10
S'i115'
p1150
sg12
S'i114'
p1151
sg13
Nsg14
(lp1152
(i__main__
Token
p1153
(dp1154
g18
I418
sbasg19
I418
sbasg7
g1128
sg123
Nsba(i__main__
Chain
p1155
(dp1156
g3
(lp1157
(i__main__
Mention
p1158
(dp1159
g7
S't27'
p1160
sg9
Nsg10
S'i120'
p1161
sg12
Nsg13
Nsg14
(lp1162
(i__main__
Token
p1163
(dp1164
g18
I428
sba(i__main__
Token
p1165
(dp1166
g18
I429
sba(i__main__
Token
p1167
(dp1168
g18
I430
sba(i__main__
Token
p1169
(dp1170
g18
I431
sba(i__main__
Token
p1171
(dp1172
g18
I432
sba(i__main__
Token
p1173
(dp1174
g18
I433
sba(i__main__
Token
p1175
(dp1176
g18
I434
sba(i__main__
Token
p1177
(dp1178
g18
I435
sba(i__main__
Token
p1179
(dp1180
g18
I436
sba(i__main__
Token
p1181
(dp1182
g18
I437
sba(i__main__
Token
p1183
(dp1184
g18
I438
sbasg19
I437
sba(i__main__
Mention
p1185
(dp1186
g7
S't27'
p1187
sg9
S'Anaphora-C'
p1188
sg10
S'i123'
p1189
sg12
S'i120'
p1190
sg13
Nsg14
(lp1191
(i__main__
Token
p1192
(dp1193
g18
I440
sbasg19
I440
sbasg7
g1160
sg123
Nsba.