(lp0
(i__main__
Chain
p1
(dp2
S'mentionList'
p3
(lp4
(i__main__
Mention
p5
(dp6
S'chainId'
p7
S't1'
p8
sS'relType'
p9
NsS'mentionId'
p10
S'i1'
p11
sS'antecedentId'
p12
NsS'crefMod'
p13
NsS'tokenList'
p14
(lp15
(i__main__
Token
p16
(dp17
S'tokenId'
p18
I0
sba(i__main__
Token
p19
(dp20
g18
I1
sbasS'mentionHead'
p21
I1
sba(i__main__
Mention
p22
(dp23
g7
S't1'
p24
sg9
S'Coreference-Identity'
p25
sg10
S'i6'
p26
sg12
S'i1'
p27
sg13
Nsg14
(lp28
(i__main__
Token
p29
(dp30
g18
I24
sbasg21
I24
sba(i__main__
Mention
p31
(dp32
g7
S't1'
p33
sg9
S'Coreference-Identity'
p34
sg10
S'i45'
p35
sg12
S'i6'
p36
sg13
Nsg14
(lp37
(i__main__
Token
p38
(dp39
g18
I203
sba(i__main__
Token
p40
(dp41
g18
I204
sbasg21
I204
sba(i__main__
Mention
p42
(dp43
g7
S't1'
p44
sg9
S'Coreference-Identity'
p45
sg10
S'i51'
p46
sg12
S'i45'
p47
sg13
Nsg14
(lp48
(i__main__
Token
p49
(dp50
g18
I250
sba(i__main__
Token
p51
(dp52
g18
I251
sbasg21
I251
sba(i__main__
Mention
p53
(dp54
g7
S't1'
p55
sg9
S'Coreference-Identity'
p56
sg10
S'i55'
p57
sg12
S'i51'
p58
sg13
Nsg14
(lp59
(i__main__
Token
p60
(dp61
g18
I289
sba(i__main__
Token
p62
(dp63
g18
I290
sbasg21
I290
sbasg7
g8
sS'chainHead'
p64
Nsba(i__main__
Chain
p65
(dp66
g3
(lp67
(i__main__
Mention
p68
(dp69
g7
S't2'
p70
sg9
Nsg10
S'i2'
p71
sg12
Nsg13
Nsg14
(lp72
(i__main__
Token
p73
(dp74
g18
I8
sbasg21
I8
sba(i__main__
Mention
p75
(dp76
g7
S't2'
p77
sg9
S'Coreference-Identity'
p78
sg10
S'i22'
p79
sg12
S'i2'
p80
sg13
Nsg14
(lp81
(i__main__
Token
p82
(dp83
g18
I103
sbasg21
I103
sba(i__main__
Mention
p84
(dp85
g7
S't2'
p86
sg9
S'Coreference-Identity'
p87
sg10
S'i50'
p88
sg12
S'i22'
p89
sg13
Nsg14
(lp90
(i__main__
Token
p91
(dp92
g18
I244
sbasg21
I244
sba(i__main__
Mention
p93
(dp94
g7
S't2'
p95
sg9
S'Coreference-Noun-Noun'
p96
sg10
S'i54'
p97
sg12
S'i50'
p98
sg13
Nsg14
(lp99
(i__main__
Token
p100
(dp101
g18
I269
sbasg21
I269
sba(i__main__
Mention
p102
(dp103
g7
S't2'
p104
sg9
S'Coreference-Noun-Noun'
p105
sg10
S'i56'
p106
sg12
S'i54'
p107
sg13
Nsg14
(lp108
(i__main__
Token
p109
(dp110
g18
I292
sbasg21
I292
sbasg7
g70
sg64
Nsba(i__main__
Chain
p111
(dp112
g3
(lp113
(i__main__
Mention
p114
(dp115
g7
S't3'
p116
sg9
Nsg10
S'i3'
p117
sg12
Nsg13
Nsg14
(lp118
(i__main__
Token
p119
(dp120
g18
I10
sba(i__main__
Token
p121
(dp122
g18
I11
sba(i__main__
Token
p123
(dp124
g18
I12
sba(i__main__
Token
p125
(dp126
g18
I13
sbasg21
I13
sba(i__main__
Mention
p127
(dp128
g7
S't3'
p129
sg9
S'Coreference-NounComplement'
p130
sg10
S'i4'
p131
sg12
S'i3'
p132
sg13
Nsg14
(lp133
(i__main__
Token
p134
(dp135
g18
I14
sbasg21
I14
sba(i__main__
Mention
p136
(dp137
g7
S't3'
p138
sg9
S'Coreference-Identity'
p139
sg10
S'i7'
p140
sg12
S'i4'
p141
sg13
Nsg14
(lp142
(i__main__
Token
p143
(dp144
g18
I26
sbasg21
I26
sba(i__main__
Mention
p145
(dp146
g7
S't3'
p147
sg9
S'Coreference-Identity'
p148
sg10
S'i11'
p149
sg12
S'i7'
p150
sg13
Nsg14
(lp151
(i__main__
Token
p152
(dp153
g18
I58
sbasg21
I58
sba(i__main__
Mention
p154
(dp155
g7
S't3'
p156
sg9
S'Coreference-Identity'
p157
sg10
S'i18'
p158
sg12
S'i11'
p159
sg13
Nsg14
(lp160
(i__main__
Token
p161
(dp162
g18
I87
sbasg21
I87
sba(i__main__
Mention
p163
(dp164
g7
S't3'
p165
sg9
S'Coreference-Identity'
p166
sg10
S'i37'
p167
sg12
S'i18'
p168
sg13
Nsg14
(lp169
(i__main__
Token
p170
(dp171
g18
I163
sbasg21
I163
sba(i__main__
Mention
p172
(dp173
g7
S't3'
p174
sg9
S'Coreference-Identity'
p175
sg10
S'i49'
p176
sg12
S'i37'
p177
sg13
Nsg14
(lp178
(i__main__
Token
p179
(dp180
g18
I230
sbasg21
I230
sba(i__main__
Mention
p181
(dp182
g7
S't3'
p183
sg9
S'Coreference-Identity'
p184
sg10
S'i52'
p185
sg12
S'i49'
p186
sg13
Nsg14
(lp187
(i__main__
Token
p188
(dp189
g18
I253
sbasg21
I253
sbasg7
g116
sg64
Nsba(i__main__
Chain
p190
(dp191
g3
(lp192
(i__main__
Mention
p193
(dp194
g7
S't4'
p195
sg9
Nsg10
S'i5'
p196
sg12
Nsg13
Nsg14
(lp197
(i__main__
Token
p198
(dp199
g18
I16
sba(i__main__
Token
p200
(dp201
g18
I17
sbasg21
I17
sba(i__main__
Mention
p202
(dp203
g7
S't4'
p204
sg9
S'Coreference-Identity'
p205
sg10
S'i47'
p206
sg12
S'i5'
p207
sg13
Nsg14
(lp208
(i__main__
Token
p209
(dp210
g18
I207
sba(i__main__
Token
p211
(dp212
g18
I208
sbasg21
I208
sba(i__main__
Mention
p213
(dp214
g7
S't4'
p215
sg9
S'Coreference-Identity'
p216
sg10
S'i53'
p217
sg12
S'i47'
p218
sg13
Nsg14
(lp219
(i__main__
Token
p220
(dp221
g18
I255
sba(i__main__
Token
p222
(dp223
g18
I256
sbasg21
I256
sbasg7
g195
sg64
Nsba(i__main__
Chain
p224
(dp225
g3
(lp226
(i__main__
Mention
p227
(dp228
g7
S't5'
p229
sg9
Nsg10
S'i8'
p230
sg12
Nsg13
Nsg14
(lp231
(i__main__
Token
p232
(dp233
g18
I37
sba(i__main__
Token
p234
(dp235
g18
I38
sbasg21
I38
sba(i__main__
Mention
p236
(dp237
g7
S't5'
p238
sg9
S'Coreference-Noun-Noun'
p239
sg10
S'i23'
p240
sg12
S'i8'
p241
sg13
Nsg14
(lp242
(i__main__
Token
p243
(dp244
g18
I105
sba(i__main__
Token
p245
(dp246
g18
I106
sbasg21
I106
sba(i__main__
Mention
p247
(dp248
g7
S't5'
p249
sg9
S'Coreference-NounComplement'
p250
sg10
S'i24'
p251
sg12
S'i23'
p252
sg13
Nsg14
(lp253
(i__main__
Token
p254
(dp255
g18
I107
sba(i__main__
Token
p256
(dp257
g18
I108
sbasg21
I108
sba(i__main__
Mention
p258
(dp259
g7
S't5'
p260
sg9
S'Coreference-Identity'
p261
sg10
S'i25'
p262
sg12
S'i24'
p263
sg13
Nsg14
(lp264
(i__main__
Token
p265
(dp266
g18
I115
sbasg21
I115
sba(i__main__
Mention
p267
(dp268
g7
S't5'
p269
sg9
S'Anaphora-C'
p270
sg10
S'i26'
p271
sg12
S'i25'
p272
sg13
Nsg14
(lp273
(i__main__
Token
p274
(dp275
g18
I120
sbasg21
I120
sba(i__main__
Mention
p276
(dp277
g7
S't5'
p278
sg9
S'Anaphora-C'
p279
sg10
S'i29'
p280
sg12
S'i26'
p281
sg13
Nsg14
(lp282
(i__main__
Token
p283
(dp284
g18
I130
sbasg21
I130
sba(i__main__
Mention
p285
(dp286
g7
S't5'
p287
sg9
S'Anaphora-C'
p288
sg10
S'i30'
p289
sg12
S'i29'
p290
sg13
Nsg14
(lp291
(i__main__
Token
p292
(dp293
g18
I133
sbasg21
I133
sba(i__main__
Mention
p294
(dp295
g7
S't5'
p296
sg9
S'Coreference-Identity'
p297
sg10
S'i32'
p298
sg12
S'i30'
p299
sg13
Nsg14
(lp300
(i__main__
Token
p301
(dp302
g18
I144
sbasg21
I144
sba(i__main__
Mention
p303
(dp304
g7
S't5'
p305
sg9
S'Anaphora-C'
p306
sg10
S'i34'
p307
sg12
S'i32'
p308
sg13
Nsg14
(lp309
(i__main__
Token
p310
(dp311
g18
I157
sbasg21
I157
sba(i__main__
Mention
p312
(dp313
g7
S't5'
p314
sg9
S'Anaphora-C'
p315
sg10
S'i35'
p316
sg12
S'i34'
p317
sg13
Nsg14
(lp318
(i__main__
Token
p319
(dp320
g18
I160
sbasg21
I160
sba(i__main__
Mention
p321
(dp322
g7
S't5'
p323
sg9
S'Anaphora-C'
p324
sg10
S'i40'
p325
sg12
S'i35'
p326
sg13
Nsg14
(lp327
(i__main__
Token
p328
(dp329
g18
I177
sbasg21
I177
sbasg7
g229
sg64
Nsba(i__main__
Chain
p330
(dp331
g3
(lp332
(i__main__
Mention
p333
(dp334
g7
S't6'
p335
sg9
Nsg10
S'i9'
p336
sg12
Nsg13
Nsg14
(lp337
(i__main__
Token
p338
(dp339
g18
I43
sba(i__main__
Token
p340
(dp341
g18
I44
sba(i__main__
Token
p342
(dp343
g18
I45
sbasg21
I45
sba(i__main__
Mention
p344
(dp345
g7
S't6'
p346
sg9
S'Coreference-Identity'
p347
sg10
S'i13'
p348
sg12
S'i9'
p349
sg13
Nsg14
(lp350
(i__main__
Token
p351
(dp352
g18
I66
sba(i__main__
Token
p353
(dp354
g18
I67
sbasg21
I67
sbasg7
g335
sg64
Nsba(i__main__
Chain
p355
(dp356
g3
(lp357
(i__main__
Mention
p358
(dp359
g7
S't7'
p360
sg9
Nsg10
S'i10'
p361
sg12
Nsg13
Nsg14
(lp362
(i__main__
Token
p363
(dp364
g18
I52
sba(i__main__
Token
p365
(dp366
g18
I53
sbasg21
I53
sba(i__main__
Mention
p367
(dp368
g7
S't7'
p369
sg9
S'Coreference-Identity'
p370
sg10
S'i27'
p371
sg12
S'i10'
p372
sg13
Nsg14
(lp373
(i__main__
Token
p374
(dp375
g18
I121
sba(i__main__
Token
p376
(dp377
g18
I122
sbasg21
I122
sbasg7
g360
sg64
Nsba(i__main__
Chain
p378
(dp379
g3
(lp380
(i__main__
Mention
p381
(dp382
g7
S't8'
p383
sg9
Nsg10
S'i12'
p384
sg12
Nsg13
Nsg14
(lp385
(i__main__
Token
p386
(dp387
g18
I60
sbasg21
I60
sba(i__main__
Mention
p388
(dp389
g7
S't8'
p390
sg9
S'Anaphora-C'
p391
sg10
S'i14'
p392
sg12
S'i12'
p393
sg13
Nsg14
(lp394
(i__main__
Token
p395
(dp396
g18
I73
sbasg21
I73
sba(i__main__
Mention
p397
(dp398
g7
S't8'
p399
sg9
S'Anaphora-C'
p400
sg10
S'i17'
p401
sg12
S'i14'
p402
sg13
Nsg14
(lp403
(i__main__
Token
p404
(dp405
g18
I85
sbasg21
I85
sba(i__main__
Mention
p406
(dp407
g7
S't8'
p408
sg9
S'Anaphora-C'
p409
sg10
S'i21'
p410
sg12
S'i17'
p411
sg13
Nsg14
(lp412
(i__main__
Token
p413
(dp414
g18
I101
sbasg21
I101
sba(i__main__
Mention
p415
(dp416
g7
S't8'
p417
sg9
S'Coreference-Identity'
p418
sg10
S'i28'
p419
sg12
S'i21'
p420
sg13
Nsg14
(lp421
(i__main__
Token
p422
(dp423
g18
I124
sbasg21
I124
sba(i__main__
Mention
p424
(dp425
g7
S't8'
p426
sg9
S'Anaphora-C'
p427
sg10
S'i31'
p428
sg12
S'i28'
p429
sg13
Nsg14
(lp430
(i__main__
Token
p431
(dp432
g18
I134
sbasg21
I134
sba(i__main__
Mention
p433
(dp434
g7
S't8'
p435
sg9
S'Anaphora-C'
p436
sg10
S'i33'
p437
sg12
S'i31'
p438
sg13
Nsg14
(lp439
(i__main__
Token
p440
(dp441
g18
I149
sbasg21
I149
sba(i__main__
Mention
p442
(dp443
g7
S't8'
p444
sg9
S'Anaphora-C'
p445
sg10
S'i36'
p446
sg12
S'i33'
p447
sg13
Nsg14
(lp448
(i__main__
Token
p449
(dp450
g18
I161
sbasg21
I161
sba(i__main__
Mention
p451
(dp452
g7
S't8'
p453
sg9
S'Anaphora-C'
p454
sg10
S'i42'
p455
sg12
S'i36'
p456
sg13
Nsg14
(lp457
(i__main__
Token
p458
(dp459
g18
I184
sbasg21
I184
sbasg7
g383
sg64
Nsba(i__main__
Chain
p460
(dp461
g3
(lp462
(i__main__
Mention
p463
(dp464
g7
S't9'
p465
sg9
Nsg10
S'i15'
p466
sg12
Nsg13
Nsg14
(lp467
(i__main__
Token
p468
(dp469
g18
I75
sba(i__main__
Token
p470
(dp471
g18
I76
sba(i__main__
Token
p472
(dp473
g18
I77
sbasg21
I77
sba(i__main__
Mention
p474
(dp475
g7
S't9'
p476
sg9
S'Coreference-NounComplement'
p477
sg10
S'i16'
p478
sg12
S'i15'
p479
sg13
Nsg14
(lp480
(i__main__
Token
p481
(dp482
g18
I78
sba(i__main__
Token
p483
(dp484
g18
I79
sba(i__main__
Token
p485
(dp486
g18
I80
sbasg21
I80
sbasg7
g465
sg64
Nsba(i__main__
Chain
p487
(dp488
g3
(lp489
(i__main__
Mention
p490
(dp491
g7
S't10'
p492
sg9
Nsg10
S'i19'
p493
sg12
Nsg13
Nsg14
(lp494
(i__main__
Token
p495
(dp496
g18
I89
sbasg21
I89
sba(i__main__
Mention
p497
(dp498
g7
S't10'
p499
sg9
S'Coreference-NounComplement'
p500
sg10
S'i20'
p501
sg12
S'i19'
p502
sg13
Nsg14
(lp503
(i__main__
Token
p504
(dp505
g18
I90
sba(i__main__
Token
p506
(dp507
g18
I91
sbasg21
I91
sba(i__main__
Mention
p508
(dp509
g7
S't10'
p510
sg9
S'Coreference-Noun-Noun'
p511
sg10
S'i38'
p512
sg12
S'i20'
p513
sg13
Nsg14
(lp514
(i__main__
Token
p515
(dp516
g18
I165
sbasg21
I165
sba(i__main__
Mention
p517
(dp518
g7
S't10'
p519
sg9
S'Coreference-NounComplement'
p520
sg10
S'i39'
p521
sg12
S'i38'
p522
sg13
Nsg14
(lp523
(i__main__
Token
p524
(dp525
g18
I166
sbasg21
I166
sba(i__main__
Mention
p526
(dp527
g7
S't10'
p528
sg9
S'Coreference-Identity'
p529
sg10
S'i41'
p530
sg12
S'i39'
p531
sg13
Nsg14
(lp532
(i__main__
Token
p533
(dp534
g18
I181
sbasg21
I181
sba(i__main__
Mention
p535
(dp536
g7
S't10'
p537
sg9
S'Coreference-Identity'
p538
sg10
S'i43'
p539
sg12
S'i41'
p540
sg13
Nsg14
(lp541
(i__main__
Token
p542
(dp543
g18
I196
sbasg21
I196
sbasg7
g492
sg64
Nsba(i__main__
Chain
p544
(dp545
g3
(lp546
(i__main__
Mention
p547
(dp548
g7
S't11'
p549
sg9
Nsg10
S'i44'
p550
sg12
Nsg13
Nsg14
(lp551
(i__main__
Token
p552
(dp553
g18
I198
sba(i__main__
Token
p554
(dp555
g18
I199
sba(i__main__
Token
p556
(dp557
g18
I200
sbasg21
I200
sbasg7
g549
sg64
Nsba(i__main__
Chain
p558
(dp559
g3
(lp560
(i__main__
Mention
p561
(dp562
g7
S't12'
p563
sg9
Nsg10
S'i46'
p564
sg12
Nsg13
Nsg14
(lp565
(i__main__
Token
p566
(dp567
g18
I203
sba(i__main__
Token
p568
(dp569
g18
I204
sba(i__main__
Token
p570
(dp571
g18
I205
sba(i__main__
Token
p572
(dp573
g18
I206
sba(i__main__
Token
p574
(dp575
g18
I207
sba(i__main__
Token
p576
(dp577
g18
I208
sba(i__main__
Token
p578
(dp579
g18
I209
sba(i__main__
Token
p580
(dp581
g18
I210
sba(i__main__
Token
p582
(dp583
g18
I211
sba(i__main__
Token
p584
(dp585
g18
I212
sba(i__main__
Token
p586
(dp587
g18
I213
sba(i__main__
Token
p588
(dp589
g18
I214
sbasg21
I213
sba(i__main__
Mention
p590
(dp591
g7
S't12'
p592
sg9
S'Anaphora-E'
p593
sg10
S'i48'
p594
sg12
S'i46'
p595
sg13
Nsg14
(lp596
(i__main__
Token
p597
(dp598
g18
I219
sbasg21
I219
sbasg7
g563
sg64
Nsba(i__main__
Chain
p599
(dp600
g3
(lp601
(i__main__
Mention
p602
(dp603
g7
S't13'
p604
sg9
Nsg10
S'i57'
p605
sg12
Nsg13
Nsg14
(lp606
(i__main__
Token
p607
(dp608
g18
I294
sba(i__main__
Token
p609
(dp610
g18
I295
sba(i__main__
Token
p611
(dp612
g18
I296
sba(i__main__
Token
p613
(dp614
g18
I297
sbasg21
I297
sba(i__main__
Mention
p615
(dp616
g7
S't13'
p617
sg9
S'Coreference-NounComplement'
p618
sg10
S'i58'
p619
sg12
S'i57'
p620
sg13
Nsg14
(lp621
(i__main__
Token
p622
(dp623
g18
I298
sba(i__main__
Token
p624
(dp625
g18
I299
sba(i__main__
Token
p626
(dp627
g18
I300
sba(i__main__
Token
p628
(dp629
g18
I301
sba(i__main__
Token
p630
(dp631
g18
I302
sbasg21
I302
sba(i__main__
Mention
p632
(dp633
g7
S't13'
p634
sg9
S'Coreference-Bracketed/Abbraviation'
p635
sg10
S'i59'
p636
sg12
S'i58'
p637
sg13
Nsg14
(lp638
(i__main__
Token
p639
(dp640
g18
I304
sbasg21
I304
sbasg7
g604
sg64
Nsba.