(lp0
(i__main__
Chain
p1
(dp2
S'mentionList'
p3
(lp4
(i__main__
Mention
p5
(dp6
S'chainId'
p7
S't1'
p8
sS'relType'
p9
NsS'mentionId'
p10
S'i1'
p11
sS'antecedentId'
p12
NsS'crefMod'
p13
NsS'tokenList'
p14
(lp15
(i__main__
Token
p16
(dp17
S'tokenId'
p18
I0
sba(i__main__
Token
p19
(dp20
g18
I1
sba(i__main__
Token
p21
(dp22
g18
I2
sbasS'mentionHead'
p23
I2
sba(i__main__
Mention
p24
(dp25
g7
S't1'
p26
sg9
S'Coreference-Identity'
p27
sg10
S'i9'
p28
sg12
S'i1'
p29
sg13
Nsg14
(lp30
(i__main__
Token
p31
(dp32
g18
I30
sba(i__main__
Token
p33
(dp34
g18
I31
sba(i__main__
Token
p35
(dp36
g18
I32
sbasg23
I32
sba(i__main__
Mention
p37
(dp38
g7
S't1'
p39
sg9
S'Coreference-Identity'
p40
sg10
S'i30'
p41
sg12
S'i9'
p42
sg13
Nsg14
(lp43
(i__main__
Token
p44
(dp45
g18
I129
sba(i__main__
Token
p46
(dp47
g18
I130
sba(i__main__
Token
p48
(dp49
g18
I131
sbasg23
I131
sba(i__main__
Mention
p50
(dp51
g7
S't1'
p52
sg9
S'Coreference-Identity'
p53
sg10
S'i37'
p54
sg12
S'i30'
p55
sg13
Nsg14
(lp56
(i__main__
Token
p57
(dp58
g18
I155
sba(i__main__
Token
p59
(dp60
g18
I156
sbasg23
I156
sbasg7
g8
sS'chainHead'
p61
Nsba(i__main__
Chain
p62
(dp63
g3
(lp64
(i__main__
Mention
p65
(dp66
g7
S't2'
p67
sg9
Nsg10
S'i2'
p68
sg12
Nsg13
Nsg14
(lp69
(i__main__
Token
p70
(dp71
g18
I0
sba(i__main__
Token
p72
(dp73
g18
I1
sbasg23
I1
sba(i__main__
Mention
p74
(dp75
g7
S't2'
p76
sg9
S'Coreference-Identity'
p77
sg10
S'i10'
p78
sg12
S'i2'
p79
sg13
Nsg14
(lp80
(i__main__
Token
p81
(dp82
g18
I30
sba(i__main__
Token
p83
(dp84
g18
I31
sbasg23
I31
sba(i__main__
Mention
p85
(dp86
g7
S't2'
p87
sg9
S'Coreference-Identity'
p88
sg10
S'i25'
p89
sg12
S'i10'
p90
sg13
Nsg14
(lp91
(i__main__
Token
p92
(dp93
g18
I109
sba(i__main__
Token
p94
(dp95
g18
I110
sbasg23
I110
sba(i__main__
Mention
p96
(dp97
g7
S't2'
p98
sg9
S'Coreference-Identity'
p99
sg10
S'i31'
p100
sg12
S'i25'
p101
sg13
Nsg14
(lp102
(i__main__
Token
p103
(dp104
g18
I129
sba(i__main__
Token
p105
(dp106
g18
I130
sbasg23
I130
sbasg7
g67
sg61
Nsba(i__main__
Chain
p107
(dp108
g3
(lp109
(i__main__
Mention
p110
(dp111
g7
S't3'
p112
sg9
Nsg10
S'i3'
p113
sg12
Nsg13
Nsg14
(lp114
(i__main__
Token
p115
(dp116
g18
I4
sbasg23
I4
sba(i__main__
Mention
p117
(dp118
g7
S't3'
p119
sg9
S'Coreference-Identity'
p120
sg10
S'i24'
p121
sg12
S'i3'
p122
sg13
Nsg14
(lp123
(i__main__
Token
p124
(dp125
g18
I105
sbasg23
I105
sbasg7
g112
sg61
Nsba(i__main__
Chain
p126
(dp127
g3
(lp128
(i__main__
Mention
p129
(dp130
g7
S't4'
p131
sg9
Nsg10
S'i4'
p132
sg12
Nsg13
Nsg14
(lp133
(i__main__
Token
p134
(dp135
g18
I7
sba(i__main__
Token
p136
(dp137
g18
I8
sbasg23
I8
sba(i__main__
Mention
p138
(dp139
g7
S't4'
p140
sg9
S'Coreference-Identity'
p141
sg10
S'i11'
p142
sg12
S'i4'
p143
sg13
Nsg14
(lp144
(i__main__
Token
p145
(dp146
g18
I34
sbasg23
I34
sba(i__main__
Mention
p147
(dp148
g7
S't4'
p149
sg9
S'Coreference-Identity'
p150
sg10
S'i18'
p151
sg12
S'i11'
p152
sg13
Nsg14
(lp153
(i__main__
Token
p154
(dp155
g18
I74
sbasg23
I74
sba(i__main__
Mention
p156
(dp157
g7
S't4'
p158
sg9
S'Coreference-Identity'
p159
sg10
S'i33'
p160
sg12
S'i18'
p161
sg13
Nsg14
(lp162
(i__main__
Token
p163
(dp164
g18
I138
sbasg23
I138
sba(i__main__
Mention
p165
(dp166
g7
S't4'
p167
sg9
S'Coreference-Identity'
p168
sg10
S'i36'
p169
sg12
S'i33'
p170
sg13
Nsg14
(lp171
(i__main__
Token
p172
(dp173
g18
I149
sba(i__main__
Token
p174
(dp175
g18
I150
sbasg23
I150
sbasg7
g131
sg61
Nsba(i__main__
Chain
p176
(dp177
g3
(lp178
(i__main__
Mention
p179
(dp180
g7
S't5'
p181
sg9
Nsg10
S'i5'
p182
sg12
Nsg13
Nsg14
(lp183
(i__main__
Token
p184
(dp185
g18
I10
sba(i__main__
Token
p186
(dp187
g18
I11
sbasg23
I11
sba(i__main__
Mention
p188
(dp189
g7
S't5'
p190
sg9
S'Coreference-Identity'
p191
sg10
S'i12'
p192
sg12
S'i5'
p193
sg13
Nsg14
(lp194
(i__main__
Token
p195
(dp196
g18
I36
sba(i__main__
Token
p197
(dp198
g18
I37
sbasg23
I37
sba(i__main__
Mention
p199
(dp200
g7
S't5'
p201
sg9
S'Coreference-Identity'
p202
sg10
S'i17'
p203
sg12
S'i12'
p204
sg13
Nsg14
(lp205
(i__main__
Token
p206
(dp207
g18
I72
sbasg23
I72
sba(i__main__
Mention
p208
(dp209
g7
S't5'
p210
sg9
S'Coreference-Identity'
p211
sg10
S'i20'
p212
sg12
S'i17'
p213
sg13
Nsg14
(lp214
(i__main__
Token
p215
(dp216
g18
I83
sbasg23
I83
sba(i__main__
Mention
p217
(dp218
g7
S't5'
p219
sg9
S'Coreference-Identity'
p220
sg10
S'i23'
p221
sg12
S'i20'
p222
sg13
Nsg14
(lp223
(i__main__
Token
p224
(dp225
g18
I103
sbasg23
I103
sba(i__main__
Mention
p226
(dp227
g7
S't5'
p228
sg9
S'Coreference-Identity'
p229
sg10
S'i29'
p230
sg12
S'i23'
p231
sg13
Nsg14
(lp232
(i__main__
Token
p233
(dp234
g18
I126
sbasg23
I126
sba(i__main__
Mention
p235
(dp236
g7
S't5'
p237
sg9
Nsg10
S'i34'
p238
sg12
Nsg13
Nsg14
(lp239
(i__main__
Token
p240
(dp241
g18
I140
sbasg23
Nsbasg7
g181
sg61
Nsba(i__main__
Chain
p242
(dp243
g3
(lp244
(i__main__
Mention
p245
(dp246
g7
S't6'
p247
sg9
Nsg10
S'i6'
p248
sg12
Nsg13
Nsg14
(lp249
(i__main__
Token
p250
(dp251
g18
I14
sba(i__main__
Token
p252
(dp253
g18
I15
sbasg23
I15
sba(i__main__
Mention
p254
(dp255
g7
S't6'
p256
sg9
S'Coreference-Identity'
p257
sg10
S'i38'
p258
sg12
S'i6'
p259
sg13
Nsg14
(lp260
(i__main__
Token
p261
(dp262
g18
I160
sbasg23
I160
sbasg7
g247
sg61
Nsba(i__main__
Chain
p263
(dp264
g3
(lp265
(i__main__
Mention
p266
(dp267
g7
S't7'
p268
sg9
Nsg10
S'i7'
p269
sg12
Nsg13
Nsg14
(lp270
(i__main__
Token
p271
(dp272
g18
I20
sba(i__main__
Token
p273
(dp274
g18
I21
sbasg23
I21
sba(i__main__
Mention
p275
(dp276
g7
S't7'
p277
sg9
S'Coreference-NounComplement'
p278
sg10
S'i8'
p279
sg12
S'i7'
p280
sg13
Nsg14
(lp281
(i__main__
Token
p282
(dp283
g18
I22
sba(i__main__
Token
p284
(dp285
g18
I23
sba(i__main__
Token
p286
(dp287
g18
I24
sbasg23
I24
sba(i__main__
Mention
p288
(dp289
g7
S't7'
p290
sg9
S'Anaphora-C'
p291
sg10
S'i14'
p292
sg12
S'i8'
p293
sg13
Nsg14
(lp294
(i__main__
Token
p295
(dp296
g18
I59
sbasg23
I59
sba(i__main__
Mention
p297
(dp298
g7
S't7'
p299
sg9
S'Coreference-Noun-Noun'
p300
sg10
S'i27'
p301
sg12
S'i14'
p302
sg13
Nsg14
(lp303
(i__main__
Token
p304
(dp305
g18
I117
sba(i__main__
Token
p306
(dp307
g18
I118
sbasg23
I118
sbasg7
g268
sg61
Nsba(i__main__
Chain
p308
(dp309
g3
(lp310
(i__main__
Mention
p311
(dp312
g7
S't8'
p313
sg9
Nsg10
S'i13'
p314
sg12
Nsg13
Nsg14
(lp315
(i__main__
Token
p316
(dp317
g18
I43
sbasg23
I43
sba(i__main__
Mention
p318
(dp319
g7
S't8'
p320
sg9
S'Coreference-Identity'
p321
sg10
S'i19'
p322
sg12
S'i13'
p323
sg13
Nsg14
(lp324
(i__main__
Token
p325
(dp326
g18
I79
sbasg23
I79
sbasg7
g313
sg61
Nsba(i__main__
Chain
p327
(dp328
g3
(lp329
(i__main__
Mention
p330
(dp331
g7
S't9'
p332
sg9
Nsg10
S'i15'
p333
sg12
Nsg13
Nsg14
(lp334
(i__main__
Token
p335
(dp336
g18
I62
sba(i__main__
Token
p337
(dp338
g18
I63
sba(i__main__
Token
p339
(dp340
g18
I64
sbasg23
I64
sba(i__main__
Mention
p341
(dp342
g7
S't9'
p343
sg9
S'Coreference-NounComplement'
p344
sg10
S'i16'
p345
sg12
S'i15'
p346
sg13
Nsg14
(lp347
(i__main__
Token
p348
(dp349
g18
I65
sba(i__main__
Token
p350
(dp351
g18
I66
sba(i__main__
Token
p352
(dp353
g18
I67
sbasg23
I67
sbasg7
g332
sg61
Nsba(i__main__
Chain
p354
(dp355
g3
(lp356
(i__main__
Mention
p357
(dp358
g7
S't10'
p359
sg9
Nsg10
S'i21'
p360
sg12
Nsg13
Nsg14
(lp361
(i__main__
Token
p362
(dp363
g18
I88
sba(i__main__
Token
p364
(dp365
g18
I89
sbasg23
I89
sba(i__main__
Mention
p366
(dp367
g7
S't10'
p368
sg9
S'Coreference-NounComplement'
p369
sg10
S'i22'
p370
sg12
S'i21'
p371
sg13
Nsg14
(lp372
(i__main__
Token
p373
(dp374
g18
I90
sba(i__main__
Token
p375
(dp376
g18
I91
sbasg23
I91
sba(i__main__
Mention
p377
(dp378
g7
S't10'
p379
sg9
S'Coreference-Identity'
p380
sg10
S'i28'
p381
sg12
S'i22'
p382
sg13
Nsg14
(lp383
(i__main__
Token
p384
(dp385
g18
I124
sbasg23
I124
sba(i__main__
Mention
p386
(dp387
g7
S't10'
p388
sg9
Nsg10
S'i35'
p389
sg12
Nsg13
Nsg14
(lp390
(i__main__
Token
p391
(dp392
g18
I140
sbasg23
Nsbasg7
g359
sg61
Nsba(i__main__
Chain
p393
(dp394
g3
(lp395
(i__main__
Mention
p396
(dp397
g7
S't11'
p398
sg9
Nsg10
S'i26'
p399
sg12
Nsg13
Nsg14
(lp400
(i__main__
Token
p401
(dp402
g18
I114
sbasg23
I114
sba(i__main__
Mention
p403
(dp404
g7
S't11'
p405
sg9
S'Coreference-Identity'
p406
sg10
S'i32'
p407
sg12
S'i26'
p408
sg13
Nsg14
(lp409
(i__main__
Token
p410
(dp411
g18
I133
sbasg23
I133
sbasg7
g398
sg61
Nsba.