(lp0
(i__main__
Chain
p1
(dp2
S'mentionList'
p3
(lp4
(i__main__
Mention
p5
(dp6
S'chainId'
p7
S't1'
p8
sS'relType'
p9
NsS'mentionId'
p10
S'i1'
p11
sS'antecedentId'
p12
NsS'crefMod'
p13
NsS'tokenList'
p14
(lp15
(i__main__
Token
p16
(dp17
S'tokenId'
p18
I4
sba(i__main__
Token
p19
(dp20
g18
I5
sba(i__main__
Token
p21
(dp22
g18
I6
sba(i__main__
Token
p23
(dp24
g18
I7
sbasS'mentionHead'
p25
I7
sba(i__main__
Mention
p26
(dp27
g7
S't1'
p28
sg9
S'Coreference-Identity'
p29
sg10
S'i14'
p30
sg12
S'i1'
p31
sg13
Nsg14
(lp32
(i__main__
Token
p33
(dp34
g18
I78
sbasg25
I78
sba(i__main__
Mention
p35
(dp36
g7
S't1'
p37
sg9
S'Coreference-Identity'
p38
sg10
S'i16'
p39
sg12
S'i14'
p40
sg13
Nsg14
(lp41
(i__main__
Token
p42
(dp43
g18
I89
sba(i__main__
Token
p44
(dp45
g18
I90
sbasg25
I90
sba(i__main__
Mention
p46
(dp47
g7
S't1'
p48
sg9
S'Coreference-Identity'
p49
sg10
S'i21'
p50
sg12
S'i16'
p51
sg13
Nsg14
(lp52
(i__main__
Token
p53
(dp54
g18
I152
sba(i__main__
Token
p55
(dp56
g18
I153
sbasg25
I153
sba(i__main__
Mention
p57
(dp58
g7
S't1'
p59
sg9
S'Anaphora-C'
p60
sg10
S'i22'
p61
sg12
S'i21'
p62
sg13
Nsg14
(lp63
(i__main__
Token
p64
(dp65
g18
I154
sbasg25
I154
sba(i__main__
Mention
p66
(dp67
g7
S't1'
p68
sg9
S'Coreference-Identity'
p69
sg10
S'i23'
p70
sg12
S'i22'
p71
sg13
Nsg14
(lp72
(i__main__
Token
p73
(dp74
g18
I168
sbasg25
I168
sbasg7
g8
sS'chainHead'
p75
Nsba(i__main__
Chain
p76
(dp77
g3
(lp78
(i__main__
Mention
p79
(dp80
g7
S't2'
p81
sg9
Nsg10
S'i2'
p82
sg12
Nsg13
Nsg14
(lp83
(i__main__
Token
p84
(dp85
g18
I9
sbasg25
I9
sba(i__main__
Mention
p86
(dp87
g7
S't2'
p88
sg9
S'Coreference-Identity'
p89
sg10
S'i8'
p90
sg12
S'i2'
p91
sg13
Nsg14
(lp92
(i__main__
Token
p93
(dp94
g18
I39
sbasg25
I39
sba(i__main__
Mention
p95
(dp96
g7
S't2'
p97
sg9
S'Coreference-Identity'
p98
sg10
S'i15'
p99
sg12
S'i8'
p100
sg13
Nsg14
(lp101
(i__main__
Token
p102
(dp103
g18
I83
sbasg25
I83
sba(i__main__
Mention
p104
(dp105
g7
S't2'
p106
sg9
S'Coreference-Identity'
p107
sg10
S'i19'
p108
sg12
S'i15'
p109
sg13
Nsg14
(lp110
(i__main__
Token
p111
(dp112
g18
I139
sbasg25
I139
sbasg7
g81
sg75
Nsba(i__main__
Chain
p113
(dp114
g3
(lp115
(i__main__
Mention
p116
(dp117
g7
S't3'
p118
sg9
Nsg10
S'i3'
p119
sg12
Nsg13
Nsg14
(lp120
(i__main__
Token
p121
(dp122
g18
I14
sba(i__main__
Token
p123
(dp124
g18
I15
sbasg25
I15
sba(i__main__
Mention
p125
(dp126
g7
S't3'
p127
sg9
S'Coreference-Identity'
p128
sg10
S'i9'
p129
sg12
S'i3'
p130
sg13
Nsg14
(lp131
(i__main__
Token
p132
(dp133
g18
I44
sba(i__main__
Token
p134
(dp135
g18
I45
sba(i__main__
Token
p136
(dp137
g18
I46
sbasg25
I46
sba(i__main__
Mention
p138
(dp139
g7
S't3'
p140
sg9
S'Coreference-Noun-Noun'
p141
sg10
S'i11'
p142
sg12
S'i9'
p143
sg13
Nsg14
(lp144
(i__main__
Token
p145
(dp146
g18
I60
sba(i__main__
Token
p147
(dp148
g18
I61
sbasg25
I61
sba(i__main__
Mention
p149
(dp150
g7
S't3'
p151
sg9
S'Anaphora-C'
p152
sg10
S'i12'
p153
sg12
S'i11'
p154
sg13
Nsg14
(lp155
(i__main__
Token
p156
(dp157
g18
I69
sbasg25
I69
sba(i__main__
Mention
p158
(dp159
g7
S't3'
p160
sg9
S'Coreference-Noun-Noun'
p161
sg10
S'i18'
p162
sg12
S'i12'
p163
sg13
Nsg14
(lp164
(i__main__
Token
p165
(dp166
g18
I128
sbasg25
I128
sbasg7
g118
sg75
Nsba(i__main__
Chain
p167
(dp168
g3
(lp169
(i__main__
Mention
p170
(dp171
g7
S't4'
p172
sg9
Nsg10
S'i4'
p173
sg12
Nsg13
Nsg14
(lp174
(i__main__
Token
p175
(dp176
g18
I22
sbasg25
I22
sba(i__main__
Mention
p177
(dp178
g7
S't4'
p179
sg9
S'Coreference-Identity'
p180
sg10
S'i17'
p181
sg12
S'i4'
p182
sg13
Nsg14
(lp183
(i__main__
Token
p184
(dp185
g18
I121
sbasg25
I121
sbasg7
g172
sg75
Nsba(i__main__
Chain
p186
(dp187
g3
(lp188
(i__main__
Mention
p189
(dp190
g7
S't5'
p191
sg9
Nsg10
S'i5'
p192
sg12
Nsg13
Nsg14
(lp193
(i__main__
Token
p194
(dp195
g18
I30
sbasg25
I30
sba(i__main__
Mention
p196
(dp197
g7
S't5'
p198
sg9
S'Coreference-Identity'
p199
sg10
S'i20'
p200
sg12
S'i5'
p201
sg13
Nsg14
(lp202
(i__main__
Token
p203
(dp204
g18
I143
sba(i__main__
Token
p205
(dp206
g18
I144
sbasg25
I144
sbasg7
g191
sg75
Nsba(i__main__
Chain
p207
(dp208
g3
(lp209
(i__main__
Mention
p210
(dp211
g7
S't6'
p212
sg9
Nsg10
S'i6'
p213
sg12
Nsg13
Nsg14
(lp214
(i__main__
Token
p215
(dp216
g18
I32
sba(i__main__
Token
p217
(dp218
g18
I33
sbasg25
I33
sba(i__main__
Mention
p219
(dp220
g7
S't6'
p221
sg9
S'Coreference-NounComplement'
p222
sg10
S'i7'
p223
sg12
S'i6'
p224
sg13
Nsg14
(lp225
(i__main__
Token
p226
(dp227
g18
I34
sba(i__main__
Token
p228
(dp229
g18
I35
sbasg25
I35
sba(i__main__
Mention
p230
(dp231
g7
S't6'
p232
sg9
S'Coreference-Identity'
p233
sg10
S'i10'
p234
sg12
S'i7'
p235
sg13
Nsg14
(lp236
(i__main__
Token
p237
(dp238
g18
I56
sbasg25
I56
sba(i__main__
Mention
p239
(dp240
g7
S't6'
p241
sg9
S'Anaphora-C'
p242
sg10
S'i13'
p243
sg12
S'i10'
p244
sg13
Nsg14
(lp245
(i__main__
Token
p246
(dp247
g18
I75
sbasg25
I75
sbasg7
g212
sg75
Nsba.