(lp0
(i__main__
Chain
p1
(dp2
S'mentionList'
p3
(lp4
(i__main__
Mention
p5
(dp6
S'chainId'
p7
S't1'
p8
sS'relType'
p9
NsS'mentionId'
p10
S'i1'
p11
sS'antecedentId'
p12
NsS'crefMod'
p13
NsS'tokenList'
p14
(lp15
(i__main__
Token
p16
(dp17
S'tokenId'
p18
I15
sba(i__main__
Token
p19
(dp20
g18
I16
sbasS'mentionHead'
p21
I16
sba(i__main__
Mention
p22
(dp23
g7
S't1'
p24
sg9
S'Anaphora-C'
p25
sg10
S'i2'
p26
sg12
S'i1'
p27
sg13
Nsg14
(lp28
(i__main__
Token
p29
(dp30
g18
I21
sbasg21
I21
sba(i__main__
Mention
p31
(dp32
g7
S't1'
p33
sg9
S'Coreference-InferedRelation'
p34
sg10
S'i16'
p35
sg12
S'i2'
p36
sg13
Nsg14
(lp37
(i__main__
Token
p38
(dp39
g18
I100
sba(i__main__
Token
p40
(dp41
g18
I101
sbasg21
I101
sba(i__main__
Mention
p42
(dp43
g7
S't1'
p44
sg9
S'Coreference-Identity'
p45
sg10
S'i27'
p46
sg12
S'i16'
p47
sg13
Nsg14
(lp48
(i__main__
Token
p49
(dp50
g18
I152
sba(i__main__
Token
p51
(dp52
g18
I153
sbasg21
I153
sba(i__main__
Mention
p53
(dp54
g7
S't1'
p55
sg9
S'Coreference-Identity'
p56
sg10
S'i28'
p57
sg12
S'i27'
p58
sg13
Nsg14
(lp59
(i__main__
Token
p60
(dp61
g18
I158
sba(i__main__
Token
p62
(dp63
g18
I159
sbasg21
I159
sbasg7
g8
sS'chainHead'
p64
Nsba(i__main__
Chain
p65
(dp66
g3
(lp67
(i__main__
Mention
p68
(dp69
g7
S't2'
p70
sg9
Nsg10
S'i4'
p71
sg12
Nsg13
Nsg14
(lp72
(i__main__
Token
p73
(dp74
g18
I25
sbasg21
I25
sba(i__main__
Mention
p75
(dp76
g7
S't2'
p77
sg9
S'Coreference-Identity'
p78
sg10
S'i5'
p79
sg12
S'i4'
p80
sg13
Nsg14
(lp81
(i__main__
Token
p82
(dp83
g18
I46
sbasg21
I46
sba(i__main__
Mention
p84
(dp85
g7
S't2'
p86
sg9
S'Coreference-PartOf'
p87
sg10
S'i14'
p88
sg12
S'i5'
p89
sg13
Nsg14
(lp90
(i__main__
Token
p91
(dp92
g18
I96
sbasg21
I96
sba(i__main__
Mention
p93
(dp94
g7
S't2'
p95
sg9
S'Coreference-PartOf-WMain'
p96
sg10
S'i26'
p97
sg12
S'i14'
p98
sg13
Nsg14
(lp99
(i__main__
Token
p100
(dp101
g18
I148
sbasg21
I148
sba(i__main__
Mention
p102
(dp103
g7
S't2'
p104
sg9
S'Coreference-PartOf-WMain'
p105
sg10
S'i30'
p106
sg12
S'i26'
p107
sg13
Nsg14
(lp108
(i__main__
Token
p109
(dp110
g18
I179
sbasg21
I179
sba(i__main__
Mention
p111
(dp112
g7
S't2'
p113
sg9
S'Coreference-PartOf-WMain'
p114
sg10
S'i32'
p115
sg12
S'i30'
p116
sg13
Nsg14
(lp117
(i__main__
Token
p118
(dp119
g18
I188
sbasg21
I188
sbasg7
g70
sg64
Nsba(i__main__
Chain
p120
(dp121
g3
(lp122
(i__main__
Mention
p123
(dp124
g7
S't3'
p125
sg9
Nsg10
S'i6'
p126
sg12
Nsg13
Nsg14
(lp127
(i__main__
Token
p128
(dp129
g18
I47
sbasg21
I47
sba(i__main__
Mention
p130
(dp131
g7
S't3'
p132
sg9
S'Coreference-Identity'
p133
sg10
S'i15'
p134
sg12
S'i6'
p135
sg13
Nsg14
(lp136
(i__main__
Token
p137
(dp138
g18
I98
sbasg21
I98
sba(i__main__
Mention
p139
(dp140
g7
S't3'
p141
sg9
S'Coreference-Identity'
p142
sg10
S'i23'
p143
sg12
S'i15'
p144
sg13
Nsg14
(lp145
(i__main__
Token
p146
(dp147
g18
I134
sbasg21
I134
sba(i__main__
Mention
p148
(dp149
g7
S't3'
p150
sg9
S'Coreference-Identity'
p151
sg10
S'i29'
p152
sg12
S'i23'
p153
sg13
Nsg14
(lp154
(i__main__
Token
p155
(dp156
g18
I161
sbasg21
I161
sbasg7
g125
sg64
Nsba(i__main__
Chain
p157
(dp158
g3
(lp159
(i__main__
Mention
p160
(dp161
g7
S't4'
p162
sg9
S'anaphora-?'
p163
sg10
S'i7'
p164
sg12
S'i9'
p165
sg13
Nsg14
(lp166
(i__main__
Token
p167
(dp168
g18
I54
sba(i__main__
Token
p169
(dp170
g18
I55
sba(i__main__
Token
p171
(dp172
g18
I56
sbasg21
I56
sbasg7
g162
sg64
Nsba(i__main__
Chain
p173
(dp174
g3
(lp175
(i__main__
Mention
p176
(dp177
g7
S't5'
p178
sg9
Nsg10
S'i10'
p179
sg12
Nsg13
Nsg14
(lp180
(i__main__
Token
p181
(dp182
g18
I69
sba(i__main__
Token
p183
(dp184
g18
I70
sbasg21
I70
sba(i__main__
Mention
p185
(dp186
g7
S't5'
p187
sg9
S'Coreference-NounComplement'
p188
sg10
S'i11'
p189
sg12
S'i10'
p190
sg13
Nsg14
(lp191
(i__main__
Token
p192
(dp193
g18
I71
sbasg21
I71
sba(i__main__
Mention
p194
(dp195
g7
S't5'
p196
sg9
S'Coreference-Identity'
p197
sg10
S'i24'
p198
sg12
S'i11'
p199
sg13
Nsg14
(lp200
(i__main__
Token
p201
(dp202
g18
I139
sbasg21
I139
sbasg7
g178
sg64
Nsba(i__main__
Chain
p203
(dp204
g3
(lp205
(i__main__
Mention
p206
(dp207
g7
S't6'
p208
sg9
Nsg10
S'i12'
p209
sg12
Nsg13
Nsg14
(lp210
(i__main__
Token
p211
(dp212
g18
I73
sbasg21
I73
sba(i__main__
Mention
p213
(dp214
g7
S't6'
p215
sg9
S'Anaphora-C'
p216
sg10
S'i13'
p217
sg12
S'i12'
p218
sg13
Nsg14
(lp219
(i__main__
Token
p220
(dp221
g18
I82
sbasg21
I82
sbasg7
g208
sg64
Nsba(i__main__
Chain
p222
(dp223
g3
(lp224
(i__main__
Mention
p225
(dp226
g7
S't7'
p227
sg9
Nsg10
S'i17'
p228
sg12
Nsg13
Nsg14
(lp229
(i__main__
Token
p230
(dp231
g18
I108
sbasg21
I108
sba(i__main__
Mention
p232
(dp233
g7
S't7'
p234
sg9
S'Coreference-NounComplement'
p235
sg10
S'i18'
p236
sg12
S'i17'
p237
sg13
Nsg14
(lp238
(i__main__
Token
p239
(dp240
g18
I109
sbasg21
I109
sbasg7
g227
sg64
Nsba(i__main__
Chain
p241
(dp242
g3
(lp243
(i__main__
Mention
p244
(dp245
g7
S't8'
p246
sg9
Nsg10
S'i19'
p247
sg12
Nsg13
Nsg14
(lp248
(i__main__
Token
p249
(dp250
g18
I114
sba(i__main__
Token
p251
(dp252
g18
I115
sba(i__main__
Token
p253
(dp254
g18
I116
sba(i__main__
Token
p255
(dp256
g18
I117
sba(i__main__
Token
p257
(dp258
g18
I118
sba(i__main__
Token
p259
(dp260
g18
I119
sba(i__main__
Token
p261
(dp262
g18
I120
sbasg21
I119
sba(i__main__
Mention
p263
(dp264
g7
S't8'
p265
sg9
S'Anaphora-C'
p266
sg10
S'i20'
p267
sg12
S'i19'
p268
sg13
Nsg14
(lp269
(i__main__
Token
p270
(dp271
g18
I121
sbasg21
I121
sba(i__main__
Mention
p272
(dp273
g7
S't8'
p274
sg9
S'Coreference-Noun-Noun'
p275
sg10
S'i22'
p276
sg12
S'i20'
p277
sg13
Nsg14
(lp278
(i__main__
Token
p279
(dp280
g18
I126
sbasg21
I126
sbasg7
g246
sg64
Nsba(i__main__
Chain
p281
(dp282
g3
(lp283
(i__main__
Mention
p284
(dp285
g7
S't9'
p286
sg9
Nsg10
S'i25'
p287
sg12
Nsg13
Nsg14
(lp288
(i__main__
Token
p289
(dp290
g18
I143
sbasg21
I143
sba(i__main__
Mention
p291
(dp292
g7
S't9'
p293
sg9
S'Coreference-Identity'
p294
sg10
S'i31'
p295
sg12
S'i25'
p296
sg13
Nsg14
(lp297
(i__main__
Token
p298
(dp299
g18
I186
sbasg21
I186
sbasg7
g286
sg64
Nsba.