(lp0
(i__main__
Chain
p1
(dp2
S'mentionList'
p3
(lp4
(i__main__
Mention
p5
(dp6
S'chainId'
p7
S't1'
p8
sS'relType'
p9
S'anaphora-?'
p10
sS'mentionId'
p11
S'i1'
p12
sS'antecedentId'
p13
S'i2'
p14
sS'crefMod'
p15
NsS'tokenList'
p16
(lp17
(i__main__
Token
p18
(dp19
S'tokenId'
p20
I0
sbasS'mentionHead'
p21
I0
sba(i__main__
Mention
p22
(dp23
g7
S't1'
p24
sg9
S'Anaphora-RC'
p25
sg11
S'i7'
p26
sg13
S'i1'
p27
sg15
Nsg16
(lp28
(i__main__
Token
p29
(dp30
g20
I25
sba(i__main__
Token
p31
(dp32
g20
I26
sbasg21
I26
sba(i__main__
Mention
p33
(dp34
g7
S't1'
p35
sg9
S'Anaphora-C'
p36
sg11
S'i14'
p37
sg13
S'i7'
p38
sg15
Nsg16
(lp39
(i__main__
Token
p40
(dp41
g20
I71
sbasg21
I71
sba(i__main__
Mention
p42
(dp43
g7
S't1'
p44
sg9
S'Coreference-Identity'
p45
sg11
S'i19'
p46
sg13
S'i14'
p47
sg15
Nsg16
(lp48
(i__main__
Token
p49
(dp50
g20
I104
sba(i__main__
Token
p51
(dp52
g20
I105
sbasg21
I105
sba(i__main__
Mention
p53
(dp54
g7
S't1'
p55
sg9
S'Coreference-Identity'
p56
sg11
S'i22'
p57
sg13
S'i19'
p58
sg15
Nsg16
(lp59
(i__main__
Token
p60
(dp61
g20
I120
sba(i__main__
Token
p62
(dp63
g20
I121
sba(i__main__
Token
p64
(dp65
g20
I122
sba(i__main__
Token
p66
(dp67
g20
I123
sba(i__main__
Token
p68
(dp69
g20
I124
sba(i__main__
Token
p70
(dp71
g20
I125
sba(i__main__
Token
p72
(dp73
g20
I126
sba(i__main__
Token
p74
(dp75
g20
I127
sbasg21
I127
sba(i__main__
Mention
p76
(dp77
g7
S't1'
p78
sg9
S'Coreference-Identity'
p79
sg11
S'i36'
p80
sg13
S'i22'
p81
sg15
Nsg16
(lp82
(i__main__
Token
p83
(dp84
g20
I214
sbasg21
I214
sbasg7
g8
sS'chainHead'
p85
Nsba(i__main__
Chain
p86
(dp87
g3
(lp88
(i__main__
Mention
p89
(dp90
g7
S't2'
p91
sg9
Nsg11
S'i3'
p92
sg13
Nsg15
Nsg16
(lp93
(i__main__
Token
p94
(dp95
g20
I3
sba(i__main__
Token
p96
(dp97
g20
I4
sba(i__main__
Token
p98
(dp99
g20
I5
sbasg21
I5
sba(i__main__
Mention
p100
(dp101
g7
S't2'
p102
sg9
S'Coreference-Identity'
p103
sg11
S'i9'
p104
sg13
S'i3'
p105
sg15
Nsg16
(lp106
(i__main__
Token
p107
(dp108
g20
I33
sba(i__main__
Token
p109
(dp110
g20
I34
sba(i__main__
Token
p111
(dp112
g20
I35
sbasg21
I35
sba(i__main__
Mention
p113
(dp114
g7
S't2'
p115
sg9
S'Coreference-Identity'
p116
sg11
S'i13'
p117
sg13
S'i9'
p118
sg15
Nsg16
(lp119
(i__main__
Token
p120
(dp121
g20
I54
sba(i__main__
Token
p122
(dp123
g20
I55
sba(i__main__
Token
p124
(dp125
g20
I56
sbasg21
I56
sba(i__main__
Mention
p126
(dp127
g7
S't2'
p128
sg9
S'Coreference-Identity'
p129
sg11
S'i26'
p130
sg13
S'i13'
p131
sg15
Nsg16
(lp132
(i__main__
Token
p133
(dp134
g20
I150
sba(i__main__
Token
p135
(dp136
g20
I151
sba(i__main__
Token
p137
(dp138
g20
I152
sbasg21
I152
sba(i__main__
Mention
p139
(dp140
g7
S't2'
p141
sg9
S'Coreference-Identity'
p142
sg11
S'i38'
p143
sg13
S'i26'
p144
sg15
Nsg16
(lp145
(i__main__
Token
p146
(dp147
g20
I224
sba(i__main__
Token
p148
(dp149
g20
I225
sba(i__main__
Token
p150
(dp151
g20
I226
sbasg21
I226
sba(i__main__
Mention
p152
(dp153
g7
S't2'
p154
sg9
S'Coreference-Identity'
p155
sg11
S'i39'
p156
sg13
S'i38'
p157
sg15
Nsg16
(lp158
(i__main__
Token
p159
(dp160
g20
I250
sba(i__main__
Token
p161
(dp162
g20
I251
sba(i__main__
Token
p163
(dp164
g20
I252
sbasg21
I252
sba(i__main__
Mention
p165
(dp166
g7
S't2'
p167
sg9
S'Anaphora-C'
p168
sg11
S'i40'
p169
sg13
S'i39'
p170
sg15
Nsg16
(lp171
(i__main__
Token
p172
(dp173
g20
I258
sbasg21
I258
sba(i__main__
Mention
p174
(dp175
g7
S't2'
p176
sg9
S'Anaphora-C'
p177
sg11
S'i43'
p178
sg13
S'i40'
p179
sg15
Nsg16
(lp180
(i__main__
Token
p181
(dp182
g20
I280
sbasg21
I280
sbasg7
g91
sg85
Nsba(i__main__
Chain
p183
(dp184
g3
(lp185
(i__main__
Mention
p186
(dp187
g7
S't3'
p188
sg9
S'anaphora-?'
p189
sg11
S'i4'
p190
sg13
S'i4'
p191
sg15
Nsg16
(lp192
(i__main__
Token
p193
(dp194
g20
I14
sbasg21
I14
sbasg7
g188
sg85
Nsba(i__main__
Chain
p195
(dp196
g3
(lp197
(i__main__
Mention
p198
(dp199
g7
S't4'
p200
sg9
Nsg11
S'i5'
p201
sg13
Nsg15
Nsg16
(lp202
(i__main__
Token
p203
(dp204
g20
I18
sba(i__main__
Token
p205
(dp206
g20
I19
sba(i__main__
Token
p207
(dp208
g20
I20
sbasg21
I20
sba(i__main__
Mention
p209
(dp210
g7
S't4'
p211
sg9
S'Anaphora-C'
p212
sg11
S'i10'
p213
sg13
S'i5'
p214
sg15
Nsg16
(lp215
(i__main__
Token
p216
(dp217
g20
I39
sbasg21
I39
sba(i__main__
Mention
p218
(dp219
g7
S't4'
p220
sg9
S'Coreference-Noun-Noun'
p221
sg11
S'i15'
p222
sg13
S'i10'
p223
sg15
Nsg16
(lp224
(i__main__
Token
p225
(dp226
g20
I93
sba(i__main__
Token
p227
(dp228
g20
I94
sbasg21
I94
sba(i__main__
Mention
p229
(dp230
g7
S't4'
p231
sg9
S'Coreference-NounComplement'
p232
sg11
S'i16'
p233
sg13
S'i15'
p234
sg15
Nsg16
(lp235
(i__main__
Token
p236
(dp237
g20
I95
sba(i__main__
Token
p238
(dp239
g20
I96
sba(i__main__
Token
p240
(dp241
g20
I97
sbasg21
I97
sba(i__main__
Mention
p242
(dp243
g7
S't4'
p244
sg9
S'Anaphora-C'
p245
sg11
S'i17'
p246
sg13
S'i16'
p247
sg15
Nsg16
(lp248
(i__main__
Token
p249
(dp250
g20
I99
sbasg21
I99
sba(i__main__
Mention
p251
(dp252
g7
S't4'
p253
sg9
S'Anaphora-C'
p254
sg11
S'i21'
p255
sg13
S'i17'
p256
sg15
Nsg16
(lp257
(i__main__
Token
p258
(dp259
g20
I116
sbasg21
I116
sba(i__main__
Mention
p260
(dp261
g7
S't4'
p262
sg9
S'Coreference-Identity'
p263
sg11
S'i34'
p264
sg13
S'i21'
p265
sg15
Nsg16
(lp266
(i__main__
Token
p267
(dp268
g20
I206
sbasg21
I206
sbasg7
g200
sg85
Nsba(i__main__
Chain
p269
(dp270
g3
(lp271
(i__main__
Mention
p272
(dp273
g7
S't5'
p274
sg9
Nsg11
S'i6'
p275
sg13
Nsg15
Nsg16
(lp276
(i__main__
Token
p277
(dp278
g20
I22
sba(i__main__
Token
p279
(dp280
g20
I23
sbasg21
I23
sba(i__main__
Mention
p281
(dp282
g7
S't5'
p283
sg9
S'Coreference-Identity'
p284
sg11
S'i18'
p285
sg13
S'i6'
p286
sg15
Nsg16
(lp287
(i__main__
Token
p288
(dp289
g20
I100
sba(i__main__
Token
p290
(dp291
g20
I101
sba(i__main__
Token
p292
(dp293
g20
I102
sbasg21
I102
sbasg7
g274
sg85
Nsba(i__main__
Chain
p294
(dp295
g3
(lp296
(i__main__
Mention
p297
(dp298
g7
S't6'
p299
sg9
Nsg11
S'i8'
p300
sg13
Nsg15
Nsg16
(lp301
(i__main__
Token
p302
(dp303
g20
I28
sba(i__main__
Token
p304
(dp305
g20
I29
sbasg21
I29
sba(i__main__
Mention
p306
(dp307
g7
S't6'
p308
sg9
S'Coreference-Identity'
p309
sg11
S'i37'
p310
sg13
S'i8'
p311
sg15
Nsg16
(lp312
(i__main__
Token
p313
(dp314
g20
I219
sba(i__main__
Token
p315
(dp316
g20
I220
sbasg21
I220
sbasg7
g299
sg85
Nsba(i__main__
Chain
p317
(dp318
g3
(lp319
(i__main__
Mention
p320
(dp321
g7
S't7'
p322
sg9
Nsg11
S'i11'
p323
sg13
Nsg15
Nsg16
(lp324
(i__main__
Token
p325
(dp326
g20
I41
sba(i__main__
Token
p327
(dp328
g20
I42
sba(i__main__
Token
p329
(dp330
g20
I43
sbasg21
I43
sba(i__main__
Mention
p331
(dp332
g7
S't7'
p333
sg9
S'Coreference-Noun-Noun'
p334
sg11
S'i12'
p335
sg13
S'i11'
p336
sg15
Nsg16
(lp337
(i__main__
Token
p338
(dp339
g20
I51
sba(i__main__
Token
p340
(dp341
g20
I52
sbasg21
I52
sba(i__main__
Mention
p342
(dp343
g7
S't7'
p344
sg9
S'Coreference-Identity'
p345
sg11
S'i20'
p346
sg13
S'i12'
p347
sg15
Nsg16
(lp348
(i__main__
Token
p349
(dp350
g20
I108
sba(i__main__
Token
p351
(dp352
g20
I109
sbasg21
I109
sba(i__main__
Mention
p353
(dp354
g7
S't7'
p355
sg9
S'Coreference-Identity'
p356
sg11
S'i25'
p357
sg13
S'i20'
p358
sg15
Nsg16
(lp359
(i__main__
Token
p360
(dp361
g20
I145
sba(i__main__
Token
p362
(dp363
g20
I146
sba(i__main__
Token
p364
(dp365
g20
I147
sba(i__main__
Token
p366
(dp367
g20
I148
sbasg21
I148
sba(i__main__
Mention
p368
(dp369
g7
S't7'
p370
sg9
S'Coreference-Identity'
p371
sg11
S'i35'
p372
sg13
S'i25'
p373
sg15
Nsg16
(lp374
(i__main__
Token
p375
(dp376
g20
I211
sba(i__main__
Token
p377
(dp378
g20
I212
sbasg21
I212
sbasg7
g322
sg85
Nsba(i__main__
Chain
p379
(dp380
g3
(lp381
(i__main__
Mention
p382
(dp383
g7
S't8'
p384
sg9
Nsg11
S'i23'
p385
sg13
Nsg15
Nsg16
(lp386
(i__main__
Token
p387
(dp388
g20
I132
sbasg21
I132
sba(i__main__
Mention
p389
(dp390
g7
S't8'
p391
sg9
S'Coreference-Identity'
p392
sg11
S'i31'
p393
sg13
S'i23'
p394
sg15
Nsg16
(lp395
(i__main__
Token
p396
(dp397
g20
I192
sbasg21
I192
sba(i__main__
Mention
p398
(dp399
g7
S't8'
p400
sg9
S'Coreference-Identity'
p401
sg11
S'i42'
p402
sg13
S'i31'
p403
sg15
Nsg16
(lp404
(i__main__
Token
p405
(dp406
g20
I270
sbasg21
I270
sbasg7
g384
sg85
Nsba(i__main__
Chain
p407
(dp408
g3
(lp409
(i__main__
Mention
p410
(dp411
g7
S't9'
p412
sg9
S'anaphora-?'
p413
sg11
S'i24'
p414
sg13
S'i24'
p415
sg15
Nsg16
(lp416
(i__main__
Token
p417
(dp418
g20
I134
sbasg21
I134
sbasg7
g412
sg85
Nsba(i__main__
Chain
p419
(dp420
g3
(lp421
(i__main__
Mention
p422
(dp423
g7
S't10'
p424
sg9
Nsg11
S'i27'
p425
sg13
Nsg15
Nsg16
(lp426
(i__main__
Token
p427
(dp428
g20
I160
sbasg21
I160
sba(i__main__
Mention
p429
(dp430
g7
S't10'
p431
sg9
S'Anaphora-C'
p432
sg11
S'i28'
p433
sg13
S'i27'
p434
sg15
Nsg16
(lp435
(i__main__
Token
p436
(dp437
g20
I166
sbasg21
I166
sba(i__main__
Mention
p438
(dp439
g7
S't10'
p440
sg9
S'Coreference-Identity'
p441
sg11
S'i30'
p442
sg13
S'i28'
p443
sg15
Nsg16
(lp444
(i__main__
Token
p445
(dp446
g20
I183
sbasg21
I183
sba(i__main__
Mention
p447
(dp448
g7
S't10'
p449
sg9
S'Anaphora-C'
p450
sg11
S'i32'
p451
sg13
S'i30'
p452
sg15
Nsg16
(lp453
(i__main__
Token
p454
(dp455
g20
I195
sbasg21
I195
sbasg7
g424
sg85
Nsba(i__main__
Chain
p456
(dp457
g3
(lp458
(i__main__
Mention
p459
(dp460
g7
S't11'
p461
sg9
Nsg11
S'i29'
p462
sg13
Nsg15
Nsg16
(lp463
(i__main__
Token
p464
(dp465
g20
I182
sbasg21
I182
sbasg7
g461
sg85
Nsba(i__main__
Chain
p466
(dp467
g3
(lp468
(i__main__
Mention
p469
(dp470
g7
S't12'
p471
sg9
S'anaphora-?'
p472
sg11
S'i33'
p473
sg13
S'i33'
p474
sg15
Nsg16
(lp475
(i__main__
Token
p476
(dp477
g20
I196
sbasg21
I196
sbasg7
g471
sg85
Nsba(i__main__
Chain
p478
(dp479
g3
(lp480
(i__main__
Mention
p481
(dp482
g7
S't13'
p483
sg9
Nsg11
S'i41'
p484
sg13
Nsg15
Nsg16
(lp485
(i__main__
Token
p486
(dp487
g20
I264
sba(i__main__
Token
p488
(dp489
g20
I265
sbasg21
I265
sba(i__main__
Mention
p490
(dp491
g7
S't13'
p492
sg9
S'Coreference-Identity'
p493
sg11
S'i44'
p494
sg13
S'i41'
p495
sg15
Nsg16
(lp496
(i__main__
Token
p497
(dp498
g20
I282
sbasg21
I282
sbasg7
g483
sg85
Nsba.