(lp0
(i__main__
Chain
p1
(dp2
S'mentionList'
p3
(lp4
(i__main__
Mention
p5
(dp6
S'chainId'
p7
S't1'
p8
sS'relType'
p9
NsS'mentionId'
p10
S'i1'
p11
sS'antecedentId'
p12
NsS'crefMod'
p13
NsS'tokenList'
p14
(lp15
(i__main__
Token
p16
(dp17
S'tokenId'
p18
I0
sba(i__main__
Token
p19
(dp20
g18
I1
sbasS'mentionHead'
p21
I1
sba(i__main__
Mention
p22
(dp23
g7
S't1'
p24
sg9
S'Coreference-NounComplement'
p25
sg10
S'i2'
p26
sg12
S'i1'
p27
sg13
Nsg14
(lp28
(i__main__
Token
p29
(dp30
g18
I3
sba(i__main__
Token
p31
(dp32
g18
I4
sbasg21
I4
sba(i__main__
Mention
p33
(dp34
g7
S't1'
p35
sg9
S'Coreference-Identity'
p36
sg10
S'i8'
p37
sg12
S'i2'
p38
sg13
Nsg14
(lp39
(i__main__
Token
p40
(dp41
g18
I24
sba(i__main__
Token
p42
(dp43
g18
I25
sbasg21
I25
sba(i__main__
Mention
p44
(dp45
g7
S't1'
p46
sg9
S'Coreference-Identity'
p47
sg10
S'i15'
p48
sg12
S'i8'
p49
sg13
Nsg14
(lp50
(i__main__
Token
p51
(dp52
g18
I68
sba(i__main__
Token
p53
(dp54
g18
I69
sbasg21
I69
sba(i__main__
Mention
p55
(dp56
g7
S't1'
p57
sg9
S'Anaphora-C'
p58
sg10
S'i18'
p59
sg12
S'i15'
p60
sg13
Nsg14
(lp61
(i__main__
Token
p62
(dp63
g18
I82
sbasg21
I82
sba(i__main__
Mention
p64
(dp65
g7
S't1'
p66
sg9
S'Coreference-Identity'
p67
sg10
S'i22'
p68
sg12
S'i18'
p69
sg13
Nsg14
(lp70
(i__main__
Token
p71
(dp72
g18
I115
sba(i__main__
Token
p73
(dp74
g18
I116
sbasg21
I116
sbasg7
g8
sS'chainHead'
p75
Nsba(i__main__
Chain
p76
(dp77
g3
(lp78
(i__main__
Mention
p79
(dp80
g7
S't2'
p81
sg9
Nsg10
S'i3'
p82
sg12
Nsg13
Nsg14
(lp83
(i__main__
Token
p84
(dp85
g18
I7
sbasg21
I7
sba(i__main__
Mention
p86
(dp87
g7
S't2'
p88
sg9
S'Coreference-Identity'
p89
sg10
S'i9'
p90
sg12
S'i3'
p91
sg13
Nsg14
(lp92
(i__main__
Token
p93
(dp94
g18
I35
sbasg21
I35
sbasg7
g81
sg75
Nsba(i__main__
Chain
p95
(dp96
g3
(lp97
(i__main__
Mention
p98
(dp99
g7
S't3'
p100
sg9
Nsg10
S'i4'
p101
sg12
Nsg13
Nsg14
(lp102
(i__main__
Token
p103
(dp104
g18
I9
sba(i__main__
Token
p105
(dp106
g18
I10
sba(i__main__
Token
p107
(dp108
g18
I11
sbasg21
I11
sba(i__main__
Mention
p109
(dp110
g7
S't3'
p111
sg9
S'Coreference-NounComplement'
p112
sg10
S'i5'
p113
sg12
S'i4'
p114
sg13
Nsg14
(lp115
(i__main__
Token
p116
(dp117
g18
I12
sba(i__main__
Token
p118
(dp119
g18
I13
sbasg21
I13
sba(i__main__
Mention
p120
(dp121
g7
S't3'
p122
sg9
S'Coreference-Identity'
p123
sg10
S'i12'
p124
sg12
S'i5'
p125
sg13
Nsg14
(lp126
(i__main__
Token
p127
(dp128
g18
I54
sba(i__main__
Token
p129
(dp130
g18
I55
sbasg21
I55
sba(i__main__
Mention
p131
(dp132
g7
S't3'
p133
sg9
S'Coreference-Identity'
p134
sg10
S'i16'
p135
sg12
S'i12'
p136
sg13
Nsg14
(lp137
(i__main__
Token
p138
(dp139
g18
I71
sba(i__main__
Token
p140
(dp141
g18
I72
sbasg21
I72
sba(i__main__
Mention
p142
(dp143
g7
S't3'
p144
sg9
S'Coreference-Identity'
p145
sg10
S'i20'
p146
sg12
S'i16'
p147
sg13
Nsg14
(lp148
(i__main__
Token
p149
(dp150
g18
I107
sba(i__main__
Token
p151
(dp152
g18
I108
sbasg21
I108
sbasg7
g100
sg75
Nsba(i__main__
Chain
p153
(dp154
g3
(lp155
(i__main__
Mention
p156
(dp157
g7
S't4'
p158
sg9
Nsg10
S'i6'
p159
sg12
Nsg13
Nsg14
(lp160
(i__main__
Token
p161
(dp162
g18
I15
sba(i__main__
Token
p163
(dp164
g18
I16
sba(i__main__
Token
p165
(dp166
g18
I17
sbasg21
I17
sba(i__main__
Mention
p167
(dp168
g7
S't4'
p169
sg9
S'Anaphora-C'
p170
sg10
S'i7'
p171
sg12
S'i6'
p172
sg13
Nsg14
(lp173
(i__main__
Token
p174
(dp175
g18
I22
sbasg21
I22
sba(i__main__
Mention
p176
(dp177
g7
S't4'
p178
sg9
S'Coreference-Identity'
p179
sg10
S'i17'
p180
sg12
S'i7'
p181
sg13
Nsg14
(lp182
(i__main__
Token
p183
(dp184
g18
I74
sbasg21
I74
sbasg7
g158
sg75
Nsba(i__main__
Chain
p185
(dp186
g3
(lp187
(i__main__
Mention
p188
(dp189
g7
S't5'
p190
sg9
S'anaphora-?'
p191
sg10
S'i10'
p192
sg12
S'i10'
p193
sg13
Nsg14
(lp194
(i__main__
Token
p195
(dp196
g18
I37
sbasg21
I37
sbasg7
g190
sg75
Nsba(i__main__
Chain
p197
(dp198
g3
(lp199
(i__main__
Mention
p200
(dp201
g7
S't6'
p202
sg9
Nsg10
S'i11'
p203
sg12
Nsg13
Nsg14
(lp204
(i__main__
Token
p205
(dp206
g18
I46
sbasg21
I46
sbasg7
g202
sg75
Nsba(i__main__
Chain
p207
(dp208
g3
(lp209
(i__main__
Mention
p210
(dp211
g7
S't7'
p212
sg9
Nsg10
S'i13'
p213
sg12
Nsg13
Nsg14
(lp214
(i__main__
Token
p215
(dp216
g18
I57
sba(i__main__
Token
p217
(dp218
g18
I58
sba(i__main__
Token
p219
(dp220
g18
I59
sbasg21
I58
sba(i__main__
Mention
p221
(dp222
g7
S't7'
p223
sg9
S'Coreference-NounComplement'
p224
sg10
S'i14'
p225
sg12
S'i13'
p226
sg13
Nsg14
(lp227
(i__main__
Token
p228
(dp229
g18
I60
sba(i__main__
Token
p230
(dp231
g18
I61
sba(i__main__
Token
p232
(dp233
g18
I62
sbasg21
I62
sba(i__main__
Mention
p234
(dp235
g7
S't7'
p236
sg9
S'Anaphora-C'
p237
sg10
S'i19'
p238
sg12
S'i14'
p239
sg13
Nsg14
(lp240
(i__main__
Token
p241
(dp242
g18
I104
sbasg21
I104
sbasg7
g212
sg75
Nsba(i__main__
Chain
p243
(dp244
g3
(lp245
(i__main__
Mention
p246
(dp247
g7
S't8'
p248
sg9
S'anaphora-?'
p249
sg10
S'i21'
p250
sg12
S'i21'
p251
sg13
Nsg14
(lp252
(i__main__
Token
p253
(dp254
g18
I114
sbasg21
I114
sbasg7
g248
sg75
Nsba(i__main__
Chain
p255
(dp256
g3
(lp257
(i__main__
Mention
p258
(dp259
g7
S't9'
p260
sg9
S'anaphora-?'
p261
sg10
S'i23'
p262
sg12
S'i23'
p263
sg13
Nsg14
(lp264
(i__main__
Token
p265
(dp266
g18
I133
sbasg21
I133
sbasg7
g260
sg75
Nsba.