(lp0
(i__main__
Chain
p1
(dp2
S'mentionList'
p3
(lp4
(i__main__
Mention
p5
(dp6
S'chainId'
p7
S't1'
p8
sS'relType'
p9
NsS'mentionId'
p10
S'i1'
p11
sS'antecedentId'
p12
NsS'crefMod'
p13
NsS'tokenList'
p14
(lp15
(i__main__
Token
p16
(dp17
S'tokenId'
p18
I0
sba(i__main__
Token
p19
(dp20
g18
I1
sba(i__main__
Token
p21
(dp22
g18
I2
sba(i__main__
Token
p23
(dp24
g18
I3
sbasS'mentionHead'
p25
I3
sba(i__main__
Mention
p26
(dp27
g7
S't1'
p28
sg9
S'Coreference-Identity'
p29
sg10
S'i15'
p30
sg12
S'i1'
p31
sg13
Nsg14
(lp32
(i__main__
Token
p33
(dp34
g18
I118
sbasg25
I118
sbasg7
g8
sS'chainHead'
p35
Nsba(i__main__
Chain
p36
(dp37
g3
(lp38
(i__main__
Mention
p39
(dp40
g7
S't2'
p41
sg9
Nsg10
S'i2'
p42
sg12
Nsg13
Nsg14
(lp43
(i__main__
Token
p44
(dp45
g18
I0
sba(i__main__
Token
p46
(dp47
g18
I1
sba(i__main__
Token
p48
(dp49
g18
I2
sba(i__main__
Token
p50
(dp51
g18
I3
sba(i__main__
Token
p52
(dp53
g18
I4
sba(i__main__
Token
p54
(dp55
g18
I5
sba(i__main__
Token
p56
(dp57
g18
I6
sba(i__main__
Token
p58
(dp59
g18
I7
sba(i__main__
Token
p60
(dp61
g18
I8
sba(i__main__
Token
p62
(dp63
g18
I9
sba(i__main__
Token
p64
(dp65
g18
I10
sba(i__main__
Token
p66
(dp67
g18
I11
sba(i__main__
Token
p68
(dp69
g18
I12
sba(i__main__
Token
p70
(dp71
g18
I13
sba(i__main__
Token
p72
(dp73
g18
I14
sba(i__main__
Token
p74
(dp75
g18
I15
sba(i__main__
Token
p76
(dp77
g18
I16
sba(i__main__
Token
p78
(dp79
g18
I17
sba(i__main__
Token
p80
(dp81
g18
I18
sba(i__main__
Token
p82
(dp83
g18
I19
sba(i__main__
Token
p84
(dp85
g18
I20
sba(i__main__
Token
p86
(dp87
g18
I21
sba(i__main__
Token
p88
(dp89
g18
I22
sba(i__main__
Token
p90
(dp91
g18
I23
sba(i__main__
Token
p92
(dp93
g18
I24
sba(i__main__
Token
p94
(dp95
g18
I25
sbasg25
I24
sba(i__main__
Mention
p96
(dp97
g7
S't2'
p98
sg9
S'Coreference-Noun-Noun'
p99
sg10
S'i10'
p100
sg12
S'i2'
p101
sg13
Nsg14
(lp102
(i__main__
Token
p103
(dp104
g18
I57
sbasg25
I57
sba(i__main__
Mention
p105
(dp106
g7
S't2'
p107
sg9
S'Coreference-Identity'
p108
sg10
S'i11'
p109
sg12
S'i10'
p110
sg13
Nsg14
(lp111
(i__main__
Token
p112
(dp113
g18
I65
sba(i__main__
Token
p114
(dp115
g18
I66
sbasg25
I66
sbasg7
g41
sg35
Nsba(i__main__
Chain
p116
(dp117
g3
(lp118
(i__main__
Mention
p119
(dp120
g7
S't3'
p121
sg9
Nsg10
S'i3'
p122
sg12
Nsg13
Nsg14
(lp123
(i__main__
Token
p124
(dp125
g18
I12
sba(i__main__
Token
p126
(dp127
g18
I13
sba(i__main__
Token
p128
(dp129
g18
I14
sbasg25
I14
sba(i__main__
Mention
p130
(dp131
g7
S't3'
p132
sg9
S'Coreference-Identity'
p133
sg10
S'i6'
p134
sg12
S'i3'
p135
sg13
Nsg14
(lp136
(i__main__
Token
p137
(dp138
g18
I32
sbasg25
I32
sba(i__main__
Mention
p139
(dp140
g7
S't3'
p141
sg9
S'Coreference-Identity'
p142
sg10
S'i8'
p143
sg12
S'i6'
p144
sg13
Nsg14
(lp145
(i__main__
Token
p146
(dp147
g18
I46
sba(i__main__
Token
p148
(dp149
g18
I47
sbasg25
I47
sba(i__main__
Mention
p150
(dp151
g7
S't3'
p152
sg9
S'Coreference-Identity'
p153
sg10
S'i16'
p154
sg12
S'i8'
p155
sg13
Nsg14
(lp156
(i__main__
Token
p157
(dp158
g18
I127
sbasg25
I127
sba(i__main__
Mention
p159
(dp160
g7
S't3'
p161
sg9
S'Coreference-Identity'
p162
sg10
S'i18'
p163
sg12
S'i16'
p164
sg13
Nsg14
(lp165
(i__main__
Token
p166
(dp167
g18
I153
sbasg25
I153
sba(i__main__
Mention
p168
(dp169
g7
S't3'
p170
sg9
S'Coreference-Identity'
p171
sg10
S'i24'
p172
sg12
S'i18'
p173
sg13
Nsg14
(lp174
(i__main__
Token
p175
(dp176
g18
I187
sbasg25
I187
sbasg7
g121
sg35
Nsba(i__main__
Chain
p177
(dp178
g3
(lp179
(i__main__
Mention
p180
(dp181
g7
S't4'
p182
sg9
Nsg10
S'i4'
p183
sg12
Nsg13
Nsg14
(lp184
(i__main__
Token
p185
(dp186
g18
I19
sba(i__main__
Token
p187
(dp188
g18
I20
sbasg25
I20
sba(i__main__
Mention
p189
(dp190
g7
S't4'
p191
sg9
S'Coreference-Identity'
p192
sg10
S'i9'
p193
sg12
S'i4'
p194
sg13
Nsg14
(lp195
(i__main__
Token
p196
(dp197
g18
I49
sba(i__main__
Token
p198
(dp199
g18
I50
sba(i__main__
Token
p200
(dp201
g18
I51
sba(i__main__
Token
p202
(dp203
g18
I52
sbasg25
I52
sbasg7
g182
sg35
Nsba(i__main__
Chain
p204
(dp205
g3
(lp206
(i__main__
Mention
p207
(dp208
g7
S't5'
p209
sg9
Nsg10
S'i5'
p210
sg12
Nsg13
Nsg14
(lp211
(i__main__
Token
p212
(dp213
g18
I22
sba(i__main__
Token
p214
(dp215
g18
I23
sbasg25
I23
sba(i__main__
Mention
p216
(dp217
g7
S't5'
p218
sg9
S'Coreference-Identity'
p219
sg10
S'i20'
p220
sg12
S'i5'
p221
sg13
Nsg14
(lp222
(i__main__
Token
p223
(dp224
g18
I164
sba(i__main__
Token
p225
(dp226
g18
I165
sbasg25
I165
sbasg7
g209
sg35
Nsba(i__main__
Chain
p227
(dp228
g3
(lp229
(i__main__
Mention
p230
(dp231
g7
S't6'
p232
sg9
Nsg10
S'i7'
p233
sg12
Nsg13
Nsg14
(lp234
(i__main__
Token
p235
(dp236
g18
I35
sba(i__main__
Token
p237
(dp238
g18
I36
sba(i__main__
Token
p239
(dp240
g18
I37
sbasg25
I37
sba(i__main__
Mention
p241
(dp242
g7
S't6'
p243
sg9
S'Coreference-Identity'
p244
sg10
S'i21'
p245
sg12
S'i7'
p246
sg13
Nsg14
(lp247
(i__main__
Token
p248
(dp249
g18
I169
sba(i__main__
Token
p250
(dp251
g18
I170
sbasg25
I170
sbasg7
g232
sg35
Nsba(i__main__
Chain
p252
(dp253
g3
(lp254
(i__main__
Mention
p255
(dp256
g7
S't7'
p257
sg9
Nsg10
S'i12'
p258
sg12
Nsg13
Nsg14
(lp259
(i__main__
Token
p260
(dp261
g18
I67
sbasg25
I67
sba(i__main__
Mention
p262
(dp263
g7
S't7'
p264
sg9
S'Coreference-Identity'
p265
sg10
S'i13'
p266
sg12
S'i12'
p267
sg13
Nsg14
(lp268
(i__main__
Token
p269
(dp270
g18
I89
sbasg25
I89
sbasg7
g257
sg35
Nsba(i__main__
Chain
p271
(dp272
g3
(lp273
(i__main__
Mention
p274
(dp275
g7
S't8'
p276
sg9
Nsg10
S'i14'
p277
sg12
Nsg13
Nsg14
(lp278
(i__main__
Token
p279
(dp280
g18
I113
sba(i__main__
Token
p281
(dp282
g18
I114
sbasg25
I114
sba(i__main__
Mention
p283
(dp284
g7
S't8'
p285
sg9
S'Anaphora-C'
p286
sg10
S'i17'
p287
sg12
S'i14'
p288
sg13
Nsg14
(lp289
(i__main__
Token
p290
(dp291
g18
I136
sbasg25
I136
sba(i__main__
Mention
p292
(dp293
g7
S't8'
p294
sg9
S'Anaphora-C'
p295
sg10
S'i19'
p296
sg12
S'i17'
p297
sg13
Nsg14
(lp298
(i__main__
Token
p299
(dp300
g18
I159
sbasg25
I159
sba(i__main__
Mention
p301
(dp302
g7
S't8'
p303
sg9
S'Anaphora-C'
p304
sg10
S'i22'
p305
sg12
S'i19'
p306
sg13
Nsg14
(lp307
(i__main__
Token
p308
(dp309
g18
I176
sbasg25
I176
sbasg7
g276
sg35
Nsba(i__main__
Chain
p310
(dp311
g3
(lp312
(i__main__
Mention
p313
(dp314
g7
S't9'
p315
sg9
S'anaphora-?'
p316
sg10
S'i23'
p317
sg12
S'i23'
p318
sg13
Nsg14
(lp319
(i__main__
Token
p320
(dp321
g18
I181
sbasg25
I181
sbasg7
g315
sg35
Nsba.