(lp0
(i__main__
Chain
p1
(dp2
S'mentionList'
p3
(lp4
(i__main__
Mention
p5
(dp6
S'chainId'
p7
S't1'
p8
sS'relType'
p9
NsS'mentionId'
p10
S'i1'
p11
sS'antecedentId'
p12
NsS'crefMod'
p13
NsS'tokenList'
p14
(lp15
(i__main__
Token
p16
(dp17
S'tokenId'
p18
I0
sbasS'mentionHead'
p19
I0
sba(i__main__
Mention
p20
(dp21
g7
S't1'
p22
sg9
S'Coreference-Identity'
p23
sg10
S'i2'
p24
sg12
S'i1'
p25
sg13
Nsg14
(lp26
(i__main__
Token
p27
(dp28
g18
I12
sbasg19
I12
sba(i__main__
Mention
p29
(dp30
g7
S't1'
p31
sg9
S'Coreference-Identity'
p32
sg10
S'i7'
p33
sg12
S'i2'
p34
sg13
Nsg14
(lp35
(i__main__
Token
p36
(dp37
g18
I34
sbasg19
I34
sba(i__main__
Mention
p38
(dp39
g7
S't1'
p40
sg9
S'Coreference-Identity'
p41
sg10
S'i12'
p42
sg12
S'i7'
p43
sg13
Nsg14
(lp44
(i__main__
Token
p45
(dp46
g18
I58
sbasg19
I58
sbasg7
g8
sS'chainHead'
p47
Nsba(i__main__
Chain
p48
(dp49
g3
(lp50
(i__main__
Mention
p51
(dp52
g7
S't2'
p53
sg9
Nsg10
S'i3'
p54
sg12
Nsg13
Nsg14
(lp55
(i__main__
Token
p56
(dp57
g18
I17
sba(i__main__
Token
p58
(dp59
g18
I18
sba(i__main__
Token
p60
(dp61
g18
I19
sba(i__main__
Token
p62
(dp63
g18
I20
sba(i__main__
Token
p64
(dp65
g18
I21
sba(i__main__
Token
p66
(dp67
g18
I22
sba(i__main__
Token
p68
(dp69
g18
I23
sba(i__main__
Token
p70
(dp71
g18
I24
sba(i__main__
Token
p72
(dp73
g18
I25
sba(i__main__
Token
p74
(dp75
g18
I26
sba(i__main__
Token
p76
(dp77
g18
I27
sba(i__main__
Token
p78
(dp79
g18
I28
sba(i__main__
Token
p80
(dp81
g18
I29
sba(i__main__
Token
p82
(dp83
g18
I30
sba(i__main__
Token
p84
(dp85
g18
I31
sba(i__main__
Token
p86
(dp87
g18
I32
sbasg19
I30
sba(i__main__
Mention
p88
(dp89
g7
S't2'
p90
sg9
S'Coreference-Noun-Noun'
p91
sg10
S'i8'
p92
sg12
S'i3'
p93
sg13
Nsg14
(lp94
(i__main__
Token
p95
(dp96
g18
I36
sba(i__main__
Token
p97
(dp98
g18
I37
sbasg19
I37
sba(i__main__
Mention
p99
(dp100
g7
S't2'
p101
sg9
S'Anaphora-C'
p102
sg10
S'i11'
p103
sg12
S'i8'
p104
sg13
Nsg14
(lp105
(i__main__
Token
p106
(dp107
g18
I49
sbasg19
I49
sba(i__main__
Mention
p108
(dp109
g7
S't2'
p110
sg9
S'Coreference-Noun-Noun'
p111
sg10
S'i13'
p112
sg12
S'i11'
p113
sg13
Nsg14
(lp114
(i__main__
Token
p115
(dp116
g18
I60
sba(i__main__
Token
p117
(dp118
g18
I61
sbasg19
I61
sbasg7
g53
sg47
Nsba(i__main__
Chain
p119
(dp120
g3
(lp121
(i__main__
Mention
p122
(dp123
g7
S't3'
p124
sg9
Nsg10
S'i4'
p125
sg12
Nsg13
Nsg14
(lp126
(i__main__
Token
p127
(dp128
g18
I20
sbasg19
I20
sba(i__main__
Mention
p129
(dp130
g7
S't3'
p131
sg9
S'Coreference-Identity'
p132
sg10
S'i6'
p133
sg12
S'i4'
p134
sg13
Nsg14
(lp135
(i__main__
Token
p136
(dp137
g18
I28
sbasg19
I28
sba(i__main__
Mention
p138
(dp139
g7
S't3'
p140
sg9
S'Coreference-Identity'
p141
sg10
S'i9'
p142
sg12
S'i6'
p143
sg13
Nsg14
(lp144
(i__main__
Token
p145
(dp146
g18
I39
sbasg19
I39
sba(i__main__
Mention
p147
(dp148
g7
S't3'
p149
sg9
S'Coreference-Identity'
p150
sg10
S'i15'
p151
sg12
S'i9'
p152
sg13
Nsg14
(lp153
(i__main__
Token
p154
(dp155
g18
I69
sbasg19
I69
sba(i__main__
Mention
p156
(dp157
g7
S't3'
p158
sg9
S'Coreference-Identity'
p159
sg10
S'i17'
p160
sg12
S'i15'
p161
sg13
Nsg14
(lp162
(i__main__
Token
p163
(dp164
g18
I85
sbasg19
I85
sba(i__main__
Mention
p165
(dp166
g7
S't3'
p167
sg9
S'Coreference-Identity'
p168
sg10
S'i21'
p169
sg12
S'i17'
p170
sg13
Nsg14
(lp171
(i__main__
Token
p172
(dp173
g18
I104
sbasg19
I104
sba(i__main__
Mention
p174
(dp175
g7
S't3'
p176
sg9
S'Coreference-Identity'
p177
sg10
S'i22'
p178
sg12
S'i21'
p179
sg13
Nsg14
(lp180
(i__main__
Token
p181
(dp182
g18
I115
sbasg19
I115
sba(i__main__
Mention
p183
(dp184
g7
S't3'
p185
sg9
S'Coreference-Identity'
p186
sg10
S'i25'
p187
sg12
S'i22'
p188
sg13
Nsg14
(lp189
(i__main__
Token
p190
(dp191
g18
I134
sba(i__main__
Token
p192
(dp193
g18
I135
sbasg19
I135
sba(i__main__
Mention
p194
(dp195
g7
S't3'
p196
sg9
S'Coreference-Identity'
p197
sg10
S'i31'
p198
sg12
S'i25'
p199
sg13
Nsg14
(lp200
(i__main__
Token
p201
(dp202
g18
I182
sbasg19
I182
sba(i__main__
Mention
p203
(dp204
g7
S't3'
p205
sg9
S'Coreference-Identity'
p206
sg10
S'i33'
p207
sg12
S'i31'
p208
sg13
Nsg14
(lp209
(i__main__
Token
p210
(dp211
g18
I201
sbasg19
I201
sba(i__main__
Mention
p212
(dp213
g7
S't3'
p214
sg9
S'Coreference-Identity'
p215
sg10
S'i37'
p216
sg12
S'i33'
p217
sg13
Nsg14
(lp218
(i__main__
Token
p219
(dp220
g18
I235
sbasg19
I235
sbasg7
g124
sg47
Nsba(i__main__
Chain
p221
(dp222
g3
(lp223
(i__main__
Mention
p224
(dp225
g7
S't4'
p226
sg9
Nsg10
S'i5'
p227
sg12
Nsg13
Nsg14
(lp228
(i__main__
Token
p229
(dp230
g18
I22
sbasg19
I22
sbasg7
g226
sg47
Nsba(i__main__
Chain
p231
(dp232
g3
(lp233
(i__main__
Mention
p234
(dp235
g7
S't5'
p236
sg9
Nsg10
S'i10'
p237
sg12
Nsg13
Nsg14
(lp238
(i__main__
Token
p239
(dp240
g18
I39
sba(i__main__
Token
p241
(dp242
g18
I40
sbasg19
I40
sba(i__main__
Mention
p243
(dp244
g7
S't5'
p245
sg9
S'Coreference-Identity'
p246
sg10
S'i38'
p247
sg12
S'i10'
p248
sg13
Nsg14
(lp249
(i__main__
Token
p250
(dp251
g18
I235
sba(i__main__
Token
p252
(dp253
g18
I236
sbasg19
I236
sbasg7
g236
sg47
Nsba(i__main__
Chain
p254
(dp255
g3
(lp256
(i__main__
Mention
p257
(dp258
g7
S't6'
p259
sg9
Nsg10
S'i14'
p260
sg12
Nsg13
Nsg14
(lp261
(i__main__
Token
p262
(dp263
g18
I67
sbasg19
I67
sba(i__main__
Mention
p264
(dp265
g7
S't6'
p266
sg9
S'Anaphora-C'
p267
sg10
S'i16'
p268
sg12
S'i14'
p269
sg13
Nsg14
(lp270
(i__main__
Token
p271
(dp272
g18
I84
sbasg19
I84
sba(i__main__
Mention
p273
(dp274
g7
S't6'
p275
sg9
S'Anaphora-C'
p276
sg10
S'i18'
p277
sg12
S'i16'
p278
sg13
Nsg14
(lp279
(i__main__
Token
p280
(dp281
g18
I90
sbasg19
I90
sba(i__main__
Mention
p282
(dp283
g7
S't6'
p284
sg9
S'Coreference-Identity'
p285
sg10
S'i19'
p286
sg12
S'i18'
p287
sg13
Nsg14
(lp288
(i__main__
Token
p289
(dp290
g18
I98
sbasg19
I98
sba(i__main__
Mention
p291
(dp292
g7
S't6'
p293
sg9
S'Anaphora-C'
p294
sg10
S'i20'
p295
sg12
S'i19'
p296
sg13
Nsg14
(lp297
(i__main__
Token
p298
(dp299
g18
I102
sbasg19
I102
sba(i__main__
Mention
p300
(dp301
g7
S't6'
p302
sg9
S'Coreference-Identity'
p303
sg10
S'i23'
p304
sg12
S'i20'
p305
sg13
Nsg14
(lp306
(i__main__
Token
p307
(dp308
g18
I122
sbasg19
I122
sba(i__main__
Mention
p309
(dp310
g7
S't6'
p311
sg9
S'Coreference-Identity'
p312
sg10
S'i34'
p313
sg12
S'i23'
p314
sg13
Nsg14
(lp315
(i__main__
Token
p316
(dp317
g18
I203
sbasg19
I203
sba(i__main__
Mention
p318
(dp319
g7
S't6'
p320
sg9
S'Coreference-Identity'
p321
sg10
S'i36'
p322
sg12
S'i34'
p323
sg13
Nsg14
(lp324
(i__main__
Token
p325
(dp326
g18
I226
sbasg19
I226
sbasg7
g259
sg47
Nsba(i__main__
Chain
p327
(dp328
g3
(lp329
(i__main__
Mention
p330
(dp331
g7
S't7'
p332
sg9
Nsg10
S'i24'
p333
sg12
Nsg13
Nsg14
(lp334
(i__main__
Token
p335
(dp336
g18
I131
sba(i__main__
Token
p337
(dp338
g18
I132
sbasg19
I132
sba(i__main__
Mention
p339
(dp340
g7
S't7'
p341
sg9
S'Coreference-Identity'
p342
sg10
S'i27'
p343
sg12
S'i24'
p344
sg13
Nsg14
(lp345
(i__main__
Token
p346
(dp347
g18
I149
sba(i__main__
Token
p348
(dp349
g18
I150
sbasg19
I150
sba(i__main__
Mention
p350
(dp351
g7
S't7'
p352
sg9
S'Anaphora-C'
p353
sg10
S'i29'
p354
sg12
S'i27'
p355
sg13
Nsg14
(lp356
(i__main__
Token
p357
(dp358
g18
I156
sbasg19
I156
sba(i__main__
Mention
p359
(dp360
g7
S't7'
p361
sg9
S'Coreference-Identity'
p362
sg10
S'i30'
p363
sg12
S'i29'
p364
sg13
Nsg14
(lp365
(i__main__
Token
p366
(dp367
g18
I173
sba(i__main__
Token
p368
(dp369
g18
I174
sbasg19
I174
sbasg7
g332
sg47
Nsba(i__main__
Chain
p370
(dp371
g3
(lp372
(i__main__
Mention
p373
(dp374
g7
S't8'
p375
sg9
Nsg10
S'i26'
p376
sg12
Nsg13
Nsg14
(lp377
(i__main__
Token
p378
(dp379
g18
I145
sbasg19
I145
sba(i__main__
Mention
p380
(dp381
g7
S't8'
p382
sg9
S'Anaphora-RC'
p383
sg10
S'i28'
p384
sg12
S'i26'
p385
sg13
Nsg14
(lp386
(i__main__
Token
p387
(dp388
g18
I149
sba(i__main__
Token
p389
(dp390
g18
I150
sba(i__main__
Token
p391
(dp392
g18
I151
sba(i__main__
Token
p393
(dp394
g18
I152
sba(i__main__
Token
p395
(dp396
g18
I153
sba(i__main__
Token
p397
(dp398
g18
I154
sba(i__main__
Token
p399
(dp400
g18
I155
sba(i__main__
Token
p401
(dp402
g18
I156
sba(i__main__
Token
p403
(dp404
g18
I157
sba(i__main__
Token
p405
(dp406
g18
I158
sba(i__main__
Token
p407
(dp408
g18
I159
sba(i__main__
Token
p409
(dp410
g18
I160
sba(i__main__
Token
p411
(dp412
g18
I161
sba(i__main__
Token
p413
(dp414
g18
I162
sbasg19
I162
sbasg7
g375
sg47
Nsba(i__main__
Chain
p415
(dp416
g3
(lp417
(i__main__
Mention
p418
(dp419
g7
S't9'
p420
sg9
Nsg10
S'i32'
p421
sg12
Nsg13
Nsg14
(lp422
(i__main__
Token
p423
(dp424
g18
I194
sba(i__main__
Token
p425
(dp426
g18
I195
sba(i__main__
Token
p427
(dp428
g18
I196
sba(i__main__
Token
p429
(dp430
g18
I197
sba(i__main__
Token
p431
(dp432
g18
I198
sba(i__main__
Token
p433
(dp434
g18
I199
sba(i__main__
Token
p435
(dp436
g18
I200
sba(i__main__
Token
p437
(dp438
g18
I201
sba(i__main__
Token
p439
(dp440
g18
I202
sba(i__main__
Token
p441
(dp442
g18
I203
sba(i__main__
Token
p443
(dp444
g18
I204
sba(i__main__
Token
p445
(dp446
g18
I205
sba(i__main__
Token
p447
(dp448
g18
I206
sba(i__main__
Token
p449
(dp450
g18
I207
sba(i__main__
Token
p451
(dp452
g18
I208
sba(i__main__
Token
p453
(dp454
g18
I209
sba(i__main__
Token
p455
(dp456
g18
I210
sbasg19
I208
sba(i__main__
Mention
p457
(dp458
g7
S't9'
p459
sg9
S'Anaphora-C'
p460
sg10
S'i35'
p461
sg12
S'i32'
p462
sg13
Nsg14
(lp463
(i__main__
Token
p464
(dp465
g18
I212
sbasg19
I212
sbasg7
g420
sg47
Nsba.