(lp0
(i__main__
Chain
p1
(dp2
S'mentionList'
p3
(lp4
(i__main__
Mention
p5
(dp6
S'chainId'
p7
S't1'
p8
sS'relType'
p9
NsS'mentionId'
p10
S'i1'
p11
sS'antecedentId'
p12
NsS'crefMod'
p13
NsS'tokenList'
p14
(lp15
(i__main__
Token
p16
(dp17
S'tokenId'
p18
I0
sba(i__main__
Token
p19
(dp20
g18
I1
sba(i__main__
Token
p21
(dp22
g18
I2
sbasS'mentionHead'
p23
I2
sba(i__main__
Mention
p24
(dp25
g7
S't1'
p26
sg9
S'Coreference-Abbreviation'
p27
sg10
S'i2'
p28
sg12
S'i1'
p29
sg13
Nsg14
(lp30
(i__main__
Token
p31
(dp32
g18
I4
sbasg23
I4
sba(i__main__
Mention
p33
(dp34
g7
S't1'
p35
sg9
S'Coreference-Identity'
p36
sg10
S'i7'
p37
sg12
S'i2'
p38
sg13
Nsg14
(lp39
(i__main__
Token
p40
(dp41
g18
I25
sbasg23
I25
sba(i__main__
Mention
p42
(dp43
g7
S't1'
p44
sg9
S'Coreference-Identity'
p45
sg10
S'i11'
p46
sg12
S'i7'
p47
sg13
Nsg14
(lp48
(i__main__
Token
p49
(dp50
g18
I47
sbasg23
I47
sba(i__main__
Mention
p51
(dp52
g7
S't1'
p53
sg9
S'Coreference-Identity'
p54
sg10
S'i13'
p55
sg12
S'i11'
p56
sg13
Nsg14
(lp57
(i__main__
Token
p58
(dp59
g18
I60
sbasg23
I60
sba(i__main__
Mention
p60
(dp61
g7
S't1'
p62
sg9
S'Coreference-Identity'
p63
sg10
S'i20'
p64
sg12
S'i13'
p65
sg13
Nsg14
(lp66
(i__main__
Token
p67
(dp68
g18
I85
sbasg23
I85
sbasg7
g8
sS'chainHead'
p69
Nsba(i__main__
Chain
p70
(dp71
g3
(lp72
(i__main__
Mention
p73
(dp74
g7
S't2'
p75
sg9
Nsg10
S'i3'
p76
sg12
Nsg13
Nsg14
(lp77
(i__main__
Token
p78
(dp79
g18
I7
sba(i__main__
Token
p80
(dp81
g18
I8
sbasg23
I8
sba(i__main__
Mention
p82
(dp83
g7
S't2'
p84
sg9
S'Coreference-Noun-Noun'
p85
sg10
S'i4'
p86
sg12
S'i3'
p87
sg13
Nsg14
(lp88
(i__main__
Token
p89
(dp90
g18
I10
sbasg23
I10
sba(i__main__
Mention
p91
(dp92
g7
S't2'
p93
sg9
S'Coreference-Identity'
p94
sg10
S'i15'
p95
sg12
S'i4'
p96
sg13
Nsg14
(lp97
(i__main__
Token
p98
(dp99
g18
I69
sbasg23
I69
sbasg7
g75
sg69
Nsba(i__main__
Chain
p100
(dp101
g3
(lp102
(i__main__
Mention
p103
(dp104
g7
S't3'
p105
sg9
Nsg10
S'i5'
p106
sg12
Nsg13
Nsg14
(lp107
(i__main__
Token
p108
(dp109
g18
I12
sbasg23
I12
sba(i__main__
Mention
p110
(dp111
g7
S't3'
p112
sg9
S'Coreference-Identity'
p113
sg10
S'i9'
p114
sg12
S'i5'
p115
sg13
Nsg14
(lp116
(i__main__
Token
p117
(dp118
g18
I31
sba(i__main__
Token
p119
(dp120
g18
I32
sbasg23
I32
sba(i__main__
Mention
p121
(dp122
g7
S't3'
p123
sg9
S'Coreference-Identity'
p124
sg10
S'i21'
p125
sg12
S'i9'
p126
sg13
Nsg14
(lp127
(i__main__
Token
p128
(dp129
g18
I101
sbasg23
I101
sba(i__main__
Mention
p130
(dp131
g7
S't3'
p132
sg9
S'Coreference-Identity'
p133
sg10
S'i27'
p134
sg12
S'i21'
p135
sg13
Nsg14
(lp136
(i__main__
Token
p137
(dp138
g18
I141
sba(i__main__
Token
p139
(dp140
g18
I142
sbasg23
I142
sba(i__main__
Mention
p141
(dp142
g7
S't3'
p143
sg9
S'Coreference-Identity'
p144
sg10
S'i30'
p145
sg12
S'i27'
p146
sg13
Nsg14
(lp147
(i__main__
Token
p148
(dp149
g18
I163
sba(i__main__
Token
p150
(dp151
g18
I164
sbasg23
I164
sbasg7
g105
sg69
Nsba(i__main__
Chain
p152
(dp153
g3
(lp154
(i__main__
Mention
p155
(dp156
g7
S't4'
p157
sg9
Nsg10
S'i6'
p158
sg12
Nsg13
Nsg14
(lp159
(i__main__
Token
p160
(dp161
g18
I15
sba(i__main__
Token
p162
(dp163
g18
I16
sbasg23
I16
sba(i__main__
Mention
p164
(dp165
g7
S't4'
p166
sg9
S'Coreference-Noun-Noun'
p167
sg10
S'i23'
p168
sg12
S'i6'
p169
sg13
Nsg14
(lp170
(i__main__
Token
p171
(dp172
g18
I103
sba(i__main__
Token
p173
(dp174
g18
I104
sbasg23
I104
sbasg7
g157
sg69
Nsba(i__main__
Chain
p175
(dp176
g3
(lp177
(i__main__
Mention
p178
(dp179
g7
S't5'
p180
sg9
Nsg10
S'i8'
p181
sg12
Nsg13
Nsg14
(lp182
(i__main__
Token
p183
(dp184
g18
I27
sbasg23
I27
sba(i__main__
Mention
p185
(dp186
g7
S't5'
p187
sg9
S'Coreference-Identity'
p188
sg10
S'i12'
p189
sg12
S'i8'
p190
sg13
Nsg14
(lp191
(i__main__
Token
p192
(dp193
g18
I52
sbasg23
I52
sbasg7
g180
sg69
Nsba(i__main__
Chain
p194
(dp195
g3
(lp196
(i__main__
Mention
p197
(dp198
g7
S't6'
p199
sg9
S'anaphora-?'
p200
sg10
S'i10'
p201
sg12
S'i10'
p202
sg13
Nsg14
(lp203
(i__main__
Token
p204
(dp205
g18
I37
sbasg23
I37
sbasg7
g199
sg69
Nsba(i__main__
Chain
p206
(dp207
g3
(lp208
(i__main__
Mention
p209
(dp210
g7
S't7'
p211
sg9
Nsg10
S'i14'
p212
sg12
Nsg13
Nsg14
(lp213
(i__main__
Token
p214
(dp215
g18
I60
sba(i__main__
Token
p216
(dp217
g18
I61
sba(i__main__
Token
p218
(dp219
g18
I62
sba(i__main__
Token
p220
(dp221
g18
I63
sba(i__main__
Token
p222
(dp223
g18
I64
sba(i__main__
Token
p224
(dp225
g18
I65
sba(i__main__
Token
p226
(dp227
g18
I66
sba(i__main__
Token
p228
(dp229
g18
I67
sba(i__main__
Token
p230
(dp231
g18
I68
sba(i__main__
Token
p232
(dp233
g18
I69
sba(i__main__
Token
p234
(dp235
g18
I70
sba(i__main__
Token
p236
(dp237
g18
I71
sba(i__main__
Token
p238
(dp239
g18
I72
sba(i__main__
Token
p240
(dp241
g18
I73
sbasg23
I72
sba(i__main__
Mention
p242
(dp243
g7
S't7'
p244
sg9
S'Anaphora-C'
p245
sg10
S'i18'
p246
sg12
S'i14'
p247
sg13
Nsg14
(lp248
(i__main__
Token
p249
(dp250
g18
I74
sbasg23
I74
sbasg7
g211
sg69
Nsba(i__main__
Chain
p251
(dp252
g3
(lp253
(i__main__
Mention
p254
(dp255
g7
S't8'
p256
sg9
Nsg10
S'i16'
p257
sg12
Nsg13
Nsg14
(lp258
(i__main__
Token
p259
(dp260
g18
I69
sba(i__main__
Token
p261
(dp262
g18
I70
sbasg23
I70
sba(i__main__
Mention
p263
(dp264
g7
S't8'
p265
sg9
S'Anaphora-C'
p266
sg10
S'i17'
p267
sg12
S'i16'
p268
sg13
Nsg14
(lp269
(i__main__
Token
p270
(dp271
g18
I71
sbasg23
I71
sbasg7
g256
sg69
Nsba(i__main__
Chain
p272
(dp273
g3
(lp274
(i__main__
Mention
p275
(dp276
g7
S't9'
p277
sg9
S'anaphora-?'
p278
sg10
S'i19'
p279
sg12
S'i19'
p280
sg13
Nsg14
(lp281
(i__main__
Token
p282
(dp283
g18
I84
sbasg23
I84
sbasg7
g277
sg69
Nsba(i__main__
Chain
p284
(dp285
g3
(lp286
(i__main__
Mention
p287
(dp288
g7
S't10'
p289
sg9
Nsg10
S'i22'
p290
sg12
Nsg13
Nsg14
(lp291
(i__main__
Token
p292
(dp293
g18
I101
sba(i__main__
Token
p294
(dp295
g18
I102
sba(i__main__
Token
p296
(dp297
g18
I103
sba(i__main__
Token
p298
(dp299
g18
I104
sba(i__main__
Token
p300
(dp301
g18
I105
sba(i__main__
Token
p302
(dp303
g18
I106
sba(i__main__
Token
p304
(dp305
g18
I107
sba(i__main__
Token
p306
(dp307
g18
I108
sba(i__main__
Token
p308
(dp309
g18
I109
sba(i__main__
Token
p310
(dp311
g18
I110
sba(i__main__
Token
p312
(dp313
g18
I111
sbasg23
I110
sba(i__main__
Mention
p314
(dp315
g7
S't10'
p316
sg9
S'Anaphora-E'
p317
sg10
S'i25'
p318
sg12
S'i22'
p319
sg13
Nsg14
(lp320
(i__main__
Token
p321
(dp322
g18
I127
sbasg23
I127
sbasg7
g289
sg69
Nsba(i__main__
Chain
p323
(dp324
g3
(lp325
(i__main__
Mention
p326
(dp327
g7
S't11'
p328
sg9
Nsg10
S'i24'
p329
sg12
Nsg13
Nsg14
(lp330
(i__main__
Token
p331
(dp332
g18
I117
sbasg23
I117
sba(i__main__
Mention
p333
(dp334
g7
S't11'
p335
sg9
S'Coreference-Identity'
p336
sg10
S'i29'
p337
sg12
S'i24'
p338
sg13
Nsg14
(lp339
(i__main__
Token
p340
(dp341
g18
I163
sbasg23
I163
sbasg7
g328
sg69
Nsba(i__main__
Chain
p342
(dp343
g3
(lp344
(i__main__
Mention
p345
(dp346
g7
S't12'
p347
sg9
S'anaphora-?'
p348
sg10
S'i26'
p349
sg12
S'i26'
p350
sg13
Nsg14
(lp351
(i__main__
Token
p352
(dp353
g18
I139
sbasg23
I139
sbasg7
g347
sg69
Nsba(i__main__
Chain
p354
(dp355
g3
(lp356
(i__main__
Mention
p357
(dp358
g7
S't13'
p359
sg9
S'anaphora-?'
p360
sg10
S'i28'
p361
sg12
S'i28'
p362
sg13
Nsg14
(lp363
(i__main__
Token
p364
(dp365
g18
I155
sbasg23
I155
sbasg7
g359
sg69
Nsba.