(lp0
(i__main__
Chain
p1
(dp2
S'mentionList'
p3
(lp4
(i__main__
Mention
p5
(dp6
S'chainId'
p7
S't1'
p8
sS'relType'
p9
NsS'mentionId'
p10
S'i1'
p11
sS'antecedentId'
p12
NsS'crefMod'
p13
NsS'tokenList'
p14
(lp15
(i__main__
Token
p16
(dp17
S'tokenId'
p18
I0
sbasS'mentionHead'
p19
I0
sbasg7
g8
sS'chainHead'
p20
Nsba(i__main__
Chain
p21
(dp22
g3
(lp23
(i__main__
Mention
p24
(dp25
g7
S't2'
p26
sg9
Nsg10
S'i2'
p27
sg12
Nsg13
Nsg14
(lp28
(i__main__
Token
p29
(dp30
g18
I3
sba(i__main__
Token
p31
(dp32
g18
I4
sba(i__main__
Token
p33
(dp34
g18
I5
sbasg19
I5
sba(i__main__
Mention
p35
(dp36
g7
S't2'
p37
sg9
S'Coreference-Bracketed/Abbraviation'
p38
sg10
S'i7'
p39
sg12
S'i2'
p40
sg13
Nsg14
(lp41
(i__main__
Token
p42
(dp43
g18
I35
sbasg19
I35
sba(i__main__
Mention
p44
(dp45
g7
S't2'
p46
sg9
S'Coreference-Bracketed/Abbraviation'
p47
sg10
S'i30'
p48
sg12
S'i18'
p49
sg13
Nsg14
(lp50
(i__main__
Token
p51
(dp52
g18
I159
sbasg19
I159
sbasg7
g26
sg20
Nsba(i__main__
Chain
p53
(dp54
g3
(lp55
(i__main__
Mention
p56
(dp57
g7
S't3'
p58
sg9
Nsg10
S'i3'
p59
sg12
Nsg13
Nsg14
(lp60
(i__main__
Token
p61
(dp62
g18
I18
sba(i__main__
Token
p63
(dp64
g18
I19
sba(i__main__
Token
p65
(dp66
g18
I20
sba(i__main__
Token
p67
(dp68
g18
I21
sba(i__main__
Token
p69
(dp70
g18
I22
sba(i__main__
Token
p71
(dp72
g18
I23
sbasg19
I23
sba(i__main__
Mention
p73
(dp74
g7
S't3'
p75
sg9
S'Anaphora-C'
p76
sg10
S'i4'
p77
sg12
S'i3'
p78
sg13
Nsg14
(lp79
(i__main__
Token
p80
(dp81
g18
I25
sbasg19
I25
sba(i__main__
Mention
p82
(dp83
g7
S't3'
p84
sg9
S'Anaphora-C'
p85
sg10
S'i6'
p86
sg12
S'i4'
p87
sg13
Nsg14
(lp88
(i__main__
Token
p89
(dp90
g18
I34
sbasg19
I34
sba(i__main__
Mention
p91
(dp92
g7
S't3'
p93
sg9
S'Anaphora-C'
p94
sg10
S'i14'
p95
sg12
S'i6'
p96
sg13
Nsg14
(lp97
(i__main__
Token
p98
(dp99
g18
I59
sbasg19
I59
sba(i__main__
Mention
p100
(dp101
g7
S't3'
p102
sg9
S'Anaphora-C'
p103
sg10
S'i18'
p104
sg12
S'i14'
p105
sg13
Nsg14
(lp106
(i__main__
Token
p107
(dp108
g18
I94
sbasg19
I94
sba(i__main__
Mention
p109
(dp110
g7
S't3'
p111
sg9
S'Anaphora-C'
p112
sg10
S'i20'
p113
sg12
S'i18'
p114
sg13
Nsg14
(lp115
(i__main__
Token
p116
(dp117
g18
I104
sbasg19
I104
sba(i__main__
Mention
p118
(dp119
g7
S't3'
p120
sg9
S'Coreference-Identity'
p121
sg10
S'i21'
p122
sg12
S'i20'
p123
sg13
Nsg14
(lp124
(i__main__
Token
p125
(dp126
g18
I109
sbasg19
I109
sba(i__main__
Mention
p127
(dp128
g7
S't3'
p129
sg9
S'Coreference-Identity'
p130
sg10
S'i26'
p131
sg12
S'i21'
p132
sg13
Nsg14
(lp133
(i__main__
Token
p134
(dp135
g18
I149
sbasg19
I149
sba(i__main__
Mention
p136
(dp137
g7
S't3'
p138
sg9
S'Anaphora-C'
p139
sg10
S'i29'
p140
sg12
S'i26'
p141
sg13
Nsg14
(lp142
(i__main__
Token
p143
(dp144
g18
I158
sbasg19
I158
sba(i__main__
Mention
p145
(dp146
g7
S't3'
p147
sg9
S'Anaphora-C'
p148
sg10
S'i32'
p149
sg12
S'i29'
p150
sg13
Nsg14
(lp151
(i__main__
Token
p152
(dp153
g18
I171
sbasg19
I171
sba(i__main__
Mention
p154
(dp155
g7
S't3'
p156
sg9
S'Anaphora-C'
p157
sg10
S'i33'
p158
sg12
S'i32'
p159
sg13
Nsg14
(lp160
(i__main__
Token
p161
(dp162
g18
I185
sbasg19
I185
sba(i__main__
Mention
p163
(dp164
g7
S't3'
p165
sg9
S'Coreference-Identity'
p166
sg10
S'i37'
p167
sg12
S'i33'
p168
sg13
Nsg14
(lp169
(i__main__
Token
p170
(dp171
g18
I207
sbasg19
I207
sba(i__main__
Mention
p172
(dp173
g7
S't3'
p174
sg9
S'Anaphora-C'
p175
sg10
S'i38'
p176
sg12
S'i37'
p177
sg13
Nsg14
(lp178
(i__main__
Token
p179
(dp180
g18
I209
sbasg19
I209
sbasg7
g58
sg20
Nsba(i__main__
Chain
p181
(dp182
g3
(lp183
(i__main__
Mention
p184
(dp185
g7
S't4'
p186
sg9
Nsg10
S'i5'
p187
sg12
Nsg13
Nsg14
(lp188
(i__main__
Token
p189
(dp190
g18
I29
sbasg19
I29
sbasg7
g186
sg20
Nsba(i__main__
Chain
p191
(dp192
g3
(lp193
(i__main__
Mention
p194
(dp195
g7
S't5'
p196
sg9
Nsg10
S'i8'
p197
sg12
Nsg13
Nsg14
(lp198
(i__main__
Token
p199
(dp200
g18
I37
sba(i__main__
Token
p201
(dp202
g18
I38
sbasg19
Nsba(i__main__
Mention
p203
(dp204
g7
S't5'
p205
sg9
S'Coreference-NounComplement'
p206
sg10
S'i10'
p207
sg12
S'i8'
p208
sg13
Nsg14
(lp209
(i__main__
Token
p210
(dp211
g18
I39
sba(i__main__
Token
p212
(dp213
g18
I40
sba(i__main__
Token
p214
(dp215
g18
I41
sbasg19
I41
sba(i__main__
Mention
p216
(dp217
g7
S't5'
p218
sg9
S'Coreference-Identity'
p219
sg10
S'i23'
p220
sg12
S'i10'
p221
sg13
Nsg14
(lp222
(i__main__
Token
p223
(dp224
g18
I113
sbasg19
I113
sbasg7
g196
sg20
Nsba(i__main__
Chain
p225
(dp226
g3
(lp227
(i__main__
Mention
p228
(dp229
g7
S't6'
p230
sg9
Nsg10
S'i9'
p231
sg12
Nsg13
Nsg14
(lp232
(i__main__
Token
p233
(dp234
g18
I37
sba(i__main__
Token
p235
(dp236
g18
I38
sbasg19
Nsba(i__main__
Mention
p237
(dp238
g7
S't6'
p239
sg9
S'Coreference-NounComplement'
p240
sg10
S'i11'
p241
sg12
S'i9'
p242
sg13
Nsg14
(lp243
(i__main__
Token
p244
(dp245
g18
I43
sba(i__main__
Token
p246
(dp247
g18
I44
sbasg19
I44
sba(i__main__
Mention
p248
(dp249
g7
S't6'
p250
sg9
S'Coreference-Identity'
p251
sg10
S'i22'
p252
sg12
S'i11'
p253
sg13
Nsg14
(lp254
(i__main__
Token
p255
(dp256
g18
I111
sbasg19
I111
sba(i__main__
Mention
p257
(dp258
g7
S't6'
p259
sg9
S'Coreference-Identity'
p260
sg10
S'i31'
p261
sg12
S'i22'
p262
sg13
Nsg14
(lp263
(i__main__
Token
p264
(dp265
g18
I169
sbasg19
I169
sba(i__main__
Mention
p266
(dp267
g7
S't6'
p268
sg9
S'Coreference-Identity'
p269
sg10
S'i34'
p270
sg12
S'i31'
p271
sg13
Nsg14
(lp272
(i__main__
Token
p273
(dp274
g18
I195
sbasg19
I195
sbasg7
g230
sg20
Nsba(i__main__
Chain
p275
(dp276
g3
(lp277
(i__main__
Mention
p278
(dp279
g7
S't7'
p280
sg9
Nsg10
S'i12'
p281
sg12
Nsg13
Nsg14
(lp282
(i__main__
Token
p283
(dp284
g18
I49
sba(i__main__
Token
p285
(dp286
g18
I50
sbasg19
I50
sba(i__main__
Mention
p287
(dp288
g7
S't7'
p289
sg9
S'Coreference-NounComplement'
p290
sg10
S'i13'
p291
sg12
S'i12'
p292
sg13
Nsg14
(lp293
(i__main__
Token
p294
(dp295
g18
I51
sba(i__main__
Token
p296
(dp297
g18
I52
sbasg19
I52
sba(i__main__
Mention
p298
(dp299
g7
S't7'
p300
sg9
S'Coreference-Identity'
p301
sg10
S'i15'
p302
sg12
S'i13'
p303
sg13
Nsg14
(lp304
(i__main__
Token
p305
(dp306
g18
I63
sba(i__main__
Token
p307
(dp308
g18
I64
sbasg19
I64
sba(i__main__
Mention
p309
(dp310
g7
S't7'
p311
sg9
S'Coreference-Identity'
p312
sg10
S'i16'
p313
sg12
S'i15'
p314
sg13
Nsg14
(lp315
(i__main__
Token
p316
(dp317
g18
I85
sba(i__main__
Token
p318
(dp319
g18
I86
sbasg19
I86
sba(i__main__
Mention
p320
(dp321
g7
S't7'
p322
sg9
S'Anaphora-C'
p323
sg10
S'i17'
p324
sg12
S'i16'
p325
sg13
Nsg14
(lp326
(i__main__
Token
p327
(dp328
g18
I88
sbasg19
I88
sbasg7
g280
sg20
Nsba(i__main__
Chain
p329
(dp330
g3
(lp331
(i__main__
Mention
p332
(dp333
g7
S't8'
p334
sg9
Nsg10
S'i19'
p335
sg12
Nsg13
Nsg14
(lp336
(i__main__
Token
p337
(dp338
g18
I97
sbasg19
I97
sbasg7
g334
sg20
Nsba(i__main__
Chain
p339
(dp340
g3
(lp341
(i__main__
Mention
p342
(dp343
g7
S't9'
p344
sg9
Nsg10
S'i24'
p345
sg12
Nsg13
Nsg14
(lp346
(i__main__
Token
p347
(dp348
g18
I116
sba(i__main__
Token
p349
(dp350
g18
I117
sba(i__main__
Token
p351
(dp352
g18
I118
sba(i__main__
Token
p353
(dp354
g18
I119
sbasg19
I119
sba(i__main__
Mention
p355
(dp356
g7
S't9'
p357
sg9
S'Anaphora-C'
p358
sg10
S'i25'
p359
sg12
S'i24'
p360
sg13
Nsg14
(lp361
(i__main__
Token
p362
(dp363
g18
I124
sbasg19
I124
sbasg7
g344
sg20
Nsba(i__main__
Chain
p364
(dp365
g3
(lp366
(i__main__
Mention
p367
(dp368
g7
S't10'
p369
sg9
Nsg10
S'i27'
p370
sg12
Nsg13
Nsg14
(lp371
(i__main__
Token
p372
(dp373
g18
I150
sbasg19
I150
sbasg7
g369
sg20
Nsba(i__main__
Chain
p374
(dp375
g3
(lp376
(i__main__
Mention
p377
(dp378
g7
S't11'
p379
sg9
Nsg10
S'i28'
p380
sg12
Nsg13
Nsg14
(lp381
(i__main__
Token
p382
(dp383
g18
I155
sbasg19
I155
sbasg7
g379
sg20
Nsba(i__main__
Chain
p384
(dp385
g3
(lp386
(i__main__
Mention
p387
(dp388
g7
S't12'
p389
sg9
Nsg10
S'i35'
p390
sg12
Nsg13
Nsg14
(lp391
(i__main__
Token
p392
(dp393
g18
I195
sba(i__main__
Token
p394
(dp395
g18
I196
sba(i__main__
Token
p396
(dp397
g18
I197
sba(i__main__
Token
p398
(dp399
g18
I198
sba(i__main__
Token
p400
(dp401
g18
I199
sba(i__main__
Token
p402
(dp403
g18
I200
sba(i__main__
Token
p404
(dp405
g18
I201
sba(i__main__
Token
p406
(dp407
g18
I202
sba(i__main__
Token
p408
(dp409
g18
I203
sbasg19
I202
sba(i__main__
Mention
p410
(dp411
g7
S't12'
p412
sg9
S'Anaphora-T'
p413
sg10
S'i36'
p414
sg12
S'i35'
p415
sg13
Nsg14
(lp416
(i__main__
Token
p417
(dp418
g18
I205
sbasg19
I205
sbasg7
g389
sg20
Nsba.