(lp0
(i__main__
Chain
p1
(dp2
S'mentionList'
p3
(lp4
(i__main__
Mention
p5
(dp6
S'chainId'
p7
S't1'
p8
sS'relType'
p9
NsS'mentionId'
p10
S'i1'
p11
sS'antecedentId'
p12
NsS'crefMod'
p13
NsS'tokenList'
p14
(lp15
(i__main__
Token
p16
(dp17
S'tokenId'
p18
I0
sbasS'mentionHead'
p19
I0
sba(i__main__
Mention
p20
(dp21
g7
S't1'
p22
sg9
S'Coreference-Identity'
p23
sg10
S'i16'
p24
sg12
S'i1'
p25
sg13
Nsg14
(lp26
(i__main__
Token
p27
(dp28
g18
I88
sbasg19
I88
sba(i__main__
Mention
p29
(dp30
g7
S't1'
p31
sg9
S'Coreference-InferedRelation'
p32
sg10
S'i18'
p33
sg12
S'i16'
p34
sg13
Nsg14
(lp35
(i__main__
Token
p36
(dp37
g18
I102
sbasg19
I102
sbasg7
g8
sS'chainHead'
p38
Nsba(i__main__
Chain
p39
(dp40
g3
(lp41
(i__main__
Mention
p42
(dp43
g7
S't2'
p44
sg9
Nsg10
S'i2'
p45
sg12
Nsg13
Nsg14
(lp46
(i__main__
Token
p47
(dp48
g18
I7
sba(i__main__
Token
p49
(dp50
g18
I8
sbasg19
I8
sba(i__main__
Mention
p51
(dp52
g7
S't2'
p53
sg9
S'Coreference-Identity'
p54
sg10
S'i10'
p55
sg12
S'i2'
p56
sg13
Nsg14
(lp57
(i__main__
Token
p58
(dp59
g18
I54
sba(i__main__
Token
p60
(dp61
g18
I55
sbasg19
I55
sbasg7
g44
sg38
Nsba(i__main__
Chain
p62
(dp63
g3
(lp64
(i__main__
Mention
p65
(dp66
g7
S't3'
p67
sg9
Nsg10
S'i3'
p68
sg12
Nsg13
Nsg14
(lp69
(i__main__
Token
p70
(dp71
g18
I10
sba(i__main__
Token
p72
(dp73
g18
I11
sbasg19
I11
sba(i__main__
Mention
p74
(dp75
g7
S't3'
p76
sg9
S'Coreference-Identity'
p77
sg10
S'i11'
p78
sg12
S'i3'
p79
sg13
Nsg14
(lp80
(i__main__
Token
p81
(dp82
g18
I57
sbasg19
I57
sbasg7
g67
sg38
Nsba(i__main__
Chain
p83
(dp84
g3
(lp85
(i__main__
Mention
p86
(dp87
g7
S't4'
p88
sg9
Nsg10
S'i4'
p89
sg12
Nsg13
Nsg14
(lp90
(i__main__
Token
p91
(dp92
g18
I20
sbasg19
I20
sba(i__main__
Mention
p93
(dp94
g7
S't4'
p95
sg9
S'Coreference-Identity'
p96
sg10
S'i12'
p97
sg12
S'i4'
p98
sg13
Nsg14
(lp99
(i__main__
Token
p100
(dp101
g18
I61
sbasg19
I61
sba(i__main__
Mention
p102
(dp103
g7
S't4'
p104
sg9
S'Coreference-Identity'
p105
sg10
S'i15'
p106
sg12
S'i12'
p107
sg13
Nsg14
(lp108
(i__main__
Token
p109
(dp110
g18
I85
sbasg19
I85
sba(i__main__
Mention
p111
(dp112
g7
S't4'
p113
sg9
S'Coreference-Identity'
p114
sg10
S'i27'
p115
sg12
S'i15'
p116
sg13
Nsg14
(lp117
(i__main__
Token
p118
(dp119
g18
I179
sbasg19
I179
sbasg7
g88
sg38
Nsba(i__main__
Chain
p120
(dp121
g3
(lp122
(i__main__
Mention
p123
(dp124
g7
S't5'
p125
sg9
Nsg10
S'i6'
p126
sg12
Nsg13
Nsg14
(lp127
(i__main__
Token
p128
(dp129
g18
I23
sbasg19
I23
sba(i__main__
Mention
p130
(dp131
g7
S't5'
p132
sg9
S'Coreference-Identity'
p133
sg10
S'i14'
p134
sg12
S'i6'
p135
sg13
Nsg14
(lp136
(i__main__
Token
p137
(dp138
g18
I64
sbasg19
I64
sbasg7
g125
sg38
Nsba(i__main__
Chain
p139
(dp140
g3
(lp141
(i__main__
Mention
p142
(dp143
g7
S't6'
p144
sg9
Nsg10
S'i5'
p145
sg12
Nsg13
Nsg14
(lp146
(i__main__
Token
p147
(dp148
g18
I26
sbasg19
I26
sba(i__main__
Mention
p149
(dp150
g7
S't6'
p151
sg9
S'Coreference-Identity'
p152
sg10
S'i13'
p153
sg12
S'i5'
p154
sg13
Nsg14
(lp155
(i__main__
Token
p156
(dp157
g18
I67
sbasg19
I67
sbasg7
g144
sg38
Nsba(i__main__
Chain
p158
(dp159
g3
(lp160
(i__main__
Mention
p161
(dp162
g7
S't7'
p163
sg9
Nsg10
S'i7'
p164
sg12
Nsg13
Nsg14
(lp165
(i__main__
Token
p166
(dp167
g18
I29
sbasg19
I29
sba(i__main__
Mention
p168
(dp169
g7
S't7'
p170
sg9
S'Coreference-Identity'
p171
sg10
S'i19'
p172
sg12
S'i7'
p173
sg13
Nsg14
(lp174
(i__main__
Token
p175
(dp176
g18
I116
sbasg19
I116
sbasg7
g163
sg38
Nsba(i__main__
Chain
p177
(dp178
g3
(lp179
(i__main__
Mention
p180
(dp181
g7
S't8'
p182
sg9
Nsg10
S'i8'
p183
sg12
Nsg13
Nsg14
(lp184
(i__main__
Token
p185
(dp186
g18
I32
sba(i__main__
Token
p187
(dp188
g18
I33
sbasg19
I33
sba(i__main__
Mention
p189
(dp190
g7
S't8'
p191
sg9
S'Coreference-Noun-Noun'
p192
sg10
S'i9'
p193
sg12
S'i8'
p194
sg13
Nsg14
(lp195
(i__main__
Token
p196
(dp197
g18
I38
sbasg19
I38
sba(i__main__
Mention
p198
(dp199
g7
S't8'
p200
sg9
S'Coreference-Noun-Noun'
p201
sg10
S'i23'
p202
sg12
S'i9'
p203
sg13
Nsg14
(lp204
(i__main__
Token
p205
(dp206
g18
I143
sba(i__main__
Token
p207
(dp208
g18
I144
sbasg19
I144
sbasg7
g182
sg38
Nsba(i__main__
Chain
p209
(dp210
g3
(lp211
(i__main__
Mention
p212
(dp213
g7
S't9'
p214
sg9
Nsg10
S'i17'
p215
sg12
Nsg13
Nsg14
(lp216
(i__main__
Token
p217
(dp218
g18
I94
sbasg19
I94
sba(i__main__
Mention
p219
(dp220
g7
S't9'
p221
sg9
S'Coreference-Identity'
p222
sg10
S'i26'
p223
sg12
S'i17'
p224
sg13
Nsg14
(lp225
(i__main__
Token
p226
(dp227
g18
I160
sba(i__main__
Token
p228
(dp229
g18
I161
sbasg19
I161
sbasg7
g214
sg38
Nsba(i__main__
Chain
p230
(dp231
g3
(lp232
(i__main__
Mention
p233
(dp234
g7
S't10'
p235
sg9
Nsg10
S'i20'
p236
sg12
Nsg13
Nsg14
(lp237
(i__main__
Token
p238
(dp239
g18
I127
sbasg19
I127
sba(i__main__
Mention
p240
(dp241
g7
S't10'
p242
sg9
S'Coreference-Identity'
p243
sg10
S'i24'
p244
sg12
S'i20'
p245
sg13
Nsg14
(lp246
(i__main__
Token
p247
(dp248
g18
I149
sbasg19
I149
sbasg7
g235
sg38
Nsba(i__main__
Chain
p249
(dp250
g3
(lp251
(i__main__
Mention
p252
(dp253
g7
S't11'
p254
sg9
Nsg10
S'i21'
p255
sg12
Nsg13
Nsg14
(lp256
(i__main__
Token
p257
(dp258
g18
I129
sba(i__main__
Token
p259
(dp260
g18
I130
sba(i__main__
Token
p261
(dp262
g18
I131
sba(i__main__
Token
p263
(dp264
g18
I132
sba(i__main__
Token
p265
(dp266
g18
I133
sba(i__main__
Token
p267
(dp268
g18
I134
sba(i__main__
Token
p269
(dp270
g18
I135
sba(i__main__
Token
p271
(dp272
g18
I136
sba(i__main__
Token
p273
(dp274
g18
I137
sba(i__main__
Token
p275
(dp276
g18
I138
sba(i__main__
Token
p277
(dp278
g18
I139
sba(i__main__
Token
p279
(dp280
g18
I140
sbasg19
I140
sba(i__main__
Mention
p281
(dp282
g7
S't11'
p283
sg9
S'Anaphora-E'
p284
sg10
S'i22'
p285
sg12
S'i21'
p286
sg13
Nsg14
(lp287
(i__main__
Token
p288
(dp289
g18
I142
sbasg19
I142
sba(i__main__
Mention
p290
(dp291
g7
S't11'
p292
sg9
S'Coreference-Noun-Noun'
p293
sg10
S'i25'
p294
sg12
S'i22'
p295
sg13
Nsg14
(lp296
(i__main__
Token
p297
(dp298
g18
I151
sba(i__main__
Token
p299
(dp300
g18
I152
sbasg19
I152
sbasg7
g254
sg38
Nsba.