(lp0
(i__main__
Chain
p1
(dp2
S'mentionList'
p3
(lp4
(i__main__
Mention
p5
(dp6
S'chainId'
p7
S't1'
p8
sS'relType'
p9
NsS'mentionId'
p10
S'i1'
p11
sS'antecedentId'
p12
NsS'crefMod'
p13
NsS'tokenList'
p14
(lp15
(i__main__
Token
p16
(dp17
S'tokenId'
p18
I0
sba(i__main__
Token
p19
(dp20
g18
I1
sba(i__main__
Token
p21
(dp22
g18
I2
sbasS'mentionHead'
p23
I2
sba(i__main__
Mention
p24
(dp25
g7
S't1'
p26
sg9
S'Coreference-Noun-Noun'
p27
sg10
S'i3'
p28
sg12
S'i1'
p29
sg13
Nsg14
(lp30
(i__main__
Token
p31
(dp32
g18
I4
sba(i__main__
Token
p33
(dp34
g18
I5
sba(i__main__
Token
p35
(dp36
g18
I6
sbasg23
I6
sba(i__main__
Mention
p37
(dp38
g7
S't1'
p39
sg9
S'Coreference-NounComplement'
p40
sg10
S'i4'
p41
sg12
S'i3'
p42
sg13
Nsg14
(lp43
(i__main__
Token
p44
(dp45
g18
I7
sba(i__main__
Token
p46
(dp47
g18
I8
sbasg23
I8
sba(i__main__
Mention
p48
(dp49
g7
S't1'
p50
sg9
S'Anaphora-C'
p51
sg10
S'i5'
p52
sg12
S'i4'
p53
sg13
Nsg14
(lp54
(i__main__
Token
p55
(dp56
g18
I14
sbasg23
I14
sba(i__main__
Mention
p57
(dp58
g7
S't1'
p59
sg9
S'Coreference-Identity'
p60
sg10
S'i11'
p61
sg12
S'i5'
p62
sg13
Nsg14
(lp63
(i__main__
Token
p64
(dp65
g18
I40
sbasg23
I40
sba(i__main__
Mention
p66
(dp67
g7
S't1'
p68
sg9
S'Anaphora-C'
p69
sg10
S'i13'
p70
sg12
S'i11'
p71
sg13
Nsg14
(lp72
(i__main__
Token
p73
(dp74
g18
I53
sbasg23
I53
sba(i__main__
Mention
p75
(dp76
g7
S't1'
p77
sg9
S'Coreference-Identity'
p78
sg10
S'i20'
p79
sg12
S'i13'
p80
sg13
Nsg14
(lp81
(i__main__
Token
p82
(dp83
g18
I69
sbasg23
I69
sba(i__main__
Mention
p84
(dp85
g7
S't1'
p86
sg9
S'Anaphora-C'
p87
sg10
S'i27'
p88
sg12
S'i20'
p89
sg13
Nsg14
(lp90
(i__main__
Token
p91
(dp92
g18
I103
sbasg23
I103
sba(i__main__
Mention
p93
(dp94
g7
S't1'
p95
sg9
S'Anaphora-C'
p96
sg10
S'i28'
p97
sg12
S'i27'
p98
sg13
Nsg14
(lp99
(i__main__
Token
p100
(dp101
g18
I106
sbasg23
I106
sba(i__main__
Mention
p102
(dp103
g7
S't1'
p104
sg9
S'Coreference-Identity'
p105
sg10
S'i36'
p106
sg12
S'i28'
p107
sg13
Nsg14
(lp108
(i__main__
Token
p109
(dp110
g18
I145
sbasg23
I145
sba(i__main__
Mention
p111
(dp112
g7
S't1'
p113
sg9
S'Anaphora-C'
p114
sg10
S'i39'
p115
sg12
S'i36'
p116
sg13
Nsg14
(lp117
(i__main__
Token
p118
(dp119
g18
I166
sbasg23
I166
sbasg7
g8
sS'chainHead'
p120
Nsba(i__main__
Chain
p121
(dp122
g3
(lp123
(i__main__
Mention
p124
(dp125
g7
S't2'
p126
sg9
Nsg10
S'i2'
p127
sg12
Nsg13
Nsg14
(lp128
(i__main__
Token
p129
(dp130
g18
I0
sba(i__main__
Token
p131
(dp132
g18
I1
sbasg23
I1
sba(i__main__
Mention
p133
(dp134
g7
S't2'
p135
sg9
S'Coreference-Identity'
p136
sg10
S'i37'
p137
sg12
S'i2'
p138
sg13
Nsg14
(lp139
(i__main__
Token
p140
(dp141
g18
I149
sba(i__main__
Token
p142
(dp143
g18
I150
sbasg23
I150
sbasg7
g126
sg120
Nsba(i__main__
Chain
p144
(dp145
g3
(lp146
(i__main__
Mention
p147
(dp148
g7
S't3'
p149
sg9
Nsg10
S'i6'
p150
sg12
Nsg13
Nsg14
(lp151
(i__main__
Token
p152
(dp153
g18
I15
sbasg23
I15
sba(i__main__
Mention
p154
(dp155
g7
S't3'
p156
sg9
S'Coreference-Identity'
p157
sg10
S'i12'
p158
sg12
S'i6'
p159
sg13
Nsg14
(lp160
(i__main__
Token
p161
(dp162
g18
I44
sba(i__main__
Token
p163
(dp164
g18
I45
sbasg23
I45
sba(i__main__
Mention
p165
(dp166
g7
S't3'
p167
sg9
S'Coreference-Identity'
p168
sg10
S'i34'
p169
sg12
S'i12'
p170
sg13
Nsg14
(lp171
(i__main__
Token
p172
(dp173
g18
I127
sba(i__main__
Token
p174
(dp175
g18
I128
sbasg23
I128
sbasg7
g149
sg120
Nsba(i__main__
Chain
p176
(dp177
g3
(lp178
(i__main__
Mention
p179
(dp180
g7
S't4'
p181
sg9
Nsg10
S'i7'
p182
sg12
Nsg13
Nsg14
(lp183
(i__main__
Token
p184
(dp185
g18
I23
sba(i__main__
Token
p186
(dp187
g18
I24
sbasg23
I24
sba(i__main__
Mention
p188
(dp189
g7
S't4'
p190
sg9
S'Coreference-Identity'
p191
sg10
S'i14'
p192
sg12
S'i7'
p193
sg13
Nsg14
(lp194
(i__main__
Token
p195
(dp196
g18
I54
sba(i__main__
Token
p197
(dp198
g18
I55
sbasg23
I55
sbasg7
g181
sg120
Nsba(i__main__
Chain
p199
(dp200
g3
(lp201
(i__main__
Mention
p202
(dp203
g7
S't5'
p204
sg9
Nsg10
S'i8'
p205
sg12
Nsg13
Nsg14
(lp206
(i__main__
Token
p207
(dp208
g18
I27
sbasg23
I27
sba(i__main__
Mention
p209
(dp210
g7
S't5'
p211
sg9
S'Coreference-Identity'
p212
sg10
S'i15'
p213
sg12
S'i8'
p214
sg13
Nsg14
(lp215
(i__main__
Token
p216
(dp217
g18
I58
sbasg23
I58
sba(i__main__
Mention
p218
(dp219
g7
S't5'
p220
sg9
S'Coreference-NounComplement'
p221
sg10
S'i16'
p222
sg12
S'i15'
p223
sg13
Nsg14
(lp224
(i__main__
Token
p225
(dp226
g18
I59
sba(i__main__
Token
p227
(dp228
g18
I60
sbasg23
I60
sba(i__main__
Mention
p229
(dp230
g7
S't5'
p231
sg9
S'Coreference-Noun-Noun'
p232
sg10
S'i25'
p233
sg12
S'i16'
p234
sg13
Nsg14
(lp235
(i__main__
Token
p236
(dp237
g18
I98
sbasg23
I98
sbasg7
g204
sg120
Nsba(i__main__
Chain
p238
(dp239
g3
(lp240
(i__main__
Mention
p241
(dp242
g7
S't6'
p243
sg9
Nsg10
S'i9'
p244
sg12
Nsg13
Nsg14
(lp245
(i__main__
Token
p246
(dp247
g18
I29
sba(i__main__
Token
p248
(dp249
g18
I30
sbasg23
I30
sba(i__main__
Mention
p250
(dp251
g7
S't6'
p252
sg9
S'Coreference-Identity'
p253
sg10
S'i17'
p254
sg12
S'i9'
p255
sg13
Nsg14
(lp256
(i__main__
Token
p257
(dp258
g18
I62
sba(i__main__
Token
p259
(dp260
g18
I63
sbasg23
I63
sba(i__main__
Mention
p261
(dp262
g7
S't6'
p263
sg9
S'Coreference-NounComplement'
p264
sg10
S'i19'
p265
sg12
S'i17'
p266
sg13
Nsg14
(lp267
(i__main__
Token
p268
(dp269
g18
I64
sba(i__main__
Token
p270
(dp271
g18
I65
sbasg23
I65
sbasg7
g243
sg120
Nsba(i__main__
Chain
p272
(dp273
g3
(lp274
(i__main__
Mention
p275
(dp276
g7
S't7'
p277
sg9
Nsg10
S'i10'
p278
sg12
Nsg13
Nsg14
(lp279
(i__main__
Token
p280
(dp281
g18
I29
sbasg23
I29
sba(i__main__
Mention
p282
(dp283
g7
S't7'
p284
sg9
S'Coreference-Identity'
p285
sg10
S'i18'
p286
sg12
S'i10'
p287
sg13
Nsg14
(lp288
(i__main__
Token
p289
(dp290
g18
I62
sbasg23
I62
sbasg7
g277
sg120
Nsba(i__main__
Chain
p291
(dp292
g3
(lp293
(i__main__
Mention
p294
(dp295
g7
S't8'
p296
sg9
Nsg10
S'i21'
p297
sg12
Nsg13
Nsg14
(lp298
(i__main__
Token
p299
(dp300
g18
I70
sba(i__main__
Token
p301
(dp302
g18
I71
sbasg23
I71
sba(i__main__
Mention
p303
(dp304
g7
S't8'
p305
sg9
S'Coreference-NounComplement'
p306
sg10
S'i22'
p307
sg12
S'i21'
p308
sg13
Nsg14
(lp309
(i__main__
Token
p310
(dp311
g18
I72
sba(i__main__
Token
p312
(dp313
g18
I73
sbasg23
I73
sbasg7
g296
sg120
Nsba(i__main__
Chain
p314
(dp315
g3
(lp316
(i__main__
Mention
p317
(dp318
g7
S't9'
p319
sg9
Nsg10
S'i23'
p320
sg12
Nsg13
Nsg14
(lp321
(i__main__
Token
p322
(dp323
g18
I90
sba(i__main__
Token
p324
(dp325
g18
I91
sbasg23
I91
sba(i__main__
Mention
p326
(dp327
g7
S't9'
p328
sg9
S'Coreference-NounComplement'
p329
sg10
S'i24'
p330
sg12
S'i23'
p331
sg13
Nsg14
(lp332
(i__main__
Token
p333
(dp334
g18
I92
sba(i__main__
Token
p335
(dp336
g18
I93
sbasg23
I93
sba(i__main__
Mention
p337
(dp338
g7
S't9'
p339
sg9
S'Coreference-Identity'
p340
sg10
S'i31'
p341
sg12
S'i24'
p342
sg13
Nsg14
(lp343
(i__main__
Token
p344
(dp345
g18
I119
sbasg23
I119
sba(i__main__
Mention
p346
(dp347
g7
S't9'
p348
sg9
S'Anaphora-C'
p349
sg10
S'i32'
p350
sg12
S'i31'
p351
sg13
Nsg14
(lp352
(i__main__
Token
p353
(dp354
g18
I121
sbasg23
I121
sbasg7
g319
sg120
Nsba(i__main__
Chain
p355
(dp356
g3
(lp357
(i__main__
Mention
p358
(dp359
g7
S't10'
p360
sg9
Nsg10
S'i26'
p361
sg12
Nsg13
Nsg14
(lp362
(i__main__
Token
p363
(dp364
g18
I101
sbasg23
I101
sba(i__main__
Mention
p365
(dp366
g7
S't10'
p367
sg9
S'Anaphora-C'
p368
sg10
S'i30'
p369
sg12
S'i26'
p370
sg13
Nsg14
(lp371
(i__main__
Token
p372
(dp373
g18
I107
sbasg23
I107
sba(i__main__
Mention
p374
(dp375
g7
S't10'
p376
sg9
S'Coreference-Identity'
p377
sg10
S'i33'
p378
sg12
S'i30'
p379
sg13
Nsg14
(lp380
(i__main__
Token
p381
(dp382
g18
I122
sbasg23
I122
sbasg7
g360
sg120
Nsba(i__main__
Chain
p383
(dp384
g3
(lp385
(i__main__
Mention
p386
(dp387
g7
S't11'
p388
sg9
Nsg10
S'i29'
p389
sg12
Nsg13
Nsg14
(lp390
(i__main__
Token
p391
(dp392
g18
I106
sba(i__main__
Token
p393
(dp394
g18
I107
sba(i__main__
Token
p395
(dp396
g18
I108
sba(i__main__
Token
p397
(dp398
g18
I109
sba(i__main__
Token
p399
(dp400
g18
I110
sba(i__main__
Token
p401
(dp402
g18
I111
sba(i__main__
Token
p403
(dp404
g18
I112
sba(i__main__
Token
p405
(dp406
g18
I113
sba(i__main__
Token
p407
(dp408
g18
I114
sbasg23
I112
sba(i__main__
Mention
p409
(dp410
g7
S't11'
p411
sg9
S'Anaphora-C'
p412
sg10
S'i35'
p413
sg12
S'i29'
p414
sg13
Nsg14
(lp415
(i__main__
Token
p416
(dp417
g18
I143
sbasg23
I143
sbasg7
g388
sg120
Nsba(i__main__
Chain
p418
(dp419
g3
(lp420
(i__main__
Mention
p421
(dp422
g7
S't12'
p423
sg9
Nsg10
S'i38'
p424
sg12
Nsg13
Nsg14
(lp425
(i__main__
Token
p426
(dp427
g18
I156
sba(i__main__
Token
p428
(dp429
g18
I157
sba(i__main__
Token
p430
(dp431
g18
I158
sbasg23
I158
sba(i__main__
Mention
p432
(dp433
g7
S't12'
p434
sg9
S'Anaphora-C'
p435
sg10
S'i40'
p436
sg12
S'i38'
p437
sg13
Nsg14
(lp438
(i__main__
Token
p439
(dp440
g18
I169
sbasg23
I169
sbasg7
g423
sg120
Nsba.