(lp0
(i__main__
Chain
p1
(dp2
S'mentionList'
p3
(lp4
(i__main__
Mention
p5
(dp6
S'chainId'
p7
S't1'
p8
sS'relType'
p9
NsS'mentionId'
p10
S'i1'
p11
sS'antecedentId'
p12
NsS'crefMod'
p13
NsS'tokenList'
p14
(lp15
(i__main__
Token
p16
(dp17
S'tokenId'
p18
I0
sba(i__main__
Token
p19
(dp20
g18
I1
sba(i__main__
Token
p21
(dp22
g18
I2
sbasS'mentionHead'
p23
I2
sba(i__main__
Mention
p24
(dp25
g7
S't1'
p26
sg9
Nsg10
S'i2'
p27
sg12
Nsg13
Nsg14
(lp28
(i__main__
Token
p29
(dp30
g18
I6
sba(i__main__
Token
p31
(dp32
g18
I7
sbasg23
I7
sba(i__main__
Mention
p33
(dp34
g7
S't1'
p35
sg9
S'Coreference-NounComplement'
p36
sg10
S'i4'
p37
sg12
S'i2'
p38
sg13
Nsg14
(lp39
(i__main__
Token
p40
(dp41
g18
I8
sba(i__main__
Token
p42
(dp43
g18
I9
sba(i__main__
Token
p44
(dp45
g18
I10
sbasg23
I10
sba(i__main__
Mention
p46
(dp47
g7
S't1'
p48
sg9
S'Anaphora-C'
p49
sg10
S'i5'
p50
sg12
S'i4'
p51
sg13
Nsg14
(lp52
(i__main__
Token
p53
(dp54
g18
I14
sbasg23
I14
sba(i__main__
Mention
p55
(dp56
g7
S't1'
p57
sg9
S'Coreference-Identity'
p58
sg10
S'i11'
p59
sg12
S'i5'
p60
sg13
Nsg14
(lp61
(i__main__
Token
p62
(dp63
g18
I43
sbasg23
I43
sba(i__main__
Mention
p64
(dp65
g7
S't1'
p66
sg9
S'Coreference-Identity'
p67
sg10
S'i12'
p68
sg12
S'i11'
p69
sg13
Nsg14
(lp70
(i__main__
Token
p71
(dp72
g18
I62
sbasg23
I62
sba(i__main__
Mention
p73
(dp74
g7
S't1'
p75
sg9
S'Anaphora-C'
p76
sg10
S'i16'
p77
sg12
S'i12'
p78
sg13
Nsg14
(lp79
(i__main__
Token
p80
(dp81
g18
I83
sbasg23
I83
sba(i__main__
Mention
p82
(dp83
g7
S't1'
p84
sg9
S'Coreference-Identity'
p85
sg10
S'i20'
p86
sg12
S'i16'
p87
sg13
Nsg14
(lp88
(i__main__
Token
p89
(dp90
g18
I100
sbasg23
I100
sba(i__main__
Mention
p91
(dp92
g7
S't1'
p93
sg9
S'Coreference-Identity'
p94
sg10
S'i25'
p95
sg12
S'i20'
p96
sg13
Nsg14
(lp97
(i__main__
Token
p98
(dp99
g18
I110
sbasg23
I110
sba(i__main__
Mention
p100
(dp101
g7
S't1'
p102
sg9
S'Coreference-Identity'
p103
sg10
S'i27'
p104
sg12
S'i25'
p105
sg13
Nsg14
(lp106
(i__main__
Token
p107
(dp108
g18
I120
sbasg23
I120
sba(i__main__
Mention
p109
(dp110
g7
S't1'
p111
sg9
S'Anaphora-C'
p112
sg10
S'i30'
p113
sg12
S'i27'
p114
sg13
Nsg14
(lp115
(i__main__
Token
p116
(dp117
g18
I124
sbasg23
I124
sba(i__main__
Mention
p118
(dp119
g7
S't1'
p120
sg9
S'Coreference-Identity'
p121
sg10
S'i38'
p122
sg12
S'i30'
p123
sg13
Nsg14
(lp124
(i__main__
Token
p125
(dp126
g18
I170
sbasg23
I170
sbasg7
g8
sS'chainHead'
p127
Nsba(i__main__
Chain
p128
(dp129
g3
(lp130
(i__main__
Mention
p131
(dp132
g7
S't2'
p133
sg9
S'Coreference-Noun-Noun'
p134
sg10
S'i3'
p135
sg12
S'i1'
p136
sg13
Nsg14
(lp137
(i__main__
Token
p138
(dp139
g18
I6
sbasg23
I6
sba(i__main__
Mention
p140
(dp141
g7
S't2'
p142
sg9
S'Coreference-Identity'
p143
sg10
S'i7'
p144
sg12
S'i3'
p145
sg13
Nsg14
(lp146
(i__main__
Token
p147
(dp148
g18
I17
sbasg23
I17
sbasg7
g133
sg127
Nsba(i__main__
Chain
p149
(dp150
g3
(lp151
(i__main__
Mention
p152
(dp153
g7
S't3'
p154
sg9
Nsg10
S'i6'
p155
sg12
Nsg13
Nsg14
(lp156
(i__main__
Token
p157
(dp158
g18
I15
sbasg23
I15
sba(i__main__
Mention
p159
(dp160
g7
S't3'
p161
sg9
S'Coreference-Noun-Noun'
p162
sg10
S'i8'
p163
sg12
S'i6'
p164
sg13
Nsg14
(lp165
(i__main__
Token
p166
(dp167
g18
I19
sbasg23
I19
sba(i__main__
Mention
p168
(dp169
g7
S't3'
p170
sg9
S'Coreference-NounComplement'
p171
sg10
S'i9'
p172
sg12
S'i8'
p173
sg13
Nsg14
(lp174
(i__main__
Token
p175
(dp176
g18
I20
sba(i__main__
Token
p177
(dp178
g18
I21
sbasg23
I21
sbasg7
g154
sg127
Nsba(i__main__
Chain
p179
(dp180
g3
(lp181
(i__main__
Mention
p182
(dp183
g7
S't4'
p184
sg9
Nsg10
S'i10'
p185
sg12
Nsg13
Nsg14
(lp186
(i__main__
Token
p187
(dp188
g18
I35
sba(i__main__
Token
p189
(dp190
g18
I36
sbasg23
I36
sba(i__main__
Mention
p191
(dp192
g7
S't4'
p193
sg9
S'Coreference-Identity'
p194
sg10
S'i35'
p195
sg12
S'i10'
p196
sg13
Nsg14
(lp197
(i__main__
Token
p198
(dp199
g18
I155
sbasg23
I155
sbasg7
g184
sg127
Nsba(i__main__
Chain
p200
(dp201
g3
(lp202
(i__main__
Mention
p203
(dp204
g7
S't5'
p205
sg9
Nsg10
S'i13'
p206
sg12
Nsg13
Nsg14
(lp207
(i__main__
Token
p208
(dp209
g18
I68
sba(i__main__
Token
p210
(dp211
g18
I69
sba(i__main__
Token
p212
(dp213
g18
I70
sba(i__main__
Token
p214
(dp215
g18
I71
sba(i__main__
Token
p216
(dp217
g18
I72
sba(i__main__
Token
p218
(dp219
g18
I73
sba(i__main__
Token
p220
(dp221
g18
I74
sba(i__main__
Token
p222
(dp223
g18
I76
sbasg23
Nsba(i__main__
Mention
p224
(dp225
g7
S't5'
p226
sg9
S'Anaphora-C'
p227
sg10
S'i15'
p228
sg12
S'i13'
p229
sg13
Nsg14
(lp230
(i__main__
Token
p231
(dp232
g18
I81
sbasg23
I81
sbasg7
g205
sg127
Nsba(i__main__
Chain
p233
(dp234
g3
(lp235
(i__main__
Mention
p236
(dp237
g7
S't6'
p238
sg9
Nsg10
S'i14'
p239
sg12
Nsg13
Nsg14
(lp240
(i__main__
Token
p241
(dp242
g18
I68
sba(i__main__
Token
p243
(dp244
g18
I69
sba(i__main__
Token
p245
(dp246
g18
I70
sba(i__main__
Token
p247
(dp248
g18
I71
sba(i__main__
Token
p249
(dp250
g18
I72
sba(i__main__
Token
p251
(dp252
g18
I73
sba(i__main__
Token
p253
(dp254
g18
I74
sbasg23
Nsba(i__main__
Mention
p255
(dp256
g7
S't6'
p257
sg9
S'Coreference-Noun-Noun'
p258
sg10
S'i18'
p259
sg12
S'i37'
p260
sg13
Nsg14
(lp261
(i__main__
Token
p262
(dp263
g18
I98
sbasg23
I98
sba(i__main__
Mention
p264
(dp265
g7
S't6'
p266
sg9
S'Coreference-Noun-Noun'
p267
sg10
S'i32'
p268
sg12
S'i18'
p269
sg13
Nsg14
(lp270
(i__main__
Token
p271
(dp272
g18
I142
sbasg23
I142
sba(i__main__
Mention
p273
(dp274
g7
S't6'
p275
sg9
S'Anaphora-C'
p276
sg10
S'i34'
p277
sg12
S'i32'
p278
sg13
Nsg14
(lp279
(i__main__
Token
p280
(dp281
g18
I152
sbasg23
I152
sbasg7
g238
sg127
Nsba(i__main__
Chain
p282
(dp283
g3
(lp284
(i__main__
Mention
p285
(dp286
g7
S't7'
p287
sg9
S'anaphora-?'
p288
sg10
S'i17'
p289
sg12
S'i17'
p290
sg13
Nsg14
(lp291
(i__main__
Token
p292
(dp293
g18
I95
sbasg23
I95
sbasg7
g287
sg127
Nsba(i__main__
Chain
p294
(dp295
g3
(lp296
(i__main__
Mention
p297
(dp298
g7
S't8'
p299
sg9
Nsg10
S'i22'
p300
sg12
Nsg13
Nsg14
(lp301
(i__main__
Token
p302
(dp303
g18
I102
sbasg23
Nsba(i__main__
Mention
p304
(dp305
g7
S't8'
p306
sg9
S'Coreference-PartOf'
p307
sg10
S'i23'
p308
sg12
S'i22'
p309
sg13
Nsg14
(lp310
(i__main__
Token
p311
(dp312
g18
I103
sba(i__main__
Token
p313
(dp314
g18
I104
sba(i__main__
Token
p315
(dp316
g18
I105
sbasg23
I105
sba(i__main__
Mention
p317
(dp318
g7
S't8'
p319
sg9
Nsg10
S'i29'
p320
sg12
Nsg13
Nsg14
(lp321
(i__main__
Token
p322
(dp323
g18
I122
sbasg23
Nsbasg7
g299
sg127
Nsba(i__main__
Chain
p324
(dp325
g3
(lp326
(i__main__
Mention
p327
(dp328
g7
S't9'
p329
sg9
Nsg10
S'i21'
p330
sg12
Nsg13
Nsg14
(lp331
(i__main__
Token
p332
(dp333
g18
I102
sbasg23
Nsba(i__main__
Mention
p334
(dp335
g7
S't9'
p336
sg9
S'Coreference-PartOf'
p337
sg10
S'i24'
p338
sg12
S'i21'
p339
sg13
Nsg14
(lp340
(i__main__
Token
p341
(dp342
g18
I107
sba(i__main__
Token
p343
(dp344
g18
I108
sbasg23
I108
sba(i__main__
Mention
p345
(dp346
g7
S't9'
p347
sg9
Nsg10
S'i28'
p348
sg12
Nsg13
Nsg14
(lp349
(i__main__
Token
p350
(dp351
g18
I122
sbasg23
Nsbasg7
g329
sg127
Nsba(i__main__
Chain
p352
(dp353
g3
(lp354
(i__main__
Mention
p355
(dp356
g7
S't10'
p357
sg9
Nsg10
S'i26'
p358
sg12
Nsg13
Nsg14
(lp359
(i__main__
Token
p360
(dp361
g18
I115
sbasg23
I115
sba(i__main__
Mention
p362
(dp363
g7
S't10'
p364
sg9
S'Coreference-Identity'
p365
sg10
S'i39'
p366
sg12
S'i26'
p367
sg13
Nsg14
(lp368
(i__main__
Token
p369
(dp370
g18
I176
sba(i__main__
Token
p371
(dp372
g18
I177
sbasg23
I177
sbasg7
g357
sg127
Nsba(i__main__
Chain
p373
(dp374
g3
(lp375
(i__main__
Mention
p376
(dp377
g7
S't11'
p378
sg9
Nsg10
S'i31'
p379
sg12
Nsg13
Nsg14
(lp380
(i__main__
Token
p381
(dp382
g18
I136
sbasg23
I136
sba(i__main__
Mention
p383
(dp384
g7
S't11'
p385
sg9
S'Coreference-Identity'
p386
sg10
S'i33'
p387
sg12
S'i31'
p388
sg13
Nsg14
(lp389
(i__main__
Token
p390
(dp391
g18
I144
sbasg23
I144
sba(i__main__
Mention
p392
(dp393
g7
S't11'
p394
sg9
S'Anaphora-C'
p395
sg10
S'i36'
p396
sg12
S'i33'
p397
sg13
Nsg14
(lp398
(i__main__
Token
p399
(dp400
g18
I156
sbasg23
I156
sbasg7
g378
sg127
Nsba(i__main__
Chain
p401
(dp402
g3
(lp403
(i__main__
Mention
p404
(dp405
g7
S't12'
p406
sg9
S'anaphora-?'
p407
sg10
S'i37'
p408
sg12
S'i37'
p409
sg13
Nsg14
(lp410
(i__main__
Token
p411
(dp412
g18
I163
sbasg23
I163
sbasg7
g406
sg127
Nsba.