(lp0
(i__main__
Chain
p1
(dp2
S'mentionList'
p3
(lp4
(i__main__
Mention
p5
(dp6
S'chainId'
p7
S't1'
p8
sS'relType'
p9
NsS'mentionId'
p10
S'i1'
p11
sS'antecedentId'
p12
NsS'crefMod'
p13
NsS'tokenList'
p14
(lp15
(i__main__
Token
p16
(dp17
S'tokenId'
p18
I0
sba(i__main__
Token
p19
(dp20
g18
I1
sba(i__main__
Token
p21
(dp22
g18
I2
sba(i__main__
Token
p23
(dp24
g18
I3
sba(i__main__
Token
p25
(dp26
g18
I4
sbasS'mentionHead'
p27
I4
sba(i__main__
Mention
p28
(dp29
g7
S't1'
p30
sg9
S'Anaphora-C'
p31
sg10
S'i6'
p32
sg12
S'i1'
p33
sg13
Nsg14
(lp34
(i__main__
Token
p35
(dp36
g18
I18
sbasg27
I18
sba(i__main__
Mention
p37
(dp38
g7
S't1'
p39
sg9
S'Anaphora-C'
p40
sg10
S'i8'
p41
sg12
S'i6'
p42
sg13
Nsg14
(lp43
(i__main__
Token
p44
(dp45
g18
I36
sbasg27
I36
sba(i__main__
Mention
p46
(dp47
g7
S't1'
p48
sg9
S'Anaphora-C'
p49
sg10
S'i9'
p50
sg12
S'i8'
p51
sg13
Nsg14
(lp52
(i__main__
Token
p53
(dp54
g18
I51
sbasg27
I51
sba(i__main__
Mention
p55
(dp56
g7
S't1'
p57
sg9
S'Coreference-Identity'
p58
sg10
S'i12'
p59
sg12
S'i9'
p60
sg13
Nsg14
(lp61
(i__main__
Token
p62
(dp63
g18
I78
sbasg27
I78
sba(i__main__
Mention
p64
(dp65
g7
S't1'
p66
sg9
S'Coreference-Identity'
p67
sg10
S'i20'
p68
sg12
S'i54'
p69
sg13
Nsg14
(lp70
(i__main__
Token
p71
(dp72
g18
I154
sbasg27
I154
sba(i__main__
Mention
p73
(dp74
g7
S't1'
p75
sg9
S'Coreference-Identity'
p76
sg10
S'i32'
p77
sg12
S'i55'
p78
sg13
Nsg14
(lp79
(i__main__
Token
p80
(dp81
g18
I244
sbasg27
I244
sbasg7
g8
sS'chainHead'
p82
Nsba(i__main__
Chain
p83
(dp84
g3
(lp85
(i__main__
Mention
p86
(dp87
g7
S't2'
p88
sg9
Nsg10
S'i3'
p89
sg12
Nsg13
Nsg14
(lp90
(i__main__
Token
p91
(dp92
g18
I6
sbasg27
I6
sba(i__main__
Mention
p93
(dp94
g7
S't2'
p95
sg9
S'Coreference-Identity'
p96
sg10
S'i7'
p97
sg12
S'i3'
p98
sg13
Nsg14
(lp99
(i__main__
Token
p100
(dp101
g18
I29
sbasg27
I29
sba(i__main__
Mention
p102
(dp103
g7
S't2'
p104
sg9
S'Coreference-Identity'
p105
sg10
S'i10'
p106
sg12
S'i7'
p107
sg13
Nsg14
(lp108
(i__main__
Token
p109
(dp110
g18
I58
sbasg27
I58
sba(i__main__
Mention
p111
(dp112
g7
S't2'
p113
sg9
S'Coreference-Identity'
p114
sg10
S'i14'
p115
sg12
S'i10'
p116
sg13
Nsg14
(lp117
(i__main__
Token
p118
(dp119
g18
I88
sbasg27
I88
sba(i__main__
Mention
p120
(dp121
g7
S't2'
p122
sg9
S'Coreference-Identity'
p123
sg10
S'i16'
p124
sg12
S'i14'
p125
sg13
Nsg14
(lp126
(i__main__
Token
p127
(dp128
g18
I96
sbasg27
I96
sba(i__main__
Mention
p129
(dp130
g7
S't2'
p131
sg9
S'Anaphora-C'
p132
sg10
S'i18'
p133
sg12
S'i16'
p134
sg13
Nsg14
(lp135
(i__main__
Token
p136
(dp137
g18
I113
sbasg27
I113
sba(i__main__
Mention
p138
(dp139
g7
S't2'
p140
sg9
S'Coreference-Identity'
p141
sg10
S'i19'
p142
sg12
S'i18'
p143
sg13
Nsg14
(lp144
(i__main__
Token
p145
(dp146
g18
I129
sbasg27
I129
sba(i__main__
Mention
p147
(dp148
g7
S't2'
p149
sg9
S'Anaphora-C'
p150
sg10
S'i24'
p151
sg12
S'i19'
p152
sg13
Nsg14
(lp153
(i__main__
Token
p154
(dp155
g18
I169
sbasg27
I169
sba(i__main__
Mention
p156
(dp157
g7
S't2'
p158
sg9
S'Coreference-Identity'
p159
sg10
S'i26'
p160
sg12
S'i24'
p161
sg13
Nsg14
(lp162
(i__main__
Token
p163
(dp164
g18
I182
sbasg27
I182
sba(i__main__
Mention
p165
(dp166
g7
S't2'
p167
sg9
S'Coreference-Identity'
p168
sg10
S'i29'
p169
sg12
S'i26'
p170
sg13
Nsg14
(lp171
(i__main__
Token
p172
(dp173
g18
I193
sbasg27
I193
sba(i__main__
Mention
p174
(dp175
g7
S't2'
p176
sg9
S'Coreference-Identity'
p177
sg10
S'i31'
p178
sg12
S'i29'
p179
sg13
Nsg14
(lp180
(i__main__
Token
p181
(dp182
g18
I229
sbasg27
I229
sba(i__main__
Mention
p183
(dp184
g7
S't2'
p185
sg9
S'Coreference-Identity'
p186
sg10
S'i34'
p187
sg12
S'i31'
p188
sg13
Nsg14
(lp189
(i__main__
Token
p190
(dp191
g18
I248
sbasg27
I248
sba(i__main__
Mention
p192
(dp193
g7
S't2'
p194
sg9
S'Coreference-Identity'
p195
sg10
S'i35'
p196
sg12
S'i34'
p197
sg13
Nsg14
(lp198
(i__main__
Token
p199
(dp200
g18
I282
sbasg27
I282
sba(i__main__
Mention
p201
(dp202
g7
S't2'
p203
sg9
S'Coreference-Identity'
p204
sg10
S'i40'
p205
sg12
S'i35'
p206
sg13
Nsg14
(lp207
(i__main__
Token
p208
(dp209
g18
I300
sbasg27
I300
sba(i__main__
Mention
p210
(dp211
g7
S't2'
p212
sg9
S'Coreference-Identity'
p213
sg10
S'i41'
p214
sg12
S'i40'
p215
sg13
Nsg14
(lp216
(i__main__
Token
p217
(dp218
g18
I311
sbasg27
I311
sbasg7
g88
sg82
Nsba(i__main__
Chain
p219
(dp220
g3
(lp221
(i__main__
Mention
p222
(dp223
g7
S't3'
p224
sg9
Nsg10
S'i2'
p225
sg12
Nsg13
Nsg14
(lp226
(i__main__
Token
p227
(dp228
g18
I6
sba(i__main__
Token
p229
(dp230
g18
I7
sbasg27
I7
sba(i__main__
Mention
p231
(dp232
g7
S't3'
p233
sg9
S'Coreference-Identity'
p234
sg10
S'i13'
p235
sg12
S'i2'
p236
sg13
Nsg14
(lp237
(i__main__
Token
p238
(dp239
g18
I80
sbasg27
I80
sbasg7
g224
sg82
Nsba(i__main__
Chain
p240
(dp241
g3
(lp242
(i__main__
Mention
p243
(dp244
g7
S't4'
p245
sg9
Nsg10
S'i4'
p246
sg12
Nsg13
Nsg14
(lp247
(i__main__
Token
p248
(dp249
g18
I10
sba(i__main__
Token
p250
(dp251
g18
I11
sbasg27
I11
sba(i__main__
Mention
p252
(dp253
g7
S't4'
p254
sg9
S'Anaphora-C'
p255
sg10
S'i5'
p256
sg12
S'i4'
p257
sg13
Nsg14
(lp258
(i__main__
Token
p259
(dp260
g18
I16
sbasg27
I16
sbasg7
g245
sg82
Nsba(i__main__
Chain
p261
(dp262
g3
(lp263
(i__main__
Mention
p264
(dp265
g7
S't5'
p266
sg9
Nsg10
S'i11'
p267
sg12
Nsg13
Nsg14
(lp268
(i__main__
Token
p269
(dp270
g18
I71
sba(i__main__
Token
p271
(dp272
g18
I72
sba(i__main__
Token
p273
(dp274
g18
I73
sbasg27
I73
sbasg7
g266
sg82
Nsba(i__main__
Chain
p275
(dp276
g3
(lp277
(i__main__
Mention
p278
(dp279
g7
S't6'
p280
sg9
Nsg10
S'i15'
p281
sg12
Nsg13
Nsg14
(lp282
(i__main__
Token
p283
(dp284
g18
I89
sbasg27
I89
sba(i__main__
Mention
p285
(dp286
g7
S't6'
p287
sg9
S'Coreference-Identity'
p288
sg10
S'i17'
p289
sg12
S'i15'
p290
sg13
Nsg14
(lp291
(i__main__
Token
p292
(dp293
g18
I110
sbasg27
I110
sba(i__main__
Mention
p294
(dp295
g7
S't6'
p296
sg9
S'Coreference-Identity'
p297
sg10
S'i23'
p298
sg12
S'i17'
p299
sg13
Nsg14
(lp300
(i__main__
Token
p301
(dp302
g18
I163
sbasg27
I163
sba(i__main__
Mention
p303
(dp304
g7
S't6'
p305
sg9
S'Coreference-Identity'
p306
sg10
S'i38'
p307
sg12
S'i23'
p308
sg13
Nsg14
(lp309
(i__main__
Token
p310
(dp311
g18
I293
sbasg27
I293
sba(i__main__
Mention
p312
(dp313
g7
S't6'
p314
sg9
S'Anaphora-C'
p315
sg10
S'i39'
p316
sg12
S'i38'
p317
sg13
Nsg14
(lp318
(i__main__
Token
p319
(dp320
g18
I294
sbasg27
I294
sba(i__main__
Mention
p321
(dp322
g7
S't6'
p323
sg9
S'Coreference-Identity'
p324
sg10
S'i42'
p325
sg12
S'i39'
p326
sg13
Nsg14
(lp327
(i__main__
Token
p328
(dp329
g18
I313
sbasg27
I313
sbasg7
g280
sg82
Nsba(i__main__
Chain
p330
(dp331
g3
(lp332
(i__main__
Mention
p333
(dp334
g7
S't7'
p335
sg9
S'anaphora-?'
p336
sg10
S'i22'
p337
sg12
S'i22'
p338
sg13
Nsg14
(lp339
(i__main__
Token
p340
(dp341
g18
I158
sbasg27
I158
sbasg7
g335
sg82
Nsba(i__main__
Chain
p342
(dp343
g3
(lp344
(i__main__
Mention
p345
(dp346
g7
S't8'
p347
sg9
Nsg10
S'i25'
p348
sg12
Nsg13
Nsg14
(lp349
(i__main__
Token
p350
(dp351
g18
I177
sba(i__main__
Token
p352
(dp353
g18
I178
sbasg27
I178
sba(i__main__
Mention
p354
(dp355
g7
S't8'
p356
sg9
S'Anaphora-C'
p357
sg10
S'i27'
p358
sg12
S'i25'
p359
sg13
Nsg14
(lp360
(i__main__
Token
p361
(dp362
g18
I186
sbasg27
I186
sba(i__main__
Mention
p363
(dp364
g7
S't8'
p365
sg9
S'Anaphora-C'
p366
sg10
S'i28'
p367
sg12
S'i27'
p368
sg13
Nsg14
(lp369
(i__main__
Token
p370
(dp371
g18
I192
sbasg27
I192
sbasg7
g347
sg82
Nsba(i__main__
Chain
p372
(dp373
g3
(lp374
(i__main__
Mention
p375
(dp376
g7
S't9'
p377
sg9
S'anaphora-?'
p378
sg10
S'i30'
p379
sg12
S'i30'
p380
sg13
Nsg14
(lp381
(i__main__
Token
p382
(dp383
g18
I222
sbasg27
I222
sbasg7
g377
sg82
Nsba(i__main__
Chain
p384
(dp385
g3
(lp386
(i__main__
Mention
p387
(dp388
g7
S't10'
p389
sg9
Nsg10
S'i36'
p390
sg12
Nsg13
Nsg14
(lp391
(i__main__
Token
p392
(dp393
g18
I283
sbasg27
I283
sba(i__main__
Mention
p394
(dp395
g7
S't10'
p396
sg9
S'Anaphora-C'
p397
sg10
S'i37'
p398
sg12
S'i36'
p399
sg13
Nsg14
(lp400
(i__main__
Token
p401
(dp402
g18
I292
sbasg27
I292
sbasg7
g389
sg82
Nsba(i__main__
Chain
p403
(dp404
g3
(lp405
(i__main__
Mention
p406
(dp407
g7
S't11'
p408
sg9
Nsg10
S'i43'
p409
sg12
Nsg13
Nsg14
(lp410
(i__main__
Token
p411
(dp412
g18
I316
sba(i__main__
Token
p413
(dp414
g18
I317
sbasg27
I317
sba(i__main__
Mention
p415
(dp416
g7
S't11'
p417
sg9
S'Coreference-Noun-Noun'
p418
sg10
S'i46'
p419
sg12
S'i43'
p420
sg13
Nsg14
(lp421
(i__main__
Token
p422
(dp423
g18
I333
sba(i__main__
Token
p424
(dp425
g18
I334
sbasg27
I334
sba(i__main__
Mention
p426
(dp427
g7
S't11'
p428
sg9
Nsg10
S'i48'
p429
sg12
Nsg13
Nsg14
(lp430
(i__main__
Token
p431
(dp432
g18
I350
sba(i__main__
Token
p433
(dp434
g18
I351
sbasg27
Nsba(i__main__
Mention
p435
(dp436
g7
S't11'
p437
sg9
S'Coreference-Identity'
p438
sg10
S'i51'
p439
sg12
S'i48'
p440
sg13
Nsg14
(lp441
(i__main__
Token
p442
(dp443
g18
I380
sba(i__main__
Token
p444
(dp445
g18
I381
sbasg27
I381
sbasg7
g408
sg82
Nsba(i__main__
Chain
p446
(dp447
g3
(lp448
(i__main__
Mention
p449
(dp450
g7
S't12'
p451
sg9
Nsg10
S'i44'
p452
sg12
Nsg13
Nsg14
(lp453
(i__main__
Token
p454
(dp455
g18
I327
sbasg27
I327
sba(i__main__
Mention
p456
(dp457
g7
S't12'
p458
sg9
S'Coreference-NounComplement'
p459
sg10
S'i45'
p460
sg12
S'i44'
p461
sg13
Nsg14
(lp462
(i__main__
Token
p463
(dp464
g18
I328
sba(i__main__
Token
p465
(dp466
g18
I329
sba(i__main__
Token
p467
(dp468
g18
I330
sbasg27
I330
sbasg7
g451
sg82
Nsba(i__main__
Chain
p469
(dp470
g3
(lp471
(i__main__
Mention
p472
(dp473
g7
S't13'
p474
sg9
Nsg10
S'i47'
p475
sg12
Nsg13
Nsg14
(lp476
(i__main__
Token
p477
(dp478
g18
I350
sba(i__main__
Token
p479
(dp480
g18
I351
sbasg27
Nsba(i__main__
Mention
p481
(dp482
g7
S't13'
p483
sg9
S'Anaphora-C'
p484
sg10
S'i50'
p485
sg12
S'i47'
p486
sg13
Nsg14
(lp487
(i__main__
Token
p488
(dp489
g18
I363
sbasg27
I363
sbasg7
g474
sg82
Nsba(i__main__
Chain
p490
(dp491
g3
(lp492
(i__main__
Mention
p493
(dp494
g7
S't14'
p495
sg9
S'anaphora-?'
p496
sg10
S'i49'
p497
sg12
S'i49'
p498
sg13
Nsg14
(lp499
(i__main__
Token
p500
(dp501
g18
I360
sbasg27
I360
sbasg7
g495
sg82
Nsba.