(lp0
(i__main__
Chain
p1
(dp2
S'mentionList'
p3
(lp4
(i__main__
Mention
p5
(dp6
S'chainId'
p7
S't1'
p8
sS'relType'
p9
NsS'mentionId'
p10
S'i1'
p11
sS'antecedentId'
p12
NsS'crefMod'
p13
NsS'tokenList'
p14
(lp15
(i__main__
Token
p16
(dp17
S'tokenId'
p18
I0
sbasS'mentionHead'
p19
I0
sba(i__main__
Mention
p20
(dp21
g7
S't1'
p22
sg9
S'Coreference-Identity'
p23
sg10
S'i22'
p24
sg12
S'i1'
p25
sg13
Nsg14
(lp26
(i__main__
Token
p27
(dp28
g18
I100
sbasg19
I100
sbasg7
g8
sS'chainHead'
p29
Nsba(i__main__
Chain
p30
(dp31
g3
(lp32
(i__main__
Mention
p33
(dp34
g7
S't2'
p35
sg9
Nsg10
S'i2'
p36
sg12
Nsg13
Nsg14
(lp37
(i__main__
Token
p38
(dp39
g18
I5
sba(i__main__
Token
p40
(dp41
g18
I6
sba(i__main__
Token
p42
(dp43
g18
I7
sba(i__main__
Token
p44
(dp45
g18
I8
sbasg19
I8
sba(i__main__
Mention
p46
(dp47
g7
S't2'
p48
sg9
S'Coreference-Abbreviation'
p49
sg10
S'i3'
p50
sg12
S'i2'
p51
sg13
Nsg14
(lp52
(i__main__
Token
p53
(dp54
g18
I10
sbasg19
I10
sbasg7
g35
sg29
Nsba(i__main__
Chain
p55
(dp56
g3
(lp57
(i__main__
Mention
p58
(dp59
g7
S't3'
p60
sg9
Nsg10
S'i4'
p61
sg12
Nsg13
Nsg14
(lp62
(i__main__
Token
p63
(dp64
g18
I14
sbasg19
I14
sba(i__main__
Mention
p65
(dp66
g7
S't3'
p67
sg9
S'Coreference-Identity'
p68
sg10
S'i20'
p69
sg12
S'i4'
p70
sg13
Nsg14
(lp71
(i__main__
Token
p72
(dp73
g18
I95
sba(i__main__
Token
p74
(dp75
g18
I96
sbasg19
I96
sba(i__main__
Mention
p76
(dp77
g7
S't3'
p78
sg9
S'Coreference-Identity'
p79
sg10
S'i28'
p80
sg12
S'i20'
p81
sg13
Nsg14
(lp82
(i__main__
Token
p83
(dp84
g18
I126
sba(i__main__
Token
p85
(dp86
g18
I127
sbasg19
I127
sbasg7
g60
sg29
Nsba(i__main__
Chain
p87
(dp88
g3
(lp89
(i__main__
Mention
p90
(dp91
g7
S't4'
p92
sg9
Nsg10
S'i5'
p93
sg12
Nsg13
Nsg14
(lp94
(i__main__
Token
p95
(dp96
g18
I16
sbasg19
I16
sba(i__main__
Mention
p97
(dp98
g7
S't4'
p99
sg9
S'Coreference-Identity'
p100
sg10
S'i21'
p101
sg12
S'i5'
p102
sg13
Nsg14
(lp103
(i__main__
Token
p104
(dp105
g18
I98
sbasg19
I98
sba(i__main__
Mention
p106
(dp107
g7
S't4'
p108
sg9
S'Anaphora-C'
p109
sg10
S'i24'
p110
sg12
S'i21'
p111
sg13
Nsg14
(lp112
(i__main__
Token
p113
(dp114
g18
I108
sbasg19
I108
sba(i__main__
Mention
p115
(dp116
g7
S't4'
p117
sg9
S'Coreference-Identity'
p118
sg10
S'i38'
p119
sg12
S'i24'
p120
sg13
Nsg14
(lp121
(i__main__
Token
p122
(dp123
g18
I199
sbasg19
I199
sbasg7
g92
sg29
Nsba(i__main__
Chain
p124
(dp125
g3
(lp126
(i__main__
Mention
p127
(dp128
g7
S't5'
p129
sg9
Nsg10
S'i6'
p130
sg12
Nsg13
Nsg14
(lp131
(i__main__
Token
p132
(dp133
g18
I27
sbasg19
I27
sba(i__main__
Mention
p134
(dp135
g7
S't5'
p136
sg9
S'Coreference-Noun-Noun'
p137
sg10
S'i10'
p138
sg12
S'i6'
p139
sg13
Nsg14
(lp140
(i__main__
Token
p141
(dp142
g18
I49
sbasg19
I49
sbasg7
g129
sg29
Nsba(i__main__
Chain
p143
(dp144
g3
(lp145
(i__main__
Mention
p146
(dp147
g7
S't6'
p148
sg9
Nsg10
S'i7'
p149
sg12
Nsg13
Nsg14
(lp150
(i__main__
Token
p151
(dp152
g18
I34
sbasg19
I34
sba(i__main__
Mention
p153
(dp154
g7
S't6'
p155
sg9
S'Coreference-Identity'
p156
sg10
S'i31'
p157
sg12
S'i7'
p158
sg13
Nsg14
(lp159
(i__main__
Token
p160
(dp161
g18
I160
sbasg19
I160
sba(i__main__
Mention
p162
(dp163
g7
S't6'
p164
sg9
S'Anaphora-C'
p165
sg10
S'i33'
p166
sg12
S'i31'
p167
sg13
Nsg14
(lp168
(i__main__
Token
p169
(dp170
g18
I167
sbasg19
I167
sbasg7
g148
sg29
Nsba(i__main__
Chain
p171
(dp172
g3
(lp173
(i__main__
Mention
p174
(dp175
g7
S't7'
p176
sg9
S'anaphora-E'
p177
sg10
S'i8'
p178
sg12
S'i9'
p179
sg13
Nsg14
(lp180
(i__main__
Token
p181
(dp182
g18
I46
sbasg19
I46
sbasg7
g176
sg29
Nsba(i__main__
Chain
p183
(dp184
g3
(lp185
(i__main__
Mention
p186
(dp187
g7
S't8'
p188
sg9
Nsg10
S'i11'
p189
sg12
Nsg13
Nsg14
(lp190
(i__main__
Token
p191
(dp192
g18
I53
sbasg19
I53
sba(i__main__
Mention
p193
(dp194
g7
S't8'
p195
sg9
S'Coreference-Identity'
p196
sg10
S'i41'
p197
sg12
S'i11'
p198
sg13
Nsg14
(lp199
(i__main__
Token
p200
(dp201
g18
I221
sbasg19
I221
sba(i__main__
Mention
p202
(dp203
g7
S't8'
p204
sg9
S'Coreference-Identity'
p205
sg10
S'i49'
p206
sg12
S'i41'
p207
sg13
Nsg14
(lp208
(i__main__
Token
p209
(dp210
g18
I256
sbasg19
I256
sbasg7
g188
sg29
Nsba(i__main__
Chain
p211
(dp212
g3
(lp213
(i__main__
Mention
p214
(dp215
g7
S't9'
p216
sg9
Nsg10
S'i12'
p217
sg12
Nsg13
Nsg14
(lp218
(i__main__
Token
p219
(dp220
g18
I55
sbasg19
I55
sba(i__main__
Mention
p221
(dp222
g7
S't9'
p223
sg9
S'Coreference-NounComplement'
p224
sg10
S'i13'
p225
sg12
S'i12'
p226
sg13
Nsg14
(lp227
(i__main__
Token
p228
(dp229
g18
I56
sba(i__main__
Token
p230
(dp231
g18
I57
sbasg19
I57
sba(i__main__
Mention
p232
(dp233
g7
S't9'
p234
sg9
S'Coreference-Noun-Noun'
p235
sg10
S'i35'
p236
sg12
S'i13'
p237
sg13
Nsg14
(lp238
(i__main__
Token
p239
(dp240
g18
I182
sbasg19
I182
sba(i__main__
Mention
p241
(dp242
g7
S't9'
p243
sg9
S'Coreference-Identity'
p244
sg10
S'i42'
p245
sg12
S'i35'
p246
sg13
Nsg14
(lp247
(i__main__
Token
p248
(dp249
g18
I223
sbasg19
I223
sba(i__main__
Mention
p250
(dp251
g7
S't9'
p252
sg9
S'Coreference-NounComplement'
p253
sg10
S'i43'
p254
sg12
S'i42'
p255
sg13
Nsg14
(lp256
(i__main__
Token
p257
(dp258
g18
I224
sba(i__main__
Token
p259
(dp260
g18
I225
sbasg19
I225
sba(i__main__
Mention
p261
(dp262
g7
S't9'
p263
sg9
S'Coreference-Identity'
p264
sg10
S'i51'
p265
sg12
S'i43'
p266
sg13
Nsg14
(lp267
(i__main__
Token
p268
(dp269
g18
I258
sba(i__main__
Token
p270
(dp271
g18
I259
sbasg19
I259
sba(i__main__
Mention
p272
(dp273
g7
S't9'
p274
sg9
Nsg10
S'i53'
p275
sg12
Nsg13
Nsg14
(lp276
(i__main__
Token
p277
(dp278
g18
I272
sba(i__main__
Token
p279
(dp280
g18
I273
sbasg19
Nsbasg7
g216
sg29
Nsba(i__main__
Chain
p281
(dp282
g3
(lp283
(i__main__
Mention
p284
(dp285
g7
S't10'
p286
sg9
Nsg10
S'i14'
p287
sg12
Nsg13
Nsg14
(lp288
(i__main__
Token
p289
(dp290
g18
I59
sba(i__main__
Token
p291
(dp292
g18
I60
sbasg19
I60
sba(i__main__
Mention
p293
(dp294
g7
S't10'
p295
sg9
S'Coreference-NounComplement'
p296
sg10
S'i15'
p297
sg12
S'i14'
p298
sg13
Nsg14
(lp299
(i__main__
Token
p300
(dp301
g18
I61
sba(i__main__
Token
p302
(dp303
g18
I62
sbasg19
I62
sba(i__main__
Mention
p304
(dp305
g7
S't10'
p306
sg9
S'Coreference-Noun-Noun'
p307
sg10
S'i44'
p308
sg12
S'i15'
p309
sg13
Nsg14
(lp310
(i__main__
Token
p311
(dp312
g18
I229
sbasg19
I229
sba(i__main__
Mention
p313
(dp314
g7
S't10'
p315
sg9
S'Coreference-NounComplement'
p316
sg10
S'i45'
p317
sg12
S'i44'
p318
sg13
Nsg14
(lp319
(i__main__
Token
p320
(dp321
g18
I230
sba(i__main__
Token
p322
(dp323
g18
I231
sbasg19
I231
sba(i__main__
Mention
p324
(dp325
g7
S't10'
p326
sg9
Nsg10
S'i54'
p327
sg12
Nsg13
Nsg14
(lp328
(i__main__
Token
p329
(dp330
g18
I272
sba(i__main__
Token
p331
(dp332
g18
I273
sbasg19
Nsbasg7
g286
sg29
Nsba(i__main__
Chain
p333
(dp334
g3
(lp335
(i__main__
Mention
p336
(dp337
g7
S't11'
p338
sg9
Nsg10
S'i16'
p339
sg12
Nsg13
Nsg14
(lp340
(i__main__
Token
p341
(dp342
g18
I66
sbasg19
I66
sba(i__main__
Mention
p343
(dp344
g7
S't11'
p345
sg9
S'Coreference-Identity'
p346
sg10
S'i46'
p347
sg12
S'i16'
p348
sg13
Nsg14
(lp349
(i__main__
Token
p350
(dp351
g18
I235
sbasg19
I235
sba(i__main__
Mention
p352
(dp353
g7
S't11'
p354
sg9
S'Coreference-Identity'
p355
sg10
S'i47'
p356
sg12
S'i46'
p357
sg13
Nsg14
(lp358
(i__main__
Token
p359
(dp360
g18
I248
sbasg19
I248
sba(i__main__
Mention
p361
(dp362
g7
S't11'
p363
sg9
S'Coreference-Identity'
p364
sg10
S'i52'
p365
sg12
S'i47'
p366
sg13
Nsg14
(lp367
(i__main__
Token
p368
(dp369
g18
I269
sbasg19
I269
sbasg7
g338
sg29
Nsba(i__main__
Chain
p370
(dp371
g3
(lp372
(i__main__
Mention
p373
(dp374
g7
S't12'
p375
sg9
Nsg10
S'i17'
p376
sg12
Nsg13
Nsg14
(lp377
(i__main__
Token
p378
(dp379
g18
I78
sba(i__main__
Token
p380
(dp381
g18
I79
sba(i__main__
Token
p382
(dp383
g18
I80
sbasg19
I80
sba(i__main__
Mention
p384
(dp385
g7
S't12'
p386
sg9
S'Coreference-Noun-Noun'
p387
sg10
S'i18'
p388
sg12
S'i17'
p389
sg13
Nsg14
(lp390
(i__main__
Token
p391
(dp392
g18
I84
sba(i__main__
Token
p393
(dp394
g18
I85
sbasg19
I85
sba(i__main__
Mention
p395
(dp396
g7
S't12'
p397
sg9
S'Coreference-NounComplement'
p398
sg10
S'i19'
p399
sg12
S'i18'
p400
sg13
Nsg14
(lp401
(i__main__
Token
p402
(dp403
g18
I86
sba(i__main__
Token
p404
(dp405
g18
I87
sbasg19
I87
sba(i__main__
Mention
p406
(dp407
g7
S't12'
p408
sg9
S'Anaphora-C'
p409
sg10
S'i27'
p410
sg12
S'i19'
p411
sg13
Nsg14
(lp412
(i__main__
Token
p413
(dp414
g18
I122
sbasg19
I122
sba(i__main__
Mention
p415
(dp416
g7
S't12'
p417
sg9
S'Anaphora-C'
p418
sg10
S'i30'
p419
sg12
S'i27'
p420
sg13
Nsg14
(lp421
(i__main__
Token
p422
(dp423
g18
I152
sbasg19
I152
sba(i__main__
Mention
p424
(dp425
g7
S't12'
p426
sg9
S'Anaphora-C'
p427
sg10
S'i40'
p428
sg12
S'i30'
p429
sg13
Nsg14
(lp430
(i__main__
Token
p431
(dp432
g18
I213
sbasg19
I213
sbasg7
g375
sg29
Nsba(i__main__
Chain
p433
(dp434
g3
(lp435
(i__main__
Mention
p436
(dp437
g7
S't13'
p438
sg9
Nsg10
S'i23'
p439
sg12
Nsg13
Nsg14
(lp440
(i__main__
Token
p441
(dp442
g18
I100
sba(i__main__
Token
p443
(dp444
g18
I101
sba(i__main__
Token
p445
(dp446
g18
I102
sba(i__main__
Token
p447
(dp448
g18
I103
sbasg19
I103
sba(i__main__
Mention
p449
(dp450
g7
S't13'
p451
sg9
S'Anaphora-C'
p452
sg10
S'i25'
p453
sg12
S'i23'
p454
sg13
Nsg14
(lp455
(i__main__
Token
p456
(dp457
g18
I109
sbasg19
I109
sbasg7
g438
sg29
Nsba(i__main__
Chain
p458
(dp459
g3
(lp460
(i__main__
Mention
p461
(dp462
g7
S't14'
p463
sg9
Nsg10
S'i29'
p464
sg12
Nsg13
Nsg14
(lp465
(i__main__
Token
p466
(dp467
g18
I144
sba(i__main__
Token
p468
(dp469
g18
I145
sbasg19
I145
sba(i__main__
Mention
p470
(dp471
g7
S't14'
p472
sg9
S'Coreference-Identity'
p473
sg10
S'i32'
p474
sg12
S'i29'
p475
sg13
Nsg14
(lp476
(i__main__
Token
p477
(dp478
g18
I161
sba(i__main__
Token
p479
(dp480
g18
I162
sbasg19
I162
sbasg7
g463
sg29
Nsba(i__main__
Chain
p481
(dp482
g3
(lp483
(i__main__
Mention
p484
(dp485
g7
S't15'
p486
sg9
Nsg10
S'i34'
p487
sg12
Nsg13
Nsg14
(lp488
(i__main__
Token
p489
(dp490
g18
I177
sba(i__main__
Token
p491
(dp492
g18
I178
sba(i__main__
Token
p493
(dp494
g18
I179
sbasg19
I179
sba(i__main__
Mention
p495
(dp496
g7
S't15'
p497
sg9
S'Anaphora-C'
p498
sg10
S'i36'
p499
sg12
S'i34'
p500
sg13
Nsg14
(lp501
(i__main__
Token
p502
(dp503
g18
I187
sbasg19
I187
sbasg7
g486
sg29
Nsba(i__main__
Chain
p504
(dp505
g3
(lp506
(i__main__
Mention
p507
(dp508
g7
S't16'
p509
sg9
Nsg10
S'i37'
p510
sg12
Nsg13
Nsg14
(lp511
(i__main__
Token
p512
(dp513
g18
I195
sbasg19
I195
sba(i__main__
Mention
p514
(dp515
g7
S't16'
p516
sg9
S'Anaphora-RC'
p517
sg10
S'i39'
p518
sg12
S'i37'
p519
sg13
Nsg14
(lp520
(i__main__
Token
p521
(dp522
g18
I199
sba(i__main__
Token
p523
(dp524
g18
I200
sba(i__main__
Token
p525
(dp526
g18
I201
sba(i__main__
Token
p527
(dp528
g18
I202
sba(i__main__
Token
p529
(dp530
g18
I203
sba(i__main__
Token
p531
(dp532
g18
I204
sba(i__main__
Token
p533
(dp534
g18
I205
sba(i__main__
Token
p535
(dp536
g18
I206
sba(i__main__
Token
p537
(dp538
g18
I207
sba(i__main__
Token
p539
(dp540
g18
I208
sba(i__main__
Token
p541
(dp542
g18
I209
sba(i__main__
Token
p543
(dp544
g18
I210
sba(i__main__
Token
p545
(dp546
g18
I211
sbasg19
I211
sbasg7
g509
sg29
Nsba(i__main__
Chain
p547
(dp548
g3
(lp549
(i__main__
Mention
p550
(dp551
g7
S't17'
p552
sg9
Nsg10
S'i48'
p553
sg12
Nsg13
Nsg14
(lp554
(i__main__
Token
p555
(dp556
g18
I251
sbasg19
I251
sba(i__main__
Mention
p557
(dp558
g7
S't17'
p559
sg9
S'Anaphora-RC'
p560
sg10
S'i50'
p561
sg12
S'i48'
p562
sg13
Nsg14
(lp563
(i__main__
Token
p564
(dp565
g18
I256
sba(i__main__
Token
p566
(dp567
g18
I257
sba(i__main__
Token
p568
(dp569
g18
I258
sba(i__main__
Token
p570
(dp571
g18
I259
sba(i__main__
Token
p572
(dp573
g18
I260
sba(i__main__
Token
p574
(dp575
g18
I261
sba(i__main__
Token
p576
(dp577
g18
I262
sba(i__main__
Token
p578
(dp579
g18
I263
sba(i__main__
Token
p580
(dp581
g18
I264
sba(i__main__
Token
p582
(dp583
g18
I265
sba(i__main__
Token
p584
(dp585
g18
I266
sba(i__main__
Token
p586
(dp587
g18
I267
sba(i__main__
Token
p588
(dp589
g18
I268
sba(i__main__
Token
p590
(dp591
g18
I269
sba(i__main__
Token
p592
(dp593
g18
I270
sbasg19
I270
sbasg7
g552
sg29
Nsba(i__main__
Chain
p594
(dp595
g3
(lp596
(i__main__
Mention
p597
(dp598
g7
S't18'
p599
sg9
Nsg10
S'i55'
p600
sg12
Nsg13
Nsg14
(lp601
(i__main__
Token
p602
(dp603
g18
I281
sba(i__main__
Token
p604
(dp605
g18
I282
sbasg19
I282
sba(i__main__
Mention
p606
(dp607
g7
S't18'
p608
sg9
S'Anaphora-C'
p609
sg10
S'i56'
p610
sg12
S'i55'
p611
sg13
Nsg14
(lp612
(i__main__
Token
p613
(dp614
g18
I284
sbasg19
I284
sbasg7
g599
sg29
Nsba(i__main__
Chain
p615
(dp616
g3
(lp617
(i__main__
Mention
p618
(dp619
g7
S't19'
p620
sg9
S'anaphora-?'
p621
sg10
S'i58'
p622
sg12
S'i58'
p623
sg13
Nsg14
(lp624
(i__main__
Token
p625
(dp626
g18
I286
sbasg19
I286
sbasg7
g620
sg29
Nsba.