(lp0
(i__main__
Chain
p1
(dp2
S'mentionList'
p3
(lp4
(i__main__
Mention
p5
(dp6
S'chainId'
p7
S't1'
p8
sS'relType'
p9
NsS'mentionId'
p10
S'i1'
p11
sS'antecedentId'
p12
NsS'crefMod'
p13
NsS'tokenList'
p14
(lp15
(i__main__
Token
p16
(dp17
S'tokenId'
p18
I0
sba(i__main__
Token
p19
(dp20
g18
I1
sbasS'mentionHead'
p21
I1
sba(i__main__
Mention
p22
(dp23
g7
S't1'
p24
sg9
S'Anaphora-C'
p25
sg10
S'i2'
p26
sg12
S'i1'
p27
sg13
Nsg14
(lp28
(i__main__
Token
p29
(dp30
g18
I7
sbasg21
I7
sba(i__main__
Mention
p31
(dp32
g7
S't1'
p33
sg9
S'Anaphora-RC'
p34
sg10
S'i20'
p35
sg12
S'i2'
p36
sg13
Nsg14
(lp37
(i__main__
Token
p38
(dp39
g18
I110
sba(i__main__
Token
p40
(dp41
g18
I111
sba(i__main__
Token
p42
(dp43
g18
I112
sbasg21
I112
sba(i__main__
Mention
p44
(dp45
g7
S't1'
p46
sg9
S'Coreference-Noun-Noun'
p47
sg10
S'i23'
p48
sg12
S'i20'
p49
sg13
Nsg14
(lp50
(i__main__
Token
p51
(dp52
g18
I133
sba(i__main__
Token
p53
(dp54
g18
I134
sbasg21
I134
sba(i__main__
Mention
p55
(dp56
g7
S't1'
p57
sg9
S'Coreference-PartOf'
p58
sg10
S'i24'
p59
sg12
S'i23'
p60
sg13
Nsg14
(lp61
(i__main__
Token
p62
(dp63
g18
I137
sba(i__main__
Token
p64
(dp65
g18
I138
sbasg21
I138
sbasg7
g8
sS'chainHead'
p66
Nsba(i__main__
Chain
p67
(dp68
g3
(lp69
(i__main__
Mention
p70
(dp71
g7
S't2'
p72
sg9
Nsg10
S'i3'
p73
sg12
Nsg13
Nsg14
(lp74
(i__main__
Token
p75
(dp76
g18
I10
sba(i__main__
Token
p77
(dp78
g18
I11
sbasg21
I11
sba(i__main__
Mention
p79
(dp80
g7
S't2'
p81
sg9
S'Coreference-Identity'
p82
sg10
S'i25'
p83
sg12
S'i3'
p84
sg13
Nsg14
(lp85
(i__main__
Token
p86
(dp87
g18
I144
sba(i__main__
Token
p88
(dp89
g18
I145
sbasg21
I145
sba(i__main__
Mention
p90
(dp91
g7
S't2'
p92
sg9
S'Coreference-Identity'
p93
sg10
S'i29'
p94
sg12
S'i25'
p95
sg13
Nsg14
(lp96
(i__main__
Token
p97
(dp98
g18
I197
sba(i__main__
Token
p99
(dp100
g18
I198
sbasg21
I198
sba(i__main__
Mention
p101
(dp102
g7
S't2'
p103
sg9
S'Anaphora-C'
p104
sg10
S'i30'
p105
sg12
S'i29'
p106
sg13
Nsg14
(lp107
(i__main__
Token
p108
(dp109
g18
I209
sbasg21
I209
sbasg7
g72
sg66
Nsba(i__main__
Chain
p110
(dp111
g3
(lp112
(i__main__
Mention
p113
(dp114
g7
S't3'
p115
sg9
Nsg10
S'i4'
p116
sg12
Nsg13
Nsg14
(lp117
(i__main__
Token
p118
(dp119
g18
I17
sba(i__main__
Token
p120
(dp121
g18
I18
sbasg21
I18
sba(i__main__
Mention
p122
(dp123
g7
S't3'
p124
sg9
S'Coreference-Identity'
p125
sg10
S'i28'
p126
sg12
S'i4'
p127
sg13
Nsg14
(lp128
(i__main__
Token
p129
(dp130
g18
I190
sba(i__main__
Token
p131
(dp132
g18
I191
sbasg21
I191
sbasg7
g115
sg66
Nsba(i__main__
Chain
p133
(dp134
g3
(lp135
(i__main__
Mention
p136
(dp137
g7
S't4'
p138
sg9
Nsg10
S'i5'
p139
sg12
Nsg13
Nsg14
(lp140
(i__main__
Token
p141
(dp142
g18
I24
sbasg21
I24
sba(i__main__
Mention
p143
(dp144
g7
S't4'
p145
sg9
S'Coreference-Identity'
p146
sg10
S'i26'
p147
sg12
S'i5'
p148
sg13
Nsg14
(lp149
(i__main__
Token
p150
(dp151
g18
I172
sbasg21
I172
sbasg7
g138
sg66
Nsba(i__main__
Chain
p152
(dp153
g3
(lp154
(i__main__
Mention
p155
(dp156
g7
S't5'
p157
sg9
Nsg10
S'i6'
p158
sg12
Nsg13
Nsg14
(lp159
(i__main__
Token
p160
(dp161
g18
I34
sbasg21
I34
sbasg7
g157
sg66
Nsba(i__main__
Chain
p162
(dp163
g3
(lp164
(i__main__
Mention
p165
(dp166
g7
S't6'
p167
sg9
Nsg10
S'i7'
p168
sg12
Nsg13
Nsg14
(lp169
(i__main__
Token
p170
(dp171
g18
I36
sbasg21
I36
sba(i__main__
Mention
p172
(dp173
g7
S't6'
p174
sg9
S'Coreference-Identity'
p175
sg10
S'i31'
p176
sg12
S'i7'
p177
sg13
Nsg14
(lp178
(i__main__
Token
p179
(dp180
g18
I214
sbasg21
I214
sbasg7
g167
sg66
Nsba(i__main__
Chain
p181
(dp182
g3
(lp183
(i__main__
Mention
p184
(dp185
g7
S't7'
p186
sg9
Nsg10
S'i8'
p187
sg12
Nsg13
Nsg14
(lp188
(i__main__
Token
p189
(dp190
g18
I38
sba(i__main__
Token
p191
(dp192
g18
I39
sbasg21
I39
sba(i__main__
Mention
p193
(dp194
g7
S't7'
p195
sg9
S'Anaphora-C'
p196
sg10
S'i9'
p197
sg12
S'i8'
p198
sg13
Nsg14
(lp199
(i__main__
Token
p200
(dp201
g18
I45
sbasg21
I45
sba(i__main__
Mention
p202
(dp203
g7
S't7'
p204
sg9
S'Coreference-Identity'
p205
sg10
S'i32'
p206
sg12
S'i9'
p207
sg13
Nsg14
(lp208
(i__main__
Token
p209
(dp210
g18
I216
sba(i__main__
Token
p211
(dp212
g18
I217
sbasg21
I217
sba(i__main__
Mention
p213
(dp214
g7
S't7'
p215
sg9
S'Anaphora-C'
p216
sg10
S'i33'
p217
sg12
S'i32'
p218
sg13
Nsg14
(lp219
(i__main__
Token
p220
(dp221
g18
I222
sbasg21
I222
sbasg7
g186
sg66
Nsba(i__main__
Chain
p222
(dp223
g3
(lp224
(i__main__
Mention
p225
(dp226
g7
S't8'
p227
sg9
Nsg10
S'i10'
p228
sg12
Nsg13
Nsg14
(lp229
(i__main__
Token
p230
(dp231
g18
I48
sbasg21
I48
sba(i__main__
Mention
p232
(dp233
g7
S't8'
p234
sg9
S'Coreference-Identity'
p235
sg10
S'i27'
p236
sg12
S'i10'
p237
sg13
Nsg14
(lp238
(i__main__
Token
p239
(dp240
g18
I178
sbasg21
I178
sba(i__main__
Mention
p241
(dp242
g7
S't8'
p243
sg9
S'Coreference-Identity'
p244
sg10
S'i37'
p245
sg12
S'i27'
p246
sg13
Nsg14
(lp247
(i__main__
Token
p248
(dp249
g18
I236
sbasg21
I236
sba(i__main__
Mention
p250
(dp251
g7
S't8'
p252
sg9
S'Coreference-Identity'
p253
sg10
S'i39'
p254
sg12
S'i37'
p255
sg13
Nsg14
(lp256
(i__main__
Token
p257
(dp258
g18
I244
sbasg21
I244
sbasg7
g227
sg66
Nsba(i__main__
Chain
p259
(dp260
g3
(lp261
(i__main__
Mention
p262
(dp263
g7
S't9'
p264
sg9
Nsg10
S'i11'
p265
sg12
Nsg13
Nsg14
(lp266
(i__main__
Token
p267
(dp268
g18
I57
sba(i__main__
Token
p269
(dp270
g18
I58
sbasg21
I58
sba(i__main__
Mention
p271
(dp272
g7
S't9'
p273
sg9
S'Coreference-Identity'
p274
sg10
S'i17'
p275
sg12
S'i11'
p276
sg13
Nsg14
(lp277
(i__main__
Token
p278
(dp279
g18
I85
sbasg21
I85
sba(i__main__
Mention
p280
(dp281
g7
S't9'
p282
sg9
S'Coreference-Noun-Noun'
p283
sg10
S'i40'
p284
sg12
S'i17'
p285
sg13
Nsg14
(lp286
(i__main__
Token
p287
(dp288
g18
I271
sba(i__main__
Token
p289
(dp290
g18
I272
sbasg21
I272
sba(i__main__
Mention
p291
(dp292
g7
S't9'
p293
sg9
S'Coreference-NounComplement'
p294
sg10
S'i41'
p295
sg12
S'i40'
p296
sg13
Nsg14
(lp297
(i__main__
Token
p298
(dp299
g18
I273
sbasg21
I273
sba(i__main__
Mention
p300
(dp301
g7
S't9'
p302
sg9
S'Anaphora-C'
p303
sg10
S'i44'
p304
sg12
S'i41'
p305
sg13
Nsg14
(lp306
(i__main__
Token
p307
(dp308
g18
I285
sbasg21
I285
sba(i__main__
Mention
p309
(dp310
g7
S't9'
p311
sg9
S'Coreference-Noun-Noun'
p312
sg10
S'i49'
p313
sg12
S'i44'
p314
sg13
Nsg14
(lp315
(i__main__
Token
p316
(dp317
g18
I301
sba(i__main__
Token
p318
(dp319
g18
I302
sbasg21
I302
sba(i__main__
Mention
p320
(dp321
g7
S't9'
p322
sg9
S'Coreference-Noun-Noun'
p323
sg10
S'i59'
p324
sg12
S'i49'
p325
sg13
Nsg14
(lp326
(i__main__
Token
p327
(dp328
g18
I406
sbasg21
I406
sba(i__main__
Mention
p329
(dp330
g7
S't9'
p331
sg9
S'Coreference-Noun-Noun'
p332
sg10
S'i71'
p333
sg12
S'i59'
p334
sg13
Nsg14
(lp335
(i__main__
Token
p336
(dp337
g18
I431
sbasg21
I431
sba(i__main__
Mention
p338
(dp339
g7
S't9'
p340
sg9
S'Coreference-Identity'
p341
sg10
S'i73'
p342
sg12
S'i71'
p343
sg13
Nsg14
(lp344
(i__main__
Token
p345
(dp346
g18
I437
sbasg21
I437
sba(i__main__
Mention
p347
(dp348
g7
S't9'
p349
sg9
S'Coreference-Identity'
p350
sg10
S'i76'
p351
sg12
S'i73'
p352
sg13
Nsg14
(lp353
(i__main__
Token
p354
(dp355
g18
I448
sbasg21
I448
sba(i__main__
Mention
p356
(dp357
g7
S't9'
p358
sg9
S'Coreference-Identity'
p359
sg10
S'i79'
p360
sg12
S'i76'
p361
sg13
Nsg14
(lp362
(i__main__
Token
p363
(dp364
g18
I460
sbasg21
I460
sba(i__main__
Mention
p365
(dp366
g7
S't9'
p367
sg9
S'Coreference-Identity'
p368
sg10
S'i81'
p369
sg12
S'i79'
p370
sg13
Nsg14
(lp371
(i__main__
Token
p372
(dp373
g18
I466
sba(i__main__
Token
p374
(dp375
g18
I467
sbasg21
I467
sbasg7
g264
sg66
Nsba(i__main__
Chain
p376
(dp377
g3
(lp378
(i__main__
Mention
p379
(dp380
g7
S't10'
p381
sg9
Nsg10
S'i12'
p382
sg12
Nsg13
Nsg14
(lp383
(i__main__
Token
p384
(dp385
g18
I57
sba(i__main__
Token
p386
(dp387
g18
I58
sba(i__main__
Token
p388
(dp389
g18
I59
sba(i__main__
Token
p390
(dp391
g18
I60
sba(i__main__
Token
p392
(dp393
g18
I61
sba(i__main__
Token
p394
(dp395
g18
I62
sba(i__main__
Token
p396
(dp397
g18
I63
sba(i__main__
Token
p398
(dp399
g18
I64
sba(i__main__
Token
p400
(dp401
g18
I65
sba(i__main__
Token
p402
(dp403
g18
I66
sbasg21
I65
sba(i__main__
Mention
p404
(dp405
g7
S't10'
p406
sg9
S'Anaphora-E'
p407
sg10
S'i15'
p408
sg12
S'i12'
p409
sg13
Nsg14
(lp410
(i__main__
Token
p411
(dp412
g18
I68
sbasg21
I68
sbasg7
g381
sg66
Nsba(i__main__
Chain
p413
(dp414
g3
(lp415
(i__main__
Mention
p416
(dp417
g7
S't11'
p418
sg9
Nsg10
S'i13'
p419
sg12
Nsg13
Nsg14
(lp420
(i__main__
Token
p421
(dp422
g18
I60
sbasg21
I60
sba(i__main__
Mention
p423
(dp424
g7
S't11'
p425
sg9
S'Anaphora-C'
p426
sg10
S'i14'
p427
sg12
S'i13'
p428
sg13
Nsg14
(lp429
(i__main__
Token
p430
(dp431
g18
I62
sbasg21
I62
sba(i__main__
Mention
p432
(dp433
g7
S't11'
p434
sg9
S'Coreference-Identity'
p435
sg10
S'i50'
p436
sg12
S'i14'
p437
sg13
Nsg14
(lp438
(i__main__
Token
p439
(dp440
g18
I304
sbasg21
I304
sba(i__main__
Mention
p441
(dp442
g7
S't11'
p443
sg9
S'Coreference-Identity'
p444
sg10
S'i51'
p445
sg12
S'i50'
p446
sg13
Nsg14
(lp447
(i__main__
Token
p448
(dp449
g18
I320
sbasg21
I320
sbasg7
g418
sg66
Nsba(i__main__
Chain
p450
(dp451
g3
(lp452
(i__main__
Mention
p453
(dp454
g7
S't12'
p455
sg9
Nsg10
S'i16'
p456
sg12
Nsg13
Nsg14
(lp457
(i__main__
Token
p458
(dp459
g18
I77
sbasg21
I77
sba(i__main__
Mention
p460
(dp461
g7
S't12'
p462
sg9
S'Coreference-Identity'
p463
sg10
S'i55'
p464
sg12
S'i16'
p465
sg13
Nsg14
(lp466
(i__main__
Token
p467
(dp468
g18
I353
sbasg21
I353
sba(i__main__
Mention
p469
(dp470
g7
S't12'
p471
sg9
S'Coreference-Identity'
p472
sg10
S'i56'
p473
sg12
S'i55'
p474
sg13
Nsg14
(lp475
(i__main__
Token
p476
(dp477
g18
I368
sbasg21
I368
sbasg7
g455
sg66
Nsba(i__main__
Chain
p478
(dp479
g3
(lp480
(i__main__
Mention
p481
(dp482
g7
S't13'
p483
sg9
Nsg10
S'i18'
p484
sg12
Nsg13
Nsg14
(lp485
(i__main__
Token
p486
(dp487
g18
I94
sbasg21
I94
sba(i__main__
Mention
p488
(dp489
g7
S't13'
p490
sg9
S'Coreference-Identity'
p491
sg10
S'i42'
p492
sg12
S'i18'
p493
sg13
Nsg14
(lp494
(i__main__
Token
p495
(dp496
g18
I275
sbasg21
I275
sbasg7
g483
sg66
Nsba(i__main__
Chain
p497
(dp498
g3
(lp499
(i__main__
Mention
p500
(dp501
g7
S't14'
p502
sg9
Nsg10
S'i19'
p503
sg12
Nsg13
Nsg14
(lp504
(i__main__
Token
p505
(dp506
g18
I97
sba(i__main__
Token
p507
(dp508
g18
I98
sbasg21
I98
sba(i__main__
Mention
p509
(dp510
g7
S't14'
p511
sg9
S'Coreference-Identity'
p512
sg10
S'i43'
p513
sg12
S'i19'
p514
sg13
Nsg14
(lp515
(i__main__
Token
p516
(dp517
g18
I277
sba(i__main__
Token
p518
(dp519
g18
I278
sbasg21
I278
sbasg7
g502
sg66
Nsba(i__main__
Chain
p520
(dp521
g3
(lp522
(i__main__
Mention
p523
(dp524
g7
S't15'
p525
sg9
Nsg10
S'i21'
p526
sg12
Nsg13
Nsg14
(lp527
(i__main__
Token
p528
(dp529
g18
I110
sba(i__main__
Token
p530
(dp531
g18
I111
sba(i__main__
Token
p532
(dp533
g18
I112
sba(i__main__
Token
p534
(dp535
g18
I113
sba(i__main__
Token
p536
(dp537
g18
I114
sba(i__main__
Token
p538
(dp539
g18
I115
sba(i__main__
Token
p540
(dp541
g18
I116
sba(i__main__
Token
p542
(dp543
g18
I117
sba(i__main__
Token
p544
(dp545
g18
I118
sba(i__main__
Token
p546
(dp547
g18
I119
sba(i__main__
Token
p548
(dp549
g18
I120
sba(i__main__
Token
p550
(dp551
g18
I121
sba(i__main__
Token
p552
(dp553
g18
I122
sba(i__main__
Token
p554
(dp555
g18
I123
sba(i__main__
Token
p556
(dp557
g18
I124
sba(i__main__
Token
p558
(dp559
g18
I125
sba(i__main__
Token
p560
(dp561
g18
I126
sba(i__main__
Token
p562
(dp563
g18
I127
sba(i__main__
Token
p564
(dp565
g18
I128
sbasg21
I127
sba(i__main__
Mention
p566
(dp567
g7
S't15'
p568
sg9
S'Anaphora-C'
p569
sg10
S'i22'
p570
sg12
S'i21'
p571
sg13
Nsg14
(lp572
(i__main__
Token
p573
(dp574
g18
I130
sbasg21
I130
sbasg7
g525
sg66
Nsba(i__main__
Chain
p575
(dp576
g3
(lp577
(i__main__
Mention
p578
(dp579
g7
S't16'
p580
sg9
Nsg10
S'i34'
p581
sg12
Nsg13
Nsg14
(lp582
(i__main__
Token
p583
(dp584
g18
I222
sba(i__main__
Token
p585
(dp586
g18
I223
sba(i__main__
Token
p587
(dp588
g18
I224
sba(i__main__
Token
p589
(dp590
g18
I225
sba(i__main__
Token
p591
(dp592
g18
I226
sba(i__main__
Token
p593
(dp594
g18
I227
sba(i__main__
Token
p595
(dp596
g18
I228
sba(i__main__
Token
p597
(dp598
g18
I229
sbasg21
I227
sba(i__main__
Mention
p599
(dp600
g7
S't16'
p601
sg9
S'Anaphora-E'
p602
sg10
S'i35'
p603
sg12
S'i34'
p604
sg13
Nsg14
(lp605
(i__main__
Token
p606
(dp607
g18
I231
sbasg21
I231
sbasg7
g580
sg66
Nsba(i__main__
Chain
p608
(dp609
g3
(lp610
(i__main__
Mention
p611
(dp612
g7
S't17'
p613
sg9
Nsg10
S'i36'
p614
sg12
Nsg13
Nsg14
(lp615
(i__main__
Token
p616
(dp617
g18
I233
sba(i__main__
Token
p618
(dp619
g18
I234
sbasg21
I234
sba(i__main__
Mention
p620
(dp621
g7
S't17'
p622
sg9
S'Anaphora-C'
p623
sg10
S'i38'
p624
sg12
S'i36'
p625
sg13
Nsg14
(lp626
(i__main__
Token
p627
(dp628
g18
I241
sbasg21
I241
sbasg7
g613
sg66
Nsba(i__main__
Chain
p629
(dp630
g3
(lp631
(i__main__
Mention
p632
(dp633
g7
S't18'
p634
sg9
Nsg10
S'i45'
p635
sg12
Nsg13
Nsg14
(lp636
(i__main__
Token
p637
(dp638
g18
I286
sba(i__main__
Token
p639
(dp640
g18
I287
sbasg21
I287
sba(i__main__
Mention
p641
(dp642
g7
S't18'
p643
sg9
S'Anaphora-C'
p644
sg10
S'i47'
p645
sg12
S'i45'
p646
sg13
Nsg14
(lp647
(i__main__
Token
p648
(dp649
g18
I292
sbasg21
I292
sbasg7
g634
sg66
Nsba(i__main__
Chain
p650
(dp651
g3
(lp652
(i__main__
Mention
p653
(dp654
g7
S't19'
p655
sg9
Nsg10
S'i46'
p656
sg12
Nsg13
Nsg14
(lp657
(i__main__
Token
p658
(dp659
g18
I286
sba(i__main__
Token
p660
(dp661
g18
I287
sba(i__main__
Token
p662
(dp663
g18
I288
sba(i__main__
Token
p664
(dp665
g18
I289
sba(i__main__
Token
p666
(dp667
g18
I290
sba(i__main__
Token
p668
(dp669
g18
I291
sba(i__main__
Token
p670
(dp671
g18
I292
sba(i__main__
Token
p672
(dp673
g18
I293
sba(i__main__
Token
p674
(dp675
g18
I294
sba(i__main__
Token
p676
(dp677
g18
I295
sba(i__main__
Token
p678
(dp679
g18
I296
sbasg21
I296
sba(i__main__
Mention
p680
(dp681
g7
S't19'
p682
sg9
S'Anaphora-E'
p683
sg10
S'i48'
p684
sg12
S'i46'
p685
sg13
Nsg14
(lp686
(i__main__
Token
p687
(dp688
g18
I298
sbasg21
I298
sbasg7
g655
sg66
Nsba(i__main__
Chain
p689
(dp690
g3
(lp691
(i__main__
Mention
p692
(dp693
g7
S't20'
p694
sg9
Nsg10
S'i52'
p695
sg12
Nsg13
Nsg14
(lp696
(i__main__
Token
p697
(dp698
g18
I331
sba(i__main__
Token
p699
(dp700
g18
I332
sba(i__main__
Token
p701
(dp702
g18
I333
sba(i__main__
Token
p703
(dp704
g18
I334
sbasg21
I333
sba(i__main__
Mention
p705
(dp706
g7
S't20'
p707
sg9
S'Anaphora-C'
p708
sg10
S'i53'
p709
sg12
S'i52'
p710
sg13
Nsg14
(lp711
(i__main__
Token
p712
(dp713
g18
I335
sbasg21
I335
sba(i__main__
Mention
p714
(dp715
g7
S't20'
p716
sg9
S'Anaphora-C'
p717
sg10
S'i54'
p718
sg12
S'i53'
p719
sg13
Nsg14
(lp720
(i__main__
Token
p721
(dp722
g18
I349
sbasg21
I349
sbasg7
g694
sg66
Nsba(i__main__
Chain
p723
(dp724
g3
(lp725
(i__main__
Mention
p726
(dp727
g7
S't21'
p728
sg9
Nsg10
S'i57'
p729
sg12
Nsg13
Nsg14
(lp730
(i__main__
Token
p731
(dp732
g18
I379
sba(i__main__
Token
p733
(dp734
g18
I380
sba(i__main__
Token
p735
(dp736
g18
I381
sba(i__main__
Token
p737
(dp738
g18
I382
sba(i__main__
Token
p739
(dp740
g18
I383
sba(i__main__
Token
p741
(dp742
g18
I384
sba(i__main__
Token
p743
(dp744
g18
I385
sba(i__main__
Token
p745
(dp746
g18
I386
sba(i__main__
Token
p747
(dp748
g18
I387
sba(i__main__
Token
p749
(dp750
g18
I388
sba(i__main__
Token
p751
(dp752
g18
I389
sba(i__main__
Token
p753
(dp754
g18
I390
sba(i__main__
Token
p755
(dp756
g18
I391
sba(i__main__
Token
p757
(dp758
g18
I392
sba(i__main__
Token
p759
(dp760
g18
I393
sbasg21
I390
sba(i__main__
Mention
p761
(dp762
g7
S't21'
p763
sg9
S'Anaphora-C'
p764
sg10
S'i58'
p765
sg12
S'i57'
p766
sg13
Nsg14
(lp767
(i__main__
Token
p768
(dp769
g18
I395
sbasg21
I395
sbasg7
g728
sg66
Nsba(i__main__
Chain
p770
(dp771
g3
(lp772
(i__main__
Mention
p773
(dp774
g7
S't22'
p775
sg9
Nsg10
S'i60'
p776
sg12
Nsg13
Nsg14
(lp777
(i__main__
Token
p778
(dp779
g18
I406
sba(i__main__
Token
p780
(dp781
g18
I407
sba(i__main__
Token
p782
(dp783
g18
I408
sba(i__main__
Token
p784
(dp785
g18
I409
sba(i__main__
Token
p786
(dp787
g18
I410
sba(i__main__
Token
p788
(dp789
g18
I411
sba(i__main__
Token
p790
(dp791
g18
I412
sba(i__main__
Token
p792
(dp793
g18
I413
sba(i__main__
Token
p794
(dp795
g18
I414
sba(i__main__
Token
p796
(dp797
g18
I415
sbasg21
I415
sba(i__main__
Mention
p798
(dp799
g7
S't22'
p800
sg9
S'Anaphora-C'
p801
sg10
S'i61'
p802
sg12
S'i60'
p803
sg13
Nsg14
(lp804
(i__main__
Token
p805
(dp806
g18
I417
sbasg21
I417
sbasg7
g775
sg66
Nsba(i__main__
Chain
p807
(dp808
g3
(lp809
(i__main__
Mention
p810
(dp811
g7
S't23'
p812
sg9
Nsg10
S'i62'
p813
sg12
Nsg13
Nsg14
(lp814
(i__main__
Token
p815
(dp816
g18
I423
sba(i__main__
Token
p817
(dp818
g18
I424
sbasg21
Nsba(i__main__
Mention
p819
(dp820
g7
S't23'
p821
sg9
S'Coreference-PartOf'
p822
sg10
S'i74'
p823
sg12
S'i62'
p824
sg13
Nsg14
(lp825
(i__main__
Token
p826
(dp827
g18
I437
sba(i__main__
Token
p828
(dp829
g18
I438
sba(i__main__
Token
p830
(dp831
g18
I439
sba(i__main__
Token
p832
(dp833
g18
I440
sba(i__main__
Token
p834
(dp835
g18
I441
sbasg21
I441
sbasg7
g812
sg66
Nsba(i__main__
Chain
p836
(dp837
g3
(lp838
(i__main__
Mention
p839
(dp840
g7
S't24'
p841
sg9
Nsg10
S'i63'
p842
sg12
Nsg13
Nsg14
(lp843
(i__main__
Token
p844
(dp845
g18
I423
sba(i__main__
Token
p846
(dp847
g18
I424
sbasg21
Nsba(i__main__
Mention
p848
(dp849
g7
S't24'
p850
sg9
S'Coreference-PartOf'
p851
sg10
S'i82'
p852
sg12
S'i63'
p853
sg13
Nsg14
(lp854
(i__main__
Token
p855
(dp856
g18
I466
sba(i__main__
Token
p857
(dp858
g18
I467
sba(i__main__
Token
p859
(dp860
g18
I468
sba(i__main__
Token
p861
(dp862
g18
I469
sba(i__main__
Token
p863
(dp864
g18
I470
sbasg21
I470
sbasg7
g841
sg66
Nsba(i__main__
Chain
p865
(dp866
g3
(lp867
(i__main__
Mention
p868
(dp869
g7
S't25'
p870
sg9
Nsg10
S'i64'
p871
sg12
Nsg13
Nsg14
(lp872
(i__main__
Token
p873
(dp874
g18
I423
sba(i__main__
Token
p875
(dp876
g18
I424
sbasg21
Nsba(i__main__
Mention
p877
(dp878
g7
S't25'
p879
sg9
S'Coreference-PartOf'
p880
sg10
S'i80'
p881
sg12
S'i64'
p882
sg13
Nsg14
(lp883
(i__main__
Token
p884
(dp885
g18
I460
sba(i__main__
Token
p886
(dp887
g18
I461
sba(i__main__
Token
p888
(dp889
g18
I462
sba(i__main__
Token
p890
(dp891
g18
I463
sba(i__main__
Token
p892
(dp893
g18
I464
sbasg21
I464
sbasg7
g870
sg66
Nsba(i__main__
Chain
p894
(dp895
g3
(lp896
(i__main__
Mention
p897
(dp898
g7
S't26'
p899
sg9
Nsg10
S'i65'
p900
sg12
Nsg13
Nsg14
(lp901
(i__main__
Token
p902
(dp903
g18
I423
sba(i__main__
Token
p904
(dp905
g18
I424
sbasg21
Nsba(i__main__
Mention
p906
(dp907
g7
S't26'
p908
sg9
S'Coreference-PartOf'
p909
sg10
S'i78'
p910
sg12
S'i65'
p911
sg13
Nsg14
(lp912
(i__main__
Token
p913
(dp914
g18
I454
sba(i__main__
Token
p915
(dp916
g18
I455
sba(i__main__
Token
p917
(dp918
g18
I456
sba(i__main__
Token
p919
(dp920
g18
I457
sba(i__main__
Token
p921
(dp922
g18
I458
sbasg21
I458
sbasg7
g899
sg66
Nsba(i__main__
Chain
p923
(dp924
g3
(lp925
(i__main__
Mention
p926
(dp927
g7
S't27'
p928
sg9
Nsg10
S'i66'
p929
sg12
Nsg13
Nsg14
(lp930
(i__main__
Token
p931
(dp932
g18
I423
sba(i__main__
Token
p933
(dp934
g18
I424
sbasg21
Nsba(i__main__
Mention
p935
(dp936
g7
S't27'
p937
sg9
S'Coreference-PartOf'
p938
sg10
S'i77'
p939
sg12
S'i66'
p940
sg13
Nsg14
(lp941
(i__main__
Token
p942
(dp943
g18
I448
sba(i__main__
Token
p944
(dp945
g18
I449
sba(i__main__
Token
p946
(dp947
g18
I450
sba(i__main__
Token
p948
(dp949
g18
I451
sba(i__main__
Token
p950
(dp951
g18
I452
sbasg21
I452
sbasg7
g928
sg66
Nsba(i__main__
Chain
p952
(dp953
g3
(lp954
(i__main__
Mention
p955
(dp956
g7
S't28'
p957
sg9
Nsg10
S'i67'
p958
sg12
Nsg13
Nsg14
(lp959
(i__main__
Token
p960
(dp961
g18
I423
sba(i__main__
Token
p962
(dp963
g18
I424
sbasg21
Nsba(i__main__
Mention
p964
(dp965
g7
S't28'
p966
sg9
S'Coreference-PartOf'
p967
sg10
S'i75'
p968
sg12
S'i67'
p969
sg13
Nsg14
(lp970
(i__main__
Token
p971
(dp972
g18
I443
sba(i__main__
Token
p973
(dp974
g18
I444
sba(i__main__
Token
p975
(dp976
g18
I445
sba(i__main__
Token
p977
(dp978
g18
I446
sbasg21
I446
sbasg7
g957
sg66
Nsba(i__main__
Chain
p979
(dp980
g3
(lp981
(i__main__
Mention
p982
(dp983
g7
S't29'
p984
sg9
Nsg10
S'i68'
p985
sg12
Nsg13
Nsg14
(lp986
(i__main__
Token
p987
(dp988
g18
I423
sba(i__main__
Token
p989
(dp990
g18
I424
sbasg21
Nsba(i__main__
Mention
p991
(dp992
g7
S't29'
p993
sg9
S'Coreference-PartOf'
p994
sg10
S'i72'
p995
sg12
S'i68'
p996
sg13
Nsg14
(lp997
(i__main__
Token
p998
(dp999
g18
I434
sba(i__main__
Token
p1000
(dp1001
g18
I435
sbasg21
I435
sbasg7
g984
sg66
Nsba(i__main__
Chain
p1002
(dp1003
g3
(lp1004
(i__main__
Mention
p1005
(dp1006
g7
S't30'
p1007
sg9
Nsg10
S'i69'
p1008
sg12
Nsg13
Nsg14
(lp1009
(i__main__
Token
p1010
(dp1011
g18
I423
sba(i__main__
Token
p1012
(dp1013
g18
I424
sbasg21
Nsba(i__main__
Mention
p1014
(dp1015
g7
S't30'
p1016
sg9
S'Anaphora-C'
p1017
sg10
S'i70'
p1018
sg12
S'i69'
p1019
sg13
Nsg14
(lp1020
(i__main__
Token
p1021
(dp1022
g18
I430
sbasg21
I430
sbasg7
g1007
sg66
Nsba.