(lp0
(i__main__
Chain
p1
(dp2
S'mentionList'
p3
(lp4
(i__main__
Mention
p5
(dp6
S'chainId'
p7
S't1'
p8
sS'relType'
p9
NsS'mentionId'
p10
S'i1'
p11
sS'antecedentId'
p12
NsS'crefMod'
p13
NsS'tokenList'
p14
(lp15
(i__main__
Token
p16
(dp17
S'tokenId'
p18
I0
sba(i__main__
Token
p19
(dp20
g18
I1
sba(i__main__
Token
p21
(dp22
g18
I2
sbasS'mentionHead'
p23
I2
sba(i__main__
Mention
p24
(dp25
g7
S't1'
p26
sg9
S'Coreference-Identity'
p27
sg10
S'i10'
p28
sg12
S'i1'
p29
sg13
Nsg14
(lp30
(i__main__
Token
p31
(dp32
g18
I31
sbasg23
I31
sba(i__main__
Mention
p33
(dp34
g7
S't1'
p35
sg9
S'Coreference-Identity'
p36
sg10
S'i15'
p37
sg12
S'i10'
p38
sg13
Nsg14
(lp39
(i__main__
Token
p40
(dp41
g18
I49
sbasg23
I49
sba(i__main__
Mention
p42
(dp43
g7
S't1'
p44
sg9
S'Coreference-Identity'
p45
sg10
S'i21'
p46
sg12
S'i15'
p47
sg13
Nsg14
(lp48
(i__main__
Token
p49
(dp50
g18
I72
sbasg23
I72
sbasg7
g8
sS'chainHead'
p51
Nsba(i__main__
Chain
p52
(dp53
g3
(lp54
(i__main__
Mention
p55
(dp56
g7
S't2'
p57
sg9
Nsg10
S'i2'
p58
sg12
Nsg13
Nsg14
(lp59
(i__main__
Token
p60
(dp61
g18
I4
sba(i__main__
Token
p62
(dp63
g18
I5
sbasg23
I5
sba(i__main__
Mention
p64
(dp65
g7
S't2'
p66
sg9
S'Coreference-NounComplement'
p67
sg10
S'i4'
p68
sg12
S'i2'
p69
sg13
Nsg14
(lp70
(i__main__
Token
p71
(dp72
g18
I6
sba(i__main__
Token
p73
(dp74
g18
I7
sbasg23
I7
sba(i__main__
Mention
p75
(dp76
g7
S't2'
p77
sg9
S'Coreference-Identity'
p78
sg10
S'i12'
p79
sg12
S'i4'
p80
sg13
Nsg14
(lp81
(i__main__
Token
p82
(dp83
g18
I39
sbasg23
I39
sba(i__main__
Mention
p84
(dp85
g7
S't2'
p86
sg9
S'Coreference-Identity'
p87
sg10
S'i22'
p88
sg12
S'i12'
p89
sg13
Nsg14
(lp90
(i__main__
Token
p91
(dp92
g18
I74
sbasg23
I74
sba(i__main__
Mention
p93
(dp94
g7
S't2'
p95
sg9
S'Coreference-Identity'
p96
sg10
S'i25'
p97
sg12
S'i22'
p98
sg13
Nsg14
(lp99
(i__main__
Token
p100
(dp101
g18
I90
sbasg23
I90
sba(i__main__
Mention
p102
(dp103
g7
S't2'
p104
sg9
S'Anaphora-C'
p105
sg10
S'i26'
p106
sg12
S'i25'
p107
sg13
Nsg14
(lp108
(i__main__
Token
p109
(dp110
g18
I92
sbasg23
I92
sba(i__main__
Mention
p111
(dp112
g7
S't2'
p113
sg9
S'Anaphora-C'
p114
sg10
S'i29'
p115
sg12
S'i26'
p116
sg13
Nsg14
(lp117
(i__main__
Token
p118
(dp119
g18
I113
sbasg23
I113
sba(i__main__
Mention
p120
(dp121
g7
S't2'
p122
sg9
S'Coreference-Identity'
p123
sg10
S'i33'
p124
sg12
S'i29'
p125
sg13
Nsg14
(lp126
(i__main__
Token
p127
(dp128
g18
I133
sbasg23
I133
sbasg7
g57
sg51
Nsba(i__main__
Chain
p129
(dp130
g3
(lp131
(i__main__
Mention
p132
(dp133
g7
S't3'
p134
sg9
Nsg10
S'i3'
p135
sg12
Nsg13
Nsg14
(lp136
(i__main__
Token
p137
(dp138
g18
I4
sbasg23
I4
sba(i__main__
Mention
p139
(dp140
g7
S't3'
p141
sg9
S'Coreference-Identity'
p142
sg10
S'i30'
p143
sg12
S'i3'
p144
sg13
Nsg14
(lp145
(i__main__
Token
p146
(dp147
g18
I114
sbasg23
I114
sba(i__main__
Mention
p148
(dp149
g7
S't3'
p150
sg9
S'Coreference-Identity'
p151
sg10
S'i35'
p152
sg12
S'i30'
p153
sg13
Nsg14
(lp154
(i__main__
Token
p155
(dp156
g18
I136
sbasg23
I136
sbasg7
g134
sg51
Nsba(i__main__
Chain
p157
(dp158
g3
(lp159
(i__main__
Mention
p160
(dp161
g7
S't4'
p162
sg9
Nsg10
S'i5'
p163
sg12
Nsg13
Nsg14
(lp164
(i__main__
Token
p165
(dp166
g18
I11
sbasg23
I11
sba(i__main__
Mention
p167
(dp168
g7
S't4'
p169
sg9
S'Coreference-Identity'
p170
sg10
S'i14'
p171
sg12
S'i5'
p172
sg13
Nsg14
(lp173
(i__main__
Token
p174
(dp175
g18
I46
sbasg23
I46
sba(i__main__
Mention
p176
(dp177
g7
S't4'
p178
sg9
S'Coreference-Identity'
p179
sg10
S'i19'
p180
sg12
S'i14'
p181
sg13
Nsg14
(lp182
(i__main__
Token
p183
(dp184
g18
I64
sbasg23
I64
sba(i__main__
Mention
p185
(dp186
g7
S't4'
p187
sg9
S'Coreference-Identity'
p188
sg10
S'i23'
p189
sg12
S'i19'
p190
sg13
Nsg14
(lp191
(i__main__
Token
p192
(dp193
g18
I76
sbasg23
I76
sbasg7
g162
sg51
Nsba(i__main__
Chain
p194
(dp195
g3
(lp196
(i__main__
Mention
p197
(dp198
g7
S't5'
p199
sg9
Nsg10
S'i6'
p200
sg12
Nsg13
Nsg14
(lp201
(i__main__
Token
p202
(dp203
g18
I20
sba(i__main__
Token
p204
(dp205
g18
I21
sbasg23
I21
sba(i__main__
Mention
p206
(dp207
g7
S't5'
p208
sg9
S'Coreference-Noun-Noun'
p209
sg10
S'i7'
p210
sg12
S'i6'
p211
sg13
Nsg14
(lp212
(i__main__
Token
p213
(dp214
g18
I23
sbasg23
I23
sba(i__main__
Mention
p215
(dp216
g7
S't5'
p217
sg9
S'Coreference-Identity'
p218
sg10
S'i31'
p219
sg12
S'i7'
p220
sg13
Nsg14
(lp221
(i__main__
Token
p222
(dp223
g18
I128
sbasg23
I128
sba(i__main__
Mention
p224
(dp225
g7
S't5'
p226
sg9
S'Anaphora-C'
p227
sg10
S'i34'
p228
sg12
S'i31'
p229
sg13
Nsg14
(lp230
(i__main__
Token
p231
(dp232
g18
I135
sbasg23
I135
sba(i__main__
Mention
p233
(dp234
g7
S't5'
p235
sg9
S'Anaphora-C'
p236
sg10
S'i36'
p237
sg12
S'i34'
p238
sg13
Nsg14
(lp239
(i__main__
Token
p240
(dp241
g18
I140
sbasg23
I140
sba(i__main__
Mention
p242
(dp243
g7
S't5'
p244
sg9
S'Anaphora-C'
p245
sg10
S'i37'
p246
sg12
S'i36'
p247
sg13
Nsg14
(lp248
(i__main__
Token
p249
(dp250
g18
I148
sbasg23
I148
sbasg7
g199
sg51
Nsba(i__main__
Chain
p251
(dp252
g3
(lp253
(i__main__
Mention
p254
(dp255
g7
S't6'
p256
sg9
Nsg10
S'i8'
p257
sg12
Nsg13
Nsg14
(lp258
(i__main__
Token
p259
(dp260
g18
I25
sbasg23
I25
sba(i__main__
Mention
p261
(dp262
g7
S't6'
p263
sg9
S'Coreference-Identity'
p264
sg10
S'i27'
p265
sg12
S'i8'
p266
sg13
Nsg14
(lp267
(i__main__
Token
p268
(dp269
g18
I96
sbasg23
I96
sbasg7
g256
sg51
Nsba(i__main__
Chain
p270
(dp271
g3
(lp272
(i__main__
Mention
p273
(dp274
g7
S't7'
p275
sg9
Nsg10
S'i9'
p276
sg12
Nsg13
Nsg14
(lp277
(i__main__
Token
p278
(dp279
g18
I27
sbasg23
I27
sba(i__main__
Mention
p280
(dp281
g7
S't7'
p282
sg9
S'Coreference-Identity'
p283
sg10
S'i28'
p284
sg12
S'i9'
p285
sg13
Nsg14
(lp286
(i__main__
Token
p287
(dp288
g18
I96
sba(i__main__
Token
p289
(dp290
g18
I97
sba(i__main__
Token
p291
(dp292
g18
I98
sba(i__main__
Token
p293
(dp294
g18
I99
sba(i__main__
Token
p295
(dp296
g18
I100
sba(i__main__
Token
p297
(dp298
g18
I101
sba(i__main__
Token
p299
(dp300
g18
I102
sba(i__main__
Token
p301
(dp302
g18
I103
sba(i__main__
Token
p303
(dp304
g18
I104
sba(i__main__
Token
p305
(dp306
g18
I105
sbasg23
I105
sba(i__main__
Mention
p307
(dp308
g7
S't7'
p309
sg9
S'Coreference-Identity'
p310
sg10
S'i32'
p311
sg12
S'i28'
p312
sg13
Nsg14
(lp313
(i__main__
Token
p314
(dp315
g18
I130
sbasg23
I130
sbasg7
g275
sg51
Nsba(i__main__
Chain
p316
(dp317
g3
(lp318
(i__main__
Mention
p319
(dp320
g7
S't8'
p321
sg9
Nsg10
S'i11'
p322
sg12
Nsg13
Nsg14
(lp323
(i__main__
Token
p324
(dp325
g18
I33
sbasg23
I33
sba(i__main__
Mention
p326
(dp327
g7
S't8'
p328
sg9
S'Coreference-Identity'
p329
sg10
S'i24'
p330
sg12
S'i11'
p331
sg13
Nsg14
(lp332
(i__main__
Token
p333
(dp334
g18
I84
sbasg23
I84
sbasg7
g321
sg51
Nsba(i__main__
Chain
p335
(dp336
g3
(lp337
(i__main__
Mention
p338
(dp339
g7
S't9'
p340
sg9
Nsg10
S'i13'
p341
sg12
Nsg13
Nsg14
(lp342
(i__main__
Token
p343
(dp344
g18
I44
sbasg23
I44
sba(i__main__
Mention
p345
(dp346
g7
S't9'
p347
sg9
S'Anaphora-C'
p348
sg10
S'i16'
p349
sg12
S'i13'
p350
sg13
Nsg14
(lp351
(i__main__
Token
p352
(dp353
g18
I59
sbasg23
I59
sbasg7
g340
sg51
Nsba(i__main__
Chain
p354
(dp355
g3
(lp356
(i__main__
Mention
p357
(dp358
g7
S't10'
p359
sg9
Nsg10
S'i17'
p360
sg12
Nsg13
Nsg14
(lp361
(i__main__
Token
p362
(dp363
g18
I61
sbasg23
I61
sba(i__main__
Mention
p364
(dp365
g7
S't10'
p366
sg9
S'Anaphora-C'
p367
sg10
S'i18'
p368
sg12
S'i17'
p369
sg13
Nsg14
(lp370
(i__main__
Token
p371
(dp372
g18
I63
sbasg23
I63
sbasg7
g359
sg51
Nsba(i__main__
Chain
p373
(dp374
g3
(lp375
(i__main__
Mention
p376
(dp377
g7
S't11'
p378
sg9
S'anaphora-?'
p379
sg10
S'i20'
p380
sg12
S'i20'
p381
sg13
Nsg14
(lp382
(i__main__
Token
p383
(dp384
g18
I70
sbasg23
I70
sbasg7
g378
sg51
Nsba.