(lp0
(i__main__
Chain
p1
(dp2
S'mentionList'
p3
(lp4
(i__main__
Mention
p5
(dp6
S'chainId'
p7
S't1'
p8
sS'relType'
p9
NsS'mentionId'
p10
S'i1'
p11
sS'antecedentId'
p12
NsS'crefMod'
p13
NsS'tokenList'
p14
(lp15
(i__main__
Token
p16
(dp17
S'tokenId'
p18
I0
sbasS'mentionHead'
p19
I0
sba(i__main__
Mention
p20
(dp21
g7
S't1'
p22
sg9
S'Coreference-Identity'
p23
sg10
S'i7'
p24
sg12
S'i1'
p25
sg13
Nsg14
(lp26
(i__main__
Token
p27
(dp28
g18
I31
sbasg19
I31
sba(i__main__
Mention
p29
(dp30
g7
S't1'
p31
sg9
S'Coreference-Identity'
p32
sg10
S'i25'
p33
sg12
S'i7'
p34
sg13
Nsg14
(lp35
(i__main__
Token
p36
(dp37
g18
I98
sbasg19
I98
sba(i__main__
Mention
p38
(dp39
g7
S't1'
p40
sg9
S'Coreference-Identity'
p41
sg10
S'i26'
p42
sg12
S'i25'
p43
sg13
Nsg14
(lp44
(i__main__
Token
p45
(dp46
g18
I105
sbasg19
I105
sba(i__main__
Mention
p47
(dp48
g7
S't1'
p49
sg9
S'Coreference-Identity'
p50
sg10
S'i29'
p51
sg12
S'i26'
p52
sg13
Nsg14
(lp53
(i__main__
Token
p54
(dp55
g18
I139
sbasg19
I139
sbasg7
g8
sS'chainHead'
p56
Nsba(i__main__
Chain
p57
(dp58
g3
(lp59
(i__main__
Mention
p60
(dp61
g7
S't2'
p62
sg9
Nsg10
S'i2'
p63
sg12
Nsg13
Nsg14
(lp64
(i__main__
Token
p65
(dp66
g18
I2
sbasg19
I2
sba(i__main__
Mention
p67
(dp68
g7
S't2'
p69
sg9
S'Coreference-PartOf'
p70
sg10
S'i10'
p71
sg12
S'i2'
p72
sg13
Nsg14
(lp73
(i__main__
Token
p74
(dp75
g18
I42
sba(i__main__
Token
p76
(dp77
g18
I43
sba(i__main__
Token
p78
(dp79
g18
I44
sbasg19
I44
sba(i__main__
Mention
p80
(dp81
g7
S't2'
p82
sg9
S'Coreference-RPartOf'
p83
sg10
S'i15'
p84
sg12
S'i10'
p85
sg13
Nsg14
(lp86
(i__main__
Token
p87
(dp88
g18
I58
sbasg19
I58
sba(i__main__
Mention
p89
(dp90
g7
S't2'
p91
sg9
Nsg10
S'i22'
p92
sg12
Nsg13
Nsg14
(lp93
(i__main__
Token
p94
(dp95
g18
I88
sba(i__main__
Token
p96
(dp97
g18
I89
sba(i__main__
Token
p98
(dp99
g18
I90
sbasg19
Nsba(i__main__
Mention
p100
(dp101
g7
S't2'
p102
sg9
Nsg10
S'i24'
p103
sg12
Nsg13
Nsg14
(lp104
(i__main__
Token
p105
(dp106
g18
I91
sbasg19
Nsba(i__main__
Mention
p107
(dp108
g7
S't2'
p109
sg9
S'Coreference-RPartOf'
p110
sg10
S'i30'
p111
sg12
S'i24'
p112
sg13
Nsg14
(lp113
(i__main__
Token
p114
(dp115
g18
I142
sba(i__main__
Token
p116
(dp117
g18
I143
sbasg19
I143
sba(i__main__
Mention
p118
(dp119
g7
S't2'
p120
sg9
S'Coreference-RPartOf'
p121
sg10
S'i31'
p122
sg12
S'i30'
p123
sg13
Nsg14
(lp124
(i__main__
Token
p125
(dp126
g18
I152
sbasg19
I152
sba(i__main__
Mention
p127
(dp128
g7
S't2'
p129
sg9
S'Coreference-InferedRelation'
p130
sg10
S'i34'
p131
sg12
S'i31'
p132
sg13
Nsg14
(lp133
(i__main__
Token
p134
(dp135
g18
I165
sbasg19
I165
sbasg7
g62
sg56
Nsba(i__main__
Chain
p136
(dp137
g3
(lp138
(i__main__
Mention
p139
(dp140
g7
S't3'
p141
sg9
Nsg10
S'i3'
p142
sg12
Nsg13
Nsg14
(lp143
(i__main__
Token
p144
(dp145
g18
I5
sbasg19
I5
sba(i__main__
Mention
p146
(dp147
g7
S't3'
p148
sg9
S'Coreference-Identity'
p149
sg10
S'i16'
p150
sg12
S'i3'
p151
sg13
Nsg14
(lp152
(i__main__
Token
p153
(dp154
g18
I60
sbasg19
I60
sbasg7
g141
sg56
Nsba(i__main__
Chain
p155
(dp156
g3
(lp157
(i__main__
Mention
p158
(dp159
g7
S't4'
p160
sg9
Nsg10
S'i4'
p161
sg12
Nsg13
Nsg14
(lp162
(i__main__
Token
p163
(dp164
g18
I10
sba(i__main__
Token
p165
(dp166
g18
I11
sba(i__main__
Token
p167
(dp168
g18
I12
sbasg19
I12
sba(i__main__
Mention
p169
(dp170
g7
S't4'
p171
sg9
S'Coreference-Identity'
p172
sg10
S'i18'
p173
sg12
S'i4'
p174
sg13
Nsg14
(lp175
(i__main__
Token
p176
(dp177
g18
I65
sba(i__main__
Token
p178
(dp179
g18
I66
sba(i__main__
Token
p180
(dp181
g18
I67
sbasg19
I67
sbasg7
g160
sg56
Nsba(i__main__
Chain
p182
(dp183
g3
(lp184
(i__main__
Mention
p185
(dp186
g7
S't5'
p187
sg9
Nsg10
S'i5'
p188
sg12
Nsg13
Nsg14
(lp189
(i__main__
Token
p190
(dp191
g18
I14
sbasg19
I14
sba(i__main__
Mention
p192
(dp193
g7
S't5'
p194
sg9
S'Coreference-Identity'
p195
sg10
S'i11'
p196
sg12
S'i5'
p197
sg13
Nsg14
(lp198
(i__main__
Token
p199
(dp200
g18
I46
sbasg19
I46
sba(i__main__
Mention
p201
(dp202
g7
S't5'
p203
sg9
S'Coreference-Identity'
p204
sg10
S'i40'
p205
sg12
S'i11'
p206
sg13
Nsg14
(lp207
(i__main__
Token
p208
(dp209
g18
I227
sbasg19
I227
sbasg7
g187
sg56
Nsba(i__main__
Chain
p210
(dp211
g3
(lp212
(i__main__
Mention
p213
(dp214
g7
S't6'
p215
sg9
Nsg10
S'i6'
p216
sg12
Nsg13
Nsg14
(lp217
(i__main__
Token
p218
(dp219
g18
I19
sbasg19
I19
sba(i__main__
Mention
p220
(dp221
g7
S't6'
p222
sg9
S'Coreference-Identity'
p223
sg10
S'i33'
p224
sg12
S'i6'
p225
sg13
Nsg14
(lp226
(i__main__
Token
p227
(dp228
g18
I159
sbasg19
I159
sbasg7
g215
sg56
Nsba(i__main__
Chain
p229
(dp230
g3
(lp231
(i__main__
Mention
p232
(dp233
g7
S't7'
p234
sg9
Nsg10
S'i8'
p235
sg12
Nsg13
Nsg14
(lp236
(i__main__
Token
p237
(dp238
g18
I33
sbasg19
I33
sba(i__main__
Mention
p239
(dp240
g7
S't7'
p241
sg9
S'Coreference-Identity'
p242
sg10
S'i19'
p243
sg12
S'i8'
p244
sg13
Nsg14
(lp245
(i__main__
Token
p246
(dp247
g18
I73
sbasg19
I73
sba(i__main__
Mention
p248
(dp249
g7
S't7'
p250
sg9
S'Coreference-Identity'
p251
sg10
S'i27'
p252
sg12
S'i19'
p253
sg13
Nsg14
(lp254
(i__main__
Token
p255
(dp256
g18
I107
sbasg19
I107
sba(i__main__
Mention
p257
(dp258
g7
S't7'
p259
sg9
S'Coreference-Identity'
p260
sg10
S'i36'
p261
sg12
S'i27'
p262
sg13
Nsg14
(lp263
(i__main__
Token
p264
(dp265
g18
I196
sbasg19
I196
sbasg7
g234
sg56
Nsba(i__main__
Chain
p266
(dp267
g3
(lp268
(i__main__
Mention
p269
(dp270
g7
S't8'
p271
sg9
Nsg10
S'i9'
p272
sg12
Nsg13
Nsg14
(lp273
(i__main__
Token
p274
(dp275
g18
I42
sba(i__main__
Token
p276
(dp277
g18
I43
sba(i__main__
Token
p278
(dp279
g18
I44
sba(i__main__
Token
p280
(dp281
g18
I45
sba(i__main__
Token
p282
(dp283
g18
I46
sba(i__main__
Token
p284
(dp285
g18
I47
sba(i__main__
Token
p286
(dp287
g18
I48
sba(i__main__
Token
p288
(dp289
g18
I49
sba(i__main__
Token
p290
(dp291
g18
I50
sba(i__main__
Token
p292
(dp293
g18
I51
sba(i__main__
Token
p294
(dp295
g18
I52
sbasg19
I49
sba(i__main__
Mention
p296
(dp297
g7
S't8'
p298
sg9
S'Anaphora-E'
p299
sg10
S'i12'
p300
sg12
S'i9'
p301
sg13
Nsg14
(lp302
(i__main__
Token
p303
(dp304
g18
I54
sbasg19
I54
sbasg7
g271
sg56
Nsba(i__main__
Chain
p305
(dp306
g3
(lp307
(i__main__
Mention
p308
(dp309
g7
S't9'
p310
sg9
Nsg10
S'i13'
p311
sg12
Nsg13
Nsg14
(lp312
(i__main__
Token
p313
(dp314
g18
I57
sbasg19
I57
sba(i__main__
Mention
p315
(dp316
g7
S't9'
p317
sg9
S'Anaphora-RT'
p318
sg10
S'i14'
p319
sg12
S'i13'
p320
sg13
Nsg14
(lp321
(i__main__
Token
p322
(dp323
g18
I58
sba(i__main__
Token
p324
(dp325
g18
I59
sba(i__main__
Token
p326
(dp327
g18
I60
sba(i__main__
Token
p328
(dp329
g18
I61
sba(i__main__
Token
p330
(dp331
g18
I62
sba(i__main__
Token
p332
(dp333
g18
I63
sbasg19
I62
sbasg7
g310
sg56
Nsba(i__main__
Chain
p334
(dp335
g3
(lp336
(i__main__
Mention
p337
(dp338
g7
S't10'
p339
sg9
Nsg10
S'i17'
p340
sg12
Nsg13
Nsg14
(lp341
(i__main__
Token
p342
(dp343
g18
I64
sbasg19
I64
sbasg7
g339
sg56
Nsba(i__main__
Chain
p344
(dp345
g3
(lp346
(i__main__
Mention
p347
(dp348
g7
S't11'
p349
sg9
Nsg10
S'i20'
p350
sg12
Nsg13
Nsg14
(lp351
(i__main__
Token
p352
(dp353
g18
I78
sbasg19
I78
sbasg7
g349
sg56
Nsba(i__main__
Chain
p354
(dp355
g3
(lp356
(i__main__
Mention
p357
(dp358
g7
S't12'
p359
sg9
Nsg10
S'i21'
p360
sg12
Nsg13
Nsg14
(lp361
(i__main__
Token
p362
(dp363
g18
I88
sba(i__main__
Token
p364
(dp365
g18
I89
sba(i__main__
Token
p366
(dp367
g18
I90
sbasg19
Nsba(i__main__
Mention
p368
(dp369
g7
S't12'
p370
sg9
Nsg10
S'i23'
p371
sg12
Nsg13
Nsg14
(lp372
(i__main__
Token
p373
(dp374
g18
I91
sbasg19
Nsbasg7
g359
sg56
Nsba(i__main__
Chain
p375
(dp376
g3
(lp377
(i__main__
Mention
p378
(dp379
g7
S't13'
p380
sg9
Nsg10
S'i28'
p381
sg12
Nsg13
Nsg14
(lp382
(i__main__
Token
p383
(dp384
g18
I121
sbasg19
I121
sba(i__main__
Mention
p385
(dp386
g7
S't13'
p387
sg9
S'Coreference-Identity'
p388
sg10
S'i39'
p389
sg12
S'i28'
p390
sg13
Nsg14
(lp391
(i__main__
Token
p392
(dp393
g18
I204
sbasg19
I204
sbasg7
g380
sg56
Nsba(i__main__
Chain
p394
(dp395
g3
(lp396
(i__main__
Mention
p397
(dp398
g7
S't14'
p399
sg9
Nsg10
S'i37'
p400
sg12
Nsg13
Nsg14
(lp401
(i__main__
Token
p402
(dp403
g18
I199
sbasg19
I199
sba(i__main__
Mention
p404
(dp405
g7
S't14'
p406
sg9
S'Coreference-NounComplement'
p407
sg10
S'i38'
p408
sg12
S'i37'
p409
sg13
Nsg14
(lp410
(i__main__
Token
p411
(dp412
g18
I200
sba(i__main__
Token
p413
(dp414
g18
I201
sbasg19
I201
sbasg7
g399
sg56
Nsba.