(lp0
(i__main__
Chain
p1
(dp2
S'mentionList'
p3
(lp4
(i__main__
Mention
p5
(dp6
S'chainId'
p7
S't1'
p8
sS'relType'
p9
NsS'mentionId'
p10
S'i1'
p11
sS'antecedentId'
p12
NsS'crefMod'
p13
NsS'tokenList'
p14
(lp15
(i__main__
Token
p16
(dp17
S'tokenId'
p18
I9
sba(i__main__
Token
p19
(dp20
g18
I10
sba(i__main__
Token
p21
(dp22
g18
I11
sba(i__main__
Token
p23
(dp24
g18
I12
sba(i__main__
Token
p25
(dp26
g18
I13
sbasS'mentionHead'
p27
I13
sba(i__main__
Mention
p28
(dp29
g7
S't1'
p30
sg9
S'Coreference-Identity'
p31
sg10
S'i20'
p32
sg12
S'i1'
p33
sg13
Nsg14
(lp34
(i__main__
Token
p35
(dp36
g18
I107
sba(i__main__
Token
p37
(dp38
g18
I108
sba(i__main__
Token
p39
(dp40
g18
I109
sba(i__main__
Token
p41
(dp42
g18
I110
sbasg27
I110
sbasg7
g8
sS'chainHead'
p43
Nsba(i__main__
Chain
p44
(dp45
g3
(lp46
(i__main__
Mention
p47
(dp48
g7
S't2'
p49
sg9
Nsg10
S'i2'
p50
sg12
Nsg13
Nsg14
(lp51
(i__main__
Token
p52
(dp53
g18
I9
sba(i__main__
Token
p54
(dp55
g18
I10
sbasg27
I10
sba(i__main__
Mention
p56
(dp57
g7
S't2'
p58
sg9
S'Coreference-InferedRelation'
p59
sg10
S'i3'
p60
sg12
S'i2'
p61
sg13
Nsg14
(lp62
(i__main__
Token
p63
(dp64
g18
I22
sba(i__main__
Token
p65
(dp66
g18
I23
sbasg27
I23
sba(i__main__
Mention
p67
(dp68
g7
S't2'
p69
sg9
S'Coreference-InferedRelation'
p70
sg10
S'i5'
p71
sg12
S'i3'
p72
sg13
Nsg14
(lp73
(i__main__
Token
p74
(dp75
g18
I42
sba(i__main__
Token
p76
(dp77
g18
I43
sbasg27
I43
sba(i__main__
Mention
p78
(dp79
g7
S't2'
p80
sg9
S'Coreference-InferedRelation'
p81
sg10
S'i19'
p82
sg12
S'i5'
p83
sg13
Nsg14
(lp84
(i__main__
Token
p85
(dp86
g18
I107
sbasg27
I107
sba(i__main__
Mention
p87
(dp88
g7
S't2'
p89
sg9
S'Coreference-Identity'
p90
sg10
S'i51'
p91
sg12
S'i19'
p92
sg13
Nsg14
(lp93
(i__main__
Token
p94
(dp95
g18
I337
sbasg27
I337
sba(i__main__
Mention
p96
(dp97
g7
S't2'
p98
sg9
S'Coreference-Identity'
p99
sg10
S'i69'
p100
sg12
S'i51'
p101
sg13
Nsg14
(lp102
(i__main__
Token
p103
(dp104
g18
I456
sbasg27
I456
sba(i__main__
Mention
p105
(dp106
g7
S't2'
p107
sg9
S'Coreference-InferedRelation'
p108
sg10
S'i70'
p109
sg12
S'i69'
p110
sg13
Nsg14
(lp111
(i__main__
Token
p112
(dp113
g18
I462
sbasg27
I462
sba(i__main__
Mention
p114
(dp115
g7
S't2'
p116
sg9
S'Coreference-InferedRelation'
p117
sg10
S'i80'
p118
sg12
S'i70'
p119
sg13
Nsg14
(lp120
(i__main__
Token
p121
(dp122
g18
I506
sbasg27
I506
sba(i__main__
Mention
p123
(dp124
g7
S't2'
p125
sg9
S'Coreference-InferedRelation'
p126
sg10
S'i87'
p127
sg12
S'i80'
p128
sg13
Nsg14
(lp129
(i__main__
Token
p130
(dp131
g18
I579
sbasg27
I579
sba(i__main__
Mention
p132
(dp133
g7
S't2'
p134
sg9
S'Coreference-Identity'
p135
sg10
S'i98'
p136
sg12
S'i87'
p137
sg13
Nsg14
(lp138
(i__main__
Token
p139
(dp140
g18
I645
sbasg27
I645
sbasg7
g49
sg43
Nsba(i__main__
Chain
p141
(dp142
g3
(lp143
(i__main__
Mention
p144
(dp145
g7
S't3'
p146
sg9
Nsg10
S'i4'
p147
sg12
Nsg13
Nsg14
(lp148
(i__main__
Token
p149
(dp150
g18
I22
sba(i__main__
Token
p151
(dp152
g18
I23
sba(i__main__
Token
p153
(dp154
g18
I24
sba(i__main__
Token
p155
(dp156
g18
I25
sba(i__main__
Token
p157
(dp158
g18
I26
sba(i__main__
Token
p159
(dp160
g18
I27
sba(i__main__
Token
p161
(dp162
g18
I28
sbasg27
I28
sba(i__main__
Mention
p163
(dp164
g7
S't3'
p165
sg9
S'Anaphora-C'
p166
sg10
S'i8'
p167
sg12
S'i4'
p168
sg13
Nsg14
(lp169
(i__main__
Token
p170
(dp171
g18
I51
sbasg27
I51
sba(i__main__
Mention
p172
(dp173
g7
S't3'
p174
sg9
S'Anaphora-C'
p175
sg10
S'i11'
p176
sg12
S'i8'
p177
sg13
Nsg14
(lp178
(i__main__
Token
p179
(dp180
g18
I62
sbasg27
I62
sba(i__main__
Mention
p181
(dp182
g7
S't3'
p183
sg9
S'Anaphora-C'
p184
sg10
S'i14'
p185
sg12
S'i11'
p186
sg13
Nsg14
(lp187
(i__main__
Token
p188
(dp189
g18
I71
sbasg27
I71
sba(i__main__
Mention
p190
(dp191
g7
S't3'
p192
sg9
S'Coreference-Identity'
p193
sg10
S'i71'
p194
sg12
S'i14'
p195
sg13
Nsg14
(lp196
(i__main__
Token
p197
(dp198
g18
I462
sba(i__main__
Token
p199
(dp200
g18
I463
sba(i__main__
Token
p201
(dp202
g18
I464
sba(i__main__
Token
p203
(dp204
g18
I465
sba(i__main__
Token
p205
(dp206
g18
I466
sbasg27
I466
sba(i__main__
Mention
p207
(dp208
g7
S't3'
p209
sg9
S'Anaphora-C'
p210
sg10
S'i74'
p211
sg12
S'i71'
p212
sg13
Nsg14
(lp213
(i__main__
Token
p214
(dp215
g18
I484
sbasg27
I484
sba(i__main__
Mention
p216
(dp217
g7
S't3'
p218
sg9
S'Anaphora-C'
p219
sg10
S'i78'
p220
sg12
S'i74'
p221
sg13
Nsg14
(lp222
(i__main__
Token
p223
(dp224
g18
I494
sbasg27
I494
sbasg7
g146
sg43
Nsba(i__main__
Chain
p225
(dp226
g3
(lp227
(i__main__
Mention
p228
(dp229
g7
S't4'
p230
sg9
Nsg10
S'i6'
p231
sg12
Nsg13
Nsg14
(lp232
(i__main__
Token
p233
(dp234
g18
I46
sbasg27
I46
sbasg7
g230
sg43
Nsba(i__main__
Chain
p235
(dp236
g3
(lp237
(i__main__
Mention
p238
(dp239
g7
S't5'
p240
sg9
Nsg10
S'i7'
p241
sg12
Nsg13
Nsg14
(lp242
(i__main__
Token
p243
(dp244
g18
I50
sbasg27
I50
sbasg7
g240
sg43
Nsba(i__main__
Chain
p245
(dp246
g3
(lp247
(i__main__
Mention
p248
(dp249
g7
S't6'
p250
sg9
Nsg10
S'i9'
p251
sg12
Nsg13
Nsg14
(lp252
(i__main__
Token
p253
(dp254
g18
I52
sba(i__main__
Token
p255
(dp256
g18
I53
sba(i__main__
Token
p257
(dp258
g18
I54
sba(i__main__
Token
p259
(dp260
g18
I55
sba(i__main__
Token
p261
(dp262
g18
I56
sba(i__main__
Token
p263
(dp264
g18
I57
sba(i__main__
Token
p265
(dp266
g18
I58
sbasg27
I57
sba(i__main__
Mention
p267
(dp268
g7
S't6'
p269
sg9
S'Anaphora-C'
p270
sg10
S'i10'
p271
sg12
S'i9'
p272
sg13
Nsg14
(lp273
(i__main__
Token
p274
(dp275
g18
I60
sbasg27
I60
sbasg7
g250
sg43
Nsba(i__main__
Chain
p276
(dp277
g3
(lp278
(i__main__
Mention
p279
(dp280
g7
S't7'
p281
sg9
Nsg10
S'i12'
p282
sg12
Nsg13
Nsg14
(lp283
(i__main__
Token
p284
(dp285
g18
I68
sbasg27
I68
sba(i__main__
Mention
p286
(dp287
g7
S't7'
p288
sg9
S'Coreference-NounComplement'
p289
sg10
S'i13'
p290
sg12
S'i12'
p291
sg13
Nsg14
(lp292
(i__main__
Token
p293
(dp294
g18
I69
sba(i__main__
Token
p295
(dp296
g18
I70
sbasg27
I70
sba(i__main__
Mention
p297
(dp298
g7
S't7'
p299
sg9
S'Coreference-Noun-Noun'
p300
sg10
S'i15'
p301
sg12
S'i13'
p302
sg13
Nsg14
(lp303
(i__main__
Token
p304
(dp305
g18
I78
sbasg27
I78
sba(i__main__
Mention
p306
(dp307
g7
S't7'
p308
sg9
S'Anaphora-C'
p309
sg10
S'i16'
p310
sg12
S'i15'
p311
sg13
Nsg14
(lp312
(i__main__
Token
p313
(dp314
g18
I85
sbasg27
I85
sba(i__main__
Mention
p315
(dp316
g7
S't7'
p317
sg9
S'Anaphora-C'
p318
sg10
S'i17'
p319
sg12
S'i16'
p320
sg13
Nsg14
(lp321
(i__main__
Token
p322
(dp323
g18
I99
sbasg27
I99
sba(i__main__
Mention
p324
(dp325
g7
S't7'
p326
sg9
S'Coreference-Abbreviation'
p327
sg10
S'i18'
p328
sg12
S'i17'
p329
sg13
Nsg14
(lp330
(i__main__
Token
p331
(dp332
g18
I106
sbasg27
I106
sba(i__main__
Mention
p333
(dp334
g7
S't7'
p335
sg9
S'Anaphora-C'
p336
sg10
S'i22'
p337
sg12
S'i18'
p338
sg13
Nsg14
(lp339
(i__main__
Token
p340
(dp341
g18
I125
sbasg27
I125
sba(i__main__
Mention
p342
(dp343
g7
S't7'
p344
sg9
S'Anaphora-C'
p345
sg10
S'i26'
p346
sg12
S'i22'
p347
sg13
Nsg14
(lp348
(i__main__
Token
p349
(dp350
g18
I143
sbasg27
I143
sba(i__main__
Mention
p351
(dp352
g7
S't7'
p353
sg9
S'Coreference-RAbbreviation'
p354
sg10
S'i62'
p355
sg12
S'i26'
p356
sg13
Nsg14
(lp357
(i__main__
Token
p358
(dp359
g18
I414
sbasg27
I414
sba(i__main__
Mention
p360
(dp361
g7
S't7'
p362
sg9
S'Coreference-Identity'
p363
sg10
S'i65'
p364
sg12
S'i62'
p365
sg13
Nsg14
(lp366
(i__main__
Token
p367
(dp368
g18
I429
sbasg27
I429
sba(i__main__
Mention
p369
(dp370
g7
S't7'
p371
sg9
S'Coreference-Noun-Noun'
p372
sg10
S'i68'
p373
sg12
S'i65'
p374
sg13
Nsg14
(lp375
(i__main__
Token
p376
(dp377
g18
I447
sba(i__main__
Token
p378
(dp379
g18
I448
sbasg27
I448
sba(i__main__
Mention
p380
(dp381
g7
S't7'
p382
sg9
S'Coreference-Noun-Noun'
p383
sg10
S'i72'
p384
sg12
S'i68'
p385
sg13
Nsg14
(lp386
(i__main__
Token
p387
(dp388
g18
I473
sbasg27
I473
sba(i__main__
Mention
p389
(dp390
g7
S't7'
p391
sg9
S'Anaphora-C'
p392
sg10
S'i75'
p393
sg12
S'i72'
p394
sg13
Nsg14
(lp395
(i__main__
Token
p396
(dp397
g18
I488
sbasg27
I488
sba(i__main__
Mention
p398
(dp399
g7
S't7'
p400
sg9
S'Anaphora-C'
p401
sg10
S'i79'
p402
sg12
S'i75'
p403
sg13
Nsg14
(lp404
(i__main__
Token
p405
(dp406
g18
I503
sbasg27
I503
sba(i__main__
Mention
p407
(dp408
g7
S't7'
p409
sg9
S'Coreference-Identity'
p410
sg10
S'i81'
p411
sg12
S'i79'
p412
sg13
Nsg14
(lp413
(i__main__
Token
p414
(dp415
g18
I514
sbasg27
I514
sba(i__main__
Mention
p416
(dp417
g7
S't7'
p418
sg9
S'Coreference-Identity'
p419
sg10
S'i82'
p420
sg12
S'i81'
p421
sg13
Nsg14
(lp422
(i__main__
Token
p423
(dp424
g18
I526
sbasg27
I526
sba(i__main__
Mention
p425
(dp426
g7
S't7'
p427
sg9
S'Coreference-Abbreviation'
p428
sg10
S'i85'
p429
sg12
S'i82'
p430
sg13
Nsg14
(lp431
(i__main__
Token
p432
(dp433
g18
I548
sbasg27
I548
sba(i__main__
Mention
p434
(dp435
g7
S't7'
p436
sg9
S'Coreference-Noun-Noun'
p437
sg10
S'i86'
p438
sg12
S'i85'
p439
sg13
Nsg14
(lp440
(i__main__
Token
p441
(dp442
g18
I570
sba(i__main__
Token
p443
(dp444
g18
I571
sbasg27
I571
sba(i__main__
Mention
p445
(dp446
g7
S't7'
p447
sg9
S'Anaphora-C'
p448
sg10
S'i90'
p449
sg12
S'i86'
p450
sg13
Nsg14
(lp451
(i__main__
Token
p452
(dp453
g18
I593
sbasg27
I593
sba(i__main__
Mention
p454
(dp455
g7
S't7'
p456
sg9
S'Coreference-Noun-Noun'
p457
sg10
S'i100'
p458
sg12
S'i90'
p459
sg13
Nsg14
(lp460
(i__main__
Token
p461
(dp462
g18
I659
sbasg27
I659
sba(i__main__
Mention
p463
(dp464
g7
S't7'
p465
sg9
S'Coreference-Noun-Noun'
p466
sg10
S'i107'
p467
sg12
S'i100'
p468
sg13
Nsg14
(lp469
(i__main__
Token
p470
(dp471
g18
I686
sbasg27
I686
sba(i__main__
Mention
p472
(dp473
g7
S't7'
p474
sg9
S'Anaphora-C'
p475
sg10
S'i109'
p476
sg12
S'i107'
p477
sg13
Nsg14
(lp478
(i__main__
Token
p479
(dp480
g18
I695
sbasg27
I695
sbasg7
g281
sg43
Nsba(i__main__
Chain
p481
(dp482
g3
(lp483
(i__main__
Mention
p484
(dp485
g7
S't8'
p486
sg9
Nsg10
S'i21'
p487
sg12
Nsg13
Nsg14
(lp488
(i__main__
Token
p489
(dp490
g18
I118
sbasg27
I118
sbasg7
g486
sg43
Nsba(i__main__
Chain
p491
(dp492
g3
(lp493
(i__main__
Mention
p494
(dp495
g7
S't9'
p496
sg9
Nsg10
S'i23'
p497
sg12
Nsg13
Nsg14
(lp498
(i__main__
Token
p499
(dp500
g18
I126
sbasg27
I126
sba(i__main__
Mention
p501
(dp502
g7
S't9'
p503
sg9
S'Anaphora-C'
p504
sg10
S'i24'
p505
sg12
S'i23'
p506
sg13
Nsg14
(lp507
(i__main__
Token
p508
(dp509
g18
I128
sbasg27
I128
sba(i__main__
Mention
p510
(dp511
g7
S't9'
p512
sg9
S'Anaphora-C'
p513
sg10
S'i25'
p514
sg12
S'i24'
p515
sg13
Nsg14
(lp516
(i__main__
Token
p517
(dp518
g18
I133
sbasg27
I133
sba(i__main__
Mention
p519
(dp520
g7
S't9'
p521
sg9
S'Coreference-Identity'
p522
sg10
S'i106'
p523
sg12
S'i25'
p524
sg13
Nsg14
(lp525
(i__main__
Token
p526
(dp527
g18
I679
sbasg27
I679
sba(i__main__
Mention
p528
(dp529
g7
S't9'
p530
sg9
S'Anaphora-C'
p531
sg10
S'i110'
p532
sg12
S'i106'
p533
sg13
Nsg14
(lp534
(i__main__
Token
p535
(dp536
g18
I698
sbasg27
I698
sbasg7
g496
sg43
Nsba(i__main__
Chain
p537
(dp538
g3
(lp539
(i__main__
Mention
p540
(dp541
g7
S't10'
p542
sg9
Nsg10
S'i27'
p543
sg12
Nsg13
Nsg14
(lp544
(i__main__
Token
p545
(dp546
g18
I155
sba(i__main__
Token
p547
(dp548
g18
I156
sba(i__main__
Token
p549
(dp550
g18
I157
sba(i__main__
Token
p551
(dp552
g18
I158
sbasg27
I158
sba(i__main__
Mention
p553
(dp554
g7
S't10'
p555
sg9
S'Coreference-Identity'
p556
sg10
S'i32'
p557
sg12
S'i27'
p558
sg13
Nsg14
(lp559
(i__main__
Token
p560
(dp561
g18
I197
sba(i__main__
Token
p562
(dp563
g18
I198
sba(i__main__
Token
p564
(dp565
g18
I199
sbasg27
I199
sbasg7
g542
sg43
Nsba(i__main__
Chain
p566
(dp567
g3
(lp568
(i__main__
Mention
p569
(dp570
g7
S't11'
p571
sg9
Nsg10
S'i28'
p572
sg12
Nsg13
Nsg14
(lp573
(i__main__
Token
p574
(dp575
g18
I167
sbasg27
I167
sba(i__main__
Mention
p576
(dp577
g7
S't11'
p578
sg9
S'Anaphora-C'
p579
sg10
S'i29'
p580
sg12
S'i28'
p581
sg13
Nsg14
(lp582
(i__main__
Token
p583
(dp584
g18
I175
sbasg27
I175
sbasg7
g571
sg43
Nsba(i__main__
Chain
p585
(dp586
g3
(lp587
(i__main__
Mention
p588
(dp589
g7
S't12'
p590
sg9
Nsg10
S'i30'
p591
sg12
Nsg13
Nsg14
(lp592
(i__main__
Token
p593
(dp594
g18
I176
sbasg27
I176
sba(i__main__
Mention
p595
(dp596
g7
S't12'
p597
sg9
S'Coreference-PartOf'
p598
sg10
S'i34'
p599
sg12
S'i30'
p600
sg13
Nsg14
(lp601
(i__main__
Token
p602
(dp603
g18
I218
sbasg27
I218
sba(i__main__
Mention
p604
(dp605
g7
S't12'
p606
sg9
S'Coreference-RPartOf'
p607
sg10
S'i63'
p608
sg12
S'i34'
p609
sg13
Nsg14
(lp610
(i__main__
Token
p611
(dp612
g18
I416
sbasg27
I416
sbasg7
g590
sg43
Nsba(i__main__
Chain
p613
(dp614
g3
(lp615
(i__main__
Mention
p616
(dp617
g7
S't13'
p618
sg9
Nsg10
S'i31'
p619
sg12
Nsg13
Nsg14
(lp620
(i__main__
Token
p621
(dp622
g18
I188
sbasg27
I188
sbasg7
g618
sg43
Nsba(i__main__
Chain
p623
(dp624
g3
(lp625
(i__main__
Mention
p626
(dp627
g7
S't14'
p628
sg9
Nsg10
S'i33'
p629
sg12
Nsg13
Nsg14
(lp630
(i__main__
Token
p631
(dp632
g18
I201
sbasg27
I201
sbasg7
g628
sg43
Nsba(i__main__
Chain
p633
(dp634
g3
(lp635
(i__main__
Mention
p636
(dp637
g7
S't15'
p638
sg9
Nsg10
S'i35'
p639
sg12
Nsg13
Nsg14
(lp640
(i__main__
Token
p641
(dp642
g18
I222
sba(i__main__
Token
p643
(dp644
g18
I223
sbasg27
I223
sba(i__main__
Mention
p645
(dp646
g7
S't15'
p647
sg9
S'Anaphora-C'
p648
sg10
S'i36'
p649
sg12
S'i35'
p650
sg13
Nsg14
(lp651
(i__main__
Token
p652
(dp653
g18
I226
sbasg27
I226
sbasg7
g638
sg43
Nsba(i__main__
Chain
p654
(dp655
g3
(lp656
(i__main__
Mention
p657
(dp658
g7
S't16'
p659
sg9
Nsg10
S'i37'
p660
sg12
Nsg13
Nsg14
(lp661
(i__main__
Token
p662
(dp663
g18
I234
sba(i__main__
Token
p664
(dp665
g18
I235
sbasg27
I235
sba(i__main__
Mention
p666
(dp667
g7
S't16'
p668
sg9
S'Coreference-Noun-Noun'
p669
sg10
S'i39'
p670
sg12
S'i37'
p671
sg13
Nsg14
(lp672
(i__main__
Token
p673
(dp674
g18
I245
sba(i__main__
Token
p675
(dp676
g18
I246
sbasg27
I246
sbasg7
g659
sg43
Nsba(i__main__
Chain
p677
(dp678
g3
(lp679
(i__main__
Mention
p680
(dp681
g7
S't17'
p682
sg9
Nsg10
S'i38'
p683
sg12
Nsg13
Nsg14
(lp684
(i__main__
Token
p685
(dp686
g18
I240
sba(i__main__
Token
p687
(dp688
g18
I241
sbasg27
I241
sba(i__main__
Mention
p689
(dp690
g7
S't17'
p691
sg9
S'Coreference-RPartOf'
p692
sg10
S'i40'
p693
sg12
S'i38'
p694
sg13
Nsg14
(lp695
(i__main__
Token
p696
(dp697
g18
I252
sbasg27
I252
sba(i__main__
Mention
p698
(dp699
g7
S't17'
p700
sg9
S'Coreference-Identity'
p701
sg10
S'i46'
p702
sg12
S'i40'
p703
sg13
Nsg14
(lp704
(i__main__
Token
p705
(dp706
g18
I295
sbasg27
I295
sba(i__main__
Mention
p707
(dp708
g7
S't17'
p709
sg9
S'Anaphora-C'
p710
sg10
S'i49'
p711
sg12
S'i46'
p712
sg13
Nsg14
(lp713
(i__main__
Token
p714
(dp715
g18
I314
sbasg27
I314
sba(i__main__
Mention
p716
(dp717
g7
S't17'
p718
sg9
S'Anaphora-C'
p719
sg10
S'i50'
p720
sg12
S'i49'
p721
sg13
Nsg14
(lp722
(i__main__
Token
p723
(dp724
g18
I331
sbasg27
I331
sbasg7
g682
sg43
Nsba(i__main__
Chain
p725
(dp726
g3
(lp727
(i__main__
Mention
p728
(dp729
g7
S't18'
p730
sg9
Nsg10
S'i41'
p731
sg12
Nsg13
Nsg14
(lp732
(i__main__
Token
p733
(dp734
g18
I266
sba(i__main__
Token
p735
(dp736
g18
I267
sba(i__main__
Token
p737
(dp738
g18
I268
sba(i__main__
Token
p739
(dp740
g18
I269
sba(i__main__
Token
p741
(dp742
g18
I270
sba(i__main__
Token
p743
(dp744
g18
I271
sba(i__main__
Token
p745
(dp746
g18
I272
sba(i__main__
Token
p747
(dp748
g18
I273
sba(i__main__
Token
p749
(dp750
g18
I274
sba(i__main__
Token
p751
(dp752
g18
I275
sba(i__main__
Token
p753
(dp754
g18
I276
sba(i__main__
Token
p755
(dp756
g18
I277
sba(i__main__
Token
p757
(dp758
g18
I278
sba(i__main__
Token
p759
(dp760
g18
I279
sba(i__main__
Token
p761
(dp762
g18
I280
sbasg27
I279
sba(i__main__
Mention
p763
(dp764
g7
S't18'
p765
sg9
S'Anaphora-E'
p766
sg10
S'i43'
p767
sg12
S'i41'
p768
sg13
Nsg14
(lp769
(i__main__
Token
p770
(dp771
g18
I282
sbasg27
I282
sbasg7
g730
sg43
Nsba(i__main__
Chain
p772
(dp773
g3
(lp774
(i__main__
Mention
p775
(dp776
g7
S't19'
p777
sg9
Nsg10
S'i42'
p778
sg12
Nsg13
Nsg14
(lp779
(i__main__
Token
p780
(dp781
g18
I266
sbasg27
I266
sba(i__main__
Mention
p782
(dp783
g7
S't19'
p784
sg9
S'Coreference-Identity'
p785
sg10
S'i47'
p786
sg12
S'i42'
p787
sg13
Nsg14
(lp788
(i__main__
Token
p789
(dp790
g18
I305
sbasg27
I305
sba(i__main__
Mention
p791
(dp792
g7
S't19'
p793
sg9
S'Anaphora-C'
p794
sg10
S'i48'
p795
sg12
S'i47'
p796
sg13
Nsg14
(lp797
(i__main__
Token
p798
(dp799
g18
I309
sbasg27
I309
sbasg7
g777
sg43
Nsba(i__main__
Chain
p800
(dp801
g3
(lp802
(i__main__
Mention
p803
(dp804
g7
S't20'
p805
sg9
Nsg10
S'i44'
p806
sg12
Nsg13
Nsg14
(lp807
(i__main__
Token
p808
(dp809
g18
I282
sba(i__main__
Token
p810
(dp811
g18
I283
sba(i__main__
Token
p812
(dp813
g18
I284
sba(i__main__
Token
p814
(dp815
g18
I285
sba(i__main__
Token
p816
(dp817
g18
I286
sbasg27
I286
sba(i__main__
Mention
p818
(dp819
g7
S't20'
p820
sg9
S'Anaphora-C'
p821
sg10
S'i45'
p822
sg12
S'i44'
p823
sg13
Nsg14
(lp824
(i__main__
Token
p825
(dp826
g18
I288
sbasg27
I288
sbasg7
g805
sg43
Nsba(i__main__
Chain
p827
(dp828
g3
(lp829
(i__main__
Mention
p830
(dp831
g7
S't21'
p832
sg9
Nsg10
S'i52'
p833
sg12
Nsg13
Nsg14
(lp834
(i__main__
Token
p835
(dp836
g18
I341
sba(i__main__
Token
p837
(dp838
g18
I342
sbasg27
I342
sba(i__main__
Mention
p839
(dp840
g7
S't21'
p841
sg9
S'Anaphora-C'
p842
sg10
S'i55'
p843
sg12
S'i52'
p844
sg13
Nsg14
(lp845
(i__main__
Token
p846
(dp847
g18
I350
sbasg27
I350
sbasg7
g832
sg43
Nsba(i__main__
Chain
p848
(dp849
g3
(lp850
(i__main__
Mention
p851
(dp852
g7
S't22'
p853
sg9
Nsg10
S'i53'
p854
sg12
Nsg13
Nsg14
(lp855
(i__main__
Token
p856
(dp857
g18
I345
sbasg27
I345
sba(i__main__
Mention
p858
(dp859
g7
S't22'
p860
sg9
S'Anaphora-RC'
p861
sg10
S'i54'
p862
sg12
S'i53'
p863
sg13
Nsg14
(lp864
(i__main__
Token
p865
(dp866
g18
I349
sba(i__main__
Token
p867
(dp868
g18
I350
sba(i__main__
Token
p869
(dp870
g18
I351
sba(i__main__
Token
p871
(dp872
g18
I352
sba(i__main__
Token
p873
(dp874
g18
I353
sba(i__main__
Token
p875
(dp876
g18
I354
sba(i__main__
Token
p877
(dp878
g18
I355
sba(i__main__
Token
p879
(dp880
g18
I356
sba(i__main__
Token
p881
(dp882
g18
I357
sba(i__main__
Token
p883
(dp884
g18
I358
sba(i__main__
Token
p885
(dp886
g18
I359
sba(i__main__
Token
p887
(dp888
g18
I360
sba(i__main__
Token
p889
(dp890
g18
I361
sba(i__main__
Token
p891
(dp892
g18
I362
sbasg27
I359
sbasg7
g853
sg43
Nsba(i__main__
Chain
p893
(dp894
g3
(lp895
(i__main__
Mention
p896
(dp897
g7
S't23'
p898
sg9
Nsg10
S'i56'
p899
sg12
Nsg13
Nsg14
(lp900
(i__main__
Token
p901
(dp902
g18
I366
sbasg27
I366
sba(i__main__
Mention
p903
(dp904
g7
S't23'
p905
sg9
S'Anaphora-C'
p906
sg10
S'i57'
p907
sg12
S'i56'
p908
sg13
Nsg14
(lp909
(i__main__
Token
p910
(dp911
g18
I368
sbasg27
I368
sba(i__main__
Mention
p912
(dp913
g7
S't23'
p914
sg9
Nsg10
S'i60'
p915
sg12
Nsg13
Nsg14
(lp916
(i__main__
Token
p917
(dp918
g18
I379
sbasg27
Nsbasg7
g898
sg43
Nsba(i__main__
Chain
p919
(dp920
g3
(lp921
(i__main__
Mention
p922
(dp923
g7
S't24'
p924
sg9
Nsg10
S'i58'
p925
sg12
Nsg13
Nsg14
(lp926
(i__main__
Token
p927
(dp928
g18
I369
sba(i__main__
Token
p929
(dp930
g18
I370
sba(i__main__
Token
p931
(dp932
g18
I371
sbasg27
I371
sba(i__main__
Mention
p933
(dp934
g7
S't24'
p935
sg9
Nsg10
S'i59'
p936
sg12
Nsg13
Nsg14
(lp937
(i__main__
Token
p938
(dp939
g18
I379
sbasg27
Nsbasg7
g924
sg43
Nsba(i__main__
Chain
p940
(dp941
g3
(lp942
(i__main__
Mention
p943
(dp944
g7
S't25'
p945
sg9
Nsg10
S'i61'
p946
sg12
Nsg13
Nsg14
(lp947
(i__main__
Token
p948
(dp949
g18
I407
sbasg27
I407
sbasg7
g945
sg43
Nsba(i__main__
Chain
p950
(dp951
g3
(lp952
(i__main__
Mention
p953
(dp954
g7
S't26'
p955
sg9
Nsg10
S'i64'
p956
sg12
Nsg13
Nsg14
(lp957
(i__main__
Token
p958
(dp959
g18
I427
sbasg27
I427
sba(i__main__
Mention
p960
(dp961
g7
S't26'
p962
sg9
S'Anaphora-C'
p963
sg10
S'i67'
p964
sg12
S'i64'
p965
sg13
Nsg14
(lp966
(i__main__
Token
p967
(dp968
g18
I435
sbasg27
I435
sbasg7
g955
sg43
Nsba(i__main__
Chain
p969
(dp970
g3
(lp971
(i__main__
Mention
p972
(dp973
g7
S't27'
p974
sg9
Nsg10
S'i66'
p975
sg12
Nsg13
Nsg14
(lp976
(i__main__
Token
p977
(dp978
g18
I433
sbasg27
I433
sba(i__main__
Mention
p979
(dp980
g7
S't27'
p981
sg9
S'Coreference-Identity'
p982
sg10
S'i73'
p983
sg12
S'i66'
p984
sg13
Nsg14
(lp985
(i__main__
Token
p986
(dp987
g18
I482
sba(i__main__
Token
p988
(dp989
g18
I483
sbasg27
I483
sbasg7
g974
sg43
Nsba(i__main__
Chain
p990
(dp991
g3
(lp992
(i__main__
Mention
p993
(dp994
g7
S't28'
p995
sg9
Nsg10
S'i76'
p996
sg12
Nsg13
Nsg14
(lp997
(i__main__
Token
p998
(dp999
g18
I489
sbasg27
I489
sba(i__main__
Mention
p1000
(dp1001
g7
S't28'
p1002
sg9
S'Anaphora-RC'
p1003
sg10
S'i77'
p1004
sg12
S'i76'
p1005
sg13
Nsg14
(lp1006
(i__main__
Token
p1007
(dp1008
g18
I494
sba(i__main__
Token
p1009
(dp1010
g18
I495
sba(i__main__
Token
p1011
(dp1012
g18
I496
sba(i__main__
Token
p1013
(dp1014
g18
I497
sba(i__main__
Token
p1015
(dp1016
g18
I498
sba(i__main__
Token
p1017
(dp1018
g18
I499
sba(i__main__
Token
p1019
(dp1020
g18
I500
sba(i__main__
Token
p1021
(dp1022
g18
I501
sbasg27
I500
sbasg7
g995
sg43
Nsba(i__main__
Chain
p1023
(dp1024
g3
(lp1025
(i__main__
Mention
p1026
(dp1027
g7
S't29'
p1028
sg9
Nsg10
S'i83'
p1029
sg12
Nsg13
Nsg14
(lp1030
(i__main__
Token
p1031
(dp1032
g18
I531
sba(i__main__
Token
p1033
(dp1034
g18
I532
sbasg27
I532
sba(i__main__
Mention
p1035
(dp1036
g7
S't29'
p1037
sg9
S'Anaphora-C'
p1038
sg10
S'i84'
p1039
sg12
S'i83'
p1040
sg13
Nsg14
(lp1041
(i__main__
Token
p1042
(dp1043
g18
I536
sbasg27
I536
sbasg7
g1028
sg43
Nsba(i__main__
Chain
p1044
(dp1045
g3
(lp1046
(i__main__
Mention
p1047
(dp1048
g7
S't30'
p1049
sg9
Nsg10
S'i88'
p1050
sg12
Nsg13
Nsg14
(lp1051
(i__main__
Token
p1052
(dp1053
g18
I590
sbasg27
I590
sba(i__main__
Mention
p1054
(dp1055
g7
S't30'
p1056
sg9
S'Coreference-NounComplement'
p1057
sg10
S'i89'
p1058
sg12
S'i88'
p1059
sg13
Nsg14
(lp1060
(i__main__
Token
p1061
(dp1062
g18
I591
sbasg27
I591
sba(i__main__
Mention
p1063
(dp1064
g7
S't30'
p1065
sg9
S'Anaphora-C'
p1066
sg10
S'i94'
p1067
sg12
S'i89'
p1068
sg13
Nsg14
(lp1069
(i__main__
Token
p1070
(dp1071
g18
I630
sbasg27
I630
sba(i__main__
Mention
p1072
(dp1073
g7
S't30'
p1074
sg9
S'Anaphora-C'
p1075
sg10
S'i95'
p1076
sg12
S'i94'
p1077
sg13
Nsg14
(lp1078
(i__main__
Token
p1079
(dp1080
g18
I637
sbasg27
I637
sbasg7
g1049
sg43
Nsba(i__main__
Chain
p1081
(dp1082
g3
(lp1083
(i__main__
Mention
p1084
(dp1085
g7
S't31'
p1086
sg9
Nsg10
S'i91'
p1087
sg12
Nsg13
Nsg14
(lp1088
(i__main__
Token
p1089
(dp1090
g18
I611
sbasg27
I611
sba(i__main__
Mention
p1091
(dp1092
g7
S't31'
p1093
sg9
S'Anaphora-C'
p1094
sg10
S'i105'
p1095
sg12
S'i91'
p1096
sg13
Nsg14
(lp1097
(i__main__
Token
p1098
(dp1099
g18
I674
sbasg27
I674
sbasg7
g1086
sg43
Nsba(i__main__
Chain
p1100
(dp1101
g3
(lp1102
(i__main__
Mention
p1103
(dp1104
g7
S't32'
p1105
sg9
Nsg10
S'i92'
p1106
sg12
Nsg13
Nsg14
(lp1107
(i__main__
Token
p1108
(dp1109
g18
I615
sbasg27
I615
sba(i__main__
Mention
p1110
(dp1111
g7
S't32'
p1112
sg9
S'Coreference-Identity'
p1113
sg10
S'i102'
p1114
sg12
S'i92'
p1115
sg13
Nsg14
(lp1116
(i__main__
Token
p1117
(dp1118
g18
I664
sbasg27
I664
sbasg7
g1105
sg43
Nsba(i__main__
Chain
p1119
(dp1120
g3
(lp1121
(i__main__
Mention
p1122
(dp1123
g7
S't33'
p1124
sg9
Nsg10
S'i93'
p1125
sg12
Nsg13
Nsg14
(lp1126
(i__main__
Token
p1127
(dp1128
g18
I622
sbasg27
I622
sbasg7
g1124
sg43
Nsba(i__main__
Chain
p1129
(dp1130
g3
(lp1131
(i__main__
Mention
p1132
(dp1133
g7
S't34'
p1134
sg9
Nsg10
S'i96'
p1135
sg12
Nsg13
Nsg14
(lp1136
(i__main__
Token
p1137
(dp1138
g18
I639
sbasg27
I639
sbasg7
g1134
sg43
Nsba(i__main__
Chain
p1139
(dp1140
g3
(lp1141
(i__main__
Mention
p1142
(dp1143
g7
S't35'
p1144
sg9
Nsg10
S'i97'
p1145
sg12
Nsg13
Nsg14
(lp1146
(i__main__
Token
p1147
(dp1148
g18
I644
sbasg27
I644
sbasg7
g1144
sg43
Nsba(i__main__
Chain
p1149
(dp1150
g3
(lp1151
(i__main__
Mention
p1152
(dp1153
g7
S't36'
p1154
sg9
Nsg10
S'i99'
p1155
sg12
Nsg13
Nsg14
(lp1156
(i__main__
Token
p1157
(dp1158
g18
I655
sba(i__main__
Token
p1159
(dp1160
g18
I656
sbasg27
I656
sba(i__main__
Mention
p1161
(dp1162
g7
S't36'
p1163
sg9
S'Anaphora-C'
p1164
sg10
S'i101'
p1165
sg12
S'i99'
p1166
sg13
Nsg14
(lp1167
(i__main__
Token
p1168
(dp1169
g18
I661
sbasg27
I661
sba(i__main__
Mention
p1170
(dp1171
g7
S't36'
p1172
sg9
S'Anaphora-C'
p1173
sg10
S'i103'
p1174
sg12
S'i101'
p1175
sg13
Nsg14
(lp1176
(i__main__
Token
p1177
(dp1178
g18
I672
sbasg27
I672
sbasg7
g1154
sg43
Nsba(i__main__
Chain
p1179
(dp1180
g3
(lp1181
(i__main__
Mention
p1182
(dp1183
g7
S't37'
p1184
sg9
Nsg10
S'i104'
p1185
sg12
Nsg13
Nsg14
(lp1186
(i__main__
Token
p1187
(dp1188
g18
I673
sbasg27
I673
sbasg7
g1184
sg43
Nsba(i__main__
Chain
p1189
(dp1190
g3
(lp1191
(i__main__
Mention
p1192
(dp1193
g7
S't38'
p1194
sg9
Nsg10
S'i108'
p1195
sg12
Nsg13
Nsg14
(lp1196
(i__main__
Token
p1197
(dp1198
g18
I691
sbasg27
I691
sbasg7
g1194
sg43
Nsba.