(lp0
(i__main__
Chain
p1
(dp2
S'mentionList'
p3
(lp4
(i__main__
Mention
p5
(dp6
S'chainId'
p7
S't1'
p8
sS'relType'
p9
NsS'mentionId'
p10
S'i1'
p11
sS'antecedentId'
p12
NsS'crefMod'
p13
NsS'tokenList'
p14
(lp15
(i__main__
Token
p16
(dp17
S'tokenId'
p18
I8
sba(i__main__
Token
p19
(dp20
g18
I9
sba(i__main__
Token
p21
(dp22
g18
I10
sbasS'mentionHead'
p23
I10
sba(i__main__
Mention
p24
(dp25
g7
S't1'
p26
sg9
S'Coreference-Identity'
p27
sg10
S'i12'
p28
sg12
S'i1'
p29
sg13
Nsg14
(lp30
(i__main__
Token
p31
(dp32
g18
I100
sba(i__main__
Token
p33
(dp34
g18
I101
sba(i__main__
Token
p35
(dp36
g18
I102
sbasg23
I102
sbasg7
g8
sS'chainHead'
p37
Nsba(i__main__
Chain
p38
(dp39
g3
(lp40
(i__main__
Mention
p41
(dp42
g7
S't2'
p43
sg9
Nsg10
S'i2'
p44
sg12
Nsg13
Nsg14
(lp45
(i__main__
Token
p46
(dp47
g18
I20
sbasg23
I20
sba(i__main__
Mention
p48
(dp49
g7
S't2'
p50
sg9
S'Coreference-Identity'
p51
sg10
S'i15'
p52
sg12
S'i2'
p53
sg13
Nsg14
(lp54
(i__main__
Token
p55
(dp56
g18
I109
sbasg23
I109
sba(i__main__
Mention
p57
(dp58
g7
S't2'
p59
sg9
S'Coreference-Identity'
p60
sg10
S'i17'
p61
sg12
S'i15'
p62
sg13
Nsg14
(lp63
(i__main__
Token
p64
(dp65
g18
I118
sbasg23
I118
sba(i__main__
Mention
p66
(dp67
g7
S't2'
p68
sg9
S'Coreference-Identity'
p69
sg10
S'i29'
p70
sg12
S'i17'
p71
sg13
Nsg14
(lp72
(i__main__
Token
p73
(dp74
g18
I164
sbasg23
I164
sba(i__main__
Mention
p75
(dp76
g7
S't2'
p77
sg9
S'Coreference-Identity'
p78
sg10
S'i41'
p79
sg12
S'i29'
p80
sg13
Nsg14
(lp81
(i__main__
Token
p82
(dp83
g18
I266
sbasg23
I266
sbasg7
g43
sg37
Nsba(i__main__
Chain
p84
(dp85
g3
(lp86
(i__main__
Mention
p87
(dp88
g7
S't3'
p89
sg9
Nsg10
S'i3'
p90
sg12
Nsg13
Nsg14
(lp91
(i__main__
Token
p92
(dp93
g18
I25
sbasg23
I25
sba(i__main__
Mention
p94
(dp95
g7
S't3'
p96
sg9
S'Coreference-Noun-Noun'
p97
sg10
S'i4'
p98
sg12
S'i3'
p99
sg13
Nsg14
(lp100
(i__main__
Token
p101
(dp102
g18
I30
sbasg23
I30
sba(i__main__
Mention
p103
(dp104
g7
S't3'
p105
sg9
S'Coreference-Noun-Noun'
p106
sg10
S'i13'
p107
sg12
S'i4'
p108
sg13
Nsg14
(lp109
(i__main__
Token
p110
(dp111
g18
I100
sba(i__main__
Token
p112
(dp113
g18
I101
sba(i__main__
Token
p114
(dp115
g18
I102
sba(i__main__
Token
p116
(dp117
g18
I103
sbasg23
I103
sbasg7
g89
sg37
Nsba(i__main__
Chain
p118
(dp119
g3
(lp120
(i__main__
Mention
p121
(dp122
g7
S't4'
p123
sg9
Nsg10
S'i5'
p124
sg12
Nsg13
Nsg14
(lp125
(i__main__
Token
p126
(dp127
g18
I32
sbasg23
I32
sba(i__main__
Mention
p128
(dp129
g7
S't4'
p130
sg9
S'Anaphora-C'
p131
sg10
S'i6'
p132
sg12
S'i5'
p133
sg13
Nsg14
(lp134
(i__main__
Token
p135
(dp136
g18
I41
sbasg23
I41
sba(i__main__
Mention
p137
(dp138
g7
S't4'
p139
sg9
S'Coreference-Identity'
p140
sg10
S'i14'
p141
sg12
S'i6'
p142
sg13
Nsg14
(lp143
(i__main__
Token
p144
(dp145
g18
I105
sbasg23
I105
sba(i__main__
Mention
p146
(dp147
g7
S't4'
p148
sg9
S'Anaphora-C'
p149
sg10
S'i16'
p150
sg12
S'i14'
p151
sg13
Nsg14
(lp152
(i__main__
Token
p153
(dp154
g18
I117
sbasg23
I117
sba(i__main__
Mention
p155
(dp156
g7
S't4'
p157
sg9
S'Anaphora-C'
p158
sg10
S'i20'
p159
sg12
S'i16'
p160
sg13
Nsg14
(lp161
(i__main__
Token
p162
(dp163
g18
I130
sbasg23
I130
sba(i__main__
Mention
p164
(dp165
g7
S't4'
p166
sg9
S'Anaphora-C'
p167
sg10
S'i25'
p168
sg12
S'i20'
p169
sg13
Nsg14
(lp170
(i__main__
Token
p171
(dp172
g18
I149
sbasg23
I149
sba(i__main__
Mention
p173
(dp174
g7
S't4'
p175
sg9
S'Anaphora-C'
p176
sg10
S'i28'
p177
sg12
S'i25'
p178
sg13
Nsg14
(lp179
(i__main__
Token
p180
(dp181
g18
I163
sbasg23
I163
sbasg7
g123
sg37
Nsba(i__main__
Chain
p182
(dp183
g3
(lp184
(i__main__
Mention
p185
(dp186
g7
S't5'
p187
sg9
Nsg10
S'i7'
p188
sg12
Nsg13
Nsg14
(lp189
(i__main__
Token
p190
(dp191
g18
I42
sbasg23
I42
sba(i__main__
Mention
p192
(dp193
g7
S't5'
p194
sg9
S'Coreference-Identity'
p195
sg10
S'i26'
p196
sg12
S'i7'
p197
sg13
Nsg14
(lp198
(i__main__
Token
p199
(dp200
g18
I150
sbasg23
I150
sbasg7
g187
sg37
Nsba(i__main__
Chain
p201
(dp202
g3
(lp203
(i__main__
Mention
p204
(dp205
g7
S't6'
p206
sg9
Nsg10
S'i8'
p207
sg12
Nsg13
Nsg14
(lp208
(i__main__
Token
p209
(dp210
g18
I58
sbasg23
I58
sba(i__main__
Mention
p211
(dp212
g7
S't6'
p213
sg9
S'Coreference-Identity'
p214
sg10
S'i10'
p215
sg12
S'i8'
p216
sg13
Nsg14
(lp217
(i__main__
Token
p218
(dp219
g18
I72
sbasg23
I72
sba(i__main__
Mention
p220
(dp221
g7
S't6'
p222
sg9
S'Coreference-Identity'
p223
sg10
S'i31'
p224
sg12
S'i10'
p225
sg13
Nsg14
(lp226
(i__main__
Token
p227
(dp228
g18
I184
sbasg23
I184
sbasg7
g206
sg37
Nsba(i__main__
Chain
p229
(dp230
g3
(lp231
(i__main__
Mention
p232
(dp233
g7
S't7'
p234
sg9
Nsg10
S'i9'
p235
sg12
Nsg13
Nsg14
(lp236
(i__main__
Token
p237
(dp238
g18
I66
sba(i__main__
Token
p239
(dp240
g18
I67
sba(i__main__
Token
p241
(dp242
g18
I68
sba(i__main__
Token
p243
(dp244
g18
I69
sbasg23
I69
sba(i__main__
Mention
p245
(dp246
g7
S't7'
p247
sg9
S'Coreference-Identity'
p248
sg10
S'i32'
p249
sg12
S'i9'
p250
sg13
Nsg14
(lp251
(i__main__
Token
p252
(dp253
g18
I186
sba(i__main__
Token
p254
(dp255
g18
I187
sba(i__main__
Token
p256
(dp257
g18
I188
sba(i__main__
Token
p258
(dp259
g18
I189
sbasg23
I189
sba(i__main__
Mention
p260
(dp261
g7
S't7'
p262
sg9
S'Coreference-Identity'
p263
sg10
S'i40'
p264
sg12
S'i32'
p265
sg13
Nsg14
(lp266
(i__main__
Token
p267
(dp268
g18
I260
sba(i__main__
Token
p269
(dp270
g18
I261
sbasg23
I261
sba(i__main__
Mention
p271
(dp272
g7
S't7'
p273
sg9
S'Anaphora-C'
p274
sg10
S'i56'
p275
sg12
S'i40'
p276
sg13
Nsg14
(lp277
(i__main__
Token
p278
(dp279
g18
I324
sbasg23
I324
sbasg7
g234
sg37
Nsba(i__main__
Chain
p280
(dp281
g3
(lp282
(i__main__
Mention
p283
(dp284
g7
S't8'
p285
sg9
Nsg10
S'i11'
p286
sg12
Nsg13
Nsg14
(lp287
(i__main__
Token
p288
(dp289
g18
I90
sba(i__main__
Token
p290
(dp291
g18
I91
sba(i__main__
Token
p292
(dp293
g18
I92
sba(i__main__
Token
p294
(dp295
g18
I93
sba(i__main__
Token
p296
(dp297
g18
I94
sba(i__main__
Token
p298
(dp299
g18
I95
sba(i__main__
Token
p300
(dp301
g18
I96
sbasg23
I96
sba(i__main__
Mention
p302
(dp303
g7
S't8'
p304
sg9
S'Coreference-Identity'
p305
sg10
S'i23'
p306
sg12
S'i11'
p307
sg13
Nsg14
(lp308
(i__main__
Token
p309
(dp310
g18
I143
sba(i__main__
Token
p311
(dp312
g18
I144
sbasg23
I144
sba(i__main__
Mention
p313
(dp314
g7
S't8'
p315
sg9
S'Coreference-Identity'
p316
sg10
S'i27'
p317
sg12
S'i23'
p318
sg13
Nsg14
(lp319
(i__main__
Token
p320
(dp321
g18
I155
sbasg23
I155
sba(i__main__
Mention
p322
(dp323
g7
S't8'
p324
sg9
S'Coreference-Noun-Noun'
p325
sg10
S'i30'
p326
sg12
S'i27'
p327
sg13
Nsg14
(lp328
(i__main__
Token
p329
(dp330
g18
I175
sba(i__main__
Token
p331
(dp332
g18
I176
sba(i__main__
Token
p333
(dp334
g18
I177
sba(i__main__
Token
p335
(dp336
g18
I178
sba(i__main__
Token
p337
(dp338
g18
I179
sbasg23
I179
sba(i__main__
Mention
p339
(dp340
g7
S't8'
p341
sg9
S'Coreference-Noun-Noun'
p342
sg10
S'i33'
p343
sg12
S'i30'
p344
sg13
Nsg14
(lp345
(i__main__
Token
p346
(dp347
g18
I197
sba(i__main__
Token
p348
(dp349
g18
I198
sbasg23
I198
sba(i__main__
Mention
p350
(dp351
g7
S't8'
p352
sg9
S'Coreference-Identity'
p353
sg10
S'i36'
p354
sg12
S'i33'
p355
sg13
Nsg14
(lp356
(i__main__
Token
p357
(dp358
g18
I227
sbasg23
I227
sba(i__main__
Mention
p359
(dp360
g7
S't8'
p361
sg9
S'Coreference-Identity'
p362
sg10
S'i55'
p363
sg12
S'i36'
p364
sg13
Nsg14
(lp365
(i__main__
Token
p366
(dp367
g18
I319
sba(i__main__
Token
p368
(dp369
g18
I320
sbasg23
I320
sbasg7
g285
sg37
Nsba(i__main__
Chain
p370
(dp371
g3
(lp372
(i__main__
Mention
p373
(dp374
g7
S't9'
p375
sg9
Nsg10
S'i18'
p376
sg12
Nsg13
Nsg14
(lp377
(i__main__
Token
p378
(dp379
g18
I120
sba(i__main__
Token
p380
(dp381
g18
I121
sbasg23
I121
sba(i__main__
Mention
p382
(dp383
g7
S't9'
p384
sg9
S'Coreference-Identity'
p385
sg10
S'i19'
p386
sg12
S'i18'
p387
sg13
Nsg14
(lp388
(i__main__
Token
p389
(dp390
g18
I128
sbasg23
I128
sbasg7
g375
sg37
Nsba(i__main__
Chain
p391
(dp392
g3
(lp393
(i__main__
Mention
p394
(dp395
g7
S't10'
p396
sg9
Nsg10
S'i21'
p397
sg12
Nsg13
Nsg14
(lp398
(i__main__
Token
p399
(dp400
g18
I131
sbasg23
I131
sba(i__main__
Mention
p401
(dp402
g7
S't10'
p403
sg9
S'Anaphora-C'
p404
sg10
S'i22'
p405
sg12
S'i21'
p406
sg13
Nsg14
(lp407
(i__main__
Token
p408
(dp409
g18
I136
sbasg23
I136
sbasg7
g396
sg37
Nsba(i__main__
Chain
p410
(dp411
g3
(lp412
(i__main__
Mention
p413
(dp414
g7
S't11'
p415
sg9
Nsg10
S'i24'
p416
sg12
Nsg13
Nsg14
(lp417
(i__main__
Token
p418
(dp419
g18
I148
sbasg23
I148
sbasg7
g415
sg37
Nsba(i__main__
Chain
p420
(dp421
g3
(lp422
(i__main__
Mention
p423
(dp424
g7
S't12'
p425
sg9
Nsg10
S'i34'
p426
sg12
Nsg13
Nsg14
(lp427
(i__main__
Token
p428
(dp429
g18
I206
sbasg23
I206
sbasg7
g425
sg37
Nsba(i__main__
Chain
p430
(dp431
g3
(lp432
(i__main__
Mention
p433
(dp434
g7
S't13'
p435
sg9
Nsg10
S'i35'
p436
sg12
Nsg13
Nsg14
(lp437
(i__main__
Token
p438
(dp439
g18
I216
sbasg23
I216
sbasg7
g435
sg37
Nsba(i__main__
Chain
p440
(dp441
g3
(lp442
(i__main__
Mention
p443
(dp444
g7
S't14'
p445
sg9
Nsg10
S'i37'
p446
sg12
Nsg13
Nsg14
(lp447
(i__main__
Token
p448
(dp449
g18
I235
sba(i__main__
Token
p450
(dp451
g18
I236
sbasg23
I236
sba(i__main__
Mention
p452
(dp453
g7
S't14'
p454
sg9
S'Anaphora-C'
p455
sg10
S'i38'
p456
sg12
S'i37'
p457
sg13
Nsg14
(lp458
(i__main__
Token
p459
(dp460
g18
I239
sbasg23
I239
sbasg7
g445
sg37
Nsba(i__main__
Chain
p461
(dp462
g3
(lp463
(i__main__
Mention
p464
(dp465
g7
S't15'
p466
sg9
Nsg10
S'i39'
p467
sg12
Nsg13
Nsg14
(lp468
(i__main__
Token
p469
(dp470
g18
I241
sba(i__main__
Token
p471
(dp472
g18
I242
sba(i__main__
Token
p473
(dp474
g18
I243
sba(i__main__
Token
p475
(dp476
g18
I244
sba(i__main__
Token
p477
(dp478
g18
I245
sba(i__main__
Token
p479
(dp480
g18
I246
sba(i__main__
Token
p481
(dp482
g18
I247
sba(i__main__
Token
p483
(dp484
g18
I248
sba(i__main__
Token
p485
(dp486
g18
I249
sba(i__main__
Token
p487
(dp488
g18
I250
sba(i__main__
Token
p489
(dp490
g18
I251
sba(i__main__
Token
p491
(dp492
g18
I252
sba(i__main__
Token
p493
(dp494
g18
I253
sba(i__main__
Token
p495
(dp496
g18
I254
sba(i__main__
Token
p497
(dp498
g18
I255
sba(i__main__
Token
p499
(dp500
g18
I256
sba(i__main__
Token
p501
(dp502
g18
I257
sbasg23
I255
sba(i__main__
Mention
p503
(dp504
g7
S't15'
p505
sg9
S'Anaphora-E'
p506
sg10
S'i42'
p507
sg12
S'i39'
p508
sg13
Nsg14
(lp509
(i__main__
Token
p510
(dp511
g18
I272
sbasg23
I272
sbasg7
g466
sg37
Nsba(i__main__
Chain
p512
(dp513
g3
(lp514
(i__main__
Mention
p515
(dp516
g7
S't16'
p517
sg9
Nsg10
S'i43'
p518
sg12
Nsg13
Nsg14
(lp519
(i__main__
Token
p520
(dp521
g18
I277
sbasg23
I277
sbasg7
g517
sg37
Nsba(i__main__
Chain
p522
(dp523
g3
(lp524
(i__main__
Mention
p525
(dp526
g7
S't17'
p527
sg9
Nsg10
S'i44'
p528
sg12
Nsg13
Nsg14
(lp529
(i__main__
Token
p530
(dp531
g18
I278
sbasg23
I278
sba(i__main__
Mention
p532
(dp533
g7
S't17'
p534
sg9
Nsg10
S'i46'
p535
sg12
Nsg13
Nsg14
(lp536
(i__main__
Token
p537
(dp538
g18
I286
sbasg23
Nsba(i__main__
Mention
p539
(dp540
g7
S't17'
p541
sg9
Nsg10
S'i48'
p542
sg12
Nsg13
Nsg14
(lp543
(i__main__
Token
p544
(dp545
g18
I287
sbasg23
Nsba(i__main__
Mention
p546
(dp547
g7
S't17'
p548
sg9
Nsg10
S'i50'
p549
sg12
Nsg13
Nsg14
(lp550
(i__main__
Token
p551
(dp552
g18
I293
sbasg23
Nsbasg7
g527
sg37
Nsba(i__main__
Chain
p553
(dp554
g3
(lp555
(i__main__
Mention
p556
(dp557
g7
S't18'
p558
sg9
Nsg10
S'i45'
p559
sg12
Nsg13
Nsg14
(lp560
(i__main__
Token
p561
(dp562
g18
I280
sbasg23
I280
sba(i__main__
Mention
p563
(dp564
g7
S't18'
p565
sg9
Nsg10
S'i47'
p566
sg12
Nsg13
Nsg14
(lp567
(i__main__
Token
p568
(dp569
g18
I286
sbasg23
Nsba(i__main__
Mention
p570
(dp571
g7
S't18'
p572
sg9
Nsg10
S'i49'
p573
sg12
Nsg13
Nsg14
(lp574
(i__main__
Token
p575
(dp576
g18
I287
sbasg23
Nsba(i__main__
Mention
p577
(dp578
g7
S't18'
p579
sg9
Nsg10
S'i51'
p580
sg12
Nsg13
Nsg14
(lp581
(i__main__
Token
p582
(dp583
g18
I293
sbasg23
Nsbasg7
g558
sg37
Nsba(i__main__
Chain
p584
(dp585
g3
(lp586
(i__main__
Mention
p587
(dp588
g7
S't19'
p589
sg9
Nsg10
S'i52'
p590
sg12
Nsg13
Nsg14
(lp591
(i__main__
Token
p592
(dp593
g18
I293
sba(i__main__
Token
p594
(dp595
g18
I294
sba(i__main__
Token
p596
(dp597
g18
I295
sba(i__main__
Token
p598
(dp599
g18
I296
sba(i__main__
Token
p600
(dp601
g18
I297
sba(i__main__
Token
p602
(dp603
g18
I298
sba(i__main__
Token
p604
(dp605
g18
I299
sba(i__main__
Token
p606
(dp607
g18
I300
sba(i__main__
Token
p608
(dp609
g18
I301
sba(i__main__
Token
p610
(dp611
g18
I302
sba(i__main__
Token
p612
(dp613
g18
I303
sba(i__main__
Token
p614
(dp615
g18
I304
sba(i__main__
Token
p616
(dp617
g18
I305
sba(i__main__
Token
p618
(dp619
g18
I306
sbasg23
I305
sba(i__main__
Mention
p620
(dp621
g7
S't19'
p622
sg9
S'Anaphora-C'
p623
sg10
S'i54'
p624
sg12
S'i52'
p625
sg13
Nsg14
(lp626
(i__main__
Token
p627
(dp628
g18
I308
sbasg23
I308
sbasg7
g589
sg37
Nsba(i__main__
Chain
p629
(dp630
g3
(lp631
(i__main__
Mention
p632
(dp633
g7
S't20'
p634
sg9
Nsg10
S'i53'
p635
sg12
Nsg13
Nsg14
(lp636
(i__main__
Token
p637
(dp638
g18
I298
sbasg23
I298
sbasg7
g634
sg37
Nsba(i__main__
Chain
p639
(dp640
g3
(lp641
(i__main__
Mention
p642
(dp643
g7
S't21'
p644
sg9
Nsg10
S'i57'
p645
sg12
Nsg13
Nsg14
(lp646
(i__main__
Token
p647
(dp648
g18
I342
sbasg23
I342
sbasg7
g644
sg37
Nsba.