(lp0
(i__main__
Chain
p1
(dp2
S'mentionList'
p3
(lp4
(i__main__
Mention
p5
(dp6
S'chainId'
p7
S't1'
p8
sS'relType'
p9
NsS'mentionId'
p10
S'i1'
p11
sS'antecedentId'
p12
NsS'crefMod'
p13
NsS'tokenList'
p14
(lp15
(i__main__
Token
p16
(dp17
S'tokenId'
p18
I0
sbasS'mentionHead'
p19
I0
sba(i__main__
Mention
p20
(dp21
g7
S't1'
p22
sg9
S'Coreference-Identity'
p23
sg10
S'i23'
p24
sg12
S'i1'
p25
sg13
Nsg14
(lp26
(i__main__
Token
p27
(dp28
g18
I80
sbasg19
I80
sba(i__main__
Mention
p29
(dp30
g7
S't1'
p31
sg9
S'Coreference-Identity'
p32
sg10
S'i25'
p33
sg12
S'i23'
p34
sg13
Nsg14
(lp35
(i__main__
Token
p36
(dp37
g18
I86
sbasg19
I86
sbasg7
g8
sS'chainHead'
p38
Nsba(i__main__
Chain
p39
(dp40
g3
(lp41
(i__main__
Mention
p42
(dp43
g7
S't2'
p44
sg9
Nsg10
S'i2'
p45
sg12
Nsg13
Nsg14
(lp46
(i__main__
Token
p47
(dp48
g18
I2
sba(i__main__
Token
p49
(dp50
g18
I3
sba(i__main__
Token
p51
(dp52
g18
I4
sbasg19
I4
sba(i__main__
Mention
p53
(dp54
g7
S't2'
p55
sg9
S'Coreference-Abbreviation'
p56
sg10
S'i3'
p57
sg12
S'i2'
p58
sg13
Nsg14
(lp59
(i__main__
Token
p60
(dp61
g18
I6
sbasg19
I6
sba(i__main__
Mention
p62
(dp63
g7
S't2'
p64
sg9
S'Coreference-InferedRelation'
p65
sg10
S'i5'
p66
sg12
S'i3'
p67
sg13
Nsg14
(lp68
(i__main__
Token
p69
(dp70
g18
I17
sbasg19
I17
sbasg7
g44
sg38
Nsba(i__main__
Chain
p71
(dp72
g3
(lp73
(i__main__
Mention
p74
(dp75
g7
S't3'
p76
sg9
Nsg10
S'i4'
p77
sg12
Nsg13
Nsg14
(lp78
(i__main__
Token
p79
(dp80
g18
I13
sbasg19
I13
sba(i__main__
Mention
p81
(dp82
g7
S't3'
p83
sg9
S'Coreference-Identity'
p84
sg10
S'i24'
p85
sg12
S'i4'
p86
sg13
Nsg14
(lp87
(i__main__
Token
p88
(dp89
g18
I83
sbasg19
I83
sba(i__main__
Mention
p90
(dp91
g7
S't3'
p92
sg9
S'Coreference-Identity'
p93
sg10
S'i42'
p94
sg12
S'i24'
p95
sg13
Nsg14
(lp96
(i__main__
Token
p97
(dp98
g18
I146
sba(i__main__
Token
p99
(dp100
g18
I147
sbasg19
I147
sbasg7
g76
sg38
Nsba(i__main__
Chain
p101
(dp102
g3
(lp103
(i__main__
Mention
p104
(dp105
g7
S't4'
p106
sg9
Nsg10
S'i6'
p107
sg12
Nsg13
Nsg14
(lp108
(i__main__
Token
p109
(dp110
g18
I19
sbasg19
I19
sba(i__main__
Mention
p111
(dp112
g7
S't4'
p113
sg9
S'Coreference-Noun-Noun'
p114
sg10
S'i7'
p115
sg12
S'i6'
p116
sg13
Nsg14
(lp117
(i__main__
Token
p118
(dp119
g18
I21
sba(i__main__
Token
p120
(dp121
g18
I22
sbasg19
I22
sba(i__main__
Mention
p122
(dp123
g7
S't4'
p124
sg9
S'Coreference-NounComplement'
p125
sg10
S'i8'
p126
sg12
S'i7'
p127
sg13
Nsg14
(lp128
(i__main__
Token
p129
(dp130
g18
I23
sba(i__main__
Token
p131
(dp132
g18
I24
sbasg19
I24
sba(i__main__
Mention
p133
(dp134
g7
S't4'
p135
sg9
S'Anaphora-C'
p136
sg10
S'i9'
p137
sg12
S'i8'
p138
sg13
Nsg14
(lp139
(i__main__
Token
p140
(dp141
g18
I32
sbasg19
I32
sba(i__main__
Mention
p142
(dp143
g7
S't4'
p144
sg9
S'Coreference-Identity'
p145
sg10
S'i22'
p146
sg12
S'i9'
p147
sg13
Nsg14
(lp148
(i__main__
Token
p149
(dp150
g18
I72
sbasg19
I72
sba(i__main__
Mention
p151
(dp152
g7
S't4'
p153
sg9
S'Anaphora-C'
p154
sg10
S'i30'
p155
sg12
S'i22'
p156
sg13
Nsg14
(lp157
(i__main__
Token
p158
(dp159
g18
I105
sbasg19
I105
sba(i__main__
Mention
p160
(dp161
g7
S't4'
p162
sg9
S'Anaphora-C'
p163
sg10
S'i31'
p164
sg12
S'i30'
p165
sg13
Nsg14
(lp166
(i__main__
Token
p167
(dp168
g18
I108
sbasg19
I108
sba(i__main__
Mention
p169
(dp170
g7
S't4'
p171
sg9
S'Coreference-Identity'
p172
sg10
S'i39'
p173
sg12
S'i31'
p174
sg13
Nsg14
(lp175
(i__main__
Token
p176
(dp177
g18
I134
sbasg19
I134
sbasg7
g106
sg38
Nsba(i__main__
Chain
p178
(dp179
g3
(lp180
(i__main__
Mention
p181
(dp182
g7
S't5'
p183
sg9
Nsg10
S'i10'
p184
sg12
Nsg13
Nsg14
(lp185
(i__main__
Token
p186
(dp187
g18
I33
sbasg19
I33
sba(i__main__
Mention
p188
(dp189
g7
S't5'
p190
sg9
S'Coreference-Identity'
p191
sg10
S'i26'
p192
sg12
S'i10'
p193
sg13
Nsg14
(lp194
(i__main__
Token
p195
(dp196
g18
I88
sbasg19
I88
sba(i__main__
Mention
p197
(dp198
g7
S't5'
p199
sg9
S'Coreference-Identity'
p200
sg10
S'i29'
p201
sg12
S'i26'
p202
sg13
Nsg14
(lp203
(i__main__
Token
p204
(dp205
g18
I101
sbasg19
I101
sbasg7
g183
sg38
Nsba(i__main__
Chain
p206
(dp207
g3
(lp208
(i__main__
Mention
p209
(dp210
g7
S't6'
p211
sg9
Nsg10
S'i11'
p212
sg12
Nsg13
Nsg14
(lp213
(i__main__
Token
p214
(dp215
g18
I38
sbasg19
I38
sba(i__main__
Mention
p216
(dp217
g7
S't6'
p218
sg9
S'Coreference-NounComplement'
p219
sg10
S'i12'
p220
sg12
S'i11'
p221
sg13
Nsg14
(lp222
(i__main__
Token
p223
(dp224
g18
I39
sba(i__main__
Token
p225
(dp226
g18
I40
sbasg19
I40
sba(i__main__
Mention
p227
(dp228
g7
S't6'
p229
sg9
Nsg10
S'i14'
p230
sg12
Nsg13
Nsg14
(lp231
(i__main__
Token
p232
(dp233
g18
I46
sba(i__main__
Token
p234
(dp235
g18
I47
sbasg19
Nsba(i__main__
Mention
p236
(dp237
g7
S't6'
p238
sg9
S'Coreference-Noun-Noun'
p239
sg10
S'i33'
p240
sg12
S'i14'
p241
sg13
Nsg14
(lp242
(i__main__
Token
p243
(dp244
g18
I112
sbasg19
I112
sba(i__main__
Mention
p245
(dp246
g7
S't6'
p247
sg9
S'Anaphora-C'
p248
sg10
S'i35'
p249
sg12
S'i33'
p250
sg13
Nsg14
(lp251
(i__main__
Token
p252
(dp253
g18
I120
sbasg19
I120
sba(i__main__
Mention
p254
(dp255
g7
S't6'
p256
sg9
Nsg10
S'i36'
p257
sg12
Nsg13
Nsg14
(lp258
(i__main__
Token
p259
(dp260
g18
I121
sba(i__main__
Token
p261
(dp262
g18
I122
sbasg19
Nsbasg7
g211
sg38
Nsba(i__main__
Chain
p263
(dp264
g3
(lp265
(i__main__
Mention
p266
(dp267
g7
S't7'
p268
sg9
Nsg10
S'i13'
p269
sg12
Nsg13
Nsg14
(lp270
(i__main__
Token
p271
(dp272
g18
I42
sba(i__main__
Token
p273
(dp274
g18
I43
sbasg19
I43
sba(i__main__
Mention
p275
(dp276
g7
S't7'
p277
sg9
Nsg10
S'i15'
p278
sg12
Nsg13
Nsg14
(lp279
(i__main__
Token
p280
(dp281
g18
I46
sba(i__main__
Token
p282
(dp283
g18
I47
sbasg19
Nsba(i__main__
Mention
p284
(dp285
g7
S't7'
p286
sg9
Nsg10
S'i37'
p287
sg12
Nsg13
Nsg14
(lp288
(i__main__
Token
p289
(dp290
g18
I121
sba(i__main__
Token
p291
(dp292
g18
I122
sbasg19
Nsbasg7
g268
sg38
Nsba(i__main__
Chain
p293
(dp294
g3
(lp295
(i__main__
Mention
p296
(dp297
g7
S't8'
p298
sg9
Nsg10
S'i16'
p299
sg12
Nsg13
Nsg14
(lp300
(i__main__
Token
p301
(dp302
g18
I51
sba(i__main__
Token
p303
(dp304
g18
I52
sba(i__main__
Token
p305
(dp306
g18
I53
sbasg19
I53
sba(i__main__
Mention
p307
(dp308
g7
S't8'
p309
sg9
S'Coreference-Abbreviation'
p310
sg10
S'i17'
p311
sg12
S'i16'
p312
sg13
Nsg14
(lp313
(i__main__
Token
p314
(dp315
g18
I55
sbasg19
I55
sbasg7
g298
sg38
Nsba(i__main__
Chain
p316
(dp317
g3
(lp318
(i__main__
Mention
p319
(dp320
g7
S't9'
p321
sg9
Nsg10
S'i18'
p322
sg12
Nsg13
Nsg14
(lp323
(i__main__
Token
p324
(dp325
g18
I58
sbasg19
I58
sba(i__main__
Mention
p326
(dp327
g7
S't9'
p328
sg9
S'Coreference-NounComplement'
p329
sg10
S'i19'
p330
sg12
S'i18'
p331
sg13
Nsg14
(lp332
(i__main__
Token
p333
(dp334
g18
I59
sba(i__main__
Token
p335
(dp336
g18
I60
sbasg19
I60
sbasg7
g321
sg38
Nsba(i__main__
Chain
p337
(dp338
g3
(lp339
(i__main__
Mention
p340
(dp341
g7
S't10'
p342
sg9
Nsg10
S'i20'
p343
sg12
Nsg13
Nsg14
(lp344
(i__main__
Token
p345
(dp346
g18
I64
sba(i__main__
Token
p347
(dp348
g18
I65
sbasg19
I65
sba(i__main__
Mention
p349
(dp350
g7
S't10'
p351
sg9
S'Coreference-NounComplement'
p352
sg10
S'i21'
p353
sg12
S'i20'
p354
sg13
Nsg14
(lp355
(i__main__
Token
p356
(dp357
g18
I66
sba(i__main__
Token
p358
(dp359
g18
I67
sbasg19
I67
sbasg7
g342
sg38
Nsba(i__main__
Chain
p360
(dp361
g3
(lp362
(i__main__
Mention
p363
(dp364
g7
S't11'
p365
sg9
Nsg10
S'i27'
p366
sg12
Nsg13
Nsg14
(lp367
(i__main__
Token
p368
(dp369
g18
I96
sbasg19
I96
sba(i__main__
Mention
p370
(dp371
g7
S't11'
p372
sg9
S'Anaphora-C'
p373
sg10
S'i28'
p374
sg12
S'i27'
p375
sg13
Nsg14
(lp376
(i__main__
Token
p377
(dp378
g18
I99
sbasg19
I99
sbasg7
g365
sg38
Nsba(i__main__
Chain
p379
(dp380
g3
(lp381
(i__main__
Mention
p382
(dp383
g7
S't12'
p384
sg9
Nsg10
S'i32'
p385
sg12
Nsg13
Nsg14
(lp386
(i__main__
Token
p387
(dp388
g18
I108
sba(i__main__
Token
p389
(dp390
g18
I109
sba(i__main__
Token
p391
(dp392
g18
I110
sba(i__main__
Token
p393
(dp394
g18
I111
sba(i__main__
Token
p395
(dp396
g18
I112
sba(i__main__
Token
p397
(dp398
g18
I113
sba(i__main__
Token
p399
(dp400
g18
I114
sba(i__main__
Token
p401
(dp402
g18
I115
sba(i__main__
Token
p403
(dp404
g18
I116
sba(i__main__
Token
p405
(dp406
g18
I117
sbasg19
I116
sba(i__main__
Mention
p407
(dp408
g7
S't12'
p409
sg9
S'Anaphora-C'
p410
sg10
S'i34'
p411
sg12
S'i32'
p412
sg13
Nsg14
(lp413
(i__main__
Token
p414
(dp415
g18
I119
sbasg19
I119
sbasg7
g384
sg38
Nsba(i__main__
Chain
p416
(dp417
g3
(lp418
(i__main__
Mention
p419
(dp420
g7
S't13'
p421
sg9
Nsg10
S'i38'
p422
sg12
Nsg13
Nsg14
(lp423
(i__main__
Token
p424
(dp425
g18
I130
sbasg19
I130
sba(i__main__
Mention
p426
(dp427
g7
S't13'
p428
sg9
S'Anaphora-C'
p429
sg10
S'i40'
p430
sg12
S'i38'
p431
sg13
Nsg14
(lp432
(i__main__
Token
p433
(dp434
g18
I138
sbasg19
I138
sba(i__main__
Mention
p435
(dp436
g7
S't13'
p437
sg9
S'Coreference-Apposition'
p438
sg10
S'i41'
p439
sg12
S'i40'
p440
sg13
Nsg14
(lp441
(i__main__
Token
p442
(dp443
g18
I141
sbasg19
I141
sba(i__main__
Mention
p444
(dp445
g7
S't13'
p446
sg9
S'Coreference-Noun-Noun'
p447
sg10
S'i44'
p448
sg12
S'i41'
p449
sg13
Nsg14
(lp450
(i__main__
Token
p451
(dp452
g18
I156
sbasg19
I156
sbasg7
g421
sg38
Nsba(i__main__
Chain
p453
(dp454
g3
(lp455
(i__main__
Mention
p456
(dp457
g7
S't14'
p458
sg9
S'anaphora-?'
p459
sg10
S'i43'
p460
sg12
S'i43'
p461
sg13
Nsg14
(lp462
(i__main__
Token
p463
(dp464
g18
I149
sbasg19
I149
sba(i__main__
Mention
p465
(dp466
g7
S't14'
p467
sg9
S'Anaphora-RC'
p468
sg10
S'i45'
p469
sg12
S'i43'
p470
sg13
Nsg14
(lp471
(i__main__
Token
p472
(dp473
g18
I156
sba(i__main__
Token
p474
(dp475
g18
I157
sba(i__main__
Token
p476
(dp477
g18
I158
sba(i__main__
Token
p478
(dp479
g18
I159
sba(i__main__
Token
p480
(dp481
g18
I160
sba(i__main__
Token
p482
(dp483
g18
I161
sba(i__main__
Token
p484
(dp485
g18
I162
sbasg19
I160
sbasg7
g458
sg38
Nsba.