(lp0
(i__main__
Chain
p1
(dp2
S'mentionList'
p3
(lp4
(i__main__
Mention
p5
(dp6
S'chainId'
p7
S't1'
p8
sS'relType'
p9
NsS'mentionId'
p10
S'i1'
p11
sS'antecedentId'
p12
NsS'crefMod'
p13
NsS'tokenList'
p14
(lp15
(i__main__
Token
p16
(dp17
S'tokenId'
p18
I0
sba(i__main__
Token
p19
(dp20
g18
I1
sba(i__main__
Token
p21
(dp22
g18
I2
sbasS'mentionHead'
p23
I2
sba(i__main__
Mention
p24
(dp25
g7
S't1'
p26
sg9
S'Coreference-Abbreviation'
p27
sg10
S'i2'
p28
sg12
S'i1'
p29
sg13
Nsg14
(lp30
(i__main__
Token
p31
(dp32
g18
I4
sbasg23
I4
sba(i__main__
Mention
p33
(dp34
g7
S't1'
p35
sg9
S'Coreference-Identity'
p36
sg10
S'i13'
p37
sg12
S'i2'
p38
sg13
Nsg14
(lp39
(i__main__
Token
p40
(dp41
g18
I61
sbasg23
I61
sba(i__main__
Mention
p42
(dp43
g7
S't1'
p44
sg9
S'Coreference-RAbbreviation'
p45
sg10
S'i17'
p46
sg12
S'i13'
p47
sg13
Nsg14
(lp48
(i__main__
Token
p49
(dp50
g18
I83
sba(i__main__
Token
p51
(dp52
g18
I84
sba(i__main__
Token
p53
(dp54
g18
I85
sbasg23
I85
sba(i__main__
Mention
p55
(dp56
g7
S't1'
p57
sg9
S'Coreference-Abbreviation'
p58
sg10
S'i18'
p59
sg12
S'i17'
p60
sg13
Nsg14
(lp61
(i__main__
Token
p62
(dp63
g18
I86
sbasg23
I86
sba(i__main__
Mention
p64
(dp65
g7
S't1'
p66
sg9
S'Coreference-Identity'
p67
sg10
S'i60'
p68
sg12
S'i18'
p69
sg13
Nsg14
(lp70
(i__main__
Token
p71
(dp72
g18
I338
sbasg23
I338
sba(i__main__
Mention
p73
(dp74
g7
S't1'
p75
sg9
S'Coreference-Identity'
p76
sg10
S'i74'
p77
sg12
S'i60'
p78
sg13
Nsg14
(lp79
(i__main__
Token
p80
(dp81
g18
I405
sbasg23
I405
sba(i__main__
Mention
p82
(dp83
g7
S't1'
p84
sg9
S'Coreference-Identity'
p85
sg10
S'i75'
p86
sg12
S'i74'
p87
sg13
Nsg14
(lp88
(i__main__
Token
p89
(dp90
g18
I411
sbasg23
I411
sba(i__main__
Mention
p91
(dp92
g7
S't1'
p93
sg9
S'Coreference-Identity'
p94
sg10
S'i78'
p95
sg12
S'i75'
p96
sg13
Nsg14
(lp97
(i__main__
Token
p98
(dp99
g18
I433
sbasg23
I433
sbasg7
g8
sS'chainHead'
p100
Nsba(i__main__
Chain
p101
(dp102
g3
(lp103
(i__main__
Mention
p104
(dp105
g7
S't2'
p106
sg9
Nsg10
S'i3'
p107
sg12
Nsg13
Nsg14
(lp108
(i__main__
Token
p109
(dp110
g18
I22
sbasg23
I22
sba(i__main__
Mention
p111
(dp112
g7
S't2'
p113
sg9
S'Coreference-Noun-Noun'
p114
sg10
S'i4'
p115
sg12
S'i3'
p116
sg13
Nsg14
(lp117
(i__main__
Token
p118
(dp119
g18
I29
sbasg23
I29
sba(i__main__
Mention
p120
(dp121
g7
S't2'
p122
sg9
S'Coreference-Noun-Noun'
p123
sg10
S'i10'
p124
sg12
S'i4'
p125
sg13
Nsg14
(lp126
(i__main__
Token
p127
(dp128
g18
I56
sbasg23
I56
sba(i__main__
Mention
p129
(dp130
g7
S't2'
p131
sg9
S'Coreference-Identity'
p132
sg10
S'i19'
p133
sg12
S'i10'
p134
sg13
Nsg14
(lp135
(i__main__
Token
p136
(dp137
g18
I95
sbasg23
I95
sba(i__main__
Mention
p138
(dp139
g7
S't2'
p140
sg9
S'Coreference-Identity'
p141
sg10
S'i37'
p142
sg12
S'i19'
p143
sg13
Nsg14
(lp144
(i__main__
Token
p145
(dp146
g18
I227
sbasg23
I227
sba(i__main__
Mention
p147
(dp148
g7
S't2'
p149
sg9
S'Coreference-Identity'
p150
sg10
S'i59'
p151
sg12
S'i37'
p152
sg13
Nsg14
(lp153
(i__main__
Token
p154
(dp155
g18
I318
sbasg23
I318
sba(i__main__
Mention
p156
(dp157
g7
S't2'
p158
sg9
S'Coreference-Identity'
p159
sg10
S'i63'
p160
sg12
S'i59'
p161
sg13
Nsg14
(lp162
(i__main__
Token
p163
(dp164
g18
I359
sbasg23
I359
sbasg7
g106
sg100
Nsba(i__main__
Chain
p165
(dp166
g3
(lp167
(i__main__
Mention
p168
(dp169
g7
S't3'
p170
sg9
Nsg10
S'i5'
p171
sg12
Nsg13
Nsg14
(lp172
(i__main__
Token
p173
(dp174
g18
I31
sbasg23
I31
sba(i__main__
Mention
p175
(dp176
g7
S't3'
p177
sg9
S'Coreference-NounComplement'
p178
sg10
S'i6'
p179
sg12
S'i5'
p180
sg13
Nsg14
(lp181
(i__main__
Token
p182
(dp183
g18
I32
sba(i__main__
Token
p184
(dp185
g18
I33
sba(i__main__
Token
p186
(dp187
g18
I34
sbasg23
I34
sba(i__main__
Mention
p188
(dp189
g7
S't3'
p190
sg9
S'Coreference-Noun-Noun'
p191
sg10
S'i9'
p192
sg12
S'i6'
p193
sg13
Nsg14
(lp194
(i__main__
Token
p195
(dp196
g18
I55
sba(i__main__
Token
p197
(dp198
g18
I56
sba(i__main__
Token
p199
(dp200
g18
I57
sbasg23
I57
sba(i__main__
Mention
p201
(dp202
g7
S't3'
p203
sg9
S'Coreference-NounComplement'
p204
sg10
S'i11'
p205
sg12
S'i83'
p206
sg13
Nsg14
(lp207
(i__main__
Token
p208
(dp209
g18
I58
sba(i__main__
Token
p210
(dp211
g18
I59
sba(i__main__
Token
p212
(dp213
g18
I60
sbasg23
I60
sba(i__main__
Mention
p214
(dp215
g7
S't3'
p216
sg9
S'Coreference-Noun-Noun'
p217
sg10
S'i20'
p218
sg12
S'i11'
p219
sg13
Nsg14
(lp220
(i__main__
Token
p221
(dp222
g18
I95
sba(i__main__
Token
p223
(dp224
g18
I96
sbasg23
I96
sba(i__main__
Mention
p225
(dp226
g7
S't3'
p227
sg9
S'Coreference-NounComplement'
p228
sg10
S'i21'
p229
sg12
S'i20'
p230
sg13
Nsg14
(lp231
(i__main__
Token
p232
(dp233
g18
I97
sba(i__main__
Token
p234
(dp235
g18
I98
sba(i__main__
Token
p236
(dp237
g18
I99
sbasg23
I99
sba(i__main__
Mention
p238
(dp239
g7
S't3'
p240
sg9
S'Anaphora-C'
p241
sg10
S'i26'
p242
sg12
S'i21'
p243
sg13
Nsg14
(lp244
(i__main__
Token
p245
(dp246
g18
I146
sbasg23
I146
sba(i__main__
Mention
p247
(dp248
g7
S't3'
p249
sg9
S'Coreference-Identity'
p250
sg10
S'i29'
p251
sg12
S'i75'
p252
sg13
Nsg14
(lp253
(i__main__
Token
p254
(dp255
g18
I163
sbasg23
I163
sba(i__main__
Mention
p256
(dp257
g7
S't3'
p258
sg9
S'Anaphora-C'
p259
sg10
S'i30'
p260
sg12
S'i29'
p261
sg13
Nsg14
(lp262
(i__main__
Token
p263
(dp264
g18
I197
sbasg23
I197
sba(i__main__
Mention
p265
(dp266
g7
S't3'
p267
sg9
S'Coreference-Identity'
p268
sg10
S'i38'
p269
sg12
S'i30'
p270
sg13
Nsg14
(lp271
(i__main__
Token
p272
(dp273
g18
I236
sbasg23
I236
sba(i__main__
Mention
p274
(dp275
g7
S't3'
p276
sg9
S'Anaphora-C'
p277
sg10
S'i39'
p278
sg12
S'i38'
p279
sg13
Nsg14
(lp280
(i__main__
Token
p281
(dp282
g18
I240
sbasg23
I240
sba(i__main__
Mention
p283
(dp284
g7
S't3'
p285
sg9
S'Anaphora-C'
p286
sg10
S'i41'
p287
sg12
S'i39'
p288
sg13
Nsg14
(lp289
(i__main__
Token
p290
(dp291
g18
I248
sbasg23
I248
sba(i__main__
Mention
p292
(dp293
g7
S't3'
p294
sg9
S'Coreference-Identity'
p295
sg10
S'i45'
p296
sg12
S'i41'
p297
sg13
Nsg14
(lp298
(i__main__
Token
p299
(dp300
g18
I262
sba(i__main__
Token
p301
(dp302
g18
I263
sbasg23
I263
sba(i__main__
Mention
p303
(dp304
g7
S't3'
p305
sg9
S'Anaphora-C'
p306
sg10
S'i48'
p307
sg12
S'i45'
p308
sg13
Nsg14
(lp309
(i__main__
Token
p310
(dp311
g18
I277
sbasg23
I277
sba(i__main__
Mention
p312
(dp313
g7
S't3'
p314
sg9
S'Anaphora-C'
p315
sg10
S'i52'
p316
sg12
S'i48'
p317
sg13
Nsg14
(lp318
(i__main__
Token
p319
(dp320
g18
I291
sbasg23
I291
sba(i__main__
Mention
p321
(dp322
g7
S't3'
p323
sg9
S'Anaphora-C'
p324
sg10
S'i56'
p325
sg12
S'i52'
p326
sg13
Nsg14
(lp327
(i__main__
Token
p328
(dp329
g18
I299
sbasg23
I299
sba(i__main__
Mention
p330
(dp331
g7
S't3'
p332
sg9
S'Coreference-Noun-Noun'
p333
sg10
S'i64'
p334
sg12
S'i80'
p335
sg13
Nsg14
(lp336
(i__main__
Token
p337
(dp338
g18
I359
sba(i__main__
Token
p339
(dp340
g18
I360
sbasg23
I360
sba(i__main__
Mention
p341
(dp342
g7
S't3'
p343
sg9
S'Coreference-NounComplement'
p344
sg10
S'i66'
p345
sg12
S'i64'
p346
sg13
Nsg14
(lp347
(i__main__
Token
p348
(dp349
g18
I361
sba(i__main__
Token
p350
(dp351
g18
I362
sba(i__main__
Token
p352
(dp353
g18
I363
sbasg23
I363
sbasg7
g170
sg100
Nsba(i__main__
Chain
p354
(dp355
g3
(lp356
(i__main__
Mention
p357
(dp358
g7
S't4'
p359
sg9
Nsg10
S'i7'
p360
sg12
Nsg13
Nsg14
(lp361
(i__main__
Token
p362
(dp363
g18
I36
sba(i__main__
Token
p364
(dp365
g18
I37
sba(i__main__
Token
p366
(dp367
g18
I38
sbasg23
I38
sba(i__main__
Mention
p368
(dp369
g7
S't4'
p370
sg9
S'Coreference-Identity'
p371
sg10
S'i25'
p372
sg12
S'i7'
p373
sg13
Nsg14
(lp374
(i__main__
Token
p375
(dp376
g18
I137
sbasg23
I137
sba(i__main__
Mention
p377
(dp378
g7
S't4'
p379
sg9
S'Coreference-Identity'
p380
sg10
S'i35'
p381
sg12
S'i25'
p382
sg13
Nsg14
(lp383
(i__main__
Token
p384
(dp385
g18
I207
sbasg23
I207
sba(i__main__
Mention
p386
(dp387
g7
S't4'
p388
sg9
S'Coreference-Identity'
p389
sg10
S'i36'
p390
sg12
S'i35'
p391
sg13
Nsg14
(lp392
(i__main__
Token
p393
(dp394
g18
I222
sbasg23
I222
sbasg7
g359
sg100
Nsba(i__main__
Chain
p395
(dp396
g3
(lp397
(i__main__
Mention
p398
(dp399
g7
S't5'
p400
sg9
Nsg10
S'i8'
p401
sg12
Nsg13
Nsg14
(lp402
(i__main__
Token
p403
(dp404
g18
I42
sbasg23
I42
sba(i__main__
Mention
p405
(dp406
g7
S't5'
p407
sg9
S'Coreference-Identity'
p408
sg10
S'i14'
p409
sg12
S'i8'
p410
sg13
Nsg14
(lp411
(i__main__
Token
p412
(dp413
g18
I78
sbasg23
I78
sba(i__main__
Mention
p414
(dp415
g7
S't5'
p416
sg9
S'Coreference-Identity'
p417
sg10
S'i22'
p418
sg12
S'i14'
p419
sg13
Nsg14
(lp420
(i__main__
Token
p421
(dp422
g18
I108
sbasg23
I108
sba(i__main__
Mention
p423
(dp424
g7
S't5'
p425
sg9
S'Coreference-Identity'
p426
sg10
S'i32'
p427
sg12
S'i22'
p428
sg13
Nsg14
(lp429
(i__main__
Token
p430
(dp431
g18
I201
sbasg23
I201
sba(i__main__
Mention
p432
(dp433
g7
S't5'
p434
sg9
S'Anaphora-C'
p435
sg10
S'i33'
p436
sg12
S'i32'
p437
sg13
Nsg14
(lp438
(i__main__
Token
p439
(dp440
g18
I206
sbasg23
I206
sba(i__main__
Mention
p441
(dp442
g7
S't5'
p443
sg9
S'Coreference-Identity'
p444
sg10
S'i40'
p445
sg12
S'i33'
p446
sg13
Nsg14
(lp447
(i__main__
Token
p448
(dp449
g18
I243
sbasg23
I243
sba(i__main__
Mention
p450
(dp451
g7
S't5'
p452
sg9
S'Coreference-Identity'
p453
sg10
S'i47'
p454
sg12
S'i40'
p455
sg13
Nsg14
(lp456
(i__main__
Token
p457
(dp458
g18
I273
sbasg23
I273
sba(i__main__
Mention
p459
(dp460
g7
S't5'
p461
sg9
S'Coreference-Identity'
p462
sg10
S'i67'
p463
sg12
S'i47'
p464
sg13
Nsg14
(lp465
(i__main__
Token
p466
(dp467
g18
I373
sbasg23
I373
sba(i__main__
Mention
p468
(dp469
g7
S't5'
p470
sg9
S'Coreference-Noun-Noun'
p471
sg10
S'i68'
p472
sg12
S'i67'
p473
sg13
Nsg14
(lp474
(i__main__
Token
p475
(dp476
g18
I378
sbasg23
I378
sba(i__main__
Mention
p477
(dp478
g7
S't5'
p479
sg9
S'Anaphora-C'
p480
sg10
S'i69'
p481
sg12
S'i68'
p482
sg13
Nsg14
(lp483
(i__main__
Token
p484
(dp485
g18
I380
sbasg23
I380
sba(i__main__
Mention
p486
(dp487
g7
S't5'
p488
sg9
S'Coreference-Noun-Noun'
p489
sg10
S'i77'
p490
sg12
S'i82'
p491
sg13
Nsg14
(lp492
(i__main__
Token
p493
(dp494
g18
I423
sbasg23
I423
sbasg7
g400
sg100
Nsba(i__main__
Chain
p495
(dp496
g3
(lp497
(i__main__
Mention
p498
(dp499
g7
S't6'
p500
sg9
Nsg10
S'i15'
p501
sg12
Nsg13
Nsg14
(lp502
(i__main__
Token
p503
(dp504
g18
I78
sba(i__main__
Token
p505
(dp506
g18
I79
sbasg23
I79
sba(i__main__
Mention
p507
(dp508
g7
S't6'
p509
sg9
S'Coreference-NounComplement'
p510
sg10
S'i16'
p511
sg12
S'i15'
p512
sg13
Nsg14
(lp513
(i__main__
Token
p514
(dp515
g18
I80
sba(i__main__
Token
p516
(dp517
g18
I81
sbasg23
I81
sba(i__main__
Mention
p518
(dp519
g7
S't6'
p520
sg9
S'Coreference-Identity'
p521
sg10
S'i73'
p522
sg12
S'i16'
p523
sg13
Nsg14
(lp524
(i__main__
Token
p525
(dp526
g18
I399
sba(i__main__
Token
p527
(dp528
g18
I400
sbasg23
I400
sba(i__main__
Mention
p529
(dp530
g7
S't6'
p531
sg9
S'Coreference-Identity'
p532
sg10
S'i76'
p533
sg12
S'i73'
p534
sg13
Nsg14
(lp535
(i__main__
Token
p536
(dp537
g18
I418
sba(i__main__
Token
p538
(dp539
g18
I419
sbasg23
I419
sbasg7
g500
sg100
Nsba(i__main__
Chain
p540
(dp541
g3
(lp542
(i__main__
Mention
p543
(dp544
g7
S't7'
p545
sg9
Nsg10
S'i23'
p546
sg12
Nsg13
Nsg14
(lp547
(i__main__
Token
p548
(dp549
g18
I129
sba(i__main__
Token
p550
(dp551
g18
I130
sbasg23
I130
sba(i__main__
Mention
p552
(dp553
g7
S't7'
p554
sg9
S'Anaphora-C'
p555
sg10
S'i24'
p556
sg12
S'i23'
p557
sg13
Nsg14
(lp558
(i__main__
Token
p559
(dp560
g18
I136
sbasg23
I136
sbasg7
g545
sg100
Nsba(i__main__
Chain
p561
(dp562
g3
(lp563
(i__main__
Mention
p564
(dp565
g7
S't8'
p566
sg9
S'anaphora-?'
p567
sg10
S'i28'
p568
sg12
S'i28'
p569
sg13
Nsg14
(lp570
(i__main__
Token
p571
(dp572
g18
I148
sbasg23
I148
sbasg7
g566
sg100
Nsba(i__main__
Chain
p573
(dp574
g3
(lp575
(i__main__
Mention
p576
(dp577
g7
S't9'
p578
sg9
Nsg10
S'i31'
p579
sg12
Nsg13
Nsg14
(lp580
(i__main__
Token
p581
(dp582
g18
I200
sbasg23
I200
sba(i__main__
Mention
p583
(dp584
g7
S't9'
p585
sg9
S'Anaphora-RC'
p586
sg10
S'i34'
p587
sg12
S'i31'
p588
sg13
Nsg14
(lp589
(i__main__
Token
p590
(dp591
g18
I206
sba(i__main__
Token
p592
(dp593
g18
I207
sba(i__main__
Token
p594
(dp595
g18
I208
sba(i__main__
Token
p596
(dp597
g18
I209
sba(i__main__
Token
p598
(dp599
g18
I210
sba(i__main__
Token
p600
(dp601
g18
I211
sba(i__main__
Token
p602
(dp603
g18
I212
sba(i__main__
Token
p604
(dp605
g18
I213
sbasg23
I210
sbasg7
g578
sg100
Nsba(i__main__
Chain
p606
(dp607
g3
(lp608
(i__main__
Mention
p609
(dp610
g7
S't10'
p611
sg9
S'anaphora-E'
p612
sg10
S'i42'
p613
sg12
S'i43'
p614
sg13
Nsg14
(lp615
(i__main__
Token
p616
(dp617
g18
I251
sbasg23
I251
sba(i__main__
Mention
p618
(dp619
g7
S't10'
p620
sg9
S'Anaphora-C'
p621
sg10
S'i44'
p622
sg12
S'i42'
p623
sg13
Nsg14
(lp624
(i__main__
Token
p625
(dp626
g18
I255
sbasg23
I255
sbasg7
g611
sg100
Nsba(i__main__
Chain
p627
(dp628
g3
(lp629
(i__main__
Mention
p630
(dp631
g7
S't11'
p632
sg9
Nsg10
S'i46'
p633
sg12
Nsg13
Nsg14
(lp634
(i__main__
Token
p635
(dp636
g18
I265
sba(i__main__
Token
p637
(dp638
g18
I266
sba(i__main__
Token
p639
(dp640
g18
I267
sbasg23
I267
sba(i__main__
Mention
p641
(dp642
g7
S't11'
p643
sg9
S'Anaphora-C'
p644
sg10
S'i50'
p645
sg12
S'i46'
p646
sg13
Nsg14
(lp647
(i__main__
Token
p648
(dp649
g18
I278
sbasg23
I278
sbasg7
g632
sg100
Nsba(i__main__
Chain
p650
(dp651
g3
(lp652
(i__main__
Mention
p653
(dp654
g7
S't12'
p655
sg9
S'anaphora-?'
p656
sg10
S'i51'
p657
sg12
S'i51'
p658
sg13
Nsg14
(lp659
(i__main__
Token
p660
(dp661
g18
I285
sbasg23
I285
sbasg7
g655
sg100
Nsba(i__main__
Chain
p662
(dp663
g3
(lp664
(i__main__
Mention
p665
(dp666
g7
S't13'
p667
sg9
Nsg10
S'i54'
p668
sg12
Nsg13
Nsg14
(lp669
(i__main__
Token
p670
(dp671
g18
I292
sbasg23
I292
sba(i__main__
Mention
p672
(dp673
g7
S't13'
p674
sg9
S'Anaphora-RC'
p675
sg10
S'i55'
p676
sg12
S'i54'
p677
sg13
Nsg14
(lp678
(i__main__
Token
p679
(dp680
g18
I296
sba(i__main__
Token
p681
(dp682
g18
I297
sba(i__main__
Token
p683
(dp684
g18
I298
sba(i__main__
Token
p685
(dp686
g18
I299
sba(i__main__
Token
p687
(dp688
g18
I300
sba(i__main__
Token
p689
(dp690
g18
I301
sba(i__main__
Token
p691
(dp692
g18
I302
sba(i__main__
Token
p693
(dp694
g18
I303
sba(i__main__
Token
p695
(dp696
g18
I304
sba(i__main__
Token
p697
(dp698
g18
I305
sba(i__main__
Token
p699
(dp700
g18
I306
sba(i__main__
Token
p701
(dp702
g18
I307
sba(i__main__
Token
p703
(dp704
g18
I308
sba(i__main__
Token
p705
(dp706
g18
I309
sba(i__main__
Token
p707
(dp708
g18
I310
sba(i__main__
Token
p709
(dp710
g18
I311
sba(i__main__
Token
p711
(dp712
g18
I312
sba(i__main__
Token
p713
(dp714
g18
I313
sba(i__main__
Token
p715
(dp716
g18
I314
sba(i__main__
Token
p717
(dp718
g18
I315
sba(i__main__
Token
p719
(dp720
g18
I316
sbasg23
I316
sbasg7
g667
sg100
Nsba(i__main__
Chain
p721
(dp722
g3
(lp723
(i__main__
Mention
p724
(dp725
g7
S't14'
p726
sg9
S'anaphora-?'
p727
sg10
S'i58'
p728
sg12
S'i58'
p729
sg13
Nsg14
(lp730
(i__main__
Token
p731
(dp732
g18
I301
sbasg23
I301
sbasg7
g726
sg100
Nsba(i__main__
Chain
p733
(dp734
g3
(lp735
(i__main__
Mention
p736
(dp737
g7
S't15'
p738
sg9
Nsg10
S'i61'
p739
sg12
Nsg13
Nsg14
(lp740
(i__main__
Token
p741
(dp742
g18
I349
sba(i__main__
Token
p743
(dp744
g18
I350
sba(i__main__
Token
p745
(dp746
g18
I351
sbasg23
I351
sba(i__main__
Mention
p747
(dp748
g7
S't15'
p749
sg9
S'Anaphora-C'
p750
sg10
S'i62'
p751
sg12
S'i61'
p752
sg13
Nsg14
(lp753
(i__main__
Token
p754
(dp755
g18
I357
sbasg23
I357
sbasg7
g738
sg100
Nsba(i__main__
Chain
p756
(dp757
g3
(lp758
(i__main__
Mention
p759
(dp760
g7
S't16'
p761
sg9
Nsg10
S'i71'
p762
sg12
Nsg13
Nsg14
(lp763
(i__main__
Token
p764
(dp765
g18
I392
sbasg23
I392
sba(i__main__
Mention
p766
(dp767
g7
S't16'
p768
sg9
S'Anaphora-C'
p769
sg10
S'i72'
p770
sg12
S'i71'
p771
sg13
Nsg14
(lp772
(i__main__
Token
p773
(dp774
g18
I398
sbasg23
I398
sbasg7
g761
sg100
Nsba.