(lp0
(i__main__
Chain
p1
(dp2
S'mentionList'
p3
(lp4
(i__main__
Mention
p5
(dp6
S'chainId'
p7
S't1'
p8
sS'relType'
p9
NsS'mentionId'
p10
S'i1'
p11
sS'antecedentId'
p12
NsS'crefMod'
p13
NsS'tokenList'
p14
(lp15
(i__main__
Token
p16
(dp17
S'tokenId'
p18
I0
sba(i__main__
Token
p19
(dp20
g18
I1
sba(i__main__
Token
p21
(dp22
g18
I2
sbasS'mentionHead'
p23
I2
sba(i__main__
Mention
p24
(dp25
g7
S't1'
p26
sg9
S'Coreference-Noun-Noun'
p27
sg10
S'i7'
p28
sg12
S'i1'
p29
sg13
Nsg14
(lp30
(i__main__
Token
p31
(dp32
g18
I39
sbasg23
I39
sba(i__main__
Mention
p33
(dp34
g7
S't1'
p35
sg9
S'Coreference-Noun-Noun'
p36
sg10
S'i28'
p37
sg12
S'i7'
p38
sg13
Nsg14
(lp39
(i__main__
Token
p40
(dp41
g18
I144
sbasg23
I144
sba(i__main__
Mention
p42
(dp43
g7
S't1'
p44
sg9
S'Coreference-Apposition'
p45
sg10
S'i30'
p46
sg12
S'i28'
p47
sg13
Nsg14
(lp48
(i__main__
Token
p49
(dp50
g18
I148
sbasg23
I148
sba(i__main__
Mention
p51
(dp52
g7
S't1'
p53
sg9
S'Coreference-Noun-Noun'
p54
sg10
S'i32'
p55
sg12
S'i30'
p56
sg13
Nsg14
(lp57
(i__main__
Token
p58
(dp59
g18
I155
sba(i__main__
Token
p60
(dp61
g18
I156
sbasg23
I156
sba(i__main__
Mention
p62
(dp63
g7
S't1'
p64
sg9
S'Anaphora-C'
p65
sg10
S'i35'
p66
sg12
S'i32'
p67
sg13
Nsg14
(lp68
(i__main__
Token
p69
(dp70
g18
I174
sbasg23
I174
sba(i__main__
Mention
p71
(dp72
g7
S't1'
p73
sg9
S'Coreference-Noun-Noun'
p74
sg10
S'i39'
p75
sg12
S'i35'
p76
sg13
Nsg14
(lp77
(i__main__
Token
p78
(dp79
g18
I191
sbasg23
I191
sba(i__main__
Mention
p80
(dp81
g7
S't1'
p82
sg9
S'Coreference-Identity'
p83
sg10
S'i57'
p84
sg12
S'i39'
p85
sg13
Nsg14
(lp86
(i__main__
Token
p87
(dp88
g18
I260
sbasg23
I260
sbasg7
g8
sS'chainHead'
p89
Nsba(i__main__
Chain
p90
(dp91
g3
(lp92
(i__main__
Mention
p93
(dp94
g7
S't2'
p95
sg9
Nsg10
S'i2'
p96
sg12
Nsg13
Nsg14
(lp97
(i__main__
Token
p98
(dp99
g18
I11
sbasg23
I11
sba(i__main__
Mention
p100
(dp101
g7
S't2'
p102
sg9
S'Coreference-Identity'
p103
sg10
S'i12'
p104
sg12
S'i2'
p105
sg13
Nsg14
(lp106
(i__main__
Token
p107
(dp108
g18
I67
sbasg23
I67
sba(i__main__
Mention
p109
(dp110
g7
S't2'
p111
sg9
S'Coreference-Noun-Noun'
p112
sg10
S'i14'
p113
sg12
S'i12'
p114
sg13
Nsg14
(lp115
(i__main__
Token
p116
(dp117
g18
I73
sbasg23
I73
sba(i__main__
Mention
p118
(dp119
g7
S't2'
p120
sg9
S'Coreference-Noun-Noun'
p121
sg10
S'i17'
p122
sg12
S'i14'
p123
sg13
Nsg14
(lp124
(i__main__
Token
p125
(dp126
g18
I86
sbasg23
I86
sba(i__main__
Mention
p127
(dp128
g7
S't2'
p129
sg9
S'Coreference-Identity'
p130
sg10
S'i54'
p131
sg12
S'i17'
p132
sg13
Nsg14
(lp133
(i__main__
Token
p134
(dp135
g18
I249
sbasg23
I249
sba(i__main__
Mention
p136
(dp137
g7
S't2'
p138
sg9
S'Coreference-Identity'
p139
sg10
S'i60'
p140
sg12
S'i54'
p141
sg13
Nsg14
(lp142
(i__main__
Token
p143
(dp144
g18
I277
sbasg23
I277
sba(i__main__
Mention
p145
(dp146
g7
S't2'
p147
sg9
S'Coreference-Noun-Noun'
p148
sg10
S'i76'
p149
sg12
S'i60'
p150
sg13
Nsg14
(lp151
(i__main__
Token
p152
(dp153
g18
I333
sbasg23
I333
sba(i__main__
Mention
p154
(dp155
g7
S't2'
p156
sg9
S'Coreference-Noun-Noun'
p157
sg10
S'i85'
p158
sg12
S'i76'
p159
sg13
Nsg14
(lp160
(i__main__
Token
p161
(dp162
g18
I355
sbasg23
I355
sba(i__main__
Mention
p163
(dp164
g7
S't2'
p165
sg9
S'Coreference-Noun-Noun'
p166
sg10
S'i97'
p167
sg12
S'i85'
p168
sg13
Nsg14
(lp169
(i__main__
Token
p170
(dp171
g18
I397
sbasg23
I397
sbasg7
g95
sg89
Nsba(i__main__
Chain
p172
(dp173
g3
(lp174
(i__main__
Mention
p175
(dp176
g7
S't3'
p177
sg9
Nsg10
S'i3'
p178
sg12
Nsg13
Nsg14
(lp179
(i__main__
Token
p180
(dp181
g18
I14
sba(i__main__
Token
p182
(dp183
g18
I15
sbasg23
I15
sba(i__main__
Mention
p184
(dp185
g7
S't3'
p186
sg9
S'Coreference-Identity'
p187
sg10
S'i5'
p188
sg12
S'i3'
p189
sg13
Nsg14
(lp190
(i__main__
Token
p191
(dp192
g18
I27
sbasg23
I27
sba(i__main__
Mention
p193
(dp194
g7
S't3'
p195
sg9
S'Coreference-Identity'
p196
sg10
S'i8'
p197
sg12
S'i5'
p198
sg13
Nsg14
(lp199
(i__main__
Token
p200
(dp201
g18
I52
sbasg23
I52
sba(i__main__
Mention
p202
(dp203
g7
S't3'
p204
sg9
S'Anaphora-C'
p205
sg10
S'i11'
p206
sg12
S'i8'
p207
sg13
Nsg14
(lp208
(i__main__
Token
p209
(dp210
g18
I66
sbasg23
I66
sba(i__main__
Mention
p211
(dp212
g7
S't3'
p213
sg9
S'Coreference-Identity'
p214
sg10
S'i15'
p215
sg12
S'i11'
p216
sg13
Nsg14
(lp217
(i__main__
Token
p218
(dp219
g18
I80
sbasg23
I80
sba(i__main__
Mention
p220
(dp221
g7
S't3'
p222
sg9
S'Coreference-Identity'
p223
sg10
S'i23'
p224
sg12
S'i15'
p225
sg13
Nsg14
(lp226
(i__main__
Token
p227
(dp228
g18
I122
sbasg23
I122
sba(i__main__
Mention
p229
(dp230
g7
S't3'
p231
sg9
S'Coreference-Identity'
p232
sg10
S'i25'
p233
sg12
S'i23'
p234
sg13
Nsg14
(lp235
(i__main__
Token
p236
(dp237
g18
I132
sbasg23
I132
sba(i__main__
Mention
p238
(dp239
g7
S't3'
p240
sg9
S'Coreference-Identity'
p241
sg10
S'i40'
p242
sg12
S'i25'
p243
sg13
Nsg14
(lp244
(i__main__
Token
p245
(dp246
g18
I200
sbasg23
I200
sba(i__main__
Mention
p247
(dp248
g7
S't3'
p249
sg9
S'Anaphora-C'
p250
sg10
S'i43'
p251
sg12
S'i40'
p252
sg13
Nsg14
(lp253
(i__main__
Token
p254
(dp255
g18
I211
sbasg23
I211
sba(i__main__
Mention
p256
(dp257
g7
S't3'
p258
sg9
S'Coreference-Identity'
p259
sg10
S'i49'
p260
sg12
S'i43'
p261
sg13
Nsg14
(lp262
(i__main__
Token
p263
(dp264
g18
I235
sbasg23
I235
sba(i__main__
Mention
p265
(dp266
g7
S't3'
p267
sg9
S'Coreference-Identity'
p268
sg10
S'i58'
p269
sg12
S'i49'
p270
sg13
Nsg14
(lp271
(i__main__
Token
p272
(dp273
g18
I270
sbasg23
I270
sba(i__main__
Mention
p274
(dp275
g7
S't3'
p276
sg9
S'Anaphora-C'
p277
sg10
S'i59'
p278
sg12
S'i58'
p279
sg13
Nsg14
(lp280
(i__main__
Token
p281
(dp282
g18
I273
sbasg23
I273
sba(i__main__
Mention
p283
(dp284
g7
S't3'
p285
sg9
S'Coreference-Noun-Noun'
p286
sg10
S'i67'
p287
sg12
S'i59'
p288
sg13
Nsg14
(lp289
(i__main__
Token
p290
(dp291
g18
I292
sba(i__main__
Token
p292
(dp293
g18
I293
sbasg23
I293
sba(i__main__
Mention
p294
(dp295
g7
S't3'
p296
sg9
S'Coreference-Noun-Noun'
p297
sg10
S'i79'
p298
sg12
S'i67'
p299
sg13
Nsg14
(lp300
(i__main__
Token
p301
(dp302
g18
I340
sbasg23
I340
sba(i__main__
Mention
p303
(dp304
g7
S't3'
p305
sg9
S'Coreference-Apposition'
p306
sg10
S'i81'
p307
sg12
S'i79'
p308
sg13
Nsg14
(lp309
(i__main__
Token
p310
(dp311
g18
I342
sbasg23
I342
sba(i__main__
Mention
p312
(dp313
g7
S't3'
p314
sg9
S'Coreference-Noun-Noun'
p315
sg10
S'i88'
p316
sg12
S'i81'
p317
sg13
Nsg14
(lp318
(i__main__
Token
p319
(dp320
g18
I364
sbasg23
I364
sba(i__main__
Mention
p321
(dp322
g7
S't3'
p323
sg9
S'Anaphora-C'
p324
sg10
S'i92'
p325
sg12
S'i88'
p326
sg13
Nsg14
(lp327
(i__main__
Token
p328
(dp329
g18
I372
sbasg23
I372
sba(i__main__
Mention
p330
(dp331
g7
S't3'
p332
sg9
S'Coreference-Identity'
p333
sg10
S'i101'
p334
sg12
S'i92'
p335
sg13
Nsg14
(lp336
(i__main__
Token
p337
(dp338
g18
I407
sba(i__main__
Token
p339
(dp340
g18
I408
sba(i__main__
Token
p341
(dp342
g18
I409
sbasg23
I409
sba(i__main__
Mention
p343
(dp344
g7
S't3'
p345
sg9
S'Anaphora-C'
p346
sg10
S'i103'
p347
sg12
S'i101'
p348
sg13
Nsg14
(lp349
(i__main__
Token
p350
(dp351
g18
I422
sbasg23
I422
sbasg7
g177
sg89
Nsba(i__main__
Chain
p352
(dp353
g3
(lp354
(i__main__
Mention
p355
(dp356
g7
S't4'
p357
sg9
Nsg10
S'i4'
p358
sg12
Nsg13
Nsg14
(lp359
(i__main__
Token
p360
(dp361
g18
I21
sba(i__main__
Token
p362
(dp363
g18
I22
sba(i__main__
Token
p364
(dp365
g18
I23
sba(i__main__
Token
p366
(dp367
g18
I24
sba(i__main__
Token
p368
(dp369
g18
I25
sbasg23
I25
sba(i__main__
Mention
p370
(dp371
g7
S't4'
p372
sg9
S'Anaphora-C'
p373
sg10
S'i19'
p374
sg12
S'i4'
p375
sg13
Nsg14
(lp376
(i__main__
Token
p377
(dp378
g18
I97
sbasg23
I97
sba(i__main__
Mention
p379
(dp380
g7
S't4'
p381
sg9
S'Anaphora-C'
p382
sg10
S'i22'
p383
sg12
S'i19'
p384
sg13
Nsg14
(lp385
(i__main__
Token
p386
(dp387
g18
I121
sbasg23
I121
sba(i__main__
Mention
p388
(dp389
g7
S't4'
p390
sg9
S'Anaphora-C'
p391
sg10
S'i24'
p392
sg12
S'i22'
p393
sg13
Nsg14
(lp394
(i__main__
Token
p395
(dp396
g18
I128
sbasg23
I128
sba(i__main__
Mention
p397
(dp398
g7
S't4'
p399
sg9
S'Coreference-Identity'
p400
sg10
S'i31'
p401
sg12
S'i24'
p402
sg13
Nsg14
(lp403
(i__main__
Token
p404
(dp405
g18
I151
sbasg23
I151
sba(i__main__
Mention
p406
(dp407
g7
S't4'
p408
sg9
S'Anaphora-C'
p409
sg10
S'i36'
p410
sg12
S'i31'
p411
sg13
Nsg14
(lp412
(i__main__
Token
p413
(dp414
g18
I179
sbasg23
I179
sbasg7
g357
sg89
Nsba(i__main__
Chain
p415
(dp416
g3
(lp417
(i__main__
Mention
p418
(dp419
g7
S't5'
p420
sg9
Nsg10
S'i6'
p421
sg12
Nsg13
Nsg14
(lp422
(i__main__
Token
p423
(dp424
g18
I37
sbasg23
I37
sba(i__main__
Mention
p425
(dp426
g7
S't5'
p427
sg9
S'Coreference-Identity'
p428
sg10
S'i29'
p429
sg12
S'i6'
p430
sg13
Nsg14
(lp431
(i__main__
Token
p432
(dp433
g18
I146
sbasg23
I146
sba(i__main__
Mention
p434
(dp435
g7
S't5'
p436
sg9
S'Coreference-Identity'
p437
sg10
S'i33'
p438
sg12
S'i29'
p439
sg13
Nsg14
(lp440
(i__main__
Token
p441
(dp442
g18
I162
sbasg23
I162
sba(i__main__
Mention
p443
(dp444
g7
S't5'
p445
sg9
S'Coreference-Identity'
p446
sg10
S'i34'
p447
sg12
S'i33'
p448
sg13
Nsg14
(lp449
(i__main__
Token
p450
(dp451
g18
I170
sbasg23
I170
sba(i__main__
Mention
p452
(dp453
g7
S't5'
p454
sg9
S'Coreference-Identity'
p455
sg10
S'i91'
p456
sg12
S'i34'
p457
sg13
Nsg14
(lp458
(i__main__
Token
p459
(dp460
g18
I368
sbasg23
I368
sbasg7
g420
sg89
Nsba(i__main__
Chain
p461
(dp462
g3
(lp463
(i__main__
Mention
p464
(dp465
g7
S't6'
p466
sg9
Nsg10
S'i9'
p467
sg12
Nsg13
Nsg14
(lp468
(i__main__
Token
p469
(dp470
g18
I54
sbasg23
I54
sba(i__main__
Mention
p471
(dp472
g7
S't6'
p473
sg9
S'Coreference-Identity'
p474
sg10
S'i41'
p475
sg12
S'i9'
p476
sg13
Nsg14
(lp477
(i__main__
Token
p478
(dp479
g18
I202
sbasg23
I202
sbasg7
g466
sg89
Nsba(i__main__
Chain
p480
(dp481
g3
(lp482
(i__main__
Mention
p483
(dp484
g7
S't7'
p485
sg9
Nsg10
S'i10'
p486
sg12
Nsg13
Nsg14
(lp487
(i__main__
Token
p488
(dp489
g18
I61
sba(i__main__
Token
p490
(dp491
g18
I62
sba(i__main__
Token
p492
(dp493
g18
I63
sba(i__main__
Token
p494
(dp495
g18
I64
sbasg23
I64
sba(i__main__
Mention
p496
(dp497
g7
S't7'
p498
sg9
S'Coreference-Identity'
p499
sg10
S'i18'
p500
sg12
S'i10'
p501
sg13
Nsg14
(lp502
(i__main__
Token
p503
(dp504
g18
I88
sbasg23
I88
sba(i__main__
Mention
p505
(dp506
g7
S't7'
p507
sg9
S'Coreference-Identity'
p508
sg10
S'i42'
p509
sg12
S'i18'
p510
sg13
Nsg14
(lp511
(i__main__
Token
p512
(dp513
g18
I209
sbasg23
I209
sba(i__main__
Mention
p514
(dp515
g7
S't7'
p516
sg9
S'Coreference-Identity'
p517
sg10
S'i46'
p518
sg12
S'i42'
p519
sg13
Nsg14
(lp520
(i__main__
Token
p521
(dp522
g18
I227
sbasg23
I227
sba(i__main__
Mention
p523
(dp524
g7
S't7'
p525
sg9
S'Coreference-Bracketed/Abbraviation'
p526
sg10
S'i51'
p527
sg12
S'i41'
p528
sg13
Nsg14
(lp529
(i__main__
Token
p530
(dp531
g18
I239
sbasg23
I239
sba(i__main__
Mention
p532
(dp533
g7
S't7'
p534
sg9
S'Coreference-Noun-Noun'
p535
sg10
S'i70'
p536
sg12
S'i51'
p537
sg13
Nsg14
(lp538
(i__main__
Token
p539
(dp540
g18
I313
sbasg23
I313
sba(i__main__
Mention
p541
(dp542
g7
S't7'
p543
sg9
S'Coreference-Identity'
p544
sg10
S'i95'
p545
sg12
S'i70'
p546
sg13
Nsg14
(lp547
(i__main__
Token
p548
(dp549
g18
I387
sbasg23
I387
sbasg7
g485
sg89
Nsba(i__main__
Chain
p550
(dp551
g3
(lp552
(i__main__
Mention
p553
(dp554
g7
S't8'
p555
sg9
Nsg10
S'i13'
p556
sg12
Nsg13
Nsg14
(lp557
(i__main__
Token
p558
(dp559
g18
I71
sbasg23
I71
sba(i__main__
Mention
p560
(dp561
g7
S't8'
p562
sg9
S'Coreference-Identity'
p563
sg10
S'i16'
p564
sg12
S'i13'
p565
sg13
Nsg14
(lp566
(i__main__
Token
p567
(dp568
g18
I82
sbasg23
I82
sba(i__main__
Mention
p569
(dp570
g7
S't8'
p571
sg9
S'Coreference-Identity'
p572
sg10
S'i44'
p573
sg12
S'i16'
p574
sg13
Nsg14
(lp575
(i__main__
Token
p576
(dp577
g18
I213
sbasg23
I213
sba(i__main__
Mention
p578
(dp579
g7
S't8'
p580
sg9
S'Coreference-Identity'
p581
sg10
S'i50'
p582
sg12
S'i44'
p583
sg13
Nsg14
(lp584
(i__main__
Token
p585
(dp586
g18
I237
sbasg23
I237
sba(i__main__
Mention
p587
(dp588
g7
S't8'
p589
sg9
S'Anaphora-C'
p590
sg10
S'i53'
p591
sg12
S'i50'
p592
sg13
Nsg14
(lp593
(i__main__
Token
p594
(dp595
g18
I248
sbasg23
I248
sba(i__main__
Mention
p596
(dp597
g7
S't8'
p598
sg9
S'Coreference-Identity'
p599
sg10
S'i90'
p600
sg12
S'i53'
p601
sg13
Nsg14
(lp602
(i__main__
Token
p603
(dp604
g18
I366
sbasg23
I366
sbasg7
g555
sg89
Nsba(i__main__
Chain
p605
(dp606
g3
(lp607
(i__main__
Mention
p608
(dp609
g7
S't9'
p610
sg9
Nsg10
S'i20'
p611
sg12
Nsg13
Nsg14
(lp612
(i__main__
Token
p613
(dp614
g18
I105
sbasg23
I105
sba(i__main__
Mention
p615
(dp616
g7
S't9'
p617
sg9
S'Coreference-Identity'
p618
sg10
S'i21'
p619
sg12
S'i20'
p620
sg13
Nsg14
(lp621
(i__main__
Token
p622
(dp623
g18
I109
sbasg23
I109
sbasg7
g610
sg89
Nsba(i__main__
Chain
p624
(dp625
g3
(lp626
(i__main__
Mention
p627
(dp628
g7
S't10'
p629
sg9
Nsg10
S'i26'
p630
sg12
Nsg13
Nsg14
(lp631
(i__main__
Token
p632
(dp633
g18
I135
sbasg23
I135
sbasg7
g629
sg89
Nsba(i__main__
Chain
p634
(dp635
g3
(lp636
(i__main__
Mention
p637
(dp638
g7
S't11'
p639
sg9
Nsg10
S'i27'
p640
sg12
Nsg13
Nsg14
(lp641
(i__main__
Token
p642
(dp643
g18
I137
sbasg23
I137
sbasg7
g639
sg89
Nsba(i__main__
Chain
p644
(dp645
g3
(lp646
(i__main__
Mention
p647
(dp648
g7
S't12'
p649
sg9
Nsg10
S'i37'
p650
sg12
Nsg13
Nsg14
(lp651
(i__main__
Token
p652
(dp653
g18
I182
sba(i__main__
Token
p654
(dp655
g18
I183
sbasg23
I183
sba(i__main__
Mention
p656
(dp657
g7
S't12'
p658
sg9
S'Coreference-Apposition'
p659
sg10
S'i38'
p660
sg12
S'i37'
p661
sg13
Nsg14
(lp662
(i__main__
Token
p663
(dp664
g18
I187
sba(i__main__
Token
p665
(dp666
g18
I188
sbasg23
I188
sbasg7
g649
sg89
Nsba(i__main__
Chain
p667
(dp668
g3
(lp669
(i__main__
Mention
p670
(dp671
g7
S't13'
p672
sg9
Nsg10
S'i45'
p673
sg12
Nsg13
Nsg14
(lp674
(i__main__
Token
p675
(dp676
g18
I216
sbasg23
I216
sbasg7
g672
sg89
Nsba(i__main__
Chain
p677
(dp678
g3
(lp679
(i__main__
Mention
p680
(dp681
g7
S't14'
p682
sg9
Nsg10
S'i47'
p683
sg12
Nsg13
Nsg14
(lp684
(i__main__
Token
p685
(dp686
g18
I229
sbasg23
I229
sba(i__main__
Mention
p687
(dp688
g7
S't14'
p689
sg9
S'Coreference-NounComplement'
p690
sg10
S'i48'
p691
sg12
S'i47'
p692
sg13
Nsg14
(lp693
(i__main__
Token
p694
(dp695
g18
I230
sba(i__main__
Token
p696
(dp697
g18
I231
sbasg23
I231
sba(i__main__
Mention
p698
(dp699
g7
S't14'
p700
sg9
S'Anaphora-C'
p701
sg10
S'i55'
p702
sg12
S'i48'
p703
sg13
Nsg14
(lp704
(i__main__
Token
p705
(dp706
g18
I256
sbasg23
I256
sba(i__main__
Mention
p707
(dp708
g7
S't14'
p709
sg9
S'Anaphora-C'
p710
sg10
S'i56'
p711
sg12
S'i55'
p712
sg13
Nsg14
(lp713
(i__main__
Token
p714
(dp715
g18
I259
sbasg23
I259
sbasg7
g682
sg89
Nsba(i__main__
Chain
p716
(dp717
g3
(lp718
(i__main__
Mention
p719
(dp720
g7
S't15'
p721
sg9
Nsg10
S'i52'
p722
sg12
Nsg13
Nsg14
(lp723
(i__main__
Token
p724
(dp725
g18
I241
sbasg23
I241
sbasg7
g721
sg89
Nsba(i__main__
Chain
p726
(dp727
g3
(lp728
(i__main__
Mention
p729
(dp730
g7
S't16'
p731
sg9
Nsg10
S'i61'
p732
sg12
Nsg13
Nsg14
(lp733
(i__main__
Token
p734
(dp735
g18
I277
sba(i__main__
Token
p736
(dp737
g18
I278
sbasg23
I278
sba(i__main__
Mention
p738
(dp739
g7
S't16'
p740
sg9
S'Coreference-NounComplement'
p741
sg10
S'i62'
p742
sg12
S'i61'
p743
sg13
Nsg14
(lp744
(i__main__
Token
p745
(dp746
g18
I279
sba(i__main__
Token
p747
(dp748
g18
I280
sba(i__main__
Token
p749
(dp750
g18
I281
sbasg23
I281
sba(i__main__
Mention
p751
(dp752
g7
S't16'
p753
sg9
S'Anaphora-C'
p754
sg10
S'i69'
p755
sg12
S'i62'
p756
sg13
Nsg14
(lp757
(i__main__
Token
p758
(dp759
g18
I309
sbasg23
I309
sbasg7
g731
sg89
Nsba(i__main__
Chain
p760
(dp761
g3
(lp762
(i__main__
Mention
p763
(dp764
g7
S't17'
p765
sg9
Nsg10
S'i63'
p766
sg12
Nsg13
Nsg14
(lp767
(i__main__
Token
p768
(dp769
g18
I285
sba(i__main__
Token
p770
(dp771
g18
I286
sbasg23
I286
sba(i__main__
Mention
p772
(dp773
g7
S't17'
p774
sg9
S'Coreference-NounComplement'
p775
sg10
S'i65'
p776
sg12
S'i63'
p777
sg13
Nsg14
(lp778
(i__main__
Token
p779
(dp780
g18
I287
sba(i__main__
Token
p781
(dp782
g18
I288
sbasg23
I288
sba(i__main__
Mention
p783
(dp784
g7
S't17'
p785
sg9
S'Coreference-Identity'
p786
sg10
S'i72'
p787
sg12
S'i65'
p788
sg13
Nsg14
(lp789
(i__main__
Token
p790
(dp791
g18
I317
sba(i__main__
Token
p792
(dp793
g18
I318
sbasg23
I318
sba(i__main__
Mention
p794
(dp795
g7
S't17'
p796
sg9
S'Anaphora-C'
p797
sg10
S'i74'
p798
sg12
S'i72'
p799
sg13
Nsg14
(lp800
(i__main__
Token
p801
(dp802
g18
I325
sbasg23
I325
sba(i__main__
Mention
p803
(dp804
g7
S't17'
p805
sg9
S'Coreference-Identity'
p806
sg10
S'i83'
p807
sg12
S'i74'
p808
sg13
Nsg14
(lp809
(i__main__
Token
p810
(dp811
g18
I346
sbasg23
I346
sbasg7
g765
sg89
Nsba(i__main__
Chain
p812
(dp813
g3
(lp814
(i__main__
Mention
p815
(dp816
g7
S't18'
p817
sg9
Nsg10
S'i64'
p818
sg12
Nsg13
Nsg14
(lp819
(i__main__
Token
p820
(dp821
g18
I285
sbasg23
I285
sba(i__main__
Mention
p822
(dp823
g7
S't18'
p824
sg9
S'Coreference-Identity'
p825
sg10
S'i68'
p826
sg12
S'i64'
p827
sg13
Nsg14
(lp828
(i__main__
Token
p829
(dp830
g18
I297
sbasg23
I297
sba(i__main__
Mention
p831
(dp832
g7
S't18'
p833
sg9
S'Coreference-Identity'
p834
sg10
S'i75'
p835
sg12
S'i68'
p836
sg13
Nsg14
(lp837
(i__main__
Token
p838
(dp839
g18
I326
sbasg23
I326
sbasg7
g817
sg89
Nsba(i__main__
Chain
p840
(dp841
g3
(lp842
(i__main__
Mention
p843
(dp844
g7
S't19'
p845
sg9
Nsg10
S'i66'
p846
sg12
Nsg13
Nsg14
(lp847
(i__main__
Token
p848
(dp849
g18
I290
sbasg23
I290
sba(i__main__
Mention
p850
(dp851
g7
S't19'
p852
sg9
S'Coreference-Identity'
p853
sg10
S'i73'
p854
sg12
S'i66'
p855
sg13
Nsg14
(lp856
(i__main__
Token
p857
(dp858
g18
I320
sbasg23
I320
sbasg7
g845
sg89
Nsba(i__main__
Chain
p859
(dp860
g3
(lp861
(i__main__
Mention
p862
(dp863
g7
S't20'
p864
sg9
Nsg10
S'i71'
p865
sg12
Nsg13
Nsg14
(lp866
(i__main__
Token
p867
(dp868
g18
I313
sba(i__main__
Token
p869
(dp870
g18
I314
sbasg23
I314
sba(i__main__
Mention
p871
(dp872
g7
S't20'
p873
sg9
S'Coreference-Identity'
p874
sg10
S'i96'
p875
sg12
S'i71'
p876
sg13
Nsg14
(lp877
(i__main__
Token
p878
(dp879
g18
I387
sba(i__main__
Token
p880
(dp881
g18
I388
sbasg23
I388
sbasg7
g864
sg89
Nsba(i__main__
Chain
p882
(dp883
g3
(lp884
(i__main__
Mention
p885
(dp886
g7
S't21'
p887
sg9
Nsg10
S'i77'
p888
sg12
Nsg13
Nsg14
(lp889
(i__main__
Token
p890
(dp891
g18
I333
sba(i__main__
Token
p892
(dp893
g18
I334
sbasg23
I334
sba(i__main__
Mention
p894
(dp895
g7
S't21'
p896
sg9
S'Coreference-NounComplement'
p897
sg10
S'i78'
p898
sg12
S'i77'
p899
sg13
Nsg14
(lp900
(i__main__
Token
p901
(dp902
g18
I335
sba(i__main__
Token
p903
(dp904
g18
I336
sbasg23
I336
sba(i__main__
Mention
p905
(dp906
g7
S't21'
p907
sg9
S'Anaphora-C'
p908
sg10
S'i80'
p909
sg12
S'i78'
p910
sg13
Nsg14
(lp911
(i__main__
Token
p912
(dp913
g18
I341
sbasg23
I341
sba(i__main__
Mention
p914
(dp915
g7
S't21'
p916
sg9
S'Anaphora-C'
p917
sg10
S'i82'
p918
sg12
S'i80'
p919
sg13
Nsg14
(lp920
(i__main__
Token
p921
(dp922
g18
I345
sbasg23
I345
sbasg7
g887
sg89
Nsba(i__main__
Chain
p923
(dp924
g3
(lp925
(i__main__
Mention
p926
(dp927
g7
S't22'
p928
sg9
Nsg10
S'i84'
p929
sg12
Nsg13
Nsg14
(lp930
(i__main__
Token
p931
(dp932
g18
I348
sbasg23
I348
sbasg7
g928
sg89
Nsba(i__main__
Chain
p933
(dp934
g3
(lp935
(i__main__
Mention
p936
(dp937
g7
S't23'
p938
sg9
Nsg10
S'i86'
p939
sg12
Nsg13
Nsg14
(lp940
(i__main__
Token
p941
(dp942
g18
I357
sba(i__main__
Token
p943
(dp944
g18
I358
sbasg23
I358
sba(i__main__
Mention
p945
(dp946
g7
S't23'
p947
sg9
S'Coreference-NounComplement'
p948
sg10
S'i87'
p949
sg12
S'i86'
p950
sg13
Nsg14
(lp951
(i__main__
Token
p952
(dp953
g18
I359
sba(i__main__
Token
p954
(dp955
g18
I360
sbasg23
I360
sba(i__main__
Mention
p956
(dp957
g7
S't23'
p958
sg9
S'Anaphora-C'
p959
sg10
S'i94'
p960
sg12
S'i87'
p961
sg13
Nsg14
(lp962
(i__main__
Token
p963
(dp964
g18
I386
sbasg23
I386
sbasg7
g938
sg89
Nsba(i__main__
Chain
p965
(dp966
g3
(lp967
(i__main__
Mention
p968
(dp969
g7
S't24'
p970
sg9
Nsg10
S'i89'
p971
sg12
Nsg13
Nsg14
(lp972
(i__main__
Token
p973
(dp974
g18
I364
sba(i__main__
Token
p975
(dp976
g18
I365
sba(i__main__
Token
p977
(dp978
g18
I366
sba(i__main__
Token
p979
(dp980
g18
I367
sba(i__main__
Token
p981
(dp982
g18
I368
sba(i__main__
Token
p983
(dp984
g18
I369
sba(i__main__
Token
p985
(dp986
g18
I370
sba(i__main__
Token
p987
(dp988
g18
I371
sba(i__main__
Token
p989
(dp990
g18
I372
sba(i__main__
Token
p991
(dp992
g18
I373
sba(i__main__
Token
p993
(dp994
g18
I374
sba(i__main__
Token
p995
(dp996
g18
I375
sba(i__main__
Token
p997
(dp998
g18
I376
sba(i__main__
Token
p999
(dp1000
g18
I377
sba(i__main__
Token
p1001
(dp1002
g18
I378
sba(i__main__
Token
p1003
(dp1004
g18
I379
sba(i__main__
Token
p1005
(dp1006
g18
I380
sba(i__main__
Token
p1007
(dp1008
g18
I381
sbasg23
I381
sba(i__main__
Mention
p1009
(dp1010
g7
S't24'
p1011
sg9
S'Anaphora-E'
p1012
sg10
S'i93'
p1013
sg12
S'i89'
p1014
sg13
Nsg14
(lp1015
(i__main__
Token
p1016
(dp1017
g18
I383
sbasg23
I383
sbasg7
g970
sg89
Nsba(i__main__
Chain
p1018
(dp1019
g3
(lp1020
(i__main__
Mention
p1021
(dp1022
g7
S't25'
p1023
sg9
Nsg10
S'i98'
p1024
sg12
Nsg13
Nsg14
(lp1025
(i__main__
Token
p1026
(dp1027
g18
I399
sba(i__main__
Token
p1028
(dp1029
g18
I400
sbasg23
I400
sba(i__main__
Mention
p1030
(dp1031
g7
S't25'
p1032
sg9
S'Coreference-NounComplement'
p1033
sg10
S'i99'
p1034
sg12
S'i98'
p1035
sg13
Nsg14
(lp1036
(i__main__
Token
p1037
(dp1038
g18
I401
sba(i__main__
Token
p1039
(dp1040
g18
I402
sbasg23
I402
sba(i__main__
Mention
p1041
(dp1042
g7
S't25'
p1043
sg9
S'Anaphora-C'
p1044
sg10
S'i100'
p1045
sg12
S'i99'
p1046
sg13
Nsg14
(lp1047
(i__main__
Token
p1048
(dp1049
g18
I406
sbasg23
I406
sba(i__main__
Mention
p1050
(dp1051
g7
S't25'
p1052
sg9
S'Anaphora-C'
p1053
sg10
S'i102'
p1054
sg12
S'i100'
p1055
sg13
Nsg14
(lp1056
(i__main__
Token
p1057
(dp1058
g18
I418
sbasg23
I418
sbasg7
g1023
sg89
Nsba.