(lp0
(i__main__
Chain
p1
(dp2
S'mentionList'
p3
(lp4
(i__main__
Mention
p5
(dp6
S'chainId'
p7
S't1'
p8
sS'relType'
p9
NsS'mentionId'
p10
S'i1'
p11
sS'antecedentId'
p12
NsS'crefMod'
p13
NsS'tokenList'
p14
(lp15
(i__main__
Token
p16
(dp17
S'tokenId'
p18
I0
sba(i__main__
Token
p19
(dp20
g18
I1
sbasS'mentionHead'
p21
I1
sba(i__main__
Mention
p22
(dp23
g7
S't1'
p24
sg9
S'Coreference-Identity'
p25
sg10
S'i5'
p26
sg12
S'i1'
p27
sg13
Nsg14
(lp28
(i__main__
Token
p29
(dp30
g18
I26
sbasg21
I26
sba(i__main__
Mention
p31
(dp32
g7
S't1'
p33
sg9
S'Coreference-Identity'
p34
sg10
S'i18'
p35
sg12
S'i5'
p36
sg13
Nsg14
(lp37
(i__main__
Token
p38
(dp39
g18
I98
sbasg21
I98
sbasg7
g8
sS'chainHead'
p40
Nsba(i__main__
Chain
p41
(dp42
g3
(lp43
(i__main__
Mention
p44
(dp45
g7
S't2'
p46
sg9
Nsg10
S'i2'
p47
sg12
Nsg13
Nsg14
(lp48
(i__main__
Token
p49
(dp50
g18
I3
sba(i__main__
Token
p51
(dp52
g18
I4
sbasg21
I4
sba(i__main__
Mention
p53
(dp54
g7
S't2'
p55
sg9
S'Coreference-NounComplement'
p56
sg10
S'i3'
p57
sg12
S'i2'
p58
sg13
Nsg14
(lp59
(i__main__
Token
p60
(dp61
g18
I5
sba(i__main__
Token
p62
(dp63
g18
I6
sbasg21
I6
sba(i__main__
Mention
p64
(dp65
g7
S't2'
p66
sg9
S'Coreference-Identity'
p67
sg10
S'i17'
p68
sg12
S'i3'
p69
sg13
Nsg14
(lp70
(i__main__
Token
p71
(dp72
g18
I89
sbasg21
I89
sba(i__main__
Mention
p73
(dp74
g7
S't2'
p75
sg9
S'Coreference-Identity'
p76
sg10
S'i20'
p77
sg12
S'i17'
p78
sg13
Nsg14
(lp79
(i__main__
Token
p80
(dp81
g18
I114
sbasg21
I114
sba(i__main__
Mention
p82
(dp83
g7
S't2'
p84
sg9
S'Anaphora-C'
p85
sg10
S'i21'
p86
sg12
S'i20'
p87
sg13
Nsg14
(lp88
(i__main__
Token
p89
(dp90
g18
I119
sbasg21
I119
sba(i__main__
Mention
p91
(dp92
g7
S't2'
p93
sg9
S'Anaphora-C'
p94
sg10
S'i22'
p95
sg12
S'i21'
p96
sg13
Nsg14
(lp97
(i__main__
Token
p98
(dp99
g18
I120
sbasg21
I120
sba(i__main__
Mention
p100
(dp101
g7
S't2'
p102
sg9
S'Coreference-Identity'
p103
sg10
S'i29'
p104
sg12
S'i22'
p105
sg13
Nsg14
(lp106
(i__main__
Token
p107
(dp108
g18
I138
sbasg21
I138
sba(i__main__
Mention
p109
(dp110
g7
S't2'
p111
sg9
S'Coreference-Identity'
p112
sg10
S'i38'
p113
sg12
S'i29'
p114
sg13
Nsg14
(lp115
(i__main__
Token
p116
(dp117
g18
I163
sbasg21
I163
sba(i__main__
Mention
p118
(dp119
g7
S't2'
p120
sg9
S'Anaphora-C'
p121
sg10
S'i39'
p122
sg12
S'i38'
p123
sg13
Nsg14
(lp124
(i__main__
Token
p125
(dp126
g18
I174
sbasg21
I174
sba(i__main__
Mention
p127
(dp128
g7
S't2'
p129
sg9
S'Anaphora-C'
p130
sg10
S'i40'
p131
sg12
S'i39'
p132
sg13
Nsg14
(lp133
(i__main__
Token
p134
(dp135
g18
I175
sbasg21
I175
sbasg7
g46
sg40
Nsba(i__main__
Chain
p136
(dp137
g3
(lp138
(i__main__
Mention
p139
(dp140
g7
S't3'
p141
sg9
Nsg10
S'i4'
p142
sg12
Nsg13
Nsg14
(lp143
(i__main__
Token
p144
(dp145
g18
I19
sba(i__main__
Token
p146
(dp147
g18
I20
sbasg21
I20
sba(i__main__
Mention
p148
(dp149
g7
S't3'
p150
sg9
S'Coreference-Identity'
p151
sg10
S'i11'
p152
sg12
S'i4'
p153
sg13
Nsg14
(lp154
(i__main__
Token
p155
(dp156
g18
I50
sbasg21
I50
sba(i__main__
Mention
p157
(dp158
g7
S't3'
p159
sg9
S'Coreference-Identity'
p160
sg10
S'i19'
p161
sg12
S'i11'
p162
sg13
Nsg14
(lp163
(i__main__
Token
p164
(dp165
g18
I101
sba(i__main__
Token
p166
(dp167
g18
I102
sbasg21
I102
sba(i__main__
Mention
p168
(dp169
g7
S't3'
p170
sg9
S'Coreference-Noun-Noun'
p171
sg10
S'i30'
p172
sg12
S'i19'
p173
sg13
Nsg14
(lp174
(i__main__
Token
p175
(dp176
g18
I140
sbasg21
I140
sba(i__main__
Mention
p177
(dp178
g7
S't3'
p179
sg9
S'Coreference-Identity'
p180
sg10
S'i41'
p181
sg12
S'i30'
p182
sg13
Nsg14
(lp183
(i__main__
Token
p184
(dp185
g18
I178
sbasg21
I178
sbasg7
g141
sg40
Nsba(i__main__
Chain
p186
(dp187
g3
(lp188
(i__main__
Mention
p189
(dp190
g7
S't4'
p191
sg9
Nsg10
S'i6'
p192
sg12
Nsg13
Nsg14
(lp193
(i__main__
Token
p194
(dp195
g18
I28
sba(i__main__
Token
p196
(dp197
g18
I29
sbasg21
I29
sba(i__main__
Mention
p198
(dp199
g7
S't4'
p200
sg9
S'Coreference-Noun-Noun'
p201
sg10
S'i7'
p202
sg12
S'i6'
p203
sg13
Nsg14
(lp204
(i__main__
Token
p205
(dp206
g18
I30
sba(i__main__
Token
p207
(dp208
g18
I31
sbasg21
I31
sba(i__main__
Mention
p209
(dp210
g7
S't4'
p211
sg9
S'Coreference-NounComplement'
p212
sg10
S'i8'
p213
sg12
S'i7'
p214
sg13
Nsg14
(lp215
(i__main__
Token
p216
(dp217
g18
I32
sba(i__main__
Token
p218
(dp219
g18
I33
sba(i__main__
Token
p220
(dp221
g18
I34
sbasg21
I34
sba(i__main__
Mention
p222
(dp223
g7
S't4'
p224
sg9
S'Anaphora-C'
p225
sg10
S'i12'
p226
sg12
S'i8'
p227
sg13
Nsg14
(lp228
(i__main__
Token
p229
(dp230
g18
I56
sbasg21
I56
sba(i__main__
Mention
p231
(dp232
g7
S't4'
p233
sg9
S'Coreference-Noun-Noun'
p234
sg10
S'i23'
p235
sg12
S'i12'
p236
sg13
Nsg14
(lp237
(i__main__
Token
p238
(dp239
g18
I126
sba(i__main__
Token
p240
(dp241
g18
I127
sbasg21
I127
sba(i__main__
Mention
p242
(dp243
g7
S't4'
p244
sg9
S'Coreference-NounComplement'
p245
sg10
S'i25'
p246
sg12
S'i23'
p247
sg13
Nsg14
(lp248
(i__main__
Token
p249
(dp250
g18
I128
sbasg21
I128
sba(i__main__
Mention
p251
(dp252
g7
S't4'
p253
sg9
S'Anaphora-C'
p254
sg10
S'i27'
p255
sg12
S'i25'
p256
sg13
Nsg14
(lp257
(i__main__
Token
p258
(dp259
g18
I134
sbasg21
I134
sba(i__main__
Mention
p260
(dp261
g7
S't4'
p262
sg9
S'Anaphora-C'
p263
sg10
S'i33'
p264
sg12
S'i27'
p265
sg13
Nsg14
(lp266
(i__main__
Token
p267
(dp268
g18
I148
sbasg21
I148
sbasg7
g191
sg40
Nsba(i__main__
Chain
p269
(dp270
g3
(lp271
(i__main__
Mention
p272
(dp273
g7
S't5'
p274
sg9
Nsg10
S'i9'
p275
sg12
Nsg13
Nsg14
(lp276
(i__main__
Token
p277
(dp278
g18
I36
sba(i__main__
Token
p279
(dp280
g18
I37
sbasg21
I37
sba(i__main__
Mention
p281
(dp282
g7
S't5'
p283
sg9
S'Coreference-Noun-Noun'
p284
sg10
S'i26'
p285
sg12
S'i9'
p286
sg13
Nsg14
(lp287
(i__main__
Token
p288
(dp289
g18
I130
sbasg21
I130
sba(i__main__
Mention
p290
(dp291
g7
S't5'
p292
sg9
S'Coreference-Identity'
p293
sg10
S'i36'
p294
sg12
S'i26'
p295
sg13
Nsg14
(lp296
(i__main__
Token
p297
(dp298
g18
I155
sbasg21
I155
sba(i__main__
Mention
p299
(dp300
g7
S't5'
p301
sg9
S'Coreference-Identity'
p302
sg10
S'i42'
p303
sg12
S'i36'
p304
sg13
Nsg14
(lp305
(i__main__
Token
p306
(dp307
g18
I188
sbasg21
I188
sba(i__main__
Mention
p308
(dp309
g7
S't5'
p310
sg9
S'Coreference-Identity'
p311
sg10
S'i45'
p312
sg12
S'i42'
p313
sg13
Nsg14
(lp314
(i__main__
Token
p315
(dp316
g18
I195
sbasg21
I195
sbasg7
g274
sg40
Nsba(i__main__
Chain
p317
(dp318
g3
(lp319
(i__main__
Mention
p320
(dp321
g7
S't6'
p322
sg9
Nsg10
S'i10'
p323
sg12
Nsg13
Nsg14
(lp324
(i__main__
Token
p325
(dp326
g18
I44
sbasg21
I44
sba(i__main__
Mention
p327
(dp328
g7
S't6'
p329
sg9
S'Coreference-Identity'
p330
sg10
S'i14'
p331
sg12
S'i10'
p332
sg13
Nsg14
(lp333
(i__main__
Token
p334
(dp335
g18
I59
sba(i__main__
Token
p336
(dp337
g18
I60
sbasg21
I60
sbasg7
g322
sg40
Nsba(i__main__
Chain
p338
(dp339
g3
(lp340
(i__main__
Mention
p341
(dp342
g7
S't7'
p343
sg9
Nsg10
S'i15'
p344
sg12
Nsg13
Nsg14
(lp345
(i__main__
Token
p346
(dp347
g18
I67
sba(i__main__
Token
p348
(dp349
g18
I68
sba(i__main__
Token
p350
(dp351
g18
I69
sba(i__main__
Token
p352
(dp353
g18
I70
sba(i__main__
Token
p354
(dp355
g18
I71
sba(i__main__
Token
p356
(dp357
g18
I72
sba(i__main__
Token
p358
(dp359
g18
I73
sba(i__main__
Token
p360
(dp361
g18
I74
sbasg21
I74
sba(i__main__
Mention
p362
(dp363
g7
S't7'
p364
sg9
S'Coreference-Abbreviation'
p365
sg10
S'i16'
p366
sg12
S'i15'
p367
sg13
Nsg14
(lp368
(i__main__
Token
p369
(dp370
g18
I76
sbasg21
I76
sbasg7
g343
sg40
Nsba(i__main__
Chain
p371
(dp372
g3
(lp373
(i__main__
Mention
p374
(dp375
g7
S't8'
p376
sg9
Nsg10
S'i24'
p377
sg12
Nsg13
Nsg14
(lp378
(i__main__
Token
p379
(dp380
g18
I126
sba(i__main__
Token
p381
(dp382
g18
I127
sba(i__main__
Token
p383
(dp384
g18
I128
sba(i__main__
Token
p385
(dp386
g18
I129
sba(i__main__
Token
p387
(dp388
g18
I130
sba(i__main__
Token
p389
(dp390
g18
I131
sba(i__main__
Token
p391
(dp392
g18
I132
sba(i__main__
Token
p393
(dp394
g18
I133
sba(i__main__
Token
p395
(dp396
g18
I134
sba(i__main__
Token
p397
(dp398
g18
I135
sba(i__main__
Token
p399
(dp400
g18
I136
sba(i__main__
Token
p401
(dp402
g18
I137
sba(i__main__
Token
p403
(dp404
g18
I138
sba(i__main__
Token
p405
(dp406
g18
I139
sba(i__main__
Token
p407
(dp408
g18
I140
sba(i__main__
Token
p409
(dp410
g18
I141
sba(i__main__
Token
p411
(dp412
g18
I142
sba(i__main__
Token
p413
(dp414
g18
I143
sbasg21
I143
sba(i__main__
Mention
p415
(dp416
g7
S't8'
p417
sg9
S'Anaphora-C'
p418
sg10
S'i31'
p419
sg12
S'i24'
p420
sg13
Nsg14
(lp421
(i__main__
Token
p422
(dp423
g18
I145
sbasg21
I145
sbasg7
g376
sg40
Nsba(i__main__
Chain
p424
(dp425
g3
(lp426
(i__main__
Mention
p427
(dp428
g7
S't9'
p429
sg9
Nsg10
S'i35'
p430
sg12
Nsg13
Nsg14
(lp431
(i__main__
Token
p432
(dp433
g18
I149
sbasg21
I149
sba(i__main__
Mention
p434
(dp435
g7
S't9'
p436
sg9
S'Coreference-Identity'
p437
sg10
S'i46'
p438
sg12
S'i35'
p439
sg13
Nsg14
(lp440
(i__main__
Token
p441
(dp442
g18
I200
sbasg21
I200
sbasg7
g429
sg40
Nsba(i__main__
Chain
p443
(dp444
g3
(lp445
(i__main__
Mention
p446
(dp447
g7
S't10'
p448
sg9
Nsg10
S'i37'
p449
sg12
Nsg13
Nsg14
(lp450
(i__main__
Token
p451
(dp452
g18
I155
sba(i__main__
Token
p453
(dp454
g18
I156
sba(i__main__
Token
p455
(dp456
g18
I157
sba(i__main__
Token
p457
(dp458
g18
I158
sba(i__main__
Token
p459
(dp460
g18
I159
sba(i__main__
Token
p461
(dp462
g18
I160
sba(i__main__
Token
p463
(dp464
g18
I161
sba(i__main__
Token
p465
(dp466
g18
I162
sba(i__main__
Token
p467
(dp468
g18
I163
sba(i__main__
Token
p469
(dp470
g18
I164
sba(i__main__
Token
p471
(dp472
g18
I165
sba(i__main__
Token
p473
(dp474
g18
I166
sba(i__main__
Token
p475
(dp476
g18
I167
sba(i__main__
Token
p477
(dp478
g18
I168
sba(i__main__
Token
p479
(dp480
g18
I169
sba(i__main__
Token
p481
(dp482
g18
I170
sba(i__main__
Token
p483
(dp484
g18
I171
sba(i__main__
Token
p485
(dp486
g18
I172
sba(i__main__
Token
p487
(dp488
g18
I173
sba(i__main__
Token
p489
(dp490
g18
I174
sba(i__main__
Token
p491
(dp492
g18
I175
sba(i__main__
Token
p493
(dp494
g18
I176
sba(i__main__
Token
p495
(dp496
g18
I177
sba(i__main__
Token
p497
(dp498
g18
I178
sba(i__main__
Token
p499
(dp500
g18
I179
sba(i__main__
Token
p501
(dp502
g18
I180
sba(i__main__
Token
p503
(dp504
g18
I181
sba(i__main__
Token
p505
(dp506
g18
I182
sba(i__main__
Token
p507
(dp508
g18
I183
sba(i__main__
Token
p509
(dp510
g18
I184
sba(i__main__
Token
p511
(dp512
g18
I185
sba(i__main__
Token
p513
(dp514
g18
I186
sba(i__main__
Token
p515
(dp516
g18
I187
sba(i__main__
Token
p517
(dp518
g18
I188
sba(i__main__
Token
p519
(dp520
g18
I189
sba(i__main__
Token
p521
(dp522
g18
I190
sba(i__main__
Token
p523
(dp524
g18
I191
sbasg21
I191
sba(i__main__
Mention
p525
(dp526
g7
S't10'
p527
sg9
S'Anaphora-C'
p528
sg10
S'i43'
p529
sg12
S'i37'
p530
sg13
Nsg14
(lp531
(i__main__
Token
p532
(dp533
g18
I193
sbasg21
I193
sbasg7
g448
sg40
Nsba.