(lp0
(i__main__
Chain
p1
(dp2
S'mentionList'
p3
(lp4
(i__main__
Mention
p5
(dp6
S'chainId'
p7
S't1'
p8
sS'relType'
p9
NsS'mentionId'
p10
S'i1'
p11
sS'antecedentId'
p12
NsS'crefMod'
p13
NsS'tokenList'
p14
(lp15
(i__main__
Token
p16
(dp17
S'tokenId'
p18
I0
sbasS'mentionHead'
p19
I0
sba(i__main__
Mention
p20
(dp21
g7
S't1'
p22
sg9
S'Coreference-Identity'
p23
sg10
S'i28'
p24
sg12
S'i1'
p25
sg13
Nsg14
(lp26
(i__main__
Token
p27
(dp28
g18
I113
sba(i__main__
Token
p29
(dp30
g18
I114
sba(i__main__
Token
p31
(dp32
g18
I115
sbasg19
I115
sba(i__main__
Mention
p33
(dp34
g7
S't1'
p35
sg9
S'Coreference-Identity'
p36
sg10
S'i32'
p37
sg12
S'i28'
p38
sg13
Nsg14
(lp39
(i__main__
Token
p40
(dp41
g18
I137
sbasg19
I137
sba(i__main__
Mention
p42
(dp43
g7
S't1'
p44
sg9
S'Coreference-Identity'
p45
sg10
S'i50'
p46
sg12
S'i32'
p47
sg13
Nsg14
(lp48
(i__main__
Token
p49
(dp50
g18
I266
sbasg19
I266
sba(i__main__
Mention
p51
(dp52
g7
S't1'
p53
sg9
S'Coreference-Identity'
p54
sg10
S'i54'
p55
sg12
S'i50'
p56
sg13
Nsg14
(lp57
(i__main__
Token
p58
(dp59
g18
I274
sbasg19
I274
sba(i__main__
Mention
p60
(dp61
g7
S't1'
p62
sg9
S'Coreference-Identity'
p63
sg10
S'i64'
p64
sg12
S'i54'
p65
sg13
Nsg14
(lp66
(i__main__
Token
p67
(dp68
g18
I318
sbasg19
I318
sba(i__main__
Mention
p69
(dp70
g7
S't1'
p71
sg9
S'Coreference-Identity'
p72
sg10
S'i74'
p73
sg12
S'i64'
p74
sg13
Nsg14
(lp75
(i__main__
Token
p76
(dp77
g18
I339
sbasg19
I339
sbasg7
g8
sS'chainHead'
p78
Nsba(i__main__
Chain
p79
(dp80
g3
(lp81
(i__main__
Mention
p82
(dp83
g7
S't2'
p84
sg9
Nsg10
S'i2'
p85
sg12
Nsg13
Nsg14
(lp86
(i__main__
Token
p87
(dp88
g18
I3
sba(i__main__
Token
p89
(dp90
g18
I4
sbasg19
I4
sba(i__main__
Mention
p91
(dp92
g7
S't2'
p93
sg9
S'Coreference-Identity'
p94
sg10
S'i22'
p95
sg12
S'i2'
p96
sg13
Nsg14
(lp97
(i__main__
Token
p98
(dp99
g18
I72
sba(i__main__
Token
p100
(dp101
g18
I73
sbasg19
I73
sbasg7
g84
sg78
Nsba(i__main__
Chain
p102
(dp103
g3
(lp104
(i__main__
Mention
p105
(dp106
g7
S't3'
p107
sg9
Nsg10
S'i3'
p108
sg12
Nsg13
Nsg14
(lp109
(i__main__
Token
p110
(dp111
g18
I10
sbasg19
I10
sba(i__main__
Mention
p112
(dp113
g7
S't3'
p114
sg9
S'Coreference-Identity'
p115
sg10
S'i12'
p116
sg12
S'i3'
p117
sg13
Nsg14
(lp118
(i__main__
Token
p119
(dp120
g18
I37
sbasg19
I37
sba(i__main__
Mention
p121
(dp122
g7
S't3'
p123
sg9
S'Coreference-Identity'
p124
sg10
S'i29'
p125
sg12
S'i12'
p126
sg13
Nsg14
(lp127
(i__main__
Token
p128
(dp129
g18
I123
sbasg19
I123
sba(i__main__
Mention
p130
(dp131
g7
S't3'
p132
sg9
S'Coreference-Identity'
p133
sg10
S'i31'
p134
sg12
S'i29'
p135
sg13
Nsg14
(lp136
(i__main__
Token
p137
(dp138
g18
I133
sba(i__main__
Token
p139
(dp140
g18
I134
sbasg19
I134
sba(i__main__
Mention
p141
(dp142
g7
S't3'
p143
sg9
S'Coreference-Identity'
p144
sg10
S'i34'
p145
sg12
S'i31'
p146
sg13
Nsg14
(lp147
(i__main__
Token
p148
(dp149
g18
I149
sbasg19
I149
sba(i__main__
Mention
p150
(dp151
g7
S't3'
p152
sg9
S'Coreference-Identity'
p153
sg10
S'i35'
p154
sg12
S'i34'
p155
sg13
Nsg14
(lp156
(i__main__
Token
p157
(dp158
g18
I160
sbasg19
I160
sba(i__main__
Mention
p159
(dp160
g7
S't3'
p161
sg9
S'Coreference-Identity'
p162
sg10
S'i40'
p163
sg12
S'i35'
p164
sg13
Nsg14
(lp165
(i__main__
Token
p166
(dp167
g18
I201
sbasg19
I201
sba(i__main__
Mention
p168
(dp169
g7
S't3'
p170
sg9
S'Anaphora-C'
p171
sg10
S'i41'
p172
sg12
S'i40'
p173
sg13
Nsg14
(lp174
(i__main__
Token
p175
(dp176
g18
I207
sbasg19
I207
sbasg7
g107
sg78
Nsba(i__main__
Chain
p177
(dp178
g3
(lp179
(i__main__
Mention
p180
(dp181
g7
S't4'
p182
sg9
Nsg10
S'i4'
p183
sg12
Nsg13
Nsg14
(lp184
(i__main__
Token
p185
(dp186
g18
I13
sbasg19
I13
sba(i__main__
Mention
p187
(dp188
g7
S't4'
p189
sg9
S'Coreference-Identity'
p190
sg10
S'i16'
p191
sg12
S'i4'
p192
sg13
Nsg14
(lp193
(i__main__
Token
p194
(dp195
g18
I51
sbasg19
I51
sba(i__main__
Mention
p196
(dp197
g7
S't4'
p198
sg9
S'Anaphora-C'
p199
sg10
S'i17'
p200
sg12
S'i16'
p201
sg13
Nsg14
(lp202
(i__main__
Token
p203
(dp204
g18
I54
sbasg19
I54
sba(i__main__
Mention
p205
(dp206
g7
S't4'
p207
sg9
S'Coreference-Identity'
p208
sg10
S'i33'
p209
sg12
S'i17'
p210
sg13
Nsg14
(lp211
(i__main__
Token
p212
(dp213
g18
I147
sbasg19
I147
sba(i__main__
Mention
p214
(dp215
g7
S't4'
p216
sg9
S'Coreference-Identity'
p217
sg10
S'i37'
p218
sg12
S'i33'
p219
sg13
Nsg14
(lp220
(i__main__
Token
p221
(dp222
g18
I177
sbasg19
I177
sba(i__main__
Mention
p223
(dp224
g7
S't4'
p225
sg9
S'Coreference-Identity'
p226
sg10
S'i47'
p227
sg12
S'i37'
p228
sg13
Nsg14
(lp229
(i__main__
Token
p230
(dp231
g18
I251
sbasg19
I251
sba(i__main__
Mention
p232
(dp233
g7
S't4'
p234
sg9
Nsg10
S'i61'
p235
sg12
Nsg13
Nsg14
(lp236
(i__main__
Token
p237
(dp238
g18
I302
sba(i__main__
Token
p239
(dp240
g18
I303
sbasg19
Nsba(i__main__
Mention
p241
(dp242
g7
S't4'
p243
sg9
S'Coreference-PartOf'
p244
sg10
S'i75'
p245
sg12
S'i61'
p246
sg13
Nsg14
(lp247
(i__main__
Token
p248
(dp249
g18
I344
sbasg19
I344
sba(i__main__
Mention
p250
(dp251
g7
S't4'
p252
sg9
S'Coreference-Identity'
p253
sg10
S'i76'
p254
sg12
S'i75'
p255
sg13
Nsg14
(lp256
(i__main__
Token
p257
(dp258
g18
I364
sbasg19
I364
sba(i__main__
Mention
p259
(dp260
g7
S't4'
p261
sg9
S'Anaphora-C'
p262
sg10
S'i77'
p263
sg12
S'i76'
p264
sg13
Nsg14
(lp265
(i__main__
Token
p266
(dp267
g18
I369
sbasg19
I369
sba(i__main__
Mention
p268
(dp269
g7
S't4'
p270
sg9
S'Anaphora-C'
p271
sg10
S'i78'
p272
sg12
S'i77'
p273
sg13
Nsg14
(lp274
(i__main__
Token
p275
(dp276
g18
I372
sbasg19
I372
sba(i__main__
Mention
p277
(dp278
g7
S't4'
p279
sg9
S'Coreference-Identity'
p280
sg10
S'i80'
p281
sg12
S'i78'
p282
sg13
Nsg14
(lp283
(i__main__
Token
p284
(dp285
g18
I389
sbasg19
I389
sbasg7
g182
sg78
Nsba(i__main__
Chain
p286
(dp287
g3
(lp288
(i__main__
Mention
p289
(dp290
g7
S't5'
p291
sg9
Nsg10
S'i5'
p292
sg12
Nsg13
Nsg14
(lp293
(i__main__
Token
p294
(dp295
g18
I15
sba(i__main__
Token
p296
(dp297
g18
I16
sbasg19
I16
sba(i__main__
Mention
p298
(dp299
g7
S't5'
p300
sg9
S'Coreference-NounComplement'
p301
sg10
S'i6'
p302
sg12
S'i5'
p303
sg13
Nsg14
(lp304
(i__main__
Token
p305
(dp306
g18
I17
sba(i__main__
Token
p307
(dp308
g18
I18
sbasg19
I18
sba(i__main__
Mention
p309
(dp310
g7
S't5'
p311
sg9
S'Coreference-Identity'
p312
sg10
S'i9'
p313
sg12
S'i6'
p314
sg13
Nsg14
(lp315
(i__main__
Token
p316
(dp317
g18
I25
sbasg19
I25
sba(i__main__
Mention
p318
(dp319
g7
S't5'
p320
sg9
S'Coreference-Identity'
p321
sg10
S'i14'
p322
sg12
S'i9'
p323
sg13
Nsg14
(lp324
(i__main__
Token
p325
(dp326
g18
I44
sbasg19
I44
sba(i__main__
Mention
p327
(dp328
g7
S't5'
p329
sg9
S'Anaphora-C'
p330
sg10
S'i15'
p331
sg12
S'i14'
p332
sg13
Nsg14
(lp333
(i__main__
Token
p334
(dp335
g18
I50
sbasg19
I50
sba(i__main__
Mention
p336
(dp337
g7
S't5'
p338
sg9
S'Anaphora-C'
p339
sg10
S'i19'
p340
sg12
S'i15'
p341
sg13
Nsg14
(lp342
(i__main__
Token
p343
(dp344
g18
I68
sbasg19
I68
sba(i__main__
Mention
p345
(dp346
g7
S't5'
p347
sg9
S'Anaphora-C'
p348
sg10
S'i20'
p349
sg12
S'i19'
p350
sg13
Nsg14
(lp351
(i__main__
Token
p352
(dp353
g18
I71
sbasg19
I71
sba(i__main__
Mention
p354
(dp355
g7
S't5'
p356
sg9
S'Coreference-Identity'
p357
sg10
S'i25'
p358
sg12
S'i20'
p359
sg13
Nsg14
(lp360
(i__main__
Token
p361
(dp362
g18
I90
sbasg19
I90
sba(i__main__
Mention
p363
(dp364
g7
S't5'
p365
sg9
S'Anaphora-C'
p366
sg10
S'i26'
p367
sg12
S'i25'
p368
sg13
Nsg14
(lp369
(i__main__
Token
p370
(dp371
g18
I94
sbasg19
I94
sba(i__main__
Mention
p372
(dp373
g7
S't5'
p374
sg9
S'anaphora-C'
p375
sg10
S'i27'
p376
sg12
S'i26'
p377
sg13
Nsg14
(lp378
(i__main__
Token
p379
(dp380
g18
I110
sbasg19
I110
sba(i__main__
Mention
p381
(dp382
g7
S't5'
p383
sg9
S'Coreference-Identity'
p384
sg10
S'i36'
p385
sg12
S'i27'
p386
sg13
Nsg14
(lp387
(i__main__
Token
p388
(dp389
g18
I172
sbasg19
I172
sba(i__main__
Mention
p390
(dp391
g7
S't5'
p392
sg9
S'Anaphora-C'
p393
sg10
S'i39'
p394
sg12
S'i36'
p395
sg13
Nsg14
(lp396
(i__main__
Token
p397
(dp398
g18
I197
sbasg19
I197
sba(i__main__
Mention
p399
(dp400
g7
S't5'
p401
sg9
S'Coreference-Identity'
p402
sg10
S'i43'
p403
sg12
S'i39'
p404
sg13
Nsg14
(lp405
(i__main__
Token
p406
(dp407
g18
I222
sbasg19
I222
sba(i__main__
Mention
p408
(dp409
g7
S't5'
p410
sg9
S'Anaphora-C'
p411
sg10
S'i46'
p412
sg12
S'i43'
p413
sg13
Nsg14
(lp414
(i__main__
Token
p415
(dp416
g18
I238
sbasg19
I238
sba(i__main__
Mention
p417
(dp418
g7
S't5'
p419
sg9
S'Coreference-Identity'
p420
sg10
S'i69'
p421
sg12
S'i46'
p422
sg13
Nsg14
(lp423
(i__main__
Token
p424
(dp425
g18
I334
sbasg19
I334
sbasg7
g291
sg78
Nsba(i__main__
Chain
p426
(dp427
g3
(lp428
(i__main__
Mention
p429
(dp430
g7
S't6'
p431
sg9
Nsg10
S'i7'
p432
sg12
Nsg13
Nsg14
(lp433
(i__main__
Token
p434
(dp435
g18
I19
sbasg19
I19
sba(i__main__
Mention
p436
(dp437
g7
S't6'
p438
sg9
S'Coreference-Identity'
p439
sg10
S'i42'
p440
sg12
S'i7'
p441
sg13
Nsg14
(lp442
(i__main__
Token
p443
(dp444
g18
I220
sbasg19
I220
sba(i__main__
Mention
p445
(dp446
g7
S't6'
p447
sg9
S'Coreference-Identity'
p448
sg10
S'i68'
p449
sg12
S'i42'
p450
sg13
Nsg14
(lp451
(i__main__
Token
p452
(dp453
g18
I332
sbasg19
I332
sbasg7
g431
sg78
Nsba(i__main__
Chain
p454
(dp455
g3
(lp456
(i__main__
Mention
p457
(dp458
g7
S't7'
p459
sg9
Nsg10
S'i8'
p460
sg12
Nsg13
Nsg14
(lp461
(i__main__
Token
p462
(dp463
g18
I21
sba(i__main__
Token
p464
(dp465
g18
I22
sbasg19
I22
sba(i__main__
Mention
p466
(dp467
g7
S't7'
p468
sg9
S'Coreference-Noun-Noun'
p469
sg10
S'i13'
p470
sg12
S'i8'
p471
sg13
Nsg14
(lp472
(i__main__
Token
p473
(dp474
g18
I40
sbasg19
I40
sbasg7
g459
sg78
Nsba(i__main__
Chain
p475
(dp476
g3
(lp477
(i__main__
Mention
p478
(dp479
g7
S't8'
p480
sg9
Nsg10
S'i10'
p481
sg12
Nsg13
Nsg14
(lp482
(i__main__
Token
p483
(dp484
g18
I27
sba(i__main__
Token
p485
(dp486
g18
I28
sba(i__main__
Token
p487
(dp488
g18
I29
sbasg19
I29
sba(i__main__
Mention
p489
(dp490
g7
S't8'
p491
sg9
S'Coreference-NounComplement'
p492
sg10
S'i11'
p493
sg12
S'i10'
p494
sg13
Nsg14
(lp495
(i__main__
Token
p496
(dp497
g18
I30
sbasg19
I30
sbasg7
g480
sg78
Nsba(i__main__
Chain
p498
(dp499
g3
(lp500
(i__main__
Mention
p501
(dp502
g7
S't9'
p503
sg9
Nsg10
S'i18'
p504
sg12
Nsg13
Nsg14
(lp505
(i__main__
Token
p506
(dp507
g18
I60
sbasg19
I60
sba(i__main__
Mention
p508
(dp509
g7
S't9'
p510
sg9
S'Coreference-Identity'
p511
sg10
S'i30'
p512
sg12
S'i18'
p513
sg13
Nsg14
(lp514
(i__main__
Token
p515
(dp516
g18
I131
sbasg19
I131
sba(i__main__
Mention
p517
(dp518
g7
S't9'
p519
sg9
S'Coreference-Identity'
p520
sg10
S'i38'
p521
sg12
S'i30'
p522
sg13
Nsg14
(lp523
(i__main__
Token
p524
(dp525
g18
I186
sbasg19
I186
sba(i__main__
Mention
p526
(dp527
g7
S't9'
p528
sg9
S'Coreference-Identity'
p529
sg10
S'i60'
p530
sg12
S'i38'
p531
sg13
Nsg14
(lp532
(i__main__
Token
p533
(dp534
g18
I297
sbasg19
I297
sba(i__main__
Mention
p535
(dp536
g7
S't9'
p537
sg9
Nsg10
S'i62'
p538
sg12
Nsg13
Nsg14
(lp539
(i__main__
Token
p540
(dp541
g18
I302
sba(i__main__
Token
p542
(dp543
g18
I303
sbasg19
Nsba(i__main__
Mention
p544
(dp545
g7
S't9'
p546
sg9
S'Coreference-PartOf'
p547
sg10
S'i63'
p548
sg12
S'i62'
p549
sg13
Nsg14
(lp550
(i__main__
Token
p551
(dp552
g18
I312
sbasg19
I312
sba(i__main__
Mention
p553
(dp554
g7
S't9'
p555
sg9
S'Coreference-Identity'
p556
sg10
S'i66'
p557
sg12
S'i63'
p558
sg13
Nsg14
(lp559
(i__main__
Token
p560
(dp561
g18
I322
sbasg19
I322
sba(i__main__
Mention
p562
(dp563
g7
S't9'
p564
sg9
S'Anaphora-C'
p565
sg10
S'i67'
p566
sg12
S'i66'
p567
sg13
Nsg14
(lp568
(i__main__
Token
p569
(dp570
g18
I323
sbasg19
I323
sba(i__main__
Mention
p571
(dp572
g7
S't9'
p573
sg9
S'Coreference-Identity'
p574
sg10
S'i71'
p575
sg12
S'i67'
p576
sg13
Nsg14
(lp577
(i__main__
Token
p578
(dp579
g18
I336
sbasg19
I336
sba(i__main__
Mention
p580
(dp581
g7
S't9'
p582
sg9
S'Coreference-Identity'
p583
sg10
S'i82'
p584
sg12
S'i71'
p585
sg13
Nsg14
(lp586
(i__main__
Token
p587
(dp588
g18
I411
sbasg19
I411
sbasg7
g503
sg78
Nsba(i__main__
Chain
p589
(dp590
g3
(lp591
(i__main__
Mention
p592
(dp593
g7
S't10'
p594
sg9
Nsg10
S'i21'
p595
sg12
Nsg13
Nsg14
(lp596
(i__main__
Token
p597
(dp598
g18
I72
sba(i__main__
Token
p599
(dp600
g18
I73
sba(i__main__
Token
p601
(dp602
g18
I74
sba(i__main__
Token
p603
(dp604
g18
I75
sbasg19
I75
sba(i__main__
Mention
p605
(dp606
g7
S't10'
p607
sg9
S'Anaphora-C'
p608
sg10
S'i23'
p609
sg12
S'i21'
p610
sg13
Nsg14
(lp611
(i__main__
Token
p612
(dp613
g18
I81
sbasg19
I81
sbasg7
g594
sg78
Nsba(i__main__
Chain
p614
(dp615
g3
(lp616
(i__main__
Mention
p617
(dp618
g7
S't11'
p619
sg9
Nsg10
S'i44'
p620
sg12
Nsg13
Nsg14
(lp621
(i__main__
Token
p622
(dp623
g18
I224
sba(i__main__
Token
p624
(dp625
g18
I225
sbasg19
I225
sba(i__main__
Mention
p626
(dp627
g7
S't11'
p628
sg9
S'Coreference-NounComplement'
p629
sg10
S'i45'
p630
sg12
S'i44'
p631
sg13
Nsg14
(lp632
(i__main__
Token
p633
(dp634
g18
I226
sba(i__main__
Token
p635
(dp636
g18
I227
sba(i__main__
Token
p637
(dp638
g18
I228
sba(i__main__
Token
p639
(dp640
g18
I229
sbasg19
I229
sbasg7
g619
sg78
Nsba(i__main__
Chain
p641
(dp642
g3
(lp643
(i__main__
Mention
p644
(dp645
g7
S't12'
p646
sg9
Nsg10
S'i48'
p647
sg12
Nsg13
Nsg14
(lp648
(i__main__
Token
p649
(dp650
g18
I253
sba(i__main__
Token
p651
(dp652
g18
I254
sbasg19
I254
sba(i__main__
Mention
p653
(dp654
g7
S't12'
p655
sg9
S'Coreference-NounComplement'
p656
sg10
S'i49'
p657
sg12
S'i48'
p658
sg13
Nsg14
(lp659
(i__main__
Token
p660
(dp661
g18
I255
sba(i__main__
Token
p662
(dp663
g18
I256
sba(i__main__
Token
p664
(dp665
g18
I257
sbasg19
I257
sba(i__main__
Mention
p666
(dp667
g7
S't12'
p668
sg9
S'Coreference-Identity'
p669
sg10
S'i56'
p670
sg12
S'i49'
p671
sg13
Nsg14
(lp672
(i__main__
Token
p673
(dp674
g18
I281
sbasg19
I281
sba(i__main__
Mention
p675
(dp676
g7
S't12'
p677
sg9
S'Anaphora-C'
p678
sg10
S'i58'
p679
sg12
S'i56'
p680
sg13
Nsg14
(lp681
(i__main__
Token
p682
(dp683
g18
I288
sbasg19
I288
sbasg7
g646
sg78
Nsba(i__main__
Chain
p684
(dp685
g3
(lp686
(i__main__
Mention
p687
(dp688
g7
S't13'
p689
sg9
Nsg10
S'i51'
p690
sg12
Nsg13
Nsg14
(lp691
(i__main__
Token
p692
(dp693
g18
I266
sba(i__main__
Token
p694
(dp695
g18
I267
sbasg19
I267
sba(i__main__
Mention
p696
(dp697
g7
S't13'
p698
sg9
S'Coreference-Identity'
p699
sg10
S'i57'
p700
sg12
S'i51'
p701
sg13
Nsg14
(lp702
(i__main__
Token
p703
(dp704
g18
I285
sba(i__main__
Token
p705
(dp706
g18
I286
sbasg19
I286
sba(i__main__
Mention
p707
(dp708
g7
S't13'
p709
sg9
S'Coreference-InferedRelation'
p710
sg10
S'i65'
p711
sg12
S'i57'
p712
sg13
Nsg14
(lp713
(i__main__
Token
p714
(dp715
g18
I320
sbasg19
I320
sbasg7
g689
sg78
Nsba(i__main__
Chain
p716
(dp717
g3
(lp718
(i__main__
Mention
p719
(dp720
g7
S't14'
p721
sg9
Nsg10
S'i52'
p722
sg12
Nsg13
Nsg14
(lp723
(i__main__
Token
p724
(dp725
g18
I269
sba(i__main__
Token
p726
(dp727
g18
I270
sba(i__main__
Token
p728
(dp729
g18
I271
sbasg19
I271
sba(i__main__
Mention
p730
(dp731
g7
S't14'
p732
sg9
S'Anaphora-C'
p733
sg10
S'i53'
p734
sg12
S'i52'
p735
sg13
Nsg14
(lp736
(i__main__
Token
p737
(dp738
g18
I273
sbasg19
I273
sbasg7
g721
sg78
Nsba(i__main__
Chain
p739
(dp740
g3
(lp741
(i__main__
Mention
p742
(dp743
g7
S't15'
p744
sg9
Nsg10
S'i55'
p745
sg12
Nsg13
Nsg14
(lp746
(i__main__
Token
p747
(dp748
g18
I276
sbasg19
I276
sba(i__main__
Mention
p749
(dp750
g7
S't15'
p751
sg9
S'Coreference-Identity'
p752
sg10
S'i81'
p753
sg12
S'i55'
p754
sg13
Nsg14
(lp755
(i__main__
Token
p756
(dp757
g18
I394
sba(i__main__
Token
p758
(dp759
g18
I395
sbasg19
I395
sbasg7
g744
sg78
Nsba(i__main__
Chain
p760
(dp761
g3
(lp762
(i__main__
Mention
p763
(dp764
g7
S't16'
p765
sg9
S'anaphora-?'
p766
sg10
S'i59'
p767
sg12
S'i59'
p768
sg13
Nsg14
(lp769
(i__main__
Token
p770
(dp771
g18
I289
sbasg19
I289
sbasg7
g765
sg78
Nsba(i__main__
Chain
p772
(dp773
g3
(lp774
(i__main__
Mention
p775
(dp776
g7
S't17'
p777
sg9
Nsg10
S'i70'
p778
sg12
Nsg13
Nsg14
(lp779
(i__main__
Token
p780
(dp781
g18
I335
sbasg19
I335
sba(i__main__
Mention
p782
(dp783
g7
S't17'
p784
sg9
S'Anaphora-RT'
p785
sg10
S'i72'
p786
sg12
S'i70'
p787
sg13
Nsg14
(lp788
(i__main__
Token
p789
(dp790
g18
I336
sba(i__main__
Token
p791
(dp792
g18
I337
sbasg19
I337
sbasg7
g777
sg78
Nsba(i__main__
Chain
p793
(dp794
g3
(lp795
(i__main__
Mention
p796
(dp797
g7
S't18'
p798
sg9
S'anaphora-?'
p799
sg10
S'i73'
p800
sg12
S'i73'
p801
sg13
Nsg14
(lp802
(i__main__
Token
p803
(dp804
g18
I338
sbasg19
I338
sbasg7
g798
sg78
Nsba(i__main__
Chain
p805
(dp806
g3
(lp807
(i__main__
Mention
p808
(dp809
g7
S't19'
p810
sg9
S'anaphora-?'
p811
sg10
S'i79'
p812
sg12
S'i79'
p813
sg13
Nsg14
(lp814
(i__main__
Token
p815
(dp816
g18
I375
sbasg19
I375
sbasg7
g810
sg78
Nsba(i__main__
Chain
p817
(dp818
g3
(lp819
(i__main__
Mention
p820
(dp821
g7
S't20'
p822
sg9
S'anaphora-?'
p823
sg10
S'i83'
p824
sg12
S'i83'
p825
sg13
Nsg14
(lp826
(i__main__
Token
p827
(dp828
g18
I433
sbasg19
I433
sbasg7
g822
sg78
Nsba.