(lp0
(i__main__
Chain
p1
(dp2
S'mentionList'
p3
(lp4
(i__main__
Mention
p5
(dp6
S'chainId'
p7
S't1'
p8
sS'relType'
p9
NsS'mentionId'
p10
S'i1'
p11
sS'antecedentId'
p12
NsS'crefMod'
p13
NsS'tokenList'
p14
(lp15
(i__main__
Token
p16
(dp17
S'tokenId'
p18
I9
sbasS'mentionHead'
p19
I9
sba(i__main__
Mention
p20
(dp21
g7
S't1'
p22
sg9
S'Coreference-Identity'
p23
sg10
S'i2'
p24
sg12
S'i1'
p25
sg13
Nsg14
(lp26
(i__main__
Token
p27
(dp28
g18
I22
sbasg19
I22
sba(i__main__
Mention
p29
(dp30
g7
S't1'
p31
sg9
S'Coreference-Identity'
p32
sg10
S'i5'
p33
sg12
S'i2'
p34
sg13
Nsg14
(lp35
(i__main__
Token
p36
(dp37
g18
I66
sbasg19
I66
sba(i__main__
Mention
p38
(dp39
g7
S't1'
p40
sg9
S'Coreference-Identity'
p41
sg10
S'i10'
p42
sg12
S'i5'
p43
sg13
Nsg14
(lp44
(i__main__
Token
p45
(dp46
g18
I122
sbasg19
I122
sba(i__main__
Mention
p47
(dp48
g7
S't1'
p49
sg9
S'Coreference-Identity'
p50
sg10
S'i26'
p51
sg12
S'i10'
p52
sg13
Nsg14
(lp53
(i__main__
Token
p54
(dp55
g18
I216
sbasg19
I216
sba(i__main__
Mention
p56
(dp57
g7
S't1'
p58
sg9
S'Coreference-Identity'
p59
sg10
S'i67'
p60
sg12
S'i26'
p61
sg13
Nsg14
(lp62
(i__main__
Token
p63
(dp64
g18
I358
sbasg19
I358
sba(i__main__
Mention
p65
(dp66
g7
S't1'
p67
sg9
S'Coreference-Identity'
p68
sg10
S'i73'
p69
sg12
S'i67'
p70
sg13
Nsg14
(lp71
(i__main__
Token
p72
(dp73
g18
I402
sbasg19
I402
sbasg7
g8
sS'chainHead'
p74
Nsba(i__main__
Chain
p75
(dp76
g3
(lp77
(i__main__
Mention
p78
(dp79
g7
S't2'
p80
sg9
Nsg10
S'i3'
p81
sg12
Nsg13
Nsg14
(lp82
(i__main__
Token
p83
(dp84
g18
I37
sbasg19
I37
sba(i__main__
Mention
p85
(dp86
g7
S't2'
p87
sg9
S'Coreference-Identity'
p88
sg10
S'i33'
p89
sg12
S'i3'
p90
sg13
Nsg14
(lp91
(i__main__
Token
p92
(dp93
g18
I263
sbasg19
I263
sba(i__main__
Mention
p94
(dp95
g7
S't2'
p96
sg9
S'Coreference-Identity'
p97
sg10
S'i35'
p98
sg12
S'i33'
p99
sg13
Nsg14
(lp100
(i__main__
Token
p101
(dp102
g18
I272
sbasg19
I272
sba(i__main__
Mention
p103
(dp104
g7
S't2'
p105
sg9
S'Coreference-Identity'
p106
sg10
S'i71'
p107
sg12
S'i35'
p108
sg13
Nsg14
(lp109
(i__main__
Token
p110
(dp111
g18
I383
sbasg19
I383
sbasg7
g80
sg74
Nsba(i__main__
Chain
p112
(dp113
g3
(lp114
(i__main__
Mention
p115
(dp116
g7
S't3'
p117
sg9
Nsg10
S'i4'
p118
sg12
Nsg13
Nsg14
(lp119
(i__main__
Token
p120
(dp121
g18
I64
sbasg19
I64
sba(i__main__
Mention
p122
(dp123
g7
S't3'
p124
sg9
S'Coreference-Identity'
p125
sg10
S'i7'
p126
sg12
S'i4'
p127
sg13
Nsg14
(lp128
(i__main__
Token
p129
(dp130
g18
I96
sbasg19
I96
sba(i__main__
Mention
p131
(dp132
g7
S't3'
p133
sg9
S'Coreference-Identity'
p134
sg10
S'i84'
p135
sg12
S'i7'
p136
sg13
Nsg14
(lp137
(i__main__
Token
p138
(dp139
g18
I475
sbasg19
I475
sba(i__main__
Mention
p140
(dp141
g7
S't3'
p142
sg9
S'Coreference-Identity'
p143
sg10
S'i92'
p144
sg12
S'i84'
p145
sg13
Nsg14
(lp146
(i__main__
Token
p147
(dp148
g18
I538
sbasg19
I538
sba(i__main__
Mention
p149
(dp150
g7
S't3'
p151
sg9
S'Coreference-Identity'
p152
sg10
S'i93'
p153
sg12
S'i92'
p154
sg13
Nsg14
(lp155
(i__main__
Token
p156
(dp157
g18
I547
sbasg19
I547
sbasg7
g117
sg74
Nsba(i__main__
Chain
p158
(dp159
g3
(lp160
(i__main__
Mention
p161
(dp162
g7
S't4'
p163
sg9
Nsg10
S'i6'
p164
sg12
Nsg13
Nsg14
(lp165
(i__main__
Token
p166
(dp167
g18
I76
sbasg19
I76
sba(i__main__
Mention
p168
(dp169
g7
S't4'
p170
sg9
S'Coreference-PartOf'
p171
sg10
S'i9'
p172
sg12
S'i6'
p173
sg13
Nsg14
(lp174
(i__main__
Token
p175
(dp176
g18
I115
sba(i__main__
Token
p177
(dp178
g18
I116
sba(i__main__
Token
p179
(dp180
g18
I117
sbasg19
I117
sba(i__main__
Mention
p181
(dp182
g7
S't4'
p183
sg9
S'Coreference-RPartOf'
p184
sg10
S'i11'
p185
sg12
S'i9'
p186
sg13
Nsg14
(lp187
(i__main__
Token
p188
(dp189
g18
I129
sbasg19
I129
sba(i__main__
Mention
p190
(dp191
g7
S't4'
p192
sg9
S'Coreference-Identity'
p193
sg10
S'i13'
p194
sg12
S'i11'
p195
sg13
Nsg14
(lp196
(i__main__
Token
p197
(dp198
g18
I147
sbasg19
I147
sba(i__main__
Mention
p199
(dp200
g7
S't4'
p201
sg9
S'Coreference-Identity'
p202
sg10
S'i30'
p203
sg12
S'i13'
p204
sg13
Nsg14
(lp205
(i__main__
Token
p206
(dp207
g18
I250
sbasg19
I250
sba(i__main__
Mention
p208
(dp209
g7
S't4'
p210
sg9
S'Coreference-PartOf'
p211
sg10
S'i37'
p212
sg12
S'i30'
p213
sg13
Nsg14
(lp214
(i__main__
Token
p215
(dp216
g18
I276
sba(i__main__
Token
p217
(dp218
g18
I277
sbasg19
I277
sba(i__main__
Mention
p219
(dp220
g7
S't4'
p221
sg9
S'Coreference-RPartOf'
p222
sg10
S'i64'
p223
sg12
S'i37'
p224
sg13
Nsg14
(lp225
(i__main__
Token
p226
(dp227
g18
I352
sbasg19
I352
sba(i__main__
Mention
p228
(dp229
g7
S't4'
p230
sg9
S'Coreference-Identity'
p231
sg10
S'i68'
p232
sg12
S'i64'
p233
sg13
Nsg14
(lp234
(i__main__
Token
p235
(dp236
g18
I362
sbasg19
I362
sba(i__main__
Mention
p237
(dp238
g7
S't4'
p239
sg9
S'Coreference-Identity'
p240
sg10
S'i70'
p241
sg12
S'i68'
p242
sg13
Nsg14
(lp243
(i__main__
Token
p244
(dp245
g18
I379
sbasg19
I379
sba(i__main__
Mention
p246
(dp247
g7
S't4'
p248
sg9
S'Coreference-Identity'
p249
sg10
S'i78'
p250
sg12
S'i70'
p251
sg13
Nsg14
(lp252
(i__main__
Token
p253
(dp254
g18
I437
sbasg19
I437
sba(i__main__
Mention
p255
(dp256
g7
S't4'
p257
sg9
S'Coreference-Identity'
p258
sg10
S'i88'
p259
sg12
S'i78'
p260
sg13
Nsg14
(lp261
(i__main__
Token
p262
(dp263
g18
I492
sbasg19
I492
sba(i__main__
Mention
p264
(dp265
g7
S't4'
p266
sg9
S'Coreference-Identity'
p267
sg10
S'i89'
p268
sg12
S'i88'
p269
sg13
Nsg14
(lp270
(i__main__
Token
p271
(dp272
g18
I511
sbasg19
I511
sba(i__main__
Mention
p273
(dp274
g7
S't4'
p275
sg9
S'Coreference-Identity'
p276
sg10
S'i91'
p277
sg12
S'i89'
p278
sg13
Nsg14
(lp279
(i__main__
Token
p280
(dp281
g18
I536
sbasg19
I536
sba(i__main__
Mention
p282
(dp283
g7
S't4'
p284
sg9
S'Coreference-PartOf'
p285
sg10
S'i95'
p286
sg12
S'i91'
p287
sg13
Nsg14
(lp288
(i__main__
Token
p289
(dp290
g18
I586
sba(i__main__
Token
p291
(dp292
g18
I587
sbasg19
I587
sbasg7
g163
sg74
Nsba(i__main__
Chain
p293
(dp294
g3
(lp295
(i__main__
Mention
p296
(dp297
g7
S't5'
p298
sg9
Nsg10
S'i8'
p299
sg12
Nsg13
Nsg14
(lp300
(i__main__
Token
p301
(dp302
g18
I98
sbasg19
I98
sba(i__main__
Mention
p303
(dp304
g7
S't5'
p305
sg9
S'Coreference-Identity'
p306
sg10
S'i85'
p307
sg12
S'i8'
p308
sg13
Nsg14
(lp309
(i__main__
Token
p310
(dp311
g18
I477
sbasg19
I477
sba(i__main__
Mention
p312
(dp313
g7
S't5'
p314
sg9
S'Coreference-Identity'
p315
sg10
S'i87'
p316
sg12
S'i85'
p317
sg13
Nsg14
(lp318
(i__main__
Token
p319
(dp320
g18
I488
sbasg19
I488
sbasg7
g298
sg74
Nsba(i__main__
Chain
p321
(dp322
g3
(lp323
(i__main__
Mention
p324
(dp325
g7
S't6'
p326
sg9
Nsg10
S'i12'
p327
sg12
Nsg13
Nsg14
(lp328
(i__main__
Token
p329
(dp330
g18
I145
sbasg19
I145
sba(i__main__
Mention
p331
(dp332
g7
S't6'
p333
sg9
S'Anaphora-C'
p334
sg10
S'i14'
p335
sg12
S'i12'
p336
sg13
Nsg14
(lp337
(i__main__
Token
p338
(dp339
g18
I156
sbasg19
I156
sba(i__main__
Mention
p340
(dp341
g7
S't6'
p342
sg9
S'Anaphora-C'
p343
sg10
S'i16'
p344
sg12
S'i14'
p345
sg13
Nsg14
(lp346
(i__main__
Token
p347
(dp348
g18
I157
sbasg19
I157
sba(i__main__
Mention
p349
(dp350
g7
S't6'
p351
sg9
S'Coreference-Identity'
p352
sg10
S'i90'
p353
sg12
S'i16'
p354
sg13
Nsg14
(lp355
(i__main__
Token
p356
(dp357
g18
I528
sbasg19
I528
sbasg7
g326
sg74
Nsba(i__main__
Chain
p358
(dp359
g3
(lp360
(i__main__
Mention
p361
(dp362
g7
S't7'
p363
sg9
Nsg10
S'i17'
p364
sg12
Nsg13
Nsg14
(lp365
(i__main__
Token
p366
(dp367
g18
I175
sba(i__main__
Token
p368
(dp369
g18
I176
sbasg19
I176
sba(i__main__
Mention
p370
(dp371
g7
S't7'
p372
sg9
S'Anaphora-C'
p373
sg10
S'i18'
p374
sg12
S'i17'
p375
sg13
Nsg14
(lp376
(i__main__
Token
p377
(dp378
g18
I180
sbasg19
I180
sba(i__main__
Mention
p379
(dp380
g7
S't7'
p381
sg9
S'Anaphora-C'
p382
sg10
S'i25'
p383
sg12
S'i18'
p384
sg13
Nsg14
(lp385
(i__main__
Token
p386
(dp387
g18
I214
sbasg19
I214
sbasg7
g363
sg74
Nsba(i__main__
Chain
p388
(dp389
g3
(lp390
(i__main__
Mention
p391
(dp392
g7
S't8'
p393
sg9
Nsg10
S'i19'
p394
sg12
Nsg13
Nsg14
(lp395
(i__main__
Token
p396
(dp397
g18
I186
sba(i__main__
Token
p398
(dp399
g18
I187
sba(i__main__
Token
p400
(dp401
g18
I188
sba(i__main__
Token
p402
(dp403
g18
I189
sbasg19
I187
sba(i__main__
Mention
p404
(dp405
g7
S't8'
p406
sg9
S'Anaphora-C'
p407
sg10
S'i20'
p408
sg12
S'i19'
p409
sg13
Nsg14
(lp410
(i__main__
Token
p411
(dp412
g18
I190
sbasg19
I190
sbasg7
g393
sg74
Nsba(i__main__
Chain
p413
(dp414
g3
(lp415
(i__main__
Mention
p416
(dp417
g7
S't9'
p418
sg9
Nsg10
S'i22'
p419
sg12
Nsg13
Nsg14
(lp420
(i__main__
Token
p421
(dp422
g18
I203
sba(i__main__
Token
p423
(dp424
g18
I204
sbasg19
I204
sba(i__main__
Mention
p425
(dp426
g7
S't9'
p427
sg9
S'Coreference-NounComplement'
p428
sg10
S'i23'
p429
sg12
S'i22'
p430
sg13
Nsg14
(lp431
(i__main__
Token
p432
(dp433
g18
I205
sba(i__main__
Token
p434
(dp435
g18
I206
sbasg19
I206
sba(i__main__
Mention
p436
(dp437
g7
S't9'
p438
sg9
S'Anaphora-C'
p439
sg10
S'i24'
p440
sg12
S'i23'
p441
sg13
Nsg14
(lp442
(i__main__
Token
p443
(dp444
g18
I213
sbasg19
I213
sba(i__main__
Mention
p445
(dp446
g7
S't9'
p447
sg9
S'Coreference-Identity'
p448
sg10
S'i28'
p449
sg12
S'i24'
p450
sg13
Nsg14
(lp451
(i__main__
Token
p452
(dp453
g18
I234
sbasg19
I234
sba(i__main__
Mention
p454
(dp455
g7
S't9'
p456
sg9
S'Coreference-Identity'
p457
sg10
S'i34'
p458
sg12
S'i28'
p459
sg13
Nsg14
(lp460
(i__main__
Token
p461
(dp462
g18
I268
sbasg19
I268
sba(i__main__
Mention
p463
(dp464
g7
S't9'
p465
sg9
S'Anaphora-C'
p466
sg10
S'i36'
p467
sg12
S'i34'
p468
sg13
Nsg14
(lp469
(i__main__
Token
p470
(dp471
g18
I275
sbasg19
I275
sba(i__main__
Mention
p472
(dp473
g7
S't9'
p474
sg9
S'Anaphora-C'
p475
sg10
S'i46'
p476
sg12
S'i36'
p477
sg13
Nsg14
(lp478
(i__main__
Token
p479
(dp480
g18
I301
sbasg19
I301
sba(i__main__
Mention
p481
(dp482
g7
S't9'
p483
sg9
S'Coreference-Identity'
p484
sg10
S'i49'
p485
sg12
S'i96'
p486
sg13
Nsg14
(lp487
(i__main__
Token
p488
(dp489
g18
I310
sbasg19
I310
sba(i__main__
Mention
p490
(dp491
g7
S't9'
p492
sg9
S'Anaphora-C'
p493
sg10
S'i57'
p494
sg12
S'i49'
p495
sg13
Nsg14
(lp496
(i__main__
Token
p497
(dp498
g18
I331
sbasg19
I331
sba(i__main__
Mention
p499
(dp500
g7
S't9'
p501
sg9
S'Anaphora-C'
p502
sg10
S'i59'
p503
sg12
S'i57'
p504
sg13
Nsg14
(lp505
(i__main__
Token
p506
(dp507
g18
I332
sbasg19
I332
sba(i__main__
Mention
p508
(dp509
g7
S't9'
p510
sg9
S'Anaphora-C'
p511
sg10
S'i62'
p512
sg12
S'i59'
p513
sg13
Nsg14
(lp514
(i__main__
Token
p515
(dp516
g18
I338
sbasg19
I338
sbasg7
g418
sg74
Nsba(i__main__
Chain
p517
(dp518
g3
(lp519
(i__main__
Mention
p520
(dp521
g7
S't10'
p522
sg9
Nsg10
S'i27'
p523
sg12
Nsg13
Nsg14
(lp524
(i__main__
Token
p525
(dp526
g18
I227
sba(i__main__
Token
p527
(dp528
g18
I228
sbasg19
I228
sba(i__main__
Mention
p529
(dp530
g7
S't10'
p531
sg9
S'Coreference-Identity'
p532
sg10
S'i29'
p533
sg12
S'i27'
p534
sg13
Nsg14
(lp535
(i__main__
Token
p536
(dp537
g18
I239
sbasg19
I239
sba(i__main__
Mention
p538
(dp539
g7
S't10'
p540
sg9
S'Coreference-Identity'
p541
sg10
S'i41'
p542
sg12
S'i29'
p543
sg13
Nsg14
(lp544
(i__main__
Token
p545
(dp546
g18
I290
sbasg19
I290
sbasg7
g522
sg74
Nsba(i__main__
Chain
p547
(dp548
g3
(lp549
(i__main__
Mention
p550
(dp551
g7
S't11'
p552
sg9
S'anaphora-E'
p553
sg10
S'i31'
p554
sg12
S'i32'
p555
sg13
Nsg14
(lp556
(i__main__
Token
p557
(dp558
g18
I255
sbasg19
I255
sbasg7
g552
sg74
Nsba(i__main__
Chain
p559
(dp560
g3
(lp561
(i__main__
Mention
p562
(dp563
g7
S't12'
p564
sg9
Nsg10
S'i38'
p565
sg12
Nsg13
Nsg14
(lp566
(i__main__
Token
p567
(dp568
g18
I280
sba(i__main__
Token
p569
(dp570
g18
I281
sba(i__main__
Token
p571
(dp572
g18
I282
sbasg19
I282
sba(i__main__
Mention
p573
(dp574
g7
S't12'
p575
sg9
S'Anaphora-C'
p576
sg10
S'i39'
p577
sg12
S'i38'
p578
sg13
Nsg14
(lp579
(i__main__
Token
p580
(dp581
g18
I286
sbasg19
I286
sbasg7
g564
sg74
Nsba(i__main__
Chain
p582
(dp583
g3
(lp584
(i__main__
Mention
p585
(dp586
g7
S't13'
p587
sg9
Nsg10
S'i40'
p588
sg12
Nsg13
Nsg14
(lp589
(i__main__
Token
p590
(dp591
g18
I288
sbasg19
I288
sba(i__main__
Mention
p592
(dp593
g7
S't13'
p594
sg9
S'Coreference-Identity'
p595
sg10
S'i45'
p596
sg12
S'i40'
p597
sg13
Nsg14
(lp598
(i__main__
Token
p599
(dp600
g18
I299
sbasg19
I299
sbasg7
g587
sg74
Nsba(i__main__
Chain
p601
(dp602
g3
(lp603
(i__main__
Mention
p604
(dp605
g7
S't14'
p606
sg9
Nsg10
S'i42'
p607
sg12
Nsg13
Nsg14
(lp608
(i__main__
Token
p609
(dp610
g18
I290
sba(i__main__
Token
p611
(dp612
g18
I291
sba(i__main__
Token
p613
(dp614
g18
I292
sba(i__main__
Token
p615
(dp616
g18
I293
sba(i__main__
Token
p617
(dp618
g18
I294
sba(i__main__
Token
p619
(dp620
g18
I295
sbasg19
I295
sba(i__main__
Mention
p621
(dp622
g7
S't14'
p623
sg9
S'Anaphora-C'
p624
sg10
S'i43'
p625
sg12
S'i42'
p626
sg13
Nsg14
(lp627
(i__main__
Token
p628
(dp629
g18
I297
sbasg19
I297
sbasg7
g606
sg74
Nsba(i__main__
Chain
p630
(dp631
g3
(lp632
(i__main__
Mention
p633
(dp634
g7
S't15'
p635
sg9
Nsg10
S'i47'
p636
sg12
Nsg13
Nsg14
(lp637
(i__main__
Token
p638
(dp639
g18
I302
sba(i__main__
Token
p640
(dp641
g18
I303
sbasg19
I303
sba(i__main__
Mention
p642
(dp643
g7
S't15'
p644
sg9
S'Coreference-Identity'
p645
sg10
S'i50'
p646
sg12
S'i47'
p647
sg13
Nsg14
(lp648
(i__main__
Token
p649
(dp650
g18
I311
sba(i__main__
Token
p651
(dp652
g18
I312
sbasg19
I312
sbasg7
g635
sg74
Nsba(i__main__
Chain
p653
(dp654
g3
(lp655
(i__main__
Mention
p656
(dp657
g7
S't16'
p658
sg9
Nsg10
S'i48'
p659
sg12
Nsg13
Nsg14
(lp660
(i__main__
Token
p661
(dp662
g18
I305
sbasg19
I305
sba(i__main__
Mention
p663
(dp664
g7
S't16'
p665
sg9
S'Coreference-Identity'
p666
sg10
S'i51'
p667
sg12
S'i48'
p668
sg13
Nsg14
(lp669
(i__main__
Token
p670
(dp671
g18
I314
sbasg19
I314
sba(i__main__
Mention
p672
(dp673
g7
S't16'
p674
sg9
S'Anaphora-C'
p675
sg10
S'i53'
p676
sg12
S'i51'
p677
sg13
Nsg14
(lp678
(i__main__
Token
p679
(dp680
g18
I317
sbasg19
I317
sbasg7
g658
sg74
Nsba(i__main__
Chain
p681
(dp682
g3
(lp683
(i__main__
Mention
p684
(dp685
g7
S't17'
p686
sg9
S'anaphora-?'
p687
sg10
S'i54'
p688
sg12
S'i54'
p689
sg13
Nsg14
(lp690
(i__main__
Token
p691
(dp692
g18
I318
sbasg19
I318
sbasg7
g686
sg74
Nsba(i__main__
Chain
p693
(dp694
g3
(lp695
(i__main__
Mention
p696
(dp697
g7
S't18'
p698
sg9
Nsg10
S'i55'
p699
sg12
Nsg13
Nsg14
(lp700
(i__main__
Token
p701
(dp702
g18
I321
sbasg19
I321
sba(i__main__
Mention
p703
(dp704
g7
S't18'
p705
sg9
S'Coreference-Identity'
p706
sg10
S'i56'
p707
sg12
S'i55'
p708
sg13
Nsg14
(lp709
(i__main__
Token
p710
(dp711
g18
I326
sbasg19
I326
sbasg7
g698
sg74
Nsba(i__main__
Chain
p712
(dp713
g3
(lp714
(i__main__
Mention
p715
(dp716
g7
S't19'
p717
sg9
Nsg10
S'i58'
p718
sg12
Nsg13
Nsg14
(lp719
(i__main__
Token
p720
(dp721
g18
I331
sba(i__main__
Token
p722
(dp723
g18
I332
sba(i__main__
Token
p724
(dp725
g18
I333
sba(i__main__
Token
p726
(dp727
g18
I334
sbasg19
I334
sba(i__main__
Mention
p728
(dp729
g7
S't19'
p730
sg9
S'Anaphora-C'
p731
sg10
S'i60'
p732
sg12
S'i58'
p733
sg13
Nsg14
(lp734
(i__main__
Token
p735
(dp736
g18
I336
sbasg19
I336
sbasg7
g717
sg74
Nsba(i__main__
Chain
p737
(dp738
g3
(lp739
(i__main__
Mention
p740
(dp741
g7
S't20'
p742
sg9
Nsg10
S'i63'
p743
sg12
Nsg13
Nsg14
(lp744
(i__main__
Token
p745
(dp746
g18
I347
sbasg19
I347
sbasg7
g742
sg74
Nsba(i__main__
Chain
p747
(dp748
g3
(lp749
(i__main__
Mention
p750
(dp751
g7
S't21'
p752
sg9
Nsg10
S'i65'
p753
sg12
Nsg13
Nsg14
(lp754
(i__main__
Token
p755
(dp756
g18
I354
sbasg19
I354
sba(i__main__
Mention
p757
(dp758
g7
S't21'
p759
sg9
S'Anaphora-C'
p760
sg10
S'i66'
p761
sg12
S'i65'
p762
sg13
Nsg14
(lp763
(i__main__
Token
p764
(dp765
g18
I357
sbasg19
I357
sba(i__main__
Mention
p766
(dp767
g7
S't21'
p768
sg9
S'Anaphora-C'
p769
sg10
S'i69'
p770
sg12
S'i66'
p771
sg13
Nsg14
(lp772
(i__main__
Token
p773
(dp774
g18
I377
sbasg19
I377
sbasg7
g752
sg74
Nsba(i__main__
Chain
p775
(dp776
g3
(lp777
(i__main__
Mention
p778
(dp779
g7
S't22'
p780
sg9
Nsg10
S'i72'
p781
sg12
Nsg13
Nsg14
(lp782
(i__main__
Token
p783
(dp784
g18
I388
sba(i__main__
Token
p785
(dp786
g18
I389
sbasg19
I389
sba(i__main__
Mention
p787
(dp788
g7
S't22'
p789
sg9
S'Anaphora-C'
p790
sg10
S'i76'
p791
sg12
S'i72'
p792
sg13
Nsg14
(lp793
(i__main__
Token
p794
(dp795
g18
I433
sbasg19
I433
sba(i__main__
Mention
p796
(dp797
g7
S't22'
p798
sg9
S'Anaphora-C'
p799
sg10
S'i86'
p800
sg12
S'i76'
p801
sg13
Nsg14
(lp802
(i__main__
Token
p803
(dp804
g18
I478
sbasg19
I478
sba(i__main__
Mention
p805
(dp806
g7
S't22'
p807
sg9
S'Coreference-Identity'
p808
sg10
S'i94'
p809
sg12
S'i86'
p810
sg13
Nsg14
(lp811
(i__main__
Token
p812
(dp813
g18
I563
sba(i__main__
Token
p814
(dp815
g18
I564
sbasg19
I564
sba(i__main__
Mention
p816
(dp817
g7
S't22'
p818
sg9
S'Coreference-Identity'
p819
sg10
S'i96'
p820
sg12
S'i94'
p821
sg13
Nsg14
(lp822
(i__main__
Token
p823
(dp824
g18
I595
sba(i__main__
Token
p825
(dp826
g18
I596
sbasg19
I596
sbasg7
g780
sg74
Nsba(i__main__
Chain
p827
(dp828
g3
(lp829
(i__main__
Mention
p830
(dp831
g7
S't23'
p832
sg9
Nsg10
S'i74'
p833
sg12
Nsg13
Nsg14
(lp834
(i__main__
Token
p835
(dp836
g18
I427
sba(i__main__
Token
p837
(dp838
g18
I428
sba(i__main__
Token
p839
(dp840
g18
I429
sbasg19
I429
sba(i__main__
Mention
p841
(dp842
g7
S't23'
p843
sg9
S'Anaphora-C'
p844
sg10
S'i75'
p845
sg12
S'i74'
p846
sg13
Nsg14
(lp847
(i__main__
Token
p848
(dp849
g18
I430
sbasg19
I430
sba(i__main__
Mention
p850
(dp851
g7
S't23'
p852
sg9
S'Anaphora-C'
p853
sg10
S'i77'
p854
sg12
S'i75'
p855
sg13
Nsg14
(lp856
(i__main__
Token
p857
(dp858
g18
I436
sbasg19
I436
sba(i__main__
Mention
p859
(dp860
g7
S't23'
p861
sg9
S'Anaphora-C'
p862
sg10
S'i81'
p863
sg12
S'i77'
p864
sg13
Nsg14
(lp865
(i__main__
Token
p866
(dp867
g18
I455
sbasg19
I455
sbasg7
g832
sg74
Nsba(i__main__
Chain
p868
(dp869
g3
(lp870
(i__main__
Mention
p871
(dp872
g7
S't24'
p873
sg9
Nsg10
S'i79'
p874
sg12
Nsg13
Nsg14
(lp875
(i__main__
Token
p876
(dp877
g18
I444
sbasg19
I444
sbasg7
g873
sg74
Nsba(i__main__
Chain
p878
(dp879
g3
(lp880
(i__main__
Mention
p881
(dp882
g7
S't25'
p883
sg9
Nsg10
S'i80'
p884
sg12
Nsg13
Nsg14
(lp885
(i__main__
Token
p886
(dp887
g18
I452
sba(i__main__
Token
p888
(dp889
g18
I453
sba(i__main__
Token
p890
(dp891
g18
I454
sba(i__main__
Token
p892
(dp893
g18
I455
sba(i__main__
Token
p894
(dp895
g18
I456
sba(i__main__
Token
p896
(dp897
g18
I457
sba(i__main__
Token
p898
(dp899
g18
I458
sba(i__main__
Token
p900
(dp901
g18
I459
sbasg19
I459
sba(i__main__
Mention
p902
(dp903
g7
S't25'
p904
sg9
S'Anaphora-E'
p905
sg10
S'i82'
p906
sg12
S'i80'
p907
sg13
Nsg14
(lp908
(i__main__
Token
p909
(dp910
g18
I461
sbasg19
I461
sbasg7
g883
sg74
Nsba.