(lp0
(i__main__
Chain
p1
(dp2
S'mentionList'
p3
(lp4
(i__main__
Mention
p5
(dp6
S'chainId'
p7
S't1'
p8
sS'relType'
p9
NsS'mentionId'
p10
S'i1'
p11
sS'antecedentId'
p12
NsS'crefMod'
p13
NsS'tokenList'
p14
(lp15
(i__main__
Token
p16
(dp17
S'tokenId'
p18
I39
sbasS'mentionHead'
p19
I39
sba(i__main__
Mention
p20
(dp21
g7
S't1'
p22
sg9
S'Coreference-Identity'
p23
sg10
S'i10'
p24
sg12
S'i1'
p25
sg13
Nsg14
(lp26
(i__main__
Token
p27
(dp28
g18
I200
sbasg19
I200
sba(i__main__
Mention
p29
(dp30
g7
S't1'
p31
sg9
S'Coreference-Noun-Noun'
p32
sg10
S'i15'
p33
sg12
S'i10'
p34
sg13
Nsg14
(lp35
(i__main__
Token
p36
(dp37
g18
I213
sbasg19
I213
sba(i__main__
Mention
p38
(dp39
g7
S't1'
p40
sg9
S'Coreference-Noun-Noun'
p41
sg10
S'i25'
p42
sg12
S'i15'
p43
sg13
Nsg14
(lp44
(i__main__
Token
p45
(dp46
g18
I347
sbasg19
I347
sbasg7
g8
sS'chainHead'
p47
Nsba(i__main__
Chain
p48
(dp49
g3
(lp50
(i__main__
Mention
p51
(dp52
g7
S't2'
p53
sg9
Nsg10
S'i2'
p54
sg12
Nsg13
Nsg14
(lp55
(i__main__
Token
p56
(dp57
g18
I54
sbasg19
I54
sbasg7
g53
sg47
Nsba(i__main__
Chain
p58
(dp59
g3
(lp60
(i__main__
Mention
p61
(dp62
g7
S't3'
p63
sg9
Nsg10
S'i3'
p64
sg12
Nsg13
Nsg14
(lp65
(i__main__
Token
p66
(dp67
g18
I86
sbasg19
I86
sbasg7
g63
sg47
Nsba(i__main__
Chain
p68
(dp69
g3
(lp70
(i__main__
Mention
p71
(dp72
g7
S't4'
p73
sg9
Nsg10
S'i4'
p74
sg12
Nsg13
Nsg14
(lp75
(i__main__
Token
p76
(dp77
g18
I97
sba(i__main__
Token
p78
(dp79
g18
I98
sbasg19
I98
sba(i__main__
Mention
p80
(dp81
g7
S't4'
p82
sg9
S'Coreference-NounComplement'
p83
sg10
S'i5'
p84
sg12
S'i4'
p85
sg13
Nsg14
(lp86
(i__main__
Token
p87
(dp88
g18
I102
sba(i__main__
Token
p89
(dp90
g18
I103
sbasg19
I103
sbasg7
g73
sg47
Nsba(i__main__
Chain
p91
(dp92
g3
(lp93
(i__main__
Mention
p94
(dp95
g7
S't5'
p96
sg9
Nsg10
S'i6'
p97
sg12
Nsg13
Nsg14
(lp98
(i__main__
Token
p99
(dp100
g18
I131
sbasg19
I131
sba(i__main__
Mention
p101
(dp102
g7
S't5'
p103
sg9
S'Coreference-Identity'
p104
sg10
S'i9'
p105
sg12
S'i6'
p106
sg13
Nsg14
(lp107
(i__main__
Token
p108
(dp109
g18
I185
sbasg19
I185
sbasg7
g96
sg47
Nsba(i__main__
Chain
p110
(dp111
g3
(lp112
(i__main__
Mention
p113
(dp114
g7
S't6'
p115
sg9
Nsg10
S'i7'
p116
sg12
Nsg13
Nsg14
(lp117
(i__main__
Token
p118
(dp119
g18
I150
sba(i__main__
Token
p120
(dp121
g18
I151
sbasg19
I151
sba(i__main__
Mention
p122
(dp123
g7
S't6'
p124
sg9
S'Coreference-NounComplement'
p125
sg10
S'i8'
p126
sg12
S'i7'
p127
sg13
Nsg14
(lp128
(i__main__
Token
p129
(dp130
g18
I152
sba(i__main__
Token
p131
(dp132
g18
I153
sba(i__main__
Token
p133
(dp134
g18
I154
sbasg19
I154
sbasg7
g115
sg47
Nsba(i__main__
Chain
p135
(dp136
g3
(lp137
(i__main__
Mention
p138
(dp139
g7
S't7'
p140
sg9
Nsg10
S'i11'
p141
sg12
Nsg13
Nsg14
(lp142
(i__main__
Token
p143
(dp144
g18
I200
sba(i__main__
Token
p145
(dp146
g18
I201
sba(i__main__
Token
p147
(dp148
g18
I202
sba(i__main__
Token
p149
(dp150
g18
I203
sbasg19
I203
sba(i__main__
Mention
p151
(dp152
g7
S't7'
p153
sg9
S'Coreference-Identity'
p154
sg10
S'i14'
p155
sg12
S'i11'
p156
sg13
Nsg14
(lp157
(i__main__
Token
p158
(dp159
g18
I210
sbasg19
I210
sbasg7
g140
sg47
Nsba(i__main__
Chain
p160
(dp161
g3
(lp162
(i__main__
Mention
p163
(dp164
g7
S't8'
p165
sg9
Nsg10
S'i12'
p166
sg12
Nsg13
Nsg14
(lp167
(i__main__
Token
p168
(dp169
g18
I205
sba(i__main__
Token
p170
(dp171
g18
I206
sbasg19
I206
sba(i__main__
Mention
p172
(dp173
g7
S't8'
p174
sg9
S'Coreference-NounComplement'
p175
sg10
S'i13'
p176
sg12
S'i12'
p177
sg13
Nsg14
(lp178
(i__main__
Token
p179
(dp180
g18
I207
sba(i__main__
Token
p181
(dp182
g18
I208
sbasg19
I208
sba(i__main__
Mention
p183
(dp184
g7
S't8'
p185
sg9
S'Anaphora-C'
p186
sg10
S'i16'
p187
sg12
S'i13'
p188
sg13
Nsg14
(lp189
(i__main__
Token
p190
(dp191
g18
I230
sbasg19
I230
sbasg7
g165
sg47
Nsba(i__main__
Chain
p192
(dp193
g3
(lp194
(i__main__
Mention
p195
(dp196
g7
S't9'
p197
sg9
Nsg10
S'i17'
p198
sg12
Nsg13
Nsg14
(lp199
(i__main__
Token
p200
(dp201
g18
I233
sba(i__main__
Token
p202
(dp203
g18
I234
sbasg19
I234
sba(i__main__
Mention
p204
(dp205
g7
S't9'
p206
sg9
Nsg10
S'i20'
p207
sg12
Nsg13
Nsg14
(lp208
(i__main__
Token
p209
(dp210
g18
I254
sbasg19
Nsbasg7
g197
sg47
Nsba(i__main__
Chain
p211
(dp212
g3
(lp213
(i__main__
Mention
p214
(dp215
g7
S't10'
p216
sg9
Nsg10
S'i18'
p217
sg12
Nsg13
Nsg14
(lp218
(i__main__
Token
p219
(dp220
g18
I236
sba(i__main__
Token
p221
(dp222
g18
I237
sba(i__main__
Token
p223
(dp224
g18
I238
sba(i__main__
Token
p225
(dp226
g18
I239
sbasg19
I239
sba(i__main__
Mention
p227
(dp228
g7
S't10'
p229
sg9
Nsg10
S'i21'
p230
sg12
Nsg13
Nsg14
(lp231
(i__main__
Token
p232
(dp233
g18
I254
sbasg19
Nsbasg7
g216
sg47
Nsba(i__main__
Chain
p234
(dp235
g3
(lp236
(i__main__
Mention
p237
(dp238
g7
S't11'
p239
sg9
Nsg10
S'i19'
p240
sg12
Nsg13
Nsg14
(lp241
(i__main__
Token
p242
(dp243
g18
I241
sba(i__main__
Token
p244
(dp245
g18
I242
sba(i__main__
Token
p246
(dp247
g18
I243
sbasg19
I243
sba(i__main__
Mention
p248
(dp249
g7
S't11'
p250
sg9
Nsg10
S'i22'
p251
sg12
Nsg13
Nsg14
(lp252
(i__main__
Token
p253
(dp254
g18
I254
sbasg19
Nsbasg7
g239
sg47
Nsba(i__main__
Chain
p255
(dp256
g3
(lp257
(i__main__
Mention
p258
(dp259
g7
S't12'
p260
sg9
Nsg10
S'i23'
p261
sg12
Nsg13
Nsg14
(lp262
(i__main__
Token
p263
(dp264
g18
I328
sbasg19
I328
sba(i__main__
Mention
p265
(dp266
g7
S't12'
p267
sg9
S'Anaphora-C'
p268
sg10
S'i24'
p269
sg12
S'i23'
p270
sg13
Nsg14
(lp271
(i__main__
Token
p272
(dp273
g18
I336
sbasg19
I336
sbasg7
g260
sg47
Nsba.