(lp0
(i__main__
Chain
p1
(dp2
S'mentionList'
p3
(lp4
(i__main__
Mention
p5
(dp6
S'chainId'
p7
S't1'
p8
sS'relType'
p9
NsS'mentionId'
p10
S'i1'
p11
sS'antecedentId'
p12
NsS'crefMod'
p13
NsS'tokenList'
p14
(lp15
(i__main__
Token
p16
(dp17
S'tokenId'
p18
I0
sbasS'mentionHead'
p19
I0
sba(i__main__
Mention
p20
(dp21
g7
S't1'
p22
sg9
S'Anaphora-C'
p23
sg10
S'i4'
p24
sg12
S'i1'
p25
sg13
Nsg14
(lp26
(i__main__
Token
p27
(dp28
g18
I23
sbasg19
I23
sba(i__main__
Mention
p29
(dp30
g7
S't1'
p31
sg9
S'Coreference-Identity'
p32
sg10
S'i36'
p33
sg12
S'i4'
p34
sg13
Nsg14
(lp35
(i__main__
Token
p36
(dp37
g18
I304
sbasg19
I304
sbasg7
g8
sS'chainHead'
p38
Nsba(i__main__
Chain
p39
(dp40
g3
(lp41
(i__main__
Mention
p42
(dp43
g7
S't2'
p44
sg9
Nsg10
S'i2'
p45
sg12
Nsg13
Nsg14
(lp46
(i__main__
Token
p47
(dp48
g18
I5
sbasg19
I5
sba(i__main__
Mention
p49
(dp50
g7
S't2'
p51
sg9
S'Anaphora-C'
p52
sg10
S'i3'
p53
sg12
S'i2'
p54
sg13
Nsg14
(lp55
(i__main__
Token
p56
(dp57
g18
I8
sbasg19
I8
sbasg7
g44
sg38
Nsba(i__main__
Chain
p58
(dp59
g3
(lp60
(i__main__
Mention
p61
(dp62
g7
S't3'
p63
sg9
Nsg10
S'i5'
p64
sg12
Nsg13
Nsg14
(lp65
(i__main__
Token
p66
(dp67
g18
I83
sba(i__main__
Token
p68
(dp69
g18
I84
sbasg19
I84
sba(i__main__
Mention
p70
(dp71
g7
S't3'
p72
sg9
S'Coreference-Apposition'
p73
sg10
S'i6'
p74
sg12
S'i5'
p75
sg13
Nsg14
(lp76
(i__main__
Token
p77
(dp78
g18
I85
sbasg19
I85
sba(i__main__
Mention
p79
(dp80
g7
S't3'
p81
sg9
S'Anaphora-C'
p82
sg10
S'i15'
p83
sg12
S'i6'
p84
sg13
Nsg14
(lp85
(i__main__
Token
p86
(dp87
g18
I113
sbasg19
I113
sba(i__main__
Mention
p88
(dp89
g7
S't3'
p90
sg9
S'Coreference-Identity'
p91
sg10
S'i39'
p92
sg12
S'i15'
p93
sg13
Nsg14
(lp94
(i__main__
Token
p95
(dp96
g18
I337
sbasg19
I337
sba(i__main__
Mention
p97
(dp98
g7
S't3'
p99
sg9
S'Anaphora-C'
p100
sg10
S'i44'
p101
sg12
S'i39'
p102
sg13
Nsg14
(lp103
(i__main__
Token
p104
(dp105
g18
I440
sbasg19
I440
sba(i__main__
Mention
p106
(dp107
g7
S't3'
p108
sg9
S'Coreference-Identity'
p109
sg10
S'i48'
p110
sg12
S'i44'
p111
sg13
Nsg14
(lp112
(i__main__
Token
p113
(dp114
g18
I478
sbasg19
I478
sbasg7
g63
sg38
Nsba(i__main__
Chain
p115
(dp116
g3
(lp117
(i__main__
Mention
p118
(dp119
g7
S't4'
p120
sg9
Nsg10
S'i7'
p121
sg12
Nsg13
Nsg14
(lp122
(i__main__
Token
p123
(dp124
g18
I87
sba(i__main__
Token
p125
(dp126
g18
I88
sba(i__main__
Token
p127
(dp128
g18
I89
sbasg19
I89
sba(i__main__
Mention
p129
(dp130
g7
S't4'
p131
sg9
S'Coreference-Bracketed/Abbraviation'
p132
sg10
S'i11'
p133
sg12
S'i7'
p134
sg13
Nsg14
(lp135
(i__main__
Token
p136
(dp137
g18
I91
sbasg19
I91
sbasg7
g120
sg38
Nsba(i__main__
Chain
p138
(dp139
g3
(lp140
(i__main__
Mention
p141
(dp142
g7
S't5'
p143
sg9
Nsg10
S'i8'
p144
sg12
Nsg13
Nsg14
(lp145
(i__main__
Token
p146
(dp147
g18
I87
sba(i__main__
Token
p148
(dp149
g18
I88
sba(i__main__
Token
p150
(dp151
g18
I89
sba(i__main__
Token
p152
(dp153
g18
I94
sbasg19
Nsba(i__main__
Mention
p154
(dp155
g7
S't5'
p156
sg9
S'Coreference-PartOf'
p157
sg10
S'i12'
p158
sg12
S'i8'
p159
sg13
Nsg14
(lp160
(i__main__
Token
p161
(dp162
g18
I95
sba(i__main__
Token
p163
(dp164
g18
I96
sbasg19
I96
sbasg7
g143
sg38
Nsba(i__main__
Chain
p165
(dp166
g3
(lp167
(i__main__
Mention
p168
(dp169
g7
S't6'
p170
sg9
Nsg10
S'i9'
p171
sg12
Nsg13
Nsg14
(lp172
(i__main__
Token
p173
(dp174
g18
I87
sba(i__main__
Token
p175
(dp176
g18
I88
sba(i__main__
Token
p177
(dp178
g18
I89
sba(i__main__
Token
p179
(dp180
g18
I94
sbasg19
Nsba(i__main__
Mention
p181
(dp182
g7
S't6'
p183
sg9
S'Coreference-PartOf'
p184
sg10
S'i13'
p185
sg12
S'i9'
p186
sg13
Nsg14
(lp187
(i__main__
Token
p188
(dp189
g18
I98
sba(i__main__
Token
p190
(dp191
g18
I99
sbasg19
I99
sbasg7
g170
sg38
Nsba(i__main__
Chain
p192
(dp193
g3
(lp194
(i__main__
Mention
p195
(dp196
g7
S't7'
p197
sg9
Nsg10
S'i10'
p198
sg12
Nsg13
Nsg14
(lp199
(i__main__
Token
p200
(dp201
g18
I87
sba(i__main__
Token
p202
(dp203
g18
I88
sba(i__main__
Token
p204
(dp205
g18
I89
sba(i__main__
Token
p206
(dp207
g18
I94
sbasg19
Nsba(i__main__
Mention
p208
(dp209
g7
S't7'
p210
sg9
S'Coreference-PartOf'
p211
sg10
S'i14'
p212
sg12
S'i10'
p213
sg13
Nsg14
(lp214
(i__main__
Token
p215
(dp216
g18
I101
sba(i__main__
Token
p217
(dp218
g18
I102
sbasg19
I102
sbasg7
g197
sg38
Nsba(i__main__
Chain
p219
(dp220
g3
(lp221
(i__main__
Mention
p222
(dp223
g7
S't8'
p224
sg9
Nsg10
S'i16'
p225
sg12
Nsg13
Nsg14
(lp226
(i__main__
Token
p227
(dp228
g18
I128
sba(i__main__
Token
p229
(dp230
g18
I129
sbasg19
I129
sba(i__main__
Mention
p231
(dp232
g7
S't8'
p233
sg9
S'Coreference-Apposition'
p234
sg10
S'i17'
p235
sg12
S'i16'
p236
sg13
Nsg14
(lp237
(i__main__
Token
p238
(dp239
g18
I130
sba(i__main__
Token
p240
(dp241
g18
I131
sba(i__main__
Token
p242
(dp243
g18
I132
sbasg19
I130
sbasg7
g224
sg38
Nsba(i__main__
Chain
p244
(dp245
g3
(lp246
(i__main__
Mention
p247
(dp248
g7
S't9'
p249
sg9
Nsg10
S'i18'
p250
sg12
Nsg13
Nsg14
(lp251
(i__main__
Token
p252
(dp253
g18
I136
sba(i__main__
Token
p254
(dp255
g18
I137
sba(i__main__
Token
p256
(dp257
g18
I138
sbasg19
I138
sba(i__main__
Mention
p258
(dp259
g7
S't9'
p260
sg9
S'Anaphora-C'
p261
sg10
S'i19'
p262
sg12
S'i18'
p263
sg13
Nsg14
(lp264
(i__main__
Token
p265
(dp266
g18
I142
sbasg19
I142
sbasg7
g249
sg38
Nsba(i__main__
Chain
p267
(dp268
g3
(lp269
(i__main__
Mention
p270
(dp271
g7
S't10'
p272
sg9
Nsg10
S'i20'
p273
sg12
Nsg13
Nsg14
(lp274
(i__main__
Token
p275
(dp276
g18
I152
sbasg19
I152
sba(i__main__
Mention
p277
(dp278
g7
S't10'
p279
sg9
S'Anaphora-C'
p280
sg10
S'i23'
p281
sg12
S'i20'
p282
sg13
Nsg14
(lp283
(i__main__
Token
p284
(dp285
g18
I175
sbasg19
I175
sbasg7
g272
sg38
Nsba(i__main__
Chain
p286
(dp287
g3
(lp288
(i__main__
Mention
p289
(dp290
g7
S't11'
p291
sg9
Nsg10
S'i21'
p292
sg12
Nsg13
Nsg14
(lp293
(i__main__
Token
p294
(dp295
g18
I161
sbasg19
I161
sba(i__main__
Mention
p296
(dp297
g7
S't11'
p298
sg9
S'Anaphora-C'
p299
sg10
S'i22'
p300
sg12
S'i21'
p301
sg13
Nsg14
(lp302
(i__main__
Token
p303
(dp304
g18
I166
sbasg19
I166
sbasg7
g291
sg38
Nsba(i__main__
Chain
p305
(dp306
g3
(lp307
(i__main__
Mention
p308
(dp309
g7
S't12'
p310
sg9
Nsg10
S'i24'
p311
sg12
Nsg13
Nsg14
(lp312
(i__main__
Token
p313
(dp314
g18
I182
sbasg19
I182
sba(i__main__
Mention
p315
(dp316
g7
S't12'
p317
sg9
S'Coreference-Bracketed/Abbraviation'
p318
sg10
S'i25'
p319
sg12
S'i24'
p320
sg13
Nsg14
(lp321
(i__main__
Token
p322
(dp323
g18
I184
sba(i__main__
Token
p324
(dp325
g18
I185
sba(i__main__
Token
p326
(dp327
g18
I186
sbasg19
I186
sba(i__main__
Mention
p328
(dp329
g7
S't12'
p330
sg9
S'Coreference-Identity'
p331
sg10
S'i26'
p332
sg12
S'i25'
p333
sg13
Nsg14
(lp334
(i__main__
Token
p335
(dp336
g18
I191
sba(i__main__
Token
p337
(dp338
g18
I192
sbasg19
I192
sba(i__main__
Mention
p339
(dp340
g7
S't12'
p341
sg9
S'Anaphora-C'
p342
sg10
S'i27'
p343
sg12
S'i26'
p344
sg13
Nsg14
(lp345
(i__main__
Token
p346
(dp347
g18
I212
sbasg19
I212
sbasg7
g310
sg38
Nsba(i__main__
Chain
p348
(dp349
g3
(lp350
(i__main__
Mention
p351
(dp352
g7
S't13'
p353
sg9
Nsg10
S'i28'
p354
sg12
Nsg13
Nsg14
(lp355
(i__main__
Token
p356
(dp357
g18
I241
sba(i__main__
Token
p358
(dp359
g18
I242
sbasg19
I242
sba(i__main__
Mention
p360
(dp361
g7
S't13'
p362
sg9
S'Anaphora-C'
p363
sg10
S'i29'
p364
sg12
S'i28'
p365
sg13
Nsg14
(lp366
(i__main__
Token
p367
(dp368
g18
I254
sbasg19
I254
sbasg7
g353
sg38
Nsba(i__main__
Chain
p369
(dp370
g3
(lp371
(i__main__
Mention
p372
(dp373
g7
S't14'
p374
sg9
Nsg10
S'i30'
p375
sg12
Nsg13
Nsg14
(lp376
(i__main__
Token
p377
(dp378
g18
I263
sba(i__main__
Token
p379
(dp380
g18
I264
sbasg19
I264
sba(i__main__
Mention
p381
(dp382
g7
S't14'
p383
sg9
S'Anaphora-C'
p384
sg10
S'i31'
p385
sg12
S'i30'
p386
sg13
Nsg14
(lp387
(i__main__
Token
p388
(dp389
g18
I268
sbasg19
I268
sbasg7
g374
sg38
Nsba(i__main__
Chain
p390
(dp391
g3
(lp392
(i__main__
Mention
p393
(dp394
g7
S't15'
p395
sg9
Nsg10
S'i32'
p396
sg12
Nsg13
Nsg14
(lp397
(i__main__
Token
p398
(dp399
g18
I276
sbasg19
I276
sba(i__main__
Mention
p400
(dp401
g7
S't15'
p402
sg9
S'Anaphora-C'
p403
sg10
S'i35'
p404
sg12
S'i32'
p405
sg13
Nsg14
(lp406
(i__main__
Token
p407
(dp408
g18
I293
sbasg19
I293
sbasg7
g395
sg38
Nsba(i__main__
Chain
p409
(dp410
g3
(lp411
(i__main__
Mention
p412
(dp413
g7
S't16'
p414
sg9
Nsg10
S'i33'
p415
sg12
Nsg13
Nsg14
(lp416
(i__main__
Token
p417
(dp418
g18
I277
sbasg19
I277
sba(i__main__
Mention
p419
(dp420
g7
S't16'
p421
sg9
S'Anaphora-C'
p422
sg10
S'i34'
p423
sg12
S'i33'
p424
sg13
Nsg14
(lp425
(i__main__
Token
p426
(dp427
g18
I282
sbasg19
I282
sbasg7
g414
sg38
Nsba(i__main__
Chain
p428
(dp429
g3
(lp430
(i__main__
Mention
p431
(dp432
g7
S't17'
p433
sg9
Nsg10
S'i37'
p434
sg12
Nsg13
Nsg14
(lp435
(i__main__
Token
p436
(dp437
g18
I313
sbasg19
I313
sba(i__main__
Mention
p438
(dp439
g7
S't17'
p440
sg9
S'Anaphora-C'
p441
sg10
S'i38'
p442
sg12
S'i37'
p443
sg13
Nsg14
(lp444
(i__main__
Token
p445
(dp446
g18
I319
sbasg19
I319
sbasg7
g433
sg38
Nsba(i__main__
Chain
p447
(dp448
g3
(lp449
(i__main__
Mention
p450
(dp451
g7
S't18'
p452
sg9
Nsg10
S'i40'
p453
sg12
Nsg13
Nsg14
(lp454
(i__main__
Token
p455
(dp456
g18
I361
sbasg19
I361
sbasg7
g452
sg38
Nsba(i__main__
Chain
p457
(dp458
g3
(lp459
(i__main__
Mention
p460
(dp461
g7
S't19'
p462
sg9
Nsg10
S'i41'
p463
sg12
Nsg13
Nsg14
(lp464
(i__main__
Token
p465
(dp466
g18
I413
sba(i__main__
Token
p467
(dp468
g18
I414
sba(i__main__
Token
p469
(dp470
g18
I415
sbasg19
I414
sba(i__main__
Mention
p471
(dp472
g7
S't19'
p473
sg9
S'Anaphora-C'
p474
sg10
S'i42'
p475
sg12
S'i41'
p476
sg13
Nsg14
(lp477
(i__main__
Token
p478
(dp479
g18
I420
sbasg19
I420
sbasg7
g462
sg38
Nsba(i__main__
Chain
p480
(dp481
g3
(lp482
(i__main__
Mention
p483
(dp484
g7
S't20'
p485
sg9
Nsg10
S'i43'
p486
sg12
Nsg13
Nsg14
(lp487
(i__main__
Token
p488
(dp489
g18
I433
sbasg19
I433
sba(i__main__
Mention
p490
(dp491
g7
S't20'
p492
sg9
S'Anaphora-C'
p493
sg10
S'i45'
p494
sg12
S'i43'
p495
sg13
Nsg14
(lp496
(i__main__
Token
p497
(dp498
g18
I443
sbasg19
I443
sbasg7
g485
sg38
Nsba(i__main__
Chain
p499
(dp500
g3
(lp501
(i__main__
Mention
p502
(dp503
g7
S't21'
p504
sg9
Nsg10
S'i46'
p505
sg12
Nsg13
Nsg14
(lp506
(i__main__
Token
p507
(dp508
g18
I452
sbasg19
I452
sba(i__main__
Mention
p509
(dp510
g7
S't21'
p511
sg9
S'Anaphora-C'
p512
sg10
S'i47'
p513
sg12
S'i46'
p514
sg13
Nsg14
(lp515
(i__main__
Token
p516
(dp517
g18
I456
sbasg19
I456
sbasg7
g504
sg38
Nsba.