(lp0
(i__main__
Chain
p1
(dp2
S'mentionList'
p3
(lp4
(i__main__
Mention
p5
(dp6
S'chainId'
p7
S't1'
p8
sS'relType'
p9
NsS'mentionId'
p10
S'i1'
p11
sS'antecedentId'
p12
NsS'crefMod'
p13
NsS'tokenList'
p14
(lp15
(i__main__
Token
p16
(dp17
S'tokenId'
p18
I7
sbasS'mentionHead'
p19
I7
sba(i__main__
Mention
p20
(dp21
g7
S't1'
p22
sg9
S'Anaphora-C'
p23
sg10
S'i4'
p24
sg12
S'i1'
p25
sg13
Nsg14
(lp26
(i__main__
Token
p27
(dp28
g18
I20
sbasg19
I20
sba(i__main__
Mention
p29
(dp30
g7
S't1'
p31
sg9
S'Coreference-Identity'
p32
sg10
S'i10'
p33
sg12
S'i4'
p34
sg13
Nsg14
(lp35
(i__main__
Token
p36
(dp37
g18
I58
sbasg19
I58
sba(i__main__
Mention
p38
(dp39
g7
S't1'
p40
sg9
S'Coreference-Identity'
p41
sg10
S'i16'
p42
sg12
S'i10'
p43
sg13
Nsg14
(lp44
(i__main__
Token
p45
(dp46
g18
I81
sbasg19
I81
sba(i__main__
Mention
p47
(dp48
g7
S't1'
p49
sg9
S'Coreference-Identity'
p50
sg10
S'i21'
p51
sg12
S'i16'
p52
sg13
Nsg14
(lp53
(i__main__
Token
p54
(dp55
g18
I121
sbasg19
I121
sba(i__main__
Mention
p56
(dp57
g7
S't1'
p58
sg9
S'Coreference-Noun-Noun'
p59
sg10
S'i24'
p60
sg12
S'i21'
p61
sg13
Nsg14
(lp62
(i__main__
Token
p63
(dp64
g18
I135
sbasg19
I135
sbasg7
g8
sS'chainHead'
p65
Nsba(i__main__
Chain
p66
(dp67
g3
(lp68
(i__main__
Mention
p69
(dp70
g7
S't2'
p71
sg9
Nsg10
S'i2'
p72
sg12
Nsg13
Nsg14
(lp73
(i__main__
Token
p74
(dp75
g18
I13
sba(i__main__
Token
p76
(dp77
g18
I14
sbasg19
I14
sba(i__main__
Mention
p78
(dp79
g7
S't2'
p80
sg9
S'Anaphora-C'
p81
sg10
S'i6'
p82
sg12
S'i2'
p83
sg13
Nsg14
(lp84
(i__main__
Token
p85
(dp86
g18
I41
sbasg19
I41
sba(i__main__
Mention
p87
(dp88
g7
S't2'
p89
sg9
S'Coreference-Identity'
p90
sg10
S'i13'
p91
sg12
S'i6'
p92
sg13
Nsg14
(lp93
(i__main__
Token
p94
(dp95
g18
I70
sba(i__main__
Token
p96
(dp97
g18
I71
sbasg19
I71
sba(i__main__
Mention
p98
(dp99
g7
S't2'
p100
sg9
S'Coreference-Identity'
p101
sg10
S'i19'
p102
sg12
S'i13'
p103
sg13
Nsg14
(lp104
(i__main__
Token
p105
(dp106
g18
I91
sba(i__main__
Token
p107
(dp108
g18
I92
sbasg19
I92
sbasg7
g71
sg65
Nsba(i__main__
Chain
p109
(dp110
g3
(lp111
(i__main__
Mention
p112
(dp113
g7
S't3'
p114
sg9
Nsg10
S'i3'
p115
sg12
Nsg13
Nsg14
(lp116
(i__main__
Token
p117
(dp118
g18
I15
sbasg19
I15
sba(i__main__
Mention
p119
(dp120
g7
S't3'
p121
sg9
S'Coreference-Identity'
p122
sg10
S'i14'
p123
sg12
S'i3'
p124
sg13
Nsg14
(lp125
(i__main__
Token
p126
(dp127
g18
I72
sbasg19
I72
sbasg7
g114
sg65
Nsba(i__main__
Chain
p128
(dp129
g3
(lp130
(i__main__
Mention
p131
(dp132
g7
S't4'
p133
sg9
Nsg10
S'i5'
p134
sg12
Nsg13
Nsg14
(lp135
(i__main__
Token
p136
(dp137
g18
I39
sbasg19
I39
sba(i__main__
Mention
p138
(dp139
g7
S't4'
p140
sg9
S'Coreference-Identity'
p141
sg10
S'i17'
p142
sg12
S'i5'
p143
sg13
Nsg14
(lp144
(i__main__
Token
p145
(dp146
g18
I85
sbasg19
I85
sbasg7
g133
sg65
Nsba(i__main__
Chain
p147
(dp148
g3
(lp149
(i__main__
Mention
p150
(dp151
g7
S't5'
p152
sg9
Nsg10
S'i7'
p153
sg12
Nsg13
Nsg14
(lp154
(i__main__
Token
p155
(dp156
g18
I42
sbasg19
I42
sba(i__main__
Mention
p157
(dp158
g7
S't5'
p159
sg9
S'Coreference-Identity'
p160
sg10
S'i18'
p161
sg12
S'i7'
p162
sg13
Nsg14
(lp163
(i__main__
Token
p164
(dp165
g18
I87
sba(i__main__
Token
p166
(dp167
g18
I88
sba(i__main__
Token
p168
(dp169
g18
I89
sbasg19
I89
sbasg7
g152
sg65
Nsba(i__main__
Chain
p170
(dp171
g3
(lp172
(i__main__
Mention
p173
(dp174
g7
S't6'
p175
sg9
Nsg10
S'i8'
p176
sg12
Nsg13
Nsg14
(lp177
(i__main__
Token
p178
(dp179
g18
I51
sba(i__main__
Token
p180
(dp181
g18
I52
sba(i__main__
Token
p182
(dp183
g18
I53
sba(i__main__
Token
p184
(dp185
g18
I54
sba(i__main__
Token
p186
(dp187
g18
I55
sbasg19
I55
sba(i__main__
Mention
p188
(dp189
g7
S't6'
p190
sg9
S'Coreference-Apposition'
p191
sg10
S'i9'
p192
sg12
S'i8'
p193
sg13
Nsg14
(lp194
(i__main__
Token
p195
(dp196
g18
I57
sba(i__main__
Token
p197
(dp198
g18
I58
sba(i__main__
Token
p199
(dp200
g18
I59
sbasg19
I59
sba(i__main__
Mention
p201
(dp202
g7
S't6'
p203
sg9
S'Coreference-NounComplement'
p204
sg10
S'i11'
p205
sg12
S'i9'
p206
sg13
Nsg14
(lp207
(i__main__
Token
p208
(dp209
g18
I60
sba(i__main__
Token
p210
(dp211
g18
I61
sbasg19
I61
sba(i__main__
Mention
p212
(dp213
g7
S't6'
p214
sg9
S'Coreference-Identity'
p215
sg10
S'i15'
p216
sg12
S'i11'
p217
sg13
Nsg14
(lp218
(i__main__
Token
p219
(dp220
g18
I77
sbasg19
I77
sba(i__main__
Mention
p221
(dp222
g7
S't6'
p223
sg9
S'Coreference-Identity'
p224
sg10
S'i22'
p225
sg12
S'i15'
p226
sg13
Nsg14
(lp227
(i__main__
Token
p228
(dp229
g18
I130
sbasg19
I130
sba(i__main__
Mention
p230
(dp231
g7
S't6'
p232
sg9
S'Anaphora-C'
p233
sg10
S'i23'
p234
sg12
S'i22'
p235
sg13
Nsg14
(lp236
(i__main__
Token
p237
(dp238
g18
I134
sbasg19
I134
sba(i__main__
Mention
p239
(dp240
g7
S't6'
p241
sg9
S'Coreference-Noun-Noun'
p242
sg10
S'i28'
p243
sg12
S'i23'
p244
sg13
Nsg14
(lp245
(i__main__
Token
p246
(dp247
g18
I173
sba(i__main__
Token
p248
(dp249
g18
I174
sbasg19
I174
sbasg7
g175
sg65
Nsba(i__main__
Chain
p250
(dp251
g3
(lp252
(i__main__
Mention
p253
(dp254
g7
S't7'
p255
sg9
S'anaphora-?'
p256
sg10
S'i12'
p257
sg12
S'i12'
p258
sg13
Nsg14
(lp259
(i__main__
Token
p260
(dp261
g18
I63
sbasg19
I63
sbasg7
g255
sg65
Nsba(i__main__
Chain
p262
(dp263
g3
(lp264
(i__main__
Mention
p265
(dp266
g7
S't8'
p267
sg9
Nsg10
S'i20'
p268
sg12
Nsg13
Nsg14
(lp269
(i__main__
Token
p270
(dp271
g18
I115
sba(i__main__
Token
p272
(dp273
g18
I116
sba(i__main__
Token
p274
(dp275
g18
I117
sba(i__main__
Token
p276
(dp277
g18
I118
sba(i__main__
Token
p278
(dp279
g18
I119
sbasg19
I119
sba(i__main__
Mention
p280
(dp281
g7
S't8'
p282
sg9
S'Anaphora-C'
p283
sg10
S'i25'
p284
sg12
S'i20'
p285
sg13
Nsg14
(lp286
(i__main__
Token
p287
(dp288
g18
I144
sbasg19
I144
sba(i__main__
Mention
p289
(dp290
g7
S't8'
p291
sg9
S'Anaphora-C'
p292
sg10
S'i26'
p293
sg12
S'i25'
p294
sg13
Nsg14
(lp295
(i__main__
Token
p296
(dp297
g18
I146
sbasg19
I146
sbasg7
g267
sg65
Nsba(i__main__
Chain
p298
(dp299
g3
(lp300
(i__main__
Mention
p301
(dp302
g7
S't9'
p303
sg9
Nsg10
S'i27'
p304
sg12
Nsg13
Nsg14
(lp305
(i__main__
Token
p306
(dp307
g18
I167
sbasg19
I167
sba(i__main__
Mention
p308
(dp309
g7
S't9'
p310
sg9
S'Coreference-Identity'
p311
sg10
S'i31'
p312
sg12
S'i27'
p313
sg13
Nsg14
(lp314
(i__main__
Token
p315
(dp316
g18
I179
sbasg19
I179
sba(i__main__
Mention
p317
(dp318
g7
S't9'
p319
sg9
S'Anaphora-C'
p320
sg10
S'i32'
p321
sg12
S'i31'
p322
sg13
Nsg14
(lp323
(i__main__
Token
p324
(dp325
g18
I183
sbasg19
I183
sbasg7
g303
sg65
Nsba(i__main__
Chain
p326
(dp327
g3
(lp328
(i__main__
Mention
p329
(dp330
g7
S't10'
p331
sg9
S'anaphora-?'
p332
sg10
S'i30'
p333
sg12
S'i30'
p334
sg13
Nsg14
(lp335
(i__main__
Token
p336
(dp337
g18
I178
sbasg19
I178
sbasg7
g331
sg65
Nsba.