(lp0
(i__main__
Chain
p1
(dp2
S'mentionList'
p3
(lp4
(i__main__
Mention
p5
(dp6
S'chainId'
p7
S't1'
p8
sS'relType'
p9
NsS'mentionId'
p10
S'i1'
p11
sS'antecedentId'
p12
NsS'crefMod'
p13
NsS'tokenList'
p14
(lp15
(i__main__
Token
p16
(dp17
S'tokenId'
p18
I0
sbasS'mentionHead'
p19
I0
sba(i__main__
Mention
p20
(dp21
g7
S't1'
p22
sg9
S'Coreference-Identity'
p23
sg10
S'i13'
p24
sg12
S'i1'
p25
sg13
Nsg14
(lp26
(i__main__
Token
p27
(dp28
g18
I52
sbasg19
I52
sbasg7
g8
sS'chainHead'
p29
Nsba(i__main__
Chain
p30
(dp31
g3
(lp32
(i__main__
Mention
p33
(dp34
g7
S't2'
p35
sg9
Nsg10
S'i2'
p36
sg12
Nsg13
Nsg14
(lp37
(i__main__
Token
p38
(dp39
g18
I3
sbasg19
I3
sba(i__main__
Mention
p40
(dp41
g7
S't2'
p42
sg9
S'Coreference-Noun-Noun'
p43
sg10
S'i3'
p44
sg12
S'i2'
p45
sg13
Nsg14
(lp46
(i__main__
Token
p47
(dp48
g18
I4
sba(i__main__
Token
p49
(dp50
g18
I5
sbasg19
I5
sba(i__main__
Mention
p51
(dp52
g7
S't2'
p53
sg9
S'Coreference-Identity'
p54
sg10
S'i4'
p55
sg12
S'i3'
p56
sg13
Nsg14
(lp57
(i__main__
Token
p58
(dp59
g18
I6
sba(i__main__
Token
p60
(dp61
g18
I7
sbasg19
I7
sba(i__main__
Mention
p62
(dp63
g7
S't2'
p64
sg9
S'Coreference-Identity'
p65
sg10
S'i6'
p66
sg12
S'i4'
p67
sg13
Nsg14
(lp68
(i__main__
Token
p69
(dp70
g18
I30
sbasg19
I30
sba(i__main__
Mention
p71
(dp72
g7
S't2'
p73
sg9
S'Coreference-Identity'
p74
sg10
S'i12'
p75
sg12
S'i6'
p76
sg13
Nsg14
(lp77
(i__main__
Token
p78
(dp79
g18
I50
sbasg19
I50
sba(i__main__
Mention
p80
(dp81
g7
S't2'
p82
sg9
S'Coreference-Identity'
p83
sg10
S'i16'
p84
sg12
S'i12'
p85
sg13
Nsg14
(lp86
(i__main__
Token
p87
(dp88
g18
I71
sbasg19
I71
sba(i__main__
Mention
p89
(dp90
g7
S't2'
p91
sg9
S'Anaphora-C'
p92
sg10
S'i18'
p93
sg12
S'i16'
p94
sg13
Nsg14
(lp95
(i__main__
Token
p96
(dp97
g18
I83
sbasg19
I83
sba(i__main__
Mention
p98
(dp99
g7
S't2'
p100
sg9
S'Anaphora-C'
p101
sg10
S'i19'
p102
sg12
S'i18'
p103
sg13
Nsg14
(lp104
(i__main__
Token
p105
(dp106
g18
I89
sbasg19
I89
sba(i__main__
Mention
p107
(dp108
g7
S't2'
p109
sg9
S'Anaphora-C'
p110
sg10
S'i20'
p111
sg12
S'i19'
p112
sg13
Nsg14
(lp113
(i__main__
Token
p114
(dp115
g18
I96
sbasg19
I96
sba(i__main__
Mention
p116
(dp117
g7
S't2'
p118
sg9
S'Anaphora-C'
p119
sg10
S'i21'
p120
sg12
S'i20'
p121
sg13
Nsg14
(lp122
(i__main__
Token
p123
(dp124
g18
I100
sbasg19
I100
sbasg7
g35
sg29
Nsba(i__main__
Chain
p125
(dp126
g3
(lp127
(i__main__
Mention
p128
(dp129
g7
S't3'
p130
sg9
Nsg10
S'i5'
p131
sg12
Nsg13
Nsg14
(lp132
(i__main__
Token
p133
(dp134
g18
I9
sba(i__main__
Token
p135
(dp136
g18
I10
sba(i__main__
Token
p137
(dp138
g18
I11
sbasg19
I11
sba(i__main__
Mention
p139
(dp140
g7
S't3'
p141
sg9
S'Coreference-Identity'
p142
sg10
S'i8'
p143
sg12
S'i5'
p144
sg13
Nsg14
(lp145
(i__main__
Token
p146
(dp147
g18
I34
sbasg19
I34
sba(i__main__
Mention
p148
(dp149
g7
S't3'
p150
sg9
S'Coreference-Identity'
p151
sg10
S'i23'
p152
sg12
S'i8'
p153
sg13
Nsg14
(lp154
(i__main__
Token
p155
(dp156
g18
I109
sbasg19
I109
sbasg7
g130
sg29
Nsba(i__main__
Chain
p157
(dp158
g3
(lp159
(i__main__
Mention
p160
(dp161
g7
S't4'
p162
sg9
Nsg10
S'i7'
p163
sg12
Nsg13
Nsg14
(lp164
(i__main__
Token
p165
(dp166
g18
I32
sbasg19
I32
sba(i__main__
Mention
p167
(dp168
g7
S't4'
p169
sg9
S'Coreference-Identity'
p170
sg10
S'i22'
p171
sg12
S'i7'
p172
sg13
Nsg14
(lp173
(i__main__
Token
p174
(dp175
g18
I101
sbasg19
I101
sbasg7
g162
sg29
Nsba(i__main__
Chain
p176
(dp177
g3
(lp178
(i__main__
Mention
p179
(dp180
g7
S't5'
p181
sg9
Nsg10
S'i9'
p182
sg12
Nsg13
Nsg14
(lp183
(i__main__
Token
p184
(dp185
g18
I36
sbasg19
I36
sba(i__main__
Mention
p186
(dp187
g7
S't5'
p188
sg9
S'Coreference-NounComplement'
p189
sg10
S'i10'
p190
sg12
S'i9'
p191
sg13
Nsg14
(lp192
(i__main__
Token
p193
(dp194
g18
I38
sba(i__main__
Token
p195
(dp196
g18
I39
sba(i__main__
Token
p197
(dp198
g18
I40
sbasg19
I38
sbasg7
g181
sg29
Nsba(i__main__
Chain
p199
(dp200
g3
(lp201
(i__main__
Mention
p202
(dp203
g7
S't6'
p204
sg9
Nsg10
S'i11'
p205
sg12
Nsg13
Nsg14
(lp206
(i__main__
Token
p207
(dp208
g18
I43
sbasg19
I43
sba(i__main__
Mention
p209
(dp210
g7
S't6'
p211
sg9
S'Coreference-Identity'
p212
sg10
S'i17'
p213
sg12
S'i11'
p214
sg13
Nsg14
(lp215
(i__main__
Token
p216
(dp217
g18
I72
sbasg19
I72
sbasg7
g204
sg29
Nsba(i__main__
Chain
p218
(dp219
g3
(lp220
(i__main__
Mention
p221
(dp222
g7
S't7'
p223
sg9
Nsg10
S'i14'
p224
sg12
Nsg13
Nsg14
(lp225
(i__main__
Token
p226
(dp227
g18
I63
sba(i__main__
Token
p228
(dp229
g18
I64
sbasg19
I64
sba(i__main__
Mention
p230
(dp231
g7
S't7'
p232
sg9
S'Coreference-NounComplement'
p233
sg10
S'i15'
p234
sg12
S'i14'
p235
sg13
Nsg14
(lp236
(i__main__
Token
p237
(dp238
g18
I65
sba(i__main__
Token
p239
(dp240
g18
I66
sba(i__main__
Token
p241
(dp242
g18
I67
sbasg19
I67
sbasg7
g223
sg29
Nsba.