(lp0
(i__main__
Chain
p1
(dp2
S'mentionList'
p3
(lp4
(i__main__
Mention
p5
(dp6
S'chainId'
p7
S't1'
p8
sS'relType'
p9
NsS'mentionId'
p10
S'i1'
p11
sS'antecedentId'
p12
NsS'crefMod'
p13
NsS'tokenList'
p14
(lp15
(i__main__
Token
p16
(dp17
S'tokenId'
p18
I0
sba(i__main__
Token
p19
(dp20
g18
I1
sbasS'mentionHead'
p21
I1
sba(i__main__
Mention
p22
(dp23
g7
S't1'
p24
sg9
S'Coreference-Identity'
p25
sg10
S'i4'
p26
sg12
S'i1'
p27
sg13
Nsg14
(lp28
(i__main__
Token
p29
(dp30
g18
I16
sbasg21
I16
sba(i__main__
Mention
p31
(dp32
g7
S't1'
p33
sg9
S'Anaphora-C'
p34
sg10
S'i5'
p35
sg12
S'i4'
p36
sg13
Nsg14
(lp37
(i__main__
Token
p38
(dp39
g18
I19
sbasg21
I19
sba(i__main__
Mention
p40
(dp41
g7
S't1'
p42
sg9
S'Anaphora-C'
p43
sg10
S'i7'
p44
sg12
S'i5'
p45
sg13
Nsg14
(lp46
(i__main__
Token
p47
(dp48
g18
I35
sbasg21
I35
sba(i__main__
Mention
p49
(dp50
g7
S't1'
p51
sg9
S'Anaphora-C'
p52
sg10
S'i9'
p53
sg12
S'i7'
p54
sg13
Nsg14
(lp55
(i__main__
Token
p56
(dp57
g18
I38
sbasg21
I38
sba(i__main__
Mention
p58
(dp59
g7
S't1'
p60
sg9
S'Coreference-Identity'
p61
sg10
S'i13'
p62
sg12
S'i9'
p63
sg13
Nsg14
(lp64
(i__main__
Token
p65
(dp66
g18
I54
sbasg21
I54
sba(i__main__
Mention
p67
(dp68
g7
S't1'
p69
sg9
S'Anaphora-C'
p70
sg10
S'i15'
p71
sg12
S'i13'
p72
sg13
Nsg14
(lp73
(i__main__
Token
p74
(dp75
g18
I67
sbasg21
I67
sba(i__main__
Mention
p76
(dp77
g7
S't1'
p78
sg9
S'Coreference-Identity'
p79
sg10
S'i20'
p80
sg12
S'i15'
p81
sg13
Nsg14
(lp82
(i__main__
Token
p83
(dp84
g18
I95
sbasg21
I95
sba(i__main__
Mention
p85
(dp86
g7
S't1'
p87
sg9
S'Anaphora-C'
p88
sg10
S'i22'
p89
sg12
S'i20'
p90
sg13
Nsg14
(lp91
(i__main__
Token
p92
(dp93
g18
I106
sbasg21
I106
sba(i__main__
Mention
p94
(dp95
g7
S't1'
p96
sg9
S'Coreference-Identity'
p97
sg10
S'i26'
p98
sg12
S'i22'
p99
sg13
Nsg14
(lp100
(i__main__
Token
p101
(dp102
g18
I133
sbasg21
I133
sba(i__main__
Mention
p103
(dp104
g7
S't1'
p105
sg9
S'Anaphora-C'
p106
sg10
S'i30'
p107
sg12
S'i26'
p108
sg13
Nsg14
(lp109
(i__main__
Token
p110
(dp111
g18
I160
sbasg21
I160
sba(i__main__
Mention
p112
(dp113
g7
S't1'
p114
sg9
S'Anaphora-C'
p115
sg10
S'i32'
p116
sg12
S'i30'
p117
sg13
Nsg14
(lp118
(i__main__
Token
p119
(dp120
g18
I166
sbasg21
I166
sba(i__main__
Mention
p121
(dp122
g7
S't1'
p123
sg9
S'Anaphora-C'
p124
sg10
S'i33'
p125
sg12
S'i32'
p126
sg13
Nsg14
(lp127
(i__main__
Token
p128
(dp129
g18
I169
sbasg21
I169
sba(i__main__
Mention
p130
(dp131
g7
S't1'
p132
sg9
S'Anaphora-C'
p133
sg10
S'i35'
p134
sg12
S'i33'
p135
sg13
Nsg14
(lp136
(i__main__
Token
p137
(dp138
g18
I184
sbasg21
I184
sba(i__main__
Mention
p139
(dp140
g7
S't1'
p141
sg9
S'Anaphora-C'
p142
sg10
S'i38'
p143
sg12
S'i35'
p144
sg13
Nsg14
(lp145
(i__main__
Token
p146
(dp147
g18
I205
sbasg21
I205
sba(i__main__
Mention
p148
(dp149
g7
S't1'
p150
sg9
S'Anaphora-C'
p151
sg10
S'i40'
p152
sg12
S'i38'
p153
sg13
Nsg14
(lp154
(i__main__
Token
p155
(dp156
g18
I214
sbasg21
I214
sba(i__main__
Mention
p157
(dp158
g7
S't1'
p159
sg9
S'Anaphora-C'
p160
sg10
S'i41'
p161
sg12
S'i40'
p162
sg13
Nsg14
(lp163
(i__main__
Token
p164
(dp165
g18
I224
sbasg21
I224
sba(i__main__
Mention
p166
(dp167
g7
S't1'
p168
sg9
S'Anaphora-C'
p169
sg10
S'i45'
p170
sg12
S'i41'
p171
sg13
Nsg14
(lp172
(i__main__
Token
p173
(dp174
g18
I263
sbasg21
I263
sba(i__main__
Mention
p175
(dp176
g7
S't1'
p177
sg9
S'Coreference-Identity'
p178
sg10
S'i47'
p179
sg12
S'i45'
p180
sg13
Nsg14
(lp181
(i__main__
Token
p182
(dp183
g18
I282
sbasg21
I282
sba(i__main__
Mention
p184
(dp185
g7
S't1'
p186
sg9
S'Anaphora-C'
p187
sg10
S'i48'
p188
sg12
S'i47'
p189
sg13
Nsg14
(lp190
(i__main__
Token
p191
(dp192
g18
I285
sbasg21
I285
sba(i__main__
Mention
p193
(dp194
g7
S't1'
p195
sg9
S'Anaphora-C'
p196
sg10
S'i49'
p197
sg12
S'i48'
p198
sg13
Nsg14
(lp199
(i__main__
Token
p200
(dp201
g18
I286
sbasg21
I286
sbasg7
g8
sS'chainHead'
p202
Nsba(i__main__
Chain
p203
(dp204
g3
(lp205
(i__main__
Mention
p206
(dp207
g7
S't2'
p208
sg9
Nsg10
S'i2'
p209
sg12
Nsg13
Nsg14
(lp210
(i__main__
Token
p211
(dp212
g18
I9
sbasg21
I9
sba(i__main__
Mention
p213
(dp214
g7
S't2'
p215
sg9
S'Coreference-Identity'
p216
sg10
S'i14'
p217
sg12
S'i2'
p218
sg13
Nsg14
(lp219
(i__main__
Token
p220
(dp221
g18
I58
sbasg21
I58
sba(i__main__
Mention
p222
(dp223
g7
S't2'
p224
sg9
S'Coreference-Identity'
p225
sg10
S'i17'
p226
sg12
S'i14'
p227
sg13
Nsg14
(lp228
(i__main__
Token
p229
(dp230
g18
I73
sbasg21
I73
sba(i__main__
Mention
p231
(dp232
g7
S't2'
p233
sg9
S'Coreference-Identity'
p234
sg10
S'i21'
p235
sg12
S'i17'
p236
sg13
Nsg14
(lp237
(i__main__
Token
p238
(dp239
g18
I98
sbasg21
I98
sbasg7
g208
sg202
Nsba(i__main__
Chain
p240
(dp241
g3
(lp242
(i__main__
Mention
p243
(dp244
g7
S't3'
p245
sg9
S'anaphora-?'
p246
sg10
S'i3'
p247
sg12
S'i3'
p248
sg13
Nsg14
(lp249
(i__main__
Token
p250
(dp251
g18
I11
sbasg21
I11
sbasg7
g245
sg202
Nsba(i__main__
Chain
p252
(dp253
g3
(lp254
(i__main__
Mention
p255
(dp256
g7
S't4'
p257
sg9
Nsg10
S'i6'
p258
sg12
Nsg13
Nsg14
(lp259
(i__main__
Token
p260
(dp261
g18
I20
sbasg21
I20
sba(i__main__
Mention
p262
(dp263
g7
S't4'
p264
sg9
S'Coreference-Identity'
p265
sg10
S'i37'
p266
sg12
S'i6'
p267
sg13
Nsg14
(lp268
(i__main__
Token
p269
(dp270
g18
I198
sba(i__main__
Token
p271
(dp272
g18
I199
sbasg21
I199
sbasg7
g257
sg202
Nsba(i__main__
Chain
p273
(dp274
g3
(lp275
(i__main__
Mention
p276
(dp277
g7
S't5'
p278
sg9
Nsg10
S'i8'
p279
sg12
Nsg13
Nsg14
(lp280
(i__main__
Token
p281
(dp282
g18
I36
sbasg21
I36
sba(i__main__
Mention
p283
(dp284
g7
S't5'
p285
sg9
S'Coreference-Identity'
p286
sg10
S'i10'
p287
sg12
S'i8'
p288
sg13
Nsg14
(lp289
(i__main__
Token
p290
(dp291
g18
I45
sbasg21
I45
sba(i__main__
Mention
p292
(dp293
g7
S't5'
p294
sg9
S'Coreference-Identity'
p295
sg10
S'i27'
p296
sg12
S'i10'
p297
sg13
Nsg14
(lp298
(i__main__
Token
p299
(dp300
g18
I140
sbasg21
I140
sba(i__main__
Mention
p301
(dp302
g7
S't5'
p303
sg9
S'Coreference-Identity'
p304
sg10
S'i31'
p305
sg12
S'i27'
p306
sg13
Nsg14
(lp307
(i__main__
Token
p308
(dp309
g18
I161
sbasg21
I161
sba(i__main__
Mention
p310
(dp311
g7
S't5'
p312
sg9
S'Coreference-Identity'
p313
sg10
S'i34'
p314
sg12
S'i31'
p315
sg13
Nsg14
(lp316
(i__main__
Token
p317
(dp318
g18
I170
sbasg21
I170
sba(i__main__
Mention
p319
(dp320
g7
S't5'
p321
sg9
S'Coreference-Identity'
p322
sg10
S'i39'
p323
sg12
S'i34'
p324
sg13
Nsg14
(lp325
(i__main__
Token
p326
(dp327
g18
I206
sbasg21
I206
sbasg7
g278
sg202
Nsba(i__main__
Chain
p328
(dp329
g3
(lp330
(i__main__
Mention
p331
(dp332
g7
S't6'
p333
sg9
Nsg10
S'i11'
p334
sg12
Nsg13
Nsg14
(lp335
(i__main__
Token
p336
(dp337
g18
I47
sbasg21
I47
sba(i__main__
Mention
p338
(dp339
g7
S't6'
p340
sg9
S'Coreference-NounComplement'
p341
sg10
S'i12'
p342
sg12
S'i11'
p343
sg13
Nsg14
(lp344
(i__main__
Token
p345
(dp346
g18
I48
sba(i__main__
Token
p347
(dp348
g18
I49
sbasg21
I49
sbasg7
g333
sg202
Nsba(i__main__
Chain
p349
(dp350
g3
(lp351
(i__main__
Mention
p352
(dp353
g7
S't7'
p354
sg9
S'anaphora-?'
p355
sg10
S'i16'
p356
sg12
S'i16'
p357
sg13
Nsg14
(lp358
(i__main__
Token
p359
(dp360
g18
I68
sbasg21
I68
sba(i__main__
Mention
p361
(dp362
g7
S't7'
p363
sg9
S'Anaphora-RC'
p364
sg10
S'i18'
p365
sg12
S'i16'
p366
sg13
Nsg14
(lp367
(i__main__
Token
p368
(dp369
g18
I73
sba(i__main__
Token
p370
(dp371
g18
I74
sba(i__main__
Token
p372
(dp373
g18
I75
sba(i__main__
Token
p374
(dp375
g18
I76
sba(i__main__
Token
p376
(dp377
g18
I77
sba(i__main__
Token
p378
(dp379
g18
I78
sba(i__main__
Token
p380
(dp381
g18
I79
sba(i__main__
Token
p382
(dp383
g18
I80
sba(i__main__
Token
p384
(dp385
g18
I81
sba(i__main__
Token
p386
(dp387
g18
I82
sba(i__main__
Token
p388
(dp389
g18
I83
sba(i__main__
Token
p390
(dp391
g18
I84
sba(i__main__
Token
p392
(dp393
g18
I85
sba(i__main__
Token
p394
(dp395
g18
I86
sba(i__main__
Token
p396
(dp397
g18
I87
sba(i__main__
Token
p398
(dp399
g18
I88
sba(i__main__
Token
p400
(dp401
g18
I89
sba(i__main__
Token
p402
(dp403
g18
I90
sba(i__main__
Token
p404
(dp405
g18
I91
sba(i__main__
Token
p406
(dp407
g18
I92
sba(i__main__
Token
p408
(dp409
g18
I93
sbasg21
I93
sbasg7
g354
sg202
Nsba(i__main__
Chain
p410
(dp411
g3
(lp412
(i__main__
Mention
p413
(dp414
g7
S't8'
p415
sg9
Nsg10
S'i19'
p416
sg12
Nsg13
Nsg14
(lp417
(i__main__
Token
p418
(dp419
g18
I77
sbasg21
I77
sba(i__main__
Mention
p420
(dp421
g7
S't8'
p422
sg9
S'Coreference-Identity'
p423
sg10
S'i42'
p424
sg12
S'i19'
p425
sg13
Nsg14
(lp426
(i__main__
Token
p427
(dp428
g18
I237
sbasg21
I237
sba(i__main__
Mention
p429
(dp430
g7
S't8'
p431
sg9
S'Coreference-Identity'
p432
sg10
S'i46'
p433
sg12
S'i42'
p434
sg13
Nsg14
(lp435
(i__main__
Token
p436
(dp437
g18
I273
sbasg21
I273
sbasg7
g415
sg202
Nsba(i__main__
Chain
p438
(dp439
g3
(lp440
(i__main__
Mention
p441
(dp442
g7
S't9'
p443
sg9
Nsg10
S'i23'
p444
sg12
Nsg13
Nsg14
(lp445
(i__main__
Token
p446
(dp447
g18
I110
sbasg21
I110
sba(i__main__
Mention
p448
(dp449
g7
S't9'
p450
sg9
S'Anaphora-C'
p451
sg10
S'i24'
p452
sg12
S'i23'
p453
sg13
Nsg14
(lp454
(i__main__
Token
p455
(dp456
g18
I118
sbasg21
I118
sba(i__main__
Mention
p457
(dp458
g7
S't9'
p459
sg9
S'Anaphora-C'
p460
sg10
S'i25'
p461
sg12
S'i24'
p462
sg13
Nsg14
(lp463
(i__main__
Token
p464
(dp465
g18
I124
sbasg21
I124
sba(i__main__
Mention
p466
(dp467
g7
S't9'
p468
sg9
S'Coreference-PartOf'
p469
sg10
S'i36'
p470
sg12
S'i25'
p471
sg13
Nsg14
(lp472
(i__main__
Token
p473
(dp474
g18
I187
sba(i__main__
Token
p475
(dp476
g18
I188
sbasg21
I188
sba(i__main__
Mention
p477
(dp478
g7
S't9'
p479
sg9
S'Coreference-RPartOf'
p480
sg10
S'i44'
p481
sg12
S'i36'
p482
sg13
Nsg14
(lp483
(i__main__
Token
p484
(dp485
g18
I256
sbasg21
I256
sbasg7
g443
sg202
Nsba(i__main__
Chain
p486
(dp487
g3
(lp488
(i__main__
Mention
p489
(dp490
g7
S't10'
p491
sg9
Nsg10
S'i28'
p492
sg12
Nsg13
Nsg14
(lp493
(i__main__
Token
p494
(dp495
g18
I140
sba(i__main__
Token
p496
(dp497
g18
I141
sba(i__main__
Token
p498
(dp499
g18
I142
sba(i__main__
Token
p500
(dp501
g18
I143
sba(i__main__
Token
p502
(dp503
g18
I144
sba(i__main__
Token
p504
(dp505
g18
I145
sba(i__main__
Token
p506
(dp507
g18
I146
sba(i__main__
Token
p508
(dp509
g18
I147
sba(i__main__
Token
p510
(dp511
g18
I148
sba(i__main__
Token
p512
(dp513
g18
I149
sba(i__main__
Token
p514
(dp515
g18
I150
sba(i__main__
Token
p516
(dp517
g18
I151
sba(i__main__
Token
p518
(dp519
g18
I152
sba(i__main__
Token
p520
(dp521
g18
I153
sba(i__main__
Token
p522
(dp523
g18
I154
sba(i__main__
Token
p524
(dp525
g18
I155
sbasg21
I155
sba(i__main__
Mention
p526
(dp527
g7
S't10'
p528
sg9
S'Anaphora-E'
p529
sg10
S'i29'
p530
sg12
S'i28'
p531
sg13
Nsg14
(lp532
(i__main__
Token
p533
(dp534
g18
I156
sbasg21
I156
sbasg7
g491
sg202
Nsba(i__main__
Chain
p535
(dp536
g3
(lp537
(i__main__
Mention
p538
(dp539
g7
S't11'
p540
sg9
S'anaphora-?'
p541
sg10
S'i43'
p542
sg12
S'i43'
p543
sg13
Nsg14
(lp544
(i__main__
Token
p545
(dp546
g18
I251
sbasg21
I251
sbasg7
g540
sg202
Nsba.