(lp0
(i__main__
Chain
p1
(dp2
S'mentionList'
p3
(lp4
(i__main__
Mention
p5
(dp6
S'chainId'
p7
S't1'
p8
sS'relType'
p9
NsS'mentionId'
p10
S'i1'
p11
sS'antecedentId'
p12
NsS'crefMod'
p13
NsS'tokenList'
p14
(lp15
(i__main__
Token
p16
(dp17
S'tokenId'
p18
I0
sbasS'mentionHead'
p19
I0
sba(i__main__
Mention
p20
(dp21
g7
S't1'
p22
sg9
S'Coreference-Identity'
p23
sg10
S'i29'
p24
sg12
S'i1'
p25
sg13
Nsg14
(lp26
(i__main__
Token
p27
(dp28
g18
I137
sbasg19
I137
sbasg7
g8
sS'chainHead'
p29
Nsba(i__main__
Chain
p30
(dp31
g3
(lp32
(i__main__
Mention
p33
(dp34
g7
S't2'
p35
sg9
Nsg10
S'i2'
p36
sg12
Nsg13
Nsg14
(lp37
(i__main__
Token
p38
(dp39
g18
I7
sbasg19
I7
sba(i__main__
Mention
p40
(dp41
g7
S't2'
p42
sg9
S'Anaphora-C'
p43
sg10
S'i3'
p44
sg12
S'i2'
p45
sg13
Nsg14
(lp46
(i__main__
Token
p47
(dp48
g18
I8
sbasg19
I8
sba(i__main__
Mention
p49
(dp50
g7
S't2'
p51
sg9
S'Anaphora-C'
p52
sg10
S'i6'
p53
sg12
S'i3'
p54
sg13
Nsg14
(lp55
(i__main__
Token
p56
(dp57
g18
I24
sbasg19
I24
sba(i__main__
Mention
p58
(dp59
g7
S't2'
p60
sg9
S'Coreference-Noun-Noun'
p61
sg10
S'i13'
p62
sg12
S'i6'
p63
sg13
Nsg14
(lp64
(i__main__
Token
p65
(dp66
g18
I53
sba(i__main__
Token
p67
(dp68
g18
I54
sbasg19
I54
sba(i__main__
Mention
p69
(dp70
g7
S't2'
p71
sg9
S'Coreference-Noun-Noun'
p72
sg10
S'i30'
p73
sg12
S'i13'
p74
sg13
Nsg14
(lp75
(i__main__
Token
p76
(dp77
g18
I140
sbasg19
I140
sba(i__main__
Mention
p78
(dp79
g7
S't2'
p80
sg9
S'Coreference-Identity'
p81
sg10
S'i38'
p82
sg12
S'i30'
p83
sg13
Nsg14
(lp84
(i__main__
Token
p85
(dp86
g18
I181
sba(i__main__
Token
p87
(dp88
g18
I182
sbasg19
I182
sba(i__main__
Mention
p89
(dp90
g7
S't2'
p91
sg9
S'Coreference-Noun-Noun'
p92
sg10
S'i53'
p93
sg12
S'i38'
p94
sg13
Nsg14
(lp95
(i__main__
Token
p96
(dp97
g18
I303
sbasg19
I303
sbasg7
g35
sg29
Nsba(i__main__
Chain
p98
(dp99
g3
(lp100
(i__main__
Mention
p101
(dp102
g7
S't3'
p103
sg9
Nsg10
S'i4'
p104
sg12
Nsg13
Nsg14
(lp105
(i__main__
Token
p106
(dp107
g18
I12
sbasg19
I12
sba(i__main__
Mention
p108
(dp109
g7
S't3'
p110
sg9
S'Coreference-Noun-Noun'
p111
sg10
S'i22'
p112
sg12
S'i4'
p113
sg13
Nsg14
(lp114
(i__main__
Token
p115
(dp116
g18
I106
sbasg19
I106
sbasg7
g103
sg29
Nsba(i__main__
Chain
p117
(dp118
g3
(lp119
(i__main__
Mention
p120
(dp121
g7
S't4'
p122
sg9
Nsg10
S'i5'
p123
sg12
Nsg13
Nsg14
(lp124
(i__main__
Token
p125
(dp126
g18
I14
sba(i__main__
Token
p127
(dp128
g18
I15
sba(i__main__
Token
p129
(dp130
g18
I16
sbasg19
I16
sba(i__main__
Mention
p131
(dp132
g7
S't4'
p133
sg9
S'Coreference-Identity'
p134
sg10
S'i8'
p135
sg12
S'i5'
p136
sg13
Nsg14
(lp137
(i__main__
Token
p138
(dp139
g18
I28
sba(i__main__
Token
p140
(dp141
g18
I29
sbasg19
I29
sba(i__main__
Mention
p142
(dp143
g7
S't4'
p144
sg9
S'Coreference-Identity'
p145
sg10
S'i18'
p146
sg12
S'i8'
p147
sg13
Nsg14
(lp148
(i__main__
Token
p149
(dp150
g18
I80
sba(i__main__
Token
p151
(dp152
g18
I81
sbasg19
I81
sba(i__main__
Mention
p153
(dp154
g7
S't4'
p155
sg9
S'Anaphora-C'
p156
sg10
S'i44'
p157
sg12
S'i18'
p158
sg13
Nsg14
(lp159
(i__main__
Token
p160
(dp161
g18
I221
sbasg19
I221
sba(i__main__
Mention
p162
(dp163
g7
S't4'
p164
sg9
S'Coreference-Identity'
p165
sg10
S'i47'
p166
sg12
S'i44'
p167
sg13
Nsg14
(lp168
(i__main__
Token
p169
(dp170
g18
I261
sba(i__main__
Token
p171
(dp172
g18
I262
sba(i__main__
Token
p173
(dp174
g18
I263
sbasg19
I263
sba(i__main__
Mention
p175
(dp176
g7
S't4'
p177
sg9
S'Coreference-Identity'
p178
sg10
S'i49'
p179
sg12
S'i47'
p180
sg13
Nsg14
(lp181
(i__main__
Token
p182
(dp183
g18
I272
sba(i__main__
Token
p184
(dp185
g18
I273
sbasg19
I273
sba(i__main__
Mention
p186
(dp187
g7
S't4'
p188
sg9
S'Coreference-Identity'
p189
sg10
S'i62'
p190
sg12
S'i49'
p191
sg13
Nsg14
(lp192
(i__main__
Token
p193
(dp194
g18
I335
sba(i__main__
Token
p195
(dp196
g18
I336
sbasg19
I336
sba(i__main__
Mention
p197
(dp198
g7
S't4'
p199
sg9
S'Coreference-Noun-Noun'
p200
sg10
S'i66'
p201
sg12
S'i62'
p202
sg13
Nsg14
(lp203
(i__main__
Token
p204
(dp205
g18
I374
sbasg19
I374
sbasg7
g122
sg29
Nsba(i__main__
Chain
p206
(dp207
g3
(lp208
(i__main__
Mention
p209
(dp210
g7
S't5'
p211
sg9
Nsg10
S'i7'
p212
sg12
Nsg13
Nsg14
(lp213
(i__main__
Token
p214
(dp215
g18
I25
sba(i__main__
Token
p216
(dp217
g18
I26
sbasg19
I26
sba(i__main__
Mention
p218
(dp219
g7
S't5'
p220
sg9
S'Coreference-Identity'
p221
sg10
S'i19'
p222
sg12
S'i7'
p223
sg13
Nsg14
(lp224
(i__main__
Token
p225
(dp226
g18
I91
sba(i__main__
Token
p227
(dp228
g18
I92
sbasg19
I92
sba(i__main__
Mention
p229
(dp230
g7
S't5'
p231
sg9
S'Coreference-Identity'
p232
sg10
S'i26'
p233
sg12
S'i19'
p234
sg13
Nsg14
(lp235
(i__main__
Token
p236
(dp237
g18
I119
sbasg19
I119
sba(i__main__
Mention
p238
(dp239
g7
S't5'
p240
sg9
S'Coreference-Identity'
p241
sg10
S'i32'
p242
sg12
S'i26'
p243
sg13
Nsg14
(lp244
(i__main__
Token
p245
(dp246
g18
I152
sbasg19
I152
sba(i__main__
Mention
p247
(dp248
g7
S't5'
p249
sg9
S'Coreference-Identity'
p250
sg10
S'i48'
p251
sg12
S'i32'
p252
sg13
Nsg14
(lp253
(i__main__
Token
p254
(dp255
g18
I270
sba(i__main__
Token
p256
(dp257
g18
I271
sbasg19
I271
sba(i__main__
Mention
p258
(dp259
g7
S't5'
p260
sg9
S'Coreference-Identity'
p261
sg10
S'i59'
p262
sg12
S'i48'
p263
sg13
Nsg14
(lp264
(i__main__
Token
p265
(dp266
g18
I329
sbasg19
I329
sba(i__main__
Mention
p267
(dp268
g7
S't5'
p269
sg9
S'Coreference-Identity'
p270
sg10
S'i65'
p271
sg12
S'i59'
p272
sg13
Nsg14
(lp273
(i__main__
Token
p274
(dp275
g18
I366
sbasg19
I366
sbasg7
g211
sg29
Nsba(i__main__
Chain
p276
(dp277
g3
(lp278
(i__main__
Mention
p279
(dp280
g7
S't6'
p281
sg9
Nsg10
S'i9'
p282
sg12
Nsg13
Nsg14
(lp283
(i__main__
Token
p284
(dp285
g18
I31
sba(i__main__
Token
p286
(dp287
g18
I32
sba(i__main__
Token
p288
(dp289
g18
I33
sba(i__main__
Token
p290
(dp291
g18
I34
sbasg19
I34
sba(i__main__
Mention
p292
(dp293
g7
S't6'
p294
sg9
S'Coreference-Identity'
p295
sg10
S'i23'
p296
sg12
S'i9'
p297
sg13
Nsg14
(lp298
(i__main__
Token
p299
(dp300
g18
I108
sba(i__main__
Token
p301
(dp302
g18
I109
sba(i__main__
Token
p303
(dp304
g18
I110
sba(i__main__
Token
p305
(dp306
g18
I111
sbasg19
I111
sbasg7
g281
sg29
Nsba(i__main__
Chain
p307
(dp308
g3
(lp309
(i__main__
Mention
p310
(dp311
g7
S't7'
p312
sg9
Nsg10
S'i10'
p313
sg12
Nsg13
Nsg14
(lp314
(i__main__
Token
p315
(dp316
g18
I37
sbasg19
I37
sba(i__main__
Mention
p317
(dp318
g7
S't7'
p319
sg9
S'Coreference-Identity'
p320
sg10
S'i24'
p321
sg12
S'i10'
p322
sg13
Nsg14
(lp323
(i__main__
Token
p324
(dp325
g18
I114
sbasg19
I114
sba(i__main__
Mention
p326
(dp327
g7
S't7'
p328
sg9
S'Anaphora-C'
p329
sg10
S'i25'
p330
sg12
S'i24'
p331
sg13
Nsg14
(lp332
(i__main__
Token
p333
(dp334
g18
I117
sbasg19
I117
sba(i__main__
Mention
p335
(dp336
g7
S't7'
p337
sg9
S'Coreference-Identity'
p338
sg10
S'i31'
p339
sg12
S'i25'
p340
sg13
Nsg14
(lp341
(i__main__
Token
p342
(dp343
g18
I142
sba(i__main__
Token
p344
(dp345
g18
I143
sbasg19
I143
sba(i__main__
Mention
p346
(dp347
g7
S't7'
p348
sg9
S'Coreference-Identity'
p349
sg10
S'i33'
p350
sg12
S'i31'
p351
sg13
Nsg14
(lp352
(i__main__
Token
p353
(dp354
g18
I154
sbasg19
I154
sbasg7
g312
sg29
Nsba(i__main__
Chain
p355
(dp356
g3
(lp357
(i__main__
Mention
p358
(dp359
g7
S't8'
p360
sg9
Nsg10
S'i11'
p361
sg12
Nsg13
Nsg14
(lp362
(i__main__
Token
p363
(dp364
g18
I48
sba(i__main__
Token
p365
(dp366
g18
I49
sbasg19
I49
sba(i__main__
Mention
p367
(dp368
g7
S't8'
p369
sg9
S'Coreference-NounComplement'
p370
sg10
S'i12'
p371
sg12
S'i11'
p372
sg13
Nsg14
(lp373
(i__main__
Token
p374
(dp375
g18
I50
sba(i__main__
Token
p376
(dp377
g18
I51
sbasg19
I51
sba(i__main__
Mention
p378
(dp379
g7
S't8'
p380
sg9
S'Coreference-Noun-Noun'
p381
sg10
S'i50'
p382
sg12
S'i12'
p383
sg13
Nsg14
(lp384
(i__main__
Token
p385
(dp386
g18
I296
sba(i__main__
Token
p387
(dp388
g18
I297
sbasg19
I297
sba(i__main__
Mention
p389
(dp390
g7
S't8'
p391
sg9
S'Coreference-NounComplement'
p392
sg10
S'i51'
p393
sg12
S'i50'
p394
sg13
Nsg14
(lp395
(i__main__
Token
p396
(dp397
g18
I298
sba(i__main__
Token
p398
(dp399
g18
I299
sbasg19
I299
sba(i__main__
Mention
p400
(dp401
g7
S't8'
p402
sg9
S'Coreference-Identity'
p403
sg10
S'i63'
p404
sg12
S'i51'
p405
sg13
Nsg14
(lp406
(i__main__
Token
p407
(dp408
g18
I345
sbasg19
I345
sbasg7
g360
sg29
Nsba(i__main__
Chain
p409
(dp410
g3
(lp411
(i__main__
Mention
p412
(dp413
g7
S't9'
p414
sg9
Nsg10
S'i14'
p415
sg12
Nsg13
Nsg14
(lp416
(i__main__
Token
p417
(dp418
g18
I59
sba(i__main__
Token
p419
(dp420
g18
I60
sbasg19
I60
sba(i__main__
Mention
p421
(dp422
g7
S't9'
p423
sg9
S'Coreference-Identity'
p424
sg10
S'i54'
p425
sg12
S'i14'
p426
sg13
Nsg14
(lp427
(i__main__
Token
p428
(dp429
g18
I305
sba(i__main__
Token
p430
(dp431
g18
I306
sbasg19
I306
sba(i__main__
Mention
p432
(dp433
g7
S't9'
p434
sg9
S'Coreference-Identity'
p435
sg10
S'i64'
p436
sg12
S'i54'
p437
sg13
Nsg14
(lp438
(i__main__
Token
p439
(dp440
g18
I349
sba(i__main__
Token
p441
(dp442
g18
I350
sbasg19
I350
sbasg7
g414
sg29
Nsba(i__main__
Chain
p443
(dp444
g3
(lp445
(i__main__
Mention
p446
(dp447
g7
S't10'
p448
sg9
Nsg10
S'i15'
p449
sg12
Nsg13
Nsg14
(lp450
(i__main__
Token
p451
(dp452
g18
I65
sbasg19
I65
sba(i__main__
Mention
p453
(dp454
g7
S't10'
p455
sg9
S'Coreference-Identity'
p456
sg10
S'i52'
p457
sg12
S'i15'
p458
sg13
Nsg14
(lp459
(i__main__
Token
p460
(dp461
g18
I301
sbasg19
I301
sbasg7
g448
sg29
Nsba(i__main__
Chain
p462
(dp463
g3
(lp464
(i__main__
Mention
p465
(dp466
g7
S't11'
p467
sg9
Nsg10
S'i16'
p468
sg12
Nsg13
Nsg14
(lp469
(i__main__
Token
p470
(dp471
g18
I71
sbasg19
I71
sbasg7
g467
sg29
Nsba(i__main__
Chain
p472
(dp473
g3
(lp474
(i__main__
Mention
p475
(dp476
g7
S't12'
p477
sg9
Nsg10
S'i17'
p478
sg12
Nsg13
Nsg14
(lp479
(i__main__
Token
p480
(dp481
g18
I73
sba(i__main__
Token
p482
(dp483
g18
I74
sba(i__main__
Token
p484
(dp485
g18
I75
sba(i__main__
Token
p486
(dp487
g18
I76
sbasg19
I76
sba(i__main__
Mention
p488
(dp489
g7
S't12'
p490
sg9
S'Coreference-Identity'
p491
sg10
S'i56'
p492
sg12
S'i17'
p493
sg13
Nsg14
(lp494
(i__main__
Token
p495
(dp496
g18
I317
sba(i__main__
Token
p497
(dp498
g18
I318
sba(i__main__
Token
p499
(dp500
g18
I319
sba(i__main__
Token
p501
(dp502
g18
I320
sbasg19
I320
sbasg7
g477
sg29
Nsba(i__main__
Chain
p503
(dp504
g3
(lp505
(i__main__
Mention
p506
(dp507
g7
S't13'
p508
sg9
Nsg10
S'i20'
p509
sg12
Nsg13
Nsg14
(lp510
(i__main__
Token
p511
(dp512
g18
I94
sba(i__main__
Token
p513
(dp514
g18
I95
sba(i__main__
Token
p515
(dp516
g18
I96
sba(i__main__
Token
p517
(dp518
g18
I97
sbasg19
I97
sba(i__main__
Mention
p519
(dp520
g7
S't13'
p521
sg9
S'Coreference-Identity'
p522
sg10
S'i27'
p523
sg12
S'i20'
p524
sg13
Nsg14
(lp525
(i__main__
Token
p526
(dp527
g18
I124
sbasg19
I124
sba(i__main__
Mention
p528
(dp529
g7
S't13'
p530
sg9
S'Coreference-Identity'
p531
sg10
S'i37'
p532
sg12
S'i27'
p533
sg13
Nsg14
(lp534
(i__main__
Token
p535
(dp536
g18
I172
sbasg19
I172
sba(i__main__
Mention
p537
(dp538
g7
S't13'
p539
sg9
S'Coreference-Identity'
p540
sg10
S'i39'
p541
sg12
S'i37'
p542
sg13
Nsg14
(lp543
(i__main__
Token
p544
(dp545
g18
I186
sbasg19
I186
sba(i__main__
Mention
p546
(dp547
g7
S't13'
p548
sg9
S'Coreference-Identity'
p549
sg10
S'i42'
p550
sg12
S'i39'
p551
sg13
Nsg14
(lp552
(i__main__
Token
p553
(dp554
g18
I205
sbasg19
I205
sbasg7
g508
sg29
Nsba(i__main__
Chain
p555
(dp556
g3
(lp557
(i__main__
Mention
p558
(dp559
g7
S't14'
p560
sg9
Nsg10
S'i21'
p561
sg12
Nsg13
Nsg14
(lp562
(i__main__
Token
p563
(dp564
g18
I99
sba(i__main__
Token
p565
(dp566
g18
I100
sba(i__main__
Token
p567
(dp568
g18
I101
sba(i__main__
Token
p569
(dp570
g18
I102
sba(i__main__
Token
p571
(dp572
g18
I103
sbasg19
I103
sba(i__main__
Mention
p573
(dp574
g7
S't14'
p575
sg9
S'Coreference-Identity'
p576
sg10
S'i28'
p577
sg12
S'i21'
p578
sg13
Nsg14
(lp579
(i__main__
Token
p580
(dp581
g18
I127
sba(i__main__
Token
p582
(dp583
g18
I128
sba(i__main__
Token
p584
(dp585
g18
I129
sba(i__main__
Token
p586
(dp587
g18
I130
sbasg19
I130
sbasg7
g560
sg29
Nsba(i__main__
Chain
p588
(dp589
g3
(lp590
(i__main__
Mention
p591
(dp592
g7
S't15'
p593
sg9
Nsg10
S'i34'
p594
sg12
Nsg13
Nsg14
(lp595
(i__main__
Token
p596
(dp597
g18
I158
sba(i__main__
Token
p598
(dp599
g18
I159
sba(i__main__
Token
p600
(dp601
g18
I160
sbasg19
I160
sba(i__main__
Mention
p602
(dp603
g7
S't15'
p604
sg9
S'Coreference-NounComplement'
p605
sg10
S'i35'
p606
sg12
S'i34'
p607
sg13
Nsg14
(lp608
(i__main__
Token
p609
(dp610
g18
I161
sba(i__main__
Token
p611
(dp612
g18
I162
sbasg19
I162
sba(i__main__
Mention
p613
(dp614
g7
S't15'
p615
sg9
S'Anaphora-C'
p616
sg10
S'i36'
p617
sg12
S'i35'
p618
sg13
Nsg14
(lp619
(i__main__
Token
p620
(dp621
g18
I167
sbasg19
I167
sba(i__main__
Mention
p622
(dp623
g7
S't15'
p624
sg9
S'Anaphora-C'
p625
sg10
S'i40'
p626
sg12
S'i36'
p627
sg13
Nsg14
(lp628
(i__main__
Token
p629
(dp630
g18
I198
sbasg19
I198
sba(i__main__
Mention
p631
(dp632
g7
S't15'
p633
sg9
S'Anaphora-C'
p634
sg10
S'i41'
p635
sg12
S'i40'
p636
sg13
Nsg14
(lp637
(i__main__
Token
p638
(dp639
g18
I204
sbasg19
I204
sba(i__main__
Mention
p640
(dp641
g7
S't15'
p642
sg9
S'Anaphora-C'
p643
sg10
S'i43'
p644
sg12
S'i41'
p645
sg13
Nsg14
(lp646
(i__main__
Token
p647
(dp648
g18
I213
sbasg19
I213
sba(i__main__
Mention
p649
(dp650
g7
S't15'
p651
sg9
S'Coreference-Noun-Noun'
p652
sg10
S'i60'
p653
sg12
S'i43'
p654
sg13
Nsg14
(lp655
(i__main__
Token
p656
(dp657
g18
I329
sba(i__main__
Token
p658
(dp659
g18
I330
sbasg19
I330
sba(i__main__
Mention
p660
(dp661
g7
S't15'
p662
sg9
S'Coreference-NounComplement'
p663
sg10
S'i61'
p664
sg12
S'i60'
p665
sg13
Nsg14
(lp666
(i__main__
Token
p667
(dp668
g18
I331
sba(i__main__
Token
p669
(dp670
g18
I332
sbasg19
I332
sbasg7
g593
sg29
Nsba(i__main__
Chain
p671
(dp672
g3
(lp673
(i__main__
Mention
p674
(dp675
g7
S't16'
p676
sg9
Nsg10
S'i45'
p677
sg12
Nsg13
Nsg14
(lp678
(i__main__
Token
p679
(dp680
g18
I222
sba(i__main__
Token
p681
(dp682
g18
I223
sbasg19
I223
sba(i__main__
Mention
p683
(dp684
g7
S't16'
p685
sg9
S'Anaphora-C'
p686
sg10
S'i46'
p687
sg12
S'i45'
p688
sg13
Nsg14
(lp689
(i__main__
Token
p690
(dp691
g18
I228
sbasg19
I228
sbasg7
g676
sg29
Nsba(i__main__
Chain
p692
(dp693
g3
(lp694
(i__main__
Mention
p695
(dp696
g7
S't17'
p697
sg9
Nsg10
S'i55'
p698
sg12
Nsg13
Nsg14
(lp699
(i__main__
Token
p700
(dp701
g18
I315
sbasg19
I315
sbasg7
g697
sg29
Nsba(i__main__
Chain
p702
(dp703
g3
(lp704
(i__main__
Mention
p705
(dp706
g7
S't18'
p707
sg9
Nsg10
S'i57'
p708
sg12
Nsg13
Nsg14
(lp709
(i__main__
Token
p710
(dp711
g18
I324
sba(i__main__
Token
p712
(dp713
g18
I325
sbasg19
I325
sba(i__main__
Mention
p714
(dp715
g7
S't18'
p716
sg9
S'Coreference-NounComplement'
p717
sg10
S'i58'
p718
sg12
S'i57'
p719
sg13
Nsg14
(lp720
(i__main__
Token
p721
(dp722
g18
I326
sba(i__main__
Token
p723
(dp724
g18
I327
sbasg19
I327
sbasg7
g707
sg29
Nsba.