(lp0
(i__main__
Chain
p1
(dp2
S'mentionList'
p3
(lp4
(i__main__
Mention
p5
(dp6
S'chainId'
p7
S't1'
p8
sS'relType'
p9
NsS'mentionId'
p10
S'i1'
p11
sS'antecedentId'
p12
NsS'crefMod'
p13
NsS'tokenList'
p14
(lp15
(i__main__
Token
p16
(dp17
S'tokenId'
p18
I2
sbasS'mentionHead'
p19
I2
sba(i__main__
Mention
p20
(dp21
g7
S't1'
p22
sg9
S'Coreference-Identity'
p23
sg10
S'i7'
p24
sg12
S'i1'
p25
sg13
Nsg14
(lp26
(i__main__
Token
p27
(dp28
g18
I39
sbasg19
I39
sba(i__main__
Mention
p29
(dp30
g7
S't1'
p31
sg9
S'Anaphora-C'
p32
sg10
S'i8'
p33
sg12
S'i7'
p34
sg13
Nsg14
(lp35
(i__main__
Token
p36
(dp37
g18
I45
sbasg19
I45
sba(i__main__
Mention
p38
(dp39
g7
S't1'
p40
sg9
S'Coreference-Identity'
p41
sg10
S'i19'
p42
sg12
S'i8'
p43
sg13
Nsg14
(lp44
(i__main__
Token
p45
(dp46
g18
I102
sbasg19
I102
sba(i__main__
Mention
p47
(dp48
g7
S't1'
p49
sg9
S'Coreference-Identity'
p50
sg10
S'i20'
p51
sg12
S'i19'
p52
sg13
Nsg14
(lp53
(i__main__
Token
p54
(dp55
g18
I111
sbasg19
I111
sba(i__main__
Mention
p56
(dp57
g7
S't1'
p58
sg9
S'Anaphora-C'
p59
sg10
S'i21'
p60
sg12
S'i20'
p61
sg13
Nsg14
(lp62
(i__main__
Token
p63
(dp64
g18
I115
sbasg19
I115
sba(i__main__
Mention
p65
(dp66
g7
S't1'
p67
sg9
S'Anaphora-C'
p68
sg10
S'i25'
p69
sg12
S'i21'
p70
sg13
Nsg14
(lp71
(i__main__
Token
p72
(dp73
g18
I126
sbasg19
I126
sbasg7
g8
sS'chainHead'
p74
Nsba(i__main__
Chain
p75
(dp76
g3
(lp77
(i__main__
Mention
p78
(dp79
g7
S't2'
p80
sg9
Nsg10
S'i2'
p81
sg12
Nsg13
Nsg14
(lp82
(i__main__
Token
p83
(dp84
g18
I9
sba(i__main__
Token
p85
(dp86
g18
I10
sbasg19
I10
sba(i__main__
Mention
p87
(dp88
g7
S't2'
p89
sg9
S'Coreference-Noun-Noun'
p90
sg10
S'i6'
p91
sg12
S'i2'
p92
sg13
Nsg14
(lp93
(i__main__
Token
p94
(dp95
g18
I36
sbasg19
I36
sba(i__main__
Mention
p96
(dp97
g7
S't2'
p98
sg9
S'Coreference-Noun-Noun'
p99
sg10
S'i18'
p100
sg12
S'i6'
p101
sg13
Nsg14
(lp102
(i__main__
Token
p103
(dp104
g18
I77
sbasg19
I77
sba(i__main__
Mention
p105
(dp106
g7
S't2'
p107
sg9
S'Coreference-Noun-Noun'
p108
sg10
S'i27'
p109
sg12
S'i18'
p110
sg13
Nsg14
(lp111
(i__main__
Token
p112
(dp113
g18
I132
sbasg19
I132
sbasg7
g80
sg74
Nsba(i__main__
Chain
p114
(dp115
g3
(lp116
(i__main__
Mention
p117
(dp118
g7
S't3'
p119
sg9
Nsg10
S'i3'
p120
sg12
Nsg13
Nsg14
(lp121
(i__main__
Token
p122
(dp123
g18
I22
sbasg19
I22
sba(i__main__
Mention
p124
(dp125
g7
S't3'
p126
sg9
S'Coreference-Identity'
p127
sg10
S'i16'
p128
sg12
S'i3'
p129
sg13
Nsg14
(lp130
(i__main__
Token
p131
(dp132
g18
I68
sbasg19
I68
sba(i__main__
Mention
p133
(dp134
g7
S't3'
p135
sg9
S'Coreference-Identity'
p136
sg10
S'i41'
p137
sg12
S'i16'
p138
sg13
Nsg14
(lp139
(i__main__
Token
p140
(dp141
g18
I232
sbasg19
I232
sbasg7
g119
sg74
Nsba(i__main__
Chain
p142
(dp143
g3
(lp144
(i__main__
Mention
p145
(dp146
g7
S't4'
p147
sg9
Nsg10
S'i4'
p148
sg12
Nsg13
Nsg14
(lp149
(i__main__
Token
p150
(dp151
g18
I27
sbasg19
I27
sba(i__main__
Mention
p152
(dp153
g7
S't4'
p154
sg9
S'Coreference-Identity'
p155
sg10
S'i55'
p156
sg12
S'i4'
p157
sg13
Nsg14
(lp158
(i__main__
Token
p159
(dp160
g18
I297
sbasg19
I297
sbasg7
g147
sg74
Nsba(i__main__
Chain
p161
(dp162
g3
(lp163
(i__main__
Mention
p164
(dp165
g7
S't5'
p166
sg9
Nsg10
S'i5'
p167
sg12
Nsg13
Nsg14
(lp168
(i__main__
Token
p169
(dp170
g18
I36
sba(i__main__
Token
p171
(dp172
g18
I37
sbasg19
I37
sba(i__main__
Mention
p173
(dp174
g7
S't5'
p175
sg9
S'Coreference-Identity'
p176
sg10
S'i17'
p177
sg12
S'i5'
p178
sg13
Nsg14
(lp179
(i__main__
Token
p180
(dp181
g18
I77
sba(i__main__
Token
p182
(dp183
g18
I78
sbasg19
I78
sba(i__main__
Mention
p184
(dp185
g7
S't5'
p186
sg9
S'Coreference-Identity'
p187
sg10
S'i26'
p188
sg12
S'i17'
p189
sg13
Nsg14
(lp190
(i__main__
Token
p191
(dp192
g18
I132
sba(i__main__
Token
p193
(dp194
g18
I133
sbasg19
I133
sbasg7
g166
sg74
Nsba(i__main__
Chain
p195
(dp196
g3
(lp197
(i__main__
Mention
p198
(dp199
g7
S't6'
p200
sg9
Nsg10
S'i9'
p201
sg12
Nsg13
Nsg14
(lp202
(i__main__
Token
p203
(dp204
g18
I46
sbasg19
I46
sba(i__main__
Mention
p205
(dp206
g7
S't6'
p207
sg9
Nsg10
S'i23'
p208
sg12
Nsg13
Nsg14
(lp209
(i__main__
Token
p210
(dp211
g18
I116
sba(i__main__
Token
p212
(dp213
g18
I117
sbasg19
Nsba(i__main__
Mention
p214
(dp215
g7
S't6'
p216
sg9
S'Coreference-PartOf'
p217
sg10
S'i51'
p218
sg12
S'i23'
p219
sg13
Nsg14
(lp220
(i__main__
Token
p221
(dp222
g18
I277
sbasg19
I277
sba(i__main__
Mention
p223
(dp224
g7
S't6'
p225
sg9
Nsg10
S'i54'
p226
sg12
Nsg13
Nsg14
(lp227
(i__main__
Token
p228
(dp229
g18
I284
sbasg19
Nsbasg7
g200
sg74
Nsba(i__main__
Chain
p230
(dp231
g3
(lp232
(i__main__
Mention
p233
(dp234
g7
S't7'
p235
sg9
Nsg10
S'i10'
p236
sg12
Nsg13
Nsg14
(lp237
(i__main__
Token
p238
(dp239
g18
I46
sba(i__main__
Token
p240
(dp241
g18
I47
sba(i__main__
Token
p242
(dp243
g18
I48
sba(i__main__
Token
p244
(dp245
g18
I49
sba(i__main__
Token
p246
(dp247
g18
I50
sba(i__main__
Token
p248
(dp249
g18
I51
sba(i__main__
Token
p250
(dp251
g18
I52
sba(i__main__
Token
p252
(dp253
g18
I53
sba(i__main__
Token
p254
(dp255
g18
I54
sba(i__main__
Token
p256
(dp257
g18
I55
sba(i__main__
Token
p258
(dp259
g18
I56
sba(i__main__
Token
p260
(dp261
g18
I57
sba(i__main__
Token
p262
(dp263
g18
I58
sba(i__main__
Token
p264
(dp265
g18
I59
sba(i__main__
Token
p266
(dp267
g18
I60
sba(i__main__
Token
p268
(dp269
g18
I61
sbasg19
I61
sba(i__main__
Mention
p270
(dp271
g7
S't7'
p272
sg9
S'Anaphora-E'
p273
sg10
S'i15'
p274
sg12
S'i10'
p275
sg13
Nsg14
(lp276
(i__main__
Token
p277
(dp278
g18
I63
sbasg19
I63
sbasg7
g235
sg74
Nsba(i__main__
Chain
p279
(dp280
g3
(lp281
(i__main__
Mention
p282
(dp283
g7
S't8'
p284
sg9
Nsg10
S'i11'
p285
sg12
Nsg13
Nsg14
(lp286
(i__main__
Token
p287
(dp288
g18
I48
sbasg19
I48
sba(i__main__
Mention
p289
(dp290
g7
S't8'
p291
sg9
Nsg10
S'i24'
p292
sg12
Nsg13
Nsg14
(lp293
(i__main__
Token
p294
(dp295
g18
I116
sba(i__main__
Token
p296
(dp297
g18
I117
sbasg19
Nsba(i__main__
Mention
p298
(dp299
g7
S't8'
p300
sg9
S'Coreference-PartOf'
p301
sg10
S'i50'
p302
sg12
S'i24'
p303
sg13
Nsg14
(lp304
(i__main__
Token
p305
(dp306
g18
I275
sbasg19
I275
sba(i__main__
Mention
p307
(dp308
g7
S't8'
p309
sg9
Nsg10
S'i53'
p310
sg12
Nsg13
Nsg14
(lp311
(i__main__
Token
p312
(dp313
g18
I284
sbasg19
Nsbasg7
g284
sg74
Nsba(i__main__
Chain
p314
(dp315
g3
(lp316
(i__main__
Mention
p317
(dp318
g7
S't9'
p319
sg9
Nsg10
S'i12'
p320
sg12
Nsg13
Nsg14
(lp321
(i__main__
Token
p322
(dp323
g18
I51
sbasg19
I51
sba(i__main__
Mention
p324
(dp325
g7
S't9'
p326
sg9
Nsg10
S'i22'
p327
sg12
Nsg13
Nsg14
(lp328
(i__main__
Token
p329
(dp330
g18
I116
sba(i__main__
Token
p331
(dp332
g18
I117
sbasg19
Nsbasg7
g319
sg74
Nsba(i__main__
Chain
p333
(dp334
g3
(lp335
(i__main__
Mention
p336
(dp337
g7
S't10'
p338
sg9
Nsg10
S'i13'
p339
sg12
Nsg13
Nsg14
(lp340
(i__main__
Token
p341
(dp342
g18
I53
sbasg19
I53
sba(i__main__
Mention
p343
(dp344
g7
S't10'
p345
sg9
S'Coreference-Identity'
p346
sg10
S'i56'
p347
sg12
S'i13'
p348
sg13
Nsg14
(lp349
(i__main__
Token
p350
(dp351
g18
I308
sbasg19
I308
sba(i__main__
Mention
p352
(dp353
g7
S't10'
p354
sg9
S'Coreference-Identity'
p355
sg10
S'i58'
p356
sg12
S'i56'
p357
sg13
Nsg14
(lp358
(i__main__
Token
p359
(dp360
g18
I321
sbasg19
I321
sba(i__main__
Mention
p361
(dp362
g7
S't10'
p363
sg9
Nsg10
S'i62'
p364
sg12
Nsg13
Nsg14
(lp365
(i__main__
Token
p366
(dp367
g18
I344
sba(i__main__
Token
p368
(dp369
g18
I345
sbasg19
Nsbasg7
g338
sg74
Nsba(i__main__
Chain
p370
(dp371
g3
(lp372
(i__main__
Mention
p373
(dp374
g7
S't11'
p375
sg9
Nsg10
S'i14'
p376
sg12
Nsg13
Nsg14
(lp377
(i__main__
Token
p378
(dp379
g18
I55
sbasg19
I55
sba(i__main__
Mention
p380
(dp381
g7
S't11'
p382
sg9
S'Coreference-Identity'
p383
sg10
S'i52'
p384
sg12
S'i14'
p385
sg13
Nsg14
(lp386
(i__main__
Token
p387
(dp388
g18
I279
sbasg19
I279
sba(i__main__
Mention
p389
(dp390
g7
S't11'
p391
sg9
S'Coreference-Identity'
p392
sg10
S'i59'
p393
sg12
S'i52'
p394
sg13
Nsg14
(lp395
(i__main__
Token
p396
(dp397
g18
I323
sbasg19
I323
sba(i__main__
Mention
p398
(dp399
g7
S't11'
p400
sg9
Nsg10
S'i63'
p401
sg12
Nsg13
Nsg14
(lp402
(i__main__
Token
p403
(dp404
g18
I344
sba(i__main__
Token
p405
(dp406
g18
I345
sbasg19
Nsbasg7
g375
sg74
Nsba(i__main__
Chain
p407
(dp408
g3
(lp409
(i__main__
Mention
p410
(dp411
g7
S't12'
p412
sg9
Nsg10
S'i28'
p413
sg12
Nsg13
Nsg14
(lp414
(i__main__
Token
p415
(dp416
g18
I135
sba(i__main__
Token
p417
(dp418
g18
I136
sbasg19
I136
sba(i__main__
Mention
p419
(dp420
g7
S't12'
p421
sg9
S'Anaphora-C'
p422
sg10
S'i29'
p423
sg12
S'i28'
p424
sg13
Nsg14
(lp425
(i__main__
Token
p426
(dp427
g18
I151
sbasg19
I151
sba(i__main__
Mention
p428
(dp429
g7
S't12'
p430
sg9
S'Coreference-Identity'
p431
sg10
S'i30'
p432
sg12
S'i29'
p433
sg13
Nsg14
(lp434
(i__main__
Token
p435
(dp436
g18
I152
sba(i__main__
Token
p437
(dp438
g18
I153
sbasg19
I153
sba(i__main__
Mention
p439
(dp440
g7
S't12'
p441
sg9
S'Anaphora-C'
p442
sg10
S'i31'
p443
sg12
S'i30'
p444
sg13
Nsg14
(lp445
(i__main__
Token
p446
(dp447
g18
I166
sbasg19
I166
sba(i__main__
Mention
p448
(dp449
g7
S't12'
p450
sg9
S'Coreference-Identity'
p451
sg10
S'i33'
p452
sg12
S'i31'
p453
sg13
Nsg14
(lp454
(i__main__
Token
p455
(dp456
g18
I185
sbasg19
I185
sba(i__main__
Mention
p457
(dp458
g7
S't12'
p459
sg9
S'Coreference-Identity'
p460
sg10
S'i37'
p461
sg12
S'i33'
p462
sg13
Nsg14
(lp463
(i__main__
Token
p464
(dp465
g18
I203
sbasg19
I203
sba(i__main__
Mention
p466
(dp467
g7
S't12'
p468
sg9
S'Coreference-Noun-Noun'
p469
sg10
S'i39'
p470
sg12
S'i37'
p471
sg13
Nsg14
(lp472
(i__main__
Token
p473
(dp474
g18
I223
sbasg19
I223
sba(i__main__
Mention
p475
(dp476
g7
S't12'
p477
sg9
S'Coreference-Noun-Noun'
p478
sg10
S'i45'
p479
sg12
S'i39'
p480
sg13
Nsg14
(lp481
(i__main__
Token
p482
(dp483
g18
I251
sbasg19
I251
sba(i__main__
Mention
p484
(dp485
g7
S't12'
p486
sg9
S'Coreference-Identity'
p487
sg10
S'i48'
p488
sg12
S'i45'
p489
sg13
Nsg14
(lp490
(i__main__
Token
p491
(dp492
g18
I262
sba(i__main__
Token
p493
(dp494
g18
I263
sbasg19
I263
sbasg7
g412
sg74
Nsba(i__main__
Chain
p495
(dp496
g3
(lp497
(i__main__
Mention
p498
(dp499
g7
S't13'
p500
sg9
Nsg10
S'i32'
p501
sg12
Nsg13
Nsg14
(lp502
(i__main__
Token
p503
(dp504
g18
I168
sbasg19
I168
sba(i__main__
Mention
p505
(dp506
g7
S't13'
p507
sg9
S'Coreference-Identity'
p508
sg10
S'i38'
p509
sg12
S'i32'
p510
sg13
Nsg14
(lp511
(i__main__
Token
p512
(dp513
g18
I212
sbasg19
I212
sbasg7
g500
sg74
Nsba(i__main__
Chain
p514
(dp515
g3
(lp516
(i__main__
Mention
p517
(dp518
g7
S't14'
p519
sg9
Nsg10
S'i34'
p520
sg12
Nsg13
Nsg14
(lp521
(i__main__
Token
p522
(dp523
g18
I185
sba(i__main__
Token
p524
(dp525
g18
I186
sba(i__main__
Token
p526
(dp527
g18
I187
sba(i__main__
Token
p528
(dp529
g18
I188
sba(i__main__
Token
p530
(dp531
g18
I189
sba(i__main__
Token
p532
(dp533
g18
I190
sba(i__main__
Token
p534
(dp535
g18
I191
sba(i__main__
Token
p536
(dp537
g18
I192
sbasg19
I190
sba(i__main__
Mention
p538
(dp539
g7
S't14'
p540
sg9
S'Anaphora-E'
p541
sg10
S'i36'
p542
sg12
S'i34'
p543
sg13
Nsg14
(lp544
(i__main__
Token
p545
(dp546
g18
I194
sbasg19
I194
sbasg7
g519
sg74
Nsba(i__main__
Chain
p547
(dp548
g3
(lp549
(i__main__
Mention
p550
(dp551
g7
S't15'
p552
sg9
Nsg10
S'i35'
p553
sg12
Nsg13
Nsg14
(lp554
(i__main__
Token
p555
(dp556
g18
I187
sba(i__main__
Token
p557
(dp558
g18
I188
sbasg19
I188
sba(i__main__
Mention
p559
(dp560
g7
S't15'
p561
sg9
S'Coreference-Identity'
p562
sg10
S'i46'
p563
sg12
S'i35'
p564
sg13
Nsg14
(lp565
(i__main__
Token
p566
(dp567
g18
I253
sba(i__main__
Token
p568
(dp569
g18
I254
sbasg19
I254
sbasg7
g552
sg74
Nsba(i__main__
Chain
p570
(dp571
g3
(lp572
(i__main__
Mention
p573
(dp574
g7
S't16'
p575
sg9
Nsg10
S'i40'
p576
sg12
Nsg13
Nsg14
(lp577
(i__main__
Token
p578
(dp579
g18
I225
sbasg19
I225
sbasg7
g575
sg74
Nsba(i__main__
Chain
p580
(dp581
g3
(lp582
(i__main__
Mention
p583
(dp584
g7
S't17'
p585
sg9
Nsg10
S'i42'
p586
sg12
Nsg13
Nsg14
(lp587
(i__main__
Token
p588
(dp589
g18
I244
sbasg19
I244
sba(i__main__
Mention
p590
(dp591
g7
S't17'
p592
sg9
S'Anaphora-RT'
p593
sg10
S'i43'
p594
sg12
S'i42'
p595
sg13
Nsg14
(lp596
(i__main__
Token
p597
(dp598
g18
I245
sba(i__main__
Token
p599
(dp600
g18
I246
sba(i__main__
Token
p601
(dp602
g18
I247
sba(i__main__
Token
p603
(dp604
g18
I248
sba(i__main__
Token
p605
(dp606
g18
I249
sbasg19
I248
sba(i__main__
Mention
p607
(dp608
g7
S't17'
p609
sg9
S'Anaphora-T'
p610
sg10
S'i44'
p611
sg12
S'i43'
p612
sg13
Nsg14
(lp613
(i__main__
Token
p614
(dp615
g18
I250
sbasg19
I250
sbasg7
g585
sg74
Nsba(i__main__
Chain
p616
(dp617
g3
(lp618
(i__main__
Mention
p619
(dp620
g7
S't18'
p621
sg9
Nsg10
S'i47'
p622
sg12
Nsg13
Nsg14
(lp623
(i__main__
Token
p624
(dp625
g18
I260
sbasg19
I260
sbasg7
g621
sg74
Nsba(i__main__
Chain
p626
(dp627
g3
(lp628
(i__main__
Mention
p629
(dp630
g7
S't19'
p631
sg9
Nsg10
S'i49'
p632
sg12
Nsg13
Nsg14
(lp633
(i__main__
Token
p634
(dp635
g18
I269
sbasg19
I269
sbasg7
g631
sg74
Nsba(i__main__
Chain
p636
(dp637
g3
(lp638
(i__main__
Mention
p639
(dp640
g7
S't20'
p641
sg9
Nsg10
S'i57'
p642
sg12
Nsg13
Nsg14
(lp643
(i__main__
Token
p644
(dp645
g18
I313
sbasg19
I313
sbasg7
g641
sg74
Nsba(i__main__
Chain
p646
(dp647
g3
(lp648
(i__main__
Mention
p649
(dp650
g7
S't21'
p651
sg9
Nsg10
S'i60'
p652
sg12
Nsg13
Nsg14
(lp653
(i__main__
Token
p654
(dp655
g18
I326
sbasg19
I326
sbasg7
g651
sg74
Nsba(i__main__
Chain
p656
(dp657
g3
(lp658
(i__main__
Mention
p659
(dp660
g7
S't22'
p661
sg9
Nsg10
S'i61'
p662
sg12
Nsg13
Nsg14
(lp663
(i__main__
Token
p664
(dp665
g18
I342
sbasg19
I342
sbasg7
g661
sg74
Nsba.