(lp0
(i__main__
Chain
p1
(dp2
S'mentionList'
p3
(lp4
(i__main__
Mention
p5
(dp6
S'chainId'
p7
S't1'
p8
sS'relType'
p9
NsS'mentionId'
p10
S'i1'
p11
sS'antecedentId'
p12
NsS'crefMod'
p13
NsS'tokenList'
p14
(lp15
(i__main__
Token
p16
(dp17
S'tokenId'
p18
I0
sba(i__main__
Token
p19
(dp20
g18
I1
sbasS'mentionHead'
p21
I1
sba(i__main__
Mention
p22
(dp23
g7
S't1'
p24
sg9
S'Coreference-Abbreviation'
p25
sg10
S'i62'
p26
sg12
S'i1'
p27
sg13
Nsg14
(lp28
(i__main__
Token
p29
(dp30
g18
I373
sbasg21
I373
sba(i__main__
Mention
p31
(dp32
g7
S't1'
p33
sg9
Nsg10
S'i67'
p34
sg12
Nsg13
Nsg14
(lp35
(i__main__
Token
p36
(dp37
g18
I389
sbasg21
Nsba(i__main__
Mention
p38
(dp39
g7
S't1'
p40
sg9
Nsg10
S'i69'
p41
sg12
Nsg13
Nsg14
(lp42
(i__main__
Token
p43
(dp44
g18
I408
sba(i__main__
Token
p45
(dp46
g18
I409
sba(i__main__
Token
p47
(dp48
g18
I410
sbasg21
Nsba(i__main__
Mention
p49
(dp50
g7
S't1'
p51
sg9
S'Coreference-PartOf'
p52
sg10
S'i74'
p53
sg12
S'i69'
p54
sg13
Nsg14
(lp55
(i__main__
Token
p56
(dp57
g18
I435
sbasg21
I435
sbasg7
g8
sS'chainHead'
p58
Nsba(i__main__
Chain
p59
(dp60
g3
(lp61
(i__main__
Mention
p62
(dp63
g7
S't2'
p64
sg9
Nsg10
S'i2'
p65
sg12
Nsg13
Nsg14
(lp66
(i__main__
Token
p67
(dp68
g18
I3
sbasg21
I3
sba(i__main__
Mention
p69
(dp70
g7
S't2'
p71
sg9
S'Coreference-Identity'
p72
sg10
S'i63'
p73
sg12
S'i2'
p74
sg13
Nsg14
(lp75
(i__main__
Token
p76
(dp77
g18
I375
sbasg21
I375
sba(i__main__
Mention
p78
(dp79
g7
S't2'
p80
sg9
Nsg10
S'i66'
p81
sg12
Nsg13
Nsg14
(lp82
(i__main__
Token
p83
(dp84
g18
I389
sbasg21
Nsba(i__main__
Mention
p85
(dp86
g7
S't2'
p87
sg9
Nsg10
S'i70'
p88
sg12
Nsg13
Nsg14
(lp89
(i__main__
Token
p90
(dp91
g18
I408
sba(i__main__
Token
p92
(dp93
g18
I409
sba(i__main__
Token
p94
(dp95
g18
I410
sbasg21
Nsbasg7
g64
sg58
Nsba(i__main__
Chain
p96
(dp97
g3
(lp98
(i__main__
Mention
p99
(dp100
g7
S't3'
p101
sg9
Nsg10
S'i3'
p102
sg12
Nsg13
Nsg14
(lp103
(i__main__
Token
p104
(dp105
g18
I10
sbasg21
I10
sba(i__main__
Mention
p106
(dp107
g7
S't3'
p108
sg9
S'Coreference-Identity'
p109
sg10
S'i12'
p110
sg12
S'i3'
p111
sg13
Nsg14
(lp112
(i__main__
Token
p113
(dp114
g18
I65
sbasg21
I65
sba(i__main__
Mention
p115
(dp116
g7
S't3'
p117
sg9
S'Coreference-Identity'
p118
sg10
S'i14'
p119
sg12
S'i12'
p120
sg13
Nsg14
(lp121
(i__main__
Token
p122
(dp123
g18
I85
sbasg21
I85
sba(i__main__
Mention
p124
(dp125
g7
S't3'
p126
sg9
S'Coreference-Identity'
p127
sg10
S'i33'
p128
sg12
S'i14'
p129
sg13
Nsg14
(lp130
(i__main__
Token
p131
(dp132
g18
I160
sbasg21
I160
sba(i__main__
Mention
p133
(dp134
g7
S't3'
p135
sg9
S'Anaphora-C'
p136
sg10
S'i34'
p137
sg12
S'i33'
p138
sg13
Nsg14
(lp139
(i__main__
Token
p140
(dp141
g18
I178
sbasg21
I178
sba(i__main__
Mention
p142
(dp143
g7
S't3'
p144
sg9
S'Coreference-Noun-Noun'
p145
sg10
S'i51'
p146
sg12
S'i34'
p147
sg13
Nsg14
(lp148
(i__main__
Token
p149
(dp150
g18
I263
sbasg21
I263
sba(i__main__
Mention
p151
(dp152
g7
S't3'
p153
sg9
S'Coreference-Noun-Noun'
p154
sg10
S'i55'
p155
sg12
S'i51'
p156
sg13
Nsg14
(lp157
(i__main__
Token
p158
(dp159
g18
I307
sbasg21
I307
sba(i__main__
Mention
p160
(dp161
g7
S't3'
p162
sg9
S'Coreference-Identity'
p163
sg10
S'i59'
p164
sg12
S'i55'
p165
sg13
Nsg14
(lp166
(i__main__
Token
p167
(dp168
g18
I363
sbasg21
I363
sba(i__main__
Mention
p169
(dp170
g7
S't3'
p171
sg9
S'Anaphora-C'
p172
sg10
S'i60'
p173
sg12
S'i59'
p174
sg13
Nsg14
(lp175
(i__main__
Token
p176
(dp177
g18
I365
sbasg21
I365
sba(i__main__
Mention
p178
(dp179
g7
S't3'
p180
sg9
S'Coreference-Identity'
p181
sg10
S'i71'
p182
sg12
S'i60'
p183
sg13
Nsg14
(lp184
(i__main__
Token
p185
(dp186
g18
I412
sbasg21
I412
sba(i__main__
Mention
p187
(dp188
g7
S't3'
p189
sg9
S'Coreference-Noun-Noun'
p190
sg10
S'i76'
p191
sg12
S'i71'
p192
sg13
Nsg14
(lp193
(i__main__
Token
p194
(dp195
g18
I439
sbasg21
I439
sba(i__main__
Mention
p196
(dp197
g7
S't3'
p198
sg9
S'Coreference-Noun-Noun'
p199
sg10
S'i79'
p200
sg12
S'i76'
p201
sg13
Nsg14
(lp202
(i__main__
Token
p203
(dp204
g18
I462
sbasg21
I462
sbasg7
g101
sg58
Nsba(i__main__
Chain
p205
(dp206
g3
(lp207
(i__main__
Mention
p208
(dp209
g7
S't4'
p210
sg9
Nsg10
S'i4'
p211
sg12
Nsg13
Nsg14
(lp212
(i__main__
Token
p213
(dp214
g18
I18
sbasg21
I18
sba(i__main__
Mention
p215
(dp216
g7
S't4'
p217
sg9
S'Coreference-Identity'
p218
sg10
S'i16'
p219
sg12
S'i4'
p220
sg13
Nsg14
(lp221
(i__main__
Token
p222
(dp223
g18
I103
sba(i__main__
Token
p224
(dp225
g18
I104
sbasg21
I104
sba(i__main__
Mention
p226
(dp227
g7
S't4'
p228
sg9
S'Coreference-Identity'
p229
sg10
S'i19'
p230
sg12
S'i16'
p231
sg13
Nsg14
(lp232
(i__main__
Token
p233
(dp234
g18
I115
sba(i__main__
Token
p235
(dp236
g18
I116
sbasg21
I116
sba(i__main__
Mention
p237
(dp238
g7
S't4'
p239
sg9
S'Coreference-Noun-Noun'
p240
sg10
S'i26'
p241
sg12
S'i19'
p242
sg13
Nsg14
(lp243
(i__main__
Token
p244
(dp245
g18
I134
sbasg21
I134
sba(i__main__
Mention
p246
(dp247
g7
S't4'
p248
sg9
Nsg10
S'i31'
p249
sg12
Nsg13
Nsg14
(lp250
(i__main__
Token
p251
(dp252
g18
I157
sba(i__main__
Token
p253
(dp254
g18
I158
sbasg21
Nsbasg7
g210
sg58
Nsba(i__main__
Chain
p255
(dp256
g3
(lp257
(i__main__
Mention
p258
(dp259
g7
S't5'
p260
sg9
Nsg10
S'i5'
p261
sg12
Nsg13
Nsg14
(lp262
(i__main__
Token
p263
(dp264
g18
I20
sba(i__main__
Token
p265
(dp266
g18
I21
sbasg21
I21
sba(i__main__
Mention
p267
(dp268
g7
S't5'
p269
sg9
Nsg10
S'i32'
p270
sg12
Nsg13
Nsg14
(lp271
(i__main__
Token
p272
(dp273
g18
I157
sba(i__main__
Token
p274
(dp275
g18
I158
sbasg21
Nsbasg7
g260
sg58
Nsba(i__main__
Chain
p276
(dp277
g3
(lp278
(i__main__
Mention
p279
(dp280
g7
S't6'
p281
sg9
Nsg10
S'i6'
p282
sg12
Nsg13
Nsg14
(lp283
(i__main__
Token
p284
(dp285
g18
I30
sba(i__main__
Token
p286
(dp287
g18
I31
sba(i__main__
Token
p288
(dp289
g18
I32
sbasg21
I32
sba(i__main__
Mention
p290
(dp291
g7
S't6'
p292
sg9
S'Anaphora-C'
p293
sg10
S'i7'
p294
sg12
S'i6'
p295
sg13
Nsg14
(lp296
(i__main__
Token
p297
(dp298
g18
I34
sbasg21
I34
sbasg7
g281
sg58
Nsba(i__main__
Chain
p299
(dp300
g3
(lp301
(i__main__
Mention
p302
(dp303
g7
S't7'
p304
sg9
Nsg10
S'i8'
p305
sg12
Nsg13
Nsg14
(lp306
(i__main__
Token
p307
(dp308
g18
I35
sba(i__main__
Token
p309
(dp310
g18
I36
sbasg21
I36
sba(i__main__
Mention
p311
(dp312
g7
S't7'
p313
sg9
S'Coreference-Identity'
p314
sg10
S'i10'
p315
sg12
S'i8'
p316
sg13
Nsg14
(lp317
(i__main__
Token
p318
(dp319
g18
I56
sbasg21
I56
sba(i__main__
Mention
p320
(dp321
g7
S't7'
p322
sg9
S'Anaphora-C'
p323
sg10
S'i13'
p324
sg12
S'i10'
p325
sg13
Nsg14
(lp326
(i__main__
Token
p327
(dp328
g18
I74
sbasg21
I74
sba(i__main__
Mention
p329
(dp330
g7
S't7'
p331
sg9
S'Coreference-Identity'
p332
sg10
S'i15'
p333
sg12
S'i13'
p334
sg13
Nsg14
(lp335
(i__main__
Token
p336
(dp337
g18
I95
sbasg21
I95
sba(i__main__
Mention
p338
(dp339
g7
S't7'
p340
sg9
S'Anaphora-C'
p341
sg10
S'i18'
p342
sg12
S'i15'
p343
sg13
Nsg14
(lp344
(i__main__
Token
p345
(dp346
g18
I110
sbasg21
I110
sba(i__main__
Mention
p347
(dp348
g7
S't7'
p349
sg9
S'Anaphora-C'
p350
sg10
S'i20'
p351
sg12
S'i18'
p352
sg13
Nsg14
(lp353
(i__main__
Token
p354
(dp355
g18
I117
sbasg21
I117
sba(i__main__
Mention
p356
(dp357
g7
S't7'
p358
sg9
S'Coreference-Identity'
p359
sg10
S'i22'
p360
sg12
S'i20'
p361
sg13
Nsg14
(lp362
(i__main__
Token
p363
(dp364
g18
I128
sbasg21
I128
sba(i__main__
Mention
p365
(dp366
g7
S't7'
p367
sg9
S'Anaphora-C'
p368
sg10
S'i23'
p369
sg12
S'i22'
p370
sg13
Nsg14
(lp371
(i__main__
Token
p372
(dp373
g18
I130
sbasg21
I130
sba(i__main__
Mention
p374
(dp375
g7
S't7'
p376
sg9
S'Anaphora-C'
p377
sg10
S'i28'
p378
sg12
S'i23'
p379
sg13
Nsg14
(lp380
(i__main__
Token
p381
(dp382
g18
I141
sbasg21
I141
sba(i__main__
Mention
p383
(dp384
g7
S't7'
p385
sg9
S'Coreference-Identity'
p386
sg10
S'i30'
p387
sg12
S'i92'
p388
sg13
Nsg14
(lp389
(i__main__
Token
p390
(dp391
g18
I154
sbasg21
I154
sba(i__main__
Mention
p392
(dp393
g7
S't7'
p394
sg9
S'Coreference-Identity'
p395
sg10
S'i35'
p396
sg12
S'i30'
p397
sg13
Nsg14
(lp398
(i__main__
Token
p399
(dp400
g18
I187
sbasg21
I187
sba(i__main__
Mention
p401
(dp402
g7
S't7'
p403
sg9
S'Anaphora-C'
p404
sg10
S'i44'
p405
sg12
S'i35'
p406
sg13
Nsg14
(lp407
(i__main__
Token
p408
(dp409
g18
I222
sbasg21
I222
sba(i__main__
Mention
p410
(dp411
g7
S't7'
p412
sg9
S'Coreference-Noun-Noun'
p413
sg10
S'i50'
p414
sg12
S'i44'
p415
sg13
Nsg14
(lp416
(i__main__
Token
p417
(dp418
g18
I252
sba(i__main__
Token
p419
(dp420
g18
I253
sba(i__main__
Token
p421
(dp422
g18
I254
sbasg21
I254
sba(i__main__
Mention
p423
(dp424
g7
S't7'
p425
sg9
S'Anaphora-C'
p426
sg10
S'i53'
p427
sg12
S'i50'
p428
sg13
Nsg14
(lp429
(i__main__
Token
p430
(dp431
g18
I290
sbasg21
I290
sba(i__main__
Mention
p432
(dp433
g7
S't7'
p434
sg9
S'Coreference-Noun-Noun'
p435
sg10
S'i54'
p436
sg12
S'i53'
p437
sg13
Nsg14
(lp438
(i__main__
Token
p439
(dp440
g18
I303
sbasg21
I303
sba(i__main__
Mention
p441
(dp442
g7
S't7'
p443
sg9
S'Anaphora-C'
p444
sg10
S'i56'
p445
sg12
S'i54'
p446
sg13
Nsg14
(lp447
(i__main__
Token
p448
(dp449
g18
I322
sbasg21
I322
sba(i__main__
Mention
p450
(dp451
g7
S't7'
p452
sg9
S'Anaphora-C'
p453
sg10
S'i58'
p454
sg12
S'i56'
p455
sg13
Nsg14
(lp456
(i__main__
Token
p457
(dp458
g18
I332
sbasg21
I332
sba(i__main__
Mention
p459
(dp460
g7
S't7'
p461
sg9
S'Coreference-Identity'
p462
sg10
S'i65'
p463
sg12
S'i58'
p464
sg13
Nsg14
(lp465
(i__main__
Token
p466
(dp467
g18
I384
sbasg21
I384
sba(i__main__
Mention
p468
(dp469
g7
S't7'
p470
sg9
S'Coreference-Identity'
p471
sg10
S'i68'
p472
sg12
S'i65'
p473
sg13
Nsg14
(lp474
(i__main__
Token
p475
(dp476
g18
I404
sbasg21
I404
sba(i__main__
Mention
p477
(dp478
g7
S't7'
p479
sg9
S'Coreference-Identity'
p480
sg10
S'i72'
p481
sg12
S'i68'
p482
sg13
Nsg14
(lp483
(i__main__
Token
p484
(dp485
g18
I422
sbasg21
I422
sba(i__main__
Mention
p486
(dp487
g7
S't7'
p488
sg9
S'Coreference-Identity'
p489
sg10
S'i77'
p490
sg12
S'i72'
p491
sg13
Nsg14
(lp492
(i__main__
Token
p493
(dp494
g18
I447
sbasg21
I447
sba(i__main__
Mention
p495
(dp496
g7
S't7'
p497
sg9
S'Coreference-Identity'
p498
sg10
S'i80'
p499
sg12
S'i77'
p500
sg13
Nsg14
(lp501
(i__main__
Token
p502
(dp503
g18
I471
sbasg21
I471
sba(i__main__
Mention
p504
(dp505
g7
S't7'
p506
sg9
S'Anaphora-C'
p507
sg10
S'i82'
p508
sg12
S'i80'
p509
sg13
Nsg14
(lp510
(i__main__
Token
p511
(dp512
g18
I483
sbasg21
I483
sba(i__main__
Mention
p513
(dp514
g7
S't7'
p515
sg9
S'Anaphora-C'
p516
sg10
S'i85'
p517
sg12
S'i82'
p518
sg13
Nsg14
(lp519
(i__main__
Token
p520
(dp521
g18
I491
sbasg21
I491
sba(i__main__
Mention
p522
(dp523
g7
S't7'
p524
sg9
S'Anaphora-C'
p525
sg10
S'i86'
p526
sg12
S'i85'
p527
sg13
Nsg14
(lp528
(i__main__
Token
p529
(dp530
g18
I497
sbasg21
I497
sba(i__main__
Mention
p531
(dp532
g7
S't7'
p533
sg9
S'Coreference-Identity'
p534
sg10
S'i92'
p535
sg12
S'i86'
p536
sg13
Nsg14
(lp537
(i__main__
Token
p538
(dp539
g18
I522
sbasg21
I522
sbasg7
g304
sg58
Nsba(i__main__
Chain
p540
(dp541
g3
(lp542
(i__main__
Mention
p543
(dp544
g7
S't8'
p545
sg9
Nsg10
S'i9'
p546
sg12
Nsg13
Nsg14
(lp547
(i__main__
Token
p548
(dp549
g18
I46
sba(i__main__
Token
p550
(dp551
g18
I47
sbasg21
I47
sba(i__main__
Mention
p552
(dp553
g7
S't8'
p554
sg9
S'Coreference-Identity'
p555
sg10
S'i17'
p556
sg12
S'i9'
p557
sg13
Nsg14
(lp558
(i__main__
Token
p559
(dp560
g18
I106
sbasg21
I106
sba(i__main__
Mention
p561
(dp562
g7
S't8'
p563
sg9
S'Coreference-Identity'
p564
sg10
S'i78'
p565
sg12
S'i17'
p566
sg13
Nsg14
(lp567
(i__main__
Token
p568
(dp569
g18
I451
sbasg21
I451
sbasg7
g545
sg58
Nsba(i__main__
Chain
p570
(dp571
g3
(lp572
(i__main__
Mention
p573
(dp574
g7
S't9'
p575
sg9
Nsg10
S'i11'
p576
sg12
Nsg13
Nsg14
(lp577
(i__main__
Token
p578
(dp579
g18
I62
sba(i__main__
Token
p580
(dp581
g18
I63
sbasg21
I63
sba(i__main__
Mention
p582
(dp583
g7
S't9'
p584
sg9
S'Coreference-Identity'
p585
sg10
S'i57'
p586
sg12
S'i11'
p587
sg13
Nsg14
(lp588
(i__main__
Token
p589
(dp590
g18
I325
sba(i__main__
Token
p591
(dp592
g18
I326
sbasg21
I326
sbasg7
g575
sg58
Nsba(i__main__
Chain
p593
(dp594
g3
(lp595
(i__main__
Mention
p596
(dp597
g7
S't10'
p598
sg9
S'anaphora-?'
p599
sg10
S'i21'
p600
sg12
S'i21'
p601
sg13
Nsg14
(lp602
(i__main__
Token
p603
(dp604
g18
I118
sbasg21
I118
sbasg7
g598
sg58
Nsba(i__main__
Chain
p605
(dp606
g3
(lp607
(i__main__
Mention
p608
(dp609
g7
S't11'
p610
sg9
Nsg10
S'i25'
p611
sg12
Nsg13
Nsg14
(lp612
(i__main__
Token
p613
(dp614
g18
I131
sbasg21
I131
sba(i__main__
Mention
p615
(dp616
g7
S't11'
p617
sg9
S'Anaphora-RE'
p618
sg10
S'i27'
p619
sg12
S'i25'
p620
sg13
Nsg14
(lp621
(i__main__
Token
p622
(dp623
g18
I134
sba(i__main__
Token
p624
(dp625
g18
I135
sba(i__main__
Token
p626
(dp627
g18
I136
sba(i__main__
Token
p628
(dp629
g18
I137
sba(i__main__
Token
p630
(dp631
g18
I138
sba(i__main__
Token
p632
(dp633
g18
I139
sba(i__main__
Token
p634
(dp635
g18
I140
sba(i__main__
Token
p636
(dp637
g18
I141
sba(i__main__
Token
p638
(dp639
g18
I142
sba(i__main__
Token
p640
(dp641
g18
I143
sba(i__main__
Token
p642
(dp643
g18
I144
sba(i__main__
Token
p644
(dp645
g18
I145
sba(i__main__
Token
p646
(dp647
g18
I146
sba(i__main__
Token
p648
(dp649
g18
I147
sba(i__main__
Token
p650
(dp651
g18
I148
sba(i__main__
Token
p652
(dp653
g18
I149
sba(i__main__
Token
p654
(dp655
g18
I150
sba(i__main__
Token
p656
(dp657
g18
I151
sba(i__main__
Token
p658
(dp659
g18
I152
sbasg21
I151
sbasg7
g610
sg58
Nsba(i__main__
Chain
p660
(dp661
g3
(lp662
(i__main__
Mention
p663
(dp664
g7
S't12'
p665
sg9
Nsg10
S'i36'
p666
sg12
Nsg13
Nsg14
(lp667
(i__main__
Token
p668
(dp669
g18
I192
sbasg21
I192
sba(i__main__
Mention
p670
(dp671
g7
S't12'
p672
sg9
S'Anaphora-RE'
p673
sg10
S'i38'
p674
sg12
S'i36'
p675
sg13
Nsg14
(lp676
(i__main__
Token
p677
(dp678
g18
I196
sba(i__main__
Token
p679
(dp680
g18
I197
sba(i__main__
Token
p681
(dp682
g18
I198
sba(i__main__
Token
p683
(dp684
g18
I199
sba(i__main__
Token
p685
(dp686
g18
I200
sba(i__main__
Token
p687
(dp688
g18
I201
sba(i__main__
Token
p689
(dp690
g18
I202
sba(i__main__
Token
p691
(dp692
g18
I203
sba(i__main__
Token
p693
(dp694
g18
I204
sba(i__main__
Token
p695
(dp696
g18
I205
sbasg21
I205
sbasg7
g665
sg58
Nsba(i__main__
Chain
p697
(dp698
g3
(lp699
(i__main__
Mention
p700
(dp701
g7
S't13'
p702
sg9
Nsg10
S'i37'
p703
sg12
Nsg13
Nsg14
(lp704
(i__main__
Token
p705
(dp706
g18
I196
sbasg21
I196
sba(i__main__
Mention
p707
(dp708
g7
S't13'
p709
sg9
S'Coreference-Identity'
p710
sg10
S'i64'
p711
sg12
S'i37'
p712
sg13
Nsg14
(lp713
(i__main__
Token
p714
(dp715
g18
I377
sbasg21
I377
sbasg7
g702
sg58
Nsba(i__main__
Chain
p716
(dp717
g3
(lp718
(i__main__
Mention
p719
(dp720
g7
S't14'
p721
sg9
Nsg10
S'i39'
p722
sg12
Nsg13
Nsg14
(lp723
(i__main__
Token
p724
(dp725
g18
I203
sbasg21
I203
sba(i__main__
Mention
p726
(dp727
g7
S't14'
p728
sg9
S'Coreference-Identity'
p729
sg10
S'i43'
p730
sg12
S'i39'
p731
sg13
Nsg14
(lp732
(i__main__
Token
p733
(dp734
g18
I218
sbasg21
I218
sba(i__main__
Mention
p735
(dp736
g7
S't14'
p737
sg9
S'Anaphora-C'
p738
sg10
S'i45'
p739
sg12
S'i43'
p740
sg13
Nsg14
(lp741
(i__main__
Token
p742
(dp743
g18
I224
sbasg21
I224
sbasg7
g721
sg58
Nsba(i__main__
Chain
p744
(dp745
g3
(lp746
(i__main__
Mention
p747
(dp748
g7
S't15'
p749
sg9
Nsg10
S'i40'
p750
sg12
Nsg13
Nsg14
(lp751
(i__main__
Token
p752
(dp753
g18
I208
sbasg21
I208
sba(i__main__
Mention
p754
(dp755
g7
S't15'
p756
sg9
S'Anaphora-RE'
p757
sg10
S'i42'
p758
sg12
S'i40'
p759
sg13
Nsg14
(lp760
(i__main__
Token
p761
(dp762
g18
I212
sba(i__main__
Token
p763
(dp764
g18
I213
sba(i__main__
Token
p765
(dp766
g18
I214
sba(i__main__
Token
p767
(dp768
g18
I215
sba(i__main__
Token
p769
(dp770
g18
I216
sba(i__main__
Token
p771
(dp772
g18
I217
sba(i__main__
Token
p773
(dp774
g18
I218
sba(i__main__
Token
p775
(dp776
g18
I219
sba(i__main__
Token
p777
(dp778
g18
I220
sbasg21
I220
sbasg7
g749
sg58
Nsba(i__main__
Chain
p779
(dp780
g3
(lp781
(i__main__
Mention
p782
(dp783
g7
S't16'
p784
sg9
S'anaphora-?'
p785
sg10
S'i41'
p786
sg12
S'i41'
p787
sg13
Nsg14
(lp788
(i__main__
Token
p789
(dp790
g18
I212
sbasg21
I212
sbasg7
g784
sg58
Nsba(i__main__
Chain
p791
(dp792
g3
(lp793
(i__main__
Mention
p794
(dp795
g7
S't17'
p796
sg9
S'anaphora-?'
p797
sg10
S'i47'
p798
sg12
S'i47'
p799
sg13
Nsg14
(lp800
(i__main__
Token
p801
(dp802
g18
I225
sbasg21
I225
sbasg7
g796
sg58
Nsba(i__main__
Chain
p803
(dp804
g3
(lp805
(i__main__
Mention
p806
(dp807
g7
S't18'
p808
sg9
S'anaphora-?'
p809
sg10
S'i48'
p810
sg12
S'i48'
p811
sg13
Nsg14
(lp812
(i__main__
Token
p813
(dp814
g18
I235
sbasg21
I235
sbasg7
g808
sg58
Nsba(i__main__
Chain
p815
(dp816
g3
(lp817
(i__main__
Mention
p818
(dp819
g7
S't19'
p820
sg9
S'anaphora-?'
p821
sg10
S'i49'
p822
sg12
S'i49'
p823
sg13
Nsg14
(lp824
(i__main__
Token
p825
(dp826
g18
I243
sbasg21
I243
sbasg7
g820
sg58
Nsba(i__main__
Chain
p827
(dp828
g3
(lp829
(i__main__
Mention
p830
(dp831
g7
S't20'
p832
sg9
S'anaphora-?'
p833
sg10
S'i52'
p834
sg12
S'i52'
p835
sg13
Nsg14
(lp836
(i__main__
Token
p837
(dp838
g18
I265
sbasg21
I265
sbasg7
g832
sg58
Nsba(i__main__
Chain
p839
(dp840
g3
(lp841
(i__main__
Mention
p842
(dp843
g7
S't21'
p844
sg9
S'anaphora-?'
p845
sg10
S'i61'
p846
sg12
S'i61'
p847
sg13
Nsg14
(lp848
(i__main__
Token
p849
(dp850
g18
I371
sbasg21
I371
sbasg7
g844
sg58
Nsba(i__main__
Chain
p851
(dp852
g3
(lp853
(i__main__
Mention
p854
(dp855
g7
S't22'
p856
sg9
Nsg10
S'i73'
p857
sg12
Nsg13
Nsg14
(lp858
(i__main__
Token
p859
(dp860
g18
I429
sbasg21
I429
sba(i__main__
Mention
p861
(dp862
g7
S't22'
p863
sg9
S'Anaphora-RE'
p864
sg10
S'i75'
p865
sg12
S'i73'
p866
sg13
Nsg14
(lp867
(i__main__
Token
p868
(dp869
g18
I435
sba(i__main__
Token
p870
(dp871
g18
I436
sba(i__main__
Token
p872
(dp873
g18
I437
sba(i__main__
Token
p874
(dp875
g18
I438
sba(i__main__
Token
p876
(dp877
g18
I439
sba(i__main__
Token
p878
(dp879
g18
I440
sba(i__main__
Token
p880
(dp881
g18
I441
sba(i__main__
Token
p882
(dp883
g18
I442
sba(i__main__
Token
p884
(dp885
g18
I443
sba(i__main__
Token
p886
(dp887
g18
I444
sba(i__main__
Token
p888
(dp889
g18
I445
sbasg21
I443
sbasg7
g856
sg58
Nsba(i__main__
Chain
p890
(dp891
g3
(lp892
(i__main__
Mention
p893
(dp894
g7
S't23'
p895
sg9
S'anaphora-?'
p896
sg10
S'i81'
p897
sg12
S'i81'
p898
sg13
Nsg14
(lp899
(i__main__
Token
p900
(dp901
g18
I475
sbasg21
I475
sbasg7
g895
sg58
Nsba(i__main__
Chain
p902
(dp903
g3
(lp904
(i__main__
Mention
p905
(dp906
g7
S't24'
p907
sg9
Nsg10
S'i83'
p908
sg12
Nsg13
Nsg14
(lp909
(i__main__
Token
p910
(dp911
g18
I484
sbasg21
I484
sba(i__main__
Mention
p912
(dp913
g7
S't24'
p914
sg9
S'Anaphora-C'
p915
sg10
S'i84'
p916
sg12
S'i83'
p917
sg13
Nsg14
(lp918
(i__main__
Token
p919
(dp920
g18
I490
sbasg21
I490
sbasg7
g907
sg58
Nsba(i__main__
Chain
p921
(dp922
g3
(lp923
(i__main__
Mention
p924
(dp925
g7
S't25'
p926
sg9
Nsg10
S'i87'
p927
sg12
Nsg13
Nsg14
(lp928
(i__main__
Token
p929
(dp930
g18
I500
sba(i__main__
Token
p931
(dp932
g18
I501
sbasg21
I501
sba(i__main__
Mention
p933
(dp934
g7
S't25'
p935
sg9
S'Anaphora-C'
p936
sg10
S'i89'
p937
sg12
S'i87'
p938
sg13
Nsg14
(lp939
(i__main__
Token
p940
(dp941
g18
I511
sbasg21
I511
sba(i__main__
Mention
p942
(dp943
g7
S't25'
p944
sg9
S'Anaphora-C'
p945
sg10
S'i91'
p946
sg12
S'i89'
p947
sg13
Nsg14
(lp948
(i__main__
Token
p949
(dp950
g18
I512
sbasg21
I512
sbasg7
g926
sg58
Nsba(i__main__
Chain
p951
(dp952
g3
(lp953
(i__main__
Mention
p954
(dp955
g7
S't26'
p956
sg9
Nsg10
S'i88'
p957
sg12
Nsg13
Nsg14
(lp958
(i__main__
Token
p959
(dp960
g18
I508
sbasg21
I508
sba(i__main__
Mention
p961
(dp962
g7
S't26'
p963
sg9
S'Anaphora-RE'
p964
sg10
S'i90'
p965
sg12
S'i88'
p966
sg13
Nsg14
(lp967
(i__main__
Token
p968
(dp969
g18
I511
sba(i__main__
Token
p970
(dp971
g18
I512
sba(i__main__
Token
p972
(dp973
g18
I513
sba(i__main__
Token
p974
(dp975
g18
I514
sba(i__main__
Token
p976
(dp977
g18
I515
sba(i__main__
Token
p978
(dp979
g18
I516
sba(i__main__
Token
p980
(dp981
g18
I517
sba(i__main__
Token
p982
(dp983
g18
I518
sba(i__main__
Token
p984
(dp985
g18
I519
sba(i__main__
Token
p986
(dp987
g18
I520
sbasg21
I517
sbasg7
g956
sg58
Nsba(i__main__
Chain
p988
(dp989
g3
(lp990
(i__main__
Mention
p991
(dp992
g7
S't27'
p993
sg9
S'anaphora-?'
p994
sg10
S'i93'
p995
sg12
S'i93'
p996
sg13
Nsg14
(lp997
(i__main__
Token
p998
(dp999
g18
I526
sbasg21
I526
sbasg7
g993
sg58
Nsba(i__main__
Chain
p1000
(dp1001
g3
(lp1002
(i__main__
Mention
p1003
(dp1004
g7
S't28'
p1005
sg9
Nsg10
S'i94'
p1006
sg12
Nsg13
Nsg14
(lp1007
(i__main__
Token
p1008
(dp1009
g18
I530
sbasg21
I530
sba(i__main__
Mention
p1010
(dp1011
g7
S't28'
p1012
sg9
S'Anaphora-C'
p1013
sg10
S'i96'
p1014
sg12
S'i94'
p1015
sg13
Nsg14
(lp1016
(i__main__
Token
p1017
(dp1018
g18
I546
sbasg21
I546
sbasg7
g1005
sg58
Nsba(i__main__
Chain
p1019
(dp1020
g3
(lp1021
(i__main__
Mention
p1022
(dp1023
g7
S't29'
p1024
sg9
Nsg10
S'i95'
p1025
sg12
Nsg13
Nsg14
(lp1026
(i__main__
Token
p1027
(dp1028
g18
I541
sbasg21
I541
sba(i__main__
Mention
p1029
(dp1030
g7
S't29'
p1031
sg9
S'Anaphora-RE'
p1032
sg10
S'i97'
p1033
sg12
S'i95'
p1034
sg13
Nsg14
(lp1035
(i__main__
Token
p1036
(dp1037
g18
I546
sba(i__main__
Token
p1038
(dp1039
g18
I547
sba(i__main__
Token
p1040
(dp1041
g18
I548
sba(i__main__
Token
p1042
(dp1043
g18
I549
sba(i__main__
Token
p1044
(dp1045
g18
I550
sba(i__main__
Token
p1046
(dp1047
g18
I551
sbasg21
I548
sbasg7
g1024
sg58
Nsba.