(lp0
(i__main__
Chain
p1
(dp2
S'mentionList'
p3
(lp4
(i__main__
Mention
p5
(dp6
S'chainId'
p7
S't1'
p8
sS'relType'
p9
NsS'mentionId'
p10
S'i1'
p11
sS'antecedentId'
p12
NsS'crefMod'
p13
NsS'tokenList'
p14
(lp15
(i__main__
Token
p16
(dp17
S'tokenId'
p18
I0
sbasS'mentionHead'
p19
I0
sba(i__main__
Mention
p20
(dp21
g7
S't1'
p22
sg9
S'Anaphora-RC'
p23
sg10
S'i3'
p24
sg12
S'i1'
p25
sg13
Nsg14
(lp26
(i__main__
Token
p27
(dp28
g18
I5
sba(i__main__
Token
p29
(dp30
g18
I6
sbasg19
I6
sba(i__main__
Mention
p31
(dp32
g7
S't1'
p33
sg9
S'Coreference-NounComplement'
p34
sg10
S'i5'
p35
sg12
S'i3'
p36
sg13
Nsg14
(lp37
(i__main__
Token
p38
(dp39
g18
I7
sba(i__main__
Token
p40
(dp41
g18
I8
sba(i__main__
Token
p42
(dp43
g18
I9
sbasg19
I9
sba(i__main__
Mention
p44
(dp45
g7
S't1'
p46
sg9
S'Coreference-Identity'
p47
sg10
S'i13'
p48
sg12
S'i5'
p49
sg13
Nsg14
(lp50
(i__main__
Token
p51
(dp52
g18
I35
sbasg19
I35
sba(i__main__
Mention
p53
(dp54
g7
S't1'
p55
sg9
S'Coreference-Identity'
p56
sg10
S'i20'
p57
sg12
S'i13'
p58
sg13
Nsg14
(lp59
(i__main__
Token
p60
(dp61
g18
I68
sbasg19
I68
sba(i__main__
Mention
p62
(dp63
g7
S't1'
p64
sg9
S'Coreference-Identity'
p65
sg10
S'i25'
p66
sg12
S'i20'
p67
sg13
Nsg14
(lp68
(i__main__
Token
p69
(dp70
g18
I107
sbasg19
I107
sba(i__main__
Mention
p71
(dp72
g7
S't1'
p73
sg9
S'Anaphora-C'
p74
sg10
S'i29'
p75
sg12
S'i25'
p76
sg13
Nsg14
(lp77
(i__main__
Token
p78
(dp79
g18
I120
sbasg19
I120
sba(i__main__
Mention
p80
(dp81
g7
S't1'
p82
sg9
S'Anaphora-C'
p83
sg10
S'i31'
p84
sg12
S'i29'
p85
sg13
Nsg14
(lp86
(i__main__
Token
p87
(dp88
g18
I121
sbasg19
I121
sba(i__main__
Mention
p89
(dp90
g7
S't1'
p91
sg9
S'Coreference-Identity'
p92
sg10
S'i37'
p93
sg12
S'i31'
p94
sg13
Nsg14
(lp95
(i__main__
Token
p96
(dp97
g18
I148
sbasg19
I148
sba(i__main__
Mention
p98
(dp99
g7
S't1'
p100
sg9
S'Anaphora-C'
p101
sg10
S'i39'
p102
sg12
S'i37'
p103
sg13
Nsg14
(lp104
(i__main__
Token
p105
(dp106
g18
I154
sbasg19
I154
sba(i__main__
Mention
p107
(dp108
g7
S't1'
p109
sg9
S'Anaphora-C'
p110
sg10
S'i40'
p111
sg12
S'i39'
p112
sg13
Nsg14
(lp113
(i__main__
Token
p114
(dp115
g18
I160
sbasg19
I160
sba(i__main__
Mention
p116
(dp117
g7
S't1'
p118
sg9
S'Coreference-Identity'
p119
sg10
S'i43'
p120
sg12
S'i40'
p121
sg13
Nsg14
(lp122
(i__main__
Token
p123
(dp124
g18
I172
sbasg19
I172
sba(i__main__
Mention
p125
(dp126
g7
S't1'
p127
sg9
S'Coreference-Identity'
p128
sg10
S'i48'
p129
sg12
S'i43'
p130
sg13
Nsg14
(lp131
(i__main__
Token
p132
(dp133
g18
I191
sbasg19
I191
sba(i__main__
Mention
p134
(dp135
g7
S't1'
p136
sg9
Nsg10
S'i50'
p137
sg12
Nsg13
Nsg14
(lp138
(i__main__
Token
p139
(dp140
g18
I201
sbasg19
Nsbasg7
g8
sS'chainHead'
p141
Nsba(i__main__
Chain
p142
(dp143
g3
(lp144
(i__main__
Mention
p145
(dp146
g7
S't2'
p147
sg9
Nsg10
S'i2'
p148
sg12
Nsg13
Nsg14
(lp149
(i__main__
Token
p150
(dp151
g18
I1
sba(i__main__
Token
p152
(dp153
g18
I2
sbasg19
I2
sba(i__main__
Mention
p154
(dp155
g7
S't2'
p156
sg9
S'Coreference-Identity'
p157
sg10
S'i10'
p158
sg12
S'i2'
p159
sg13
Nsg14
(lp160
(i__main__
Token
p161
(dp162
g18
I22
sbasg19
I22
sba(i__main__
Mention
p163
(dp164
g7
S't2'
p165
sg9
S'Coreference-Identity'
p166
sg10
S'i32'
p167
sg12
S'i10'
p168
sg13
Nsg14
(lp169
(i__main__
Token
p170
(dp171
g18
I122
sbasg19
I122
sba(i__main__
Mention
p172
(dp173
g7
S't2'
p174
sg9
S'Coreference-Identity'
p175
sg10
S'i45'
p176
sg12
S'i32'
p177
sg13
Nsg14
(lp178
(i__main__
Token
p179
(dp180
g18
I174
sbasg19
I174
sbasg7
g147
sg141
Nsba(i__main__
Chain
p181
(dp182
g3
(lp183
(i__main__
Mention
p184
(dp185
g7
S't3'
p186
sg9
Nsg10
S'i4'
p187
sg12
Nsg13
Nsg14
(lp188
(i__main__
Token
p189
(dp190
g18
I5
sbasg19
I5
sba(i__main__
Mention
p191
(dp192
g7
S't3'
p193
sg9
S'Coreference-InferedRelation'
p194
sg10
S'i7'
p195
sg12
S'i4'
p196
sg13
Nsg14
(lp197
(i__main__
Token
p198
(dp199
g18
I13
sbasg19
I13
sba(i__main__
Mention
p200
(dp201
g7
S't3'
p202
sg9
S'Coreference-Identity'
p203
sg10
S'i17'
p204
sg12
S'i7'
p205
sg13
Nsg14
(lp206
(i__main__
Token
p207
(dp208
g18
I48
sbasg19
I48
sba(i__main__
Mention
p209
(dp210
g7
S't3'
p211
sg9
S'Coreference-Noun-Noun'
p212
sg10
S'i21'
p213
sg12
S'i17'
p214
sg13
Nsg14
(lp215
(i__main__
Token
p216
(dp217
g18
I80
sbasg19
I80
sba(i__main__
Mention
p218
(dp219
g7
S't3'
p220
sg9
S'Coreference-InferedRelation'
p221
sg10
S'i23'
p222
sg12
S'i21'
p223
sg13
Nsg14
(lp224
(i__main__
Token
p225
(dp226
g18
I92
sbasg19
I92
sbasg7
g186
sg141
Nsba(i__main__
Chain
p227
(dp228
g3
(lp229
(i__main__
Mention
p230
(dp231
g7
S't4'
p232
sg9
Nsg10
S'i6'
p233
sg12
Nsg13
Nsg14
(lp234
(i__main__
Token
p235
(dp236
g18
I13
sba(i__main__
Token
p237
(dp238
g18
I14
sbasg19
I14
sba(i__main__
Mention
p239
(dp240
g7
S't4'
p241
sg9
S'Coreference-NounComplement'
p242
sg10
S'i8'
p243
sg12
S'i6'
p244
sg13
Nsg14
(lp245
(i__main__
Token
p246
(dp247
g18
I15
sba(i__main__
Token
p248
(dp249
g18
I16
sba(i__main__
Token
p250
(dp251
g18
I17
sbasg19
I17
sba(i__main__
Mention
p252
(dp253
g7
S't4'
p254
sg9
S'Coreference-Identity'
p255
sg10
S'i12'
p256
sg12
S'i8'
p257
sg13
Nsg14
(lp258
(i__main__
Token
p259
(dp260
g18
I33
sbasg19
I33
sba(i__main__
Mention
p261
(dp262
g7
S't4'
p263
sg9
S'Anaphora-C'
p264
sg10
S'i15'
p265
sg12
S'i12'
p266
sg13
Nsg14
(lp267
(i__main__
Token
p268
(dp269
g18
I47
sbasg19
I47
sba(i__main__
Mention
p270
(dp271
g7
S't4'
p272
sg9
S'Coreference-Noun-Noun'
p273
sg10
S'i16'
p274
sg12
S'i15'
p275
sg13
Nsg14
(lp276
(i__main__
Token
p277
(dp278
g18
I48
sba(i__main__
Token
p279
(dp280
g18
I49
sbasg19
I49
sba(i__main__
Mention
p281
(dp282
g7
S't4'
p283
sg9
S'Anaphora-C'
p284
sg10
S'i18'
p285
sg12
S'i16'
p286
sg13
Nsg14
(lp287
(i__main__
Token
p288
(dp289
g18
I54
sbasg19
I54
sba(i__main__
Mention
p290
(dp291
g7
S't4'
p292
sg9
S'Coreference-Noun-Noun'
p293
sg10
S'i26'
p294
sg12
S'i18'
p295
sg13
Nsg14
(lp296
(i__main__
Token
p297
(dp298
g18
I109
sbasg19
I109
sba(i__main__
Mention
p299
(dp300
g7
S't4'
p301
sg9
S'Coreference-Identity'
p302
sg10
S'i38'
p303
sg12
S'i26'
p304
sg13
Nsg14
(lp305
(i__main__
Token
p306
(dp307
g18
I150
sbasg19
I150
sba(i__main__
Mention
p308
(dp309
g7
S't4'
p310
sg9
Nsg10
S'i46'
p311
sg12
Nsg13
Nsg14
(lp312
(i__main__
Token
p313
(dp314
g18
I176
sbasg19
Nsba(i__main__
Mention
p315
(dp316
g7
S't4'
p317
sg9
S'Coreference-Identity'
p318
sg10
S'i49'
p319
sg12
S'i46'
p320
sg13
Nsg14
(lp321
(i__main__
Token
p322
(dp323
g18
I192
sbasg19
I192
sba(i__main__
Mention
p324
(dp325
g7
S't4'
p326
sg9
Nsg10
S'i51'
p327
sg12
Nsg13
Nsg14
(lp328
(i__main__
Token
p329
(dp330
g18
I201
sbasg19
Nsbasg7
g232
sg141
Nsba(i__main__
Chain
p331
(dp332
g3
(lp333
(i__main__
Mention
p334
(dp335
g7
S't5'
p336
sg9
Nsg10
S'i9'
p337
sg12
Nsg13
Nsg14
(lp338
(i__main__
Token
p339
(dp340
g18
I19
sbasg19
I19
sba(i__main__
Mention
p341
(dp342
g7
S't5'
p343
sg9
S'Coreference-Identity'
p344
sg10
S'i24'
p345
sg12
S'i9'
p346
sg13
Nsg14
(lp347
(i__main__
Token
p348
(dp349
g18
I105
sbasg19
I105
sbasg7
g336
sg141
Nsba(i__main__
Chain
p350
(dp351
g3
(lp352
(i__main__
Mention
p353
(dp354
g7
S't6'
p355
sg9
Nsg10
S'i11'
p356
sg12
Nsg13
Nsg14
(lp357
(i__main__
Token
p358
(dp359
g18
I30
sbasg19
I30
sba(i__main__
Mention
p360
(dp361
g7
S't6'
p362
sg9
S'Coreference-Identity'
p363
sg10
S'i28'
p364
sg12
S'i11'
p365
sg13
Nsg14
(lp366
(i__main__
Token
p367
(dp368
g18
I117
sbasg19
I117
sbasg7
g355
sg141
Nsba(i__main__
Chain
p369
(dp370
g3
(lp371
(i__main__
Mention
p372
(dp373
g7
S't7'
p374
sg9
Nsg10
S'i14'
p375
sg12
Nsg13
Nsg14
(lp376
(i__main__
Token
p377
(dp378
g18
I37
sba(i__main__
Token
p379
(dp380
g18
I38
sbasg19
I38
sba(i__main__
Mention
p381
(dp382
g7
S't7'
p383
sg9
S'Coreference-Identity'
p384
sg10
S'i19'
p385
sg12
S'i14'
p386
sg13
Nsg14
(lp387
(i__main__
Token
p388
(dp389
g18
I60
sbasg19
I60
sbasg7
g374
sg141
Nsba(i__main__
Chain
p390
(dp391
g3
(lp392
(i__main__
Mention
p393
(dp394
g7
S't8'
p395
sg9
S'anaphora-?'
p396
sg10
S'i22'
p397
sg12
S'i22'
p398
sg13
Nsg14
(lp399
(i__main__
Token
p400
(dp401
g18
I86
sbasg19
I86
sbasg7
g395
sg141
Nsba(i__main__
Chain
p402
(dp403
g3
(lp404
(i__main__
Mention
p405
(dp406
g7
S't9'
p407
sg9
Nsg10
S'i27'
p408
sg12
Nsg13
Nsg14
(lp409
(i__main__
Token
p410
(dp411
g18
I111
sba(i__main__
Token
p412
(dp413
g18
I112
sbasg19
I112
sba(i__main__
Mention
p414
(dp415
g7
S't9'
p416
sg9
S'Coreference-Noun-Noun'
p417
sg10
S'i30'
p418
sg12
S'i27'
p419
sg13
Nsg14
(lp420
(i__main__
Token
p421
(dp422
g18
I120
sba(i__main__
Token
p423
(dp424
g18
I121
sba(i__main__
Token
p425
(dp426
g18
I122
sba(i__main__
Token
p427
(dp428
g18
I123
sba(i__main__
Token
p429
(dp430
g18
I124
sba(i__main__
Token
p431
(dp432
g18
I125
sba(i__main__
Token
p433
(dp434
g18
I126
sba(i__main__
Token
p435
(dp436
g18
I127
sba(i__main__
Token
p437
(dp438
g18
I128
sba(i__main__
Token
p439
(dp440
g18
I129
sba(i__main__
Token
p441
(dp442
g18
I130
sba(i__main__
Token
p443
(dp444
g18
I131
sba(i__main__
Token
p445
(dp446
g18
I132
sba(i__main__
Token
p447
(dp448
g18
I133
sba(i__main__
Token
p449
(dp450
g18
I134
sba(i__main__
Token
p451
(dp452
g18
I135
sba(i__main__
Token
p453
(dp454
g18
I136
sba(i__main__
Token
p455
(dp456
g18
I137
sba(i__main__
Token
p457
(dp458
g18
I138
sba(i__main__
Token
p459
(dp460
g18
I139
sba(i__main__
Token
p461
(dp462
g18
I140
sba(i__main__
Token
p463
(dp464
g18
I141
sba(i__main__
Token
p465
(dp466
g18
I142
sba(i__main__
Token
p467
(dp468
g18
I143
sba(i__main__
Token
p469
(dp470
g18
I144
sba(i__main__
Token
p471
(dp472
g18
I145
sbasg19
I136
sbasg7
g407
sg141
Nsba(i__main__
Chain
p473
(dp474
g3
(lp475
(i__main__
Mention
p476
(dp477
g7
S't10'
p478
sg9
S'anaphora-?'
p479
sg10
S'i33'
p480
sg12
S'i33'
p481
sg13
Nsg14
(lp482
(i__main__
Token
p483
(dp484
g18
I125
sbasg19
I125
sbasg7
g478
sg141
Nsba(i__main__
Chain
p485
(dp486
g3
(lp487
(i__main__
Mention
p488
(dp489
g7
S't11'
p490
sg9
Nsg10
S'i34'
p491
sg12
Nsg13
Nsg14
(lp492
(i__main__
Token
p493
(dp494
g18
I137
sba(i__main__
Token
p495
(dp496
g18
I138
sba(i__main__
Token
p497
(dp498
g18
I139
sba(i__main__
Token
p499
(dp500
g18
I140
sbasg19
I140
sba(i__main__
Mention
p501
(dp502
g7
S't11'
p503
sg9
S'Anaphora-C'
p504
sg10
S'i36'
p505
sg12
S'i34'
p506
sg13
Nsg14
(lp507
(i__main__
Token
p508
(dp509
g18
I141
sbasg19
I141
sbasg7
g490
sg141
Nsba(i__main__
Chain
p510
(dp511
g3
(lp512
(i__main__
Mention
p513
(dp514
g7
S't12'
p515
sg9
S'anaphora-?'
p516
sg10
S'i35'
p517
sg12
S'i35'
p518
sg13
Nsg14
(lp519
(i__main__
Token
p520
(dp521
g18
I138
sbasg19
I138
sbasg7
g515
sg141
Nsba(i__main__
Chain
p522
(dp523
g3
(lp524
(i__main__
Mention
p525
(dp526
g7
S't13'
p527
sg9
S'anaphora-?'
p528
sg10
S'i41'
p529
sg12
S'i42'
p530
sg13
Nsg14
(lp531
(i__main__
Token
p532
(dp533
g18
I168
sbasg19
I168
sba(i__main__
Mention
p534
(dp535
g7
S't13'
p536
sg9
Nsg10
S'i44'
p537
sg12
Nsg13
Nsg14
(lp538
(i__main__
Token
p539
(dp540
g18
I172
sba(i__main__
Token
p541
(dp542
g18
I173
sba(i__main__
Token
p543
(dp544
g18
I174
sba(i__main__
Token
p545
(dp546
g18
I175
sba(i__main__
Token
p547
(dp548
g18
I176
sba(i__main__
Token
p549
(dp550
g18
I177
sba(i__main__
Token
p551
(dp552
g18
I178
sba(i__main__
Token
p553
(dp554
g18
I179
sbasg19
Nsba(i__main__
Mention
p555
(dp556
g7
S't13'
p557
sg9
S'Anaphora-C'
p558
sg10
S'i47'
p559
sg12
S'i44'
p560
sg13
Nsg14
(lp561
(i__main__
Token
p562
(dp563
g18
I181
sbasg19
I181
sbasg7
g527
sg141
Nsba(i__main__
Chain
p564
(dp565
g3
(lp566
(i__main__
Mention
p567
(dp568
g7
S't14'
p569
sg9
S'anaphora-?'
p570
sg10
S'i52'
p571
sg12
S'i52'
p572
sg13
Nsg14
(lp573
(i__main__
Token
p574
(dp575
g18
I209
sbasg19
I209
sbasg7
g569
sg141
Nsba.