(lp0
(i__main__
Chain
p1
(dp2
S'mentionList'
p3
(lp4
(i__main__
Mention
p5
(dp6
S'chainId'
p7
S't1'
p8
sS'relType'
p9
NsS'mentionId'
p10
S'i1'
p11
sS'antecedentId'
p12
NsS'crefMod'
p13
NsS'tokenList'
p14
(lp15
(i__main__
Token
p16
(dp17
S'tokenId'
p18
I0
sba(i__main__
Token
p19
(dp20
g18
I1
sbasS'mentionHead'
p21
I1
sba(i__main__
Mention
p22
(dp23
g7
S't1'
p24
sg9
S'Coreference-Identity'
p25
sg10
S'i15'
p26
sg12
S'i1'
p27
sg13
Nsg14
(lp28
(i__main__
Token
p29
(dp30
g18
I58
sbasg21
I58
sba(i__main__
Mention
p31
(dp32
g7
S't1'
p33
sg9
S'Coreference-Identity'
p34
sg10
S'i36'
p35
sg12
S'i15'
p36
sg13
Nsg14
(lp37
(i__main__
Token
p38
(dp39
g18
I155
sba(i__main__
Token
p40
(dp41
g18
I156
sbasg21
I156
sba(i__main__
Mention
p42
(dp43
g7
S't1'
p44
sg9
S'Coreference-Identity'
p45
sg10
S'i58'
p46
sg12
S'i36'
p47
sg13
Nsg14
(lp48
(i__main__
Token
p49
(dp50
g18
I287
sba(i__main__
Token
p51
(dp52
g18
I288
sbasg21
I288
sbasg7
g8
sS'chainHead'
p53
Nsba(i__main__
Chain
p54
(dp55
g3
(lp56
(i__main__
Mention
p57
(dp58
g7
S't2'
p59
sg9
Nsg10
S'i2'
p60
sg12
Nsg13
Nsg14
(lp61
(i__main__
Token
p62
(dp63
g18
I3
sba(i__main__
Token
p64
(dp65
g18
I4
sba(i__main__
Token
p66
(dp67
g18
I5
sba(i__main__
Token
p68
(dp69
g18
I6
sba(i__main__
Token
p70
(dp71
g18
I7
sba(i__main__
Token
p72
(dp73
g18
I8
sba(i__main__
Token
p74
(dp75
g18
I9
sba(i__main__
Token
p76
(dp77
g18
I10
sba(i__main__
Token
p78
(dp79
g18
I11
sba(i__main__
Token
p80
(dp81
g18
I12
sba(i__main__
Token
p82
(dp83
g18
I13
sba(i__main__
Token
p84
(dp85
g18
I14
sbasg21
I14
sba(i__main__
Mention
p86
(dp87
g7
S't2'
p88
sg9
S'Anaphora-E'
p89
sg10
S'i5'
p90
sg12
S'i2'
p91
sg13
Nsg14
(lp92
(i__main__
Token
p93
(dp94
g18
I15
sbasg21
I15
sbasg7
g59
sg53
Nsba(i__main__
Chain
p95
(dp96
g3
(lp97
(i__main__
Mention
p98
(dp99
g7
S't3'
p100
sg9
Nsg10
S'i3'
p101
sg12
Nsg13
Nsg14
(lp102
(i__main__
Token
p103
(dp104
g18
I3
sba(i__main__
Token
p105
(dp106
g18
I4
sba(i__main__
Token
p107
(dp108
g18
I5
sba(i__main__
Token
p109
(dp110
g18
I6
sba(i__main__
Token
p111
(dp112
g18
I7
sbasg21
I7
sba(i__main__
Mention
p113
(dp114
g7
S't3'
p115
sg9
S'Coreference-Identity'
p116
sg10
S'i16'
p117
sg12
S'i3'
p118
sg13
Nsg14
(lp119
(i__main__
Token
p120
(dp121
g18
I60
sbasg21
I60
sba(i__main__
Mention
p122
(dp123
g7
S't3'
p124
sg9
S'Coreference-Identity'
p125
sg10
S'i25'
p126
sg12
S'i16'
p127
sg13
Nsg14
(lp128
(i__main__
Token
p129
(dp130
g18
I98
sbasg21
I98
sba(i__main__
Mention
p131
(dp132
g7
S't3'
p133
sg9
S'Coreference-Identity'
p134
sg10
S'i31'
p135
sg12
S'i25'
p136
sg13
Nsg14
(lp137
(i__main__
Token
p138
(dp139
g18
I127
sbasg21
I127
sba(i__main__
Mention
p140
(dp141
g7
S't3'
p142
sg9
S'Coreference-Identity'
p143
sg10
S'i46'
p144
sg12
S'i31'
p145
sg13
Nsg14
(lp146
(i__main__
Token
p147
(dp148
g18
I188
sba(i__main__
Token
p149
(dp150
g18
I189
sbasg21
I189
sba(i__main__
Mention
p151
(dp152
g7
S't3'
p153
sg9
S'Coreference-Identity'
p154
sg10
S'i64'
p155
sg12
S'i46'
p156
sg13
Nsg14
(lp157
(i__main__
Token
p158
(dp159
g18
I313
sba(i__main__
Token
p160
(dp161
g18
I314
sbasg21
I314
sbasg7
g100
sg53
Nsba(i__main__
Chain
p162
(dp163
g3
(lp164
(i__main__
Mention
p165
(dp166
g7
S't4'
p167
sg9
Nsg10
S'i4'
p168
sg12
Nsg13
Nsg14
(lp169
(i__main__
Token
p170
(dp171
g18
I10
sba(i__main__
Token
p172
(dp173
g18
I11
sbasg21
I11
sba(i__main__
Mention
p174
(dp175
g7
S't4'
p176
sg9
Nsg10
S'i12'
p177
sg12
Nsg13
Nsg14
(lp178
(i__main__
Token
p179
(dp180
g18
I49
sba(i__main__
Token
p181
(dp182
g18
I50
sbasg21
Nsba(i__main__
Mention
p183
(dp184
g7
S't4'
p185
sg9
Nsg10
S'i68'
p186
sg12
Nsg13
Nsg14
(lp187
(i__main__
Token
p188
(dp189
g18
I328
sba(i__main__
Token
p190
(dp191
g18
I329
sbasg21
Nsbasg7
g167
sg53
Nsba(i__main__
Chain
p192
(dp193
g3
(lp194
(i__main__
Mention
p195
(dp196
g7
S't5'
p197
sg9
Nsg10
S'i6'
p198
sg12
Nsg13
Nsg14
(lp199
(i__main__
Token
p200
(dp201
g18
I23
sba(i__main__
Token
p202
(dp203
g18
I24
sbasg21
I24
sba(i__main__
Mention
p204
(dp205
g7
S't5'
p206
sg9
S'Coreference-NounComplement'
p207
sg10
S'i7'
p208
sg12
S'i6'
p209
sg13
Nsg14
(lp210
(i__main__
Token
p211
(dp212
g18
I25
sba(i__main__
Token
p213
(dp214
g18
I26
sbasg21
I26
sba(i__main__
Mention
p215
(dp216
g7
S't5'
p217
sg9
S'Coreference-Identity'
p218
sg10
S'i34'
p219
sg12
S'i7'
p220
sg13
Nsg14
(lp221
(i__main__
Token
p222
(dp223
g18
I147
sba(i__main__
Token
p224
(dp225
g18
I148
sbasg21
I148
sba(i__main__
Mention
p226
(dp227
g7
S't5'
p228
sg9
S'Coreference-Identity'
p229
sg10
S'i55'
p230
sg12
S'i34'
p231
sg13
Nsg14
(lp232
(i__main__
Token
p233
(dp234
g18
I238
sba(i__main__
Token
p235
(dp236
g18
I239
sbasg21
I239
sbasg7
g197
sg53
Nsba(i__main__
Chain
p237
(dp238
g3
(lp239
(i__main__
Mention
p240
(dp241
g7
S't6'
p242
sg9
Nsg10
S'i8'
p243
sg12
Nsg13
Nsg14
(lp244
(i__main__
Token
p245
(dp246
g18
I28
sba(i__main__
Token
p247
(dp248
g18
I29
sba(i__main__
Token
p249
(dp250
g18
I30
sba(i__main__
Token
p251
(dp252
g18
I31
sbasg21
I31
sba(i__main__
Mention
p253
(dp254
g7
S't6'
p255
sg9
S'Coreference-NounComplement'
p256
sg10
S'i9'
p257
sg12
S'i8'
p258
sg13
Nsg14
(lp259
(i__main__
Token
p260
(dp261
g18
I32
sba(i__main__
Token
p262
(dp263
g18
I33
sbasg21
I33
sba(i__main__
Mention
p264
(dp265
g7
S't6'
p266
sg9
S'Coreference-Identity'
p267
sg10
S'i35'
p268
sg12
S'i9'
p269
sg13
Nsg14
(lp270
(i__main__
Token
p271
(dp272
g18
I150
sba(i__main__
Token
p273
(dp274
g18
I151
sbasg21
I151
sbasg7
g242
sg53
Nsba(i__main__
Chain
p275
(dp276
g3
(lp277
(i__main__
Mention
p278
(dp279
g7
S't7'
p280
sg9
Nsg10
S'i10'
p281
sg12
Nsg13
Nsg14
(lp282
(i__main__
Token
p283
(dp284
g18
I42
sba(i__main__
Token
p285
(dp286
g18
I43
sbasg21
I43
sba(i__main__
Mention
p287
(dp288
g7
S't7'
p289
sg9
S'Coreference-Identity'
p290
sg10
S'i19'
p291
sg12
S'i10'
p292
sg13
Nsg14
(lp293
(i__main__
Token
p294
(dp295
g18
I81
sba(i__main__
Token
p296
(dp297
g18
I82
sbasg21
I82
sbasg7
g280
sg53
Nsba(i__main__
Chain
p298
(dp299
g3
(lp300
(i__main__
Mention
p301
(dp302
g7
S't8'
p303
sg9
Nsg10
S'i11'
p304
sg12
Nsg13
Nsg14
(lp305
(i__main__
Token
p306
(dp307
g18
I47
sba(i__main__
Token
p308
(dp309
g18
I50
sbasg21
Nsba(i__main__
Mention
p310
(dp311
g7
S't8'
p312
sg9
Nsg10
S'i67'
p313
sg12
Nsg13
Nsg14
(lp314
(i__main__
Token
p315
(dp316
g18
I326
sba(i__main__
Token
p317
(dp318
g18
I329
sbasg21
Nsbasg7
g303
sg53
Nsba(i__main__
Chain
p319
(dp320
g3
(lp321
(i__main__
Mention
p322
(dp323
g7
S't9'
p324
sg9
Nsg10
S'i14'
p325
sg12
Nsg13
Nsg14
(lp326
(i__main__
Token
p327
(dp328
g18
I55
sbasg21
I55
sba(i__main__
Mention
p329
(dp330
g7
S't9'
p331
sg9
S'Coreference-Identity'
p332
sg10
S'i33'
p333
sg12
S'i14'
p334
sg13
Nsg14
(lp335
(i__main__
Token
p336
(dp337
g18
I140
sbasg21
I140
sba(i__main__
Mention
p338
(dp339
g7
S't9'
p340
sg9
S'Coreference-Identity'
p341
sg10
S'i66'
p342
sg12
S'i33'
p343
sg13
Nsg14
(lp344
(i__main__
Token
p345
(dp346
g18
I323
sbasg21
I323
sbasg7
g324
sg53
Nsba(i__main__
Chain
p347
(dp348
g3
(lp349
(i__main__
Mention
p350
(dp351
g7
S't10'
p352
sg9
Nsg10
S'i17'
p353
sg12
Nsg13
Nsg14
(lp354
(i__main__
Token
p355
(dp356
g18
I65
sbasg21
I65
sba(i__main__
Mention
p357
(dp358
g7
S't10'
p359
sg9
S'Coreference-Identity'
p360
sg10
S'i32'
p361
sg12
S'i17'
p362
sg13
Nsg14
(lp363
(i__main__
Token
p364
(dp365
g18
I137
sbasg21
I137
sba(i__main__
Mention
p366
(dp367
g7
S't10'
p368
sg9
S'Coreference-Identity'
p369
sg10
S'i39'
p370
sg12
S'i32'
p371
sg13
Nsg14
(lp372
(i__main__
Token
p373
(dp374
g18
I165
sbasg21
I165
sba(i__main__
Mention
p375
(dp376
g7
S't10'
p377
sg9
S'Coreference-Identity'
p378
sg10
S'i43'
p379
sg12
S'i39'
p380
sg13
Nsg14
(lp381
(i__main__
Token
p382
(dp383
g18
I181
sbasg21
I181
sba(i__main__
Mention
p384
(dp385
g7
S't10'
p386
sg9
S'Coreference-Identity'
p387
sg10
S'i48'
p388
sg12
S'i43'
p389
sg13
Nsg14
(lp390
(i__main__
Token
p391
(dp392
g18
I197
sbasg21
I197
sba(i__main__
Mention
p393
(dp394
g7
S't10'
p395
sg9
S'Coreference-Identity'
p396
sg10
S'i53'
p397
sg12
S'i48'
p398
sg13
Nsg14
(lp399
(i__main__
Token
p400
(dp401
g18
I220
sbasg21
I220
sba(i__main__
Mention
p402
(dp403
g7
S't10'
p404
sg9
S'Coreference-Noun-Noun'
p405
sg10
S'i65'
p406
sg12
S'i53'
p407
sg13
Nsg14
(lp408
(i__main__
Token
p409
(dp410
g18
I317
sbasg21
I317
sbasg7
g352
sg53
Nsba(i__main__
Chain
p411
(dp412
g3
(lp413
(i__main__
Mention
p414
(dp415
g7
S't11'
p416
sg9
Nsg10
S'i18'
p417
sg12
Nsg13
Nsg14
(lp418
(i__main__
Token
p419
(dp420
g18
I70
sba(i__main__
Token
p421
(dp422
g18
I71
sbasg21
I71
sba(i__main__
Mention
p423
(dp424
g7
S't11'
p425
sg9
S'Coreference-Identity'
p426
sg10
S'i40'
p427
sg12
S'i18'
p428
sg13
Nsg14
(lp429
(i__main__
Token
p430
(dp431
g18
I171
sba(i__main__
Token
p432
(dp433
g18
I172
sbasg21
I172
sbasg7
g416
sg53
Nsba(i__main__
Chain
p434
(dp435
g3
(lp436
(i__main__
Mention
p437
(dp438
g7
S't12'
p439
sg9
Nsg10
S'i20'
p440
sg12
Nsg13
Nsg14
(lp441
(i__main__
Token
p442
(dp443
g18
I83
sba(i__main__
Token
p444
(dp445
g18
I84
sbasg21
I84
sba(i__main__
Mention
p446
(dp447
g7
S't12'
p448
sg9
S'Anaphora-C'
p449
sg10
S'i26'
p450
sg12
S'i20'
p451
sg13
Nsg14
(lp452
(i__main__
Token
p453
(dp454
g18
I102
sbasg21
I102
sbasg7
g439
sg53
Nsba(i__main__
Chain
p455
(dp456
g3
(lp457
(i__main__
Mention
p458
(dp459
g7
S't13'
p460
sg9
Nsg10
S'i21'
p461
sg12
Nsg13
Nsg14
(lp462
(i__main__
Token
p463
(dp464
g18
I87
sba(i__main__
Token
p465
(dp466
g18
I88
sbasg21
I88
sba(i__main__
Mention
p467
(dp468
g7
S't13'
p469
sg9
S'Anaphora-C'
p470
sg10
S'i23'
p471
sg12
S'i21'
p472
sg13
Nsg14
(lp473
(i__main__
Token
p474
(dp475
g18
I97
sbasg21
I97
sba(i__main__
Mention
p476
(dp477
g7
S't13'
p478
sg9
S'Coreference-Identity'
p479
sg10
S'i27'
p480
sg12
S'i23'
p481
sg13
Nsg14
(lp482
(i__main__
Token
p483
(dp484
g18
I110
sba(i__main__
Token
p485
(dp486
g18
I111
sbasg21
I111
sba(i__main__
Mention
p487
(dp488
g7
S't13'
p489
sg9
S'Coreference-Identity'
p490
sg10
S'i60'
p491
sg12
S'i27'
p492
sg13
Nsg14
(lp493
(i__main__
Token
p494
(dp495
g18
I301
sba(i__main__
Token
p496
(dp497
g18
I302
sbasg21
I302
sbasg7
g460
sg53
Nsba(i__main__
Chain
p498
(dp499
g3
(lp500
(i__main__
Mention
p501
(dp502
g7
S't14'
p503
sg9
Nsg10
S'i22'
p504
sg12
Nsg13
Nsg14
(lp505
(i__main__
Token
p506
(dp507
g18
I90
sbasg21
I90
sba(i__main__
Mention
p508
(dp509
g7
S't14'
p510
sg9
S'Anaphora-RC'
p511
sg10
S'i24'
p512
sg12
S'i22'
p513
sg13
Nsg14
(lp514
(i__main__
Token
p515
(dp516
g18
I97
sba(i__main__
Token
p517
(dp518
g18
I98
sba(i__main__
Token
p519
(dp520
g18
I99
sba(i__main__
Token
p521
(dp522
g18
I100
sba(i__main__
Token
p523
(dp524
g18
I101
sba(i__main__
Token
p525
(dp526
g18
I102
sba(i__main__
Token
p527
(dp528
g18
I103
sba(i__main__
Token
p529
(dp530
g18
I104
sba(i__main__
Token
p531
(dp532
g18
I105
sba(i__main__
Token
p533
(dp534
g18
I106
sba(i__main__
Token
p535
(dp536
g18
I107
sba(i__main__
Token
p537
(dp538
g18
I108
sbasg21
I108
sbasg7
g503
sg53
Nsba(i__main__
Chain
p539
(dp540
g3
(lp541
(i__main__
Mention
p542
(dp543
g7
S't15'
p544
sg9
Nsg10
S'i28'
p545
sg12
Nsg13
Nsg14
(lp546
(i__main__
Token
p547
(dp548
g18
I117
sbasg21
I117
sba(i__main__
Mention
p549
(dp550
g7
S't15'
p551
sg9
S'Anaphora-C'
p552
sg10
S'i29'
p553
sg12
S'i28'
p554
sg13
Nsg14
(lp555
(i__main__
Token
p556
(dp557
g18
I119
sbasg21
I119
sbasg7
g544
sg53
Nsba(i__main__
Chain
p558
(dp559
g3
(lp560
(i__main__
Mention
p561
(dp562
g7
S't16'
p563
sg9
Nsg10
S'i30'
p564
sg12
Nsg13
Nsg14
(lp565
(i__main__
Token
p566
(dp567
g18
I121
sba(i__main__
Token
p568
(dp569
g18
I122
sbasg21
I122
sba(i__main__
Mention
p570
(dp571
g7
S't16'
p572
sg9
S'Coreference-Identity'
p573
sg10
S'i52'
p574
sg12
S'i30'
p575
sg13
Nsg14
(lp576
(i__main__
Token
p577
(dp578
g18
I218
sbasg21
I218
sba(i__main__
Mention
p579
(dp580
g7
S't16'
p581
sg9
S'Coreference-Identity'
p582
sg10
S'i59'
p583
sg12
S'i52'
p584
sg13
Nsg14
(lp585
(i__main__
Token
p586
(dp587
g18
I294
sbasg21
I294
sba(i__main__
Mention
p588
(dp589
g7
S't16'
p590
sg9
S'Coreference-Identity'
p591
sg10
S'i61'
p592
sg12
S'i59'
p593
sg13
Nsg14
(lp594
(i__main__
Token
p595
(dp596
g18
I305
sbasg21
I305
sba(i__main__
Mention
p597
(dp598
g7
S't16'
p599
sg9
S'Coreference-Identity'
p600
sg10
S'i70'
p601
sg12
S'i61'
p602
sg13
Nsg14
(lp603
(i__main__
Token
p604
(dp605
g18
I337
sbasg21
I337
sbasg7
g563
sg53
Nsba(i__main__
Chain
p606
(dp607
g3
(lp608
(i__main__
Mention
p609
(dp610
g7
S't17'
p611
sg9
Nsg10
S'i37'
p612
sg12
Nsg13
Nsg14
(lp613
(i__main__
Token
p614
(dp615
g18
I155
sba(i__main__
Token
p616
(dp617
g18
I156
sba(i__main__
Token
p618
(dp619
g18
I157
sba(i__main__
Token
p620
(dp621
g18
I158
sba(i__main__
Token
p622
(dp623
g18
I159
sba(i__main__
Token
p624
(dp625
g18
I160
sba(i__main__
Token
p626
(dp627
g18
I161
sba(i__main__
Token
p628
(dp629
g18
I162
sba(i__main__
Token
p630
(dp631
g18
I163
sba(i__main__
Token
p632
(dp633
g18
I164
sba(i__main__
Token
p634
(dp635
g18
I165
sba(i__main__
Token
p636
(dp637
g18
I166
sba(i__main__
Token
p638
(dp639
g18
I167
sba(i__main__
Token
p640
(dp641
g18
I168
sba(i__main__
Token
p642
(dp643
g18
I169
sba(i__main__
Token
p644
(dp645
g18
I170
sba(i__main__
Token
p646
(dp647
g18
I171
sba(i__main__
Token
p648
(dp649
g18
I172
sba(i__main__
Token
p650
(dp651
g18
I173
sbasg21
I173
sba(i__main__
Mention
p652
(dp653
g7
S't17'
p654
sg9
S'Anaphora-E'
p655
sg10
S'i41'
p656
sg12
S'i37'
p657
sg13
Nsg14
(lp658
(i__main__
Token
p659
(dp660
g18
I175
sbasg21
I175
sbasg7
g611
sg53
Nsba(i__main__
Chain
p661
(dp662
g3
(lp663
(i__main__
Mention
p664
(dp665
g7
S't18'
p666
sg9
Nsg10
S'i38'
p667
sg12
Nsg13
Nsg14
(lp668
(i__main__
Token
p669
(dp670
g18
I157
sbasg21
I157
sba(i__main__
Mention
p671
(dp672
g7
S't18'
p673
sg9
S'Coreference-Identity'
p674
sg10
S'i47'
p675
sg12
S'i38'
p676
sg13
Nsg14
(lp677
(i__main__
Token
p678
(dp679
g18
I194
sbasg21
I194
sbasg7
g666
sg53
Nsba(i__main__
Chain
p680
(dp681
g3
(lp682
(i__main__
Mention
p683
(dp684
g7
S't19'
p685
sg9
Nsg10
S'i42'
p686
sg12
Nsg13
Nsg14
(lp687
(i__main__
Token
p688
(dp689
g18
I177
sba(i__main__
Token
p690
(dp691
g18
I178
sbasg21
I178
sba(i__main__
Mention
p692
(dp693
g7
S't19'
p694
sg9
S'Anaphora-C'
p695
sg10
S'i44'
p696
sg12
S'i42'
p697
sg13
Nsg14
(lp698
(i__main__
Token
p699
(dp700
g18
I187
sbasg21
I187
sbasg7
g685
sg53
Nsba(i__main__
Chain
p701
(dp702
g3
(lp703
(i__main__
Mention
p704
(dp705
g7
S't20'
p706
sg9
Nsg10
S'i49'
p707
sg12
Nsg13
Nsg14
(lp708
(i__main__
Token
p709
(dp710
g18
I202
sba(i__main__
Token
p711
(dp712
g18
I203
sbasg21
I203
sba(i__main__
Mention
p713
(dp714
g7
S't20'
p715
sg9
S'Coreference-Identity'
p716
sg10
S'i50'
p717
sg12
S'i49'
p718
sg13
Nsg14
(lp719
(i__main__
Token
p720
(dp721
g18
I208
sbasg21
I208
sba(i__main__
Mention
p722
(dp723
g7
S't20'
p724
sg9
S'Coreference-Identity'
p725
sg10
S'i54'
p726
sg12
S'i50'
p727
sg13
Nsg14
(lp728
(i__main__
Token
p729
(dp730
g18
I231
sbasg21
I231
sba(i__main__
Mention
p731
(dp732
g7
S't20'
p733
sg9
S'Coreference-Identity'
p734
sg10
S'i57'
p735
sg12
S'i54'
p736
sg13
Nsg14
(lp737
(i__main__
Token
p738
(dp739
g18
I264
sbasg21
I264
sbasg7
g706
sg53
Nsba(i__main__
Chain
p740
(dp741
g3
(lp742
(i__main__
Mention
p743
(dp744
g7
S't21'
p745
sg9
Nsg10
S'i51'
p746
sg12
Nsg13
Nsg14
(lp747
(i__main__
Token
p748
(dp749
g18
I216
sbasg21
I216
sba(i__main__
Mention
p750
(dp751
g7
S't21'
p752
sg9
S'Coreference-Identity'
p753
sg10
S'i56'
p754
sg12
S'i51'
p755
sg13
Nsg14
(lp756
(i__main__
Token
p757
(dp758
g18
I247
sbasg21
I247
sbasg7
g745
sg53
Nsba(i__main__
Chain
p759
(dp760
g3
(lp761
(i__main__
Mention
p762
(dp763
g7
S't22'
p764
sg9
Nsg10
S'i62'
p765
sg12
Nsg13
Nsg14
(lp766
(i__main__
Token
p767
(dp768
g18
I307
sbasg21
I307
sba(i__main__
Mention
p769
(dp770
g7
S't22'
p771
sg9
S'Anaphora-RC'
p772
sg10
S'i63'
p773
sg12
S'i62'
p774
sg13
Nsg14
(lp775
(i__main__
Token
p776
(dp777
g18
I313
sba(i__main__
Token
p778
(dp779
g18
I314
sba(i__main__
Token
p780
(dp781
g18
I315
sba(i__main__
Token
p782
(dp783
g18
I316
sba(i__main__
Token
p784
(dp785
g18
I317
sba(i__main__
Token
p786
(dp787
g18
I318
sba(i__main__
Token
p788
(dp789
g18
I319
sba(i__main__
Token
p790
(dp791
g18
I320
sba(i__main__
Token
p792
(dp793
g18
I321
sbasg21
I320
sbasg7
g764
sg53
Nsba.