(lp0
(i__main__
Chain
p1
(dp2
S'mentionList'
p3
(lp4
(i__main__
Mention
p5
(dp6
S'chainId'
p7
S't1'
p8
sS'relType'
p9
NsS'mentionId'
p10
S'i1'
p11
sS'antecedentId'
p12
NsS'crefMod'
p13
NsS'tokenList'
p14
(lp15
(i__main__
Token
p16
(dp17
S'tokenId'
p18
I0
sbasS'mentionHead'
p19
I0
sba(i__main__
Mention
p20
(dp21
g7
S't1'
p22
sg9
S'Coreference-Identity'
p23
sg10
S'i37'
p24
sg12
S'i1'
p25
sg13
Nsg14
(lp26
(i__main__
Token
p27
(dp28
g18
I180
sbasg19
I180
sbasg7
g8
sS'chainHead'
p29
Nsba(i__main__
Chain
p30
(dp31
g3
(lp32
(i__main__
Mention
p33
(dp34
g7
S't2'
p35
sg9
Nsg10
S'i2'
p36
sg12
Nsg13
Nsg14
(lp37
(i__main__
Token
p38
(dp39
g18
I2
sba(i__main__
Token
p40
(dp41
g18
I3
sbasg19
I3
sba(i__main__
Mention
p42
(dp43
g7
S't2'
p44
sg9
S'Coreference-Identity'
p45
sg10
S'i38'
p46
sg12
S'i2'
p47
sg13
Nsg14
(lp48
(i__main__
Token
p49
(dp50
g18
I182
sba(i__main__
Token
p51
(dp52
g18
I183
sbasg19
I183
sbasg7
g35
sg29
Nsba(i__main__
Chain
p53
(dp54
g3
(lp55
(i__main__
Mention
p56
(dp57
g7
S't3'
p58
sg9
Nsg10
S'i3'
p59
sg12
Nsg13
Nsg14
(lp60
(i__main__
Token
p61
(dp62
g18
I8
sba(i__main__
Token
p63
(dp64
g18
I9
sbasg19
I9
sba(i__main__
Mention
p65
(dp66
g7
S't3'
p67
sg9
S'Coreference-Noun-Noun'
p68
sg10
S'i39'
p69
sg12
S'i3'
p70
sg13
Nsg14
(lp71
(i__main__
Token
p72
(dp73
g18
I188
sba(i__main__
Token
p74
(dp75
g18
I189
sba(i__main__
Token
p76
(dp77
g18
I190
sbasg19
I190
sba(i__main__
Mention
p78
(dp79
g7
S't3'
p80
sg9
S'Coreference-Noun-Noun'
p81
sg10
S'i49'
p82
sg12
S'i39'
p83
sg13
Nsg14
(lp84
(i__main__
Token
p85
(dp86
g18
I235
sba(i__main__
Token
p87
(dp88
g18
I236
sbasg19
I236
sbasg7
g58
sg29
Nsba(i__main__
Chain
p89
(dp90
g3
(lp91
(i__main__
Mention
p92
(dp93
g7
S't4'
p94
sg9
Nsg10
S'i4'
p95
sg12
Nsg13
Nsg14
(lp96
(i__main__
Token
p97
(dp98
g18
I17
sbasg19
I17
sba(i__main__
Mention
p99
(dp100
g7
S't4'
p101
sg9
S'Coreference-Identity'
p102
sg10
S'i9'
p103
sg12
S'i4'
p104
sg13
Nsg14
(lp105
(i__main__
Token
p106
(dp107
g18
I40
sbasg19
I40
sba(i__main__
Mention
p108
(dp109
g7
S't4'
p110
sg9
S'Coreference-Identity'
p111
sg10
S'i14'
p112
sg12
S'i9'
p113
sg13
Nsg14
(lp114
(i__main__
Token
p115
(dp116
g18
I51
sbasg19
I51
sba(i__main__
Mention
p117
(dp118
g7
S't4'
p119
sg9
S'Coreference-Identity'
p120
sg10
S'i21'
p121
sg12
S'i14'
p122
sg13
Nsg14
(lp123
(i__main__
Token
p124
(dp125
g18
I91
sbasg19
I91
sba(i__main__
Mention
p126
(dp127
g7
S't4'
p128
sg9
S'Coreference-Identity'
p129
sg10
S'i25'
p130
sg12
S'i21'
p131
sg13
Nsg14
(lp132
(i__main__
Token
p133
(dp134
g18
I120
sbasg19
I120
sba(i__main__
Mention
p135
(dp136
g7
S't4'
p137
sg9
S'Coreference-Identity'
p138
sg10
S'i28'
p139
sg12
S'i25'
p140
sg13
Nsg14
(lp141
(i__main__
Token
p142
(dp143
g18
I137
sbasg19
I137
sba(i__main__
Mention
p144
(dp145
g7
S't4'
p146
sg9
S'Coreference-Identity'
p147
sg10
S'i32'
p148
sg12
S'i28'
p149
sg13
Nsg14
(lp150
(i__main__
Token
p151
(dp152
g18
I162
sbasg19
I162
sba(i__main__
Mention
p153
(dp154
g7
S't4'
p155
sg9
S'Coreference-Identity'
p156
sg10
S'i40'
p157
sg12
S'i32'
p158
sg13
Nsg14
(lp159
(i__main__
Token
p160
(dp161
g18
I193
sbasg19
I193
sba(i__main__
Mention
p162
(dp163
g7
S't4'
p164
sg9
S'Coreference-Identity'
p165
sg10
S'i45'
p166
sg12
S'i40'
p167
sg13
Nsg14
(lp168
(i__main__
Token
p169
(dp170
g18
I211
sbasg19
I211
sba(i__main__
Mention
p171
(dp172
g7
S't4'
p173
sg9
S'Coreference-Identity'
p174
sg10
S'i51'
p175
sg12
S'i45'
p176
sg13
Nsg14
(lp177
(i__main__
Token
p178
(dp179
g18
I262
sbasg19
I262
sba(i__main__
Mention
p180
(dp181
g7
S't4'
p182
sg9
S'Coreference-Identity'
p183
sg10
S'i52'
p184
sg12
S'i51'
p185
sg13
Nsg14
(lp186
(i__main__
Token
p187
(dp188
g18
I269
sbasg19
I269
sbasg7
g94
sg29
Nsba(i__main__
Chain
p189
(dp190
g3
(lp191
(i__main__
Mention
p192
(dp193
g7
S't5'
p194
sg9
Nsg10
S'i5'
p195
sg12
Nsg13
Nsg14
(lp196
(i__main__
Token
p197
(dp198
g18
I19
sba(i__main__
Token
p199
(dp200
g18
I20
sbasg19
I20
sba(i__main__
Mention
p201
(dp202
g7
S't5'
p203
sg9
S'Coreference-NounComplement'
p204
sg10
S'i6'
p205
sg12
S'i5'
p206
sg13
Nsg14
(lp207
(i__main__
Token
p208
(dp209
g18
I21
sba(i__main__
Token
p210
(dp211
g18
I22
sbasg19
I22
sba(i__main__
Mention
p212
(dp213
g7
S't5'
p214
sg9
S'Coreference-Identity'
p215
sg10
S'i20'
p216
sg12
S'i6'
p217
sg13
Nsg14
(lp218
(i__main__
Token
p219
(dp220
g18
I85
sbasg19
I85
sba(i__main__
Mention
p221
(dp222
g7
S't5'
p223
sg9
S'Coreference-Identity'
p224
sg10
S'i50'
p225
sg12
S'i20'
p226
sg13
Nsg14
(lp227
(i__main__
Token
p228
(dp229
g18
I245
sbasg19
I245
sbasg7
g194
sg29
Nsba(i__main__
Chain
p230
(dp231
g3
(lp232
(i__main__
Mention
p233
(dp234
g7
S't6'
p235
sg9
Nsg10
S'i7'
p236
sg12
Nsg13
Nsg14
(lp237
(i__main__
Token
p238
(dp239
g18
I31
sbasg19
I31
sba(i__main__
Mention
p240
(dp241
g7
S't6'
p242
sg9
S'Coreference-Identity'
p243
sg10
S'i23'
p244
sg12
S'i7'
p245
sg13
Nsg14
(lp246
(i__main__
Token
p247
(dp248
g18
I104
sbasg19
I104
sba(i__main__
Mention
p249
(dp250
g7
S't6'
p251
sg9
S'Coreference-Identity'
p252
sg10
S'i30'
p253
sg12
S'i23'
p254
sg13
Nsg14
(lp255
(i__main__
Token
p256
(dp257
g18
I149
sbasg19
I149
sbasg7
g235
sg29
Nsba(i__main__
Chain
p258
(dp259
g3
(lp260
(i__main__
Mention
p261
(dp262
g7
S't7'
p263
sg9
Nsg10
S'i8'
p264
sg12
Nsg13
Nsg14
(lp265
(i__main__
Token
p266
(dp267
g18
I34
sba(i__main__
Token
p268
(dp269
g18
I35
sba(i__main__
Token
p270
(dp271
g18
I36
sba(i__main__
Token
p272
(dp273
g18
I37
sba(i__main__
Token
p274
(dp275
g18
I38
sbasg19
I38
sba(i__main__
Mention
p276
(dp277
g7
S't7'
p278
sg9
S'Coreference-Identity'
p279
sg10
S'i24'
p280
sg12
S'i8'
p281
sg13
Nsg14
(lp282
(i__main__
Token
p283
(dp284
g18
I107
sba(i__main__
Token
p285
(dp286
g18
I108
sbasg19
I108
sba(i__main__
Mention
p287
(dp288
g7
S't7'
p289
sg9
S'Coreference-Identity'
p290
sg10
S'i31'
p291
sg12
S'i24'
p292
sg13
Nsg14
(lp293
(i__main__
Token
p294
(dp295
g18
I152
sba(i__main__
Token
p296
(dp297
g18
I153
sba(i__main__
Token
p298
(dp299
g18
I154
sba(i__main__
Token
p300
(dp301
g18
I155
sbasg19
I155
sbasg7
g263
sg29
Nsba(i__main__
Chain
p302
(dp303
g3
(lp304
(i__main__
Mention
p305
(dp306
g7
S't8'
p307
sg9
Nsg10
S'i10'
p308
sg12
Nsg13
Nsg14
(lp309
(i__main__
Token
p310
(dp311
g18
I44
sbasg19
Nsba(i__main__
Mention
p312
(dp313
g7
S't8'
p314
sg9
S'Coreference-NounComplement'
p315
sg10
S'i12'
p316
sg12
S'i10'
p317
sg13
Nsg14
(lp318
(i__main__
Token
p319
(dp320
g18
I45
sba(i__main__
Token
p321
(dp322
g18
I46
sbasg19
I46
sba(i__main__
Mention
p323
(dp324
g7
S't8'
p325
sg9
S'Coreference-Identity'
p326
sg10
S'i29'
p327
sg12
S'i12'
p328
sg13
Nsg14
(lp329
(i__main__
Token
p330
(dp331
g18
I148
sbasg19
I148
sba(i__main__
Mention
p332
(dp333
g7
S't8'
p334
sg9
S'Coreference-Identity'
p335
sg10
S'i41'
p336
sg12
S'i29'
p337
sg13
Nsg14
(lp338
(i__main__
Token
p339
(dp340
g18
I201
sbasg19
I201
sba(i__main__
Mention
p341
(dp342
g7
S't8'
p343
sg9
S'Coreference-Identity'
p344
sg10
S'i56'
p345
sg12
S'i41'
p346
sg13
Nsg14
(lp347
(i__main__
Token
p348
(dp349
g18
I297
sba(i__main__
Token
p350
(dp351
g18
I298
sbasg19
I298
sbasg7
g307
sg29
Nsba(i__main__
Chain
p352
(dp353
g3
(lp354
(i__main__
Mention
p355
(dp356
g7
S't9'
p357
sg9
Nsg10
S'i11'
p358
sg12
Nsg13
Nsg14
(lp359
(i__main__
Token
p360
(dp361
g18
I44
sbasg19
Nsba(i__main__
Mention
p362
(dp363
g7
S't9'
p364
sg9
S'Coreference-NounComplement'
p365
sg10
S'i13'
p366
sg12
S'i11'
p367
sg13
Nsg14
(lp368
(i__main__
Token
p369
(dp370
g18
I48
sba(i__main__
Token
p371
(dp372
g18
I49
sbasg19
I49
sba(i__main__
Mention
p373
(dp374
g7
S't9'
p375
sg9
S'Coreference-Noun-Noun'
p376
sg10
S'i26'
p377
sg12
S'i13'
p378
sg13
Nsg14
(lp379
(i__main__
Token
p380
(dp381
g18
I126
sba(i__main__
Token
p382
(dp383
g18
I127
sbasg19
I127
sba(i__main__
Mention
p384
(dp385
g7
S't9'
p386
sg9
S'Coreference-NounComplement'
p387
sg10
S'i27'
p388
sg12
S'i26'
p389
sg13
Nsg14
(lp390
(i__main__
Token
p391
(dp392
g18
I128
sbasg19
I128
sba(i__main__
Mention
p393
(dp394
g7
S't9'
p395
sg9
S'Coreference-Identity'
p396
sg10
S'i42'
p397
sg12
S'i27'
p398
sg13
Nsg14
(lp399
(i__main__
Token
p400
(dp401
g18
I203
sbasg19
I203
sba(i__main__
Mention
p402
(dp403
g7
S't9'
p404
sg9
S'Coreference-Noun-Noun'
p405
sg10
S'i57'
p406
sg12
S'i42'
p407
sg13
Nsg14
(lp408
(i__main__
Token
p409
(dp410
g18
I300
sba(i__main__
Token
p411
(dp412
g18
I301
sbasg19
I301
sbasg7
g357
sg29
Nsba(i__main__
Chain
p413
(dp414
g3
(lp415
(i__main__
Mention
p416
(dp417
g7
S't10'
p418
sg9
Nsg10
S'i15'
p419
sg12
Nsg13
Nsg14
(lp420
(i__main__
Token
p421
(dp422
g18
I61
sbasg19
I61
sba(i__main__
Mention
p423
(dp424
g7
S't10'
p425
sg9
S'Coreference-NounComplement'
p426
sg10
S'i16'
p427
sg12
S'i15'
p428
sg13
Nsg14
(lp429
(i__main__
Token
p430
(dp431
g18
I62
sba(i__main__
Token
p432
(dp433
g18
I63
sba(i__main__
Token
p434
(dp435
g18
I64
sbasg19
I64
sbasg7
g418
sg29
Nsba(i__main__
Chain
p436
(dp437
g3
(lp438
(i__main__
Mention
p439
(dp440
g7
S't11'
p441
sg9
Nsg10
S'i17'
p442
sg12
Nsg13
Nsg14
(lp443
(i__main__
Token
p444
(dp445
g18
I68
sbasg19
I68
sbasg7
g441
sg29
Nsba(i__main__
Chain
p446
(dp447
g3
(lp448
(i__main__
Mention
p449
(dp450
g7
S't12'
p451
sg9
Nsg10
S'i18'
p452
sg12
Nsg13
Nsg14
(lp453
(i__main__
Token
p454
(dp455
g18
I72
sba(i__main__
Token
p456
(dp457
g18
I73
sbasg19
I73
sba(i__main__
Mention
p458
(dp459
g7
S't12'
p460
sg9
S'Coreference-Apposition'
p461
sg10
S'i19'
p462
sg12
S'i18'
p463
sg13
Nsg14
(lp464
(i__main__
Token
p465
(dp466
g18
I75
sba(i__main__
Token
p467
(dp468
g18
I76
sbasg19
I76
sba(i__main__
Mention
p469
(dp470
g7
S't12'
p471
sg9
S'Coreference-Noun-Noun'
p472
sg10
S'i55'
p473
sg12
S'i19'
p474
sg13
Nsg14
(lp475
(i__main__
Token
p476
(dp477
g18
I294
sba(i__main__
Token
p478
(dp479
g18
I295
sbasg19
I295
sbasg7
g451
sg29
Nsba(i__main__
Chain
p480
(dp481
g3
(lp482
(i__main__
Mention
p483
(dp484
g7
S't13'
p485
sg9
Nsg10
S'i22'
p486
sg12
Nsg13
Nsg14
(lp487
(i__main__
Token
p488
(dp489
g18
I93
sbasg19
I93
sbasg7
g485
sg29
Nsba(i__main__
Chain
p490
(dp491
g3
(lp492
(i__main__
Mention
p493
(dp494
g7
S't14'
p495
sg9
Nsg10
S'i33'
p496
sg12
Nsg13
Nsg14
(lp497
(i__main__
Token
p498
(dp499
g18
I172
sba(i__main__
Token
p500
(dp501
g18
I173
sbasg19
Nsba(i__main__
Mention
p502
(dp503
g7
S't14'
p504
sg9
S'Coreference-NounComplement'
p505
sg10
S'i35'
p506
sg12
S'i33'
p507
sg13
Nsg14
(lp508
(i__main__
Token
p509
(dp510
g18
I174
sba(i__main__
Token
p511
(dp512
g18
I175
sbasg19
I175
sba(i__main__
Mention
p513
(dp514
g7
S't14'
p515
sg9
Nsg10
S'i43'
p516
sg12
Nsg13
Nsg14
(lp517
(i__main__
Token
p518
(dp519
g18
I206
sba(i__main__
Token
p520
(dp521
g18
I207
sba(i__main__
Token
p522
(dp523
g18
I208
sba(i__main__
Token
p524
(dp525
g18
I209
sbasg19
Nsba(i__main__
Mention
p526
(dp527
g7
S't14'
p528
sg9
S'Coreference-Identity'
p529
sg10
S'i58'
p530
sg12
S'i43'
p531
sg13
Nsg14
(lp532
(i__main__
Token
p533
(dp534
g18
I303
sba(i__main__
Token
p535
(dp536
g18
I304
sbasg19
I304
sbasg7
g495
sg29
Nsba(i__main__
Chain
p537
(dp538
g3
(lp539
(i__main__
Mention
p540
(dp541
g7
S't15'
p542
sg9
Nsg10
S'i34'
p543
sg12
Nsg13
Nsg14
(lp544
(i__main__
Token
p545
(dp546
g18
I172
sba(i__main__
Token
p547
(dp548
g18
I173
sbasg19
Nsba(i__main__
Mention
p549
(dp550
g7
S't15'
p551
sg9
S'Coreference-NounComplement'
p552
sg10
S'i36'
p553
sg12
S'i34'
p554
sg13
Nsg14
(lp555
(i__main__
Token
p556
(dp557
g18
I177
sba(i__main__
Token
p558
(dp559
g18
I178
sbasg19
I178
sba(i__main__
Mention
p560
(dp561
g7
S't15'
p562
sg9
Nsg10
S'i44'
p563
sg12
Nsg13
Nsg14
(lp564
(i__main__
Token
p565
(dp566
g18
I206
sba(i__main__
Token
p567
(dp568
g18
I207
sba(i__main__
Token
p569
(dp570
g18
I208
sba(i__main__
Token
p571
(dp572
g18
I209
sbasg19
Nsba(i__main__
Mention
p573
(dp574
g7
S't15'
p575
sg9
S'Coreference-Identity'
p576
sg10
S'i59'
p577
sg12
S'i44'
p578
sg13
Nsg14
(lp579
(i__main__
Token
p580
(dp581
g18
I306
sba(i__main__
Token
p582
(dp583
g18
I307
sbasg19
I307
sbasg7
g542
sg29
Nsba(i__main__
Chain
p584
(dp585
g3
(lp586
(i__main__
Mention
p587
(dp588
g7
S't16'
p589
sg9
Nsg10
S'i46'
p590
sg12
Nsg13
Nsg14
(lp591
(i__main__
Token
p592
(dp593
g18
I218
sbasg19
I218
sba(i__main__
Mention
p594
(dp595
g7
S't16'
p596
sg9
S'Anaphora-C'
p597
sg10
S'i48'
p598
sg12
S'i46'
p599
sg13
Nsg14
(lp600
(i__main__
Token
p601
(dp602
g18
I225
sbasg19
I225
sbasg7
g589
sg29
Nsba(i__main__
Chain
p603
(dp604
g3
(lp605
(i__main__
Mention
p606
(dp607
g7
S't17'
p608
sg9
Nsg10
S'i47'
p609
sg12
Nsg13
Nsg14
(lp610
(i__main__
Token
p611
(dp612
g18
I222
sbasg19
I222
sbasg7
g608
sg29
Nsba(i__main__
Chain
p613
(dp614
g3
(lp615
(i__main__
Mention
p616
(dp617
g7
S't18'
p618
sg9
Nsg10
S'i53'
p619
sg12
Nsg13
Nsg14
(lp620
(i__main__
Token
p621
(dp622
g18
I270
sba(i__main__
Token
p623
(dp624
g18
I271
sbasg19
I271
sba(i__main__
Mention
p625
(dp626
g7
S't18'
p627
sg9
S'Coreference-Apposition'
p628
sg10
S'i54'
p629
sg12
S'i53'
p630
sg13
Nsg14
(lp631
(i__main__
Token
p632
(dp633
g18
I273
sbasg19
I273
sbasg7
g618
sg29
Nsba.