(lp0
(i__main__
Chain
p1
(dp2
S'mentionList'
p3
(lp4
(i__main__
Mention
p5
(dp6
S'chainId'
p7
S't1'
p8
sS'relType'
p9
NsS'mentionId'
p10
S'i1'
p11
sS'antecedentId'
p12
NsS'crefMod'
p13
NsS'tokenList'
p14
(lp15
(i__main__
Token
p16
(dp17
S'tokenId'
p18
I0
sbasS'mentionHead'
p19
I0
sba(i__main__
Mention
p20
(dp21
g7
S't1'
p22
sg9
S'Coreference-Identity'
p23
sg10
S'i7'
p24
sg12
S'i1'
p25
sg13
Nsg14
(lp26
(i__main__
Token
p27
(dp28
g18
I36
sbasg19
I36
sba(i__main__
Mention
p29
(dp30
g7
S't1'
p31
sg9
S'Coreference-Identity'
p32
sg10
S'i15'
p33
sg12
S'i7'
p34
sg13
Nsg14
(lp35
(i__main__
Token
p36
(dp37
g18
I75
sbasg19
I75
sbasg7
g8
sS'chainHead'
p38
Nsba(i__main__
Chain
p39
(dp40
g3
(lp41
(i__main__
Mention
p42
(dp43
g7
S't2'
p44
sg9
Nsg10
S'i2'
p45
sg12
Nsg13
Nsg14
(lp46
(i__main__
Token
p47
(dp48
g18
I2
sbasg19
I2
sba(i__main__
Mention
p49
(dp50
g7
S't2'
p51
sg9
S'Coreference-Identity'
p52
sg10
S'i21'
p53
sg12
S'i2'
p54
sg13
Nsg14
(lp55
(i__main__
Token
p56
(dp57
g18
I108
sbasg19
I108
sbasg7
g44
sg38
Nsba(i__main__
Chain
p58
(dp59
g3
(lp60
(i__main__
Mention
p61
(dp62
g7
S't3'
p63
sg9
Nsg10
S'i3'
p64
sg12
Nsg13
Nsg14
(lp65
(i__main__
Token
p66
(dp67
g18
I4
sba(i__main__
Token
p68
(dp69
g18
I5
sba(i__main__
Token
p70
(dp71
g18
I6
sba(i__main__
Token
p72
(dp73
g18
I7
sbasg19
I7
sba(i__main__
Mention
p74
(dp75
g7
S't3'
p76
sg9
S'Coreference-Identity'
p77
sg10
S'i4'
p78
sg12
S'i3'
p79
sg13
Nsg14
(lp80
(i__main__
Token
p81
(dp82
g18
I11
sbasg19
I11
sba(i__main__
Mention
p83
(dp84
g7
S't3'
p85
sg9
S'Coreference-Identity'
p86
sg10
S'i6'
p87
sg12
S'i4'
p88
sg13
Nsg14
(lp89
(i__main__
Token
p90
(dp91
g18
I30
sbasg19
I30
sba(i__main__
Mention
p92
(dp93
g7
S't3'
p94
sg9
S'Coreference-Noun-Noun'
p95
sg10
S'i14'
p96
sg12
S'i6'
p97
sg13
Nsg14
(lp98
(i__main__
Token
p99
(dp100
g18
I67
sba(i__main__
Token
p101
(dp102
g18
I68
sba(i__main__
Token
p103
(dp104
g18
I69
sba(i__main__
Token
p105
(dp106
g18
I70
sbasg19
I70
sba(i__main__
Mention
p107
(dp108
g7
S't3'
p109
sg9
S'Anaphora-C'
p110
sg10
S'i16'
p111
sg12
S'i14'
p112
sg13
Nsg14
(lp113
(i__main__
Token
p114
(dp115
g18
I86
sbasg19
I86
sba(i__main__
Mention
p116
(dp117
g7
S't3'
p118
sg9
S'Coreference-Noun-Noun'
p119
sg10
S'i18'
p120
sg12
S'i16'
p121
sg13
Nsg14
(lp122
(i__main__
Token
p123
(dp124
g18
I98
sba(i__main__
Token
p125
(dp126
g18
I99
sbasg19
I99
sba(i__main__
Mention
p127
(dp128
g7
S't3'
p129
sg9
S'Anaphora-C'
p130
sg10
S'i22'
p131
sg12
S'i18'
p132
sg13
Nsg14
(lp133
(i__main__
Token
p134
(dp135
g18
I110
sbasg19
I110
sba(i__main__
Mention
p136
(dp137
g7
S't3'
p138
sg9
S'Coreference-Noun-Noun'
p139
sg10
S'i26'
p140
sg12
S'i22'
p141
sg13
Nsg14
(lp142
(i__main__
Token
p143
(dp144
g18
I124
sbasg19
I124
sba(i__main__
Mention
p145
(dp146
g7
S't3'
p147
sg9
S'Coreference-Identity'
p148
sg10
S'i29'
p149
sg12
S'i26'
p150
sg13
Nsg14
(lp151
(i__main__
Token
p152
(dp153
g18
I145
sbasg19
I145
sba(i__main__
Mention
p154
(dp155
g7
S't3'
p156
sg9
S'Anaphora-C'
p157
sg10
S'i31'
p158
sg12
S'i29'
p159
sg13
Nsg14
(lp160
(i__main__
Token
p161
(dp162
g18
I160
sbasg19
I160
sba(i__main__
Mention
p163
(dp164
g7
S't3'
p165
sg9
S'Coreference-Identity'
p166
sg10
S'i32'
p167
sg12
S'i31'
p168
sg13
Nsg14
(lp169
(i__main__
Token
p170
(dp171
g18
I164
sbasg19
I164
sbasg7
g63
sg38
Nsba(i__main__
Chain
p172
(dp173
g3
(lp174
(i__main__
Mention
p175
(dp176
g7
S't4'
p177
sg9
Nsg10
S'i5'
p178
sg12
Nsg13
Nsg14
(lp179
(i__main__
Token
p180
(dp181
g18
I27
sba(i__main__
Token
p182
(dp183
g18
I28
sba(i__main__
Token
p184
(dp185
g18
I29
sbasg19
I29
sba(i__main__
Mention
p186
(dp187
g7
S't4'
p188
sg9
S'Anaphora-C'
p189
sg10
S'i8'
p190
sg12
S'i5'
p191
sg13
Nsg14
(lp192
(i__main__
Token
p193
(dp194
g18
I41
sbasg19
I41
sba(i__main__
Mention
p195
(dp196
g7
S't4'
p197
sg9
S'Coreference-PartOf'
p198
sg10
S'i9'
p199
sg12
S'i8'
p200
sg13
Nsg14
(lp201
(i__main__
Token
p202
(dp203
g18
I42
sba(i__main__
Token
p204
(dp205
g18
I43
sba(i__main__
Token
p206
(dp207
g18
I44
sba(i__main__
Token
p208
(dp209
g18
I45
sba(i__main__
Token
p210
(dp211
g18
I46
sbasg19
I46
sba(i__main__
Mention
p212
(dp213
g7
S't4'
p214
sg9
S'Coreference-Identity'
p215
sg10
S'i28'
p216
sg12
S'i9'
p217
sg13
Nsg14
(lp218
(i__main__
Token
p219
(dp220
g18
I141
sba(i__main__
Token
p221
(dp222
g18
I142
sba(i__main__
Token
p223
(dp224
g18
I143
sba(i__main__
Token
p225
(dp226
g18
I144
sbasg19
I144
sbasg7
g177
sg38
Nsba(i__main__
Chain
p227
(dp228
g3
(lp229
(i__main__
Mention
p230
(dp231
g7
S't5'
p232
sg9
Nsg10
S'i10'
p233
sg12
Nsg13
Nsg14
(lp234
(i__main__
Token
p235
(dp236
g18
I51
sbasg19
I51
sba(i__main__
Mention
p237
(dp238
g7
S't5'
p239
sg9
S'Coreference-NounComplement'
p240
sg10
S'i11'
p241
sg12
S'i10'
p242
sg13
Nsg14
(lp243
(i__main__
Token
p244
(dp245
g18
I52
sba(i__main__
Token
p246
(dp247
g18
I53
sba(i__main__
Token
p248
(dp249
g18
I54
sba(i__main__
Token
p250
(dp251
g18
I55
sba(i__main__
Token
p252
(dp253
g18
I56
sbasg19
I56
sbasg7
g232
sg38
Nsba(i__main__
Chain
p254
(dp255
g3
(lp256
(i__main__
Mention
p257
(dp258
g7
S't6'
p259
sg9
Nsg10
S'i12'
p260
sg12
Nsg13
Nsg14
(lp261
(i__main__
Token
p262
(dp263
g18
I58
sbasg19
I58
sba(i__main__
Mention
p264
(dp265
g7
S't6'
p266
sg9
S'Coreference-NounComplement'
p267
sg10
S'i13'
p268
sg12
S'i12'
p269
sg13
Nsg14
(lp270
(i__main__
Token
p271
(dp272
g18
I59
sba(i__main__
Token
p273
(dp274
g18
I60
sbasg19
I60
sba(i__main__
Mention
p275
(dp276
g7
S't6'
p277
sg9
S'Coreference-Noun-Noun'
p278
sg10
S'i20'
p279
sg12
S'i13'
p280
sg13
Nsg14
(lp281
(i__main__
Token
p282
(dp283
g18
I107
sbasg19
I107
sbasg7
g259
sg38
Nsba(i__main__
Chain
p284
(dp285
g3
(lp286
(i__main__
Mention
p287
(dp288
g7
S't7'
p289
sg9
Nsg10
S'i17'
p290
sg12
Nsg13
Nsg14
(lp291
(i__main__
Token
p292
(dp293
g18
I94
sba(i__main__
Token
p294
(dp295
g18
I95
sba(i__main__
Token
p296
(dp297
g18
I96
sbasg19
I96
sba(i__main__
Mention
p298
(dp299
g7
S't7'
p300
sg9
S'Coreference-Apposition'
p301
sg10
S'i19'
p302
sg12
S'i17'
p303
sg13
Nsg14
(lp304
(i__main__
Token
p305
(dp306
g18
I101
sbasg19
I101
sbasg7
g289
sg38
Nsba(i__main__
Chain
p307
(dp308
g3
(lp309
(i__main__
Mention
p310
(dp311
g7
S't8'
p312
sg9
Nsg10
S'i23'
p313
sg12
Nsg13
Nsg14
(lp314
(i__main__
Token
p315
(dp316
g18
I114
sba(i__main__
Token
p317
(dp318
g18
I115
sba(i__main__
Token
p319
(dp320
g18
I116
sba(i__main__
Token
p321
(dp322
g18
I117
sbasg19
I117
sba(i__main__
Mention
p323
(dp324
g7
S't8'
p325
sg9
S'Coreference-Noun-Noun'
p326
sg10
S'i24'
p327
sg12
S'i23'
p328
sg13
Nsg14
(lp329
(i__main__
Token
p330
(dp331
g18
I119
sba(i__main__
Token
p332
(dp333
g18
I120
sba(i__main__
Token
p334
(dp335
g18
I121
sbasg19
I121
sba(i__main__
Mention
p336
(dp337
g7
S't8'
p338
sg9
S'Coreference-NounComplement'
p339
sg10
S'i25'
p340
sg12
S'i24'
p341
sg13
Nsg14
(lp342
(i__main__
Token
p343
(dp344
g18
I122
sba(i__main__
Token
p345
(dp346
g18
I123
sbasg19
I123
sbasg7
g312
sg38
Nsba(i__main__
Chain
p347
(dp348
g3
(lp349
(i__main__
Mention
p350
(dp351
g7
S't9'
p352
sg9
Nsg10
S'i27'
p353
sg12
Nsg13
Nsg14
(lp354
(i__main__
Token
p355
(dp356
g18
I135
sba(i__main__
Token
p357
(dp358
g18
I136
sba(i__main__
Token
p359
(dp360
g18
I137
sba(i__main__
Token
p361
(dp362
g18
I138
sba(i__main__
Token
p363
(dp364
g18
I139
sba(i__main__
Token
p365
(dp366
g18
I140
sba(i__main__
Token
p367
(dp368
g18
I141
sba(i__main__
Token
p369
(dp370
g18
I142
sba(i__main__
Token
p371
(dp372
g18
I143
sba(i__main__
Token
p373
(dp374
g18
I144
sba(i__main__
Token
p375
(dp376
g18
I145
sba(i__main__
Token
p377
(dp378
g18
I146
sba(i__main__
Token
p379
(dp380
g18
I147
sba(i__main__
Token
p381
(dp382
g18
I148
sbasg19
I148
sba(i__main__
Mention
p383
(dp384
g7
S't9'
p385
sg9
S'Anaphora-E'
p386
sg10
S'i30'
p387
sg12
S'i27'
p388
sg13
Nsg14
(lp389
(i__main__
Token
p390
(dp391
g18
I150
sbasg19
I150
sbasg7
g352
sg38
Nsba.