(lp0
(i__main__
Chain
p1
(dp2
S'mentionList'
p3
(lp4
(i__main__
Mention
p5
(dp6
S'chainId'
p7
S't1'
p8
sS'relType'
p9
NsS'mentionId'
p10
S'i1'
p11
sS'antecedentId'
p12
NsS'crefMod'
p13
NsS'tokenList'
p14
(lp15
(i__main__
Token
p16
(dp17
S'tokenId'
p18
I0
sbasS'mentionHead'
p19
I0
sba(i__main__
Mention
p20
(dp21
g7
S't1'
p22
sg9
S'Coreference-Identity'
p23
sg10
S'i22'
p24
sg12
S'i1'
p25
sg13
Nsg14
(lp26
(i__main__
Token
p27
(dp28
g18
I84
sbasg19
I84
sba(i__main__
Mention
p29
(dp30
g7
S't1'
p31
sg9
S'Coreference-Identity'
p32
sg10
S'i24'
p33
sg12
S'i22'
p34
sg13
Nsg14
(lp35
(i__main__
Token
p36
(dp37
g18
I96
sbasg19
I96
sba(i__main__
Mention
p38
(dp39
g7
S't1'
p40
sg9
S'Coreference-Identity'
p41
sg10
S'i28'
p42
sg12
S'i24'
p43
sg13
Nsg14
(lp44
(i__main__
Token
p45
(dp46
g18
I113
sbasg19
I113
sba(i__main__
Mention
p47
(dp48
g7
S't1'
p49
sg9
S'Anaphora-C'
p50
sg10
S'i29'
p51
sg12
S'i28'
p52
sg13
Nsg14
(lp53
(i__main__
Token
p54
(dp55
g18
I115
sbasg19
I115
sba(i__main__
Mention
p56
(dp57
g7
S't1'
p58
sg9
S'Coreference-Identity'
p59
sg10
S'i55'
p60
sg12
S'i29'
p61
sg13
Nsg14
(lp62
(i__main__
Token
p63
(dp64
g18
I231
sbasg19
I231
sba(i__main__
Mention
p65
(dp66
g7
S't1'
p67
sg9
S'Coreference-Identity'
p68
sg10
S'i57'
p69
sg12
S'i55'
p70
sg13
Nsg14
(lp71
(i__main__
Token
p72
(dp73
g18
I244
sbasg19
I244
sba(i__main__
Mention
p74
(dp75
g7
S't1'
p76
sg9
S'Anaphora-C'
p77
sg10
S'i59'
p78
sg12
S'i57'
p79
sg13
Nsg14
(lp80
(i__main__
Token
p81
(dp82
g18
I251
sbasg19
I251
sbasg7
g8
sS'chainHead'
p83
Nsba(i__main__
Chain
p84
(dp85
g3
(lp86
(i__main__
Mention
p87
(dp88
g7
S't2'
p89
sg9
Nsg10
S'i2'
p90
sg12
Nsg13
Nsg14
(lp91
(i__main__
Token
p92
(dp93
g18
I6
sba(i__main__
Token
p94
(dp95
g18
I7
sba(i__main__
Token
p96
(dp97
g18
I8
sbasg19
I8
sba(i__main__
Mention
p98
(dp99
g7
S't2'
p100
sg9
S'Coreference-Bracketed/Abbraviation'
p101
sg10
S'i3'
p102
sg12
S'i2'
p103
sg13
Nsg14
(lp104
(i__main__
Token
p105
(dp106
g18
I26
sbasg19
I26
sba(i__main__
Mention
p107
(dp108
g7
S't2'
p109
sg9
S'Coreference-Identity'
p110
sg10
S'i21'
p111
sg12
S'i3'
p112
sg13
Nsg14
(lp113
(i__main__
Token
p114
(dp115
g18
I82
sbasg19
I82
sba(i__main__
Mention
p116
(dp117
g7
S't2'
p118
sg9
S'Coreference-Identity'
p119
sg10
S'i31'
p120
sg12
S'i21'
p121
sg13
Nsg14
(lp122
(i__main__
Token
p123
(dp124
g18
I119
sbasg19
I119
sba(i__main__
Mention
p125
(dp126
g7
S't2'
p127
sg9
S'Coreference-Identity'
p128
sg10
S'i42'
p129
sg12
S'i31'
p130
sg13
Nsg14
(lp131
(i__main__
Token
p132
(dp133
g18
I190
sbasg19
I190
sbasg7
g89
sg83
Nsba(i__main__
Chain
p134
(dp135
g3
(lp136
(i__main__
Mention
p137
(dp138
g7
S't3'
p139
sg9
Nsg10
S'i4'
p140
sg12
Nsg13
Nsg14
(lp141
(i__main__
Token
p142
(dp143
g18
I26
sba(i__main__
Token
p144
(dp145
g18
I27
sbasg19
I27
sba(i__main__
Mention
p146
(dp147
g7
S't3'
p148
sg9
S'Coreference-Noun-Noun'
p149
sg10
S'i6'
p150
sg12
S'i4'
p151
sg13
Nsg14
(lp152
(i__main__
Token
p153
(dp154
g18
I31
sbasg19
I31
sba(i__main__
Mention
p155
(dp156
g7
S't3'
p157
sg9
S'Coreference-NounComplement'
p158
sg10
S'i7'
p159
sg12
S'i6'
p160
sg13
Nsg14
(lp161
(i__main__
Token
p162
(dp163
g18
I32
sbasg19
I32
sba(i__main__
Mention
p164
(dp165
g7
S't3'
p166
sg9
S'Anaphora-C'
p167
sg10
S'i14'
p168
sg12
S'i7'
p169
sg13
Nsg14
(lp170
(i__main__
Token
p171
(dp172
g18
I53
sbasg19
I53
sba(i__main__
Mention
p173
(dp174
g7
S't3'
p175
sg9
S'Coreference-Identity'
p176
sg10
S'i20'
p177
sg12
S'i14'
p178
sg13
Nsg14
(lp179
(i__main__
Token
p180
(dp181
g18
I78
sbasg19
I78
sba(i__main__
Mention
p182
(dp183
g7
S't3'
p184
sg9
S'Anaphora-C'
p185
sg10
S'i32'
p186
sg12
S'i20'
p187
sg13
Nsg14
(lp188
(i__main__
Token
p189
(dp190
g18
I131
sbasg19
I131
sba(i__main__
Mention
p191
(dp192
g7
S't3'
p193
sg9
S'Anaphora-C'
p194
sg10
S'i33'
p195
sg12
S'i32'
p196
sg13
Nsg14
(lp197
(i__main__
Token
p198
(dp199
g18
I146
sbasg19
I146
sba(i__main__
Mention
p200
(dp201
g7
S't3'
p202
sg9
S'Coreference-Identity'
p203
sg10
S'i40'
p204
sg12
S'i33'
p205
sg13
Nsg14
(lp206
(i__main__
Token
p207
(dp208
g18
I185
sbasg19
I185
sba(i__main__
Mention
p209
(dp210
g7
S't3'
p211
sg9
S'Anaphora-C'
p212
sg10
S'i46'
p213
sg12
S'i40'
p214
sg13
Nsg14
(lp215
(i__main__
Token
p216
(dp217
g18
I202
sbasg19
I202
sba(i__main__
Mention
p218
(dp219
g7
S't3'
p220
sg9
Nsg10
S'i51'
p221
sg12
Nsg13
Nsg14
(lp222
(i__main__
Token
p223
(dp224
g18
I218
sba(i__main__
Token
p225
(dp226
g18
I219
sbasg19
Nsba(i__main__
Mention
p227
(dp228
g7
S't3'
p229
sg9
S'Coreference-PartOf'
p230
sg10
S'i56'
p231
sg12
S'i51'
p232
sg13
Nsg14
(lp233
(i__main__
Token
p234
(dp235
g18
I242
sbasg19
I242
sbasg7
g139
sg83
Nsba(i__main__
Chain
p236
(dp237
g3
(lp238
(i__main__
Mention
p239
(dp240
g7
S't4'
p241
sg9
Nsg10
S'i5'
p242
sg12
Nsg13
Nsg14
(lp243
(i__main__
Token
p244
(dp245
g18
I29
sbasg19
I29
sba(i__main__
Mention
p246
(dp247
g7
S't4'
p248
sg9
S'Coreference-Identity'
p249
sg10
S'i37'
p250
sg12
S'i5'
p251
sg13
Nsg14
(lp252
(i__main__
Token
p253
(dp254
g18
I177
sbasg19
I177
sba(i__main__
Mention
p255
(dp256
g7
S't4'
p257
sg9
Nsg10
S'i49'
p258
sg12
Nsg13
Nsg14
(lp259
(i__main__
Token
p260
(dp261
g18
I215
sba(i__main__
Token
p262
(dp263
g18
I216
sbasg19
Nsba(i__main__
Mention
p264
(dp265
g7
S't4'
p266
sg9
S'Coreference-PartOf'
p267
sg10
S'i53'
p268
sg12
S'i49'
p269
sg13
Nsg14
(lp270
(i__main__
Token
p271
(dp272
g18
I223
sbasg19
I223
sbasg7
g241
sg83
Nsba(i__main__
Chain
p273
(dp274
g3
(lp275
(i__main__
Mention
p276
(dp277
g7
S't5'
p278
sg9
Nsg10
S'i8'
p279
sg12
Nsg13
Nsg14
(lp280
(i__main__
Token
p281
(dp282
g18
I34
sbasg19
I34
sba(i__main__
Mention
p283
(dp284
g7
S't5'
p285
sg9
Nsg10
S'i50'
p286
sg12
Nsg13
Nsg14
(lp287
(i__main__
Token
p288
(dp289
g18
I215
sba(i__main__
Token
p290
(dp291
g18
I216
sbasg19
Nsba(i__main__
Mention
p292
(dp293
g7
S't5'
p294
sg9
S'Coreference-PartOf'
p295
sg10
S'i54'
p296
sg12
S'i50'
p297
sg13
Nsg14
(lp298
(i__main__
Token
p299
(dp300
g18
I225
sbasg19
I225
sba(i__main__
Mention
p301
(dp302
g7
S't5'
p303
sg9
S'Coreference-Identity'
p304
sg10
S'i64'
p305
sg12
S'i54'
p306
sg13
Nsg14
(lp307
(i__main__
Token
p308
(dp309
g18
I264
sbasg19
I264
sbasg7
g278
sg83
Nsba(i__main__
Chain
p310
(dp311
g3
(lp312
(i__main__
Mention
p313
(dp314
g7
S't6'
p315
sg9
Nsg10
S'i9'
p316
sg12
Nsg13
Nsg14
(lp317
(i__main__
Token
p318
(dp319
g18
I36
sbasg19
I36
sba(i__main__
Mention
p320
(dp321
g7
S't6'
p322
sg9
S'Coreference-NounComplement'
p323
sg10
S'i11'
p324
sg12
S'i9'
p325
sg13
Nsg14
(lp326
(i__main__
Token
p327
(dp328
g18
I37
sba(i__main__
Token
p329
(dp330
g18
I38
sbasg19
I38
sba(i__main__
Mention
p331
(dp332
g7
S't6'
p333
sg9
S'Coreference-Identity'
p334
sg10
S'i47'
p335
sg12
S'i11'
p336
sg13
Nsg14
(lp337
(i__main__
Token
p338
(dp339
g18
I211
sbasg19
I211
sbasg7
g315
sg83
Nsba(i__main__
Chain
p340
(dp341
g3
(lp342
(i__main__
Mention
p343
(dp344
g7
S't7'
p345
sg9
Nsg10
S'i10'
p346
sg12
Nsg13
Nsg14
(lp347
(i__main__
Token
p348
(dp349
g18
I40
sba(i__main__
Token
p350
(dp351
g18
I41
sba(i__main__
Token
p352
(dp353
g18
I42
sbasg19
I42
sba(i__main__
Mention
p354
(dp355
g7
S't7'
p356
sg9
S'Coreference-NounComplement'
p357
sg10
S'i12'
p358
sg12
S'i10'
p359
sg13
Nsg14
(lp360
(i__main__
Token
p361
(dp362
g18
I43
sbasg19
I43
sba(i__main__
Mention
p363
(dp364
g7
S't7'
p365
sg9
S'Coreference-Identity'
p366
sg10
S'i48'
p367
sg12
S'i12'
p368
sg13
Nsg14
(lp369
(i__main__
Token
p370
(dp371
g18
I213
sbasg19
I213
sbasg7
g345
sg83
Nsba(i__main__
Chain
p372
(dp373
g3
(lp374
(i__main__
Mention
p375
(dp376
g7
S't8'
p377
sg9
Nsg10
S'i13'
p378
sg12
Nsg13
Nsg14
(lp379
(i__main__
Token
p380
(dp381
g18
I48
sbasg19
I48
sbasg7
g377
sg83
Nsba(i__main__
Chain
p382
(dp383
g3
(lp384
(i__main__
Mention
p385
(dp386
g7
S't9'
p387
sg9
Nsg10
S'i15'
p388
sg12
Nsg13
Nsg14
(lp389
(i__main__
Token
p390
(dp391
g18
I60
sbasg19
I60
sbasg7
g387
sg83
Nsba(i__main__
Chain
p392
(dp393
g3
(lp394
(i__main__
Mention
p395
(dp396
g7
S't10'
p397
sg9
Nsg10
S'i16'
p398
sg12
Nsg13
Nsg14
(lp399
(i__main__
Token
p400
(dp401
g18
I61
sbasg19
I61
sba(i__main__
Mention
p402
(dp403
g7
S't10'
p404
sg9
S'Anaphora-RE'
p405
sg10
S'i19'
p406
sg12
S'i16'
p407
sg13
Nsg14
(lp408
(i__main__
Token
p409
(dp410
g18
I69
sba(i__main__
Token
p411
(dp412
g18
I70
sba(i__main__
Token
p413
(dp414
g18
I71
sba(i__main__
Token
p415
(dp416
g18
I72
sba(i__main__
Token
p417
(dp418
g18
I73
sba(i__main__
Token
p419
(dp420
g18
I74
sba(i__main__
Token
p421
(dp422
g18
I75
sba(i__main__
Token
p423
(dp424
g18
I76
sbasg19
I73
sbasg7
g397
sg83
Nsba(i__main__
Chain
p425
(dp426
g3
(lp427
(i__main__
Mention
p428
(dp429
g7
S't11'
p430
sg9
Nsg10
S'i17'
p431
sg12
Nsg13
Nsg14
(lp432
(i__main__
Token
p433
(dp434
g18
I62
sba(i__main__
Token
p435
(dp436
g18
I63
sbasg19
I63
sba(i__main__
Mention
p437
(dp438
g7
S't11'
p439
sg9
S'Anaphora-C'
p440
sg10
S'i18'
p441
sg12
S'i17'
p442
sg13
Nsg14
(lp443
(i__main__
Token
p444
(dp445
g18
I68
sbasg19
I68
sba(i__main__
Mention
p446
(dp447
g7
S't11'
p448
sg9
S'Coreference-Identity'
p449
sg10
S'i27'
p450
sg12
S'i18'
p451
sg13
Nsg14
(lp452
(i__main__
Token
p453
(dp454
g18
I108
sbasg19
I108
sbasg7
g430
sg83
Nsba(i__main__
Chain
p455
(dp456
g3
(lp457
(i__main__
Mention
p458
(dp459
g7
S't12'
p460
sg9
Nsg10
S'i23'
p461
sg12
Nsg13
Nsg14
(lp462
(i__main__
Token
p463
(dp464
g18
I84
sba(i__main__
Token
p465
(dp466
g18
I85
sbasg19
I85
sba(i__main__
Mention
p467
(dp468
g7
S't12'
p469
sg9
S'Anaphora-C'
p470
sg10
S'i30'
p471
sg12
S'i23'
p472
sg13
Nsg14
(lp473
(i__main__
Token
p474
(dp475
g18
I116
sbasg19
I116
sbasg7
g460
sg83
Nsba(i__main__
Chain
p476
(dp477
g3
(lp478
(i__main__
Mention
p479
(dp480
g7
S't13'
p481
sg9
Nsg10
S'i25'
p482
sg12
Nsg13
Nsg14
(lp483
(i__main__
Token
p484
(dp485
g18
I101
sbasg19
I101
sba(i__main__
Mention
p486
(dp487
g7
S't13'
p488
sg9
S'Anaphora-C'
p489
sg10
S'i26'
p490
sg12
S'i25'
p491
sg13
Nsg14
(lp492
(i__main__
Token
p493
(dp494
g18
I107
sbasg19
I107
sbasg7
g481
sg83
Nsba(i__main__
Chain
p495
(dp496
g3
(lp497
(i__main__
Mention
p498
(dp499
g7
S't14'
p500
sg9
Nsg10
S'i34'
p501
sg12
Nsg13
Nsg14
(lp502
(i__main__
Token
p503
(dp504
g18
I155
sbasg19
I155
sba(i__main__
Mention
p505
(dp506
g7
S't14'
p507
sg9
S'Anaphora-C'
p508
sg10
S'i35'
p509
sg12
S'i34'
p510
sg13
Nsg14
(lp511
(i__main__
Token
p512
(dp513
g18
I160
sbasg19
I160
sba(i__main__
Mention
p514
(dp515
g7
S't14'
p516
sg9
S'Anaphora-C'
p517
sg10
S'i36'
p518
sg12
S'i35'
p519
sg13
Nsg14
(lp520
(i__main__
Token
p521
(dp522
g18
I172
sbasg19
I172
sbasg7
g500
sg83
Nsba(i__main__
Chain
p523
(dp524
g3
(lp525
(i__main__
Mention
p526
(dp527
g7
S't15'
p528
sg9
Nsg10
S'i38'
p529
sg12
Nsg13
Nsg14
(lp530
(i__main__
Token
p531
(dp532
g18
I179
sbasg19
I179
sba(i__main__
Mention
p533
(dp534
g7
S't15'
p535
sg9
S'Coreference-NounComplement'
p536
sg10
S'i39'
p537
sg12
S'i38'
p538
sg13
Nsg14
(lp539
(i__main__
Token
p540
(dp541
g18
I180
sbasg19
I180
sba(i__main__
Mention
p542
(dp543
g7
S't15'
p544
sg9
S'Anaphora-C'
p545
sg10
S'i41'
p546
sg12
S'i39'
p547
sg13
Nsg14
(lp548
(i__main__
Token
p549
(dp550
g18
I189
sbasg19
I189
sba(i__main__
Mention
p551
(dp552
g7
S't15'
p553
sg9
S'Anaphora-C'
p554
sg10
S'i43'
p555
sg12
S'i41'
p556
sg13
Nsg14
(lp557
(i__main__
Token
p558
(dp559
g18
I197
sbasg19
I197
sbasg7
g528
sg83
Nsba(i__main__
Chain
p560
(dp561
g3
(lp562
(i__main__
Mention
p563
(dp564
g7
S't16'
p565
sg9
Nsg10
S'i44'
p566
sg12
Nsg13
Nsg14
(lp567
(i__main__
Token
p568
(dp569
g18
I198
sbasg19
I198
sbasg7
g565
sg83
Nsba(i__main__
Chain
p570
(dp571
g3
(lp572
(i__main__
Mention
p573
(dp574
g7
S't17'
p575
sg9
Nsg10
S'i45'
p576
sg12
Nsg13
Nsg14
(lp577
(i__main__
Token
p578
(dp579
g18
I200
sbasg19
I200
sbasg7
g575
sg83
Nsba(i__main__
Chain
p580
(dp581
g3
(lp582
(i__main__
Mention
p583
(dp584
g7
S't18'
p585
sg9
Nsg10
S'i52'
p586
sg12
Nsg13
Nsg14
(lp587
(i__main__
Token
p588
(dp589
g18
I218
sba(i__main__
Token
p590
(dp591
g18
I219
sbasg19
Nsba(i__main__
Mention
p592
(dp593
g7
S't18'
p594
sg9
S'Coreference-PartOf'
p595
sg10
S'i63'
p596
sg12
S'i52'
p597
sg13
Nsg14
(lp598
(i__main__
Token
p599
(dp600
g18
I266
sbasg19
I266
sba(i__main__
Mention
p601
(dp602
g7
S't18'
p603
sg9
S'Coreference-NounComplement'
p604
sg10
S'i65'
p605
sg12
S'i63'
p606
sg13
Nsg14
(lp607
(i__main__
Token
p608
(dp609
g18
I267
sba(i__main__
Token
p610
(dp611
g18
I268
sba(i__main__
Token
p612
(dp613
g18
I269
sbasg19
I269
sbasg7
g585
sg83
Nsba(i__main__
Chain
p614
(dp615
g3
(lp616
(i__main__
Mention
p617
(dp618
g7
S't19'
p619
sg9
Nsg10
S'i58'
p620
sg12
Nsg13
Nsg14
(lp621
(i__main__
Token
p622
(dp623
g18
I244
sba(i__main__
Token
p624
(dp625
g18
I245
sba(i__main__
Token
p626
(dp627
g18
I246
sba(i__main__
Token
p628
(dp629
g18
I247
sba(i__main__
Token
p630
(dp631
g18
I248
sba(i__main__
Token
p632
(dp633
g18
I249
sbasg19
I249
sba(i__main__
Mention
p634
(dp635
g7
S't19'
p636
sg9
S'Coreference-Noun-Noun'
p637
sg10
S'i62'
p638
sg12
S'i58'
p639
sg13
Nsg14
(lp640
(i__main__
Token
p641
(dp642
g18
I255
sbasg19
I255
sbasg7
g619
sg83
Nsba(i__main__
Chain
p643
(dp644
g3
(lp645
(i__main__
Mention
p646
(dp647
g7
S't20'
p648
sg9
Nsg10
S'i60'
p649
sg12
Nsg13
Nsg14
(lp650
(i__main__
Token
p651
(dp652
g18
I252
sbasg19
I252
sba(i__main__
Mention
p653
(dp654
g7
S't20'
p655
sg9
S'Coreference-NounComplement'
p656
sg10
S'i61'
p657
sg12
S'i60'
p658
sg13
Nsg14
(lp659
(i__main__
Token
p660
(dp661
g18
I253
sbasg19
I253
sbasg7
g648
sg83
Nsba.