(lp0
(i__main__
Chain
p1
(dp2
S'mentionList'
p3
(lp4
(i__main__
Mention
p5
(dp6
S'chainId'
p7
S't1'
p8
sS'relType'
p9
NsS'mentionId'
p10
S'i1'
p11
sS'antecedentId'
p12
NsS'crefMod'
p13
NsS'tokenList'
p14
(lp15
(i__main__
Token
p16
(dp17
S'tokenId'
p18
I0
sbasS'mentionHead'
p19
I0
sba(i__main__
Mention
p20
(dp21
g7
S't1'
p22
sg9
S'Coreference-Identity'
p23
sg10
S'i14'
p24
sg12
S'i1'
p25
sg13
Nsg14
(lp26
(i__main__
Token
p27
(dp28
g18
I62
sbasg19
I62
sba(i__main__
Mention
p29
(dp30
g7
S't1'
p31
sg9
S'Coreference-Identity'
p32
sg10
S'i28'
p33
sg12
S'i14'
p34
sg13
Nsg14
(lp35
(i__main__
Token
p36
(dp37
g18
I128
sbasg19
I128
sbasg7
g8
sS'chainHead'
p38
Nsba(i__main__
Chain
p39
(dp40
g3
(lp41
(i__main__
Mention
p42
(dp43
g7
S't2'
p44
sg9
Nsg10
S'i2'
p45
sg12
Nsg13
Nsg14
(lp46
(i__main__
Token
p47
(dp48
g18
I2
sba(i__main__
Token
p49
(dp50
g18
I3
sba(i__main__
Token
p51
(dp52
g18
I4
sbasg19
I4
sba(i__main__
Mention
p53
(dp54
g7
S't2'
p55
sg9
S'Coreference-NounComplement'
p56
sg10
S'i3'
p57
sg12
S'i2'
p58
sg13
Nsg14
(lp59
(i__main__
Token
p60
(dp61
g18
I6
sbasg19
I6
sba(i__main__
Mention
p62
(dp63
g7
S't2'
p64
sg9
S'Coreference-Identity'
p65
sg10
S'i4'
p66
sg12
S'i3'
p67
sg13
Nsg14
(lp68
(i__main__
Token
p69
(dp70
g18
I8
sbasg19
I8
sba(i__main__
Mention
p71
(dp72
g7
S't2'
p73
sg9
S'Anaphora-C'
p74
sg10
S'i7'
p75
sg12
S'i4'
p76
sg13
Nsg14
(lp77
(i__main__
Token
p78
(dp79
g18
I24
sbasg19
I24
sba(i__main__
Mention
p80
(dp81
g7
S't2'
p82
sg9
S'Anaphora-C'
p83
sg10
S'i10'
p84
sg12
S'i7'
p85
sg13
Nsg14
(lp86
(i__main__
Token
p87
(dp88
g18
I34
sbasg19
I34
sba(i__main__
Mention
p89
(dp90
g7
S't2'
p91
sg9
S'Anaphora-C'
p92
sg10
S'i12'
p93
sg12
S'i10'
p94
sg13
Nsg14
(lp95
(i__main__
Token
p96
(dp97
g18
I45
sbasg19
I45
sba(i__main__
Mention
p98
(dp99
g7
S't2'
p100
sg9
S'Anaphora-C'
p101
sg10
S'i13'
p102
sg12
S'i12'
p103
sg13
Nsg14
(lp104
(i__main__
Token
p105
(dp106
g18
I51
sbasg19
I51
sba(i__main__
Mention
p107
(dp108
g7
S't2'
p109
sg9
S'Coreference-Noun-Noun'
p110
sg10
S'i17'
p111
sg12
S'i13'
p112
sg13
Nsg14
(lp113
(i__main__
Token
p114
(dp115
g18
I69
sba(i__main__
Token
p116
(dp117
g18
I70
sba(i__main__
Token
p118
(dp119
g18
I71
sba(i__main__
Token
p120
(dp121
g18
I72
sba(i__main__
Token
p122
(dp123
g18
I73
sba(i__main__
Token
p124
(dp125
g18
I75
sbasg19
I75
sba(i__main__
Mention
p126
(dp127
g7
S't2'
p128
sg9
S'Coreference-Noun-Noun'
p129
sg10
S'i19'
p130
sg12
S'i17'
p131
sg13
Nsg14
(lp132
(i__main__
Token
p133
(dp134
g18
I81
sbasg19
I81
sba(i__main__
Mention
p135
(dp136
g7
S't2'
p137
sg9
S'Coreference-Identity'
p138
sg10
S'i22'
p139
sg12
S'i19'
p140
sg13
Nsg14
(lp141
(i__main__
Token
p142
(dp143
g18
I103
sbasg19
I103
sba(i__main__
Mention
p144
(dp145
g7
S't2'
p146
sg9
S'Anaphora-C'
p147
sg10
S'i24'
p148
sg12
S'i22'
p149
sg13
Nsg14
(lp150
(i__main__
Token
p151
(dp152
g18
I111
sbasg19
I111
sba(i__main__
Mention
p153
(dp154
g7
S't2'
p155
sg9
S'Anaphora-C'
p156
sg10
S'i26'
p157
sg12
S'i24'
p158
sg13
Nsg14
(lp159
(i__main__
Token
p160
(dp161
g18
I123
sbasg19
I123
sba(i__main__
Mention
p162
(dp163
g7
S't2'
p164
sg9
S'Anaphora-C'
p165
sg10
S'i27'
p166
sg12
S'i26'
p167
sg13
Nsg14
(lp168
(i__main__
Token
p169
(dp170
g18
I127
sbasg19
I127
sba(i__main__
Mention
p171
(dp172
g7
S't2'
p173
sg9
S'Coreference-Noun-Noun'
p174
sg10
S'i31'
p175
sg12
S'i27'
p176
sg13
Nsg14
(lp177
(i__main__
Token
p178
(dp179
g18
I139
sba(i__main__
Token
p180
(dp181
g18
I140
sba(i__main__
Token
p182
(dp183
g18
I141
sbasg19
I141
sba(i__main__
Mention
p184
(dp185
g7
S't2'
p186
sg9
S'Coreference-Noun-Noun'
p187
sg10
S'i33'
p188
sg12
S'i31'
p189
sg13
Nsg14
(lp190
(i__main__
Token
p191
(dp192
g18
I153
sbasg19
I153
sba(i__main__
Mention
p193
(dp194
g7
S't2'
p195
sg9
S'Coreference-Identity'
p196
sg10
S'i34'
p197
sg12
S'i33'
p198
sg13
Nsg14
(lp199
(i__main__
Token
p200
(dp201
g18
I162
sbasg19
I162
sba(i__main__
Mention
p202
(dp203
g7
S't2'
p204
sg9
S'Anaphora-C'
p205
sg10
S'i37'
p206
sg12
S'i34'
p207
sg13
Nsg14
(lp208
(i__main__
Token
p209
(dp210
g18
I173
sbasg19
I173
sba(i__main__
Mention
p211
(dp212
g7
S't2'
p213
sg9
S'Anaphora-C'
p214
sg10
S'i39'
p215
sg12
S'i37'
p216
sg13
Nsg14
(lp217
(i__main__
Token
p218
(dp219
g18
I188
sbasg19
I188
sba(i__main__
Mention
p220
(dp221
g7
S't2'
p222
sg9
S'Anaphora-C'
p223
sg10
S'i41'
p224
sg12
S'i39'
p225
sg13
Nsg14
(lp226
(i__main__
Token
p227
(dp228
g18
I201
sbasg19
I201
sba(i__main__
Mention
p229
(dp230
g7
S't2'
p231
sg9
S'Anaphora-C'
p232
sg10
S'i42'
p233
sg12
S'i41'
p234
sg13
Nsg14
(lp235
(i__main__
Token
p236
(dp237
g18
I202
sbasg19
I202
sba(i__main__
Mention
p238
(dp239
g7
S't2'
p240
sg9
S'Anaphora-C'
p241
sg10
S'i44'
p242
sg12
S'i42'
p243
sg13
Nsg14
(lp244
(i__main__
Token
p245
(dp246
g18
I221
sbasg19
I221
sba(i__main__
Mention
p247
(dp248
g7
S't2'
p249
sg9
S'Anaphora-C'
p250
sg10
S'i47'
p251
sg12
S'i44'
p252
sg13
Nsg14
(lp253
(i__main__
Token
p254
(dp255
g18
I241
sbasg19
I241
sba(i__main__
Mention
p256
(dp257
g7
S't2'
p258
sg9
S'Coreference-Identity'
p259
sg10
S'i48'
p260
sg12
S'i47'
p261
sg13
Nsg14
(lp262
(i__main__
Token
p263
(dp264
g18
I254
sbasg19
I254
sba(i__main__
Mention
p265
(dp266
g7
S't2'
p267
sg9
S'Anaphora-C'
p268
sg10
S'i50'
p269
sg12
S'i48'
p270
sg13
Nsg14
(lp271
(i__main__
Token
p272
(dp273
g18
I265
sbasg19
I265
sba(i__main__
Mention
p274
(dp275
g7
S't2'
p276
sg9
S'Anaphora-C'
p277
sg10
S'i51'
p278
sg12
S'i50'
p279
sg13
Nsg14
(lp280
(i__main__
Token
p281
(dp282
g18
I273
sbasg19
I273
sba(i__main__
Mention
p283
(dp284
g7
S't2'
p285
sg9
S'Anaphora-C'
p286
sg10
S'i52'
p287
sg12
S'i51'
p288
sg13
Nsg14
(lp289
(i__main__
Token
p290
(dp291
g18
I279
sbasg19
I279
sba(i__main__
Mention
p292
(dp293
g7
S't2'
p294
sg9
S'Anaphora-C'
p295
sg10
S'i53'
p296
sg12
S'i52'
p297
sg13
Nsg14
(lp298
(i__main__
Token
p299
(dp300
g18
I284
sbasg19
I284
sba(i__main__
Mention
p301
(dp302
g7
S't2'
p303
sg9
S'Coreference-Identity'
p304
sg10
S'i54'
p305
sg12
S'i53'
p306
sg13
Nsg14
(lp307
(i__main__
Token
p308
(dp309
g18
I298
sbasg19
I298
sba(i__main__
Mention
p310
(dp311
g7
S't2'
p312
sg9
S'Coreference-Identity'
p313
sg10
S'i56'
p314
sg12
S'i54'
p315
sg13
Nsg14
(lp316
(i__main__
Token
p317
(dp318
g18
I316
sbasg19
I316
sba(i__main__
Mention
p319
(dp320
g7
S't2'
p321
sg9
S'Anaphora-C'
p322
sg10
S'i59'
p323
sg12
S'i56'
p324
sg13
Nsg14
(lp325
(i__main__
Token
p326
(dp327
g18
I329
sbasg19
I329
sba(i__main__
Mention
p328
(dp329
g7
S't2'
p330
sg9
S'Coreference-Identity'
p331
sg10
S'i62'
p332
sg12
S'i59'
p333
sg13
Nsg14
(lp334
(i__main__
Token
p335
(dp336
g18
I346
sbasg19
I346
sba(i__main__
Mention
p337
(dp338
g7
S't2'
p339
sg9
S'Anaphora-C'
p340
sg10
S'i63'
p341
sg12
S'i62'
p342
sg13
Nsg14
(lp343
(i__main__
Token
p344
(dp345
g18
I354
sbasg19
I354
sba(i__main__
Mention
p346
(dp347
g7
S't2'
p348
sg9
S'Coreference-Identity'
p349
sg10
S'i66'
p350
sg12
S'i63'
p351
sg13
Nsg14
(lp352
(i__main__
Token
p353
(dp354
g18
I374
sbasg19
I374
sba(i__main__
Mention
p355
(dp356
g7
S't2'
p357
sg9
S'Anaphora-C'
p358
sg10
S'i69'
p359
sg12
S'i66'
p360
sg13
Nsg14
(lp361
(i__main__
Token
p362
(dp363
g18
I391
sbasg19
I391
sba(i__main__
Mention
p364
(dp365
g7
S't2'
p366
sg9
S'Anaphora-C'
p367
sg10
S'i70'
p368
sg12
S'i69'
p369
sg13
Nsg14
(lp370
(i__main__
Token
p371
(dp372
g18
I392
sbasg19
I392
sba(i__main__
Mention
p373
(dp374
g7
S't2'
p375
sg9
S'Anaphora-C'
p376
sg10
S'i72'
p377
sg12
S'i70'
p378
sg13
Nsg14
(lp379
(i__main__
Token
p380
(dp381
g18
I407
sbasg19
I407
sbasg7
g44
sg38
Nsba(i__main__
Chain
p382
(dp383
g3
(lp384
(i__main__
Mention
p385
(dp386
g7
S't3'
p387
sg9
Nsg10
S'i5'
p388
sg12
Nsg13
Nsg14
(lp389
(i__main__
Token
p390
(dp391
g18
I14
sbasg19
I14
sba(i__main__
Mention
p392
(dp393
g7
S't3'
p394
sg9
S'Coreference-Identity'
p395
sg10
S'i18'
p396
sg12
S'i5'
p397
sg13
Nsg14
(lp398
(i__main__
Token
p399
(dp400
g18
I78
sbasg19
I78
sba(i__main__
Mention
p401
(dp402
g7
S't3'
p403
sg9
S'Coreference-Identity'
p404
sg10
S'i55'
p405
sg12
S'i18'
p406
sg13
Nsg14
(lp407
(i__main__
Token
p408
(dp409
g18
I311
sbasg19
I311
sba(i__main__
Mention
p410
(dp411
g7
S't3'
p412
sg9
S'Coreference-Identity'
p413
sg10
S'i67'
p414
sg12
S'i55'
p415
sg13
Nsg14
(lp416
(i__main__
Token
p417
(dp418
g18
I384
sbasg19
I384
sbasg7
g387
sg38
Nsba(i__main__
Chain
p419
(dp420
g3
(lp421
(i__main__
Mention
p422
(dp423
g7
S't4'
p424
sg9
S'anaphora-?'
p425
sg10
S'i6'
p426
sg12
S'i6'
p427
sg13
Nsg14
(lp428
(i__main__
Token
p429
(dp430
g18
I22
sbasg19
I22
sbasg7
g424
sg38
Nsba(i__main__
Chain
p431
(dp432
g3
(lp433
(i__main__
Mention
p434
(dp435
g7
S't5'
p436
sg9
Nsg10
S'i8'
p437
sg12
Nsg13
Nsg14
(lp438
(i__main__
Token
p439
(dp440
g18
I25
sbasg19
I25
sba(i__main__
Mention
p441
(dp442
g7
S't5'
p443
sg9
S'Anaphora-C'
p444
sg10
S'i9'
p445
sg12
S'i8'
p446
sg13
Nsg14
(lp447
(i__main__
Token
p448
(dp449
g18
I29
sbasg19
I29
sbasg7
g436
sg38
Nsba(i__main__
Chain
p450
(dp451
g3
(lp452
(i__main__
Mention
p453
(dp454
g7
S't6'
p455
sg9
S'anaphora-?'
p456
sg10
S'i11'
p457
sg12
S'i11'
p458
sg13
Nsg14
(lp459
(i__main__
Token
p460
(dp461
g18
I41
sbasg19
I41
sbasg7
g455
sg38
Nsba(i__main__
Chain
p462
(dp463
g3
(lp464
(i__main__
Mention
p465
(dp466
g7
S't7'
p467
sg9
Nsg10
S'i15'
p468
sg12
Nsg13
Nsg14
(lp469
(i__main__
Token
p470
(dp471
g18
I64
sbasg19
I64
sba(i__main__
Mention
p472
(dp473
g7
S't7'
p474
sg9
S'Coreference-Apposition'
p475
sg10
S'i16'
p476
sg12
S'i15'
p477
sg13
Nsg14
(lp478
(i__main__
Token
p479
(dp480
g18
I65
sba(i__main__
Token
p481
(dp482
g18
I66
sbasg19
I66
sba(i__main__
Mention
p483
(dp484
g7
S't7'
p485
sg9
S'Coreference-Noun-Noun'
p486
sg10
S'i32'
p487
sg12
S'i16'
p488
sg13
Nsg14
(lp489
(i__main__
Token
p490
(dp491
g18
I146
sbasg19
I146
sba(i__main__
Mention
p492
(dp493
g7
S't7'
p494
sg9
S'Coreference-Identity'
p495
sg10
S'i57'
p496
sg12
S'i32'
p497
sg13
Nsg14
(lp498
(i__main__
Token
p499
(dp500
g18
I326
sbasg19
I326
sba(i__main__
Mention
p501
(dp502
g7
S't7'
p503
sg9
S'Coreference-Identity'
p504
sg10
S'i65'
p505
sg12
S'i57'
p506
sg13
Nsg14
(lp507
(i__main__
Token
p508
(dp509
g18
I364
sbasg19
I364
sbasg7
g467
sg38
Nsba(i__main__
Chain
p510
(dp511
g3
(lp512
(i__main__
Mention
p513
(dp514
g7
S't8'
p515
sg9
Nsg10
S'i20'
p516
sg12
Nsg13
Nsg14
(lp517
(i__main__
Token
p518
(dp519
g18
I84
sba(i__main__
Token
p520
(dp521
g18
I85
sbasg19
I85
sba(i__main__
Mention
p522
(dp523
g7
S't8'
p524
sg9
S'Anaphora-C'
p525
sg10
S'i21'
p526
sg12
S'i20'
p527
sg13
Nsg14
(lp528
(i__main__
Token
p529
(dp530
g18
I91
sbasg19
I91
sbasg7
g515
sg38
Nsba(i__main__
Chain
p531
(dp532
g3
(lp533
(i__main__
Mention
p534
(dp535
g7
S't9'
p536
sg9
S'anaphora-?'
p537
sg10
S'i23'
p538
sg12
S'i23'
p539
sg13
Nsg14
(lp540
(i__main__
Token
p541
(dp542
g18
I105
sbasg19
I105
sbasg7
g536
sg38
Nsba(i__main__
Chain
p543
(dp544
g3
(lp545
(i__main__
Mention
p546
(dp547
g7
S't10'
p548
sg9
S'anaphora-?'
p549
sg10
S'i25'
p550
sg12
S'i25'
p551
sg13
Nsg14
(lp552
(i__main__
Token
p553
(dp554
g18
I112
sbasg19
I112
sbasg7
g548
sg38
Nsba(i__main__
Chain
p555
(dp556
g3
(lp557
(i__main__
Mention
p558
(dp559
g7
S't11'
p560
sg9
Nsg10
S'i29'
p561
sg12
Nsg13
Nsg14
(lp562
(i__main__
Token
p563
(dp564
g18
I130
sba(i__main__
Token
p565
(dp566
g18
I131
sba(i__main__
Token
p567
(dp568
g18
I132
sba(i__main__
Token
p569
(dp570
g18
I133
sba(i__main__
Token
p571
(dp572
g18
I134
sbasg19
I134
sba(i__main__
Mention
p573
(dp574
g7
S't11'
p575
sg9
S'Coreference-Bracketed/Abbraviation'
p576
sg10
S'i30'
p577
sg12
S'i29'
p578
sg13
Nsg14
(lp579
(i__main__
Token
p580
(dp581
g18
I136
sbasg19
I136
sbasg7
g560
sg38
Nsba(i__main__
Chain
p582
(dp583
g3
(lp584
(i__main__
Mention
p585
(dp586
g7
S't12'
p587
sg9
Nsg10
S'i35'
p588
sg12
Nsg13
Nsg14
(lp589
(i__main__
Token
p590
(dp591
g18
I164
sba(i__main__
Token
p592
(dp593
g18
I165
sbasg19
I165
sba(i__main__
Mention
p594
(dp595
g7
S't12'
p596
sg9
S'Anaphora-C'
p597
sg10
S'i36'
p598
sg12
S'i35'
p599
sg13
Nsg14
(lp600
(i__main__
Token
p601
(dp602
g18
I170
sbasg19
I170
sbasg7
g587
sg38
Nsba(i__main__
Chain
p603
(dp604
g3
(lp605
(i__main__
Mention
p606
(dp607
g7
S't13'
p608
sg9
S'anaphora-?'
p609
sg10
S'i38'
p610
sg12
S'i38'
p611
sg13
Nsg14
(lp612
(i__main__
Token
p613
(dp614
g18
I182
sbasg19
I182
sbasg7
g608
sg38
Nsba(i__main__
Chain
p615
(dp616
g3
(lp617
(i__main__
Mention
p618
(dp619
g7
S't14'
p620
sg9
S'anaphora-?'
p621
sg10
S'i40'
p622
sg12
S'i40'
p623
sg13
Nsg14
(lp624
(i__main__
Token
p625
(dp626
g18
I200
sbasg19
I200
sbasg7
g620
sg38
Nsba(i__main__
Chain
p627
(dp628
g3
(lp629
(i__main__
Mention
p630
(dp631
g7
S't15'
p632
sg9
Nsg10
S'i43'
p633
sg12
Nsg13
Nsg14
(lp634
(i__main__
Token
p635
(dp636
g18
I213
sbasg19
I213
sba(i__main__
Mention
p637
(dp638
g7
S't15'
p639
sg9
S'Coreference-Identity'
p640
sg10
S'i49'
p641
sg12
S'i43'
p642
sg13
Nsg14
(lp643
(i__main__
Token
p644
(dp645
g18
I258
sbasg19
I258
sba(i__main__
Mention
p646
(dp647
g7
S't15'
p648
sg9
S'Coreference-Identity'
p649
sg10
S'i58'
p650
sg12
S'i49'
p651
sg13
Nsg14
(lp652
(i__main__
Token
p653
(dp654
g18
I326
sba(i__main__
Token
p655
(dp656
g18
I327
sbasg19
I327
sba(i__main__
Mention
p657
(dp658
g7
S't15'
p659
sg9
S'Anaphora-C'
p660
sg10
S'i60'
p661
sg12
S'i58'
p662
sg13
Nsg14
(lp663
(i__main__
Token
p664
(dp665
g18
I333
sbasg19
I333
sba(i__main__
Mention
p666
(dp667
g7
S't15'
p668
sg9
S'Coreference-Identity'
p669
sg10
S'i61'
p670
sg12
S'i60'
p671
sg13
Nsg14
(lp672
(i__main__
Token
p673
(dp674
g18
I342
sbasg19
I342
sbasg7
g632
sg38
Nsba(i__main__
Chain
p675
(dp676
g3
(lp677
(i__main__
Mention
p678
(dp679
g7
S't16'
p680
sg9
Nsg10
S'i45'
p681
sg12
Nsg13
Nsg14
(lp682
(i__main__
Token
p683
(dp684
g18
I233
sba(i__main__
Token
p685
(dp686
g18
I234
sbasg19
I234
sba(i__main__
Mention
p687
(dp688
g7
S't16'
p689
sg9
S'Anaphora-C'
p690
sg10
S'i46'
p691
sg12
S'i45'
p692
sg13
Nsg14
(lp693
(i__main__
Token
p694
(dp695
g18
I238
sbasg19
I238
sbasg7
g680
sg38
Nsba(i__main__
Chain
p696
(dp697
g3
(lp698
(i__main__
Mention
p699
(dp700
g7
S't17'
p701
sg9
S'anaphora-?'
p702
sg10
S'i64'
p703
sg12
S'i64'
p704
sg13
Nsg14
(lp705
(i__main__
Token
p706
(dp707
g18
I361
sbasg19
I361
sbasg7
g701
sg38
Nsba(i__main__
Chain
p708
(dp709
g3
(lp710
(i__main__
Mention
p711
(dp712
g7
S't18'
p713
sg9
Nsg10
S'i68'
p714
sg12
Nsg13
Nsg14
(lp715
(i__main__
Token
p716
(dp717
g18
I388
sba(i__main__
Token
p718
(dp719
g18
I389
sbasg19
I389
sba(i__main__
Mention
p720
(dp721
g7
S't18'
p722
sg9
S'Anaphora-C'
p723
sg10
S'i71'
p724
sg12
S'i68'
p725
sg13
Nsg14
(lp726
(i__main__
Token
p727
(dp728
g18
I396
sbasg19
I396
sbasg7
g713
sg38
Nsba.