(lp0
(i__main__
Chain
p1
(dp2
S'mentionList'
p3
(lp4
(i__main__
Mention
p5
(dp6
S'chainId'
p7
S't1'
p8
sS'relType'
p9
NsS'mentionId'
p10
S'i1'
p11
sS'antecedentId'
p12
NsS'crefMod'
p13
NsS'tokenList'
p14
(lp15
(i__main__
Token
p16
(dp17
S'tokenId'
p18
I0
sbasS'mentionHead'
p19
I0
sba(i__main__
Mention
p20
(dp21
g7
S't1'
p22
sg9
S'Coreference-Identity'
p23
sg10
S'i10'
p24
sg12
S'i1'
p25
sg13
Nsg14
(lp26
(i__main__
Token
p27
(dp28
g18
I53
sbasg19
I53
sba(i__main__
Mention
p29
(dp30
g7
S't1'
p31
sg9
S'Coreference-Identity'
p32
sg10
S'i12'
p33
sg12
S'i10'
p34
sg13
Nsg14
(lp35
(i__main__
Token
p36
(dp37
g18
I74
sbasg19
I74
sba(i__main__
Mention
p38
(dp39
g7
S't1'
p40
sg9
S'Coreference-Identity'
p41
sg10
S'i41'
p42
sg12
S'i12'
p43
sg13
Nsg14
(lp44
(i__main__
Token
p45
(dp46
g18
I255
sbasg19
I255
sba(i__main__
Mention
p47
(dp48
g7
S't1'
p49
sg9
S'Coreference-Noun-Noun'
p50
sg10
S'i55'
p51
sg12
S'i41'
p52
sg13
Nsg14
(lp53
(i__main__
Token
p54
(dp55
g18
I358
sbasg19
I358
sbasg7
g8
sS'chainHead'
p56
Nsba(i__main__
Chain
p57
(dp58
g3
(lp59
(i__main__
Mention
p60
(dp61
g7
S't2'
p62
sg9
Nsg10
S'i2'
p63
sg12
Nsg13
Nsg14
(lp64
(i__main__
Token
p65
(dp66
g18
I2
sba(i__main__
Token
p67
(dp68
g18
I3
sbasg19
I3
sba(i__main__
Mention
p69
(dp70
g7
S't2'
p71
sg9
S'Coreference-Identity'
p72
sg10
S'i18'
p73
sg12
S'i2'
p74
sg13
Nsg14
(lp75
(i__main__
Token
p76
(dp77
g18
I102
sbasg19
I102
sba(i__main__
Mention
p78
(dp79
g7
S't2'
p80
sg9
S'Coreference-Identity'
p81
sg10
S'i57'
p82
sg12
S'i18'
p83
sg13
Nsg14
(lp84
(i__main__
Token
p85
(dp86
g18
I373
sba(i__main__
Token
p87
(dp88
g18
I374
sbasg19
I374
sbasg7
g62
sg56
Nsba(i__main__
Chain
p89
(dp90
g3
(lp91
(i__main__
Mention
p92
(dp93
g7
S't3'
p94
sg9
Nsg10
S'i3'
p95
sg12
Nsg13
Nsg14
(lp96
(i__main__
Token
p97
(dp98
g18
I5
sbasg19
Nsba(i__main__
Mention
p99
(dp100
g7
S't3'
p101
sg9
Nsg10
S'i6'
p102
sg12
Nsg13
Nsg14
(lp103
(i__main__
Token
p104
(dp105
g18
I23
sbasg19
Nsba(i__main__
Mention
p106
(dp107
g7
S't3'
p108
sg9
S'Coreference-Noun-Noun'
p109
sg10
S'i11'
p110
sg12
S'i6'
p111
sg13
Nsg14
(lp112
(i__main__
Token
p113
(dp114
g18
I62
sbasg19
I62
sba(i__main__
Mention
p115
(dp116
g7
S't3'
p117
sg9
S'Coreference-Identity'
p118
sg10
S'i15'
p119
sg12
S'i11'
p120
sg13
Nsg14
(lp121
(i__main__
Token
p122
(dp123
g18
I83
sbasg19
I83
sba(i__main__
Mention
p124
(dp125
g7
S't3'
p126
sg9
S'Anaphora-C'
p127
sg10
S'i17'
p128
sg12
S'i15'
p129
sg13
Nsg14
(lp130
(i__main__
Token
p131
(dp132
g18
I97
sbasg19
I97
sba(i__main__
Mention
p133
(dp134
g7
S't3'
p135
sg9
Nsg10
S'i20'
p136
sg12
Nsg13
Nsg14
(lp137
(i__main__
Token
p138
(dp139
g18
I112
sba(i__main__
Token
p140
(dp141
g18
I113
sbasg19
Nsba(i__main__
Mention
p142
(dp143
g7
S't3'
p144
sg9
S'Anaphora-C'
p145
sg10
S'i22'
p146
sg12
S'i20'
p147
sg13
Nsg14
(lp148
(i__main__
Token
p149
(dp150
g18
I129
sbasg19
I129
sba(i__main__
Mention
p151
(dp152
g7
S't3'
p153
sg9
S'Anaphora-C'
p154
sg10
S'i23'
p155
sg12
S'i22'
p156
sg13
Nsg14
(lp157
(i__main__
Token
p158
(dp159
g18
I130
sbasg19
I130
sba(i__main__
Mention
p160
(dp161
g7
S't3'
p162
sg9
Nsg10
S'i24'
p163
sg12
Nsg13
Nsg14
(lp164
(i__main__
Token
p165
(dp166
g18
I154
sbasg19
Nsba(i__main__
Mention
p167
(dp168
g7
S't3'
p169
sg9
Nsg10
S'i28'
p170
sg12
Nsg13
Nsg14
(lp171
(i__main__
Token
p172
(dp173
g18
I183
sbasg19
Nsba(i__main__
Mention
p174
(dp175
g7
S't3'
p176
sg9
Nsg10
S'i31'
p177
sg12
Nsg13
Nsg14
(lp178
(i__main__
Token
p179
(dp180
g18
I193
sbasg19
Nsbasg7
g94
sg56
Nsba(i__main__
Chain
p181
(dp182
g3
(lp183
(i__main__
Mention
p184
(dp185
g7
S't4'
p186
sg9
Nsg10
S'i4'
p187
sg12
Nsg13
Nsg14
(lp188
(i__main__
Token
p189
(dp190
g18
I5
sbasg19
Nsba(i__main__
Mention
p191
(dp192
g7
S't4'
p193
sg9
Nsg10
S'i7'
p194
sg12
Nsg13
Nsg14
(lp195
(i__main__
Token
p196
(dp197
g18
I23
sbasg19
Nsba(i__main__
Mention
p198
(dp199
g7
S't4'
p200
sg9
Nsg10
S'i19'
p201
sg12
Nsg13
Nsg14
(lp202
(i__main__
Token
p203
(dp204
g18
I112
sba(i__main__
Token
p205
(dp206
g18
I113
sbasg19
Nsba(i__main__
Mention
p207
(dp208
g7
S't4'
p209
sg9
Nsg10
S'i25'
p210
sg12
Nsg13
Nsg14
(lp211
(i__main__
Token
p212
(dp213
g18
I154
sbasg19
Nsba(i__main__
Mention
p214
(dp215
g7
S't4'
p216
sg9
Nsg10
S'i29'
p217
sg12
Nsg13
Nsg14
(lp218
(i__main__
Token
p219
(dp220
g18
I183
sbasg19
Nsba(i__main__
Mention
p221
(dp222
g7
S't4'
p223
sg9
Nsg10
S'i32'
p224
sg12
Nsg13
Nsg14
(lp225
(i__main__
Token
p226
(dp227
g18
I193
sbasg19
Nsba(i__main__
Mention
p228
(dp229
g7
S't4'
p230
sg9
Nsg10
S'i43'
p231
sg12
Nsg13
Nsg14
(lp232
(i__main__
Token
p233
(dp234
g18
I268
sbasg19
Nsba(i__main__
Mention
p235
(dp236
g7
S't4'
p237
sg9
Nsg10
S'i50'
p238
sg12
Nsg13
Nsg14
(lp239
(i__main__
Token
p240
(dp241
g18
I325
sbasg19
Nsba(i__main__
Mention
p242
(dp243
g7
S't4'
p244
sg9
Nsg10
S'i54'
p245
sg12
Nsg13
Nsg14
(lp246
(i__main__
Token
p247
(dp248
g18
I346
sbasg19
Nsba(i__main__
Mention
p249
(dp250
g7
S't4'
p251
sg9
S'Coreference-Identity'
p252
sg10
S'i56'
p253
sg12
S'i54'
p254
sg13
Nsg14
(lp255
(i__main__
Token
p256
(dp257
g18
I371
sbasg19
I371
sba(i__main__
Mention
p258
(dp259
g7
S't4'
p260
sg9
S'Coreference-Identity'
p261
sg10
S'i58'
p262
sg12
S'i56'
p263
sg13
Nsg14
(lp264
(i__main__
Token
p265
(dp266
g18
I424
sbasg19
I424
sbasg7
g186
sg56
Nsba(i__main__
Chain
p267
(dp268
g3
(lp269
(i__main__
Mention
p270
(dp271
g7
S't5'
p272
sg9
Nsg10
S'i5'
p273
sg12
Nsg13
Nsg14
(lp274
(i__main__
Token
p275
(dp276
g18
I15
sba(i__main__
Token
p277
(dp278
g18
I16
sba(i__main__
Token
p279
(dp280
g18
I17
sbasg19
I17
sba(i__main__
Mention
p281
(dp282
g7
S't5'
p283
sg9
S'Coreference-Identity'
p284
sg10
S'i16'
p285
sg12
S'i5'
p286
sg13
Nsg14
(lp287
(i__main__
Token
p288
(dp289
g18
I87
sba(i__main__
Token
p290
(dp291
g18
I88
sba(i__main__
Token
p292
(dp293
g18
I89
sbasg19
I89
sba(i__main__
Mention
p294
(dp295
g7
S't5'
p296
sg9
S'Coreference-Identity'
p297
sg10
S'i21'
p298
sg12
S'i16'
p299
sg13
Nsg14
(lp300
(i__main__
Token
p301
(dp302
g18
I114
sbasg19
I114
sba(i__main__
Mention
p303
(dp304
g7
S't5'
p305
sg9
S'Coreference-Identity'
p306
sg10
S'i26'
p307
sg12
S'i21'
p308
sg13
Nsg14
(lp309
(i__main__
Token
p310
(dp311
g18
I156
sbasg19
I156
sba(i__main__
Mention
p312
(dp313
g7
S't5'
p314
sg9
S'Coreference-Identity'
p315
sg10
S'i30'
p316
sg12
S'i26'
p317
sg13
Nsg14
(lp318
(i__main__
Token
p319
(dp320
g18
I185
sbasg19
I185
sba(i__main__
Mention
p321
(dp322
g7
S't5'
p323
sg9
S'Coreference-Identity'
p324
sg10
S'i33'
p325
sg12
S'i30'
p326
sg13
Nsg14
(lp327
(i__main__
Token
p328
(dp329
g18
I195
sbasg19
I195
sba(i__main__
Mention
p330
(dp331
g7
S't5'
p332
sg9
S'Anaphora-C'
p333
sg10
S'i36'
p334
sg12
S'i33'
p335
sg13
Nsg14
(lp336
(i__main__
Token
p337
(dp338
g18
I204
sbasg19
I204
sbasg7
g272
sg56
Nsba(i__main__
Chain
p339
(dp340
g3
(lp341
(i__main__
Mention
p342
(dp343
g7
S't6'
p344
sg9
Nsg10
S'i8'
p345
sg12
Nsg13
Nsg14
(lp346
(i__main__
Token
p347
(dp348
g18
I27
sba(i__main__
Token
p349
(dp350
g18
I28
sba(i__main__
Token
p351
(dp352
g18
I29
sba(i__main__
Token
p353
(dp354
g18
I30
sbasg19
I30
sba(i__main__
Mention
p355
(dp356
g7
S't6'
p357
sg9
S'Coreference-Bracketed/Abbraviation'
p358
sg10
S'i9'
p359
sg12
S'i1'
p360
sg13
Nsg14
(lp361
(i__main__
Token
p362
(dp363
g18
I32
sbasg19
I32
sba(i__main__
Mention
p364
(dp365
g7
S't6'
p366
sg9
S'Coreference-Identity'
p367
sg10
S'i27'
p368
sg12
S'i9'
p369
sg13
Nsg14
(lp370
(i__main__
Token
p371
(dp372
g18
I161
sbasg19
I161
sba(i__main__
Mention
p373
(dp374
g7
S't6'
p375
sg9
S'Coreference-Identity'
p376
sg10
S'i40'
p377
sg12
S'i27'
p378
sg13
Nsg14
(lp379
(i__main__
Token
p380
(dp381
g18
I237
sbasg19
I237
sbasg7
g344
sg56
Nsba(i__main__
Chain
p382
(dp383
g3
(lp384
(i__main__
Mention
p385
(dp386
g7
S't7'
p387
sg9
Nsg10
S'i13'
p388
sg12
Nsg13
Nsg14
(lp389
(i__main__
Token
p390
(dp391
g18
I76
sba(i__main__
Token
p392
(dp393
g18
I77
sbasg19
I77
sba(i__main__
Mention
p394
(dp395
g7
S't7'
p396
sg9
S'Coreference-NounComplement'
p397
sg10
S'i14'
p398
sg12
S'i13'
p399
sg13
Nsg14
(lp400
(i__main__
Token
p401
(dp402
g18
I78
sba(i__main__
Token
p403
(dp404
g18
I79
sbasg19
I79
sbasg7
g387
sg56
Nsba(i__main__
Chain
p405
(dp406
g3
(lp407
(i__main__
Mention
p408
(dp409
g7
S't8'
p410
sg9
Nsg10
S'i34'
p411
sg12
Nsg13
Nsg14
(lp412
(i__main__
Token
p413
(dp414
g18
I195
sba(i__main__
Token
p415
(dp416
g18
I196
sba(i__main__
Token
p417
(dp418
g18
I197
sba(i__main__
Token
p419
(dp420
g18
I198
sba(i__main__
Token
p421
(dp422
g18
I199
sba(i__main__
Token
p423
(dp424
g18
I200
sba(i__main__
Token
p425
(dp426
g18
I201
sbasg19
I200
sba(i__main__
Mention
p427
(dp428
g7
S't8'
p429
sg9
S'Anaphora-E'
p430
sg10
S'i35'
p431
sg12
S'i34'
p432
sg13
Nsg14
(lp433
(i__main__
Token
p434
(dp435
g18
I203
sbasg19
I203
sba(i__main__
Mention
p436
(dp437
g7
S't8'
p438
sg9
S'Anaphora-E'
p439
sg10
S'i37'
p440
sg12
S'i35'
p441
sg13
Nsg14
(lp442
(i__main__
Token
p443
(dp444
g18
I212
sbasg19
I212
sbasg7
g410
sg56
Nsba(i__main__
Chain
p445
(dp446
g3
(lp447
(i__main__
Mention
p448
(dp449
g7
S't9'
p450
sg9
Nsg10
S'i38'
p451
sg12
Nsg13
Nsg14
(lp452
(i__main__
Token
p453
(dp454
g18
I227
sba(i__main__
Token
p455
(dp456
g18
I228
sbasg19
I228
sba(i__main__
Mention
p457
(dp458
g7
S't9'
p459
sg9
S'Coreference-Identity'
p460
sg10
S'i39'
p461
sg12
S'i38'
p462
sg13
Nsg14
(lp463
(i__main__
Token
p464
(dp465
g18
I234
sbasg19
I234
sbasg7
g450
sg56
Nsba(i__main__
Chain
p466
(dp467
g3
(lp468
(i__main__
Mention
p469
(dp470
g7
S't10'
p471
sg9
Nsg10
S'i42'
p472
sg12
Nsg13
Nsg14
(lp473
(i__main__
Token
p474
(dp475
g18
I268
sbasg19
Nsba(i__main__
Mention
p476
(dp477
g7
S't10'
p478
sg9
Nsg10
S'i49'
p479
sg12
Nsg13
Nsg14
(lp480
(i__main__
Token
p481
(dp482
g18
I325
sbasg19
Nsba(i__main__
Mention
p483
(dp484
g7
S't10'
p485
sg9
Nsg10
S'i53'
p486
sg12
Nsg13
Nsg14
(lp487
(i__main__
Token
p488
(dp489
g18
I346
sbasg19
Nsbasg7
g471
sg56
Nsba(i__main__
Chain
p490
(dp491
g3
(lp492
(i__main__
Mention
p493
(dp494
g7
S't11'
p495
sg9
Nsg10
S'i44'
p496
sg12
Nsg13
Nsg14
(lp497
(i__main__
Token
p498
(dp499
g18
I270
sba(i__main__
Token
p500
(dp501
g18
I271
sba(i__main__
Token
p502
(dp503
g18
I272
sbasg19
I272
sba(i__main__
Mention
p504
(dp505
g7
S't11'
p506
sg9
S'Coreference-Identity'
p507
sg10
S'i52'
p508
sg12
S'i44'
p509
sg13
Nsg14
(lp510
(i__main__
Token
p511
(dp512
g18
I342
sba(i__main__
Token
p513
(dp514
g18
I343
sbasg19
I343
sbasg7
g495
sg56
Nsba(i__main__
Chain
p515
(dp516
g3
(lp517
(i__main__
Mention
p518
(dp519
g7
S't12'
p520
sg9
Nsg10
S'i45'
p521
sg12
Nsg13
Nsg14
(lp522
(i__main__
Token
p523
(dp524
g18
I284
sba(i__main__
Token
p525
(dp526
g18
I285
sbasg19
I285
sba(i__main__
Mention
p527
(dp528
g7
S't12'
p529
sg9
S'Coreference-Identity'
p530
sg10
S'i46'
p531
sg12
S'i45'
p532
sg13
Nsg14
(lp533
(i__main__
Token
p534
(dp535
g18
I301
sba(i__main__
Token
p536
(dp537
g18
I302
sbasg19
I302
sbasg7
g520
sg56
Nsba(i__main__
Chain
p538
(dp539
g3
(lp540
(i__main__
Mention
p541
(dp542
g7
S't13'
p543
sg9
Nsg10
S'i47'
p544
sg12
Nsg13
Nsg14
(lp545
(i__main__
Token
p546
(dp547
g18
I307
sba(i__main__
Token
p548
(dp549
g18
I308
sbasg19
I308
sba(i__main__
Mention
p550
(dp551
g7
S't13'
p552
sg9
S'Coreference-Identity'
p553
sg10
S'i48'
p554
sg12
S'i47'
p555
sg13
Nsg14
(lp556
(i__main__
Token
p557
(dp558
g18
I313
sba(i__main__
Token
p559
(dp560
g18
I314
sbasg19
I314
sba(i__main__
Mention
p561
(dp562
g7
S't13'
p563
sg9
S'Coreference-Identity'
p564
sg10
S'i51'
p565
sg12
S'i48'
p566
sg13
Nsg14
(lp567
(i__main__
Token
p568
(dp569
g18
I329
sbasg19
I329
sbasg7
g543
sg56
Nsba.