(lp0
(i__main__
Chain
p1
(dp2
S'mentionList'
p3
(lp4
(i__main__
Mention
p5
(dp6
S'chainId'
p7
S't1'
p8
sS'relType'
p9
NsS'mentionId'
p10
S'i1'
p11
sS'antecedentId'
p12
NsS'crefMod'
p13
NsS'tokenList'
p14
(lp15
(i__main__
Token
p16
(dp17
S'tokenId'
p18
I0
sba(i__main__
Token
p19
(dp20
g18
I1
sbasS'mentionHead'
p21
I1
sba(i__main__
Mention
p22
(dp23
g7
S't1'
p24
sg9
S'Anaphora-C'
p25
sg10
S'i7'
p26
sg12
S'i1'
p27
sg13
Nsg14
(lp28
(i__main__
Token
p29
(dp30
g18
I20
sbasg21
I20
sba(i__main__
Mention
p31
(dp32
g7
S't1'
p33
sg9
S'Coreference-Noun-Noun'
p34
sg10
S'i16'
p35
sg12
S'i7'
p36
sg13
Nsg14
(lp37
(i__main__
Token
p38
(dp39
g18
I71
sba(i__main__
Token
p40
(dp41
g18
I72
sbasg21
I72
sba(i__main__
Mention
p42
(dp43
g7
S't1'
p44
sg9
S'Coreference-NounComplement'
p45
sg10
S'i17'
p46
sg12
S'i16'
p47
sg13
Nsg14
(lp48
(i__main__
Token
p49
(dp50
g18
I73
sba(i__main__
Token
p51
(dp52
g18
I74
sbasg21
I74
sba(i__main__
Mention
p53
(dp54
g7
S't1'
p55
sg9
S'Anaphora-C'
p56
sg10
S'i21'
p57
sg12
S'i17'
p58
sg13
Nsg14
(lp59
(i__main__
Token
p60
(dp61
g18
I93
sbasg21
I93
sbasg7
g8
sS'chainHead'
p62
Nsba(i__main__
Chain
p63
(dp64
g3
(lp65
(i__main__
Mention
p66
(dp67
g7
S't2'
p68
sg9
Nsg10
S'i2'
p69
sg12
Nsg13
Nsg14
(lp70
(i__main__
Token
p71
(dp72
g18
I3
sba(i__main__
Token
p73
(dp74
g18
I4
sba(i__main__
Token
p75
(dp76
g18
I5
sba(i__main__
Token
p77
(dp78
g18
I6
sba(i__main__
Token
p79
(dp80
g18
I7
sba(i__main__
Token
p81
(dp82
g18
I8
sba(i__main__
Token
p83
(dp84
g18
I9
sba(i__main__
Token
p85
(dp86
g18
I10
sba(i__main__
Token
p87
(dp88
g18
I11
sba(i__main__
Token
p89
(dp90
g18
I12
sba(i__main__
Token
p91
(dp92
g18
I13
sba(i__main__
Token
p93
(dp94
g18
I14
sbasg21
I13
sba(i__main__
Mention
p95
(dp96
g7
S't2'
p97
sg9
S'Anaphora-C'
p98
sg10
S'i6'
p99
sg12
S'i2'
p100
sg13
Nsg14
(lp101
(i__main__
Token
p102
(dp103
g18
I17
sbasg21
I17
sbasg7
g68
sg62
Nsba(i__main__
Chain
p104
(dp105
g3
(lp106
(i__main__
Mention
p107
(dp108
g7
S't3'
p109
sg9
Nsg10
S'i3'
p110
sg12
Nsg13
Nsg14
(lp111
(i__main__
Token
p112
(dp113
g18
I5
sbasg21
I5
sba(i__main__
Mention
p114
(dp115
g7
S't3'
p116
sg9
S'Coreference-NounComplement'
p117
sg10
S'i4'
p118
sg12
S'i3'
p119
sg13
Nsg14
(lp120
(i__main__
Token
p121
(dp122
g18
I6
sba(i__main__
Token
p123
(dp124
g18
I7
sbasg21
I7
sba(i__main__
Mention
p125
(dp126
g7
S't3'
p127
sg9
S'Coreference-Noun-Noun'
p128
sg10
S'i19'
p129
sg12
S'i4'
p130
sg13
Nsg14
(lp131
(i__main__
Token
p132
(dp133
g18
I85
sbasg21
I85
sba(i__main__
Mention
p134
(dp135
g7
S't3'
p136
sg9
S'Coreference-Identity'
p137
sg10
S'i40'
p138
sg12
S'i19'
p139
sg13
Nsg14
(lp140
(i__main__
Token
p141
(dp142
g18
I193
sbasg21
I193
sbasg7
g109
sg62
Nsba(i__main__
Chain
p143
(dp144
g3
(lp145
(i__main__
Mention
p146
(dp147
g7
S't4'
p148
sg9
Nsg10
S'i5'
p149
sg12
Nsg13
Nsg14
(lp150
(i__main__
Token
p151
(dp152
g18
I9
sbasg21
I9
sba(i__main__
Mention
p153
(dp154
g7
S't4'
p155
sg9
S'Coreference-Identity'
p156
sg10
S'i20'
p157
sg12
S'i5'
p158
sg13
Nsg14
(lp159
(i__main__
Token
p160
(dp161
g18
I87
sbasg21
I87
sba(i__main__
Mention
p162
(dp163
g7
S't4'
p164
sg9
S'Coreference-Identity'
p165
sg10
S'i41'
p166
sg12
S'i20'
p167
sg13
Nsg14
(lp168
(i__main__
Token
p169
(dp170
g18
I195
sbasg21
I195
sbasg7
g148
sg62
Nsba(i__main__
Chain
p171
(dp172
g3
(lp173
(i__main__
Mention
p174
(dp175
g7
S't5'
p176
sg9
Nsg10
S'i8'
p177
sg12
Nsg13
Nsg14
(lp178
(i__main__
Token
p179
(dp180
g18
I23
sbasg21
I23
sba(i__main__
Mention
p181
(dp182
g7
S't5'
p183
sg9
S'Anaphora-C'
p184
sg10
S'i9'
p185
sg12
S'i8'
p186
sg13
Nsg14
(lp187
(i__main__
Token
p188
(dp189
g18
I25
sbasg21
I25
sba(i__main__
Mention
p190
(dp191
g7
S't5'
p192
sg9
S'Coreference-Identity'
p193
sg10
S'i12'
p194
sg12
S'i9'
p195
sg13
Nsg14
(lp196
(i__main__
Token
p197
(dp198
g18
I47
sbasg21
I47
sba(i__main__
Mention
p199
(dp200
g7
S't5'
p201
sg9
S'Coreference-Identity'
p202
sg10
S'i23'
p203
sg12
S'i12'
p204
sg13
Nsg14
(lp205
(i__main__
Token
p206
(dp207
g18
I109
sbasg21
I109
sba(i__main__
Mention
p208
(dp209
g7
S't5'
p210
sg9
S'Coreference-Identity'
p211
sg10
S'i37'
p212
sg12
S'i23'
p213
sg13
Nsg14
(lp214
(i__main__
Token
p215
(dp216
g18
I177
sbasg21
I177
sbasg7
g176
sg62
Nsba(i__main__
Chain
p217
(dp218
g3
(lp219
(i__main__
Mention
p220
(dp221
g7
S't6'
p222
sg9
Nsg10
S'i10'
p223
sg12
Nsg13
Nsg14
(lp224
(i__main__
Token
p225
(dp226
g18
I33
sba(i__main__
Token
p227
(dp228
g18
I34
sba(i__main__
Token
p229
(dp230
g18
I35
sba(i__main__
Token
p231
(dp232
g18
I36
sbasg21
I36
sba(i__main__
Mention
p233
(dp234
g7
S't6'
p235
sg9
S'Coreference-Abbreviation'
p236
sg10
S'i11'
p237
sg12
S'i10'
p238
sg13
Nsg14
(lp239
(i__main__
Token
p240
(dp241
g18
I38
sbasg21
I38
sba(i__main__
Mention
p242
(dp243
g7
S't6'
p244
sg9
S'Coreference-Identity'
p245
sg10
S'i24'
p246
sg12
S'i11'
p247
sg13
Nsg14
(lp248
(i__main__
Token
p249
(dp250
g18
I114
sbasg21
I114
sbasg7
g222
sg62
Nsba(i__main__
Chain
p251
(dp252
g3
(lp253
(i__main__
Mention
p254
(dp255
g7
S't7'
p256
sg9
S'anaphora-?'
p257
sg10
S'i13'
p258
sg12
S'i13'
p259
sg13
Nsg14
(lp260
(i__main__
Token
p261
(dp262
g18
I48
sbasg21
I48
sbasg7
g256
sg62
Nsba(i__main__
Chain
p263
(dp264
g3
(lp265
(i__main__
Mention
p266
(dp267
g7
S't8'
p268
sg9
Nsg10
S'i14'
p269
sg12
Nsg13
Nsg14
(lp270
(i__main__
Token
p271
(dp272
g18
I53
sba(i__main__
Token
p273
(dp274
g18
I54
sbasg21
I54
sba(i__main__
Mention
p275
(dp276
g7
S't8'
p277
sg9
S'Coreference-Identity'
p278
sg10
S'i27'
p279
sg12
S'i14'
p280
sg13
Nsg14
(lp281
(i__main__
Token
p282
(dp283
g18
I128
sba(i__main__
Token
p284
(dp285
g18
I129
sbasg21
I129
sba(i__main__
Mention
p286
(dp287
g7
S't8'
p288
sg9
S'Coreference-Identity'
p289
sg10
S'i30'
p290
sg12
S'i27'
p291
sg13
Nsg14
(lp292
(i__main__
Token
p293
(dp294
g18
I145
sba(i__main__
Token
p295
(dp296
g18
I146
sbasg21
I146
sba(i__main__
Mention
p297
(dp298
g7
S't8'
p299
sg9
S'Coreference-Identity'
p300
sg10
S'i42'
p301
sg12
S'i30'
p302
sg13
Nsg14
(lp303
(i__main__
Token
p304
(dp305
g18
I198
sba(i__main__
Token
p306
(dp307
g18
I199
sbasg21
I199
sbasg7
g268
sg62
Nsba(i__main__
Chain
p308
(dp309
g3
(lp310
(i__main__
Mention
p311
(dp312
g7
S't9'
p313
sg9
Nsg10
S'i15'
p314
sg12
Nsg13
Nsg14
(lp315
(i__main__
Token
p316
(dp317
g18
I57
sba(i__main__
Token
p318
(dp319
g18
I58
sba(i__main__
Token
p320
(dp321
g18
I59
sbasg21
I59
sba(i__main__
Mention
p322
(dp323
g7
S't9'
p324
sg9
S'Coreference-RPartOf'
p325
sg10
S'i28'
p326
sg12
S'i15'
p327
sg13
Nsg14
(lp328
(i__main__
Token
p329
(dp330
g18
I131
sba(i__main__
Token
p331
(dp332
g18
I132
sbasg21
I132
sba(i__main__
Mention
p333
(dp334
g7
S't9'
p335
sg9
S'Coreference-Identity'
p336
sg10
S'i43'
p337
sg12
S'i28'
p338
sg13
Nsg14
(lp339
(i__main__
Token
p340
(dp341
g18
I202
sba(i__main__
Token
p342
(dp343
g18
I203
sbasg21
I203
sbasg7
g313
sg62
Nsba(i__main__
Chain
p344
(dp345
g3
(lp346
(i__main__
Mention
p347
(dp348
g7
S't10'
p349
sg9
Nsg10
S'i18'
p350
sg12
Nsg13
Nsg14
(lp351
(i__main__
Token
p352
(dp353
g18
I78
sbasg21
I78
sba(i__main__
Mention
p354
(dp355
g7
S't10'
p356
sg9
S'Anaphora-C'
p357
sg10
S'i22'
p358
sg12
S'i18'
p359
sg13
Nsg14
(lp360
(i__main__
Token
p361
(dp362
g18
I98
sbasg21
I98
sbasg7
g349
sg62
Nsba(i__main__
Chain
p363
(dp364
g3
(lp365
(i__main__
Mention
p366
(dp367
g7
S't11'
p368
sg9
Nsg10
S'i25'
p369
sg12
Nsg13
Nsg14
(lp370
(i__main__
Token
p371
(dp372
g18
I116
sbasg21
I116
sba(i__main__
Mention
p373
(dp374
g7
S't11'
p375
sg9
S'Coreference-NounComplement'
p376
sg10
S'i26'
p377
sg12
S'i25'
p378
sg13
Nsg14
(lp379
(i__main__
Token
p380
(dp381
g18
I117
sba(i__main__
Token
p382
(dp383
g18
I118
sba(i__main__
Token
p384
(dp385
g18
I119
sba(i__main__
Token
p386
(dp387
g18
I120
sbasg21
I120
sba(i__main__
Mention
p388
(dp389
g7
S't11'
p390
sg9
S'Anaphora-C'
p391
sg10
S'i29'
p392
sg12
S'i26'
p393
sg13
Nsg14
(lp394
(i__main__
Token
p395
(dp396
g18
I142
sbasg21
I142
sba(i__main__
Mention
p397
(dp398
g7
S't11'
p399
sg9
S'Anaphora-C'
p400
sg10
S'i39'
p401
sg12
S'i29'
p402
sg13
Nsg14
(lp403
(i__main__
Token
p404
(dp405
g18
I183
sbasg21
I183
sbasg7
g368
sg62
Nsba(i__main__
Chain
p406
(dp407
g3
(lp408
(i__main__
Mention
p409
(dp410
g7
S't12'
p411
sg9
S'anaphora-?'
p412
sg10
S'i31'
p413
sg12
S'i31'
p414
sg13
Nsg14
(lp415
(i__main__
Token
p416
(dp417
g18
I148
sbasg21
I148
sbasg7
g411
sg62
Nsba(i__main__
Chain
p418
(dp419
g3
(lp420
(i__main__
Mention
p421
(dp422
g7
S't13'
p423
sg9
Nsg10
S'i32'
p424
sg12
Nsg13
Nsg14
(lp425
(i__main__
Token
p426
(dp427
g18
I148
sba(i__main__
Token
p428
(dp429
g18
I149
sbasg21
I149
sba(i__main__
Mention
p430
(dp431
g7
S't13'
p432
sg9
S'Anaphora-C'
p433
sg10
S'i34'
p434
sg12
S'i32'
p435
sg13
Nsg14
(lp436
(i__main__
Token
p437
(dp438
g18
I159
sbasg21
I159
sba(i__main__
Mention
p439
(dp440
g7
S't13'
p441
sg9
S'Anaphora-C'
p442
sg10
S'i36'
p443
sg12
S'i34'
p444
sg13
Nsg14
(lp445
(i__main__
Token
p446
(dp447
g18
I171
sbasg21
I171
sbasg7
g423
sg62
Nsba(i__main__
Chain
p448
(dp449
g3
(lp450
(i__main__
Mention
p451
(dp452
g7
S't14'
p453
sg9
Nsg10
S'i33'
p454
sg12
Nsg13
Nsg14
(lp455
(i__main__
Token
p456
(dp457
g18
I151
sbasg21
I151
sba(i__main__
Mention
p458
(dp459
g7
S't14'
p460
sg9
S'Coreference-Identity'
p461
sg10
S'i35'
p462
sg12
S'i33'
p463
sg13
Nsg14
(lp464
(i__main__
Token
p465
(dp466
g18
I169
sbasg21
I169
sbasg7
g453
sg62
Nsba(i__main__
Chain
p467
(dp468
g3
(lp469
(i__main__
Mention
p470
(dp471
g7
S't15'
p472
sg9
S'anaphora-?'
p473
sg10
S'i38'
p474
sg12
S'i38'
p475
sg13
Nsg14
(lp476
(i__main__
Token
p477
(dp478
g18
I178
sbasg21
I178
sbasg7
g472
sg62
Nsba.