(lp0
(i__main__
Chain
p1
(dp2
S'mentionList'
p3
(lp4
(i__main__
Mention
p5
(dp6
S'chainId'
p7
S't1'
p8
sS'relType'
p9
NsS'mentionId'
p10
S'i1'
p11
sS'antecedentId'
p12
NsS'crefMod'
p13
NsS'tokenList'
p14
(lp15
(i__main__
Token
p16
(dp17
S'tokenId'
p18
I0
sba(i__main__
Token
p19
(dp20
g18
I1
sbasS'mentionHead'
p21
I1
sba(i__main__
Mention
p22
(dp23
g7
S't1'
p24
sg9
S'Coreference-NounComplement'
p25
sg10
S'i2'
p26
sg12
S'i1'
p27
sg13
Nsg14
(lp28
(i__main__
Token
p29
(dp30
g18
I2
sba(i__main__
Token
p31
(dp32
g18
I3
sbasg21
I3
sba(i__main__
Mention
p33
(dp34
g7
S't1'
p35
sg9
S'Coreference-Identity'
p36
sg10
S'i6'
p37
sg12
S'i2'
p38
sg13
Nsg14
(lp39
(i__main__
Token
p40
(dp41
g18
I22
sbasg21
I22
sba(i__main__
Mention
p42
(dp43
g7
S't1'
p44
sg9
S'Coreference-Noun-Noun'
p45
sg10
S'i8'
p46
sg12
S'i6'
p47
sg13
Nsg14
(lp48
(i__main__
Token
p49
(dp50
g18
I47
sbasg21
I47
sba(i__main__
Mention
p51
(dp52
g7
S't1'
p53
sg9
S'Coreference-Identity'
p54
sg10
S'i12'
p55
sg12
S'i8'
p56
sg13
Nsg14
(lp57
(i__main__
Token
p58
(dp59
g18
I74
sbasg21
I74
sba(i__main__
Mention
p60
(dp61
g7
S't1'
p62
sg9
S'Coreference-Identity'
p63
sg10
S'i20'
p64
sg12
S'i12'
p65
sg13
Nsg14
(lp66
(i__main__
Token
p67
(dp68
g18
I95
sbasg21
I95
sba(i__main__
Mention
p69
(dp70
g7
S't1'
p71
sg9
S'Coreference-Identity'
p72
sg10
S'i25'
p73
sg12
S'i20'
p74
sg13
Nsg14
(lp75
(i__main__
Token
p76
(dp77
g18
I126
sbasg21
I126
sba(i__main__
Mention
p78
(dp79
g7
S't1'
p80
sg9
S'Anaphora-C'
p81
sg10
S'i28'
p82
sg12
S'i25'
p83
sg13
Nsg14
(lp84
(i__main__
Token
p85
(dp86
g18
I144
sbasg21
I144
sba(i__main__
Mention
p87
(dp88
g7
S't1'
p89
sg9
S'Coreference-Identity'
p90
sg10
S'i32'
p91
sg12
S'i28'
p92
sg13
Nsg14
(lp93
(i__main__
Token
p94
(dp95
g18
I159
sbasg21
I159
sba(i__main__
Mention
p96
(dp97
g7
S't1'
p98
sg9
S'Coreference-Noun-Noun'
p99
sg10
S'i36'
p100
sg12
S'i32'
p101
sg13
Nsg14
(lp102
(i__main__
Token
p103
(dp104
g18
I166
sbasg21
I166
sba(i__main__
Mention
p105
(dp106
g7
S't1'
p107
sg9
S'Coreference-Noun-Noun'
p108
sg10
S'i44'
p109
sg12
S'i36'
p110
sg13
Nsg14
(lp111
(i__main__
Token
p112
(dp113
g18
I222
sbasg21
I222
sba(i__main__
Mention
p114
(dp115
g7
S't1'
p116
sg9
S'Coreference-Noun-Noun'
p117
sg10
S'i50'
p118
sg12
S'i44'
p119
sg13
Nsg14
(lp120
(i__main__
Token
p121
(dp122
g18
I289
sba(i__main__
Token
p123
(dp124
g18
I290
sba(i__main__
Token
p125
(dp126
g18
I291
sbasg21
I291
sba(i__main__
Mention
p127
(dp128
g7
S't1'
p129
sg9
S'Coreference-Noun-Noun'
p130
sg10
S'i53'
p131
sg12
S'i50'
p132
sg13
Nsg14
(lp133
(i__main__
Token
p134
(dp135
g18
I313
sbasg21
I313
sba(i__main__
Mention
p136
(dp137
g7
S't1'
p138
sg9
S'Coreference-Identity'
p139
sg10
S'i56'
p140
sg12
S'i53'
p141
sg13
Nsg14
(lp142
(i__main__
Token
p143
(dp144
g18
I323
sbasg21
I323
sba(i__main__
Mention
p145
(dp146
g7
S't1'
p147
sg9
S'Coreference-Identity'
p148
sg10
S'i62'
p149
sg12
S'i56'
p150
sg13
Nsg14
(lp151
(i__main__
Token
p152
(dp153
g18
I348
sbasg21
I348
sbasg7
g8
sS'chainHead'
p154
Nsba(i__main__
Chain
p155
(dp156
g3
(lp157
(i__main__
Mention
p158
(dp159
g7
S't2'
p160
sg9
Nsg10
S'i3'
p161
sg12
Nsg13
Nsg14
(lp162
(i__main__
Token
p163
(dp164
g18
I5
sbasg21
I5
sba(i__main__
Mention
p165
(dp166
g7
S't2'
p167
sg9
S'Coreference-Identity'
p168
sg10
S'i9'
p169
sg12
S'i3'
p170
sg13
Nsg14
(lp171
(i__main__
Token
p172
(dp173
g18
I52
sbasg21
I52
sba(i__main__
Mention
p174
(dp175
g7
S't2'
p176
sg9
S'Coreference-Identity'
p177
sg10
S'i21'
p178
sg12
S'i9'
p179
sg13
Nsg14
(lp180
(i__main__
Token
p181
(dp182
g18
I97
sbasg21
I97
sba(i__main__
Mention
p183
(dp184
g7
S't2'
p185
sg9
S'Coreference-Identity'
p186
sg10
S'i22'
p187
sg12
S'i21'
p188
sg13
Nsg14
(lp189
(i__main__
Token
p190
(dp191
g18
I114
sbasg21
I114
sba(i__main__
Mention
p192
(dp193
g7
S't2'
p194
sg9
S'Coreference-Identity'
p195
sg10
S'i26'
p196
sg12
S'i22'
p197
sg13
Nsg14
(lp198
(i__main__
Token
p199
(dp200
g18
I129
sbasg21
I129
sba(i__main__
Mention
p201
(dp202
g7
S't2'
p203
sg9
S'Coreference-Identity'
p204
sg10
S'i49'
p205
sg12
S'i26'
p206
sg13
Nsg14
(lp207
(i__main__
Token
p208
(dp209
g18
I286
sbasg21
I286
sbasg7
g160
sg154
Nsba(i__main__
Chain
p210
(dp211
g3
(lp212
(i__main__
Mention
p213
(dp214
g7
S't3'
p215
sg9
Nsg10
S'i4'
p216
sg12
Nsg13
Nsg14
(lp217
(i__main__
Token
p218
(dp219
g18
I14
sbasg21
I14
sba(i__main__
Mention
p220
(dp221
g7
S't3'
p222
sg9
S'Coreference-Identity'
p223
sg10
S'i7'
p224
sg12
S'i4'
p225
sg13
Nsg14
(lp226
(i__main__
Token
p227
(dp228
g18
I39
sbasg21
I39
sba(i__main__
Mention
p229
(dp230
g7
S't3'
p231
sg9
S'Coreference-Identity'
p232
sg10
S'i19'
p233
sg12
S'i7'
p234
sg13
Nsg14
(lp235
(i__main__
Token
p236
(dp237
g18
I90
sbasg21
I90
sba(i__main__
Mention
p238
(dp239
g7
S't3'
p240
sg9
S'Coreference-Identity'
p241
sg10
S'i47'
p242
sg12
S'i19'
p243
sg13
Nsg14
(lp244
(i__main__
Token
p245
(dp246
g18
I232
sbasg21
I232
sba(i__main__
Mention
p247
(dp248
g7
S't3'
p249
sg9
S'Coreference-Identity'
p250
sg10
S'i51'
p251
sg12
S'i47'
p252
sg13
Nsg14
(lp253
(i__main__
Token
p254
(dp255
g18
I293
sbasg21
I293
sbasg7
g215
sg154
Nsba(i__main__
Chain
p256
(dp257
g3
(lp258
(i__main__
Mention
p259
(dp260
g7
S't4'
p261
sg9
Nsg10
S'i5'
p262
sg12
Nsg13
Nsg14
(lp263
(i__main__
Token
p264
(dp265
g18
I18
sba(i__main__
Token
p266
(dp267
g18
I19
sba(i__main__
Token
p268
(dp269
g18
I20
sbasg21
I20
sba(i__main__
Mention
p270
(dp271
g7
S't4'
p272
sg9
S'Coreference-Identity'
p273
sg10
S'i48'
p274
sg12
S'i5'
p275
sg13
Nsg14
(lp276
(i__main__
Token
p277
(dp278
g18
I239
sbasg21
I239
sba(i__main__
Mention
p279
(dp280
g7
S't4'
p281
sg9
S'Coreference-Identity'
p282
sg10
S'i52'
p283
sg12
S'i48'
p284
sg13
Nsg14
(lp285
(i__main__
Token
p286
(dp287
g18
I306
sbasg21
I306
sba(i__main__
Mention
p288
(dp289
g7
S't4'
p290
sg9
S'Coreference-Identity'
p291
sg10
S'i54'
p292
sg12
S'i52'
p293
sg13
Nsg14
(lp294
(i__main__
Token
p295
(dp296
g18
I314
sbasg21
I314
sba(i__main__
Mention
p297
(dp298
g7
S't4'
p299
sg9
S'Coreference-Identity'
p300
sg10
S'i59'
p301
sg12
S'i54'
p302
sg13
Nsg14
(lp303
(i__main__
Token
p304
(dp305
g18
I336
sbasg21
I336
sbasg7
g261
sg154
Nsba(i__main__
Chain
p306
(dp307
g3
(lp308
(i__main__
Mention
p309
(dp310
g7
S't5'
p311
sg9
Nsg10
S'i10'
p312
sg12
Nsg13
Nsg14
(lp313
(i__main__
Token
p314
(dp315
g18
I59
sbasg21
I59
sba(i__main__
Mention
p316
(dp317
g7
S't5'
p318
sg9
S'Coreference-NounComplement'
p319
sg10
S'i11'
p320
sg12
S'i10'
p321
sg13
Nsg14
(lp322
(i__main__
Token
p323
(dp324
g18
I60
sbasg21
I60
sbasg7
g311
sg154
Nsba(i__main__
Chain
p325
(dp326
g3
(lp327
(i__main__
Mention
p328
(dp329
g7
S't6'
p330
sg9
Nsg10
S'i13'
p331
sg12
Nsg13
Nsg14
(lp332
(i__main__
Token
p333
(dp334
g18
I76
sbasg21
I76
sba(i__main__
Mention
p335
(dp336
g7
S't6'
p337
sg9
S'Coreference-NounComplement'
p338
sg10
S'i14'
p339
sg12
S'i13'
p340
sg13
Nsg14
(lp341
(i__main__
Token
p342
(dp343
g18
I77
sba(i__main__
Token
p344
(dp345
g18
I78
sbasg21
I78
sba(i__main__
Mention
p346
(dp347
g7
S't6'
p348
sg9
S'Coreference-Noun-Noun'
p349
sg10
S'i33'
p350
sg12
S'i14'
p351
sg13
Nsg14
(lp352
(i__main__
Token
p353
(dp354
g18
I161
sbasg21
I161
sba(i__main__
Mention
p355
(dp356
g7
S't6'
p357
sg9
S'Coreference-NounComplement'
p358
sg10
S'i34'
p359
sg12
S'i33'
p360
sg13
Nsg14
(lp361
(i__main__
Token
p362
(dp363
g18
I162
sbasg21
I162
sba(i__main__
Mention
p364
(dp365
g7
S't6'
p366
sg9
S'Anaphora-C'
p367
sg10
S'i35'
p368
sg12
S'i34'
p369
sg13
Nsg14
(lp370
(i__main__
Token
p371
(dp372
g18
I165
sbasg21
I165
sba(i__main__
Mention
p373
(dp374
g7
S't6'
p375
sg9
S'Coreference-Identity'
p376
sg10
S'i39'
p377
sg12
S'i35'
p378
sg13
Nsg14
(lp379
(i__main__
Token
p380
(dp381
g18
I190
sbasg21
I190
sba(i__main__
Mention
p382
(dp383
g7
S't6'
p384
sg9
S'Anaphora-C'
p385
sg10
S'i41'
p386
sg12
S'i39'
p387
sg13
Nsg14
(lp388
(i__main__
Token
p389
(dp390
g18
I203
sbasg21
I203
sba(i__main__
Mention
p391
(dp392
g7
S't6'
p393
sg9
S'Anaphora-C'
p394
sg10
S'i42'
p395
sg12
S'i41'
p396
sg13
Nsg14
(lp397
(i__main__
Token
p398
(dp399
g18
I206
sbasg21
I206
sbasg7
g330
sg154
Nsba(i__main__
Chain
p400
(dp401
g3
(lp402
(i__main__
Mention
p403
(dp404
g7
S't7'
p405
sg9
Nsg10
S'i15'
p406
sg12
Nsg13
Nsg14
(lp407
(i__main__
Token
p408
(dp409
g18
I80
sbasg21
I80
sba(i__main__
Mention
p410
(dp411
g7
S't7'
p412
sg9
S'Coreference-NounComplement'
p413
sg10
S'i16'
p414
sg12
S'i15'
p415
sg13
Nsg14
(lp416
(i__main__
Token
p417
(dp418
g18
I81
sbasg21
I81
sba(i__main__
Mention
p419
(dp420
g7
S't7'
p421
sg9
S'Coreference-Noun-Noun'
p422
sg10
S'i29'
p423
sg12
S'i16'
p424
sg13
Nsg14
(lp425
(i__main__
Token
p426
(dp427
g18
I145
sbasg21
I145
sba(i__main__
Mention
p428
(dp429
g7
S't7'
p430
sg9
S'Coreference-NounComplement'
p431
sg10
S'i30'
p432
sg12
S'i29'
p433
sg13
Nsg14
(lp434
(i__main__
Token
p435
(dp436
g18
I146
sbasg21
I146
sba(i__main__
Mention
p437
(dp438
g7
S't7'
p439
sg9
S'Coreference-Identity'
p440
sg10
S'i31'
p441
sg12
S'i30'
p442
sg13
Nsg14
(lp443
(i__main__
Token
p444
(dp445
g18
I157
sbasg21
I157
sbasg7
g405
sg154
Nsba(i__main__
Chain
p446
(dp447
g3
(lp448
(i__main__
Mention
p449
(dp450
g7
S't8'
p451
sg9
Nsg10
S'i17'
p452
sg12
Nsg13
Nsg14
(lp453
(i__main__
Token
p454
(dp455
g18
I83
sbasg21
I83
sba(i__main__
Mention
p456
(dp457
g7
S't8'
p458
sg9
S'Coreference-NounComplement'
p459
sg10
S'i18'
p460
sg12
S'i17'
p461
sg13
Nsg14
(lp462
(i__main__
Token
p463
(dp464
g18
I84
sba(i__main__
Token
p465
(dp466
g18
I85
sbasg21
I85
sba(i__main__
Mention
p467
(dp468
g7
S't8'
p469
sg9
S'Coreference-Identity'
p470
sg10
S'i37'
p471
sg12
S'i18'
p472
sg13
Nsg14
(lp473
(i__main__
Token
p474
(dp475
g18
I180
sba(i__main__
Token
p476
(dp477
g18
I181
sbasg21
I181
sba(i__main__
Mention
p478
(dp479
g7
S't8'
p480
sg9
S'Anaphora-C'
p481
sg10
S'i38'
p482
sg12
S'i37'
p483
sg13
Nsg14
(lp484
(i__main__
Token
p485
(dp486
g18
I185
sbasg21
I185
sbasg7
g451
sg154
Nsba(i__main__
Chain
p487
(dp488
g3
(lp489
(i__main__
Mention
p490
(dp491
g7
S't9'
p492
sg9
Nsg10
S'i23'
p493
sg12
Nsg13
Nsg14
(lp494
(i__main__
Token
p495
(dp496
g18
I114
sba(i__main__
Token
p497
(dp498
g18
I115
sbasg21
I115
sba(i__main__
Mention
p499
(dp500
g7
S't9'
p501
sg9
S'Coreference-NounComplement'
p502
sg10
S'i24'
p503
sg12
S'i23'
p504
sg13
Nsg14
(lp505
(i__main__
Token
p506
(dp507
g18
I116
sba(i__main__
Token
p508
(dp509
g18
I117
sba(i__main__
Token
p510
(dp511
g18
I118
sbasg21
I118
sbasg7
g492
sg154
Nsba(i__main__
Chain
p512
(dp513
g3
(lp514
(i__main__
Mention
p515
(dp516
g7
S't10'
p517
sg9
Nsg10
S'i27'
p518
sg12
Nsg13
Nsg14
(lp519
(i__main__
Token
p520
(dp521
g18
I138
sbasg21
I138
sbasg7
g517
sg154
Nsba(i__main__
Chain
p522
(dp523
g3
(lp524
(i__main__
Mention
p525
(dp526
g7
S't11'
p527
sg9
Nsg10
S'i40'
p528
sg12
Nsg13
Nsg14
(lp529
(i__main__
Token
p530
(dp531
g18
I194
sbasg21
I194
sbasg7
g527
sg154
Nsba(i__main__
Chain
p532
(dp533
g3
(lp534
(i__main__
Mention
p535
(dp536
g7
S't12'
p537
sg9
Nsg10
S'i43'
p538
sg12
Nsg13
Nsg14
(lp539
(i__main__
Token
p540
(dp541
g18
I220
sbasg21
I220
sbasg7
g537
sg154
Nsba(i__main__
Chain
p542
(dp543
g3
(lp544
(i__main__
Mention
p545
(dp546
g7
S't13'
p547
sg9
Nsg10
S'i45'
p548
sg12
Nsg13
Nsg14
(lp549
(i__main__
Token
p550
(dp551
g18
I224
sba(i__main__
Token
p552
(dp553
g18
I225
sba(i__main__
Token
p554
(dp555
g18
I226
sba(i__main__
Token
p556
(dp557
g18
I227
sbasg21
I227
sba(i__main__
Mention
p558
(dp559
g7
S't13'
p560
sg9
S'Coreference-NounComplement'
p561
sg10
S'i46'
p562
sg12
S'i45'
p563
sg13
Nsg14
(lp564
(i__main__
Token
p565
(dp566
g18
I228
sba(i__main__
Token
p567
(dp568
g18
I229
sba(i__main__
Token
p569
(dp570
g18
I230
sbasg21
I230
sbasg7
g547
sg154
Nsba(i__main__
Chain
p571
(dp572
g3
(lp573
(i__main__
Mention
p574
(dp575
g7
S't14'
p576
sg9
Nsg10
S'i55'
p577
sg12
Nsg13
Nsg14
(lp578
(i__main__
Token
p579
(dp580
g18
I321
sbasg21
I321
sbasg7
g576
sg154
Nsba(i__main__
Chain
p581
(dp582
g3
(lp583
(i__main__
Mention
p584
(dp585
g7
S't15'
p586
sg9
Nsg10
S'i57'
p587
sg12
Nsg13
Nsg14
(lp588
(i__main__
Token
p589
(dp590
g18
I324
sbasg21
I324
sba(i__main__
Mention
p591
(dp592
g7
S't15'
p593
sg9
S'Coreference-Identity'
p594
sg10
S'i60'
p595
sg12
S'i57'
p596
sg13
Nsg14
(lp597
(i__main__
Token
p598
(dp599
g18
I343
sbasg21
I343
sbasg7
g586
sg154
Nsba(i__main__
Chain
p600
(dp601
g3
(lp602
(i__main__
Mention
p603
(dp604
g7
S't16'
p605
sg9
Nsg10
S'i58'
p606
sg12
Nsg13
Nsg14
(lp607
(i__main__
Token
p608
(dp609
g18
I326
sba(i__main__
Token
p610
(dp611
g18
I327
sba(i__main__
Token
p612
(dp613
g18
I328
sbasg21
I328
sba(i__main__
Mention
p614
(dp615
g7
S't16'
p616
sg9
S'Coreference-Identity'
p617
sg10
S'i61'
p618
sg12
S'i58'
p619
sg13
Nsg14
(lp620
(i__main__
Token
p621
(dp622
g18
I345
sba(i__main__
Token
p623
(dp624
g18
I346
sbasg21
I346
sbasg7
g605
sg154
Nsba.