(lp0
(i__main__
Chain
p1
(dp2
S'mentionList'
p3
(lp4
(i__main__
Mention
p5
(dp6
S'chainId'
p7
S't1'
p8
sS'relType'
p9
NsS'mentionId'
p10
S'i1'
p11
sS'antecedentId'
p12
NsS'crefMod'
p13
NsS'tokenList'
p14
(lp15
(i__main__
Token
p16
(dp17
S'tokenId'
p18
I0
sba(i__main__
Token
p19
(dp20
g18
I1
sbasS'mentionHead'
p21
I1
sba(i__main__
Mention
p22
(dp23
g7
S't1'
p24
sg9
S'Coreference-Identity'
p25
sg10
S'i51'
p26
sg12
S'i1'
p27
sg13
Nsg14
(lp28
(i__main__
Token
p29
(dp30
g18
I149
sba(i__main__
Token
p31
(dp32
g18
I150
sbasg21
I150
sba(i__main__
Mention
p33
(dp34
g7
S't1'
p35
sg9
S'Coreference-Identity'
p36
sg10
S'i85'
p37
sg12
S'i51'
p38
sg13
Nsg14
(lp39
(i__main__
Token
p40
(dp41
g18
I245
sba(i__main__
Token
p42
(dp43
g18
I246
sbasg21
I246
sba(i__main__
Mention
p44
(dp45
g7
S't1'
p46
sg9
S'Coreference-Identity'
p47
sg10
S'i92'
p48
sg12
S'i85'
p49
sg13
Nsg14
(lp50
(i__main__
Token
p51
(dp52
g18
I277
sba(i__main__
Token
p53
(dp54
g18
I278
sbasg21
I278
sba(i__main__
Mention
p55
(dp56
g7
S't1'
p57
sg9
S'Coreference-Identity'
p58
sg10
S'i94'
p59
sg12
S'i92'
p60
sg13
Nsg14
(lp61
(i__main__
Token
p62
(dp63
g18
I301
sba(i__main__
Token
p64
(dp65
g18
I302
sbasg21
I302
sba(i__main__
Mention
p66
(dp67
g7
S't1'
p68
sg9
S'Coreference-Identity'
p69
sg10
S'i96'
p70
sg12
S'i94'
p71
sg13
Nsg14
(lp72
(i__main__
Token
p73
(dp74
g18
I326
sba(i__main__
Token
p75
(dp76
g18
I327
sbasg21
I327
sbasg7
g8
sS'chainHead'
p77
Nsba(i__main__
Chain
p78
(dp79
g3
(lp80
(i__main__
Mention
p81
(dp82
g7
S't2'
p83
sg9
Nsg10
S'i2'
p84
sg12
Nsg13
Nsg14
(lp85
(i__main__
Token
p86
(dp87
g18
I3
sbasg21
I3
sba(i__main__
Mention
p88
(dp89
g7
S't2'
p90
sg9
S'Coreference-Identity'
p91
sg10
S'i13'
p92
sg12
S'i2'
p93
sg13
Nsg14
(lp94
(i__main__
Token
p95
(dp96
g18
I25
sbasg21
I25
sba(i__main__
Mention
p97
(dp98
g7
S't2'
p99
sg9
S'Anaphora-C'
p100
sg10
S'i26'
p101
sg12
S'i13'
p102
sg13
Nsg14
(lp103
(i__main__
Token
p104
(dp105
g18
I63
sbasg21
I63
sba(i__main__
Mention
p106
(dp107
g7
S't2'
p108
sg9
S'Coreference-Identity'
p109
sg10
S'i32'
p110
sg12
S'i26'
p111
sg13
Nsg14
(lp112
(i__main__
Token
p113
(dp114
g18
I80
sbasg21
I80
sba(i__main__
Mention
p115
(dp116
g7
S't2'
p117
sg9
S'Coreference-Identity'
p118
sg10
S'i58'
p119
sg12
S'i32'
p120
sg13
Nsg14
(lp121
(i__main__
Token
p122
(dp123
g18
I161
sbasg21
I161
sba(i__main__
Mention
p124
(dp125
g7
S't2'
p126
sg9
S'Coreference-Identity'
p127
sg10
S'i64'
p128
sg12
S'i58'
p129
sg13
Nsg14
(lp130
(i__main__
Token
p131
(dp132
g18
I178
sbasg21
I178
sba(i__main__
Mention
p133
(dp134
g7
S't2'
p135
sg9
S'Coreference-Identity'
p136
sg10
S'i73'
p137
sg12
S'i64'
p138
sg13
Nsg14
(lp139
(i__main__
Token
p140
(dp141
g18
I197
sbasg21
I197
sba(i__main__
Mention
p142
(dp143
g7
S't2'
p144
sg9
S'Coreference-Identity'
p145
sg10
S'i77'
p146
sg12
S'i73'
p147
sg13
Nsg14
(lp148
(i__main__
Token
p149
(dp150
g18
I215
sbasg21
I215
sba(i__main__
Mention
p151
(dp152
g7
S't2'
p153
sg9
S'Anaphora-C'
p154
sg10
S'i81'
p155
sg12
S'i77'
p156
sg13
Nsg14
(lp157
(i__main__
Token
p158
(dp159
g18
I230
sbasg21
I230
sbasg7
g83
sg77
Nsba(i__main__
Chain
p160
(dp161
g3
(lp162
(i__main__
Mention
p163
(dp164
g7
S't3'
p165
sg9
Nsg10
S'i3'
p166
sg12
Nsg13
Nsg14
(lp167
(i__main__
Token
p168
(dp169
g18
I5
sbasg21
I5
sba(i__main__
Mention
p170
(dp171
g7
S't3'
p172
sg9
S'Coreference-Identity'
p173
sg10
S'i14'
p174
sg12
S'i3'
p175
sg13
Nsg14
(lp176
(i__main__
Token
p177
(dp178
g18
I27
sbasg21
I27
sba(i__main__
Mention
p179
(dp180
g7
S't3'
p181
sg9
S'Coreference-Identity'
p182
sg10
S'i33'
p183
sg12
S'i14'
p184
sg13
Nsg14
(lp185
(i__main__
Token
p186
(dp187
g18
I82
sbasg21
I82
sba(i__main__
Mention
p188
(dp189
g7
S't3'
p190
sg9
S'Coreference-Identity'
p191
sg10
S'i59'
p192
sg12
S'i33'
p193
sg13
Nsg14
(lp194
(i__main__
Token
p195
(dp196
g18
I161
sba(i__main__
Token
p197
(dp198
g18
I162
sbasg21
I162
sbasg7
g165
sg77
Nsba(i__main__
Chain
p199
(dp200
g3
(lp201
(i__main__
Mention
p202
(dp203
g7
S't4'
p204
sg9
Nsg10
S'i4'
p205
sg12
Nsg13
Nsg14
(lp206
(i__main__
Token
p207
(dp208
g18
I8
sbasg21
I8
sba(i__main__
Mention
p209
(dp210
g7
S't4'
p211
sg9
Nsg10
S'i6'
p212
sg12
Nsg13
Nsg14
(lp213
(i__main__
Token
p214
(dp215
g18
I11
sbasg21
Nsba(i__main__
Mention
p216
(dp217
g7
S't4'
p218
sg9
Nsg10
S'i11'
p219
sg12
Nsg13
Nsg14
(lp220
(i__main__
Token
p221
(dp222
g18
I23
sba(i__main__
Token
p223
(dp224
g18
I24
sbasg21
Nsba(i__main__
Mention
p225
(dp226
g7
S't4'
p227
sg9
Nsg10
S'i16'
p228
sg12
Nsg13
Nsg14
(lp229
(i__main__
Token
p230
(dp231
g18
I41
sbasg21
Nsba(i__main__
Mention
p232
(dp233
g7
S't4'
p234
sg9
Nsg10
S'i18'
p235
sg12
Nsg13
Nsg14
(lp236
(i__main__
Token
p237
(dp238
g18
I45
sba(i__main__
Token
p239
(dp240
g18
I46
sbasg21
Nsba(i__main__
Mention
p241
(dp242
g7
S't4'
p243
sg9
Nsg10
S'i24'
p244
sg12
Nsg13
Nsg14
(lp245
(i__main__
Token
p246
(dp247
g18
I61
sba(i__main__
Token
p248
(dp249
g18
I62
sbasg21
Nsba(i__main__
Mention
p250
(dp251
g7
S't4'
p252
sg9
Nsg10
S'i30'
p253
sg12
Nsg13
Nsg14
(lp254
(i__main__
Token
p255
(dp256
g18
I76
sbasg21
Nsba(i__main__
Mention
p257
(dp258
g7
S't4'
p259
sg9
Nsg10
S'i46'
p260
sg12
Nsg13
Nsg14
(lp261
(i__main__
Token
p262
(dp263
g18
I135
sba(i__main__
Token
p264
(dp265
g18
I136
sbasg21
Nsba(i__main__
Mention
p266
(dp267
g7
S't4'
p268
sg9
Nsg10
S'i54'
p269
sg12
Nsg13
Nsg14
(lp270
(i__main__
Token
p271
(dp272
g18
I155
sbasg21
Nsba(i__main__
Mention
p273
(dp274
g7
S't4'
p275
sg9
Nsg10
S'i61'
p276
sg12
Nsg13
Nsg14
(lp277
(i__main__
Token
p278
(dp279
g18
I174
sbasg21
Nsba(i__main__
Mention
p280
(dp281
g7
S't4'
p282
sg9
Nsg10
S'i65'
p283
sg12
Nsg13
Nsg14
(lp284
(i__main__
Token
p285
(dp286
g18
I184
sba(i__main__
Token
p287
(dp288
g18
I185
sbasg21
Nsba(i__main__
Mention
p289
(dp290
g7
S't4'
p291
sg9
Nsg10
S'i71'
p292
sg12
Nsg13
Nsg14
(lp293
(i__main__
Token
p294
(dp295
g18
I193
sbasg21
Nsbasg7
g204
sg77
Nsba(i__main__
Chain
p296
(dp297
g3
(lp298
(i__main__
Mention
p299
(dp300
g7
S't5'
p301
sg9
Nsg10
S'i5'
p302
sg12
Nsg13
Nsg14
(lp303
(i__main__
Token
p304
(dp305
g18
I10
sbasg21
I10
sba(i__main__
Mention
p306
(dp307
g7
S't5'
p308
sg9
Nsg10
S'i7'
p309
sg12
Nsg13
Nsg14
(lp310
(i__main__
Token
p311
(dp312
g18
I11
sbasg21
Nsba(i__main__
Mention
p313
(dp314
g7
S't5'
p315
sg9
Nsg10
S'i12'
p316
sg12
Nsg13
Nsg14
(lp317
(i__main__
Token
p318
(dp319
g18
I23
sba(i__main__
Token
p320
(dp321
g18
I24
sbasg21
Nsba(i__main__
Mention
p322
(dp323
g7
S't5'
p324
sg9
Nsg10
S'i17'
p325
sg12
Nsg13
Nsg14
(lp326
(i__main__
Token
p327
(dp328
g18
I41
sbasg21
Nsba(i__main__
Mention
p329
(dp330
g7
S't5'
p331
sg9
Nsg10
S'i19'
p332
sg12
Nsg13
Nsg14
(lp333
(i__main__
Token
p334
(dp335
g18
I45
sba(i__main__
Token
p336
(dp337
g18
I46
sbasg21
Nsba(i__main__
Mention
p338
(dp339
g7
S't5'
p340
sg9
Nsg10
S'i25'
p341
sg12
Nsg13
Nsg14
(lp342
(i__main__
Token
p343
(dp344
g18
I61
sba(i__main__
Token
p345
(dp346
g18
I62
sbasg21
Nsba(i__main__
Mention
p347
(dp348
g7
S't5'
p349
sg9
Nsg10
S'i31'
p350
sg12
Nsg13
Nsg14
(lp351
(i__main__
Token
p352
(dp353
g18
I76
sbasg21
Nsba(i__main__
Mention
p354
(dp355
g7
S't5'
p356
sg9
Nsg10
S'i47'
p357
sg12
Nsg13
Nsg14
(lp358
(i__main__
Token
p359
(dp360
g18
I135
sba(i__main__
Token
p361
(dp362
g18
I136
sbasg21
Nsba(i__main__
Mention
p363
(dp364
g7
S't5'
p365
sg9
Nsg10
S'i55'
p366
sg12
Nsg13
Nsg14
(lp367
(i__main__
Token
p368
(dp369
g18
I155
sbasg21
Nsba(i__main__
Mention
p370
(dp371
g7
S't5'
p372
sg9
Nsg10
S'i62'
p373
sg12
Nsg13
Nsg14
(lp374
(i__main__
Token
p375
(dp376
g18
I174
sbasg21
Nsba(i__main__
Mention
p377
(dp378
g7
S't5'
p379
sg9
Nsg10
S'i66'
p380
sg12
Nsg13
Nsg14
(lp381
(i__main__
Token
p382
(dp383
g18
I184
sba(i__main__
Token
p384
(dp385
g18
I185
sbasg21
Nsba(i__main__
Mention
p386
(dp387
g7
S't5'
p388
sg9
Nsg10
S'i70'
p389
sg12
Nsg13
Nsg14
(lp390
(i__main__
Token
p391
(dp392
g18
I193
sbasg21
Nsbasg7
g301
sg77
Nsba(i__main__
Chain
p393
(dp394
g3
(lp395
(i__main__
Mention
p396
(dp397
g7
S't6'
p398
sg9
Nsg10
S'i8'
p399
sg12
Nsg13
Nsg14
(lp400
(i__main__
Token
p401
(dp402
g18
I13
sbasg21
I13
sba(i__main__
Mention
p403
(dp404
g7
S't6'
p405
sg9
S'Coreference-Identity'
p406
sg10
S'i15'
p407
sg12
S'i8'
p408
sg13
Nsg14
(lp409
(i__main__
Token
p410
(dp411
g18
I34
sbasg21
I34
sba(i__main__
Mention
p412
(dp413
g7
S't6'
p414
sg9
S'Coreference-Identity'
p415
sg10
S'i56'
p416
sg12
S'i15'
p417
sg13
Nsg14
(lp418
(i__main__
Token
p419
(dp420
g18
I156
sbasg21
I156
sbasg7
g398
sg77
Nsba(i__main__
Chain
p421
(dp422
g3
(lp423
(i__main__
Mention
p424
(dp425
g7
S't7'
p426
sg9
Nsg10
S'i9'
p427
sg12
Nsg13
Nsg14
(lp428
(i__main__
Token
p429
(dp430
g18
I15
sba(i__main__
Token
p431
(dp432
g18
I16
sbasg21
I16
sba(i__main__
Mention
p433
(dp434
g7
S't7'
p435
sg9
S'Coreference-Identity'
p436
sg10
S'i39'
p437
sg12
S'i9'
p438
sg13
Nsg14
(lp439
(i__main__
Token
p440
(dp441
g18
I103
sba(i__main__
Token
p442
(dp443
g18
I104
sbasg21
I104
sba(i__main__
Mention
p444
(dp445
g7
S't7'
p446
sg9
S'Coreference-Identity'
p447
sg10
S'i42'
p448
sg12
S'i39'
p449
sg13
Nsg14
(lp450
(i__main__
Token
p451
(dp452
g18
I113
sba(i__main__
Token
p453
(dp454
g18
I114
sbasg21
I114
sba(i__main__
Mention
p455
(dp456
g7
S't7'
p457
sg9
S'Anaphora-C'
p458
sg10
S'i44'
p459
sg12
S'i42'
p460
sg13
Nsg14
(lp461
(i__main__
Token
p462
(dp463
g18
I125
sbasg21
I125
sba(i__main__
Mention
p464
(dp465
g7
S't7'
p466
sg9
S'Coreference-Noun-Noun'
p467
sg10
S'i57'
p468
sg12
S'i89'
p469
sg13
Nsg14
(lp470
(i__main__
Token
p471
(dp472
g18
I158
sba(i__main__
Token
p473
(dp474
g18
I159
sbasg21
I159
sba(i__main__
Mention
p475
(dp476
g7
S't7'
p477
sg9
S'Coreference-Identity'
p478
sg10
S'i60'
p479
sg12
S'i57'
p480
sg13
Nsg14
(lp481
(i__main__
Token
p482
(dp483
g18
I171
sba(i__main__
Token
p484
(dp485
g18
I172
sbasg21
I172
sbasg7
g426
sg77
Nsba(i__main__
Chain
p486
(dp487
g3
(lp488
(i__main__
Mention
p489
(dp490
g7
S't8'
p491
sg9
S'anaphora-?'
p492
sg10
S'i10'
p493
sg12
S'i10'
p494
sg13
Nsg14
(lp495
(i__main__
Token
p496
(dp497
g18
I18
sbasg21
I18
sbasg7
g491
sg77
Nsba(i__main__
Chain
p498
(dp499
g3
(lp500
(i__main__
Mention
p501
(dp502
g7
S't9'
p503
sg9
Nsg10
S'i20'
p504
sg12
Nsg13
Nsg14
(lp505
(i__main__
Token
p506
(dp507
g18
I45
sba(i__main__
Token
p508
(dp509
g18
I46
sba(i__main__
Token
p510
(dp511
g18
I47
sba(i__main__
Token
p512
(dp513
g18
I48
sba(i__main__
Token
p514
(dp515
g18
I49
sba(i__main__
Token
p516
(dp517
g18
I50
sba(i__main__
Token
p518
(dp519
g18
I51
sba(i__main__
Token
p520
(dp521
g18
I52
sba(i__main__
Token
p522
(dp523
g18
I53
sba(i__main__
Token
p524
(dp525
g18
I54
sba(i__main__
Token
p526
(dp527
g18
I55
sba(i__main__
Token
p528
(dp529
g18
I56
sba(i__main__
Token
p530
(dp531
g18
I57
sba(i__main__
Token
p532
(dp533
g18
I58
sbasg21
I57
sba(i__main__
Mention
p534
(dp535
g7
S't9'
p536
sg9
S'Anaphora-C'
p537
sg10
S'i22'
p538
sg12
S'i20'
p539
sg13
Nsg14
(lp540
(i__main__
Token
p541
(dp542
g18
I60
sbasg21
I60
sbasg7
g503
sg77
Nsba(i__main__
Chain
p543
(dp544
g3
(lp545
(i__main__
Mention
p546
(dp547
g7
S't10'
p548
sg9
Nsg10
S'i21'
p549
sg12
Nsg13
Nsg14
(lp550
(i__main__
Token
p551
(dp552
g18
I55
sbasg21
I55
sba(i__main__
Mention
p553
(dp554
g7
S't10'
p555
sg9
S'Coreference-Identity'
p556
sg10
S'i48'
p557
sg12
S'i21'
p558
sg13
Nsg14
(lp559
(i__main__
Token
p560
(dp561
g18
I145
sbasg21
I145
sba(i__main__
Mention
p562
(dp563
g7
S't10'
p564
sg9
S'Coreference-Identity'
p565
sg10
S'i63'
p566
sg12
S'i48'
p567
sg13
Nsg14
(lp568
(i__main__
Token
p569
(dp570
g18
I175
sbasg21
I175
sba(i__main__
Mention
p571
(dp572
g7
S't10'
p573
sg9
S'Coreference-Noun-Noun'
p574
sg10
S'i83'
p575
sg12
S'i63'
p576
sg13
Nsg14
(lp577
(i__main__
Token
p578
(dp579
g18
I240
sbasg21
I240
sbasg7
g548
sg77
Nsba(i__main__
Chain
p580
(dp581
g3
(lp582
(i__main__
Mention
p583
(dp584
g7
S't11'
p585
sg9
Nsg10
S'i27'
p586
sg12
Nsg13
Nsg14
(lp587
(i__main__
Token
p588
(dp589
g18
I64
sba(i__main__
Token
p590
(dp591
g18
I65
sbasg21
I65
sba(i__main__
Mention
p592
(dp593
g7
S't11'
p594
sg9
S'Coreference-NounComplement'
p595
sg10
S'i28'
p596
sg12
S'i27'
p597
sg13
Nsg14
(lp598
(i__main__
Token
p599
(dp600
g18
I66
sbasg21
I66
sba(i__main__
Mention
p601
(dp602
g7
S't11'
p603
sg9
S'Coreference-Identity'
p604
sg10
S'i67'
p605
sg12
S'i28'
p606
sg13
Nsg14
(lp607
(i__main__
Token
p608
(dp609
g18
I186
sbasg21
I186
sba(i__main__
Mention
p610
(dp611
g7
S't11'
p612
sg9
S'Coreference-Identity'
p613
sg10
S'i75'
p614
sg12
S'i70'
p615
sg13
Nsg14
(lp616
(i__main__
Token
p617
(dp618
g18
I209
sbasg21
I209
sba(i__main__
Mention
p619
(dp620
g7
S't11'
p621
sg9
S'Anaphora-C'
p622
sg10
S'i79'
p623
sg12
S'i75'
p624
sg13
Nsg14
(lp625
(i__main__
Token
p626
(dp627
g18
I226
sbasg21
I226
sbasg7
g585
sg77
Nsba(i__main__
Chain
p628
(dp629
g3
(lp630
(i__main__
Mention
p631
(dp632
g7
S't12'
p633
sg9
Nsg10
S'i29'
p634
sg12
Nsg13
Nsg14
(lp635
(i__main__
Token
p636
(dp637
g18
I68
sbasg21
I68
sba(i__main__
Mention
p638
(dp639
g7
S't12'
p640
sg9
S'Coreference-Identity'
p641
sg10
S'i68'
p642
sg12
S'i29'
p643
sg13
Nsg14
(lp644
(i__main__
Token
p645
(dp646
g18
I188
sbasg21
I188
sba(i__main__
Mention
p647
(dp648
g7
S't12'
p649
sg9
S'Anaphora-C'
p650
sg10
S'i69'
p651
sg12
S'i68'
p652
sg13
Nsg14
(lp653
(i__main__
Token
p654
(dp655
g18
I192
sbasg21
I192
sba(i__main__
Mention
p656
(dp657
g7
S't12'
p658
sg9
S'Coreference-Identity'
p659
sg10
S'i74'
p660
sg12
S'i69'
p661
sg13
Nsg14
(lp662
(i__main__
Token
p663
(dp664
g18
I204
sbasg21
I204
sbasg7
g633
sg77
Nsba(i__main__
Chain
p665
(dp666
g3
(lp667
(i__main__
Mention
p668
(dp669
g7
S't13'
p670
sg9
Nsg10
S'i34'
p671
sg12
Nsg13
Nsg14
(lp672
(i__main__
Token
p673
(dp674
g18
I91
sba(i__main__
Token
p675
(dp676
g18
I92
sbasg21
I92
sba(i__main__
Mention
p677
(dp678
g7
S't13'
p679
sg9
S'Anaphora-C'
p680
sg10
S'i38'
p681
sg12
S'i34'
p682
sg13
Nsg14
(lp683
(i__main__
Token
p684
(dp685
g18
I102
sbasg21
I102
sba(i__main__
Mention
p686
(dp687
g7
S't13'
p688
sg9
S'Coreference-Identity'
p689
sg10
S'i95'
p690
sg12
S'i38'
p691
sg13
Nsg14
(lp692
(i__main__
Token
p693
(dp694
g18
I321
sba(i__main__
Token
p695
(dp696
g18
I322
sbasg21
I322
sbasg7
g670
sg77
Nsba(i__main__
Chain
p697
(dp698
g3
(lp699
(i__main__
Mention
p700
(dp701
g7
S't14'
p702
sg9
S'anaphora-?'
p703
sg10
S'i35'
p704
sg12
S'i35'
p705
sg13
Nsg14
(lp706
(i__main__
Token
p707
(dp708
g18
I97
sbasg21
I97
sbasg7
g702
sg77
Nsba(i__main__
Chain
p709
(dp710
g3
(lp711
(i__main__
Mention
p712
(dp713
g7
S't15'
p714
sg9
Nsg10
S'i36'
p715
sg12
Nsg13
Nsg14
(lp716
(i__main__
Token
p717
(dp718
g18
I97
sba(i__main__
Token
p719
(dp720
g18
I98
sba(i__main__
Token
p721
(dp722
g18
I99
sba(i__main__
Token
p723
(dp724
g18
I100
sba(i__main__
Token
p725
(dp726
g18
I101
sba(i__main__
Token
p727
(dp728
g18
I102
sba(i__main__
Token
p729
(dp730
g18
I103
sba(i__main__
Token
p731
(dp732
g18
I104
sba(i__main__
Token
p733
(dp734
g18
I105
sba(i__main__
Token
p735
(dp736
g18
I106
sba(i__main__
Token
p737
(dp738
g18
I107
sba(i__main__
Token
p739
(dp740
g18
I108
sba(i__main__
Token
p741
(dp742
g18
I109
sba(i__main__
Token
p743
(dp744
g18
I110
sbasg21
I109
sba(i__main__
Mention
p745
(dp746
g7
S't15'
p747
sg9
S'Anaphora-C'
p748
sg10
S'i40'
p749
sg12
S'i36'
p750
sg13
Nsg14
(lp751
(i__main__
Token
p752
(dp753
g18
I112
sbasg21
I112
sbasg7
g714
sg77
Nsba(i__main__
Chain
p754
(dp755
g3
(lp756
(i__main__
Mention
p757
(dp758
g7
S't16'
p759
sg9
S'anaphora-?'
p760
sg10
S'i37'
p761
sg12
S'i37'
p762
sg13
Nsg14
(lp763
(i__main__
Token
p764
(dp765
g18
I99
sbasg21
I99
sbasg7
g759
sg77
Nsba(i__main__
Chain
p766
(dp767
g3
(lp768
(i__main__
Mention
p769
(dp770
g7
S't17'
p771
sg9
S'anaphora-?'
p772
sg10
S'i43'
p773
sg12
S'i43'
p774
sg13
Nsg14
(lp775
(i__main__
Token
p776
(dp777
g18
I117
sbasg21
I117
sbasg7
g771
sg77
Nsba(i__main__
Chain
p778
(dp779
g3
(lp780
(i__main__
Mention
p781
(dp782
g7
S't18'
p783
sg9
Nsg10
S'i49'
p784
sg12
Nsg13
Nsg14
(lp785
(i__main__
Token
p786
(dp787
g18
I145
sba(i__main__
Token
p788
(dp789
g18
I146
sba(i__main__
Token
p790
(dp791
g18
I147
sba(i__main__
Token
p792
(dp793
g18
I148
sba(i__main__
Token
p794
(dp795
g18
I149
sba(i__main__
Token
p796
(dp797
g18
I150
sba(i__main__
Token
p798
(dp799
g18
I151
sba(i__main__
Token
p800
(dp801
g18
I152
sba(i__main__
Token
p802
(dp803
g18
I153
sbasg21
I153
sba(i__main__
Mention
p804
(dp805
g7
S't18'
p806
sg9
S'Anaphora-C'
p807
sg10
S'i52'
p808
sg12
S'i49'
p809
sg13
Nsg14
(lp810
(i__main__
Token
p811
(dp812
g18
I154
sbasg21
I154
sbasg7
g783
sg77
Nsba(i__main__
Chain
p813
(dp814
g3
(lp815
(i__main__
Mention
p816
(dp817
g7
S't19'
p818
sg9
S'anaphora-?'
p819
sg10
S'i50'
p820
sg12
S'i50'
p821
sg13
Nsg14
(lp822
(i__main__
Token
p823
(dp824
g18
I147
sbasg21
I147
sbasg7
g818
sg77
Nsba(i__main__
Chain
p825
(dp826
g3
(lp827
(i__main__
Mention
p828
(dp829
g7
S't20'
p830
sg9
Nsg10
S'i76'
p831
sg12
Nsg13
Nsg14
(lp832
(i__main__
Token
p833
(dp834
g18
I209
sba(i__main__
Token
p835
(dp836
g18
I210
sba(i__main__
Token
p837
(dp838
g18
I211
sba(i__main__
Token
p839
(dp840
g18
I212
sba(i__main__
Token
p841
(dp842
g18
I213
sba(i__main__
Token
p843
(dp844
g18
I214
sba(i__main__
Token
p845
(dp846
g18
I215
sba(i__main__
Token
p847
(dp848
g18
I216
sba(i__main__
Token
p849
(dp850
g18
I217
sba(i__main__
Token
p851
(dp852
g18
I218
sba(i__main__
Token
p853
(dp854
g18
I219
sba(i__main__
Token
p855
(dp856
g18
I220
sbasg21
I220
sba(i__main__
Mention
p857
(dp858
g7
S't20'
p859
sg9
S'Anaphora-C'
p860
sg10
S'i78'
p861
sg12
S'i76'
p862
sg13
Nsg14
(lp863
(i__main__
Token
p864
(dp865
g18
I221
sbasg21
I221
sbasg7
g830
sg77
Nsba(i__main__
Chain
p866
(dp867
g3
(lp868
(i__main__
Mention
p869
(dp870
g7
S't21'
p871
sg9
S'anaphora-?'
p872
sg10
S'i84'
p873
sg12
S'i84'
p874
sg13
Nsg14
(lp875
(i__main__
Token
p876
(dp877
g18
I243
sbasg21
I243
sbasg7
g871
sg77
Nsba(i__main__
Chain
p878
(dp879
g3
(lp880
(i__main__
Mention
p881
(dp882
g7
S't22'
p883
sg9
S'anaphora-?'
p884
sg10
S'i86'
p885
sg12
S'i86'
p886
sg13
Nsg14
(lp887
(i__main__
Token
p888
(dp889
g18
I248
sbasg21
I248
sbasg7
g883
sg77
Nsba(i__main__
Chain
p890
(dp891
g3
(lp892
(i__main__
Mention
p893
(dp894
g7
S't23'
p895
sg9
Nsg10
S'i87'
p896
sg12
Nsg13
Nsg14
(lp897
(i__main__
Token
p898
(dp899
g18
I257
sba(i__main__
Token
p900
(dp901
g18
I258
sbasg21
I258
sba(i__main__
Mention
p902
(dp903
g7
S't23'
p904
sg9
S'Coreference-Identity'
p905
sg10
S'i93'
p906
sg12
S'i87'
p907
sg13
Nsg14
(lp908
(i__main__
Token
p909
(dp910
g18
I298
sba(i__main__
Token
p911
(dp912
g18
I299
sbasg21
I299
sbasg7
g895
sg77
Nsba(i__main__
Chain
p913
(dp914
g3
(lp915
(i__main__
Mention
p916
(dp917
g7
S't24'
p918
sg9
S'anaphora-?'
p919
sg10
S'i88'
p920
sg12
S'i88'
p921
sg13
Nsg14
(lp922
(i__main__
Token
p923
(dp924
g18
I263
sbasg21
I263
sbasg7
g918
sg77
Nsba(i__main__
Chain
p925
(dp926
g3
(lp927
(i__main__
Mention
p928
(dp929
g7
S't25'
p930
sg9
Nsg10
S'i89'
p931
sg12
Nsg13
Nsg14
(lp932
(i__main__
Token
p933
(dp934
g18
I265
sba(i__main__
Token
p935
(dp936
g18
I266
sba(i__main__
Token
p937
(dp938
g18
I267
sbasg21
I267
sba(i__main__
Mention
p939
(dp940
g7
S't25'
p941
sg9
S'Anaphora-C'
p942
sg10
S'i90'
p943
sg12
S'i89'
p944
sg13
Nsg14
(lp945
(i__main__
Token
p946
(dp947
g18
I273
sbasg21
I273
sbasg7
g930
sg77
Nsba(i__main__
Chain
p948
(dp949
g3
(lp950
(i__main__
Mention
p951
(dp952
g7
S't26'
p953
sg9
S'anaphora-?'
p954
sg10
S'i91'
p955
sg12
S'i91'
p956
sg13
Nsg14
(lp957
(i__main__
Token
p958
(dp959
g18
I274
sbasg21
I274
sbasg7
g953
sg77
Nsba.