(lp0
(i__main__
Chain
p1
(dp2
S'mentionList'
p3
(lp4
(i__main__
Mention
p5
(dp6
S'chainId'
p7
S't1'
p8
sS'relType'
p9
NsS'mentionId'
p10
S'i1'
p11
sS'antecedentId'
p12
NsS'crefMod'
p13
NsS'tokenList'
p14
(lp15
(i__main__
Token
p16
(dp17
S'tokenId'
p18
I0
sba(i__main__
Token
p19
(dp20
g18
I1
sbasS'mentionHead'
p21
I1
sba(i__main__
Mention
p22
(dp23
g7
S't1'
p24
sg9
S'Coreference-NounComplement'
p25
sg10
S'i2'
p26
sg12
S'i1'
p27
sg13
Nsg14
(lp28
(i__main__
Token
p29
(dp30
g18
I2
sba(i__main__
Token
p31
(dp32
g18
I3
sba(i__main__
Token
p33
(dp34
g18
I4
sbasg21
I4
sba(i__main__
Mention
p35
(dp36
g7
S't1'
p37
sg9
S'Coreference-Identity'
p38
sg10
S'i14'
p39
sg12
S'i2'
p40
sg13
Nsg14
(lp41
(i__main__
Token
p42
(dp43
g18
I34
sbasg21
I34
sba(i__main__
Mention
p44
(dp45
g7
S't1'
p46
sg9
S'Coreference-Identity'
p47
sg10
S'i32'
p48
sg12
S'i14'
p49
sg13
Nsg14
(lp50
(i__main__
Token
p51
(dp52
g18
I122
sbasg21
I122
sbasg7
g8
sS'chainHead'
p53
Nsba(i__main__
Chain
p54
(dp55
g3
(lp56
(i__main__
Mention
p57
(dp58
g7
S't2'
p59
sg9
Nsg10
S'i3'
p60
sg12
Nsg13
Nsg14
(lp61
(i__main__
Token
p62
(dp63
g18
I6
sba(i__main__
Token
p64
(dp65
g18
I7
sba(i__main__
Token
p66
(dp67
g18
I8
sbasg21
I8
sba(i__main__
Mention
p68
(dp69
g7
S't2'
p70
sg9
S'Coreference-Identity'
p71
sg10
S'i10'
p72
sg12
S'i3'
p73
sg13
Nsg14
(lp74
(i__main__
Token
p75
(dp76
g18
I20
sbasg21
I20
sba(i__main__
Mention
p77
(dp78
g7
S't2'
p79
sg9
S'Coreference-Identity'
p80
sg10
S'i33'
p81
sg12
S'i10'
p82
sg13
Nsg14
(lp83
(i__main__
Token
p84
(dp85
g18
I124
sbasg21
I124
sbasg7
g59
sg53
Nsba(i__main__
Chain
p86
(dp87
g3
(lp88
(i__main__
Mention
p89
(dp90
g7
S't3'
p91
sg9
Nsg10
S'i4'
p92
sg12
Nsg13
Nsg14
(lp93
(i__main__
Token
p94
(dp95
g18
I7
sbasg21
I7
sba(i__main__
Mention
p96
(dp97
g7
S't3'
p98
sg9
Nsg10
S'i5'
p99
sg12
Nsg13
Nsg14
(lp100
(i__main__
Token
p101
(dp102
g18
I10
sba(i__main__
Token
p103
(dp104
g18
I11
sbasg21
Nsba(i__main__
Mention
p105
(dp106
g7
S't3'
p107
sg9
S'Coreference-PartOf'
p108
sg10
S'i16'
p109
sg12
S'i5'
p110
sg13
Nsg14
(lp111
(i__main__
Token
p112
(dp113
g18
I51
sbasg21
I51
sba(i__main__
Mention
p114
(dp115
g7
S't3'
p116
sg9
S'Coreference-Identity'
p117
sg10
S'i26'
p118
sg12
S'i16'
p119
sg13
Nsg14
(lp120
(i__main__
Token
p121
(dp122
g18
I95
sbasg21
I95
sba(i__main__
Mention
p123
(dp124
g7
S't3'
p125
sg9
Nsg10
S'i34'
p126
sg12
Nsg13
Nsg14
(lp127
(i__main__
Token
p128
(dp129
g18
I126
sba(i__main__
Token
p130
(dp131
g18
I127
sbasg21
Nsba(i__main__
Mention
p132
(dp133
g7
S't3'
p134
sg9
S'Coreference-PartOf'
p135
sg10
S'i50'
p136
sg12
S'i34'
p137
sg13
Nsg14
(lp138
(i__main__
Token
p139
(dp140
g18
I218
sbasg21
I218
sbasg7
g91
sg53
Nsba(i__main__
Chain
p141
(dp142
g3
(lp143
(i__main__
Mention
p144
(dp145
g7
S't4'
p146
sg9
Nsg10
S'i6'
p147
sg12
Nsg13
Nsg14
(lp148
(i__main__
Token
p149
(dp150
g18
I10
sba(i__main__
Token
p151
(dp152
g18
I11
sbasg21
Nsba(i__main__
Mention
p153
(dp154
g7
S't4'
p155
sg9
S'Coreference-PartOf'
p156
sg10
S'i17'
p157
sg12
S'i6'
p158
sg13
Nsg14
(lp159
(i__main__
Token
p160
(dp161
g18
I53
sbasg21
I53
sba(i__main__
Mention
p162
(dp163
g7
S't4'
p164
sg9
Nsg10
S'i35'
p165
sg12
Nsg13
Nsg14
(lp166
(i__main__
Token
p167
(dp168
g18
I126
sba(i__main__
Token
p169
(dp170
g18
I127
sbasg21
Nsbasg7
g146
sg53
Nsba(i__main__
Chain
p171
(dp172
g3
(lp173
(i__main__
Mention
p174
(dp175
g7
S't5'
p176
sg9
Nsg10
S'i7'
p177
sg12
Nsg13
Nsg14
(lp178
(i__main__
Token
p179
(dp180
g18
I14
sbasg21
I14
sba(i__main__
Mention
p181
(dp182
g7
S't5'
p183
sg9
S'Coreference-Identity'
p184
sg10
S'i11'
p185
sg12
S'i7'
p186
sg13
Nsg14
(lp187
(i__main__
Token
p188
(dp189
g18
I23
sbasg21
I23
sba(i__main__
Mention
p190
(dp191
g7
S't5'
p192
sg9
S'Coreference-Identity'
p193
sg10
S'i15'
p194
sg12
S'i11'
p195
sg13
Nsg14
(lp196
(i__main__
Token
p197
(dp198
g18
I43
sbasg21
I43
sba(i__main__
Mention
p199
(dp200
g7
S't5'
p201
sg9
S'Coreference-Identity'
p202
sg10
S'i18'
p203
sg12
S'i15'
p204
sg13
Nsg14
(lp205
(i__main__
Token
p206
(dp207
g18
I55
sbasg21
I55
sba(i__main__
Mention
p208
(dp209
g7
S't5'
p210
sg9
S'Coreference-Identity'
p211
sg10
S'i21'
p212
sg12
S'i18'
p213
sg13
Nsg14
(lp214
(i__main__
Token
p215
(dp216
g18
I69
sbasg21
I69
sba(i__main__
Mention
p217
(dp218
g7
S't5'
p219
sg9
S'Coreference-Identity'
p220
sg10
S'i24'
p221
sg12
S'i21'
p222
sg13
Nsg14
(lp223
(i__main__
Token
p224
(dp225
g18
I90
sbasg21
I90
sba(i__main__
Mention
p226
(dp227
g7
S't5'
p228
sg9
S'Coreference-Identity'
p229
sg10
S'i29'
p230
sg12
S'i24'
p231
sg13
Nsg14
(lp232
(i__main__
Token
p233
(dp234
g18
I109
sbasg21
I109
sba(i__main__
Mention
p235
(dp236
g7
S't5'
p237
sg9
S'Coreference-Identity'
p238
sg10
S'i38'
p239
sg12
S'i29'
p240
sg13
Nsg14
(lp241
(i__main__
Token
p242
(dp243
g18
I132
sbasg21
I132
sba(i__main__
Mention
p244
(dp245
g7
S't5'
p246
sg9
S'Coreference-Identity'
p247
sg10
S'i41'
p248
sg12
S'i38'
p249
sg13
Nsg14
(lp250
(i__main__
Token
p251
(dp252
g18
I148
sbasg21
I148
sba(i__main__
Mention
p253
(dp254
g7
S't5'
p255
sg9
S'Coreference-Identity'
p256
sg10
S'i42'
p257
sg12
S'i41'
p258
sg13
Nsg14
(lp259
(i__main__
Token
p260
(dp261
g18
I156
sbasg21
I156
sba(i__main__
Mention
p262
(dp263
g7
S't5'
p264
sg9
S'Coreference-Identity'
p265
sg10
S'i44'
p266
sg12
S'i42'
p267
sg13
Nsg14
(lp268
(i__main__
Token
p269
(dp270
g18
I173
sbasg21
I173
sba(i__main__
Mention
p271
(dp272
g7
S't5'
p273
sg9
S'Coreference-Identity'
p274
sg10
S'i45'
p275
sg12
S'i44'
p276
sg13
Nsg14
(lp277
(i__main__
Token
p278
(dp279
g18
I177
sbasg21
I177
sba(i__main__
Mention
p280
(dp281
g7
S't5'
p282
sg9
S'Coreference-Identity'
p283
sg10
S'i48'
p284
sg12
S'i45'
p285
sg13
Nsg14
(lp286
(i__main__
Token
p287
(dp288
g18
I191
sbasg21
I191
sba(i__main__
Mention
p289
(dp290
g7
S't5'
p291
sg9
S'Coreference-Identity'
p292
sg10
S'i49'
p293
sg12
S'i48'
p294
sg13
Nsg14
(lp295
(i__main__
Token
p296
(dp297
g18
I198
sbasg21
I198
sba(i__main__
Mention
p298
(dp299
g7
S't5'
p300
sg9
S'Coreference-Identity'
p301
sg10
S'i51'
p302
sg12
S'i49'
p303
sg13
Nsg14
(lp304
(i__main__
Token
p305
(dp306
g18
I221
sbasg21
I221
sba(i__main__
Mention
p307
(dp308
g7
S't5'
p309
sg9
S'Coreference-Identity'
p310
sg10
S'i52'
p311
sg12
S'i51'
p312
sg13
Nsg14
(lp313
(i__main__
Token
p314
(dp315
g18
I224
sbasg21
I224
sbasg7
g176
sg53
Nsba(i__main__
Chain
p316
(dp317
g3
(lp318
(i__main__
Mention
p319
(dp320
g7
S't6'
p321
sg9
Nsg10
S'i8'
p322
sg12
Nsg13
Nsg14
(lp323
(i__main__
Token
p324
(dp325
g18
I14
sba(i__main__
Token
p326
(dp327
g18
I15
sbasg21
I15
sba(i__main__
Mention
p328
(dp329
g7
S't6'
p330
sg9
S'Coreference-Identity'
p331
sg10
S'i12'
p332
sg12
S'i8'
p333
sg13
Nsg14
(lp334
(i__main__
Token
p335
(dp336
g18
I23
sba(i__main__
Token
p337
(dp338
g18
I24
sbasg21
I24
sbasg7
g321
sg53
Nsba(i__main__
Chain
p339
(dp340
g3
(lp341
(i__main__
Mention
p342
(dp343
g7
S't7'
p344
sg9
Nsg10
S'i9'
p345
sg12
Nsg13
Nsg14
(lp346
(i__main__
Token
p347
(dp348
g18
I17
sbasg21
I17
sba(i__main__
Mention
p349
(dp350
g7
S't7'
p351
sg9
S'Coreference-Identity'
p352
sg10
S'i13'
p353
sg12
S'i9'
p354
sg13
Nsg14
(lp355
(i__main__
Token
p356
(dp357
g18
I26
sbasg21
I26
sba(i__main__
Mention
p358
(dp359
g7
S't7'
p360
sg9
S'Coreference-Identity'
p361
sg10
S'i19'
p362
sg12
S'i13'
p363
sg13
Nsg14
(lp364
(i__main__
Token
p365
(dp366
g18
I57
sba(i__main__
Token
p367
(dp368
g18
I58
sbasg21
I58
sba(i__main__
Mention
p369
(dp370
g7
S't7'
p371
sg9
S'Coreference-Identity'
p372
sg10
S'i39'
p373
sg12
S'i19'
p374
sg13
Nsg14
(lp375
(i__main__
Token
p376
(dp377
g18
I136
sbasg21
I136
sba(i__main__
Mention
p378
(dp379
g7
S't7'
p380
sg9
S'Coreference-Identity'
p381
sg10
S'i43'
p382
sg12
S'i39'
p383
sg13
Nsg14
(lp384
(i__main__
Token
p385
(dp386
g18
I164
sbasg21
I164
sba(i__main__
Mention
p387
(dp388
g7
S't7'
p389
sg9
S'Coreference-Identity'
p390
sg10
S'i53'
p391
sg12
S'i43'
p392
sg13
Nsg14
(lp393
(i__main__
Token
p394
(dp395
g18
I228
sbasg21
I228
sbasg7
g344
sg53
Nsba(i__main__
Chain
p396
(dp397
g3
(lp398
(i__main__
Mention
p399
(dp400
g7
S't8'
p401
sg9
Nsg10
S'i20'
p402
sg12
Nsg13
Nsg14
(lp403
(i__main__
Token
p404
(dp405
g18
I68
sba(i__main__
Token
p406
(dp407
g18
I69
sba(i__main__
Token
p408
(dp409
g18
I70
sba(i__main__
Token
p410
(dp411
g18
I71
sbasg21
I71
sba(i__main__
Mention
p412
(dp413
g7
S't8'
p414
sg9
Nsg10
S'i36'
p415
sg12
Nsg13
Nsg14
(lp416
(i__main__
Token
p417
(dp418
g18
I129
sba(i__main__
Token
p419
(dp420
g18
I130
sbasg21
Nsbasg7
g401
sg53
Nsba(i__main__
Chain
p421
(dp422
g3
(lp423
(i__main__
Mention
p424
(dp425
g7
S't9'
p426
sg9
Nsg10
S'i22'
p427
sg12
Nsg13
Nsg14
(lp428
(i__main__
Token
p429
(dp430
g18
I74
sba(i__main__
Token
p431
(dp432
g18
I75
sba(i__main__
Token
p433
(dp434
g18
I76
sbasg21
I76
sba(i__main__
Mention
p435
(dp436
g7
S't9'
p437
sg9
Nsg10
S'i37'
p438
sg12
Nsg13
Nsg14
(lp439
(i__main__
Token
p440
(dp441
g18
I129
sba(i__main__
Token
p442
(dp443
g18
I130
sbasg21
Nsbasg7
g426
sg53
Nsba(i__main__
Chain
p444
(dp445
g3
(lp446
(i__main__
Mention
p447
(dp448
g7
S't10'
p449
sg9
Nsg10
S'i23'
p450
sg12
Nsg13
Nsg14
(lp451
(i__main__
Token
p452
(dp453
g18
I89
sba(i__main__
Token
p454
(dp455
g18
I90
sba(i__main__
Token
p456
(dp457
g18
I91
sbasg21
I91
sba(i__main__
Mention
p458
(dp459
g7
S't10'
p460
sg9
S'Coreference-NounComplement'
p461
sg10
S'i25'
p462
sg12
S'i23'
p463
sg13
Nsg14
(lp464
(i__main__
Token
p465
(dp466
g18
I92
sba(i__main__
Token
p467
(dp468
g18
I93
sbasg21
I93
sbasg7
g449
sg53
Nsba(i__main__
Chain
p469
(dp470
g3
(lp471
(i__main__
Mention
p472
(dp473
g7
S't11'
p474
sg9
Nsg10
S'i27'
p475
sg12
Nsg13
Nsg14
(lp476
(i__main__
Token
p477
(dp478
g18
I108
sba(i__main__
Token
p479
(dp480
g18
I109
sba(i__main__
Token
p481
(dp482
g18
I110
sba(i__main__
Token
p483
(dp484
g18
I111
sbasg21
I111
sba(i__main__
Mention
p485
(dp486
g7
S't11'
p487
sg9
S'Coreference-Abbreviation'
p488
sg10
S'i30'
p489
sg12
S'i27'
p490
sg13
Nsg14
(lp491
(i__main__
Token
p492
(dp493
g18
I113
sbasg21
I113
sbasg7
g474
sg53
Nsba(i__main__
Chain
p494
(dp495
g3
(lp496
(i__main__
Mention
p497
(dp498
g7
S't12'
p499
sg9
Nsg10
S'i28'
p500
sg12
Nsg13
Nsg14
(lp501
(i__main__
Token
p502
(dp503
g18
I116
sbasg21
I116
sba(i__main__
Mention
p504
(dp505
g7
S't12'
p506
sg9
S'Coreference-NounComplement'
p507
sg10
S'i31'
p508
sg12
S'i28'
p509
sg13
Nsg14
(lp510
(i__main__
Token
p511
(dp512
g18
I117
sba(i__main__
Token
p513
(dp514
g18
I118
sbasg21
I118
sba(i__main__
Mention
p515
(dp516
g7
S't12'
p517
sg9
S'Anaphora-C'
p518
sg10
S'i40'
p519
sg12
S'i31'
p520
sg13
Nsg14
(lp521
(i__main__
Token
p522
(dp523
g18
I142
sbasg21
I142
sbasg7
g499
sg53
Nsba(i__main__
Chain
p524
(dp525
g3
(lp526
(i__main__
Mention
p527
(dp528
g7
S't13'
p529
sg9
Nsg10
S'i46'
p530
sg12
Nsg13
Nsg14
(lp531
(i__main__
Token
p532
(dp533
g18
I181
sba(i__main__
Token
p534
(dp535
g18
I182
sbasg21
I182
sba(i__main__
Mention
p536
(dp537
g7
S't13'
p538
sg9
S'Coreference-Noun-Noun'
p539
sg10
S'i47'
p540
sg12
S'i46'
p541
sg13
Nsg14
(lp542
(i__main__
Token
p543
(dp544
g18
I188
sba(i__main__
Token
p545
(dp546
g18
I189
sbasg21
I189
sbasg7
g529
sg53
Nsba.