(lp0
(i__main__
Chain
p1
(dp2
S'mentionList'
p3
(lp4
(i__main__
Mention
p5
(dp6
S'chainId'
p7
S't1'
p8
sS'relType'
p9
NsS'mentionId'
p10
S'i1'
p11
sS'antecedentId'
p12
NsS'crefMod'
p13
NsS'tokenList'
p14
(lp15
(i__main__
Token
p16
(dp17
S'tokenId'
p18
I0
sbasS'mentionHead'
p19
I0
sba(i__main__
Mention
p20
(dp21
g7
S't1'
p22
sg9
S'Coreference-Identity'
p23
sg10
S'i6'
p24
sg12
S'i1'
p25
sg13
Nsg14
(lp26
(i__main__
Token
p27
(dp28
g18
I33
sbasg19
I33
sba(i__main__
Mention
p29
(dp30
g7
S't1'
p31
sg9
S'Coreference-Identity'
p32
sg10
S'i8'
p33
sg12
S'i6'
p34
sg13
Nsg14
(lp35
(i__main__
Token
p36
(dp37
g18
I48
sbasg19
I48
sba(i__main__
Mention
p38
(dp39
g7
S't1'
p40
sg9
S'Coreference-Identity'
p41
sg10
S'i12'
p42
sg12
S'i8'
p43
sg13
Nsg14
(lp44
(i__main__
Token
p45
(dp46
g18
I79
sbasg19
I79
sba(i__main__
Mention
p47
(dp48
g7
S't1'
p49
sg9
S'Coreference-Identity'
p50
sg10
S'i16'
p51
sg12
S'i12'
p52
sg13
Nsg14
(lp53
(i__main__
Token
p54
(dp55
g18
I107
sbasg19
I107
sba(i__main__
Mention
p56
(dp57
g7
S't1'
p58
sg9
S'Coreference-Identity'
p59
sg10
S'i19'
p60
sg12
S'i16'
p61
sg13
Nsg14
(lp62
(i__main__
Token
p63
(dp64
g18
I130
sbasg19
I130
sba(i__main__
Mention
p65
(dp66
g7
S't1'
p67
sg9
S'Coreference-Identity'
p68
sg10
S'i22'
p69
sg12
S'i19'
p70
sg13
Nsg14
(lp71
(i__main__
Token
p72
(dp73
g18
I153
sbasg19
I153
sba(i__main__
Mention
p74
(dp75
g7
S't1'
p76
sg9
S'Coreference-Identity'
p77
sg10
S'i24'
p78
sg12
S'i22'
p79
sg13
Nsg14
(lp80
(i__main__
Token
p81
(dp82
g18
I169
sbasg19
I169
sba(i__main__
Mention
p83
(dp84
g7
S't1'
p85
sg9
S'Coreference-Identity'
p86
sg10
S'i27'
p87
sg12
S'i24'
p88
sg13
Nsg14
(lp89
(i__main__
Token
p90
(dp91
g18
I192
sbasg19
I192
sba(i__main__
Mention
p92
(dp93
g7
S't1'
p94
sg9
S'Coreference-Identity'
p95
sg10
S'i36'
p96
sg12
S'i27'
p97
sg13
Nsg14
(lp98
(i__main__
Token
p99
(dp100
g18
I279
sbasg19
I279
sba(i__main__
Mention
p101
(dp102
g7
S't1'
p103
sg9
S'Coreference-Identity'
p104
sg10
S'i37'
p105
sg12
S'i36'
p106
sg13
Nsg14
(lp107
(i__main__
Token
p108
(dp109
g18
I290
sbasg19
I290
sba(i__main__
Mention
p110
(dp111
g7
S't1'
p112
sg9
S'Coreference-Identity'
p113
sg10
S'i41'
p114
sg12
S'i37'
p115
sg13
Nsg14
(lp116
(i__main__
Token
p117
(dp118
g18
I320
sbasg19
I320
sba(i__main__
Mention
p119
(dp120
g7
S't1'
p121
sg9
S'Coreference-Identity'
p122
sg10
S'i53'
p123
sg12
S'i41'
p124
sg13
Nsg14
(lp125
(i__main__
Token
p126
(dp127
g18
I378
sbasg19
I378
sbasg7
g8
sS'chainHead'
p128
Nsba(i__main__
Chain
p129
(dp130
g3
(lp131
(i__main__
Mention
p132
(dp133
g7
S't2'
p134
sg9
Nsg10
S'i2'
p135
sg12
Nsg13
Nsg14
(lp136
(i__main__
Token
p137
(dp138
g18
I5
sba(i__main__
Token
p139
(dp140
g18
I6
sbasg19
I6
sba(i__main__
Mention
p141
(dp142
g7
S't2'
p143
sg9
S'Coreference-Identity'
p144
sg10
S'i4'
p145
sg12
S'i2'
p146
sg13
Nsg14
(lp147
(i__main__
Token
p148
(dp149
g18
I21
sba(i__main__
Token
p150
(dp151
g18
I22
sbasg19
I22
sba(i__main__
Mention
p152
(dp153
g7
S't2'
p154
sg9
S'Coreference-Noun-Noun'
p155
sg10
S'i11'
p156
sg12
S'i4'
p157
sg13
Nsg14
(lp158
(i__main__
Token
p159
(dp160
g18
I72
sbasg19
I72
sba(i__main__
Mention
p161
(dp162
g7
S't2'
p163
sg9
S'Coreference-Noun-Noun'
p164
sg10
S'i13'
p165
sg12
S'i11'
p166
sg13
Nsg14
(lp167
(i__main__
Token
p168
(dp169
g18
I90
sba(i__main__
Token
p170
(dp171
g18
I91
sbasg19
I91
sba(i__main__
Mention
p172
(dp173
g7
S't2'
p174
sg9
S'Coreference-Identity'
p175
sg10
S'i20'
p176
sg12
S'i13'
p177
sg13
Nsg14
(lp178
(i__main__
Token
p179
(dp180
g18
I142
sba(i__main__
Token
p181
(dp182
g18
I143
sbasg19
I143
sba(i__main__
Mention
p183
(dp184
g7
S't2'
p185
sg9
S'Coreference-Noun-Noun'
p186
sg10
S'i23'
p187
sg12
S'i20'
p188
sg13
Nsg14
(lp189
(i__main__
Token
p190
(dp191
g18
I164
sbasg19
I164
sba(i__main__
Mention
p192
(dp193
g7
S't2'
p194
sg9
S'Coreference-Identity'
p195
sg10
S'i28'
p196
sg12
S'i23'
p197
sg13
Nsg14
(lp198
(i__main__
Token
p199
(dp200
g18
I201
sbasg19
I201
sba(i__main__
Mention
p201
(dp202
g7
S't2'
p203
sg9
S'Coreference-Noun-Noun'
p204
sg10
S'i34'
p205
sg12
S'i28'
p206
sg13
Nsg14
(lp207
(i__main__
Token
p208
(dp209
g18
I242
sba(i__main__
Token
p210
(dp211
g18
I243
sbasg19
I243
sbasg7
g134
sg128
Nsba(i__main__
Chain
p212
(dp213
g3
(lp214
(i__main__
Mention
p215
(dp216
g7
S't3'
p217
sg9
Nsg10
S'i3'
p218
sg12
Nsg13
Nsg14
(lp219
(i__main__
Token
p220
(dp221
g18
I8
sba(i__main__
Token
p222
(dp223
g18
I9
sbasg19
I9
sba(i__main__
Mention
p224
(dp225
g7
S't3'
p226
sg9
S'Coreference-Identity'
p227
sg10
S'i7'
p228
sg12
S'i3'
p229
sg13
Nsg14
(lp230
(i__main__
Token
p231
(dp232
g18
I42
sba(i__main__
Token
p233
(dp234
g18
I43
sbasg19
I43
sba(i__main__
Mention
p235
(dp236
g7
S't3'
p237
sg9
S'Coreference-Identity'
p238
sg10
S'i14'
p239
sg12
S'i7'
p240
sg13
Nsg14
(lp241
(i__main__
Token
p242
(dp243
g18
I93
sba(i__main__
Token
p244
(dp245
g18
I94
sbasg19
I94
sba(i__main__
Mention
p246
(dp247
g7
S't3'
p248
sg9
S'Coreference-Identity'
p249
sg10
S'i33'
p250
sg12
S'i14'
p251
sg13
Nsg14
(lp252
(i__main__
Token
p253
(dp254
g18
I240
sba(i__main__
Token
p255
(dp256
g18
I241
sbasg19
I241
sba(i__main__
Mention
p257
(dp258
g7
S't3'
p259
sg9
S'Anaphora-C'
p260
sg10
S'i35'
p261
sg12
S'i33'
p262
sg13
Nsg14
(lp263
(i__main__
Token
p264
(dp265
g18
I253
sbasg19
I253
sba(i__main__
Mention
p266
(dp267
g7
S't3'
p268
sg9
S'Coreference-Identity'
p269
sg10
S'i38'
p270
sg12
S'i35'
p271
sg13
Nsg14
(lp272
(i__main__
Token
p273
(dp274
g18
I296
sbasg19
I296
sbasg7
g217
sg128
Nsba(i__main__
Chain
p275
(dp276
g3
(lp277
(i__main__
Mention
p278
(dp279
g7
S't4'
p280
sg9
Nsg10
S'i5'
p281
sg12
Nsg13
Nsg14
(lp282
(i__main__
Token
p283
(dp284
g18
I29
sba(i__main__
Token
p285
(dp286
g18
I30
sbasg19
I30
sba(i__main__
Mention
p287
(dp288
g7
S't4'
p289
sg9
S'Coreference-Identity'
p290
sg10
S'i15'
p291
sg12
S'i5'
p292
sg13
Nsg14
(lp293
(i__main__
Token
p294
(dp295
g18
I96
sba(i__main__
Token
p296
(dp297
g18
I97
sbasg19
I97
sba(i__main__
Mention
p298
(dp299
g7
S't4'
p300
sg9
S'Coreference-Identity'
p301
sg10
S'i21'
p302
sg12
S'i15'
p303
sg13
Nsg14
(lp304
(i__main__
Token
p305
(dp306
g18
I149
sba(i__main__
Token
p307
(dp308
g18
I150
sbasg19
I150
sbasg7
g280
sg128
Nsba(i__main__
Chain
p309
(dp310
g3
(lp311
(i__main__
Mention
p312
(dp313
g7
S't5'
p314
sg9
Nsg10
S'i9'
p315
sg12
Nsg13
Nsg14
(lp316
(i__main__
Token
p317
(dp318
g18
I51
sba(i__main__
Token
p319
(dp320
g18
I52
sba(i__main__
Token
p321
(dp322
g18
I53
sbasg19
I53
sba(i__main__
Mention
p323
(dp324
g7
S't5'
p325
sg9
S'Anaphora-C'
p326
sg10
S'i10'
p327
sg12
S'i9'
p328
sg13
Nsg14
(lp329
(i__main__
Token
p330
(dp331
g18
I59
sbasg19
I59
sbasg7
g314
sg128
Nsba(i__main__
Chain
p332
(dp333
g3
(lp334
(i__main__
Mention
p335
(dp336
g7
S't6'
p337
sg9
Nsg10
S'i17'
p338
sg12
Nsg13
Nsg14
(lp339
(i__main__
Token
p340
(dp341
g18
I115
sba(i__main__
Token
p342
(dp343
g18
I116
sba(i__main__
Token
p344
(dp345
g18
I117
sba(i__main__
Token
p346
(dp347
g18
I118
sba(i__main__
Token
p348
(dp349
g18
I119
sba(i__main__
Token
p350
(dp351
g18
I120
sba(i__main__
Token
p352
(dp353
g18
I121
sbasg19
I121
sba(i__main__
Mention
p354
(dp355
g7
S't6'
p356
sg9
S'Coreference-Abbreviation'
p357
sg10
S'i18'
p358
sg12
S'i17'
p359
sg13
Nsg14
(lp360
(i__main__
Token
p361
(dp362
g18
I123
sbasg19
I123
sba(i__main__
Mention
p363
(dp364
g7
S't6'
p365
sg9
S'Coreference-Identity'
p366
sg10
S'i43'
p367
sg12
S'i18'
p368
sg13
Nsg14
(lp369
(i__main__
Token
p370
(dp371
g18
I330
sbasg19
I330
sbasg7
g337
sg128
Nsba(i__main__
Chain
p372
(dp373
g3
(lp374
(i__main__
Mention
p375
(dp376
g7
S't7'
p377
sg9
Nsg10
S'i25'
p378
sg12
Nsg13
Nsg14
(lp379
(i__main__
Token
p380
(dp381
g18
I172
sba(i__main__
Token
p382
(dp383
g18
I173
sba(i__main__
Token
p384
(dp385
g18
I174
sbasg19
I174
sba(i__main__
Mention
p386
(dp387
g7
S't7'
p388
sg9
S'Anaphora-C'
p389
sg10
S'i26'
p390
sg12
S'i25'
p391
sg13
Nsg14
(lp392
(i__main__
Token
p393
(dp394
g18
I177
sbasg19
I177
sbasg7
g377
sg128
Nsba(i__main__
Chain
p395
(dp396
g3
(lp397
(i__main__
Mention
p398
(dp399
g7
S't8'
p400
sg9
Nsg10
S'i29'
p401
sg12
Nsg13
Nsg14
(lp402
(i__main__
Token
p403
(dp404
g18
I208
sbasg19
I208
sba(i__main__
Mention
p405
(dp406
g7
S't8'
p407
sg9
S'Coreference-Identity'
p408
sg10
S'i31'
p409
sg12
S'i29'
p410
sg13
Nsg14
(lp411
(i__main__
Token
p412
(dp413
g18
I226
sbasg19
I226
sba(i__main__
Mention
p414
(dp415
g7
S't8'
p416
sg9
S'Coreference-Identity'
p417
sg10
S'i39'
p418
sg12
S'i31'
p419
sg13
Nsg14
(lp420
(i__main__
Token
p421
(dp422
g18
I303
sbasg19
I303
sbasg7
g400
sg128
Nsba(i__main__
Chain
p423
(dp424
g3
(lp425
(i__main__
Mention
p426
(dp427
g7
S't9'
p428
sg9
Nsg10
S'i30'
p429
sg12
Nsg13
Nsg14
(lp430
(i__main__
Token
p431
(dp432
g18
I215
sbasg19
I215
sba(i__main__
Mention
p433
(dp434
g7
S't9'
p435
sg9
S'Coreference-Identity'
p436
sg10
S'i32'
p437
sg12
S'i30'
p438
sg13
Nsg14
(lp439
(i__main__
Token
p440
(dp441
g18
I231
sbasg19
I231
sba(i__main__
Mention
p442
(dp443
g7
S't9'
p444
sg9
S'Coreference-Identity'
p445
sg10
S'i40'
p446
sg12
S'i32'
p447
sg13
Nsg14
(lp448
(i__main__
Token
p449
(dp450
g18
I310
sbasg19
I310
sbasg7
g428
sg128
Nsba(i__main__
Chain
p451
(dp452
g3
(lp453
(i__main__
Mention
p454
(dp455
g7
S't10'
p456
sg9
Nsg10
S'i42'
p457
sg12
Nsg13
Nsg14
(lp458
(i__main__
Token
p459
(dp460
g18
I324
sba(i__main__
Token
p461
(dp462
g18
I325
sba(i__main__
Token
p463
(dp464
g18
I326
sba(i__main__
Token
p465
(dp466
g18
I327
sbasg19
I327
sba(i__main__
Mention
p467
(dp468
g7
S't10'
p469
sg9
S'Coreference-Identity'
p470
sg10
S'i46'
p471
sg12
S'i42'
p472
sg13
Nsg14
(lp473
(i__main__
Token
p474
(dp475
g18
I343
sba(i__main__
Token
p476
(dp477
g18
I344
sbasg19
I344
sba(i__main__
Mention
p478
(dp479
g7
S't10'
p480
sg9
S'Coreference-Identity'
p481
sg10
S'i50'
p482
sg12
S'i46'
p483
sg13
Nsg14
(lp484
(i__main__
Token
p485
(dp486
g18
I360
sbasg19
I360
sba(i__main__
Mention
p487
(dp488
g7
S't10'
p489
sg9
S'Coreference-Identity'
p490
sg10
S'i52'
p491
sg12
S'i50'
p492
sg13
Nsg14
(lp493
(i__main__
Token
p494
(dp495
g18
I372
sba(i__main__
Token
p496
(dp497
g18
I373
sbasg19
I373
sba(i__main__
Mention
p498
(dp499
g7
S't10'
p500
sg9
S'Coreference-Identity'
p501
sg10
S'i56'
p502
sg12
S'i52'
p503
sg13
Nsg14
(lp504
(i__main__
Token
p505
(dp506
g18
I392
sba(i__main__
Token
p507
(dp508
g18
I393
sbasg19
I393
sba(i__main__
Mention
p509
(dp510
g7
S't10'
p511
sg9
S'Anaphora-C'
p512
sg10
S'i57'
p513
sg12
S'i56'
p514
sg13
Nsg14
(lp515
(i__main__
Token
p516
(dp517
g18
I399
sbasg19
I399
sbasg7
g456
sg128
Nsba(i__main__
Chain
p518
(dp519
g3
(lp520
(i__main__
Mention
p521
(dp522
g7
S't11'
p523
sg9
Nsg10
S'i44'
p524
sg12
Nsg13
Nsg14
(lp525
(i__main__
Token
p526
(dp527
g18
I332
sbasg19
I332
sba(i__main__
Mention
p528
(dp529
g7
S't11'
p530
sg9
S'Coreference-NounComplement'
p531
sg10
S'i45'
p532
sg12
S'i44'
p533
sg13
Nsg14
(lp534
(i__main__
Token
p535
(dp536
g18
I333
sba(i__main__
Token
p537
(dp538
g18
I334
sbasg19
I334
sba(i__main__
Mention
p539
(dp540
g7
S't11'
p541
sg9
S'Coreference-Identity'
p542
sg10
S'i51'
p543
sg12
S'i45'
p544
sg13
Nsg14
(lp545
(i__main__
Token
p546
(dp547
g18
I367
sbasg19
I367
sba(i__main__
Mention
p548
(dp549
g7
S't11'
p550
sg9
S'Anaphora-C'
p551
sg10
S'i54'
p552
sg12
S'i51'
p553
sg13
Nsg14
(lp554
(i__main__
Token
p555
(dp556
g18
I386
sbasg19
I386
sba(i__main__
Mention
p557
(dp558
g7
S't11'
p559
sg9
S'Anaphora-C'
p560
sg10
S'i55'
p561
sg12
S'i54'
p562
sg13
Nsg14
(lp563
(i__main__
Token
p564
(dp565
g18
I390
sbasg19
I390
sbasg7
g523
sg128
Nsba(i__main__
Chain
p566
(dp567
g3
(lp568
(i__main__
Mention
p569
(dp570
g7
S't12'
p571
sg9
Nsg10
S'i47'
p572
sg12
Nsg13
Nsg14
(lp573
(i__main__
Token
p574
(dp575
g18
I345
sba(i__main__
Token
p576
(dp577
g18
I346
sbasg19
I346
sba(i__main__
Mention
p578
(dp579
g7
S't12'
p580
sg9
S'Coreference-Identity'
p581
sg10
S'i48'
p582
sg12
S'i47'
p583
sg13
Nsg14
(lp584
(i__main__
Token
p585
(dp586
g18
I351
sba(i__main__
Token
p587
(dp588
g18
I352
sbasg19
I352
sba(i__main__
Mention
p589
(dp590
g7
S't12'
p591
sg9
S'Anaphora-C'
p592
sg10
S'i49'
p593
sg12
S'i48'
p594
sg13
Nsg14
(lp595
(i__main__
Token
p596
(dp597
g18
I353
sbasg19
I353
sbasg7
g571
sg128
Nsba.