(lp0
(i__main__
Chain
p1
(dp2
S'mentionList'
p3
(lp4
(i__main__
Mention
p5
(dp6
S'chainId'
p7
S't1'
p8
sS'relType'
p9
NsS'mentionId'
p10
S'i1'
p11
sS'antecedentId'
p12
NsS'crefMod'
p13
NsS'tokenList'
p14
(lp15
(i__main__
Token
p16
(dp17
S'tokenId'
p18
I0
sba(i__main__
Token
p19
(dp20
g18
I1
sba(i__main__
Token
p21
(dp22
g18
I2
sba(i__main__
Token
p23
(dp24
g18
I3
sba(i__main__
Token
p25
(dp26
g18
I4
sba(i__main__
Token
p27
(dp28
g18
I5
sbasS'mentionHead'
p29
I5
sba(i__main__
Mention
p30
(dp31
g7
S't1'
p32
sg9
S'Coreference-Identity'
p33
sg10
S'i6'
p34
sg12
S'i1'
p35
sg13
Nsg14
(lp36
(i__main__
Token
p37
(dp38
g18
I45
sbasg29
I45
sba(i__main__
Mention
p39
(dp40
g7
S't1'
p41
sg9
S'Anaphora-C'
p42
sg10
S'i8'
p43
sg12
S'i6'
p44
sg13
Nsg14
(lp45
(i__main__
Token
p46
(dp47
g18
I72
sbasg29
I72
sba(i__main__
Mention
p48
(dp49
g7
S't1'
p50
sg9
S'Anaphora-C'
p51
sg10
S'i19'
p52
sg12
S'i8'
p53
sg13
Nsg14
(lp54
(i__main__
Token
p55
(dp56
g18
I107
sbasg29
I107
sba(i__main__
Mention
p57
(dp58
g7
S't1'
p59
sg9
S'Coreference-Identity'
p60
sg10
S'i30'
p61
sg12
S'i19'
p62
sg13
Nsg14
(lp63
(i__main__
Token
p64
(dp65
g18
I168
sbasg29
I168
sba(i__main__
Mention
p66
(dp67
g7
S't1'
p68
sg9
S'Anaphora-C'
p69
sg10
S'i32'
p70
sg12
S'i30'
p71
sg13
Nsg14
(lp72
(i__main__
Token
p73
(dp74
g18
I188
sbasg29
I188
sba(i__main__
Mention
p75
(dp76
g7
S't1'
p77
sg9
S'Anaphora-C'
p78
sg10
S'i35'
p79
sg12
S'i32'
p80
sg13
Nsg14
(lp81
(i__main__
Token
p82
(dp83
g18
I209
sbasg29
I209
sbasg7
g8
sS'chainHead'
p84
Nsba(i__main__
Chain
p85
(dp86
g3
(lp87
(i__main__
Mention
p88
(dp89
g7
S't2'
p90
sg9
Nsg10
S'i2'
p91
sg12
Nsg13
Nsg14
(lp92
(i__main__
Token
p93
(dp94
g18
I9
sba(i__main__
Token
p95
(dp96
g18
I10
sbasg29
I10
sba(i__main__
Mention
p97
(dp98
g7
S't2'
p99
sg9
S'Anaphora-C'
p100
sg10
S'i5'
p101
sg12
S'i2'
p102
sg13
Nsg14
(lp103
(i__main__
Token
p104
(dp105
g18
I25
sbasg29
I25
sbasg7
g90
sg84
Nsba(i__main__
Chain
p106
(dp107
g3
(lp108
(i__main__
Mention
p109
(dp110
g7
S't3'
p111
sg9
Nsg10
S'i3'
p112
sg12
Nsg13
Nsg14
(lp113
(i__main__
Token
p114
(dp115
g18
I12
sba(i__main__
Token
p116
(dp117
g18
I13
sba(i__main__
Token
p118
(dp119
g18
I14
sba(i__main__
Token
p120
(dp121
g18
I15
sbasg29
I15
sba(i__main__
Mention
p122
(dp123
g7
S't3'
p124
sg9
S'Coreference-Bracketed/Abbraviation'
p125
sg10
S'i4'
p126
sg12
S'i5'
p127
sg13
Nsg14
(lp128
(i__main__
Token
p129
(dp130
g18
I17
sbasg29
I17
sbasg7
g111
sg84
Nsba(i__main__
Chain
p131
(dp132
g3
(lp133
(i__main__
Mention
p134
(dp135
g7
S't4'
p136
sg9
Nsg10
S'i7'
p137
sg12
Nsg13
Nsg14
(lp138
(i__main__
Token
p139
(dp140
g18
I47
sbasg29
I47
sba(i__main__
Mention
p141
(dp142
g7
S't4'
p143
sg9
S'Coreference-Identity'
p144
sg10
S'i34'
p145
sg12
S'i7'
p146
sg13
Nsg14
(lp147
(i__main__
Token
p148
(dp149
g18
I199
sbasg29
I199
sba(i__main__
Mention
p150
(dp151
g7
S't4'
p152
sg9
S'Coreference-Identity'
p153
sg10
S'i39'
p154
sg12
S'i34'
p155
sg13
Nsg14
(lp156
(i__main__
Token
p157
(dp158
g18
I239
sbasg29
I239
sbasg7
g136
sg84
Nsba(i__main__
Chain
p159
(dp160
g3
(lp161
(i__main__
Mention
p162
(dp163
g7
S't5'
p164
sg9
Nsg10
S'i9'
p165
sg12
Nsg13
Nsg14
(lp166
(i__main__
Token
p167
(dp168
g18
I75
sbasg29
I75
sbasg7
g164
sg84
Nsba(i__main__
Chain
p169
(dp170
g3
(lp171
(i__main__
Mention
p172
(dp173
g7
S't6'
p174
sg9
Nsg10
S'i10'
p175
sg12
Nsg13
Nsg14
(lp176
(i__main__
Token
p177
(dp178
g18
I76
sbasg29
I76
sba(i__main__
Mention
p179
(dp180
g7
S't6'
p181
sg9
S'Anaphora-C'
p182
sg10
S'i11'
p183
sg12
S'i10'
p184
sg13
Nsg14
(lp185
(i__main__
Token
p186
(dp187
g18
I77
sbasg29
I77
sba(i__main__
Mention
p188
(dp189
g7
S't6'
p190
sg9
S'Anaphora-C'
p191
sg10
S'i12'
p192
sg12
S'i11'
p193
sg13
Nsg14
(lp194
(i__main__
Token
p195
(dp196
g18
I83
sbasg29
I83
sba(i__main__
Mention
p197
(dp198
g7
S't6'
p199
sg9
S'Anaphora-C'
p200
sg10
S'i14'
p201
sg12
S'i12'
p202
sg13
Nsg14
(lp203
(i__main__
Token
p204
(dp205
g18
I89
sbasg29
I89
sba(i__main__
Mention
p206
(dp207
g7
S't6'
p208
sg9
S'Anaphora-C'
p209
sg10
S'i17'
p210
sg12
S'i14'
p211
sg13
Nsg14
(lp212
(i__main__
Token
p213
(dp214
g18
I96
sbasg29
I96
sba(i__main__
Mention
p215
(dp216
g7
S't6'
p217
sg9
S'Anaphora-C'
p218
sg10
S'i22'
p219
sg12
S'i17'
p220
sg13
Nsg14
(lp221
(i__main__
Token
p222
(dp223
g18
I123
sbasg29
I123
sba(i__main__
Mention
p224
(dp225
g7
S't6'
p226
sg9
S'Anaphora-C'
p227
sg10
S'i24'
p228
sg12
S'i22'
p229
sg13
Nsg14
(lp230
(i__main__
Token
p231
(dp232
g18
I137
sbasg29
I137
sba(i__main__
Mention
p233
(dp234
g7
S't6'
p235
sg9
S'Anaphora-C'
p236
sg10
S'i27'
p237
sg12
S'i24'
p238
sg13
Nsg14
(lp239
(i__main__
Token
p240
(dp241
g18
I149
sbasg29
I149
sba(i__main__
Mention
p242
(dp243
g7
S't6'
p244
sg9
S'Anaphora-C'
p245
sg10
S'i38'
p246
sg12
S'i27'
p247
sg13
Nsg14
(lp248
(i__main__
Token
p249
(dp250
g18
I227
sbasg29
I227
sba(i__main__
Mention
p251
(dp252
g7
S't6'
p253
sg9
S'Anaphora-C'
p254
sg10
S'i41'
p255
sg12
S'i38'
p256
sg13
Nsg14
(lp257
(i__main__
Token
p258
(dp259
g18
I254
sbasg29
I254
sbasg7
g174
sg84
Nsba(i__main__
Chain
p260
(dp261
g3
(lp262
(i__main__
Mention
p263
(dp264
g7
S't7'
p265
sg9
Nsg10
S'i13'
p266
sg12
Nsg13
Nsg14
(lp267
(i__main__
Token
p268
(dp269
g18
I84
sbasg29
I84
sba(i__main__
Mention
p270
(dp271
g7
S't7'
p272
sg9
S'Anaphora-C'
p273
sg10
S'i15'
p274
sg12
S'i13'
p275
sg13
Nsg14
(lp276
(i__main__
Token
p277
(dp278
g18
I90
sbasg29
I90
sbasg7
g265
sg84
Nsba(i__main__
Chain
p279
(dp280
g3
(lp281
(i__main__
Mention
p282
(dp283
g7
S't8'
p284
sg9
Nsg10
S'i16'
p285
sg12
Nsg13
Nsg14
(lp286
(i__main__
Token
p287
(dp288
g18
I95
sbasg29
I95
sbasg7
g284
sg84
Nsba(i__main__
Chain
p289
(dp290
g3
(lp291
(i__main__
Mention
p292
(dp293
g7
S't9'
p294
sg9
Nsg10
S'i18'
p295
sg12
Nsg13
Nsg14
(lp296
(i__main__
Token
p297
(dp298
g18
I97
sbasg29
I97
sba(i__main__
Mention
p299
(dp300
g7
S't9'
p301
sg9
S'Coreference-Identity'
p302
sg10
S'i23'
p303
sg12
S'i18'
p304
sg13
Nsg14
(lp305
(i__main__
Token
p306
(dp307
g18
I124
sbasg29
I124
sba(i__main__
Mention
p308
(dp309
g7
S't9'
p310
sg9
S'Coreference-Identity'
p311
sg10
S'i25'
p312
sg12
S'i23'
p313
sg13
Nsg14
(lp314
(i__main__
Token
p315
(dp316
g18
I138
sbasg29
I138
sbasg7
g294
sg84
Nsba(i__main__
Chain
p317
(dp318
g3
(lp319
(i__main__
Mention
p320
(dp321
g7
S't10'
p322
sg9
Nsg10
S'i20'
p323
sg12
Nsg13
Nsg14
(lp324
(i__main__
Token
p325
(dp326
g18
I110
sba(i__main__
Token
p327
(dp328
g18
I111
sbasg29
I111
sba(i__main__
Mention
p329
(dp330
g7
S't10'
p331
sg9
S'Coreference-Identity'
p332
sg10
S'i31'
p333
sg12
S'i20'
p334
sg13
Nsg14
(lp335
(i__main__
Token
p336
(dp337
g18
I177
sbasg29
I177
sba(i__main__
Mention
p338
(dp339
g7
S't10'
p340
sg9
S'Coreference-Identity'
p341
sg10
S'i40'
p342
sg12
S'i31'
p343
sg13
Nsg14
(lp344
(i__main__
Token
p345
(dp346
g18
I251
sbasg29
I251
sbasg7
g322
sg84
Nsba(i__main__
Chain
p347
(dp348
g3
(lp349
(i__main__
Mention
p350
(dp351
g7
S't11'
p352
sg9
Nsg10
S'i21'
p353
sg12
Nsg13
Nsg14
(lp354
(i__main__
Token
p355
(dp356
g18
I122
sbasg29
I122
sbasg7
g352
sg84
Nsba(i__main__
Chain
p357
(dp358
g3
(lp359
(i__main__
Mention
p360
(dp361
g7
S't12'
p362
sg9
Nsg10
S'i26'
p363
sg12
Nsg13
Nsg14
(lp364
(i__main__
Token
p365
(dp366
g18
I147
sbasg29
I147
sbasg7
g362
sg84
Nsba(i__main__
Chain
p367
(dp368
g3
(lp369
(i__main__
Mention
p370
(dp371
g7
S't13'
p372
sg9
Nsg10
S'i28'
p373
sg12
Nsg13
Nsg14
(lp374
(i__main__
Token
p375
(dp376
g18
I154
sba(i__main__
Token
p377
(dp378
g18
I155
sba(i__main__
Token
p379
(dp380
g18
I156
sba(i__main__
Token
p381
(dp382
g18
I157
sbasg29
I157
sba(i__main__
Mention
p383
(dp384
g7
S't13'
p385
sg9
S'Anaphora-C'
p386
sg10
S'i29'
p387
sg12
S'i28'
p388
sg13
Nsg14
(lp389
(i__main__
Token
p390
(dp391
g18
I162
sbasg29
I162
sbasg7
g372
sg84
Nsba(i__main__
Chain
p392
(dp393
g3
(lp394
(i__main__
Mention
p395
(dp396
g7
S't14'
p397
sg9
Nsg10
S'i33'
p398
sg12
Nsg13
Nsg14
(lp399
(i__main__
Token
p400
(dp401
g18
I191
sbasg29
I191
sbasg7
g397
sg84
Nsba(i__main__
Chain
p402
(dp403
g3
(lp404
(i__main__
Mention
p405
(dp406
g7
S't15'
p407
sg9
Nsg10
S'i36'
p408
sg12
Nsg13
Nsg14
(lp409
(i__main__
Token
p410
(dp411
g18
I213
sba(i__main__
Token
p412
(dp413
g18
I214
sbasg29
I214
sba(i__main__
Mention
p414
(dp415
g7
S't15'
p416
sg9
S'Anaphora-C'
p417
sg10
S'i37'
p418
sg12
S'i36'
p419
sg13
Nsg14
(lp420
(i__main__
Token
p421
(dp422
g18
I219
sbasg29
I219
sbasg7
g407
sg84
Nsba(i__main__
Chain
p423
(dp424
g3
(lp425
(i__main__
Mention
p426
(dp427
g7
S't16'
p428
sg9
Nsg10
S'i42'
p429
sg12
Nsg13
Nsg14
(lp430
(i__main__
Token
p431
(dp432
g18
I277
sba(i__main__
Token
p433
(dp434
g18
I278
sbasg29
I278
sbasg7
g428
sg84
Nsba(i__main__
Chain
p435
(dp436
g3
(lp437
(i__main__
Mention
p438
(dp439
g7
S't17'
p440
sg9
Nsg10
S'i43'
p441
sg12
Nsg13
Nsg14
(lp442
(i__main__
Token
p443
(dp444
g18
I285
sbasg29
I285
sba(i__main__
Mention
p445
(dp446
g7
S't17'
p447
sg9
S'Anaphora-E'
p448
sg10
S'i44'
p449
sg12
S'i43'
p450
sg13
Nsg14
(lp451
(i__main__
Token
p452
(dp453
g18
I291
sba(i__main__
Token
p454
(dp455
g18
I292
sba(i__main__
Token
p456
(dp457
g18
I293
sba(i__main__
Token
p458
(dp459
g18
I294
sba(i__main__
Token
p460
(dp461
g18
I295
sbasg29
I295
sbasg7
g440
sg84
Nsba.