(lp0
(i__main__
Chain
p1
(dp2
S'mentionList'
p3
(lp4
(i__main__
Mention
p5
(dp6
S'chainId'
p7
S't1'
p8
sS'relType'
p9
NsS'mentionId'
p10
S'i1'
p11
sS'antecedentId'
p12
NsS'crefMod'
p13
NsS'tokenList'
p14
(lp15
(i__main__
Token
p16
(dp17
S'tokenId'
p18
I0
sbasS'mentionHead'
p19
I0
sba(i__main__
Mention
p20
(dp21
g7
S't1'
p22
sg9
S'Coreference-Identity'
p23
sg10
S'i19'
p24
sg12
S'i1'
p25
sg13
Nsg14
(lp26
(i__main__
Token
p27
(dp28
g18
I47
sbasg19
I47
sba(i__main__
Mention
p29
(dp30
g7
S't1'
p31
sg9
S'Coreference-Noun-Noun'
p32
sg10
S'i22'
p33
sg12
S'i19'
p34
sg13
Nsg14
(lp35
(i__main__
Token
p36
(dp37
g18
I57
sbasg19
I57
sba(i__main__
Mention
p38
(dp39
g7
S't1'
p40
sg9
S'Coreference-Noun-Noun'
p41
sg10
S'i48'
p42
sg12
S'i22'
p43
sg13
Nsg14
(lp44
(i__main__
Token
p45
(dp46
g18
I164
sbasg19
I164
sbasg7
g8
sS'chainHead'
p47
Nsba(i__main__
Chain
p48
(dp49
g3
(lp50
(i__main__
Mention
p51
(dp52
g7
S't2'
p53
sg9
Nsg10
S'i2'
p54
sg12
Nsg13
Nsg14
(lp55
(i__main__
Token
p56
(dp57
g18
I2
sba(i__main__
Token
p58
(dp59
g18
I3
sbasg19
I3
sba(i__main__
Mention
p60
(dp61
g7
S't2'
p62
sg9
S'Coreference-NounComplement'
p63
sg10
S'i3'
p64
sg12
S'i2'
p65
sg13
Nsg14
(lp66
(i__main__
Token
p67
(dp68
g18
I4
sba(i__main__
Token
p69
(dp70
g18
I5
sbasg19
I5
sba(i__main__
Mention
p71
(dp72
g7
S't2'
p73
sg9
S'Anaphora-C'
p74
sg10
S'i11'
p75
sg12
S'i3'
p76
sg13
Nsg14
(lp77
(i__main__
Token
p78
(dp79
g18
I27
sbasg19
I27
sba(i__main__
Mention
p80
(dp81
g7
S't2'
p82
sg9
S'Anaphora-C'
p83
sg10
S'i12'
p84
sg12
S'i11'
p85
sg13
Nsg14
(lp86
(i__main__
Token
p87
(dp88
g18
I30
sbasg19
I30
sba(i__main__
Mention
p89
(dp90
g7
S't2'
p91
sg9
S'Coreference-Identity'
p92
sg10
S'i16'
p93
sg12
S'i12'
p94
sg13
Nsg14
(lp95
(i__main__
Token
p96
(dp97
g18
I41
sbasg19
I41
sba(i__main__
Mention
p98
(dp99
g7
S't2'
p100
sg9
S'Anaphora-C'
p101
sg10
S'i17'
p102
sg12
S'i16'
p103
sg13
Nsg14
(lp104
(i__main__
Token
p105
(dp106
g18
I43
sbasg19
I43
sba(i__main__
Mention
p107
(dp108
g7
S't2'
p109
sg9
S'Anaphora-C'
p110
sg10
S'i24'
p111
sg12
S'i17'
p112
sg13
Nsg14
(lp113
(i__main__
Token
p114
(dp115
g18
I70
sbasg19
I70
sba(i__main__
Mention
p116
(dp117
g7
S't2'
p118
sg9
S'Coreference-Identity'
p119
sg10
S'i28'
p120
sg12
S'i24'
p121
sg13
Nsg14
(lp122
(i__main__
Token
p123
(dp124
g18
I85
sbasg19
I85
sba(i__main__
Mention
p125
(dp126
g7
S't2'
p127
sg9
S'Anaphora-C'
p128
sg10
S'i29'
p129
sg12
S'i28'
p130
sg13
Nsg14
(lp131
(i__main__
Token
p132
(dp133
g18
I96
sbasg19
I96
sba(i__main__
Mention
p134
(dp135
g7
S't2'
p136
sg9
S'Anaphora-C'
p137
sg10
S'i34'
p138
sg12
S'i29'
p139
sg13
Nsg14
(lp140
(i__main__
Token
p141
(dp142
g18
I115
sbasg19
I115
sba(i__main__
Mention
p143
(dp144
g7
S't2'
p145
sg9
S'Anaphora-C'
p146
sg10
S'i37'
p147
sg12
S'i34'
p148
sg13
Nsg14
(lp149
(i__main__
Token
p150
(dp151
g18
I130
sbasg19
I130
sba(i__main__
Mention
p152
(dp153
g7
S't2'
p154
sg9
S'Anaphora-C'
p155
sg10
S'i44'
p156
sg12
S'i37'
p157
sg13
Nsg14
(lp158
(i__main__
Token
p159
(dp160
g18
I150
sbasg19
I150
sba(i__main__
Mention
p161
(dp162
g7
S't2'
p163
sg9
S'Anaphora-C'
p164
sg10
S'i47'
p165
sg12
S'i44'
p166
sg13
Nsg14
(lp167
(i__main__
Token
p168
(dp169
g18
I160
sbasg19
I160
sba(i__main__
Mention
p170
(dp171
g7
S't2'
p172
sg9
S'Anaphora-C'
p173
sg10
S'i53'
p174
sg12
S'i47'
p175
sg13
Nsg14
(lp176
(i__main__
Token
p177
(dp178
g18
I187
sbasg19
I187
sba(i__main__
Mention
p179
(dp180
g7
S't2'
p181
sg9
S'Anaphora-C'
p182
sg10
S'i55'
p183
sg12
S'i53'
p184
sg13
Nsg14
(lp185
(i__main__
Token
p186
(dp187
g18
I196
sbasg19
I196
sba(i__main__
Mention
p188
(dp189
g7
S't2'
p190
sg9
S'Anaphora-C'
p191
sg10
S'i56'
p192
sg12
S'i55'
p193
sg13
Nsg14
(lp194
(i__main__
Token
p195
(dp196
g18
I199
sbasg19
I199
sbasg7
g53
sg47
Nsba(i__main__
Chain
p197
(dp198
g3
(lp199
(i__main__
Mention
p200
(dp201
g7
S't3'
p202
sg9
Nsg10
S'i4'
p203
sg12
Nsg13
Nsg14
(lp204
(i__main__
Token
p205
(dp206
g18
I9
sbasg19
I9
sba(i__main__
Mention
p207
(dp208
g7
S't3'
p209
sg9
S'Coreference-Identity'
p210
sg10
S'i23'
p211
sg12
S'i4'
p212
sg13
Nsg14
(lp213
(i__main__
Token
p214
(dp215
g18
I62
sbasg19
I62
sba(i__main__
Mention
p216
(dp217
g7
S't3'
p218
sg9
S'Coreference-Identity'
p219
sg10
S'i42'
p220
sg12
S'i23'
p221
sg13
Nsg14
(lp222
(i__main__
Token
p223
(dp224
g18
I139
sbasg19
I139
sba(i__main__
Mention
p225
(dp226
g7
S't3'
p227
sg9
S'Coreference-Identity'
p228
sg10
S'i51'
p229
sg12
S'i42'
p230
sg13
Nsg14
(lp231
(i__main__
Token
p232
(dp233
g18
I170
sbasg19
I170
sbasg7
g202
sg47
Nsba(i__main__
Chain
p234
(dp235
g3
(lp236
(i__main__
Mention
p237
(dp238
g7
S't4'
p239
sg9
Nsg10
S'i5'
p240
sg12
Nsg13
Nsg14
(lp241
(i__main__
Token
p242
(dp243
g18
I11
sba(i__main__
Token
p244
(dp245
g18
I12
sbasg19
Nsba(i__main__
Mention
p246
(dp247
g7
S't4'
p248
sg9
S'Coreference-RPartOf'
p249
sg10
S'i7'
p250
sg12
S'i5'
p251
sg13
Nsg14
(lp252
(i__main__
Token
p253
(dp254
g18
I13
sba(i__main__
Token
p255
(dp256
g18
I14
sba(i__main__
Token
p257
(dp258
g18
I15
sbasg19
I15
sba(i__main__
Mention
p259
(dp260
g7
S't4'
p261
sg9
S'Coreference-Identity'
p262
sg10
S'i13'
p263
sg12
S'i7'
p264
sg13
Nsg14
(lp265
(i__main__
Token
p266
(dp267
g18
I31
sbasg19
I31
sba(i__main__
Mention
p268
(dp269
g7
S't4'
p270
sg9
S'Coreference-Identity'
p271
sg10
S'i25'
p272
sg12
S'i13'
p273
sg13
Nsg14
(lp274
(i__main__
Token
p275
(dp276
g18
I71
sbasg19
I71
sba(i__main__
Mention
p277
(dp278
g7
S't4'
p279
sg9
S'Coreference-Identity'
p280
sg10
S'i30'
p281
sg12
S'i25'
p282
sg13
Nsg14
(lp283
(i__main__
Token
p284
(dp285
g18
I99
sbasg19
I99
sba(i__main__
Mention
p286
(dp287
g7
S't4'
p288
sg9
Nsg10
S'i35'
p289
sg12
Nsg13
Nsg14
(lp290
(i__main__
Token
p291
(dp292
g18
I123
sbasg19
Nsba(i__main__
Mention
p293
(dp294
g7
S't4'
p295
sg9
Nsg10
S'i38'
p296
sg12
Nsg13
Nsg14
(lp297
(i__main__
Token
p298
(dp299
g18
I131
sbasg19
Nsbasg7
g239
sg47
Nsba(i__main__
Chain
p300
(dp301
g3
(lp302
(i__main__
Mention
p303
(dp304
g7
S't5'
p305
sg9
Nsg10
S'i6'
p306
sg12
Nsg13
Nsg14
(lp307
(i__main__
Token
p308
(dp309
g18
I11
sba(i__main__
Token
p310
(dp311
g18
I12
sbasg19
Nsba(i__main__
Mention
p312
(dp313
g7
S't5'
p314
sg9
S'Coreference-RPartOf'
p315
sg10
S'i8'
p316
sg12
S'i6'
p317
sg13
Nsg14
(lp318
(i__main__
Token
p319
(dp320
g18
I17
sba(i__main__
Token
p321
(dp322
g18
I18
sba(i__main__
Token
p323
(dp324
g18
I19
sbasg19
I19
sba(i__main__
Mention
p325
(dp326
g7
S't5'
p327
sg9
S'Coreference-Identity'
p328
sg10
S'i14'
p329
sg12
S'i8'
p330
sg13
Nsg14
(lp331
(i__main__
Token
p332
(dp333
g18
I33
sbasg19
I33
sba(i__main__
Mention
p334
(dp335
g7
S't5'
p336
sg9
S'Coreference-Identity'
p337
sg10
S'i26'
p338
sg12
S'i14'
p339
sg13
Nsg14
(lp340
(i__main__
Token
p341
(dp342
g18
I73
sbasg19
I73
sba(i__main__
Mention
p343
(dp344
g7
S't5'
p345
sg9
S'Coreference-Identity'
p346
sg10
S'i31'
p347
sg12
S'i26'
p348
sg13
Nsg14
(lp349
(i__main__
Token
p350
(dp351
g18
I101
sbasg19
I101
sba(i__main__
Mention
p352
(dp353
g7
S't5'
p354
sg9
Nsg10
S'i36'
p355
sg12
Nsg13
Nsg14
(lp356
(i__main__
Token
p357
(dp358
g18
I123
sbasg19
Nsba(i__main__
Mention
p359
(dp360
g7
S't5'
p361
sg9
Nsg10
S'i39'
p362
sg12
Nsg13
Nsg14
(lp363
(i__main__
Token
p364
(dp365
g18
I131
sbasg19
Nsbasg7
g305
sg47
Nsba(i__main__
Chain
p366
(dp367
g3
(lp368
(i__main__
Mention
p369
(dp370
g7
S't6'
p371
sg9
Nsg10
S'i9'
p372
sg12
Nsg13
Nsg14
(lp373
(i__main__
Token
p374
(dp375
g18
I21
sbasg19
I21
sba(i__main__
Mention
p376
(dp377
g7
S't6'
p378
sg9
S'Coreference-Identity'
p379
sg10
S'i10'
p380
sg12
S'i9'
p381
sg13
Nsg14
(lp382
(i__main__
Token
p383
(dp384
g18
I24
sbasg19
I24
sba(i__main__
Mention
p385
(dp386
g7
S't6'
p387
sg9
S'Coreference-Identity'
p388
sg10
S'i27'
p389
sg12
S'i10'
p390
sg13
Nsg14
(lp391
(i__main__
Token
p392
(dp393
g18
I75
sbasg19
I75
sba(i__main__
Mention
p394
(dp395
g7
S't6'
p396
sg9
S'Coreference-Identity'
p397
sg10
S'i32'
p398
sg12
S'i27'
p399
sg13
Nsg14
(lp400
(i__main__
Token
p401
(dp402
g18
I103
sbasg19
I103
sba(i__main__
Mention
p403
(dp404
g7
S't6'
p405
sg9
S'Coreference-Identity'
p406
sg10
S'i40'
p407
sg12
S'i32'
p408
sg13
Nsg14
(lp409
(i__main__
Token
p410
(dp411
g18
I132
sbasg19
I132
sba(i__main__
Mention
p412
(dp413
g7
S't6'
p414
sg9
S'Coreference-Identity'
p415
sg10
S'i41'
p416
sg12
S'i40'
p417
sg13
Nsg14
(lp418
(i__main__
Token
p419
(dp420
g18
I136
sbasg19
I136
sbasg7
g371
sg47
Nsba(i__main__
Chain
p421
(dp422
g3
(lp423
(i__main__
Mention
p424
(dp425
g7
S't7'
p426
sg9
Nsg10
S'i15'
p427
sg12
Nsg13
Nsg14
(lp428
(i__main__
Token
p429
(dp430
g18
I37
sbasg19
I37
sbasg7
g426
sg47
Nsba(i__main__
Chain
p431
(dp432
g3
(lp433
(i__main__
Mention
p434
(dp435
g7
S't8'
p436
sg9
Nsg10
S'i18'
p437
sg12
Nsg13
Nsg14
(lp438
(i__main__
Token
p439
(dp440
g18
I44
sba(i__main__
Token
p441
(dp442
g18
I45
sbasg19
I45
sba(i__main__
Mention
p443
(dp444
g7
S't8'
p445
sg9
S'Coreference-Noun-Noun'
p446
sg10
S'i20'
p447
sg12
S'i18'
p448
sg13
Nsg14
(lp449
(i__main__
Token
p450
(dp451
g18
I49
sba(i__main__
Token
p452
(dp453
g18
I50
sbasg19
I50
sba(i__main__
Mention
p454
(dp455
g7
S't8'
p456
sg9
S'Coreference-RPartOf'
p457
sg10
S'i21'
p458
sg12
S'i20'
p459
sg13
Nsg14
(lp460
(i__main__
Token
p461
(dp462
g18
I51
sba(i__main__
Token
p463
(dp464
g18
I52
sbasg19
I52
sbasg7
g436
sg47
Nsba(i__main__
Chain
p465
(dp466
g3
(lp467
(i__main__
Mention
p468
(dp469
g7
S't9'
p470
sg9
Nsg10
S'i33'
p471
sg12
Nsg13
Nsg14
(lp472
(i__main__
Token
p473
(dp474
g18
I110
sbasg19
I110
sbasg7
g470
sg47
Nsba(i__main__
Chain
p475
(dp476
g3
(lp477
(i__main__
Mention
p478
(dp479
g7
S't10'
p480
sg9
Nsg10
S'i43'
p481
sg12
Nsg13
Nsg14
(lp482
(i__main__
Token
p483
(dp484
g18
I142
sbasg19
I142
sbasg7
g480
sg47
Nsba(i__main__
Chain
p485
(dp486
g3
(lp487
(i__main__
Mention
p488
(dp489
g7
S't11'
p490
sg9
Nsg10
S'i45'
p491
sg12
Nsg13
Nsg14
(lp492
(i__main__
Token
p493
(dp494
g18
I154
sbasg19
I154
sba(i__main__
Mention
p495
(dp496
g7
S't11'
p497
sg9
S'Anaphora-RE'
p498
sg10
S'i46'
p499
sg12
S'i45'
p500
sg13
Nsg14
(lp501
(i__main__
Token
p502
(dp503
g18
I159
sba(i__main__
Token
p504
(dp505
g18
I160
sba(i__main__
Token
p506
(dp507
g18
I161
sba(i__main__
Token
p508
(dp509
g18
I162
sba(i__main__
Token
p510
(dp511
g18
I163
sba(i__main__
Token
p512
(dp513
g18
I164
sba(i__main__
Token
p514
(dp515
g18
I165
sba(i__main__
Token
p516
(dp517
g18
I166
sba(i__main__
Token
p518
(dp519
g18
I167
sba(i__main__
Token
p520
(dp521
g18
I168
sba(i__main__
Token
p522
(dp523
g18
I169
sba(i__main__
Token
p524
(dp525
g18
I170
sba(i__main__
Token
p526
(dp527
g18
I171
sba(i__main__
Token
p528
(dp529
g18
I172
sba(i__main__
Token
p530
(dp531
g18
I173
sba(i__main__
Token
p532
(dp533
g18
I174
sba(i__main__
Token
p534
(dp535
g18
I175
sba(i__main__
Token
p536
(dp537
g18
I176
sba(i__main__
Token
p538
(dp539
g18
I177
sba(i__main__
Token
p540
(dp541
g18
I178
sba(i__main__
Token
p542
(dp543
g18
I179
sba(i__main__
Token
p544
(dp545
g18
I180
sba(i__main__
Token
p546
(dp547
g18
I181
sba(i__main__
Token
p548
(dp549
g18
I182
sba(i__main__
Token
p550
(dp551
g18
I183
sba(i__main__
Token
p552
(dp553
g18
I184
sba(i__main__
Token
p554
(dp555
g18
I185
sbasg19
I184
sbasg7
g490
sg47
Nsba(i__main__
Chain
p556
(dp557
g3
(lp558
(i__main__
Mention
p559
(dp560
g7
S't12'
p561
sg9
Nsg10
S'i49'
p562
sg12
Nsg13
Nsg14
(lp563
(i__main__
Token
p564
(dp565
g18
I164
sba(i__main__
Token
p566
(dp567
g18
I165
sbasg19
I165
sba(i__main__
Mention
p568
(dp569
g7
S't12'
p570
sg9
S'Coreference-NounComplement'
p571
sg10
S'i50'
p572
sg12
S'i49'
p573
sg13
Nsg14
(lp574
(i__main__
Token
p575
(dp576
g18
I166
sba(i__main__
Token
p577
(dp578
g18
I167
sba(i__main__
Token
p579
(dp580
g18
I168
sbasg19
I168
sbasg7
g561
sg47
Nsba(i__main__
Chain
p581
(dp582
g3
(lp583
(i__main__
Mention
p584
(dp585
g7
S't13'
p586
sg9
Nsg10
S'i52'
p587
sg12
Nsg13
Nsg14
(lp588
(i__main__
Token
p589
(dp590
g18
I182
sbasg19
I182
sbasg7
g586
sg47
Nsba(i__main__
Chain
p591
(dp592
g3
(lp593
(i__main__
Mention
p594
(dp595
g7
S't14'
p596
sg9
Nsg10
S'i54'
p597
sg12
Nsg13
Nsg14
(lp598
(i__main__
Token
p599
(dp600
g18
I188
sbasg19
I188
sbasg7
g596
sg47
Nsba.