(lp0
(i__main__
Chain
p1
(dp2
S'mentionList'
p3
(lp4
(i__main__
Mention
p5
(dp6
S'chainId'
p7
S't1'
p8
sS'relType'
p9
NsS'mentionId'
p10
S'i1'
p11
sS'antecedentId'
p12
NsS'crefMod'
p13
NsS'tokenList'
p14
(lp15
(i__main__
Token
p16
(dp17
S'tokenId'
p18
I0
sbasS'mentionHead'
p19
I0
sba(i__main__
Mention
p20
(dp21
g7
S't1'
p22
sg9
S'Coreference-Identity'
p23
sg10
S'i10'
p24
sg12
S'i1'
p25
sg13
Nsg14
(lp26
(i__main__
Token
p27
(dp28
g18
I55
sbasg19
I55
sbasg7
g8
sS'chainHead'
p29
Nsba(i__main__
Chain
p30
(dp31
g3
(lp32
(i__main__
Mention
p33
(dp34
g7
S't2'
p35
sg9
Nsg10
S'i2'
p36
sg12
Nsg13
Nsg14
(lp37
(i__main__
Token
p38
(dp39
g18
I2
sbasg19
I2
sba(i__main__
Mention
p40
(dp41
g7
S't2'
p42
sg9
S'Coreference-Identity'
p43
sg10
S'i17'
p44
sg12
S'i2'
p45
sg13
Nsg14
(lp46
(i__main__
Token
p47
(dp48
g18
I89
sbasg19
I89
sba(i__main__
Mention
p49
(dp50
g7
S't2'
p51
sg9
S'Coreference-Identity'
p52
sg10
S'i18'
p53
sg12
S'i17'
p54
sg13
Nsg14
(lp55
(i__main__
Token
p56
(dp57
g18
I98
sbasg19
I98
sba(i__main__
Mention
p58
(dp59
g7
S't2'
p60
sg9
S'Coreference-Identity'
p61
sg10
S'i23'
p62
sg12
S'i18'
p63
sg13
Nsg14
(lp64
(i__main__
Token
p65
(dp66
g18
I135
sbasg19
I135
sbasg7
g35
sg29
Nsba(i__main__
Chain
p67
(dp68
g3
(lp69
(i__main__
Mention
p70
(dp71
g7
S't3'
p72
sg9
Nsg10
S'i3'
p73
sg12
Nsg13
Nsg14
(lp74
(i__main__
Token
p75
(dp76
g18
I8
sba(i__main__
Token
p77
(dp78
g18
I9
sbasg19
I9
sba(i__main__
Mention
p79
(dp80
g7
S't3'
p81
sg9
S'Coreference-Noun-Noun'
p82
sg10
S'i6'
p83
sg12
S'i3'
p84
sg13
Nsg14
(lp85
(i__main__
Token
p86
(dp87
g18
I25
sba(i__main__
Token
p88
(dp89
g18
I26
sbasg19
I26
sba(i__main__
Mention
p90
(dp91
g7
S't3'
p92
sg9
S'Anaphora-C'
p93
sg10
S'i7'
p94
sg12
S'i6'
p95
sg13
Nsg14
(lp96
(i__main__
Token
p97
(dp98
g18
I33
sbasg19
I33
sba(i__main__
Mention
p99
(dp100
g7
S't3'
p101
sg9
S'Anaphora-C'
p102
sg10
S'i8'
p103
sg12
S'i7'
p104
sg13
Nsg14
(lp105
(i__main__
Token
p106
(dp107
g18
I44
sbasg19
I44
sba(i__main__
Mention
p108
(dp109
g7
S't3'
p110
sg9
S'Coreference-Identity'
p111
sg10
S'i9'
p112
sg12
S'i8'
p113
sg13
Nsg14
(lp114
(i__main__
Token
p115
(dp116
g18
I50
sba(i__main__
Token
p117
(dp118
g18
I51
sbasg19
I51
sba(i__main__
Mention
p119
(dp120
g7
S't3'
p121
sg9
S'Coreference-Identity'
p122
sg10
S'i13'
p123
sg12
S'i9'
p124
sg13
Nsg14
(lp125
(i__main__
Token
p126
(dp127
g18
I75
sba(i__main__
Token
p128
(dp129
g18
I76
sbasg19
I76
sbasg7
g72
sg29
Nsba(i__main__
Chain
p130
(dp131
g3
(lp132
(i__main__
Mention
p133
(dp134
g7
S't4'
p135
sg9
Nsg10
S'i4'
p136
sg12
Nsg13
Nsg14
(lp137
(i__main__
Token
p138
(dp139
g18
I11
sbasg19
I11
sba(i__main__
Mention
p140
(dp141
g7
S't4'
p142
sg9
S'Anaphora-C'
p143
sg10
S'i5'
p144
sg12
S'i4'
p145
sg13
Nsg14
(lp146
(i__main__
Token
p147
(dp148
g18
I18
sbasg19
I18
sba(i__main__
Mention
p149
(dp150
g7
S't4'
p151
sg9
S'Coreference-Identity'
p152
sg10
S'i22'
p153
sg12
S'i5'
p154
sg13
Nsg14
(lp155
(i__main__
Token
p156
(dp157
g18
I125
sbasg19
I125
sbasg7
g135
sg29
Nsba(i__main__
Chain
p158
(dp159
g3
(lp160
(i__main__
Mention
p161
(dp162
g7
S't5'
p163
sg9
Nsg10
S'i11'
p164
sg12
Nsg13
Nsg14
(lp165
(i__main__
Token
p166
(dp167
g18
I57
sbasg19
I57
sba(i__main__
Mention
p168
(dp169
g7
S't5'
p170
sg9
S'Coreference-PartOf'
p171
sg10
S'i12'
p172
sg12
S'i11'
p173
sg13
Nsg14
(lp174
(i__main__
Token
p175
(dp176
g18
I62
sba(i__main__
Token
p177
(dp178
g18
I63
sbasg19
I63
sba(i__main__
Mention
p179
(dp180
g7
S't5'
p181
sg9
S'Coreference-Noun-Noun'
p182
sg10
S'i15'
p183
sg12
S'i12'
p184
sg13
Nsg14
(lp185
(i__main__
Token
p186
(dp187
g18
I86
sba(i__main__
Token
p188
(dp189
g18
I87
sbasg19
I87
sba(i__main__
Mention
p190
(dp191
g7
S't5'
p192
sg9
S'Anaphora-C'
p193
sg10
S'i19'
p194
sg12
S'i15'
p195
sg13
Nsg14
(lp196
(i__main__
Token
p197
(dp198
g18
I100
sbasg19
I100
sbasg7
g163
sg29
Nsba(i__main__
Chain
p199
(dp200
g3
(lp201
(i__main__
Mention
p202
(dp203
g7
S't6'
p204
sg9
Nsg10
S'i14'
p205
sg12
Nsg13
Nsg14
(lp206
(i__main__
Token
p207
(dp208
g18
I78
sbasg19
I78
sbasg7
g204
sg29
Nsba(i__main__
Chain
p209
(dp210
g3
(lp211
(i__main__
Mention
p212
(dp213
g7
S't7'
p214
sg9
Nsg10
S'i16'
p215
sg12
Nsg13
Nsg14
(lp216
(i__main__
Token
p217
(dp218
g18
I88
sbasg19
I88
sbasg7
g214
sg29
Nsba(i__main__
Chain
p219
(dp220
g3
(lp221
(i__main__
Mention
p222
(dp223
g7
S't8'
p224
sg9
Nsg10
S'i20'
p225
sg12
Nsg13
Nsg14
(lp226
(i__main__
Token
p227
(dp228
g18
I112
sba(i__main__
Token
p229
(dp230
g18
I113
sbasg19
I113
sba(i__main__
Mention
p231
(dp232
g7
S't8'
p233
sg9
S'Coreference-NounComplement'
p234
sg10
S'i21'
p235
sg12
S'i20'
p236
sg13
Nsg14
(lp237
(i__main__
Token
p238
(dp239
g18
I114
sba(i__main__
Token
p240
(dp241
g18
I115
sba(i__main__
Token
p242
(dp243
g18
I116
sbasg19
I116
sba(i__main__
Mention
p244
(dp245
g7
S't8'
p246
sg9
S'Anaphora-C'
p247
sg10
S'i24'
p248
sg12
S'i21'
p249
sg13
Nsg14
(lp250
(i__main__
Token
p251
(dp252
g18
I139
sbasg19
I139
sbasg7
g224
sg29
Nsba.