(lp0
(i__main__
Chain
p1
(dp2
S'mentionList'
p3
(lp4
(i__main__
Mention
p5
(dp6
S'chainId'
p7
S't1'
p8
sS'relType'
p9
NsS'mentionId'
p10
S'i1'
p11
sS'antecedentId'
p12
NsS'crefMod'
p13
NsS'tokenList'
p14
(lp15
(i__main__
Token
p16
(dp17
S'tokenId'
p18
I8
sbasS'mentionHead'
p19
I8
sba(i__main__
Mention
p20
(dp21
g7
S't1'
p22
sg9
S'Coreference-PartOf'
p23
sg10
S'i3'
p24
sg12
S'i1'
p25
sg13
Nsg14
(lp26
(i__main__
Token
p27
(dp28
g18
I18
sba(i__main__
Token
p29
(dp30
g18
I19
sbasg19
I19
sba(i__main__
Mention
p31
(dp32
g7
S't1'
p33
sg9
S'Coreference-RPartOf'
p34
sg10
S'i13'
p35
sg12
S'i3'
p36
sg13
Nsg14
(lp37
(i__main__
Token
p38
(dp39
g18
I114
sbasg19
I114
sba(i__main__
Mention
p40
(dp41
g7
S't1'
p42
sg9
S'Coreference-Identity'
p43
sg10
S'i14'
p44
sg12
S'i13'
p45
sg13
Nsg14
(lp46
(i__main__
Token
p47
(dp48
g18
I121
sbasg19
I121
sba(i__main__
Mention
p49
(dp50
g7
S't1'
p51
sg9
S'Coreference-Identity'
p52
sg10
S'i16'
p53
sg12
S'i14'
p54
sg13
Nsg14
(lp55
(i__main__
Token
p56
(dp57
g18
I129
sba(i__main__
Token
p58
(dp59
g18
I130
sba(i__main__
Token
p60
(dp61
g18
I131
sba(i__main__
Token
p62
(dp63
g18
I132
sbasg19
I132
sbasg7
g8
sS'chainHead'
p64
Nsba(i__main__
Chain
p65
(dp66
g3
(lp67
(i__main__
Mention
p68
(dp69
g7
S't2'
p70
sg9
Nsg10
S'i2'
p71
sg12
Nsg13
Nsg14
(lp72
(i__main__
Token
p73
(dp74
g18
I18
sbasg19
I18
sba(i__main__
Mention
p75
(dp76
g7
S't2'
p77
sg9
S'Coreference-Identity'
p78
sg10
S'i4'
p79
sg12
S'i2'
p80
sg13
Nsg14
(lp81
(i__main__
Token
p82
(dp83
g18
I23
sba(i__main__
Token
p84
(dp85
g18
I24
sbasg19
I24
sba(i__main__
Mention
p86
(dp87
g7
S't2'
p88
sg9
S'Coreference-Identity'
p89
sg10
S'i5'
p90
sg12
S'i4'
p91
sg13
Nsg14
(lp92
(i__main__
Token
p93
(dp94
g18
I32
sba(i__main__
Token
p95
(dp96
g18
I33
sbasg19
I32
sbasg7
g70
sg64
Nsba(i__main__
Chain
p97
(dp98
g3
(lp99
(i__main__
Mention
p100
(dp101
g7
S't3'
p102
sg9
Nsg10
S'i6'
p103
sg12
Nsg13
Nsg14
(lp104
(i__main__
Token
p105
(dp106
g18
I45
sbasg19
I45
sba(i__main__
Mention
p107
(dp108
g7
S't3'
p109
sg9
S'Coreference-Identity'
p110
sg10
S'i25'
p111
sg12
S'i6'
p112
sg13
Nsg14
(lp113
(i__main__
Token
p114
(dp115
g18
I161
sbasg19
I161
sbasg7
g102
sg64
Nsba(i__main__
Chain
p116
(dp117
g3
(lp118
(i__main__
Mention
p119
(dp120
g7
S't4'
p121
sg9
Nsg10
S'i7'
p122
sg12
Nsg13
Nsg14
(lp123
(i__main__
Token
p124
(dp125
g18
I52
sba(i__main__
Token
p126
(dp127
g18
I53
sba(i__main__
Token
p128
(dp129
g18
I54
sba(i__main__
Token
p130
(dp131
g18
I55
sba(i__main__
Token
p132
(dp133
g18
I56
sba(i__main__
Token
p134
(dp135
g18
I57
sba(i__main__
Token
p136
(dp137
g18
I58
sba(i__main__
Token
p138
(dp139
g18
I59
sba(i__main__
Token
p140
(dp141
g18
I60
sbasg19
I59
sba(i__main__
Mention
p142
(dp143
g7
S't4'
p144
sg9
S'Anaphora-C'
p145
sg10
S'i9'
p146
sg12
S'i7'
p147
sg13
Nsg14
(lp148
(i__main__
Token
p149
(dp150
g18
I62
sbasg19
I62
sbasg7
g121
sg64
Nsba(i__main__
Chain
p151
(dp152
g3
(lp153
(i__main__
Mention
p154
(dp155
g7
S't5'
p156
sg9
Nsg10
S'i8'
p157
sg12
Nsg13
Nsg14
(lp158
(i__main__
Token
p159
(dp160
g18
I55
sbasg19
I55
sba(i__main__
Mention
p161
(dp162
g7
S't5'
p163
sg9
S'Coreference-Identity'
p164
sg10
S'i10'
p165
sg12
S'i8'
p166
sg13
Nsg14
(lp167
(i__main__
Token
p168
(dp169
g18
I67
sba(i__main__
Token
p170
(dp171
g18
I68
sba(i__main__
Token
p172
(dp173
g18
I69
sbasg19
I69
sba(i__main__
Mention
p174
(dp175
g7
S't5'
p176
sg9
S'Coreference-Identity'
p177
sg10
S'i11'
p178
sg12
S'i10'
p179
sg13
Nsg14
(lp180
(i__main__
Token
p181
(dp182
g18
I88
sba(i__main__
Token
p183
(dp184
g18
I89
sba(i__main__
Token
p185
(dp186
g18
I90
sbasg19
I90
sbasg7
g156
sg64
Nsba(i__main__
Chain
p187
(dp188
g3
(lp189
(i__main__
Mention
p190
(dp191
g7
S't6'
p192
sg9
Nsg10
S'i12'
p193
sg12
Nsg13
Nsg14
(lp194
(i__main__
Token
p195
(dp196
g18
I114
sba(i__main__
Token
p197
(dp198
g18
I115
sbasg19
I115
sba(i__main__
Mention
p199
(dp200
g7
S't6'
p201
sg9
S'Coreference-Identity'
p202
sg10
S'i15'
p203
sg12
S'i12'
p204
sg13
Nsg14
(lp205
(i__main__
Token
p206
(dp207
g18
I129
sba(i__main__
Token
p208
(dp209
g18
I130
sba(i__main__
Token
p210
(dp211
g18
I131
sba(i__main__
Token
p212
(dp213
g18
I132
sba(i__main__
Token
p214
(dp215
g18
I133
sbasg19
I133
sbasg7
g192
sg64
Nsba(i__main__
Chain
p216
(dp217
g3
(lp218
(i__main__
Mention
p219
(dp220
g7
S't7'
p221
sg9
Nsg10
S'i17'
p222
sg12
Nsg13
Nsg14
(lp223
(i__main__
Token
p224
(dp225
g18
I135
sbasg19
I135
sba(i__main__
Mention
p226
(dp227
g7
S't7'
p228
sg9
S'Coreference-NounComplement'
p229
sg10
S'i18'
p230
sg12
S'i17'
p231
sg13
Nsg14
(lp232
(i__main__
Token
p233
(dp234
g18
I136
sba(i__main__
Token
p235
(dp236
g18
I137
sba(i__main__
Token
p237
(dp238
g18
I138
sba(i__main__
Token
p239
(dp240
g18
I139
sbasg19
I139
sbasg7
g221
sg64
Nsba(i__main__
Chain
p241
(dp242
g3
(lp243
(i__main__
Mention
p244
(dp245
g7
S't8'
p246
sg9
Nsg10
S'i19'
p247
sg12
Nsg13
Nsg14
(lp248
(i__main__
Token
p249
(dp250
g18
I141
sba(i__main__
Token
p251
(dp252
g18
I142
sbasg19
I142
sba(i__main__
Mention
p253
(dp254
g7
S't8'
p255
sg9
S'Coreference-NounComplement'
p256
sg10
S'i20'
p257
sg12
S'i19'
p258
sg13
Nsg14
(lp259
(i__main__
Token
p260
(dp261
g18
I143
sba(i__main__
Token
p262
(dp263
g18
I144
sbasg19
I144
sbasg7
g246
sg64
Nsba(i__main__
Chain
p264
(dp265
g3
(lp266
(i__main__
Mention
p267
(dp268
g7
S't9'
p269
sg9
Nsg10
S'i21'
p270
sg12
Nsg13
Nsg14
(lp271
(i__main__
Token
p272
(dp273
g18
I146
sba(i__main__
Token
p274
(dp275
g18
I147
sba(i__main__
Token
p276
(dp277
g18
I148
sbasg19
I148
sba(i__main__
Mention
p278
(dp279
g7
S't9'
p280
sg9
S'Coreference-NounComplement'
p281
sg10
S'i22'
p282
sg12
S'i21'
p283
sg13
Nsg14
(lp284
(i__main__
Token
p285
(dp286
g18
I149
sba(i__main__
Token
p287
(dp288
g18
I150
sbasg19
I150
sbasg7
g269
sg64
Nsba(i__main__
Chain
p289
(dp290
g3
(lp291
(i__main__
Mention
p292
(dp293
g7
S't10'
p294
sg9
Nsg10
S'i23'
p295
sg12
Nsg13
Nsg14
(lp296
(i__main__
Token
p297
(dp298
g18
I152
sba(i__main__
Token
p299
(dp300
g18
I153
sbasg19
I153
sba(i__main__
Mention
p301
(dp302
g7
S't10'
p303
sg9
S'Coreference-NounComplement'
p304
sg10
S'i24'
p305
sg12
S'i23'
p306
sg13
Nsg14
(lp307
(i__main__
Token
p308
(dp309
g18
I154
sba(i__main__
Token
p310
(dp311
g18
I155
sbasg19
I155
sbasg7
g294
sg64
Nsba.