(lp0
(i__main__
Chain
p1
(dp2
S'mentionList'
p3
(lp4
(i__main__
Mention
p5
(dp6
S'chainId'
p7
S't1'
p8
sS'relType'
p9
NsS'mentionId'
p10
S'i1'
p11
sS'antecedentId'
p12
NsS'crefMod'
p13
NsS'tokenList'
p14
(lp15
(i__main__
Token
p16
(dp17
S'tokenId'
p18
I0
sba(i__main__
Token
p19
(dp20
g18
I1
sba(i__main__
Token
p21
(dp22
g18
I2
sba(i__main__
Token
p23
(dp24
g18
I3
sbasS'mentionHead'
p25
I3
sba(i__main__
Mention
p26
(dp27
g7
S't1'
p28
sg9
S'Coreference-Abbreviation'
p29
sg10
S'i3'
p30
sg12
S'i1'
p31
sg13
Nsg14
(lp32
(i__main__
Token
p33
(dp34
g18
I5
sbasg25
I5
sba(i__main__
Mention
p35
(dp36
g7
S't1'
p37
sg9
S'Coreference-Noun-Noun'
p38
sg10
S'i4'
p39
sg12
S'i3'
p40
sg13
Nsg14
(lp41
(i__main__
Token
p42
(dp43
g18
I16
sbasg25
I16
sba(i__main__
Mention
p44
(dp45
g7
S't1'
p46
sg9
S'Coreference-Noun-Noun'
p47
sg10
S'i20'
p48
sg12
S'i4'
p49
sg13
Nsg14
(lp50
(i__main__
Token
p51
(dp52
g18
I77
sbasg25
I77
sba(i__main__
Mention
p53
(dp54
g7
S't1'
p55
sg9
S'Coreference-Identity'
p56
sg10
S'i49'
p57
sg12
S'i20'
p58
sg13
Nsg14
(lp59
(i__main__
Token
p60
(dp61
g18
I126
sbasg25
I126
sba(i__main__
Mention
p62
(dp63
g7
S't1'
p64
sg9
S'Coreference-Noun-Noun'
p65
sg10
S'i53'
p66
sg12
S'i49'
p67
sg13
Nsg14
(lp68
(i__main__
Token
p69
(dp70
g18
I137
sbasg25
I137
sba(i__main__
Mention
p71
(dp72
g7
S't1'
p73
sg9
S'Coreference-Noun-Noun'
p74
sg10
S'i80'
p75
sg12
S'i53'
p76
sg13
Nsg14
(lp77
(i__main__
Token
p78
(dp79
g18
I237
sbasg25
I237
sba(i__main__
Mention
p80
(dp81
g7
S't1'
p82
sg9
S'Coreference-Identity'
p83
sg10
S'i82'
p84
sg12
S'i80'
p85
sg13
Nsg14
(lp86
(i__main__
Token
p87
(dp88
g18
I262
sbasg25
I262
sba(i__main__
Mention
p89
(dp90
g7
S't1'
p91
sg9
S'Coreference-Noun-Noun'
p92
sg10
S'i85'
p93
sg12
S'i82'
p94
sg13
Nsg14
(lp95
(i__main__
Token
p96
(dp97
g18
I279
sbasg25
I279
sba(i__main__
Mention
p98
(dp99
g7
S't1'
p100
sg9
S'Coreference-Noun-Noun'
p101
sg10
S'i90'
p102
sg12
S'i85'
p103
sg13
Nsg14
(lp104
(i__main__
Token
p105
(dp106
g18
I309
sbasg25
I309
sba(i__main__
Mention
p107
(dp108
g7
S't1'
p109
sg9
S'Coreference-Noun-Noun'
p110
sg10
S'i94'
p111
sg12
S'i90'
p112
sg13
Nsg14
(lp113
(i__main__
Token
p114
(dp115
g18
I370
sbasg25
I370
sbasg7
g8
sS'chainHead'
p116
Nsba(i__main__
Chain
p117
(dp118
g3
(lp119
(i__main__
Mention
p120
(dp121
g7
S't2'
p122
sg9
Nsg10
S'i2'
p123
sg12
Nsg13
Nsg14
(lp124
(i__main__
Token
p125
(dp126
g18
I0
sbasg25
I0
sba(i__main__
Mention
p127
(dp128
g7
S't2'
p129
sg9
S'Coreference-Identity'
p130
sg10
S'i15'
p131
sg12
S'i2'
p132
sg13
Nsg14
(lp133
(i__main__
Token
p134
(dp135
g18
I45
sbasg25
I45
sba(i__main__
Mention
p136
(dp137
g7
S't2'
p138
sg9
S'Coreference-Noun-Noun'
p139
sg10
S'i19'
p140
sg12
S'i15'
p141
sg13
Nsg14
(lp142
(i__main__
Token
p143
(dp144
g18
I70
sbasg25
I70
sbasg7
g122
sg116
Nsba(i__main__
Chain
p145
(dp146
g3
(lp147
(i__main__
Mention
p148
(dp149
g7
S't3'
p150
sg9
Nsg10
S'i5'
p151
sg12
Nsg13
Nsg14
(lp152
(i__main__
Token
p153
(dp154
g18
I18
sbasg25
I18
sba(i__main__
Mention
p155
(dp156
g7
S't3'
p157
sg9
S'Coreference-NounComplement'
p158
sg10
S'i14'
p159
sg12
S'i5'
p160
sg13
Nsg14
(lp161
(i__main__
Token
p162
(dp163
g18
I19
sba(i__main__
Token
p164
(dp165
g18
I20
sbasg25
I20
sba(i__main__
Mention
p166
(dp167
g7
S't3'
p168
sg9
Nsg10
S'i29'
p169
sg12
Nsg13
Nsg14
(lp170
(i__main__
Token
p171
(dp172
g18
I81
sba(i__main__
Token
p173
(dp174
g18
I82
sbasg25
Nsba(i__main__
Mention
p175
(dp176
g7
S't3'
p177
sg9
Nsg10
S'i30'
p178
sg12
Nsg13
Nsg14
(lp179
(i__main__
Token
p180
(dp181
g18
I89
sbasg25
Nsba(i__main__
Mention
p182
(dp183
g7
S't3'
p184
sg9
Nsg10
S'i39'
p185
sg12
Nsg13
Nsg14
(lp186
(i__main__
Token
p187
(dp188
g18
I108
sbasg25
Nsba(i__main__
Mention
p189
(dp190
g7
S't3'
p191
sg9
S'Coreference-PartOf'
p192
sg10
S'i50'
p193
sg12
S'i39'
p194
sg13
Nsg14
(lp195
(i__main__
Token
p196
(dp197
g18
I128
sbasg25
I128
sba(i__main__
Mention
p198
(dp199
g7
S't3'
p200
sg9
Nsg10
S'i69'
p201
sg12
Nsg13
Nsg14
(lp202
(i__main__
Token
p203
(dp204
g18
I203
sbasg25
Nsbasg7
g150
sg116
Nsba(i__main__
Chain
p205
(dp206
g3
(lp207
(i__main__
Mention
p208
(dp209
g7
S't4'
p210
sg9
Nsg10
S'i6'
p211
sg12
Nsg13
Nsg14
(lp212
(i__main__
Token
p213
(dp214
g18
I22
sba(i__main__
Token
p215
(dp216
g18
I23
sbasg25
I23
sba(i__main__
Mention
p217
(dp218
g7
S't4'
p219
sg9
Nsg10
S'i28'
p220
sg12
Nsg13
Nsg14
(lp221
(i__main__
Token
p222
(dp223
g18
I81
sba(i__main__
Token
p224
(dp225
g18
I82
sbasg25
Nsba(i__main__
Mention
p226
(dp227
g7
S't4'
p228
sg9
Nsg10
S'i31'
p229
sg12
Nsg13
Nsg14
(lp230
(i__main__
Token
p231
(dp232
g18
I89
sbasg25
Nsba(i__main__
Mention
p233
(dp234
g7
S't4'
p235
sg9
Nsg10
S'i40'
p236
sg12
Nsg13
Nsg14
(lp237
(i__main__
Token
p238
(dp239
g18
I108
sbasg25
Nsba(i__main__
Mention
p240
(dp241
g7
S't4'
p242
sg9
S'Coreference-PartOf'
p243
sg10
S'i51'
p244
sg12
S'i68'
p245
sg13
Nsg14
(lp246
(i__main__
Token
p247
(dp248
g18
I131
sba(i__main__
Token
p249
(dp250
g18
I132
sba(i__main__
Token
p251
(dp252
g18
I133
sba(i__main__
Token
p253
(dp254
g18
I134
sba(i__main__
Token
p255
(dp256
g18
I135
sbasg25
I135
sba(i__main__
Mention
p257
(dp258
g7
S't4'
p259
sg9
Nsg10
S'i70'
p260
sg12
Nsg13
Nsg14
(lp261
(i__main__
Token
p262
(dp263
g18
I203
sbasg25
Nsbasg7
g210
sg116
Nsba(i__main__
Chain
p264
(dp265
g3
(lp266
(i__main__
Mention
p267
(dp268
g7
S't5'
p269
sg9
Nsg10
S'i7'
p270
sg12
Nsg13
Nsg14
(lp271
(i__main__
Token
p272
(dp273
g18
I25
sbasg25
I25
sba(i__main__
Mention
p274
(dp275
g7
S't5'
p276
sg9
Nsg10
S'i27'
p277
sg12
Nsg13
Nsg14
(lp278
(i__main__
Token
p279
(dp280
g18
I81
sba(i__main__
Token
p281
(dp282
g18
I82
sbasg25
Nsba(i__main__
Mention
p283
(dp284
g7
S't5'
p285
sg9
Nsg10
S'i32'
p286
sg12
Nsg13
Nsg14
(lp287
(i__main__
Token
p288
(dp289
g18
I89
sbasg25
Nsba(i__main__
Mention
p290
(dp291
g7
S't5'
p292
sg9
Nsg10
S'i41'
p293
sg12
Nsg13
Nsg14
(lp294
(i__main__
Token
p295
(dp296
g18
I108
sbasg25
Nsba(i__main__
Mention
p297
(dp298
g7
S't5'
p299
sg9
S'Coreference-PartOf'
p300
sg10
S'i54'
p301
sg12
S'i41'
p302
sg13
Nsg14
(lp303
(i__main__
Token
p304
(dp305
g18
I139
sbasg25
I139
sba(i__main__
Mention
p306
(dp307
g7
S't5'
p308
sg9
S'Coreference-NounComplement'
p309
sg10
S'i55'
p310
sg12
S'i54'
p311
sg13
Nsg14
(lp312
(i__main__
Token
p313
(dp314
g18
I140
sba(i__main__
Token
p315
(dp316
g18
I141
sba(i__main__
Token
p317
(dp318
g18
I142
sbasg25
I142
sba(i__main__
Mention
p319
(dp320
g7
S't5'
p321
sg9
Nsg10
S'i71'
p322
sg12
Nsg13
Nsg14
(lp323
(i__main__
Token
p324
(dp325
g18
I203
sbasg25
Nsbasg7
g269
sg116
Nsba(i__main__
Chain
p326
(dp327
g3
(lp328
(i__main__
Mention
p329
(dp330
g7
S't6'
p331
sg9
Nsg10
S'i8'
p332
sg12
Nsg13
Nsg14
(lp333
(i__main__
Token
p334
(dp335
g18
I27
sba(i__main__
Token
p336
(dp337
g18
I28
sba(i__main__
Token
p338
(dp339
g18
I29
sbasg25
Nsba(i__main__
Mention
p340
(dp341
g7
S't6'
p342
sg9
Nsg10
S'i26'
p343
sg12
Nsg13
Nsg14
(lp344
(i__main__
Token
p345
(dp346
g18
I81
sba(i__main__
Token
p347
(dp348
g18
I82
sbasg25
Nsba(i__main__
Mention
p349
(dp350
g7
S't6'
p351
sg9
Nsg10
S'i33'
p352
sg12
Nsg13
Nsg14
(lp353
(i__main__
Token
p354
(dp355
g18
I89
sbasg25
Nsba(i__main__
Mention
p356
(dp357
g7
S't6'
p358
sg9
Nsg10
S'i42'
p359
sg12
Nsg13
Nsg14
(lp360
(i__main__
Token
p361
(dp362
g18
I108
sbasg25
Nsba(i__main__
Mention
p363
(dp364
g7
S't6'
p365
sg9
S'Coreference-PartOf'
p366
sg10
S'i58'
p367
sg12
S'i70'
p368
sg13
Nsg14
(lp369
(i__main__
Token
p370
(dp371
g18
I148
sba(i__main__
Token
p372
(dp373
g18
I149
sba(i__main__
Token
p374
(dp375
g18
I150
sbasg25
I150
sba(i__main__
Mention
p376
(dp377
g7
S't6'
p378
sg9
Nsg10
S'i72'
p379
sg12
Nsg13
Nsg14
(lp380
(i__main__
Token
p381
(dp382
g18
I203
sbasg25
Nsbasg7
g331
sg116
Nsba(i__main__
Chain
p383
(dp384
g3
(lp385
(i__main__
Mention
p386
(dp387
g7
S't7'
p388
sg9
Nsg10
S'i9'
p389
sg12
Nsg13
Nsg14
(lp390
(i__main__
Token
p391
(dp392
g18
I27
sba(i__main__
Token
p393
(dp394
g18
I28
sba(i__main__
Token
p395
(dp396
g18
I29
sbasg25
Nsba(i__main__
Mention
p397
(dp398
g7
S't7'
p399
sg9
Nsg10
S'i25'
p400
sg12
Nsg13
Nsg14
(lp401
(i__main__
Token
p402
(dp403
g18
I81
sba(i__main__
Token
p404
(dp405
g18
I82
sbasg25
Nsba(i__main__
Mention
p406
(dp407
g7
S't7'
p408
sg9
Nsg10
S'i34'
p409
sg12
Nsg13
Nsg14
(lp410
(i__main__
Token
p411
(dp412
g18
I89
sbasg25
Nsba(i__main__
Mention
p413
(dp414
g7
S't7'
p415
sg9
Nsg10
S'i43'
p416
sg12
Nsg13
Nsg14
(lp417
(i__main__
Token
p418
(dp419
g18
I108
sbasg25
Nsba(i__main__
Mention
p420
(dp421
g7
S't7'
p422
sg9
Nsg10
S'i60'
p423
sg12
Nsg13
Nsg14
(lp424
(i__main__
Token
p425
(dp426
g18
I152
sba(i__main__
Token
p427
(dp428
g18
I153
sbasg25
Nsba(i__main__
Mention
p429
(dp430
g7
S't7'
p431
sg9
S'Coreference-NounComplement'
p432
sg10
S'i62'
p433
sg12
S'i60'
p434
sg13
Nsg14
(lp435
(i__main__
Token
p436
(dp437
g18
I154
sba(i__main__
Token
p438
(dp439
g18
I155
sbasg25
I155
sba(i__main__
Mention
p440
(dp441
g7
S't7'
p442
sg9
Nsg10
S'i73'
p443
sg12
Nsg13
Nsg14
(lp444
(i__main__
Token
p445
(dp446
g18
I203
sbasg25
Nsbasg7
g388
sg116
Nsba(i__main__
Chain
p447
(dp448
g3
(lp449
(i__main__
Mention
p450
(dp451
g7
S't8'
p452
sg9
Nsg10
S'i10'
p453
sg12
Nsg13
Nsg14
(lp454
(i__main__
Token
p455
(dp456
g18
I27
sba(i__main__
Token
p457
(dp458
g18
I28
sba(i__main__
Token
p459
(dp460
g18
I29
sbasg25
Nsba(i__main__
Mention
p461
(dp462
g7
S't8'
p463
sg9
Nsg10
S'i24'
p464
sg12
Nsg13
Nsg14
(lp465
(i__main__
Token
p466
(dp467
g18
I81
sba(i__main__
Token
p468
(dp469
g18
I82
sbasg25
Nsba(i__main__
Mention
p470
(dp471
g7
S't8'
p472
sg9
Nsg10
S'i35'
p473
sg12
Nsg13
Nsg14
(lp474
(i__main__
Token
p475
(dp476
g18
I89
sbasg25
Nsba(i__main__
Mention
p477
(dp478
g7
S't8'
p479
sg9
Nsg10
S'i44'
p480
sg12
Nsg13
Nsg14
(lp481
(i__main__
Token
p482
(dp483
g18
I108
sbasg25
Nsba(i__main__
Mention
p484
(dp485
g7
S't8'
p486
sg9
S'Coreference-PartOf'
p487
sg10
S'i56'
p488
sg12
S'i72'
p489
sg13
Nsg14
(lp490
(i__main__
Token
p491
(dp492
g18
I144
sba(i__main__
Token
p493
(dp494
g18
I145
sba(i__main__
Token
p495
(dp496
g18
I146
sbasg25
I146
sba(i__main__
Mention
p497
(dp498
g7
S't8'
p499
sg9
Nsg10
S'i74'
p500
sg12
Nsg13
Nsg14
(lp501
(i__main__
Token
p502
(dp503
g18
I203
sbasg25
Nsbasg7
g452
sg116
Nsba(i__main__
Chain
p504
(dp505
g3
(lp506
(i__main__
Mention
p507
(dp508
g7
S't9'
p509
sg9
Nsg10
S'i11'
p510
sg12
Nsg13
Nsg14
(lp511
(i__main__
Token
p512
(dp513
g18
I27
sba(i__main__
Token
p514
(dp515
g18
I28
sba(i__main__
Token
p516
(dp517
g18
I29
sbasg25
Nsba(i__main__
Mention
p518
(dp519
g7
S't9'
p520
sg9
Nsg10
S'i23'
p521
sg12
Nsg13
Nsg14
(lp522
(i__main__
Token
p523
(dp524
g18
I81
sba(i__main__
Token
p525
(dp526
g18
I82
sbasg25
Nsba(i__main__
Mention
p527
(dp528
g7
S't9'
p529
sg9
Nsg10
S'i36'
p530
sg12
Nsg13
Nsg14
(lp531
(i__main__
Token
p532
(dp533
g18
I89
sbasg25
Nsba(i__main__
Mention
p534
(dp535
g7
S't9'
p536
sg9
Nsg10
S'i45'
p537
sg12
Nsg13
Nsg14
(lp538
(i__main__
Token
p539
(dp540
g18
I108
sbasg25
Nsba(i__main__
Mention
p541
(dp542
g7
S't9'
p543
sg9
Nsg10
S'i61'
p544
sg12
Nsg13
Nsg14
(lp545
(i__main__
Token
p546
(dp547
g18
I152
sba(i__main__
Token
p548
(dp549
g18
I153
sbasg25
Nsba(i__main__
Mention
p550
(dp551
g7
S't9'
p552
sg9
S'Coreference-NounComplement'
p553
sg10
S'i63'
p554
sg12
S'i61'
p555
sg13
Nsg14
(lp556
(i__main__
Token
p557
(dp558
g18
I157
sba(i__main__
Token
p559
(dp560
g18
I158
sbasg25
I158
sba(i__main__
Mention
p561
(dp562
g7
S't9'
p563
sg9
Nsg10
S'i75'
p564
sg12
Nsg13
Nsg14
(lp565
(i__main__
Token
p566
(dp567
g18
I203
sbasg25
Nsbasg7
g509
sg116
Nsba(i__main__
Chain
p568
(dp569
g3
(lp570
(i__main__
Mention
p571
(dp572
g7
S't10'
p573
sg9
Nsg10
S'i12'
p574
sg12
Nsg13
Nsg14
(lp575
(i__main__
Token
p576
(dp577
g18
I27
sba(i__main__
Token
p578
(dp579
g18
I28
sba(i__main__
Token
p580
(dp581
g18
I29
sbasg25
Nsba(i__main__
Mention
p582
(dp583
g7
S't10'
p584
sg9
Nsg10
S'i22'
p585
sg12
Nsg13
Nsg14
(lp586
(i__main__
Token
p587
(dp588
g18
I81
sba(i__main__
Token
p589
(dp590
g18
I82
sbasg25
Nsba(i__main__
Mention
p591
(dp592
g7
S't10'
p593
sg9
Nsg10
S'i38'
p594
sg12
Nsg13
Nsg14
(lp595
(i__main__
Token
p596
(dp597
g18
I89
sbasg25
Nsba(i__main__
Mention
p598
(dp599
g7
S't10'
p600
sg9
Nsg10
S'i46'
p601
sg12
Nsg13
Nsg14
(lp602
(i__main__
Token
p603
(dp604
g18
I108
sbasg25
Nsba(i__main__
Mention
p605
(dp606
g7
S't10'
p607
sg9
S'Coreference-PartOf'
p608
sg10
S'i64'
p609
sg12
S'i74'
p610
sg13
Nsg14
(lp611
(i__main__
Token
p612
(dp613
g18
I160
sba(i__main__
Token
p614
(dp615
g18
I161
sba(i__main__
Token
p616
(dp617
g18
I162
sba(i__main__
Token
p618
(dp619
g18
I163
sbasg25
I163
sba(i__main__
Mention
p620
(dp621
g7
S't10'
p622
sg9
Nsg10
S'i76'
p623
sg12
Nsg13
Nsg14
(lp624
(i__main__
Token
p625
(dp626
g18
I203
sbasg25
Nsbasg7
g573
sg116
Nsba(i__main__
Chain
p627
(dp628
g3
(lp629
(i__main__
Mention
p630
(dp631
g7
S't11'
p632
sg9
Nsg10
S'i13'
p633
sg12
Nsg13
Nsg14
(lp634
(i__main__
Token
p635
(dp636
g18
I27
sba(i__main__
Token
p637
(dp638
g18
I28
sba(i__main__
Token
p639
(dp640
g18
I29
sbasg25
Nsba(i__main__
Mention
p641
(dp642
g7
S't11'
p643
sg9
Nsg10
S'i21'
p644
sg12
Nsg13
Nsg14
(lp645
(i__main__
Token
p646
(dp647
g18
I81
sba(i__main__
Token
p648
(dp649
g18
I82
sbasg25
Nsba(i__main__
Mention
p650
(dp651
g7
S't11'
p652
sg9
Nsg10
S'i37'
p653
sg12
Nsg13
Nsg14
(lp654
(i__main__
Token
p655
(dp656
g18
I89
sbasg25
Nsba(i__main__
Mention
p657
(dp658
g7
S't11'
p659
sg9
Nsg10
S'i47'
p660
sg12
Nsg13
Nsg14
(lp661
(i__main__
Token
p662
(dp663
g18
I108
sbasg25
Nsba(i__main__
Mention
p664
(dp665
g7
S't11'
p666
sg9
S'Coreference-PartOf'
p667
sg10
S'i66'
p668
sg12
S'i75'
p669
sg13
Nsg14
(lp670
(i__main__
Token
p671
(dp672
g18
I165
sba(i__main__
Token
p673
(dp674
g18
I166
sba(i__main__
Token
p675
(dp676
g18
I167
sba(i__main__
Token
p677
(dp678
g18
I168
sbasg25
I168
sba(i__main__
Mention
p679
(dp680
g7
S't11'
p681
sg9
Nsg10
S'i77'
p682
sg12
Nsg13
Nsg14
(lp683
(i__main__
Token
p684
(dp685
g18
I203
sbasg25
Nsbasg7
g632
sg116
Nsba(i__main__
Chain
p686
(dp687
g3
(lp688
(i__main__
Mention
p689
(dp690
g7
S't12'
p691
sg9
Nsg10
S'i16'
p692
sg12
Nsg13
Nsg14
(lp693
(i__main__
Token
p694
(dp695
g18
I45
sba(i__main__
Token
p696
(dp697
g18
I46
sba(i__main__
Token
p698
(dp699
g18
I47
sbasg25
I47
sba(i__main__
Mention
p700
(dp701
g7
S't12'
p702
sg9
S'Coreference-Abbreviation'
p703
sg10
S'i17'
p704
sg12
S'i16'
p705
sg13
Nsg14
(lp706
(i__main__
Token
p707
(dp708
g18
I49
sbasg25
I49
sbasg7
g691
sg116
Nsba(i__main__
Chain
p709
(dp710
g3
(lp711
(i__main__
Mention
p712
(dp713
g7
S't13'
p714
sg9
Nsg10
S'i18'
p715
sg12
Nsg13
Nsg14
(lp716
(i__main__
Token
p717
(dp718
g18
I70
sba(i__main__
Token
p719
(dp720
g18
I71
sba(i__main__
Token
p721
(dp722
g18
I72
sbasg25
I72
sba(i__main__
Mention
p723
(dp724
g7
S't13'
p725
sg9
S'Coreference-Identity'
p726
sg10
S'i48'
p727
sg12
S'i18'
p728
sg13
Nsg14
(lp729
(i__main__
Token
p730
(dp731
g18
I120
sba(i__main__
Token
p732
(dp733
g18
I121
sbasg25
I121
sba(i__main__
Mention
p734
(dp735
g7
S't13'
p736
sg9
S'Coreference-Identity'
p737
sg10
S'i68'
p738
sg12
S'i48'
p739
sg13
Nsg14
(lp740
(i__main__
Token
p741
(dp742
g18
I174
sba(i__main__
Token
p743
(dp744
g18
I175
sbasg25
I175
sba(i__main__
Mention
p745
(dp746
g7
S't13'
p747
sg9
S'Coreference-Identity'
p748
sg10
S'i78'
p749
sg12
S'i68'
p750
sg13
Nsg14
(lp751
(i__main__
Token
p752
(dp753
g18
I229
sba(i__main__
Token
p754
(dp755
g18
I230
sbasg25
I230
sba(i__main__
Mention
p756
(dp757
g7
S't13'
p758
sg9
S'Coreference-Identity'
p759
sg10
S'i87'
p760
sg12
S'i78'
p761
sg13
Nsg14
(lp762
(i__main__
Token
p763
(dp764
g18
I281
sba(i__main__
Token
p765
(dp766
g18
I282
sbasg25
I282
sba(i__main__
Mention
p767
(dp768
g7
S't13'
p769
sg9
S'Coreference-Identity'
p770
sg10
S'i89'
p771
sg12
S'i87'
p772
sg13
Nsg14
(lp773
(i__main__
Token
p774
(dp775
g18
I298
sbasg25
I298
sbasg7
g714
sg116
Nsba(i__main__
Chain
p776
(dp777
g3
(lp778
(i__main__
Mention
p779
(dp780
g7
S't14'
p781
sg9
Nsg10
S'i79'
p782
sg12
Nsg13
Nsg14
(lp783
(i__main__
Token
p784
(dp785
g18
I232
sbasg25
I232
sba(i__main__
Mention
p786
(dp787
g7
S't14'
p788
sg9
S'Anaphora-C'
p789
sg10
S'i81'
p790
sg12
S'i79'
p791
sg13
Nsg14
(lp792
(i__main__
Token
p793
(dp794
g18
I248
sbasg25
I248
sbasg7
g781
sg116
Nsba(i__main__
Chain
p795
(dp796
g3
(lp797
(i__main__
Mention
p798
(dp799
g7
S't15'
p800
sg9
Nsg10
S'i83'
p801
sg12
Nsg13
Nsg14
(lp802
(i__main__
Token
p803
(dp804
g18
I269
sbasg25
I269
sbasg7
g800
sg116
Nsba(i__main__
Chain
p805
(dp806
g3
(lp807
(i__main__
Mention
p808
(dp809
g7
S't16'
p810
sg9
Nsg10
S'i84'
p811
sg12
Nsg13
Nsg14
(lp812
(i__main__
Token
p813
(dp814
g18
I277
sbasg25
I277
sbasg7
g810
sg116
Nsba(i__main__
Chain
p815
(dp816
g3
(lp817
(i__main__
Mention
p818
(dp819
g7
S't17'
p820
sg9
Nsg10
S'i86'
p821
sg12
Nsg13
Nsg14
(lp822
(i__main__
Token
p823
(dp824
g18
I279
sba(i__main__
Token
p825
(dp826
g18
I280
sba(i__main__
Token
p827
(dp828
g18
I281
sba(i__main__
Token
p829
(dp830
g18
I282
sba(i__main__
Token
p831
(dp832
g18
I283
sba(i__main__
Token
p833
(dp834
g18
I284
sba(i__main__
Token
p835
(dp836
g18
I285
sba(i__main__
Token
p837
(dp838
g18
I286
sba(i__main__
Token
p839
(dp840
g18
I287
sba(i__main__
Token
p841
(dp842
g18
I288
sba(i__main__
Token
p843
(dp844
g18
I289
sba(i__main__
Token
p845
(dp846
g18
I290
sba(i__main__
Token
p847
(dp848
g18
I291
sba(i__main__
Token
p849
(dp850
g18
I292
sba(i__main__
Token
p851
(dp852
g18
I293
sba(i__main__
Token
p853
(dp854
g18
I294
sbasg25
I292
sba(i__main__
Mention
p855
(dp856
g7
S't17'
p857
sg9
S'Anaphora-E'
p858
sg10
S'i88'
p859
sg12
S'i86'
p860
sg13
Nsg14
(lp861
(i__main__
Token
p862
(dp863
g18
I296
sbasg25
I296
sbasg7
g820
sg116
Nsba(i__main__
Chain
p864
(dp865
g3
(lp866
(i__main__
Mention
p867
(dp868
g7
S't18'
p869
sg9
Nsg10
S'i91'
p870
sg12
Nsg13
Nsg14
(lp871
(i__main__
Token
p872
(dp873
g18
I311
sba(i__main__
Token
p874
(dp875
g18
I312
sbasg25
I312
sba(i__main__
Mention
p876
(dp877
g7
S't18'
p878
sg9
S'Coreference-Identity'
p879
sg10
S'i93'
p880
sg12
S'i91'
p881
sg13
Nsg14
(lp882
(i__main__
Token
p883
(dp884
g18
I354
sba(i__main__
Token
p885
(dp886
g18
I355
sbasg25
I355
sbasg7
g869
sg116
Nsba(i__main__
Chain
p887
(dp888
g3
(lp889
(i__main__
Mention
p890
(dp891
g7
S't19'
p892
sg9
Nsg10
S'i92'
p893
sg12
Nsg13
Nsg14
(lp894
(i__main__
Token
p895
(dp896
g18
I326
sbasg25
I326
sbasg7
g892
sg116
Nsba.