(lp0
(i__main__
Chain
p1
(dp2
S'mentionList'
p3
(lp4
(i__main__
Mention
p5
(dp6
S'chainId'
p7
S't1'
p8
sS'relType'
p9
NsS'mentionId'
p10
S'i1'
p11
sS'antecedentId'
p12
NsS'crefMod'
p13
NsS'tokenList'
p14
(lp15
(i__main__
Token
p16
(dp17
S'tokenId'
p18
I0
sba(i__main__
Token
p19
(dp20
g18
I1
sbasS'mentionHead'
p21
I1
sba(i__main__
Mention
p22
(dp23
g7
S't1'
p24
sg9
S'Coreference-Identity'
p25
sg10
S'i16'
p26
sg12
S'i1'
p27
sg13
Nsg14
(lp28
(i__main__
Token
p29
(dp30
g18
I79
sbasg21
I79
sbasg7
g8
sS'chainHead'
p31
Nsba(i__main__
Chain
p32
(dp33
g3
(lp34
(i__main__
Mention
p35
(dp36
g7
S't2'
p37
sg9
Nsg10
S'i2'
p38
sg12
Nsg13
Nsg14
(lp39
(i__main__
Token
p40
(dp41
g18
I0
sbasg21
I0
sba(i__main__
Mention
p42
(dp43
g7
S't2'
p44
sg9
S'Coreference-Identity'
p45
sg10
S'i11'
p46
sg12
S'i2'
p47
sg13
Nsg14
(lp48
(i__main__
Token
p49
(dp50
g18
I48
sbasg21
I48
sbasg7
g37
sg31
Nsba(i__main__
Chain
p51
(dp52
g3
(lp53
(i__main__
Mention
p54
(dp55
g7
S't3'
p56
sg9
Nsg10
S'i3'
p57
sg12
Nsg13
Nsg14
(lp58
(i__main__
Token
p59
(dp60
g18
I3
sba(i__main__
Token
p61
(dp62
g18
I4
sba(i__main__
Token
p63
(dp64
g18
I5
sba(i__main__
Token
p65
(dp66
g18
I6
sba(i__main__
Token
p67
(dp68
g18
I7
sbasg21
I7
sba(i__main__
Mention
p69
(dp70
g7
S't3'
p71
sg9
S'Coreference-Noun-Noun'
p72
sg10
S'i17'
p73
sg12
S'i3'
p74
sg13
Nsg14
(lp75
(i__main__
Token
p76
(dp77
g18
I82
sba(i__main__
Token
p78
(dp79
g18
I83
sba(i__main__
Token
p80
(dp81
g18
I84
sba(i__main__
Token
p82
(dp83
g18
I85
sbasg21
I85
sba(i__main__
Mention
p84
(dp85
g7
S't3'
p86
sg9
S'Coreference-Noun-Noun'
p87
sg10
S'i21'
p88
sg12
S'i17'
p89
sg13
Nsg14
(lp90
(i__main__
Token
p91
(dp92
g18
I111
sbasg21
I111
sba(i__main__
Mention
p93
(dp94
g7
S't3'
p95
sg9
S'Coreference-Identity'
p96
sg10
S'i30'
p97
sg12
S'i21'
p98
sg13
Nsg14
(lp99
(i__main__
Token
p100
(dp101
g18
I187
sbasg21
I187
sba(i__main__
Mention
p102
(dp103
g7
S't3'
p104
sg9
S'Coreference-Identity'
p105
sg10
S'i34'
p106
sg12
S'i30'
p107
sg13
Nsg14
(lp108
(i__main__
Token
p109
(dp110
g18
I216
sbasg21
I216
sbasg7
g56
sg31
Nsba(i__main__
Chain
p111
(dp112
g3
(lp113
(i__main__
Mention
p114
(dp115
g7
S't4'
p116
sg9
Nsg10
S'i4'
p117
sg12
Nsg13
Nsg14
(lp118
(i__main__
Token
p119
(dp120
g18
I3
sba(i__main__
Token
p121
(dp122
g18
I4
sba(i__main__
Token
p123
(dp124
g18
I5
sba(i__main__
Token
p125
(dp126
g18
I6
sba(i__main__
Token
p127
(dp128
g18
I7
sba(i__main__
Token
p129
(dp130
g18
I8
sba(i__main__
Token
p131
(dp132
g18
I9
sba(i__main__
Token
p133
(dp134
g18
I10
sba(i__main__
Token
p135
(dp136
g18
I11
sba(i__main__
Token
p137
(dp138
g18
I12
sba(i__main__
Token
p139
(dp140
g18
I13
sba(i__main__
Token
p141
(dp142
g18
I14
sba(i__main__
Token
p143
(dp144
g18
I15
sba(i__main__
Token
p145
(dp146
g18
I16
sba(i__main__
Token
p147
(dp148
g18
I17
sba(i__main__
Token
p149
(dp150
g18
I18
sba(i__main__
Token
p151
(dp152
g18
I19
sba(i__main__
Token
p153
(dp154
g18
I20
sbasg21
I17
sba(i__main__
Mention
p155
(dp156
g7
S't4'
p157
sg9
S'Anaphora-E'
p158
sg10
S'i6'
p159
sg12
S'i4'
p160
sg13
Nsg14
(lp161
(i__main__
Token
p162
(dp163
g18
I22
sbasg21
I22
sbasg7
g116
sg31
Nsba(i__main__
Chain
p164
(dp165
g3
(lp166
(i__main__
Mention
p167
(dp168
g7
S't5'
p169
sg9
Nsg10
S'i5'
p170
sg12
Nsg13
Nsg14
(lp171
(i__main__
Token
p172
(dp173
g18
I9
sba(i__main__
Token
p174
(dp175
g18
I10
sbasg21
I10
sba(i__main__
Mention
p176
(dp177
g7
S't5'
p178
sg9
S'Coreference-Identity'
p179
sg10
S'i23'
p180
sg12
S'i5'
p181
sg13
Nsg14
(lp182
(i__main__
Token
p183
(dp184
g18
I118
sba(i__main__
Token
p185
(dp186
g18
I119
sbasg21
I119
sbasg7
g169
sg31
Nsba(i__main__
Chain
p187
(dp188
g3
(lp189
(i__main__
Mention
p190
(dp191
g7
S't6'
p192
sg9
Nsg10
S'i7'
p193
sg12
Nsg13
Nsg14
(lp194
(i__main__
Token
p195
(dp196
g18
I25
sba(i__main__
Token
p197
(dp198
g18
I26
sba(i__main__
Token
p199
(dp200
g18
I27
sbasg21
I27
sba(i__main__
Mention
p201
(dp202
g7
S't6'
p203
sg9
S'Coreference-Identity'
p204
sg10
S'i27'
p205
sg12
S'i7'
p206
sg13
Nsg14
(lp207
(i__main__
Token
p208
(dp209
g18
I149
sba(i__main__
Token
p210
(dp211
g18
I150
sba(i__main__
Token
p212
(dp213
g18
I151
sbasg21
I151
sba(i__main__
Mention
p214
(dp215
g7
S't6'
p216
sg9
S'Coreference-Identity'
p217
sg10
S'i29'
p218
sg12
S'i27'
p219
sg13
Nsg14
(lp220
(i__main__
Token
p221
(dp222
g18
I175
sba(i__main__
Token
p223
(dp224
g18
I176
sbasg21
I176
sba(i__main__
Mention
p225
(dp226
g7
S't6'
p227
sg9
S'Coreference-Identity'
p228
sg10
S'i35'
p229
sg12
S'i29'
p230
sg13
Nsg14
(lp231
(i__main__
Token
p232
(dp233
g18
I220
sba(i__main__
Token
p234
(dp235
g18
I221
sba(i__main__
Token
p236
(dp237
g18
I222
sbasg21
I222
sbasg7
g192
sg31
Nsba(i__main__
Chain
p238
(dp239
g3
(lp240
(i__main__
Mention
p241
(dp242
g7
S't7'
p243
sg9
Nsg10
S'i8'
p244
sg12
Nsg13
Nsg14
(lp245
(i__main__
Token
p246
(dp247
g18
I29
sba(i__main__
Token
p248
(dp249
g18
I30
sbasg21
I30
sba(i__main__
Mention
p250
(dp251
g7
S't7'
p252
sg9
S'Coreference-Identity'
p253
sg10
S'i36'
p254
sg12
S'i8'
p255
sg13
Nsg14
(lp256
(i__main__
Token
p257
(dp258
g18
I224
sbasg21
I224
sbasg7
g243
sg31
Nsba(i__main__
Chain
p259
(dp260
g3
(lp261
(i__main__
Mention
p262
(dp263
g7
S't8'
p264
sg9
Nsg10
S'i9'
p265
sg12
Nsg13
Nsg14
(lp266
(i__main__
Token
p267
(dp268
g18
I36
sba(i__main__
Token
p269
(dp270
g18
I37
sba(i__main__
Token
p271
(dp272
g18
I38
sbasg21
I38
sba(i__main__
Mention
p273
(dp274
g7
S't8'
p275
sg9
S'Coreference-Identity'
p276
sg10
S'i37'
p277
sg12
S'i9'
p278
sg13
Nsg14
(lp279
(i__main__
Token
p280
(dp281
g18
I226
sba(i__main__
Token
p282
(dp283
g18
I227
sba(i__main__
Token
p284
(dp285
g18
I228
sbasg21
I228
sbasg7
g264
sg31
Nsba(i__main__
Chain
p286
(dp287
g3
(lp288
(i__main__
Mention
p289
(dp290
g7
S't9'
p291
sg9
Nsg10
S'i10'
p292
sg12
Nsg13
Nsg14
(lp293
(i__main__
Token
p294
(dp295
g18
I52
sbasg21
I52
sba(i__main__
Mention
p296
(dp297
g7
S't9'
p298
sg9
S'Coreference-Noun-Noun'
p299
sg10
S'i12'
p300
sg12
S'i10'
p301
sg13
Nsg14
(lp302
(i__main__
Token
p303
(dp304
g18
I58
sbasg21
I58
sba(i__main__
Mention
p305
(dp306
g7
S't9'
p307
sg9
S'Coreference-NounComplement'
p308
sg10
S'i13'
p309
sg12
S'i12'
p310
sg13
Nsg14
(lp311
(i__main__
Token
p312
(dp313
g18
I59
sba(i__main__
Token
p314
(dp315
g18
I60
sba(i__main__
Token
p316
(dp317
g18
I61
sbasg21
I61
sba(i__main__
Mention
p318
(dp319
g7
S't9'
p320
sg9
S'Coreference-Identity'
p321
sg10
S'i20'
p322
sg12
S'i13'
p323
sg13
Nsg14
(lp324
(i__main__
Token
p325
(dp326
g18
I107
sbasg21
I107
sba(i__main__
Mention
p327
(dp328
g7
S't9'
p329
sg9
S'Anaphora-C'
p330
sg10
S'i22'
p331
sg12
S'i20'
p332
sg13
Nsg14
(lp333
(i__main__
Token
p334
(dp335
g18
I117
sbasg21
I117
sba(i__main__
Mention
p336
(dp337
g7
S't9'
p338
sg9
S'Anaphora-C'
p339
sg10
S'i25'
p340
sg12
S'i22'
p341
sg13
Nsg14
(lp342
(i__main__
Token
p343
(dp344
g18
I130
sbasg21
I130
sba(i__main__
Mention
p345
(dp346
g7
S't9'
p347
sg9
S'Coreference-Identity'
p348
sg10
S'i28'
p349
sg12
S'i25'
p350
sg13
Nsg14
(lp351
(i__main__
Token
p352
(dp353
g18
I171
sbasg21
I171
sba(i__main__
Mention
p354
(dp355
g7
S't9'
p356
sg9
S'Coreference-Identity'
p357
sg10
S'i32'
p358
sg12
S'i28'
p359
sg13
Nsg14
(lp360
(i__main__
Token
p361
(dp362
g18
I200
sbasg21
I200
sba(i__main__
Mention
p363
(dp364
g7
S't9'
p365
sg9
S'Anaphora-C'
p366
sg10
S'i33'
p367
sg12
S'i32'
p368
sg13
Nsg14
(lp369
(i__main__
Token
p370
(dp371
g18
I204
sbasg21
I204
sbasg7
g291
sg31
Nsba(i__main__
Chain
p372
(dp373
g3
(lp374
(i__main__
Mention
p375
(dp376
g7
S't10'
p377
sg9
Nsg10
S'i14'
p378
sg12
Nsg13
Nsg14
(lp379
(i__main__
Token
p380
(dp381
g18
I69
sba(i__main__
Token
p382
(dp383
g18
I70
sba(i__main__
Token
p384
(dp385
g18
I71
sba(i__main__
Token
p386
(dp387
g18
I72
sba(i__main__
Token
p388
(dp389
g18
I73
sbasg21
I73
sba(i__main__
Mention
p390
(dp391
g7
S't10'
p392
sg9
S'Coreference-Abbreviation'
p393
sg10
S'i15'
p394
sg12
S'i14'
p395
sg13
Nsg14
(lp396
(i__main__
Token
p397
(dp398
g18
I75
sbasg21
I75
sbasg7
g377
sg31
Nsba(i__main__
Chain
p399
(dp400
g3
(lp401
(i__main__
Mention
p402
(dp403
g7
S't11'
p404
sg9
Nsg10
S'i18'
p405
sg12
Nsg13
Nsg14
(lp406
(i__main__
Token
p407
(dp408
g18
I90
sbasg21
I90
sba(i__main__
Mention
p409
(dp410
g7
S't11'
p411
sg9
S'Anaphora-C'
p412
sg10
S'i19'
p413
sg12
S'i18'
p414
sg13
Nsg14
(lp415
(i__main__
Token
p416
(dp417
g18
I95
sbasg21
I95
sbasg7
g404
sg31
Nsba(i__main__
Chain
p418
(dp419
g3
(lp420
(i__main__
Mention
p421
(dp422
g7
S't12'
p423
sg9
Nsg10
S'i24'
p424
sg12
Nsg13
Nsg14
(lp425
(i__main__
Token
p426
(dp427
g18
I121
sbasg21
I121
sba(i__main__
Mention
p428
(dp429
g7
S't12'
p430
sg9
S'Coreference-Identity'
p431
sg10
S'i26'
p432
sg12
S'i24'
p433
sg13
Nsg14
(lp434
(i__main__
Token
p435
(dp436
g18
I142
sbasg21
I142
sba(i__main__
Mention
p437
(dp438
g7
S't12'
p439
sg9
S'Coreference-Identity'
p440
sg10
S'i31'
p441
sg12
S'i26'
p442
sg13
Nsg14
(lp443
(i__main__
Token
p444
(dp445
g18
I195
sbasg21
I195
sbasg7
g423
sg31
Nsba.