(lp0
(i__main__
Chain
p1
(dp2
S'mentionList'
p3
(lp4
(i__main__
Mention
p5
(dp6
S'chainId'
p7
S't1'
p8
sS'relType'
p9
NsS'mentionId'
p10
S'i1'
p11
sS'antecedentId'
p12
NsS'crefMod'
p13
NsS'tokenList'
p14
(lp15
(i__main__
Token
p16
(dp17
S'tokenId'
p18
I0
sbasS'mentionHead'
p19
I0
sba(i__main__
Mention
p20
(dp21
g7
S't1'
p22
sg9
S'Coreference-NounComplement'
p23
sg10
S'i2'
p24
sg12
S'i1'
p25
sg13
Nsg14
(lp26
(i__main__
Token
p27
(dp28
g18
I1
sba(i__main__
Token
p29
(dp30
g18
I2
sba(i__main__
Token
p31
(dp32
g18
I3
sbasg19
I3
sba(i__main__
Mention
p33
(dp34
g7
S't1'
p35
sg9
S'Coreference-Noun-Noun'
p36
sg10
S'i9'
p37
sg12
S'i2'
p38
sg13
Nsg14
(lp39
(i__main__
Token
p40
(dp41
g18
I23
sbasg19
I23
sba(i__main__
Mention
p42
(dp43
g7
S't1'
p44
sg9
S'Coreference-NounComplement'
p45
sg10
S'i10'
p46
sg12
S'i9'
p47
sg13
Nsg14
(lp48
(i__main__
Token
p49
(dp50
g18
I24
sbasg19
I24
sba(i__main__
Mention
p51
(dp52
g7
S't1'
p53
sg9
S'Anaphora-C'
p54
sg10
S'i11'
p55
sg12
S'i10'
p56
sg13
Nsg14
(lp57
(i__main__
Token
p58
(dp59
g18
I26
sbasg19
I26
sbasg7
g8
sS'chainHead'
p60
Nsba(i__main__
Chain
p61
(dp62
g3
(lp63
(i__main__
Mention
p64
(dp65
g7
S't2'
p66
sg9
Nsg10
S'i3'
p67
sg12
Nsg13
Nsg14
(lp68
(i__main__
Token
p69
(dp70
g18
I5
sbasg19
I5
sba(i__main__
Mention
p71
(dp72
g7
S't2'
p73
sg9
S'Coreference-NounComplement'
p74
sg10
S'i4'
p75
sg12
S'i3'
p76
sg13
Nsg14
(lp77
(i__main__
Token
p78
(dp79
g18
I6
sba(i__main__
Token
p80
(dp81
g18
I7
sbasg19
I7
sba(i__main__
Mention
p82
(dp83
g7
S't2'
p84
sg9
S'Coreference-Noun-Noun'
p85
sg10
S'i14'
p86
sg12
S'i4'
p87
sg13
Nsg14
(lp88
(i__main__
Token
p89
(dp90
g18
I43
sbasg19
I43
sba(i__main__
Mention
p91
(dp92
g7
S't2'
p93
sg9
S'Coreference-NounComplement'
p94
sg10
S'i15'
p95
sg12
S'i14'
p96
sg13
Nsg14
(lp97
(i__main__
Token
p98
(dp99
g18
I44
sbasg19
I44
sba(i__main__
Mention
p100
(dp101
g7
S't2'
p102
sg9
S'Anaphora-C'
p103
sg10
S'i16'
p104
sg12
S'i15'
p105
sg13
Nsg14
(lp106
(i__main__
Token
p107
(dp108
g18
I46
sbasg19
I46
sbasg7
g66
sg60
Nsba(i__main__
Chain
p109
(dp110
g3
(lp111
(i__main__
Mention
p112
(dp113
g7
S't3'
p114
sg9
Nsg10
S'i5'
p115
sg12
Nsg13
Nsg14
(lp116
(i__main__
Token
p117
(dp118
g18
I9
sba(i__main__
Token
p119
(dp120
g18
I10
sbasg19
I10
sba(i__main__
Mention
p121
(dp122
g7
S't3'
p123
sg9
S'Coreference-NounComplement'
p124
sg10
S'i6'
p125
sg12
S'i5'
p126
sg13
Nsg14
(lp127
(i__main__
Token
p128
(dp129
g18
I11
sba(i__main__
Token
p130
(dp131
g18
I12
sbasg19
I12
sba(i__main__
Mention
p132
(dp133
g7
S't3'
p134
sg9
S'Coreference-Identity'
p135
sg10
S'i20'
p136
sg12
S'i6'
p137
sg13
Nsg14
(lp138
(i__main__
Token
p139
(dp140
g18
I67
sba(i__main__
Token
p141
(dp142
g18
I68
sbasg19
I68
sbasg7
g114
sg60
Nsba(i__main__
Chain
p143
(dp144
g3
(lp145
(i__main__
Mention
p146
(dp147
g7
S't4'
p148
sg9
Nsg10
S'i7'
p149
sg12
Nsg13
Nsg14
(lp150
(i__main__
Token
p151
(dp152
g18
I16
sbasg19
I16
sba(i__main__
Mention
p153
(dp154
g7
S't4'
p155
sg9
S'Coreference-Noun-Noun'
p156
sg10
S'i19'
p157
sg12
S'i7'
p158
sg13
Nsg14
(lp159
(i__main__
Token
p160
(dp161
g18
I55
sbasg19
I55
sbasg7
g148
sg60
Nsba(i__main__
Chain
p162
(dp163
g3
(lp164
(i__main__
Mention
p165
(dp166
g7
S't5'
p167
sg9
Nsg10
S'i8'
p168
sg12
Nsg13
Nsg14
(lp169
(i__main__
Token
p170
(dp171
g18
I18
sbasg19
I18
sba(i__main__
Mention
p172
(dp173
g7
S't5'
p174
sg9
S'Coreference-Identity'
p175
sg10
S'i13'
p176
sg12
S'i8'
p177
sg13
Nsg14
(lp178
(i__main__
Token
p179
(dp180
g18
I32
sbasg19
I32
sba(i__main__
Mention
p181
(dp182
g7
S't5'
p183
sg9
S'Coreference-Noun-Noun'
p184
sg10
S'i18'
p185
sg12
S'i13'
p186
sg13
Nsg14
(lp187
(i__main__
Token
p188
(dp189
g18
I53
sba(i__main__
Token
p190
(dp191
g18
I54
sbasg19
I54
sba(i__main__
Mention
p192
(dp193
g7
S't5'
p194
sg9
S'Coreference-Noun-Noun'
p195
sg10
S'i21'
p196
sg12
S'i18'
p197
sg13
Nsg14
(lp198
(i__main__
Token
p199
(dp200
g18
I72
sbasg19
I72
sba(i__main__
Mention
p201
(dp202
g7
S't5'
p203
sg9
S'Coreference-Apposition'
p204
sg10
S'i22'
p205
sg12
S'i21'
p206
sg13
Nsg14
(lp207
(i__main__
Token
p208
(dp209
g18
I73
sba(i__main__
Token
p210
(dp211
g18
I74
sba(i__main__
Token
p212
(dp213
g18
I75
sba(i__main__
Token
p214
(dp215
g18
I76
sbasg19
I76
sba(i__main__
Mention
p216
(dp217
g7
S't5'
p218
sg9
S'Coreference-Noun-Noun'
p219
sg10
S'i23'
p220
sg12
S'i30'
p221
sg13
Nsg14
(lp222
(i__main__
Token
p223
(dp224
g18
I85
sba(i__main__
Token
p225
(dp226
g18
I86
sbasg19
I86
sba(i__main__
Mention
p227
(dp228
g7
S't5'
p229
sg9
S'Coreference-Noun-Noun'
p230
sg10
S'i26'
p231
sg12
S'i23'
p232
sg13
Nsg14
(lp233
(i__main__
Token
p234
(dp235
g18
I107
sba(i__main__
Token
p236
(dp237
g18
I108
sbasg19
I108
sbasg7
g167
sg60
Nsba(i__main__
Chain
p238
(dp239
g3
(lp240
(i__main__
Mention
p241
(dp242
g7
S't6'
p243
sg9
Nsg10
S'i24'
p244
sg12
Nsg13
Nsg14
(lp245
(i__main__
Token
p246
(dp247
g18
I99
sba(i__main__
Token
p248
(dp249
g18
I100
sbasg19
I100
sba(i__main__
Mention
p250
(dp251
g7
S't6'
p252
sg9
S'Coreference-NounComplement'
p253
sg10
S'i25'
p254
sg12
S'i24'
p255
sg13
Nsg14
(lp256
(i__main__
Token
p257
(dp258
g18
I101
sba(i__main__
Token
p259
(dp260
g18
I102
sba(i__main__
Token
p261
(dp262
g18
I103
sbasg19
I103
sbasg7
g243
sg60
Nsba.