(lp0
(i__main__
Chain
p1
(dp2
S'mentionList'
p3
(lp4
(i__main__
Mention
p5
(dp6
S'chainId'
p7
S't1'
p8
sS'relType'
p9
NsS'mentionId'
p10
S'i1'
p11
sS'antecedentId'
p12
NsS'crefMod'
p13
NsS'tokenList'
p14
(lp15
(i__main__
Token
p16
(dp17
S'tokenId'
p18
I10
sba(i__main__
Token
p19
(dp20
g18
I11
sba(i__main__
Token
p21
(dp22
g18
I12
sbasS'mentionHead'
p23
I12
sba(i__main__
Mention
p24
(dp25
g7
S't1'
p26
sg9
S'Coreference-NounComplement'
p27
sg10
S'i2'
p28
sg12
S'i1'
p29
sg13
Nsg14
(lp30
(i__main__
Token
p31
(dp32
g18
I13
sba(i__main__
Token
p33
(dp34
g18
I14
sba(i__main__
Token
p35
(dp36
g18
I15
sba(i__main__
Token
p37
(dp38
g18
I16
sbasg23
I16
sba(i__main__
Mention
p39
(dp40
g7
S't1'
p41
sg9
S'Coreference-Noun-Noun'
p42
sg10
S'i3'
p43
sg12
S'i31'
p44
sg13
Nsg14
(lp45
(i__main__
Token
p46
(dp47
g18
I18
sbasg23
I18
sba(i__main__
Mention
p48
(dp49
g7
S't1'
p50
sg9
S'Coreference-Noun-Noun'
p51
sg10
S'i26'
p52
sg12
S'i3'
p53
sg13
Nsg14
(lp54
(i__main__
Token
p55
(dp56
g18
I164
sba(i__main__
Token
p57
(dp58
g18
I165
sba(i__main__
Token
p59
(dp60
g18
I166
sbasg23
I166
sba(i__main__
Mention
p61
(dp62
g7
S't1'
p63
sg9
S'Coreference-Noun-Noun'
p64
sg10
S'i27'
p65
sg12
S'i26'
p66
sg13
Nsg14
(lp67
(i__main__
Token
p68
(dp69
g18
I172
sbasg23
I172
sbasg7
g8
sS'chainHead'
p70
Nsba(i__main__
Chain
p71
(dp72
g3
(lp73
(i__main__
Mention
p74
(dp75
g7
S't2'
p76
sg9
Nsg10
S'i5'
p77
sg12
Nsg13
Nsg14
(lp78
(i__main__
Token
p79
(dp80
g18
I23
sba(i__main__
Token
p81
(dp82
g18
I24
sbasg23
I24
sba(i__main__
Mention
p83
(dp84
g7
S't2'
p85
sg9
S'Coreference-Identity'
p86
sg10
S'i11'
p87
sg12
S'i5'
p88
sg13
Nsg14
(lp89
(i__main__
Token
p90
(dp91
g18
I70
sbasg23
I70
sbasg7
g76
sg70
Nsba(i__main__
Chain
p92
(dp93
g3
(lp94
(i__main__
Mention
p95
(dp96
g7
S't3'
p97
sg9
Nsg10
S'i6'
p98
sg12
Nsg13
Nsg14
(lp99
(i__main__
Token
p100
(dp101
g18
I32
sba(i__main__
Token
p102
(dp103
g18
I33
sbasg23
I33
sba(i__main__
Mention
p104
(dp105
g7
S't3'
p106
sg9
S'Coreference-Identity'
p107
sg10
S'i12'
p108
sg12
S'i6'
p109
sg13
Nsg14
(lp110
(i__main__
Token
p111
(dp112
g18
I78
sba(i__main__
Token
p113
(dp114
g18
I79
sbasg23
I79
sba(i__main__
Mention
p115
(dp116
g7
S't3'
p117
sg9
S'Anaphora-C'
p118
sg10
S'i14'
p119
sg12
S'i12'
p120
sg13
Nsg14
(lp121
(i__main__
Token
p122
(dp123
g18
I84
sbasg23
I84
sbasg7
g97
sg70
Nsba(i__main__
Chain
p124
(dp125
g3
(lp126
(i__main__
Mention
p127
(dp128
g7
S't4'
p129
sg9
Nsg10
S'i7'
p130
sg12
Nsg13
Nsg14
(lp131
(i__main__
Token
p132
(dp133
g18
I32
sbasg23
I32
sba(i__main__
Mention
p134
(dp135
g7
S't4'
p136
sg9
S'Coreference-Identity'
p137
sg10
S'i13'
p138
sg12
S'i7'
p139
sg13
Nsg14
(lp140
(i__main__
Token
p141
(dp142
g18
I78
sbasg23
I78
sba(i__main__
Mention
p143
(dp144
g7
S't4'
p145
sg9
S'Coreference-Noun-Noun'
p146
sg10
S'i16'
p147
sg12
S'i13'
p148
sg13
Nsg14
(lp149
(i__main__
Token
p150
(dp151
g18
I89
sbasg23
I89
sbasg7
g129
sg70
Nsba(i__main__
Chain
p152
(dp153
g3
(lp154
(i__main__
Mention
p155
(dp156
g7
S't5'
p157
sg9
Nsg10
S'i8'
p158
sg12
Nsg13
Nsg14
(lp159
(i__main__
Token
p160
(dp161
g18
I39
sba(i__main__
Token
p162
(dp163
g18
I40
sba(i__main__
Token
p164
(dp165
g18
I41
sba(i__main__
Token
p166
(dp167
g18
I42
sbasg23
I42
sba(i__main__
Mention
p168
(dp169
g7
S't5'
p170
sg9
S'Coreference-Identity'
p171
sg10
S'i20'
p172
sg12
S'i8'
p173
sg13
Nsg14
(lp174
(i__main__
Token
p175
(dp176
g18
I130
sba(i__main__
Token
p177
(dp178
g18
I131
sba(i__main__
Token
p179
(dp180
g18
I132
sba(i__main__
Token
p181
(dp182
g18
I133
sbasg23
I133
sbasg7
g157
sg70
Nsba(i__main__
Chain
p183
(dp184
g3
(lp185
(i__main__
Mention
p186
(dp187
g7
S't6'
p188
sg9
Nsg10
S'i9'
p189
sg12
Nsg13
Nsg14
(lp190
(i__main__
Token
p191
(dp192
g18
I46
sbasg23
I46
sba(i__main__
Mention
p193
(dp194
g7
S't6'
p195
sg9
S'Coreference-Identity'
p196
sg10
S'i10'
p197
sg12
S'i9'
p198
sg13
Nsg14
(lp199
(i__main__
Token
p200
(dp201
g18
I50
sbasg23
I50
sba(i__main__
Mention
p202
(dp203
g7
S't6'
p204
sg9
S'Coreference-Identity'
p205
sg10
S'i19'
p206
sg12
S'i10'
p207
sg13
Nsg14
(lp208
(i__main__
Token
p209
(dp210
g18
I101
sbasg23
I101
sbasg7
g188
sg70
Nsba(i__main__
Chain
p211
(dp212
g3
(lp213
(i__main__
Mention
p214
(dp215
g7
S't7'
p216
sg9
S'anaphora-E'
p217
sg10
S'i17'
p218
sg12
S'i18'
p219
sg13
Nsg14
(lp220
(i__main__
Token
p221
(dp222
g18
I98
sbasg23
I98
sbasg7
g216
sg70
Nsba(i__main__
Chain
p223
(dp224
g3
(lp225
(i__main__
Mention
p226
(dp227
g7
S't8'
p228
sg9
Nsg10
S'i21'
p229
sg12
Nsg13
Nsg14
(lp230
(i__main__
Token
p231
(dp232
g18
I135
sbasg23
I135
sba(i__main__
Mention
p233
(dp234
g7
S't8'
p235
sg9
S'Coreference-NounComplement'
p236
sg10
S'i22'
p237
sg12
S'i21'
p238
sg13
Nsg14
(lp239
(i__main__
Token
p240
(dp241
g18
I136
sba(i__main__
Token
p242
(dp243
g18
I137
sba(i__main__
Token
p244
(dp245
g18
I138
sbasg23
I138
sbasg7
g228
sg70
Nsba(i__main__
Chain
p246
(dp247
g3
(lp248
(i__main__
Mention
p249
(dp250
g7
S't9'
p251
sg9
Nsg10
S'i23'
p252
sg12
Nsg13
Nsg14
(lp253
(i__main__
Token
p254
(dp255
g18
I153
sba(i__main__
Token
p256
(dp257
g18
I154
sba(i__main__
Token
p258
(dp259
g18
I155
sbasg23
I155
sba(i__main__
Mention
p260
(dp261
g7
S't9'
p262
sg9
S'Anaphora-C'
p263
sg10
S'i25'
p264
sg12
S'i23'
p265
sg13
Nsg14
(lp266
(i__main__
Token
p267
(dp268
g18
I159
sbasg23
I159
sbasg7
g251
sg70
Nsba(i__main__
Chain
p269
(dp270
g3
(lp271
(i__main__
Mention
p272
(dp273
g7
S't10'
p274
sg9
S'anaphora-?'
p275
sg10
S'i24'
p276
sg12
S'i24'
p277
sg13
Nsg14
(lp278
(i__main__
Token
p279
(dp280
g18
I154
sbasg23
I154
sbasg7
g274
sg70
Nsba.