(lp0
(i__main__
Chain
p1
(dp2
S'mentionList'
p3
(lp4
(i__main__
Mention
p5
(dp6
S'chainId'
p7
S't1'
p8
sS'relType'
p9
NsS'mentionId'
p10
S'i1'
p11
sS'antecedentId'
p12
NsS'crefMod'
p13
NsS'tokenList'
p14
(lp15
(i__main__
Token
p16
(dp17
S'tokenId'
p18
I0
sba(i__main__
Token
p19
(dp20
g18
I1
sba(i__main__
Token
p21
(dp22
g18
I2
sbasS'mentionHead'
p23
I2
sba(i__main__
Mention
p24
(dp25
g7
S't1'
p26
sg9
S'Coreference-Identity'
p27
sg10
S'i37'
p28
sg12
S'i1'
p29
sg13
Nsg14
(lp30
(i__main__
Token
p31
(dp32
g18
I136
sbasg23
I136
sbasg7
g8
sS'chainHead'
p33
Nsba(i__main__
Chain
p34
(dp35
g3
(lp36
(i__main__
Mention
p37
(dp38
g7
S't2'
p39
sg9
Nsg10
S'i2'
p40
sg12
Nsg13
Nsg14
(lp41
(i__main__
Token
p42
(dp43
g18
I9
sba(i__main__
Token
p44
(dp45
g18
I10
sba(i__main__
Token
p46
(dp47
g18
I11
sbasg23
I11
sba(i__main__
Mention
p48
(dp49
g7
S't2'
p50
sg9
S'Coreference-Abbreviation'
p51
sg10
S'i3'
p52
sg12
S'i2'
p53
sg13
Nsg14
(lp54
(i__main__
Token
p55
(dp56
g18
I13
sbasg23
I13
sba(i__main__
Mention
p57
(dp58
g7
S't2'
p59
sg9
S'Coreference-Identity'
p60
sg10
S'i16'
p61
sg12
S'i3'
p62
sg13
Nsg14
(lp63
(i__main__
Token
p64
(dp65
g18
I58
sbasg23
I58
sba(i__main__
Mention
p66
(dp67
g7
S't2'
p68
sg9
S'Coreference-Identity'
p69
sg10
S'i26'
p70
sg12
S'i16'
p71
sg13
Nsg14
(lp72
(i__main__
Token
p73
(dp74
g18
I91
sbasg23
I91
sba(i__main__
Mention
p75
(dp76
g7
S't2'
p77
sg9
S'Coreference-Noun-Noun'
p78
sg10
S'i27'
p79
sg12
S'i26'
p80
sg13
Nsg14
(lp81
(i__main__
Token
p82
(dp83
g18
I96
sbasg23
I96
sba(i__main__
Mention
p84
(dp85
g7
S't2'
p86
sg9
S'Coreference-Noun-Noun'
p87
sg10
S'i41'
p88
sg12
S'i27'
p89
sg13
Nsg14
(lp90
(i__main__
Token
p91
(dp92
g18
I165
sbasg23
I165
sbasg7
g39
sg33
Nsba(i__main__
Chain
p93
(dp94
g3
(lp95
(i__main__
Mention
p96
(dp97
g7
S't3'
p98
sg9
Nsg10
S'i4'
p99
sg12
Nsg13
Nsg14
(lp100
(i__main__
Token
p101
(dp102
g18
I16
sbasg23
I16
sba(i__main__
Mention
p103
(dp104
g7
S't3'
p105
sg9
S'Coreference-NounComplement'
p106
sg10
S'i5'
p107
sg12
S'i4'
p108
sg13
Nsg14
(lp109
(i__main__
Token
p110
(dp111
g18
I17
sba(i__main__
Token
p112
(dp113
g18
I18
sbasg23
I18
sba(i__main__
Mention
p114
(dp115
g7
S't3'
p116
sg9
S'Coreference-Identity'
p117
sg10
S'i17'
p118
sg12
S'i5'
p119
sg13
Nsg14
(lp120
(i__main__
Token
p121
(dp122
g18
I60
sbasg23
I60
sba(i__main__
Mention
p123
(dp124
g7
S't3'
p125
sg9
S'Coreference-Identity'
p126
sg10
S'i25'
p127
sg12
S'i17'
p128
sg13
Nsg14
(lp129
(i__main__
Token
p130
(dp131
g18
I84
sbasg23
I84
sba(i__main__
Mention
p132
(dp133
g7
S't3'
p134
sg9
S'Coreference-Identity'
p135
sg10
S'i30'
p136
sg12
S'i25'
p137
sg13
Nsg14
(lp138
(i__main__
Token
p139
(dp140
g18
I101
sbasg23
I101
sba(i__main__
Mention
p141
(dp142
g7
S't3'
p143
sg9
S'Coreference-Noun-Noun'
p144
sg10
S'i32'
p145
sg12
S'i30'
p146
sg13
Nsg14
(lp147
(i__main__
Token
p148
(dp149
g18
I116
sbasg23
I116
sba(i__main__
Mention
p150
(dp151
g7
S't3'
p152
sg9
S'Coreference-Noun-Noun'
p153
sg10
S'i38'
p154
sg12
S'i32'
p155
sg13
Nsg14
(lp156
(i__main__
Token
p157
(dp158
g18
I140
sbasg23
I140
sba(i__main__
Mention
p159
(dp160
g7
S't3'
p161
sg9
S'Coreference-Identity'
p162
sg10
S'i42'
p163
sg12
S'i38'
p164
sg13
Nsg14
(lp165
(i__main__
Token
p166
(dp167
g18
I167
sbasg23
I167
sbasg7
g98
sg33
Nsba(i__main__
Chain
p168
(dp169
g3
(lp170
(i__main__
Mention
p171
(dp172
g7
S't4'
p173
sg9
Nsg10
S'i6'
p174
sg12
Nsg13
Nsg14
(lp175
(i__main__
Token
p176
(dp177
g18
I20
sba(i__main__
Token
p178
(dp179
g18
I21
sba(i__main__
Token
p180
(dp181
g18
I22
sbasg23
I22
sba(i__main__
Mention
p182
(dp183
g7
S't4'
p184
sg9
S'Coreference-Identity'
p185
sg10
S'i28'
p186
sg12
S'i6'
p187
sg13
Nsg14
(lp188
(i__main__
Token
p189
(dp190
g18
I98
sba(i__main__
Token
p191
(dp192
g18
I99
sbasg23
I99
sbasg7
g173
sg33
Nsba(i__main__
Chain
p193
(dp194
g3
(lp195
(i__main__
Mention
p196
(dp197
g7
S't5'
p198
sg9
Nsg10
S'i7'
p199
sg12
Nsg13
Nsg14
(lp200
(i__main__
Token
p201
(dp202
g18
I20
sba(i__main__
Token
p203
(dp204
g18
I21
sbasg23
I21
sba(i__main__
Mention
p205
(dp206
g7
S't5'
p207
sg9
S'Coreference-Identity'
p208
sg10
S'i29'
p209
sg12
S'i7'
p210
sg13
Nsg14
(lp211
(i__main__
Token
p212
(dp213
g18
I98
sbasg23
I98
sbasg7
g198
sg33
Nsba(i__main__
Chain
p214
(dp215
g3
(lp216
(i__main__
Mention
p217
(dp218
g7
S't6'
p219
sg9
Nsg10
S'i8'
p220
sg12
Nsg13
Nsg14
(lp221
(i__main__
Token
p222
(dp223
g18
I27
sbasg23
I27
sba(i__main__
Mention
p224
(dp225
g7
S't6'
p226
sg9
S'Coreference-Identity'
p227
sg10
S'i31'
p228
sg12
S'i8'
p229
sg13
Nsg14
(lp230
(i__main__
Token
p231
(dp232
g18
I112
sbasg23
I112
sbasg7
g219
sg33
Nsba(i__main__
Chain
p233
(dp234
g3
(lp235
(i__main__
Mention
p236
(dp237
g7
S't7'
p238
sg9
Nsg10
S'i9'
p239
sg12
Nsg13
Nsg14
(lp240
(i__main__
Token
p241
(dp242
g18
I31
sba(i__main__
Token
p243
(dp244
g18
I32
sba(i__main__
Token
p245
(dp246
g18
I33
sbasg23
I33
sba(i__main__
Mention
p247
(dp248
g7
S't7'
p249
sg9
S'Coreference-Identity'
p250
sg10
S'i18'
p251
sg12
S'i9'
p252
sg13
Nsg14
(lp253
(i__main__
Token
p254
(dp255
g18
I62
sba(i__main__
Token
p256
(dp257
g18
I63
sba(i__main__
Token
p258
(dp259
g18
I64
sbasg23
I64
sba(i__main__
Mention
p260
(dp261
g7
S't7'
p262
sg9
Nsg10
S'i22'
p263
sg12
Nsg13
Nsg14
(lp264
(i__main__
Token
p265
(dp266
g18
I81
sbasg23
Nsba(i__main__
Mention
p267
(dp268
g7
S't7'
p269
sg9
S'Coreference-PartOf'
p270
sg10
S'i33'
p271
sg12
S'i22'
p272
sg13
Nsg14
(lp273
(i__main__
Token
p274
(dp275
g18
I118
sba(i__main__
Token
p276
(dp277
g18
I119
sba(i__main__
Token
p278
(dp279
g18
I120
sbasg23
I120
sba(i__main__
Mention
p280
(dp281
g7
S't7'
p282
sg9
Nsg10
S'i43'
p283
sg12
Nsg13
Nsg14
(lp284
(i__main__
Token
p285
(dp286
g18
I169
sbasg23
Nsbasg7
g238
sg33
Nsba(i__main__
Chain
p287
(dp288
g3
(lp289
(i__main__
Mention
p290
(dp291
g7
S't8'
p292
sg9
Nsg10
S'i10'
p293
sg12
Nsg13
Nsg14
(lp294
(i__main__
Token
p295
(dp296
g18
I35
sba(i__main__
Token
p297
(dp298
g18
I36
sbasg23
Nsba(i__main__
Mention
p299
(dp300
g7
S't8'
p301
sg9
S'Coreference-PartOf'
p302
sg10
S'i19'
p303
sg12
S'i10'
p304
sg13
Nsg14
(lp305
(i__main__
Token
p306
(dp307
g18
I66
sba(i__main__
Token
p308
(dp309
g18
I67
sbasg23
I67
sba(i__main__
Mention
p310
(dp311
g7
S't8'
p312
sg9
Nsg10
S'i23'
p313
sg12
Nsg13
Nsg14
(lp314
(i__main__
Token
p315
(dp316
g18
I81
sbasg23
Nsba(i__main__
Mention
p317
(dp318
g7
S't8'
p319
sg9
S'Coreference-PartOf'
p320
sg10
S'i34'
p321
sg12
S'i23'
p322
sg13
Nsg14
(lp323
(i__main__
Token
p324
(dp325
g18
I122
sba(i__main__
Token
p326
(dp327
g18
I123
sbasg23
I123
sba(i__main__
Mention
p328
(dp329
g7
S't8'
p330
sg9
Nsg10
S'i44'
p331
sg12
Nsg13
Nsg14
(lp332
(i__main__
Token
p333
(dp334
g18
I169
sbasg23
Nsbasg7
g292
sg33
Nsba(i__main__
Chain
p335
(dp336
g3
(lp337
(i__main__
Mention
p338
(dp339
g7
S't9'
p340
sg9
Nsg10
S'i11'
p341
sg12
Nsg13
Nsg14
(lp342
(i__main__
Token
p343
(dp344
g18
I35
sba(i__main__
Token
p345
(dp346
g18
I36
sbasg23
Nsba(i__main__
Mention
p347
(dp348
g7
S't9'
p349
sg9
S'Coreference-PartOf'
p350
sg10
S'i20'
p351
sg12
S'i11'
p352
sg13
Nsg14
(lp353
(i__main__
Token
p354
(dp355
g18
I69
sba(i__main__
Token
p356
(dp357
g18
I70
sba(i__main__
Token
p358
(dp359
g18
I71
sbasg23
I71
sba(i__main__
Mention
p360
(dp361
g7
S't9'
p362
sg9
Nsg10
S'i24'
p363
sg12
Nsg13
Nsg14
(lp364
(i__main__
Token
p365
(dp366
g18
I81
sbasg23
Nsba(i__main__
Mention
p367
(dp368
g7
S't9'
p369
sg9
S'Coreference-PartOf'
p370
sg10
S'i35'
p371
sg12
S'i24'
p372
sg13
Nsg14
(lp373
(i__main__
Token
p374
(dp375
g18
I125
sba(i__main__
Token
p376
(dp377
g18
I126
sba(i__main__
Token
p378
(dp379
g18
I127
sbasg23
I127
sba(i__main__
Mention
p380
(dp381
g7
S't9'
p382
sg9
Nsg10
S'i45'
p383
sg12
Nsg13
Nsg14
(lp384
(i__main__
Token
p385
(dp386
g18
I169
sbasg23
Nsbasg7
g340
sg33
Nsba(i__main__
Chain
p387
(dp388
g3
(lp389
(i__main__
Mention
p390
(dp391
g7
S't10'
p392
sg9
Nsg10
S'i12'
p393
sg12
Nsg13
Nsg14
(lp394
(i__main__
Token
p395
(dp396
g18
I43
sba(i__main__
Token
p397
(dp398
g18
I44
sbasg23
I44
sba(i__main__
Mention
p399
(dp400
g7
S't10'
p401
sg9
S'Coreference-NounComplement'
p402
sg10
S'i13'
p403
sg12
S'i12'
p404
sg13
Nsg14
(lp405
(i__main__
Token
p406
(dp407
g18
I45
sba(i__main__
Token
p408
(dp409
g18
I46
sbasg23
I46
sba(i__main__
Mention
p410
(dp411
g7
S't10'
p412
sg9
S'Coreference-Noun-Noun'
p413
sg10
S'i21'
p414
sg12
S'i13'
p415
sg13
Nsg14
(lp416
(i__main__
Token
p417
(dp418
g18
I78
sba(i__main__
Token
p419
(dp420
g18
I79
sbasg23
I79
sba(i__main__
Mention
p421
(dp422
g7
S't10'
p423
sg9
S'Coreference-Identity'
p424
sg10
S'i36'
p425
sg12
S'i21'
p426
sg13
Nsg14
(lp427
(i__main__
Token
p428
(dp429
g18
I133
sba(i__main__
Token
p430
(dp431
g18
I134
sbasg23
I134
sbasg7
g392
sg33
Nsba(i__main__
Chain
p432
(dp433
g3
(lp434
(i__main__
Mention
p435
(dp436
g7
S't11'
p437
sg9
Nsg10
S'i14'
p438
sg12
Nsg13
Nsg14
(lp439
(i__main__
Token
p440
(dp441
g18
I53
sbasg23
I53
sba(i__main__
Mention
p442
(dp443
g7
S't11'
p444
sg9
S'Coreference-NounComplement'
p445
sg10
S'i15'
p446
sg12
S'i14'
p447
sg13
Nsg14
(lp448
(i__main__
Token
p449
(dp450
g18
I54
sba(i__main__
Token
p451
(dp452
g18
I55
sba(i__main__
Token
p453
(dp454
g18
I56
sbasg23
I56
sbasg7
g437
sg33
Nsba(i__main__
Chain
p455
(dp456
g3
(lp457
(i__main__
Mention
p458
(dp459
g7
S't12'
p460
sg9
Nsg10
S'i39'
p461
sg12
Nsg13
Nsg14
(lp462
(i__main__
Token
p463
(dp464
g18
I140
sba(i__main__
Token
p465
(dp466
g18
I141
sba(i__main__
Token
p467
(dp468
g18
I142
sba(i__main__
Token
p469
(dp470
g18
I143
sba(i__main__
Token
p471
(dp472
g18
I144
sba(i__main__
Token
p473
(dp474
g18
I145
sba(i__main__
Token
p475
(dp476
g18
I146
sba(i__main__
Token
p477
(dp478
g18
I147
sba(i__main__
Token
p479
(dp480
g18
I148
sba(i__main__
Token
p481
(dp482
g18
I149
sba(i__main__
Token
p483
(dp484
g18
I150
sba(i__main__
Token
p485
(dp486
g18
I151
sba(i__main__
Token
p487
(dp488
g18
I152
sba(i__main__
Token
p489
(dp490
g18
I153
sba(i__main__
Token
p491
(dp492
g18
I154
sba(i__main__
Token
p493
(dp494
g18
I155
sba(i__main__
Token
p495
(dp496
g18
I156
sbasg23
I155
sba(i__main__
Mention
p497
(dp498
g7
S't12'
p499
sg9
S'Anaphora-E'
p500
sg10
S'i40'
p501
sg12
S'i39'
p502
sg13
Nsg14
(lp503
(i__main__
Token
p504
(dp505
g18
I158
sbasg23
I158
sbasg7
g460
sg33
Nsba.