(lp0
(i__main__
Chain
p1
(dp2
S'mentionList'
p3
(lp4
(i__main__
Mention
p5
(dp6
S'chainId'
p7
S't1'
p8
sS'relType'
p9
NsS'mentionId'
p10
S'i1'
p11
sS'antecedentId'
p12
NsS'crefMod'
p13
NsS'tokenList'
p14
(lp15
(i__main__
Token
p16
(dp17
S'tokenId'
p18
I10
sbasS'mentionHead'
p19
I10
sba(i__main__
Mention
p20
(dp21
g7
S't1'
p22
sg9
S'Coreference-Noun-Noun'
p23
sg10
S'i15'
p24
sg12
S'i1'
p25
sg13
Nsg14
(lp26
(i__main__
Token
p27
(dp28
g18
I90
sbasg19
I90
sba(i__main__
Mention
p29
(dp30
g7
S't1'
p31
sg9
S'Coreference-Identity'
p32
sg10
S'i16'
p33
sg12
S'i15'
p34
sg13
Nsg14
(lp35
(i__main__
Token
p36
(dp37
g18
I98
sbasg19
I98
sba(i__main__
Mention
p38
(dp39
g7
S't1'
p40
sg9
S'Coreference-Identity'
p41
sg10
S'i38'
p42
sg12
S'i16'
p43
sg13
Nsg14
(lp44
(i__main__
Token
p45
(dp46
g18
I280
sbasg19
I280
sba(i__main__
Mention
p47
(dp48
g7
S't1'
p49
sg9
S'Coreference-Identity'
p50
sg10
S'i44'
p51
sg12
S'i38'
p52
sg13
Nsg14
(lp53
(i__main__
Token
p54
(dp55
g18
I346
sba(i__main__
Token
p56
(dp57
g18
I347
sba(i__main__
Token
p58
(dp59
g18
I348
sbasg19
I348
sba(i__main__
Mention
p60
(dp61
g7
S't1'
p62
sg9
S'Coreference-Identity'
p63
sg10
S'i45'
p64
sg12
S'i44'
p65
sg13
Nsg14
(lp66
(i__main__
Token
p67
(dp68
g18
I367
sbasg19
I367
sba(i__main__
Mention
p69
(dp70
g7
S't1'
p71
sg9
S'Coreference-Identity'
p72
sg10
S'i50'
p73
sg12
S'i45'
p74
sg13
Nsg14
(lp75
(i__main__
Token
p76
(dp77
g18
I389
sbasg19
I389
sba(i__main__
Mention
p78
(dp79
g7
S't1'
p80
sg9
S'Coreference-Identity'
p81
sg10
S'i59'
p82
sg12
S'i50'
p83
sg13
Nsg14
(lp84
(i__main__
Token
p85
(dp86
g18
I467
sbasg19
I467
sba(i__main__
Mention
p87
(dp88
g7
S't1'
p89
sg9
S'Coreference-Noun-Noun'
p90
sg10
S'i62'
p91
sg12
S'i29'
p92
sg13
Nsg14
(lp93
(i__main__
Token
p94
(dp95
g18
I517
sbasg19
I517
sba(i__main__
Mention
p96
(dp97
g7
S't1'
p98
sg9
S'Coreference-Noun-Noun'
p99
sg10
S'i68'
p100
sg12
S'i57'
p101
sg13
Nsg14
(lp102
(i__main__
Token
p103
(dp104
g18
I561
sbasg19
I561
sba(i__main__
Mention
p105
(dp106
g7
S't1'
p107
sg9
S'Coreference-Identity'
p108
sg10
S'i70'
p109
sg12
S'i68'
p110
sg13
Nsg14
(lp111
(i__main__
Token
p112
(dp113
g18
I580
sbasg19
I580
sbasg7
g8
sS'chainHead'
p114
Nsba(i__main__
Chain
p115
(dp116
g3
(lp117
(i__main__
Mention
p118
(dp119
g7
S't2'
p120
sg9
Nsg10
S'i2'
p121
sg12
Nsg13
Nsg14
(lp122
(i__main__
Token
p123
(dp124
g18
I12
sbasg19
I12
sba(i__main__
Mention
p125
(dp126
g7
S't2'
p127
sg9
S'Coreference-NounComplement'
p128
sg10
S'i3'
p129
sg12
S'i2'
p130
sg13
Nsg14
(lp131
(i__main__
Token
p132
(dp133
g18
I13
sba(i__main__
Token
p134
(dp135
g18
I14
sbasg19
I14
sba(i__main__
Mention
p136
(dp137
g7
S't2'
p138
sg9
S'Anaphora-C'
p139
sg10
S'i6'
p140
sg12
S'i3'
p141
sg13
Nsg14
(lp142
(i__main__
Token
p143
(dp144
g18
I37
sbasg19
I37
sba(i__main__
Mention
p145
(dp146
g7
S't2'
p147
sg9
S'Anaphora-C'
p148
sg10
S'i11'
p149
sg12
S'i6'
p150
sg13
Nsg14
(lp151
(i__main__
Token
p152
(dp153
g18
I61
sbasg19
I61
sba(i__main__
Mention
p154
(dp155
g7
S't2'
p156
sg9
S'Coreference-Noun-Noun'
p157
sg10
S'i14'
p158
sg12
S'i11'
p159
sg13
Nsg14
(lp160
(i__main__
Token
p161
(dp162
g18
I90
sba(i__main__
Token
p163
(dp164
g18
I91
sbasg19
I91
sba(i__main__
Mention
p165
(dp166
g7
S't2'
p167
sg9
S'Coreference-NounComplement'
p168
sg10
S'i17'
p169
sg12
S'i14'
p170
sg13
Nsg14
(lp171
(i__main__
Token
p172
(dp173
g18
I109
sbasg19
I109
sba(i__main__
Mention
p174
(dp175
g7
S't2'
p176
sg9
S'Anaphora-C'
p177
sg10
S'i41'
p178
sg12
S'i17'
p179
sg13
Nsg14
(lp180
(i__main__
Token
p181
(dp182
g18
I301
sbasg19
I301
sba(i__main__
Mention
p183
(dp184
g7
S't2'
p185
sg9
S'Coreference-Identity'
p186
sg10
S'i49'
p187
sg12
S'i41'
p188
sg13
Nsg14
(lp189
(i__main__
Token
p190
(dp191
g18
I385
sbasg19
I385
sba(i__main__
Mention
p192
(dp193
g7
S't2'
p194
sg9
S'Anaphora-C'
p195
sg10
S'i54'
p196
sg12
S'i49'
p197
sg13
Nsg14
(lp198
(i__main__
Token
p199
(dp200
g18
I436
sbasg19
I436
sba(i__main__
Mention
p201
(dp202
g7
S't2'
p203
sg9
S'Coreference-Identity'
p204
sg10
S'i64'
p205
sg12
S'i54'
p206
sg13
Nsg14
(lp207
(i__main__
Token
p208
(dp209
g18
I532
sbasg19
I532
sba(i__main__
Mention
p210
(dp211
g7
S't2'
p212
sg9
S'Coreference-Identity'
p213
sg10
S'i66'
p214
sg12
S'i64'
p215
sg13
Nsg14
(lp216
(i__main__
Token
p217
(dp218
g18
I551
sbasg19
I551
sba(i__main__
Mention
p219
(dp220
g7
S't2'
p221
sg9
S'Anaphora-C'
p222
sg10
S'i69'
p223
sg12
S'i66'
p224
sg13
Nsg14
(lp225
(i__main__
Token
p226
(dp227
g18
I566
sbasg19
I566
sbasg7
g120
sg114
Nsba(i__main__
Chain
p228
(dp229
g3
(lp230
(i__main__
Mention
p231
(dp232
g7
S't3'
p233
sg9
Nsg10
S'i4'
p234
sg12
Nsg13
Nsg14
(lp235
(i__main__
Token
p236
(dp237
g18
I26
sbasg19
I26
sba(i__main__
Mention
p238
(dp239
g7
S't3'
p240
sg9
S'Coreference-Identity'
p241
sg10
S'i20'
p242
sg12
S'i4'
p243
sg13
Nsg14
(lp244
(i__main__
Token
p245
(dp246
g18
I134
sba(i__main__
Token
p247
(dp248
g18
I135
sbasg19
I135
sba(i__main__
Mention
p249
(dp250
g7
S't3'
p251
sg9
S'Coreference-Identity'
p252
sg10
S'i27'
p253
sg12
S'i20'
p254
sg13
Nsg14
(lp255
(i__main__
Token
p256
(dp257
g18
I173
sbasg19
I173
sba(i__main__
Mention
p258
(dp259
g7
S't3'
p260
sg9
S'Coreference-Identity'
p261
sg10
S'i29'
p262
sg12
S'i27'
p263
sg13
Nsg14
(lp264
(i__main__
Token
p265
(dp266
g18
I187
sbasg19
I187
sbasg7
g233
sg114
Nsba(i__main__
Chain
p267
(dp268
g3
(lp269
(i__main__
Mention
p270
(dp271
g7
S't4'
p272
sg9
Nsg10
S'i5'
p273
sg12
Nsg13
Nsg14
(lp274
(i__main__
Token
p275
(dp276
g18
I30
sbasg19
I30
sba(i__main__
Mention
p277
(dp278
g7
S't4'
p279
sg9
S'Coreference-Identity'
p280
sg10
S'i42'
p281
sg12
S'i5'
p282
sg13
Nsg14
(lp283
(i__main__
Token
p284
(dp285
g18
I308
sbasg19
I308
sba(i__main__
Mention
p286
(dp287
g7
S't4'
p288
sg9
S'Coreference-Identity'
p289
sg10
S'i43'
p290
sg12
S'i42'
p291
sg13
Nsg14
(lp292
(i__main__
Token
p293
(dp294
g18
I328
sbasg19
I328
sbasg7
g272
sg114
Nsba(i__main__
Chain
p295
(dp296
g3
(lp297
(i__main__
Mention
p298
(dp299
g7
S't5'
p300
sg9
Nsg10
S'i7'
p301
sg12
Nsg13
Nsg14
(lp302
(i__main__
Token
p303
(dp304
g18
I44
sba(i__main__
Token
p305
(dp306
g18
I45
sba(i__main__
Token
p307
(dp308
g18
I46
sba(i__main__
Token
p309
(dp310
g18
I47
sbasg19
I47
sba(i__main__
Mention
p311
(dp312
g7
S't5'
p313
sg9
S'Anaphora-C'
p314
sg10
S'i9'
p315
sg12
S'i7'
p316
sg13
Nsg14
(lp317
(i__main__
Token
p318
(dp319
g18
I52
sbasg19
I52
sbasg7
g300
sg114
Nsba(i__main__
Chain
p320
(dp321
g3
(lp322
(i__main__
Mention
p323
(dp324
g7
S't6'
p325
sg9
Nsg10
S'i8'
p326
sg12
Nsg13
Nsg14
(lp327
(i__main__
Token
p328
(dp329
g18
I44
sba(i__main__
Token
p330
(dp331
g18
I45
sbasg19
I45
sba(i__main__
Mention
p332
(dp333
g7
S't6'
p334
sg9
S'Coreference-Identity'
p335
sg10
S'i23'
p336
sg12
S'i8'
p337
sg13
Nsg14
(lp338
(i__main__
Token
p339
(dp340
g18
I141
sba(i__main__
Token
p341
(dp342
g18
I142
sba(i__main__
Token
p343
(dp344
g18
I143
sba(i__main__
Token
p345
(dp346
g18
I144
sba(i__main__
Token
p347
(dp348
g18
I145
sba(i__main__
Token
p349
(dp350
g18
I146
sba(i__main__
Token
p351
(dp352
g18
I147
sbasg19
I147
sba(i__main__
Mention
p353
(dp354
g7
S't6'
p355
sg9
S'Coreference-Identity'
p356
sg10
S'i30'
p357
sg12
S'i23'
p358
sg13
Nsg14
(lp359
(i__main__
Token
p360
(dp361
g18
I203
sbasg19
I203
sba(i__main__
Mention
p362
(dp363
g7
S't6'
p364
sg9
S'Coreference-Identity'
p365
sg10
S'i32'
p366
sg12
S'i30'
p367
sg13
Nsg14
(lp368
(i__main__
Token
p369
(dp370
g18
I213
sba(i__main__
Token
p371
(dp372
g18
I214
sbasg19
I214
sba(i__main__
Mention
p373
(dp374
g7
S't6'
p375
sg9
S'Coreference-Identity'
p376
sg10
S'i36'
p377
sg12
S'i32'
p378
sg13
Nsg14
(lp379
(i__main__
Token
p380
(dp381
g18
I233
sba(i__main__
Token
p382
(dp383
g18
I234
sbasg19
I234
sbasg7
g325
sg114
Nsba(i__main__
Chain
p384
(dp385
g3
(lp386
(i__main__
Mention
p387
(dp388
g7
S't7'
p389
sg9
Nsg10
S'i12'
p390
sg12
Nsg13
Nsg14
(lp391
(i__main__
Token
p392
(dp393
g18
I65
sba(i__main__
Token
p394
(dp395
g18
I66
sba(i__main__
Token
p396
(dp397
g18
I67
sba(i__main__
Token
p398
(dp399
g18
I68
sbasg19
I68
sba(i__main__
Mention
p400
(dp401
g7
S't7'
p402
sg9
S'Anaphora-C'
p403
sg10
S'i13'
p404
sg12
S'i12'
p405
sg13
Nsg14
(lp406
(i__main__
Token
p407
(dp408
g18
I85
sbasg19
I85
sba(i__main__
Mention
p409
(dp410
g7
S't7'
p411
sg9
S'Coreference-Identity'
p412
sg10
S'i37'
p413
sg12
S'i13'
p414
sg13
Nsg14
(lp415
(i__main__
Token
p416
(dp417
g18
I259
sba(i__main__
Token
p418
(dp419
g18
I260
sba(i__main__
Token
p420
(dp421
g18
I261
sba(i__main__
Token
p422
(dp423
g18
I262
sbasg19
I262
sba(i__main__
Mention
p424
(dp425
g7
S't7'
p426
sg9
S'Coreference-Identity'
p427
sg10
S'i61'
p428
sg12
S'i37'
p429
sg13
Nsg14
(lp430
(i__main__
Token
p431
(dp432
g18
I477
sba(i__main__
Token
p433
(dp434
g18
I478
sba(i__main__
Token
p435
(dp436
g18
I479
sba(i__main__
Token
p437
(dp438
g18
I480
sbasg19
I480
sbasg7
g389
sg114
Nsba(i__main__
Chain
p439
(dp440
g3
(lp441
(i__main__
Mention
p442
(dp443
g7
S't8'
p444
sg9
Nsg10
S'i18'
p445
sg12
Nsg13
Nsg14
(lp446
(i__main__
Token
p447
(dp448
g18
I119
sba(i__main__
Token
p449
(dp450
g18
I120
sba(i__main__
Token
p451
(dp452
g18
I121
sba(i__main__
Token
p453
(dp454
g18
I122
sba(i__main__
Token
p455
(dp456
g18
I123
sba(i__main__
Token
p457
(dp458
g18
I124
sba(i__main__
Token
p459
(dp460
g18
I125
sbasg19
I125
sba(i__main__
Mention
p461
(dp462
g7
S't8'
p463
sg9
S'Anaphora-C'
p464
sg10
S'i21'
p465
sg12
S'i18'
p466
sg13
Nsg14
(lp467
(i__main__
Token
p468
(dp469
g18
I137
sbasg19
I137
sbasg7
g444
sg114
Nsba(i__main__
Chain
p470
(dp471
g3
(lp472
(i__main__
Mention
p473
(dp474
g7
S't9'
p475
sg9
Nsg10
S'i19'
p476
sg12
Nsg13
Nsg14
(lp477
(i__main__
Token
p478
(dp479
g18
I121
sbasg19
I121
sba(i__main__
Mention
p480
(dp481
g7
S't9'
p482
sg9
S'Coreference-Identity'
p483
sg10
S'i35'
p484
sg12
S'i19'
p485
sg13
Nsg14
(lp486
(i__main__
Token
p487
(dp488
g18
I227
sbasg19
I227
sbasg7
g475
sg114
Nsba(i__main__
Chain
p489
(dp490
g3
(lp491
(i__main__
Mention
p492
(dp493
g7
S't10'
p494
sg9
Nsg10
S'i24'
p495
sg12
Nsg13
Nsg14
(lp496
(i__main__
Token
p497
(dp498
g18
I141
sba(i__main__
Token
p499
(dp500
g18
I142
sba(i__main__
Token
p501
(dp502
g18
I143
sba(i__main__
Token
p503
(dp504
g18
I144
sba(i__main__
Token
p505
(dp506
g18
I145
sba(i__main__
Token
p507
(dp508
g18
I146
sba(i__main__
Token
p509
(dp510
g18
I147
sba(i__main__
Token
p511
(dp512
g18
I148
sba(i__main__
Token
p513
(dp514
g18
I149
sbasg19
I149
sba(i__main__
Mention
p515
(dp516
g7
S't10'
p517
sg9
S'Anaphora-C'
p518
sg10
S'i25'
p519
sg12
S'i24'
p520
sg13
Nsg14
(lp521
(i__main__
Token
p522
(dp523
g18
I166
sbasg19
I166
sbasg7
g494
sg114
Nsba(i__main__
Chain
p524
(dp525
g3
(lp526
(i__main__
Mention
p527
(dp528
g7
S't11'
p529
sg9
S'anaphora-?'
p530
sg10
S'i28'
p531
sg12
S'i28'
p532
sg13
Nsg14
(lp533
(i__main__
Token
p534
(dp535
g18
I179
sbasg19
I179
sbasg7
g529
sg114
Nsba(i__main__
Chain
p536
(dp537
g3
(lp538
(i__main__
Mention
p539
(dp540
g7
S't12'
p541
sg9
Nsg10
S'i31'
p542
sg12
Nsg13
Nsg14
(lp543
(i__main__
Token
p544
(dp545
g18
I211
sba(i__main__
Token
p546
(dp547
g18
I212
sba(i__main__
Token
p548
(dp549
g18
I213
sba(i__main__
Token
p550
(dp551
g18
I214
sba(i__main__
Token
p552
(dp553
g18
I215
sba(i__main__
Token
p554
(dp555
g18
I216
sba(i__main__
Token
p556
(dp557
g18
I217
sbasg19
I216
sba(i__main__
Mention
p558
(dp559
g7
S't12'
p560
sg9
S'Anaphora-C'
p561
sg10
S'i33'
p562
sg12
S'i31'
p563
sg13
Nsg14
(lp564
(i__main__
Token
p565
(dp566
g18
I219
sbasg19
I219
sbasg7
g541
sg114
Nsba(i__main__
Chain
p567
(dp568
g3
(lp569
(i__main__
Mention
p570
(dp571
g7
S't13'
p572
sg9
Nsg10
S'i39'
p573
sg12
Nsg13
Nsg14
(lp574
(i__main__
Token
p575
(dp576
g18
I282
sba(i__main__
Token
p577
(dp578
g18
I283
sbasg19
I283
sba(i__main__
Mention
p579
(dp580
g7
S't13'
p581
sg9
S'Coreference-NounComplement'
p582
sg10
S'i40'
p583
sg12
S'i39'
p584
sg13
Nsg14
(lp585
(i__main__
Token
p586
(dp587
g18
I284
sba(i__main__
Token
p588
(dp589
g18
I285
sba(i__main__
Token
p590
(dp591
g18
I286
sbasg19
I286
sba(i__main__
Mention
p592
(dp593
g7
S't13'
p594
sg9
S'Coreference-Noun-Noun'
p595
sg10
S'i52'
p596
sg12
S'i40'
p597
sg13
Nsg14
(lp598
(i__main__
Token
p599
(dp600
g18
I417
sba(i__main__
Token
p601
(dp602
g18
I418
sbasg19
I417
sba(i__main__
Mention
p603
(dp604
g7
S't13'
p605
sg9
S'Coreference-Noun-Noun'
p606
sg10
S'i67'
p607
sg12
S'i74'
p608
sg13
Nsg14
(lp609
(i__main__
Token
p610
(dp611
g18
I555
sba(i__main__
Token
p612
(dp613
g18
I556
sbasg19
I556
sbasg7
g572
sg114
Nsba(i__main__
Chain
p614
(dp615
g3
(lp616
(i__main__
Mention
p617
(dp618
g7
S't14'
p619
sg9
Nsg10
S'i46'
p620
sg12
Nsg13
Nsg14
(lp621
(i__main__
Token
p622
(dp623
g18
I367
sba(i__main__
Token
p624
(dp625
g18
I368
sba(i__main__
Token
p626
(dp627
g18
I369
sba(i__main__
Token
p628
(dp629
g18
I370
sba(i__main__
Token
p630
(dp631
g18
I371
sba(i__main__
Token
p632
(dp633
g18
I372
sba(i__main__
Token
p634
(dp635
g18
I373
sba(i__main__
Token
p636
(dp637
g18
I374
sba(i__main__
Token
p638
(dp639
g18
I375
sbasg19
I374
sba(i__main__
Mention
p640
(dp641
g7
S't14'
p642
sg9
S'Anaphora-C'
p643
sg10
S'i47'
p644
sg12
S'i46'
p645
sg13
Nsg14
(lp646
(i__main__
Token
p647
(dp648
g18
I381
sbasg19
I381
sbasg7
g619
sg114
Nsba(i__main__
Chain
p649
(dp650
g3
(lp651
(i__main__
Mention
p652
(dp653
g7
S't15'
p654
sg9
Nsg10
S'i51'
p655
sg12
Nsg13
Nsg14
(lp656
(i__main__
Token
p657
(dp658
g18
I403
sba(i__main__
Token
p659
(dp660
g18
I404
sbasg19
I404
sba(i__main__
Mention
p661
(dp662
g7
S't15'
p663
sg9
S'Coreference-Identity'
p664
sg10
S'i53'
p665
sg12
S'i51'
p666
sg13
Nsg14
(lp667
(i__main__
Token
p668
(dp669
g18
I423
sba(i__main__
Token
p670
(dp671
g18
I424
sbasg19
I424
sbasg7
g654
sg114
Nsba(i__main__
Chain
p672
(dp673
g3
(lp674
(i__main__
Mention
p675
(dp676
g7
S't16'
p677
sg9
Nsg10
S'i55'
p678
sg12
Nsg13
Nsg14
(lp679
(i__main__
Token
p680
(dp681
g18
I442
sba(i__main__
Token
p682
(dp683
g18
I443
sba(i__main__
Token
p684
(dp685
g18
I444
sba(i__main__
Token
p686
(dp687
g18
I445
sbasg19
I445
sba(i__main__
Mention
p688
(dp689
g7
S't16'
p690
sg9
S'Anaphora-C'
p691
sg10
S'i57'
p692
sg12
S'i55'
p693
sg13
Nsg14
(lp694
(i__main__
Token
p695
(dp696
g18
I459
sbasg19
I459
sba(i__main__
Mention
p697
(dp698
g7
S't16'
p699
sg9
S'Anaphora-C'
p700
sg10
S'i58'
p701
sg12
S'i57'
p702
sg13
Nsg14
(lp703
(i__main__
Token
p704
(dp705
g18
I466
sbasg19
I466
sbasg7
g677
sg114
Nsba(i__main__
Chain
p706
(dp707
g3
(lp708
(i__main__
Mention
p709
(dp710
g7
S't17'
p711
sg9
Nsg10
S'i56'
p712
sg12
Nsg13
Nsg14
(lp713
(i__main__
Token
p714
(dp715
g18
I446
sba(i__main__
Token
p716
(dp717
g18
I447
sbasg19
I447
sba(i__main__
Mention
p718
(dp719
g7
S't17'
p720
sg9
S'Anaphora-C'
p721
sg10
S'i60'
p722
sg12
S'i56'
p723
sg13
Nsg14
(lp724
(i__main__
Token
p725
(dp726
g18
I476
sbasg19
I476
sbasg7
g711
sg114
Nsba(i__main__
Chain
p727
(dp728
g3
(lp729
(i__main__
Mention
p730
(dp731
g7
S't18'
p732
sg9
S'anaphora-?'
p733
sg10
S'i65'
p734
sg12
S'i65'
p735
sg13
Nsg14
(lp736
(i__main__
Token
p737
(dp738
g18
I544
sbasg19
I544
sbasg7
g732
sg114
Nsba.