(lp0
(i__main__
Chain
p1
(dp2
S'mentionList'
p3
(lp4
(i__main__
Mention
p5
(dp6
S'chainId'
p7
S't1'
p8
sS'relType'
p9
NsS'mentionId'
p10
S'i1'
p11
sS'antecedentId'
p12
NsS'crefMod'
p13
NsS'tokenList'
p14
(lp15
(i__main__
Token
p16
(dp17
S'tokenId'
p18
I0
sba(i__main__
Token
p19
(dp20
g18
I1
sba(i__main__
Token
p21
(dp22
g18
I2
sba(i__main__
Token
p23
(dp24
g18
I3
sba(i__main__
Token
p25
(dp26
g18
I4
sbasS'mentionHead'
p27
I4
sba(i__main__
Mention
p28
(dp29
g7
S't1'
p30
sg9
S'Anaphora-C'
p31
sg10
S'i7'
p32
sg12
S'i1'
p33
sg13
Nsg14
(lp34
(i__main__
Token
p35
(dp36
g18
I24
sbasg27
I24
sba(i__main__
Mention
p37
(dp38
g7
S't1'
p39
sg9
S'Coreference-Identity'
p40
sg10
S'i12'
p41
sg12
S'i7'
p42
sg13
Nsg14
(lp43
(i__main__
Token
p44
(dp45
g18
I55
sbasg27
I55
sba(i__main__
Mention
p46
(dp47
g7
S't1'
p48
sg9
S'Coreference-Identity'
p49
sg10
S'i14'
p50
sg12
S'i12'
p51
sg13
Nsg14
(lp52
(i__main__
Token
p53
(dp54
g18
I69
sbasg27
I69
sba(i__main__
Mention
p55
(dp56
g7
S't1'
p57
sg9
S'Anaphora-C'
p58
sg10
S'i19'
p59
sg12
S'i14'
p60
sg13
Nsg14
(lp61
(i__main__
Token
p62
(dp63
g18
I98
sbasg27
I98
sbasg7
g8
sS'chainHead'
p64
Nsba(i__main__
Chain
p65
(dp66
g3
(lp67
(i__main__
Mention
p68
(dp69
g7
S't2'
p70
sg9
Nsg10
S'i2'
p71
sg12
Nsg13
Nsg14
(lp72
(i__main__
Token
p73
(dp74
g18
I6
sba(i__main__
Token
p75
(dp76
g18
I7
sbasg27
I7
sba(i__main__
Mention
p77
(dp78
g7
S't2'
p79
sg9
S'Coreference-NounComplement'
p80
sg10
S'i4'
p81
sg12
S'i2'
p82
sg13
Nsg14
(lp83
(i__main__
Token
p84
(dp85
g18
I8
sbasg27
I8
sba(i__main__
Mention
p86
(dp87
g7
S't2'
p88
sg9
S'Coreference-Identity'
p89
sg10
S'i20'
p90
sg12
S'i4'
p91
sg13
Nsg14
(lp92
(i__main__
Token
p93
(dp94
g18
I102
sbasg27
I102
sbasg7
g70
sg64
Nsba(i__main__
Chain
p95
(dp96
g3
(lp97
(i__main__
Mention
p98
(dp99
g7
S't3'
p100
sg9
Nsg10
S'i3'
p101
sg12
Nsg13
Nsg14
(lp102
(i__main__
Token
p103
(dp104
g18
I6
sbasg27
I6
sba(i__main__
Mention
p105
(dp106
g7
S't3'
p107
sg9
S'Coreference-Identity'
p108
sg10
S'i8'
p109
sg12
S'i3'
p110
sg13
Nsg14
(lp111
(i__main__
Token
p112
(dp113
g18
I40
sbasg27
I40
sba(i__main__
Mention
p114
(dp115
g7
S't3'
p116
sg9
S'Coreference-Identity'
p117
sg10
S'i22'
p118
sg12
S'i8'
p119
sg13
Nsg14
(lp120
(i__main__
Token
p121
(dp122
g18
I124
sbasg27
I124
sbasg7
g100
sg64
Nsba(i__main__
Chain
p123
(dp124
g3
(lp125
(i__main__
Mention
p126
(dp127
g7
S't4'
p128
sg9
Nsg10
S'i5'
p129
sg12
Nsg13
Nsg14
(lp130
(i__main__
Token
p131
(dp132
g18
I17
sbasg27
I17
sba(i__main__
Mention
p133
(dp134
g7
S't4'
p135
sg9
S'Coreference-Noun-Noun'
p136
sg10
S'i11'
p137
sg12
S'i5'
p138
sg13
Nsg14
(lp139
(i__main__
Token
p140
(dp141
g18
I53
sba(i__main__
Token
p142
(dp143
g18
I54
sbasg27
I54
sba(i__main__
Mention
p144
(dp145
g7
S't4'
p146
sg9
S'Coreference-Noun-Noun'
p147
sg10
S'i15'
p148
sg12
S'i11'
p149
sg13
Nsg14
(lp150
(i__main__
Token
p151
(dp152
g18
I71
sba(i__main__
Token
p153
(dp154
g18
I72
sbasg27
I72
sbasg7
g128
sg64
Nsba(i__main__
Chain
p155
(dp156
g3
(lp157
(i__main__
Mention
p158
(dp159
g7
S't5'
p160
sg9
Nsg10
S'i6'
p161
sg12
Nsg13
Nsg14
(lp162
(i__main__
Token
p163
(dp164
g18
I21
sba(i__main__
Token
p165
(dp166
g18
I22
sbasg27
I22
sba(i__main__
Mention
p167
(dp168
g7
S't5'
p169
sg9
S'Coreference-Noun-Noun'
p170
sg10
S'i9'
p171
sg12
S'i6'
p172
sg13
Nsg14
(lp173
(i__main__
Token
p174
(dp175
g18
I42
sbasg27
I42
sba(i__main__
Mention
p176
(dp177
g7
S't5'
p178
sg9
S'Coreference-NounComplement'
p179
sg10
S'i10'
p180
sg12
S'i9'
p181
sg13
Nsg14
(lp182
(i__main__
Token
p183
(dp184
g18
I43
sbasg27
I43
sba(i__main__
Mention
p185
(dp186
g7
S't5'
p187
sg9
S'Anaphora-C'
p188
sg10
S'i13'
p189
sg12
S'i10'
p190
sg13
Nsg14
(lp191
(i__main__
Token
p192
(dp193
g18
I64
sbasg27
I64
sbasg7
g160
sg64
Nsba(i__main__
Chain
p194
(dp195
g3
(lp196
(i__main__
Mention
p197
(dp198
g7
S't6'
p199
sg9
Nsg10
S'i16'
p200
sg12
Nsg13
Nsg14
(lp201
(i__main__
Token
p202
(dp203
g18
I88
sbasg27
I88
sba(i__main__
Mention
p204
(dp205
g7
S't6'
p206
sg9
S'Anaphora-RE'
p207
sg10
S'i17'
p208
sg12
S'i16'
p209
sg13
Nsg14
(lp210
(i__main__
Token
p211
(dp212
g18
I89
sba(i__main__
Token
p213
(dp214
g18
I90
sba(i__main__
Token
p215
(dp216
g18
I91
sba(i__main__
Token
p217
(dp218
g18
I92
sba(i__main__
Token
p219
(dp220
g18
I93
sba(i__main__
Token
p221
(dp222
g18
I94
sbasg27
I94
sba(i__main__
Mention
p223
(dp224
g7
S't6'
p225
sg9
S'Anaphora-RE'
p226
sg10
S'i18'
p227
sg12
S'i17'
p228
sg13
Nsg14
(lp229
(i__main__
Token
p230
(dp231
g18
I96
sbasg27
I96
sbasg7
g199
sg64
Nsba(i__main__
Chain
p232
(dp233
g3
(lp234
(i__main__
Mention
p235
(dp236
g7
S't7'
p237
sg9
Nsg10
S'i21'
p238
sg12
Nsg13
Nsg14
(lp239
(i__main__
Token
p240
(dp241
g18
I109
sbasg27
I109
sbasg7
g237
sg64
Nsba.