(lp0
(i__main__
Chain
p1
(dp2
S'mentionList'
p3
(lp4
(i__main__
Mention
p5
(dp6
S'chainId'
p7
S't1'
p8
sS'relType'
p9
NsS'mentionId'
p10
S'i1'
p11
sS'antecedentId'
p12
NsS'crefMod'
p13
NsS'tokenList'
p14
(lp15
(i__main__
Token
p16
(dp17
S'tokenId'
p18
I0
sba(i__main__
Token
p19
(dp20
g18
I1
sba(i__main__
Token
p21
(dp22
g18
I2
sba(i__main__
Token
p23
(dp24
g18
I3
sba(i__main__
Token
p25
(dp26
g18
I4
sba(i__main__
Token
p27
(dp28
g18
I5
sba(i__main__
Token
p29
(dp30
g18
I6
sba(i__main__
Token
p31
(dp32
g18
I7
sbasS'mentionHead'
p33
I7
sba(i__main__
Mention
p34
(dp35
g7
S't1'
p36
sg9
S'Anaphora-C'
p37
sg10
S'i5'
p38
sg12
S'i1'
p39
sg13
Nsg14
(lp40
(i__main__
Token
p41
(dp42
g18
I65
sbasg33
I65
sba(i__main__
Mention
p43
(dp44
g7
S't1'
p45
sg9
S'Coreference-Identity'
p46
sg10
S'i8'
p47
sg12
S'i5'
p48
sg13
Nsg14
(lp49
(i__main__
Token
p50
(dp51
g18
I103
sbasg33
I103
sbasg7
g8
sS'chainHead'
p52
Nsba(i__main__
Chain
p53
(dp54
g3
(lp55
(i__main__
Mention
p56
(dp57
g7
S't2'
p58
sg9
Nsg10
S'i2'
p59
sg12
Nsg13
Nsg14
(lp60
(i__main__
Token
p61
(dp62
g18
I11
sba(i__main__
Token
p63
(dp64
g18
I12
sbasg33
I12
sba(i__main__
Mention
p65
(dp66
g7
S't2'
p67
sg9
S'Coreference-Identity'
p68
sg10
S'i3'
p69
sg12
S'i2'
p70
sg13
Nsg14
(lp71
(i__main__
Token
p72
(dp73
g18
I28
sba(i__main__
Token
p74
(dp75
g18
I29
sbasg33
I29
sba(i__main__
Mention
p76
(dp77
g7
S't2'
p78
sg9
S'Coreference-Identity'
p79
sg10
S'i7'
p80
sg12
S'i3'
p81
sg13
Nsg14
(lp82
(i__main__
Token
p83
(dp84
g18
I88
sba(i__main__
Token
p85
(dp86
g18
I89
sbasg33
I89
sbasg7
g58
sg52
Nsba(i__main__
Chain
p87
(dp88
g3
(lp89
(i__main__
Mention
p90
(dp91
g7
S't3'
p92
sg9
Nsg10
S'i4'
p93
sg12
Nsg13
Nsg14
(lp94
(i__main__
Token
p95
(dp96
g18
I51
sbasg33
I51
sbasg7
g92
sg52
Nsba(i__main__
Chain
p97
(dp98
g3
(lp99
(i__main__
Mention
p100
(dp101
g7
S't4'
p102
sg9
Nsg10
S'i6'
p103
sg12
Nsg13
Nsg14
(lp104
(i__main__
Token
p105
(dp106
g18
I79
sba(i__main__
Token
p107
(dp108
g18
I80
sba(i__main__
Token
p109
(dp110
g18
I81
sba(i__main__
Token
p111
(dp112
g18
I82
sba(i__main__
Token
p113
(dp114
g18
I83
sbasg33
I83
sba(i__main__
Mention
p115
(dp116
g7
S't4'
p117
sg9
S'Coreference-Identity'
p118
sg10
S'i9'
p119
sg12
S'i6'
p120
sg13
Nsg14
(lp121
(i__main__
Token
p122
(dp123
g18
I119
sba(i__main__
Token
p124
(dp125
g18
I120
sba(i__main__
Token
p126
(dp127
g18
I121
sbasg33
I121
sba(i__main__
Mention
p128
(dp129
g7
S't4'
p130
sg9
S'Coreference-Identity'
p131
sg10
S'i10'
p132
sg12
S'i9'
p133
sg13
Nsg14
(lp134
(i__main__
Token
p135
(dp136
g18
I125
sbasg33
I125
sba(i__main__
Mention
p137
(dp138
g7
S't4'
p139
sg9
S'Coreference-Identity'
p140
sg10
S'i14'
p141
sg12
S'i10'
p142
sg13
Nsg14
(lp143
(i__main__
Token
p144
(dp145
g18
I155
sbasg33
I155
sbasg7
g102
sg52
Nsba(i__main__
Chain
p146
(dp147
g3
(lp148
(i__main__
Mention
p149
(dp150
g7
S't5'
p151
sg9
Nsg10
S'i11'
p152
sg12
Nsg13
Nsg14
(lp153
(i__main__
Token
p154
(dp155
g18
I131
sba(i__main__
Token
p156
(dp157
g18
I132
sbasg33
I132
sba(i__main__
Mention
p158
(dp159
g7
S't5'
p160
sg9
S'Coreference-NounComplement'
p161
sg10
S'i12'
p162
sg12
S'i11'
p163
sg13
Nsg14
(lp164
(i__main__
Token
p165
(dp166
g18
I133
sba(i__main__
Token
p167
(dp168
g18
I134
sba(i__main__
Token
p169
(dp170
g18
I135
sbasg33
I135
sba(i__main__
Mention
p171
(dp172
g7
S't5'
p173
sg9
S'Anaphora-C'
p174
sg10
S'i13'
p175
sg12
S'i12'
p176
sg13
Nsg14
(lp177
(i__main__
Token
p178
(dp179
g18
I140
sbasg33
I140
sbasg7
g151
sg52
Nsba(i__main__
Chain
p180
(dp181
g3
(lp182
(i__main__
Mention
p183
(dp184
g7
S't6'
p185
sg9
Nsg10
S'i15'
p186
sg12
Nsg13
Nsg14
(lp187
(i__main__
Token
p188
(dp189
g18
I168
sbasg33
I168
sbasg7
g185
sg52
Nsba(i__main__
Chain
p190
(dp191
g3
(lp192
(i__main__
Mention
p193
(dp194
g7
S't7'
p195
sg9
Nsg10
S'i16'
p196
sg12
Nsg13
Nsg14
(lp197
(i__main__
Token
p198
(dp199
g18
I228
sba(i__main__
Token
p200
(dp201
g18
I229
sba(i__main__
Token
p202
(dp203
g18
I230
sbasg33
Nsba(i__main__
Mention
p204
(dp205
g7
S't7'
p206
sg9
Nsg10
S'i20'
p207
sg12
Nsg13
Nsg14
(lp208
(i__main__
Token
p209
(dp210
g18
I238
sbasg33
Nsba(i__main__
Mention
p211
(dp212
g7
S't7'
p213
sg9
S'Coreference-PartOf'
p214
sg10
S'i23'
p215
sg12
S'i20'
p216
sg13
Nsg14
(lp217
(i__main__
Token
p218
(dp219
g18
I239
sba(i__main__
Token
p220
(dp221
g18
I240
sbasg33
I240
sbasg7
g195
sg52
Nsba(i__main__
Chain
p222
(dp223
g3
(lp224
(i__main__
Mention
p225
(dp226
g7
S't8'
p227
sg9
Nsg10
S'i17'
p228
sg12
Nsg13
Nsg14
(lp229
(i__main__
Token
p230
(dp231
g18
I228
sba(i__main__
Token
p232
(dp233
g18
I229
sba(i__main__
Token
p234
(dp235
g18
I230
sbasg33
Nsba(i__main__
Mention
p236
(dp237
g7
S't8'
p238
sg9
Nsg10
S'i21'
p239
sg12
Nsg13
Nsg14
(lp240
(i__main__
Token
p241
(dp242
g18
I238
sbasg33
Nsba(i__main__
Mention
p243
(dp244
g7
S't8'
p245
sg9
S'Coreference-PartOf'
p246
sg10
S'i24'
p247
sg12
S'i21'
p248
sg13
Nsg14
(lp249
(i__main__
Token
p250
(dp251
g18
I242
sba(i__main__
Token
p252
(dp253
g18
I243
sbasg33
I243
sbasg7
g227
sg52
Nsba(i__main__
Chain
p254
(dp255
g3
(lp256
(i__main__
Mention
p257
(dp258
g7
S't9'
p259
sg9
Nsg10
S'i18'
p260
sg12
Nsg13
Nsg14
(lp261
(i__main__
Token
p262
(dp263
g18
I228
sba(i__main__
Token
p264
(dp265
g18
I229
sba(i__main__
Token
p266
(dp267
g18
I230
sbasg33
Nsba(i__main__
Mention
p268
(dp269
g7
S't9'
p270
sg9
Nsg10
S'i22'
p271
sg12
Nsg13
Nsg14
(lp272
(i__main__
Token
p273
(dp274
g18
I238
sbasg33
Nsba(i__main__
Mention
p275
(dp276
g7
S't9'
p277
sg9
S'Coreference-PartOf'
p278
sg10
S'i25'
p279
sg12
S'i22'
p280
sg13
Nsg14
(lp281
(i__main__
Token
p282
(dp283
g18
I245
sba(i__main__
Token
p284
(dp285
g18
I246
sba(i__main__
Token
p286
(dp287
g18
I247
sba(i__main__
Token
p288
(dp289
g18
I248
sbasg33
I248
sbasg7
g259
sg52
Nsba(i__main__
Chain
p290
(dp291
g3
(lp292
(i__main__
Mention
p293
(dp294
g7
S't10'
p295
sg9
Nsg10
S'i19'
p296
sg12
Nsg13
Nsg14
(lp297
(i__main__
Token
p298
(dp299
g18
I233
sba(i__main__
Token
p300
(dp301
g18
I234
sbasg33
I234
sba(i__main__
Mention
p302
(dp303
g7
S't10'
p304
sg9
S'Coreference-Identity'
p305
sg10
S'i26'
p306
sg12
S'i19'
p307
sg13
Nsg14
(lp308
(i__main__
Token
p309
(dp310
g18
I256
sba(i__main__
Token
p311
(dp312
g18
I257
sbasg33
I257
sbasg7
g295
sg52
Nsba.