(lp0
(i__main__
Chain
p1
(dp2
S'mentionList'
p3
(lp4
(i__main__
Mention
p5
(dp6
S'chainId'
p7
S't1'
p8
sS'relType'
p9
NsS'mentionId'
p10
S'i1'
p11
sS'antecedentId'
p12
NsS'crefMod'
p13
NsS'tokenList'
p14
(lp15
(i__main__
Token
p16
(dp17
S'tokenId'
p18
I5
sba(i__main__
Token
p19
(dp20
g18
I6
sba(i__main__
Token
p21
(dp22
g18
I7
sbasS'mentionHead'
p23
I7
sba(i__main__
Mention
p24
(dp25
g7
S't1'
p26
sg9
S'Anaphora-C'
p27
sg10
S'i2'
p28
sg12
S'i1'
p29
sg13
Nsg14
(lp30
(i__main__
Token
p31
(dp32
g18
I8
sbasg23
I8
sba(i__main__
Mention
p33
(dp34
g7
S't1'
p35
sg9
S'Anaphora-C'
p36
sg10
S'i5'
p37
sg12
S'i2'
p38
sg13
Nsg14
(lp39
(i__main__
Token
p40
(dp41
g18
I19
sbasg23
I19
sba(i__main__
Mention
p42
(dp43
g7
S't1'
p44
sg9
S'Anaphora-C'
p45
sg10
S'i12'
p46
sg12
S'i5'
p47
sg13
Nsg14
(lp48
(i__main__
Token
p49
(dp50
g18
I42
sbasg23
I42
sba(i__main__
Mention
p51
(dp52
g7
S't1'
p53
sg9
S'Anaphora-C'
p54
sg10
S'i20'
p55
sg12
S'i12'
p56
sg13
Nsg14
(lp57
(i__main__
Token
p58
(dp59
g18
I57
sbasg23
I57
sba(i__main__
Mention
p60
(dp61
g7
S't1'
p62
sg9
S'Coreference-Noun-Noun'
p63
sg10
S'i23'
p64
sg12
S'i20'
p65
sg13
Nsg14
(lp66
(i__main__
Token
p67
(dp68
g18
I73
sbasg23
I73
sba(i__main__
Mention
p69
(dp70
g7
S't1'
p71
sg9
S'Anaphora-C'
p72
sg10
S'i26'
p73
sg12
S'i23'
p74
sg13
Nsg14
(lp75
(i__main__
Token
p76
(dp77
g18
I86
sbasg23
I86
sba(i__main__
Mention
p78
(dp79
g7
S't1'
p80
sg9
S'Coreference-Identity'
p81
sg10
S'i47'
p82
sg12
S'i26'
p83
sg13
Nsg14
(lp84
(i__main__
Token
p85
(dp86
g18
I149
sbasg23
I149
sba(i__main__
Mention
p87
(dp88
g7
S't1'
p89
sg9
S'Anaphora-C'
p90
sg10
S'i52'
p91
sg12
S'i47'
p92
sg13
Nsg14
(lp93
(i__main__
Token
p94
(dp95
g18
I179
sbasg23
I179
sba(i__main__
Mention
p96
(dp97
g7
S't1'
p98
sg9
S'Coreference-Identity'
p99
sg10
S'i60'
p100
sg12
S'i52'
p101
sg13
Nsg14
(lp102
(i__main__
Token
p103
(dp104
g18
I234
sbasg23
I234
sbasg7
g8
sS'chainHead'
p105
Nsba(i__main__
Chain
p106
(dp107
g3
(lp108
(i__main__
Mention
p109
(dp110
g7
S't2'
p111
sg9
Nsg10
S'i3'
p112
sg12
Nsg13
Nsg14
(lp113
(i__main__
Token
p114
(dp115
g18
I9
sba(i__main__
Token
p116
(dp117
g18
I10
sbasg23
I10
sba(i__main__
Mention
p118
(dp119
g7
S't2'
p120
sg9
S'Coreference-PartOf'
p121
sg10
S'i7'
p122
sg12
S'i3'
p123
sg13
Nsg14
(lp124
(i__main__
Token
p125
(dp126
g18
I28
sbasg23
I28
sba(i__main__
Mention
p127
(dp128
g7
S't2'
p129
sg9
S'Coreference-Identity'
p130
sg10
S'i13'
p131
sg12
S'i7'
p132
sg13
Nsg14
(lp133
(i__main__
Token
p134
(dp135
g18
I43
sba(i__main__
Token
p136
(dp137
g18
I44
sbasg23
I44
sba(i__main__
Mention
p138
(dp139
g7
S't2'
p140
sg9
S'Coreference-Identity'
p141
sg10
S'i24'
p142
sg12
S'i13'
p143
sg13
Nsg14
(lp144
(i__main__
Token
p145
(dp146
g18
I75
sba(i__main__
Token
p147
(dp148
g18
I76
sbasg23
I76
sba(i__main__
Mention
p149
(dp150
g7
S't2'
p151
sg9
S'Coreference-Identity'
p152
sg10
S'i48'
p153
sg12
S'i24'
p154
sg13
Nsg14
(lp155
(i__main__
Token
p156
(dp157
g18
I151
sba(i__main__
Token
p158
(dp159
g18
I152
sbasg23
I152
sba(i__main__
Mention
p160
(dp161
g7
S't2'
p162
sg9
S'Coreference-Identity'
p163
sg10
S'i53'
p164
sg12
S'i48'
p165
sg13
Nsg14
(lp166
(i__main__
Token
p167
(dp168
g18
I180
sba(i__main__
Token
p169
(dp170
g18
I181
sbasg23
I181
sba(i__main__
Mention
p171
(dp172
g7
S't2'
p173
sg9
S'Coreference-Identity'
p174
sg10
S'i59'
p175
sg12
S'i53'
p176
sg13
Nsg14
(lp177
(i__main__
Token
p178
(dp179
g18
I231
sbasg23
I231
sbasg7
g111
sg105
Nsba(i__main__
Chain
p180
(dp181
g3
(lp182
(i__main__
Mention
p183
(dp184
g7
S't3'
p185
sg9
Nsg10
S'i4'
p186
sg12
Nsg13
Nsg14
(lp187
(i__main__
Token
p188
(dp189
g18
I13
sba(i__main__
Token
p190
(dp191
g18
I14
sbasg23
I14
sba(i__main__
Mention
p192
(dp193
g7
S't3'
p194
sg9
S'Coreference-Identity'
p195
sg10
S'i6'
p196
sg12
S'i4'
p197
sg13
Nsg14
(lp198
(i__main__
Token
p199
(dp200
g18
I25
sba(i__main__
Token
p201
(dp202
g18
I26
sbasg23
I26
sba(i__main__
Mention
p203
(dp204
g7
S't3'
p205
sg9
S'Coreference-Identity'
p206
sg10
S'i8'
p207
sg12
S'i6'
p208
sg13
Nsg14
(lp209
(i__main__
Token
p210
(dp211
g18
I36
sbasg23
I36
sba(i__main__
Mention
p212
(dp213
g7
S't3'
p214
sg9
S'Coreference-Identity'
p215
sg10
S'i58'
p216
sg12
S'i8'
p217
sg13
Nsg14
(lp218
(i__main__
Token
p219
(dp220
g18
I228
sba(i__main__
Token
p221
(dp222
g18
I229
sbasg23
I229
sba(i__main__
Mention
p223
(dp224
g7
S't3'
p225
sg9
S'Coreference-Identity'
p226
sg10
S'i64'
p227
sg12
S'i58'
p228
sg13
Nsg14
(lp229
(i__main__
Token
p230
(dp231
g18
I254
sbasg23
I254
sbasg7
g185
sg105
Nsba(i__main__
Chain
p232
(dp233
g3
(lp234
(i__main__
Mention
p235
(dp236
g7
S't4'
p237
sg9
Nsg10
S'i9'
p238
sg12
Nsg13
Nsg14
(lp239
(i__main__
Token
p240
(dp241
g18
I38
sba(i__main__
Token
p242
(dp243
g18
I39
sba(i__main__
Token
p244
(dp245
g18
I40
sba(i__main__
Token
p246
(dp247
g18
I41
sbasg23
Nsba(i__main__
Mention
p248
(dp249
g7
S't4'
p250
sg9
Nsg10
S'i14'
p251
sg12
Nsg13
Nsg14
(lp252
(i__main__
Token
p253
(dp254
g18
I49
sbasg23
Nsba(i__main__
Mention
p255
(dp256
g7
S't4'
p257
sg9
S'Coreference-PartOf'
p258
sg10
S'i18'
p259
sg12
S'i14'
p260
sg13
Nsg14
(lp261
(i__main__
Token
p262
(dp263
g18
I52
sbasg23
I52
sba(i__main__
Mention
p264
(dp265
g7
S't4'
p266
sg9
Nsg10
S'i30'
p267
sg12
Nsg13
Nsg14
(lp268
(i__main__
Token
p269
(dp270
g18
I100
sbasg23
Nsba(i__main__
Mention
p271
(dp272
g7
S't4'
p273
sg9
Nsg10
S'i33'
p274
sg12
Nsg13
Nsg14
(lp275
(i__main__
Token
p276
(dp277
g18
I101
sba(i__main__
Token
p278
(dp279
g18
I102
sbasg23
Nsba(i__main__
Mention
p280
(dp281
g7
S't4'
p282
sg9
Nsg10
S'i36'
p283
sg12
Nsg13
Nsg14
(lp284
(i__main__
Token
p285
(dp286
g18
I104
sbasg23
Nsba(i__main__
Mention
p287
(dp288
g7
S't4'
p289
sg9
Nsg10
S'i45'
p290
sg12
Nsg13
Nsg14
(lp291
(i__main__
Token
p292
(dp293
g18
I136
sba(i__main__
Token
p294
(dp295
g18
I137
sbasg23
Nsbasg7
g237
sg105
Nsba(i__main__
Chain
p296
(dp297
g3
(lp298
(i__main__
Mention
p299
(dp300
g7
S't5'
p301
sg9
Nsg10
S'i10'
p302
sg12
Nsg13
Nsg14
(lp303
(i__main__
Token
p304
(dp305
g18
I38
sba(i__main__
Token
p306
(dp307
g18
I39
sba(i__main__
Token
p308
(dp309
g18
I40
sba(i__main__
Token
p310
(dp311
g18
I41
sbasg23
Nsba(i__main__
Mention
p312
(dp313
g7
S't5'
p314
sg9
Nsg10
S'i15'
p315
sg12
Nsg13
Nsg14
(lp316
(i__main__
Token
p317
(dp318
g18
I49
sbasg23
Nsba(i__main__
Mention
p319
(dp320
g7
S't5'
p321
sg9
S'Coreference-PartOf'
p322
sg10
S'i17'
p323
sg12
S'i15'
p324
sg13
Nsg14
(lp325
(i__main__
Token
p326
(dp327
g18
I50
sbasg23
I50
sba(i__main__
Mention
p328
(dp329
g7
S't5'
p330
sg9
Nsg10
S'i29'
p331
sg12
Nsg13
Nsg14
(lp332
(i__main__
Token
p333
(dp334
g18
I100
sbasg23
Nsba(i__main__
Mention
p335
(dp336
g7
S't5'
p337
sg9
Nsg10
S'i32'
p338
sg12
Nsg13
Nsg14
(lp339
(i__main__
Token
p340
(dp341
g18
I101
sba(i__main__
Token
p342
(dp343
g18
I102
sbasg23
Nsba(i__main__
Mention
p344
(dp345
g7
S't5'
p346
sg9
Nsg10
S'i35'
p347
sg12
Nsg13
Nsg14
(lp348
(i__main__
Token
p349
(dp350
g18
I104
sbasg23
Nsba(i__main__
Mention
p351
(dp352
g7
S't5'
p353
sg9
Nsg10
S'i44'
p354
sg12
Nsg13
Nsg14
(lp355
(i__main__
Token
p356
(dp357
g18
I136
sba(i__main__
Token
p358
(dp359
g18
I137
sbasg23
Nsbasg7
g301
sg105
Nsba(i__main__
Chain
p360
(dp361
g3
(lp362
(i__main__
Mention
p363
(dp364
g7
S't6'
p365
sg9
Nsg10
S'i11'
p366
sg12
Nsg13
Nsg14
(lp367
(i__main__
Token
p368
(dp369
g18
I38
sba(i__main__
Token
p370
(dp371
g18
I39
sba(i__main__
Token
p372
(dp373
g18
I40
sba(i__main__
Token
p374
(dp375
g18
I41
sbasg23
Nsba(i__main__
Mention
p376
(dp377
g7
S't6'
p378
sg9
Nsg10
S'i16'
p379
sg12
Nsg13
Nsg14
(lp380
(i__main__
Token
p381
(dp382
g18
I49
sbasg23
Nsba(i__main__
Mention
p383
(dp384
g7
S't6'
p385
sg9
S'Coreference-PartOf'
p386
sg10
S'i19'
p387
sg12
S'i16'
p388
sg13
Nsg14
(lp389
(i__main__
Token
p390
(dp391
g18
I54
sba(i__main__
Token
p392
(dp393
g18
I55
sba(i__main__
Token
p394
(dp395
g18
I56
sbasg23
I56
sba(i__main__
Mention
p396
(dp397
g7
S't6'
p398
sg9
Nsg10
S'i31'
p399
sg12
Nsg13
Nsg14
(lp400
(i__main__
Token
p401
(dp402
g18
I100
sbasg23
Nsba(i__main__
Mention
p403
(dp404
g7
S't6'
p405
sg9
Nsg10
S'i34'
p406
sg12
Nsg13
Nsg14
(lp407
(i__main__
Token
p408
(dp409
g18
I101
sba(i__main__
Token
p410
(dp411
g18
I102
sbasg23
Nsba(i__main__
Mention
p412
(dp413
g7
S't6'
p414
sg9
Nsg10
S'i37'
p415
sg12
Nsg13
Nsg14
(lp416
(i__main__
Token
p417
(dp418
g18
I104
sbasg23
Nsba(i__main__
Mention
p419
(dp420
g7
S't6'
p421
sg9
Nsg10
S'i46'
p422
sg12
Nsg13
Nsg14
(lp423
(i__main__
Token
p424
(dp425
g18
I136
sba(i__main__
Token
p426
(dp427
g18
I137
sbasg23
Nsbasg7
g365
sg105
Nsba(i__main__
Chain
p428
(dp429
g3
(lp430
(i__main__
Mention
p431
(dp432
g7
S't7'
p433
sg9
Nsg10
S'i21'
p434
sg12
Nsg13
Nsg14
(lp435
(i__main__
Token
p436
(dp437
g18
I69
sbasg23
I69
sba(i__main__
Mention
p438
(dp439
g7
S't7'
p440
sg9
S'Coreference-Identity'
p441
sg10
S'i38'
p442
sg12
S'i21'
p443
sg13
Nsg14
(lp444
(i__main__
Token
p445
(dp446
g18
I105
sbasg23
I105
sba(i__main__
Mention
p447
(dp448
g7
S't7'
p449
sg9
S'Coreference-Identity'
p450
sg10
S'i41'
p451
sg12
S'i38'
p452
sg13
Nsg14
(lp453
(i__main__
Token
p454
(dp455
g18
I130
sbasg23
I130
sbasg7
g433
sg105
Nsba(i__main__
Chain
p456
(dp457
g3
(lp458
(i__main__
Mention
p459
(dp460
g7
S't8'
p461
sg9
Nsg10
S'i22'
p462
sg12
Nsg13
Nsg14
(lp463
(i__main__
Token
p464
(dp465
g18
I69
sba(i__main__
Token
p466
(dp467
g18
I70
sbasg23
I70
sba(i__main__
Mention
p468
(dp469
g7
S't8'
p470
sg9
S'Coreference-Identity'
p471
sg10
S'i57'
p472
sg12
S'i22'
p473
sg13
Nsg14
(lp474
(i__main__
Token
p475
(dp476
g18
I209
sbasg23
I209
sbasg7
g461
sg105
Nsba(i__main__
Chain
p477
(dp478
g3
(lp479
(i__main__
Mention
p480
(dp481
g7
S't9'
p482
sg9
Nsg10
S'i25'
p483
sg12
Nsg13
Nsg14
(lp484
(i__main__
Token
p485
(dp486
g18
I80
sba(i__main__
Token
p487
(dp488
g18
I81
sba(i__main__
Token
p489
(dp490
g18
I82
sbasg23
I82
sba(i__main__
Mention
p491
(dp492
g7
S't9'
p493
sg9
S'Coreference-Noun-Noun'
p494
sg10
S'i27'
p495
sg12
S'i25'
p496
sg13
Nsg14
(lp497
(i__main__
Token
p498
(dp499
g18
I86
sba(i__main__
Token
p500
(dp501
g18
I87
sba(i__main__
Token
p502
(dp503
g18
I88
sba(i__main__
Token
p504
(dp505
g18
I89
sba(i__main__
Token
p506
(dp507
g18
I90
sba(i__main__
Token
p508
(dp509
g18
I91
sba(i__main__
Token
p510
(dp511
g18
I92
sba(i__main__
Token
p512
(dp513
g18
I93
sba(i__main__
Token
p514
(dp515
g18
I94
sba(i__main__
Token
p516
(dp517
g18
I95
sba(i__main__
Token
p518
(dp519
g18
I96
sba(i__main__
Token
p520
(dp521
g18
I97
sba(i__main__
Token
p522
(dp523
g18
I98
sbasg23
I98
sbasg7
g482
sg105
Nsba(i__main__
Chain
p524
(dp525
g3
(lp526
(i__main__
Mention
p527
(dp528
g7
S't10'
p529
sg9
Nsg10
S'i28'
p530
sg12
Nsg13
Nsg14
(lp531
(i__main__
Token
p532
(dp533
g18
I87
sbasg23
I87
sba(i__main__
Mention
p534
(dp535
g7
S't10'
p536
sg9
S'Coreference-Identity'
p537
sg10
S'i51'
p538
sg12
S'i28'
p539
sg13
Nsg14
(lp540
(i__main__
Token
p541
(dp542
g18
I166
sbasg23
I166
sba(i__main__
Mention
p543
(dp544
g7
S't10'
p545
sg9
S'Coreference-Identity'
p546
sg10
S'i54'
p547
sg12
S'i51'
p548
sg13
Nsg14
(lp549
(i__main__
Token
p550
(dp551
g18
I183
sbasg23
I183
sba(i__main__
Mention
p552
(dp553
g7
S't10'
p554
sg9
S'Coreference-Identity'
p555
sg10
S'i56'
p556
sg12
S'i54'
p557
sg13
Nsg14
(lp558
(i__main__
Token
p559
(dp560
g18
I195
sbasg23
I195
sba(i__main__
Mention
p561
(dp562
g7
S't10'
p563
sg9
S'Coreference-Identity'
p564
sg10
S'i61'
p565
sg12
S'i56'
p566
sg13
Nsg14
(lp567
(i__main__
Token
p568
(dp569
g18
I235
sbasg23
I235
sbasg7
g529
sg105
Nsba(i__main__
Chain
p570
(dp571
g3
(lp572
(i__main__
Mention
p573
(dp574
g7
S't11'
p575
sg9
Nsg10
S'i39'
p576
sg12
Nsg13
Nsg14
(lp577
(i__main__
Token
p578
(dp579
g18
I125
sba(i__main__
Token
p580
(dp581
g18
I126
sbasg23
I126
sba(i__main__
Mention
p582
(dp583
g7
S't11'
p584
sg9
S'Anaphora-C'
p585
sg10
S'i40'
p586
sg12
S'i39'
p587
sg13
Nsg14
(lp588
(i__main__
Token
p589
(dp590
g18
I127
sbasg23
I127
sba(i__main__
Mention
p591
(dp592
g7
S't11'
p593
sg9
S'Anaphora-RC'
p594
sg10
S'i43'
p595
sg12
S'i40'
p596
sg13
Nsg14
(lp597
(i__main__
Token
p598
(dp599
g18
I130
sba(i__main__
Token
p600
(dp601
g18
I131
sba(i__main__
Token
p602
(dp603
g18
I132
sba(i__main__
Token
p604
(dp605
g18
I133
sba(i__main__
Token
p606
(dp607
g18
I134
sba(i__main__
Token
p608
(dp609
g18
I135
sba(i__main__
Token
p610
(dp611
g18
I136
sba(i__main__
Token
p612
(dp613
g18
I137
sba(i__main__
Token
p614
(dp615
g18
I138
sba(i__main__
Token
p616
(dp617
g18
I139
sba(i__main__
Token
p618
(dp619
g18
I140
sba(i__main__
Token
p620
(dp621
g18
I141
sba(i__main__
Token
p622
(dp623
g18
I142
sba(i__main__
Token
p624
(dp625
g18
I143
sba(i__main__
Token
p626
(dp627
g18
I144
sba(i__main__
Token
p628
(dp629
g18
I145
sba(i__main__
Token
p630
(dp631
g18
I146
sba(i__main__
Token
p632
(dp633
g18
I147
sbasg23
I145
sbasg7
g575
sg105
Nsba(i__main__
Chain
p634
(dp635
g3
(lp636
(i__main__
Mention
p637
(dp638
g7
S't12'
p639
sg9
Nsg10
S'i42'
p640
sg12
Nsg13
Nsg14
(lp641
(i__main__
Token
p642
(dp643
g18
I130
sba(i__main__
Token
p644
(dp645
g18
I131
sbasg23
I131
sba(i__main__
Mention
p646
(dp647
g7
S't12'
p648
sg9
S'Coreference-Identity'
p649
sg10
S'i55'
p650
sg12
S'i42'
p651
sg13
Nsg14
(lp652
(i__main__
Token
p653
(dp654
g18
I193
sbasg23
I193
sbasg7
g639
sg105
Nsba(i__main__
Chain
p655
(dp656
g3
(lp657
(i__main__
Mention
p658
(dp659
g7
S't13'
p660
sg9
Nsg10
S'i49'
p661
sg12
Nsg13
Nsg14
(lp662
(i__main__
Token
p663
(dp664
g18
I156
sba(i__main__
Token
p665
(dp666
g18
I157
sbasg23
I157
sba(i__main__
Mention
p667
(dp668
g7
S't13'
p669
sg9
S'Anaphora-C'
p670
sg10
S'i50'
p671
sg12
S'i49'
p672
sg13
Nsg14
(lp673
(i__main__
Token
p674
(dp675
g18
I165
sbasg23
I165
sbasg7
g660
sg105
Nsba(i__main__
Chain
p676
(dp677
g3
(lp678
(i__main__
Mention
p679
(dp680
g7
S't14'
p681
sg9
Nsg10
S'i62'
p682
sg12
Nsg13
Nsg14
(lp683
(i__main__
Token
p684
(dp685
g18
I249
sbasg23
I249
sba(i__main__
Mention
p686
(dp687
g7
S't14'
p688
sg9
S'Coreference-NounComplement'
p689
sg10
S'i63'
p690
sg12
S'i62'
p691
sg13
Nsg14
(lp692
(i__main__
Token
p693
(dp694
g18
I250
sba(i__main__
Token
p695
(dp696
g18
I251
sba(i__main__
Token
p697
(dp698
g18
I252
sbasg23
I252
sbasg7
g681
sg105
Nsba.