(lp0
(i__main__
Chain
p1
(dp2
S'mentionList'
p3
(lp4
(i__main__
Mention
p5
(dp6
S'chainId'
p7
S't1'
p8
sS'relType'
p9
NsS'mentionId'
p10
S'i1'
p11
sS'antecedentId'
p12
NsS'crefMod'
p13
NsS'tokenList'
p14
(lp15
(i__main__
Token
p16
(dp17
S'tokenId'
p18
I0
sba(i__main__
Token
p19
(dp20
g18
I1
sbasS'mentionHead'
p21
I1
sba(i__main__
Mention
p22
(dp23
g7
S't1'
p24
sg9
S'Coreference-Identity'
p25
sg10
S'i12'
p26
sg12
S'i1'
p27
sg13
Nsg14
(lp28
(i__main__
Token
p29
(dp30
g18
I61
sbasg21
I61
sbasg7
g8
sS'chainHead'
p31
Nsba(i__main__
Chain
p32
(dp33
g3
(lp34
(i__main__
Mention
p35
(dp36
g7
S't2'
p37
sg9
Nsg10
S'i2'
p38
sg12
Nsg13
Nsg14
(lp39
(i__main__
Token
p40
(dp41
g18
I3
sba(i__main__
Token
p42
(dp43
g18
I4
sbasg21
I4
sba(i__main__
Mention
p44
(dp45
g7
S't2'
p46
sg9
S'Anaphora-C'
p47
sg10
S'i4'
p48
sg12
S'i2'
p49
sg13
Nsg14
(lp50
(i__main__
Token
p51
(dp52
g18
I21
sbasg21
I21
sbasg7
g37
sg31
Nsba(i__main__
Chain
p53
(dp54
g3
(lp55
(i__main__
Mention
p56
(dp57
g7
S't3'
p58
sg9
Nsg10
S'i3'
p59
sg12
Nsg13
Nsg14
(lp60
(i__main__
Token
p61
(dp62
g18
I17
sbasg21
I17
sba(i__main__
Mention
p63
(dp64
g7
S't3'
p65
sg9
S'Coreference-RPartOf'
p66
sg10
S'i5'
p67
sg12
S'i3'
p68
sg13
Nsg14
(lp69
(i__main__
Token
p70
(dp71
g18
I22
sba(i__main__
Token
p72
(dp73
g18
I23
sbasg21
I23
sba(i__main__
Mention
p74
(dp75
g7
S't3'
p76
sg9
S'Coreference-Identity'
p77
sg10
S'i22'
p78
sg12
S'i5'
p79
sg13
Nsg14
(lp80
(i__main__
Token
p81
(dp82
g18
I94
sbasg21
I94
sba(i__main__
Mention
p83
(dp84
g7
S't3'
p85
sg9
S'Coreference-Identity'
p86
sg10
S'i27'
p87
sg12
S'i22'
p88
sg13
Nsg14
(lp89
(i__main__
Token
p90
(dp91
g18
I115
sbasg21
I115
sbasg7
g58
sg31
Nsba(i__main__
Chain
p92
(dp93
g3
(lp94
(i__main__
Mention
p95
(dp96
g7
S't4'
p97
sg9
Nsg10
S'i6'
p98
sg12
Nsg13
Nsg14
(lp99
(i__main__
Token
p100
(dp101
g18
I27
sbasg21
I27
sba(i__main__
Mention
p102
(dp103
g7
S't4'
p104
sg9
S'Coreference-Identity'
p105
sg10
S'i28'
p106
sg12
S'i6'
p107
sg13
Nsg14
(lp108
(i__main__
Token
p109
(dp110
g18
I119
sbasg21
I119
sbasg7
g97
sg31
Nsba(i__main__
Chain
p111
(dp112
g3
(lp113
(i__main__
Mention
p114
(dp115
g7
S't5'
p116
sg9
Nsg10
S'i7'
p117
sg12
Nsg13
Nsg14
(lp118
(i__main__
Token
p119
(dp120
g18
I32
sba(i__main__
Token
p121
(dp122
g18
I33
sba(i__main__
Token
p123
(dp124
g18
I34
sba(i__main__
Token
p125
(dp126
g18
I35
sba(i__main__
Token
p127
(dp128
g18
I36
sba(i__main__
Token
p129
(dp130
g18
I37
sbasg21
I37
sba(i__main__
Mention
p131
(dp132
g7
S't5'
p133
sg9
S'Anaphora-C'
p134
sg10
S'i8'
p135
sg12
S'i7'
p136
sg13
Nsg14
(lp137
(i__main__
Token
p138
(dp139
g18
I39
sbasg21
I39
sbasg7
g116
sg31
Nsba(i__main__
Chain
p140
(dp141
g3
(lp142
(i__main__
Mention
p143
(dp144
g7
S't6'
p145
sg9
Nsg10
S'i9'
p146
sg12
Nsg13
Nsg14
(lp147
(i__main__
Token
p148
(dp149
g18
I52
sba(i__main__
Token
p150
(dp151
g18
I53
sbasg21
I53
sba(i__main__
Mention
p152
(dp153
g7
S't6'
p154
sg9
S'Coreference-NounComplement'
p155
sg10
S'i10'
p156
sg12
S'i9'
p157
sg13
Nsg14
(lp158
(i__main__
Token
p159
(dp160
g18
I54
sba(i__main__
Token
p161
(dp162
g18
I55
sbasg21
I55
sba(i__main__
Mention
p163
(dp164
g7
S't6'
p165
sg9
S'Coreference-Identity'
p166
sg10
S'i23'
p167
sg12
S'i10'
p168
sg13
Nsg14
(lp169
(i__main__
Token
p170
(dp171
g18
I102
sbasg21
I102
sba(i__main__
Mention
p172
(dp173
g7
S't6'
p174
sg9
S'Anaphora-C'
p175
sg10
S'i29'
p176
sg12
S'i23'
p177
sg13
Nsg14
(lp178
(i__main__
Token
p179
(dp180
g18
I123
sbasg21
I123
sba(i__main__
Mention
p181
(dp182
g7
S't6'
p183
sg9
S'Anaphora-C'
p184
sg10
S'i32'
p185
sg12
S'i29'
p186
sg13
Nsg14
(lp187
(i__main__
Token
p188
(dp189
g18
I145
sbasg21
I145
sbasg7
g145
sg31
Nsba(i__main__
Chain
p190
(dp191
g3
(lp192
(i__main__
Mention
p193
(dp194
g7
S't7'
p195
sg9
Nsg10
S'i11'
p196
sg12
Nsg13
Nsg14
(lp197
(i__main__
Token
p198
(dp199
g18
I61
sba(i__main__
Token
p200
(dp201
g18
I62
sba(i__main__
Token
p202
(dp203
g18
I63
sbasg21
I63
sba(i__main__
Mention
p204
(dp205
g7
S't7'
p206
sg9
S'Coreference-Abbreviation'
p207
sg10
S'i14'
p208
sg12
S'i11'
p209
sg13
Nsg14
(lp210
(i__main__
Token
p211
(dp212
g18
I65
sbasg21
I65
sba(i__main__
Mention
p213
(dp214
g7
S't7'
p215
sg9
S'Coreference-Identity'
p216
sg10
S'i24'
p217
sg12
S'i14'
p218
sg13
Nsg14
(lp219
(i__main__
Token
p220
(dp221
g18
I108
sbasg21
I108
sbasg7
g195
sg31
Nsba(i__main__
Chain
p222
(dp223
g3
(lp224
(i__main__
Mention
p225
(dp226
g7
S't8'
p227
sg9
Nsg10
S'i15'
p228
sg12
Nsg13
Nsg14
(lp229
(i__main__
Token
p230
(dp231
g18
I68
sba(i__main__
Token
p232
(dp233
g18
I69
sba(i__main__
Token
p234
(dp235
g18
I70
sba(i__main__
Token
p236
(dp237
g18
I71
sba(i__main__
Token
p238
(dp239
g18
I72
sbasg21
I72
sba(i__main__
Mention
p240
(dp241
g7
S't8'
p242
sg9
S'Coreference-Abbreviation'
p243
sg10
S'i16'
p244
sg12
S'i15'
p245
sg13
Nsg14
(lp246
(i__main__
Token
p247
(dp248
g18
I74
sbasg21
I74
sba(i__main__
Mention
p249
(dp250
g7
S't8'
p251
sg9
S'Coreference-Identity'
p252
sg10
S'i25'
p253
sg12
S'i16'
p254
sg13
Nsg14
(lp255
(i__main__
Token
p256
(dp257
g18
I110
sbasg21
I110
sbasg7
g227
sg31
Nsba(i__main__
Chain
p258
(dp259
g3
(lp260
(i__main__
Mention
p261
(dp262
g7
S't9'
p263
sg9
Nsg10
S'i13'
p264
sg12
Nsg13
Nsg14
(lp265
(i__main__
Token
p266
(dp267
g18
I77
sbasg21
I77
sba(i__main__
Mention
p268
(dp269
g7
S't9'
p270
sg9
S'Anaphora-C'
p271
sg10
S'i17'
p272
sg12
S'i13'
p273
sg13
Nsg14
(lp274
(i__main__
Token
p275
(dp276
g18
I81
sbasg21
I81
sba(i__main__
Mention
p277
(dp278
g7
S't9'
p279
sg9
S'Anaphora-C'
p280
sg10
S'i21'
p281
sg12
S'i17'
p282
sg13
Nsg14
(lp283
(i__main__
Token
p284
(dp285
g18
I93
sbasg21
I93
sbasg7
g263
sg31
Nsba(i__main__
Chain
p286
(dp287
g3
(lp288
(i__main__
Mention
p289
(dp290
g7
S't10'
p291
sg9
Nsg10
S'i18'
p292
sg12
Nsg13
Nsg14
(lp293
(i__main__
Token
p294
(dp295
g18
I82
sba(i__main__
Token
p296
(dp297
g18
I83
sba(i__main__
Token
p298
(dp299
g18
I84
sbasg21
I83
sba(i__main__
Mention
p300
(dp301
g7
S't10'
p302
sg9
S'Coreference-Identity'
p303
sg10
S'i30'
p304
sg12
S'i18'
p305
sg13
Nsg14
(lp306
(i__main__
Token
p307
(dp308
g18
I126
sba(i__main__
Token
p309
(dp310
g18
I127
sba(i__main__
Token
p311
(dp312
g18
I128
sbasg21
I127
sba(i__main__
Mention
p313
(dp314
g7
S't10'
p315
sg9
S'Anaphora-C'
p316
sg10
S'i34'
p317
sg12
S'i30'
p318
sg13
Nsg14
(lp319
(i__main__
Token
p320
(dp321
g18
I156
sbasg21
I156
sbasg7
g291
sg31
Nsba(i__main__
Chain
p322
(dp323
g3
(lp324
(i__main__
Mention
p325
(dp326
g7
S't11'
p327
sg9
Nsg10
S'i19'
p328
sg12
Nsg13
Nsg14
(lp329
(i__main__
Token
p330
(dp331
g18
I86
sbasg21
I86
sba(i__main__
Mention
p332
(dp333
g7
S't11'
p334
sg9
S'Coreference-Identity'
p335
sg10
S'i33'
p336
sg12
S'i19'
p337
sg13
Nsg14
(lp338
(i__main__
Token
p339
(dp340
g18
I149
sbasg21
I149
sbasg7
g327
sg31
Nsba(i__main__
Chain
p341
(dp342
g3
(lp343
(i__main__
Mention
p344
(dp345
g7
S't12'
p346
sg9
Nsg10
S'i20'
p347
sg12
Nsg13
Nsg14
(lp348
(i__main__
Token
p349
(dp350
g18
I91
sbasg21
I91
sba(i__main__
Mention
p351
(dp352
g7
S't12'
p353
sg9
S'Coreference-Identity'
p354
sg10
S'i26'
p355
sg12
S'i20'
p356
sg13
Nsg14
(lp357
(i__main__
Token
p358
(dp359
g18
I112
sbasg21
I112
sbasg7
g346
sg31
Nsba(i__main__
Chain
p360
(dp361
g3
(lp362
(i__main__
Mention
p363
(dp364
g7
S't13'
p365
sg9
Nsg10
S'i31'
p366
sg12
Nsg13
Nsg14
(lp367
(i__main__
Token
p368
(dp369
g18
I130
sbasg21
I130
sba(i__main__
Mention
p370
(dp371
g7
S't13'
p372
sg9
S'Coreference-Identity'
p373
sg10
S'i35'
p374
sg12
S'i31'
p375
sg13
Nsg14
(lp376
(i__main__
Token
p377
(dp378
g18
I159
sbasg21
I159
sbasg7
g365
sg31
Nsba.