(lp0
(i__main__
Chain
p1
(dp2
S'mentionList'
p3
(lp4
(i__main__
Mention
p5
(dp6
S'chainId'
p7
S't1'
p8
sS'relType'
p9
NsS'mentionId'
p10
S'i1'
p11
sS'antecedentId'
p12
NsS'crefMod'
p13
NsS'tokenList'
p14
(lp15
(i__main__
Token
p16
(dp17
S'tokenId'
p18
I0
sbasS'mentionHead'
p19
I0
sba(i__main__
Mention
p20
(dp21
g7
S't1'
p22
sg9
S'Coreference-Identity'
p23
sg10
S'i10'
p24
sg12
S'i1'
p25
sg13
Nsg14
(lp26
(i__main__
Token
p27
(dp28
g18
I42
sbasg19
I42
sbasg7
g8
sS'chainHead'
p29
Nsba(i__main__
Chain
p30
(dp31
g3
(lp32
(i__main__
Mention
p33
(dp34
g7
S't2'
p35
sg9
Nsg10
S'i2'
p36
sg12
Nsg13
Nsg14
(lp37
(i__main__
Token
p38
(dp39
g18
I0
sba(i__main__
Token
p40
(dp41
g18
I1
sba(i__main__
Token
p42
(dp43
g18
I2
sba(i__main__
Token
p44
(dp45
g18
I3
sba(i__main__
Token
p46
(dp47
g18
I4
sbasg19
I4
sba(i__main__
Mention
p48
(dp49
g7
S't2'
p50
sg9
S'Coreference-Identity'
p51
sg10
S'i11'
p52
sg12
S'i2'
p53
sg13
Nsg14
(lp54
(i__main__
Token
p55
(dp56
g18
I42
sba(i__main__
Token
p57
(dp58
g18
I43
sba(i__main__
Token
p59
(dp60
g18
I44
sba(i__main__
Token
p61
(dp62
g18
I45
sba(i__main__
Token
p63
(dp64
g18
I46
sbasg19
I46
sbasg7
g35
sg29
Nsba(i__main__
Chain
p65
(dp66
g3
(lp67
(i__main__
Mention
p68
(dp69
g7
S't3'
p70
sg9
Nsg10
S'i4'
p71
sg12
Nsg13
Nsg14
(lp72
(i__main__
Token
p73
(dp74
g18
I2
sbasg19
I2
sba(i__main__
Mention
p75
(dp76
g7
S't3'
p77
sg9
S'Coreference-Identity'
p78
sg10
S'i13'
p79
sg12
S'i4'
p80
sg13
Nsg14
(lp81
(i__main__
Token
p82
(dp83
g18
I44
sbasg19
I44
sbasg7
g70
sg29
Nsba(i__main__
Chain
p84
(dp85
g3
(lp86
(i__main__
Mention
p87
(dp88
g7
S't4'
p89
sg9
Nsg10
S'i3'
p90
sg12
Nsg13
Nsg14
(lp91
(i__main__
Token
p92
(dp93
g18
I6
sbasg19
I6
sba(i__main__
Mention
p94
(dp95
g7
S't4'
p96
sg9
S'Coreference-Identity'
p97
sg10
S'i12'
p98
sg12
S'i3'
p99
sg13
Nsg14
(lp100
(i__main__
Token
p101
(dp102
g18
I48
sba(i__main__
Token
p103
(dp104
g18
I49
sba(i__main__
Token
p105
(dp106
g18
I50
sbasg19
I49
sbasg7
g89
sg29
Nsba(i__main__
Chain
p107
(dp108
g3
(lp109
(i__main__
Mention
p110
(dp111
g7
S't5'
p112
sg9
Nsg10
S'i5'
p113
sg12
Nsg13
Nsg14
(lp114
(i__main__
Token
p115
(dp116
g18
I22
sbasg19
I22
sba(i__main__
Mention
p117
(dp118
g7
S't5'
p119
sg9
S'Coreference-Noun-Noun'
p120
sg10
S'i6'
p121
sg12
S'i5'
p122
sg13
Nsg14
(lp123
(i__main__
Token
p124
(dp125
g18
I24
sbasg19
I24
sba(i__main__
Mention
p126
(dp127
g7
S't5'
p128
sg9
S'Coreference-Identity'
p129
sg10
S'i9'
p130
sg12
S'i6'
p131
sg13
Nsg14
(lp132
(i__main__
Token
p133
(dp134
g18
I40
sbasg19
I40
sba(i__main__
Mention
p135
(dp136
g7
S't5'
p137
sg9
S'Coreference-Identity'
p138
sg10
S'i14'
p139
sg12
S'i9'
p140
sg13
Nsg14
(lp141
(i__main__
Token
p142
(dp143
g18
I107
sbasg19
I107
sbasg7
g112
sg29
Nsba(i__main__
Chain
p144
(dp145
g3
(lp146
(i__main__
Mention
p147
(dp148
g7
S't6'
p149
sg9
Nsg10
S'i7'
p150
sg12
Nsg13
Nsg14
(lp151
(i__main__
Token
p152
(dp153
g18
I33
sba(i__main__
Token
p154
(dp155
g18
I34
sbasg19
I34
sba(i__main__
Mention
p156
(dp157
g7
S't6'
p158
sg9
S'Coreference-NounComplement'
p159
sg10
S'i8'
p160
sg12
S'i7'
p161
sg13
Nsg14
(lp162
(i__main__
Token
p163
(dp164
g18
I35
sba(i__main__
Token
p165
(dp166
g18
I36
sbasg19
I36
sbasg7
g149
sg29
Nsba(i__main__
Chain
p167
(dp168
g3
(lp169
(i__main__
Mention
p170
(dp171
g7
S't7'
p172
sg9
Nsg10
S'i15'
p173
sg12
Nsg13
Nsg14
(lp174
(i__main__
Token
p175
(dp176
g18
I109
sba(i__main__
Token
p177
(dp178
g18
I110
sba(i__main__
Token
p179
(dp180
g18
I111
sbasg19
I111
sba(i__main__
Mention
p181
(dp182
g7
S't7'
p183
sg9
S'Coreference-NounComplement'
p184
sg10
S'i16'
p185
sg12
S'i15'
p186
sg13
Nsg14
(lp187
(i__main__
Token
p188
(dp189
g18
I112
sba(i__main__
Token
p190
(dp191
g18
I113
sba(i__main__
Token
p192
(dp193
g18
I114
sbasg19
I114
sbasg7
g172
sg29
Nsba(i__main__
Chain
p194
(dp195
g3
(lp196
(i__main__
Mention
p197
(dp198
g7
S't8'
p199
sg9
Nsg10
S'i17'
p200
sg12
Nsg13
Nsg14
(lp201
(i__main__
Token
p202
(dp203
g18
I116
sba(i__main__
Token
p204
(dp205
g18
I117
sba(i__main__
Token
p206
(dp207
g18
I118
sba(i__main__
Token
p208
(dp209
g18
I119
sbasg19
I119
sba(i__main__
Mention
p210
(dp211
g7
S't8'
p212
sg9
S'Coreference-NounComplement'
p213
sg10
S'i18'
p214
sg12
S'i17'
p215
sg13
Nsg14
(lp216
(i__main__
Token
p217
(dp218
g18
I120
sba(i__main__
Token
p219
(dp220
g18
I121
sbasg19
I121
sbasg7
g199
sg29
Nsba(i__main__
Chain
p221
(dp222
g3
(lp223
(i__main__
Mention
p224
(dp225
g7
S't9'
p226
sg9
Nsg10
S'i19'
p227
sg12
Nsg13
Nsg14
(lp228
(i__main__
Token
p229
(dp230
g18
I123
sba(i__main__
Token
p231
(dp232
g18
I124
sba(i__main__
Token
p233
(dp234
g18
I125
sbasg19
I125
sba(i__main__
Mention
p235
(dp236
g7
S't9'
p237
sg9
S'Coreference-NounComplement'
p238
sg10
S'i20'
p239
sg12
S'i19'
p240
sg13
Nsg14
(lp241
(i__main__
Token
p242
(dp243
g18
I126
sba(i__main__
Token
p244
(dp245
g18
I127
sbasg19
I127
sbasg7
g226
sg29
Nsba.