(lp0
(i__main__
Chain
p1
(dp2
S'mentionList'
p3
(lp4
(i__main__
Mention
p5
(dp6
S'chainId'
p7
S't1'
p8
sS'relType'
p9
NsS'mentionId'
p10
S'i1'
p11
sS'antecedentId'
p12
NsS'crefMod'
p13
NsS'tokenList'
p14
(lp15
(i__main__
Token
p16
(dp17
S'tokenId'
p18
I0
sba(i__main__
Token
p19
(dp20
g18
I1
sbasS'mentionHead'
p21
I1
sba(i__main__
Mention
p22
(dp23
g7
S't1'
p24
sg9
S'Coreference-Identity'
p25
sg10
S'i23'
p26
sg12
S'i1'
p27
sg13
Nsg14
(lp28
(i__main__
Token
p29
(dp30
g18
I105
sba(i__main__
Token
p31
(dp32
g18
I106
sbasg21
I106
sbasg7
g8
sS'chainHead'
p33
Nsba(i__main__
Chain
p34
(dp35
g3
(lp36
(i__main__
Mention
p37
(dp38
g7
S't2'
p39
sg9
Nsg10
S'i2'
p40
sg12
Nsg13
Nsg14
(lp41
(i__main__
Token
p42
(dp43
g18
I6
sba(i__main__
Token
p44
(dp45
g18
I7
sba(i__main__
Token
p46
(dp47
g18
I8
sbasg21
I8
sba(i__main__
Mention
p48
(dp49
g7
S't2'
p50
sg9
S'Coreference-Bracketed/Abbraviation'
p51
sg10
S'i3'
p52
sg12
S'i3'
p53
sg13
Nsg14
(lp54
(i__main__
Token
p55
(dp56
g18
I10
sbasg21
I10
sba(i__main__
Mention
p57
(dp58
g7
S't2'
p59
sg9
S'Coreference-Identity'
p60
sg10
S'i11'
p61
sg12
S'i3'
p62
sg13
Nsg14
(lp63
(i__main__
Token
p64
(dp65
g18
I52
sbasg21
I52
sba(i__main__
Mention
p66
(dp67
g7
S't2'
p68
sg9
S'Coreference-Identity'
p69
sg10
S'i37'
p70
sg12
S'i11'
p71
sg13
Nsg14
(lp72
(i__main__
Token
p73
(dp74
g18
I188
sbasg21
I188
sba(i__main__
Mention
p75
(dp76
g7
S't2'
p77
sg9
S'Coreference-Noun-Noun'
p78
sg10
S'i43'
p79
sg12
S'i37'
p80
sg13
Nsg14
(lp81
(i__main__
Token
p82
(dp83
g18
I242
sba(i__main__
Token
p84
(dp85
g18
I243
sba(i__main__
Token
p86
(dp87
g18
I244
sbasg21
I244
sba(i__main__
Mention
p88
(dp89
g7
S't2'
p90
sg9
S'Coreference-Bracketed/Abbraviation'
p91
sg10
S'i48'
p92
sg12
S'i9'
p93
sg13
Nsg14
(lp94
(i__main__
Token
p95
(dp96
g18
I315
sbasg21
I315
sba(i__main__
Mention
p97
(dp98
g7
S't2'
p99
sg9
S'Coreference-Identity'
p100
sg10
S'i60'
p101
sg12
S'i48'
p102
sg13
Nsg14
(lp103
(i__main__
Token
p104
(dp105
g18
I380
sbasg21
I380
sba(i__main__
Mention
p106
(dp107
g7
S't2'
p108
sg9
S'Anaphora-C'
p109
sg10
S'i66'
p110
sg12
S'i60'
p111
sg13
Nsg14
(lp112
(i__main__
Token
p113
(dp114
g18
I419
sbasg21
I419
sbasg7
g39
sg33
Nsba(i__main__
Chain
p115
(dp116
g3
(lp117
(i__main__
Mention
p118
(dp119
g7
S't3'
p120
sg9
Nsg10
S'i4'
p121
sg12
Nsg13
Nsg14
(lp122
(i__main__
Token
p123
(dp124
g18
I16
sbasg21
I16
sba(i__main__
Mention
p125
(dp126
g7
S't3'
p127
sg9
S'Coreference-Identity'
p128
sg10
S'i15'
p129
sg12
S'i4'
p130
sg13
Nsg14
(lp131
(i__main__
Token
p132
(dp133
g18
I68
sbasg21
I68
sba(i__main__
Mention
p134
(dp135
g7
S't3'
p136
sg9
S'Coreference-Noun-Noun'
p137
sg10
S'i18'
p138
sg12
S'i15'
p139
sg13
Nsg14
(lp140
(i__main__
Token
p141
(dp142
g18
I80
sbasg21
I80
sba(i__main__
Mention
p143
(dp144
g7
S't3'
p145
sg9
S'Coreference-Noun-Noun'
p146
sg10
S'i20'
p147
sg12
S'i18'
p148
sg13
Nsg14
(lp149
(i__main__
Token
p150
(dp151
g18
I91
sbasg21
I91
sba(i__main__
Mention
p152
(dp153
g7
S't3'
p154
sg9
S'Coreference-Noun-Noun'
p155
sg10
S'i31'
p156
sg12
S'i20'
p157
sg13
Nsg14
(lp158
(i__main__
Token
p159
(dp160
g18
I146
sbasg21
I146
sba(i__main__
Mention
p161
(dp162
g7
S't3'
p163
sg9
S'Coreference-Identity'
p164
sg10
S'i36'
p165
sg12
S'i31'
p166
sg13
Nsg14
(lp167
(i__main__
Token
p168
(dp169
g18
I186
sbasg21
I186
sba(i__main__
Mention
p170
(dp171
g7
S't3'
p172
sg9
S'Coreference-Identity'
p173
sg10
S'i49'
p174
sg12
S'i36'
p175
sg13
Nsg14
(lp176
(i__main__
Token
p177
(dp178
g18
I331
sbasg21
I331
sba(i__main__
Mention
p179
(dp180
g7
S't3'
p181
sg9
S'Coreference-Noun-Noun'
p182
sg10
S'i61'
p183
sg12
S'i49'
p184
sg13
Nsg14
(lp185
(i__main__
Token
p186
(dp187
g18
I388
sbasg21
I388
sba(i__main__
Mention
p188
(dp189
g7
S't3'
p190
sg9
S'Coreference-Noun-Noun'
p191
sg10
S'i65'
p192
sg12
S'i61'
p193
sg13
Nsg14
(lp194
(i__main__
Token
p195
(dp196
g18
I407
sbasg21
I407
sbasg7
g120
sg33
Nsba(i__main__
Chain
p197
(dp198
g3
(lp199
(i__main__
Mention
p200
(dp201
g7
S't4'
p202
sg9
Nsg10
S'i5'
p203
sg12
Nsg13
Nsg14
(lp204
(i__main__
Token
p205
(dp206
g18
I23
sbasg21
I23
sba(i__main__
Mention
p207
(dp208
g7
S't4'
p209
sg9
S'Anaphora-C'
p210
sg10
S'i9'
p211
sg12
S'i5'
p212
sg13
Nsg14
(lp213
(i__main__
Token
p214
(dp215
g18
I50
sbasg21
I50
sba(i__main__
Mention
p216
(dp217
g7
S't4'
p218
sg9
S'Coreference-Identity'
p219
sg10
S'i16'
p220
sg12
S'i9'
p221
sg13
Nsg14
(lp222
(i__main__
Token
p223
(dp224
g18
I78
sbasg21
I78
sba(i__main__
Mention
p225
(dp226
g7
S't4'
p227
sg9
S'Coreference-Identity'
p228
sg10
S'i32'
p229
sg12
S'i16'
p230
sg13
Nsg14
(lp231
(i__main__
Token
p232
(dp233
g18
I160
sbasg21
I160
sba(i__main__
Mention
p234
(dp235
g7
S't4'
p236
sg9
S'Coreference-Identity'
p237
sg10
S'i62'
p238
sg12
S'i32'
p239
sg13
Nsg14
(lp240
(i__main__
Token
p241
(dp242
g18
I397
sbasg21
I397
sba(i__main__
Mention
p243
(dp244
g7
S't4'
p245
sg9
S'Coreference-Identity'
p246
sg10
S'i73'
p247
sg12
S'i62'
p248
sg13
Nsg14
(lp249
(i__main__
Token
p250
(dp251
g18
I449
sbasg21
I449
sbasg7
g202
sg33
Nsba(i__main__
Chain
p252
(dp253
g3
(lp254
(i__main__
Mention
p255
(dp256
g7
S't5'
p257
sg9
Nsg10
S'i6'
p258
sg12
Nsg13
Nsg14
(lp259
(i__main__
Token
p260
(dp261
g18
I29
sba(i__main__
Token
p262
(dp263
g18
I30
sba(i__main__
Token
p264
(dp265
g18
I31
sba(i__main__
Token
p266
(dp267
g18
I32
sbasg21
I32
sba(i__main__
Mention
p268
(dp269
g7
S't5'
p270
sg9
S'Anaphora-C'
p271
sg10
S'i7'
p272
sg12
S'i6'
p273
sg13
Nsg14
(lp274
(i__main__
Token
p275
(dp276
g18
I33
sbasg21
I33
sba(i__main__
Mention
p277
(dp278
g7
S't5'
p279
sg9
S'Anaphora-C'
p280
sg10
S'i8'
p281
sg12
S'i7'
p282
sg13
Nsg14
(lp283
(i__main__
Token
p284
(dp285
g18
I40
sbasg21
I40
sba(i__main__
Mention
p286
(dp287
g7
S't5'
p288
sg9
S'Coreference-Identity'
p289
sg10
S'i33'
p290
sg12
S'i8'
p291
sg13
Nsg14
(lp292
(i__main__
Token
p293
(dp294
g18
I168
sba(i__main__
Token
p295
(dp296
g18
I169
sbasg21
I169
sba(i__main__
Mention
p297
(dp298
g7
S't5'
p299
sg9
S'Coreference-Identity'
p300
sg10
S'i68'
p301
sg12
S'i33'
p302
sg13
Nsg14
(lp303
(i__main__
Token
p304
(dp305
g18
I425
sba(i__main__
Token
p306
(dp307
g18
I426
sbasg21
I426
sba(i__main__
Mention
p308
(dp309
g7
S't5'
p310
sg9
S'Coreference-Identity'
p311
sg10
S'i71'
p312
sg12
S'i68'
p313
sg13
Nsg14
(lp314
(i__main__
Token
p315
(dp316
g18
I439
sbasg21
I439
sbasg7
g257
sg33
Nsba(i__main__
Chain
p317
(dp318
g3
(lp319
(i__main__
Mention
p320
(dp321
g7
S't6'
p322
sg9
Nsg10
S'i10'
p323
sg12
Nsg13
Nsg14
(lp324
(i__main__
Token
p325
(dp326
g18
I51
sbasg21
I51
sbasg7
g322
sg33
Nsba(i__main__
Chain
p327
(dp328
g3
(lp329
(i__main__
Mention
p330
(dp331
g7
S't7'
p332
sg9
Nsg10
S'i12'
p333
sg12
Nsg13
Nsg14
(lp334
(i__main__
Token
p335
(dp336
g18
I56
sbasg21
I56
sbasg7
g332
sg33
Nsba(i__main__
Chain
p337
(dp338
g3
(lp339
(i__main__
Mention
p340
(dp341
g7
S't8'
p342
sg9
Nsg10
S'i13'
p343
sg12
Nsg13
Nsg14
(lp344
(i__main__
Token
p345
(dp346
g18
I63
sba(i__main__
Token
p347
(dp348
g18
I64
sbasg21
Nsba(i__main__
Mention
p349
(dp350
g7
S't8'
p351
sg9
S'Coreference-PartOf'
p352
sg10
S'i21'
p353
sg12
S'i13'
p354
sg13
Nsg14
(lp355
(i__main__
Token
p356
(dp357
g18
I93
sbasg21
I93
sba(i__main__
Mention
p358
(dp359
g7
S't8'
p360
sg9
S'Coreference-PartOf'
p361
sg10
S'i30'
p362
sg12
S'i21'
p363
sg13
Nsg14
(lp364
(i__main__
Token
p365
(dp366
g18
I144
sbasg21
I144
sba(i__main__
Mention
p367
(dp368
g7
S't8'
p369
sg9
S'Coreference-PartOf'
p370
sg10
S'i39'
p371
sg12
S'i30'
p372
sg13
Nsg14
(lp373
(i__main__
Token
p374
(dp375
g18
I201
sbasg21
I201
sba(i__main__
Mention
p376
(dp377
g7
S't8'
p378
sg9
S'Coreference-PartOf'
p379
sg10
S'i50'
p380
sg12
S'i39'
p381
sg13
Nsg14
(lp382
(i__main__
Token
p383
(dp384
g18
I333
sbasg21
I333
sbasg7
g342
sg33
Nsba(i__main__
Chain
p385
(dp386
g3
(lp387
(i__main__
Mention
p388
(dp389
g7
S't9'
p390
sg9
Nsg10
S'i14'
p391
sg12
Nsg13
Nsg14
(lp392
(i__main__
Token
p393
(dp394
g18
I63
sba(i__main__
Token
p395
(dp396
g18
I64
sbasg21
Nsba(i__main__
Mention
p397
(dp398
g7
S't9'
p399
sg9
S'Coreference-PartOf'
p400
sg10
S'i51'
p401
sg12
S'i14'
p402
sg13
Nsg14
(lp403
(i__main__
Token
p404
(dp405
g18
I341
sbasg21
I341
sba(i__main__
Mention
p406
(dp407
g7
S't9'
p408
sg9
S'Coreference-PartOf'
p409
sg10
S'i70'
p410
sg12
S'i51'
p411
sg13
Nsg14
(lp412
(i__main__
Token
p413
(dp414
g18
I434
sbasg21
I434
sba(i__main__
Mention
p415
(dp416
g7
S't9'
p417
sg9
S'Coreference-PartOf'
p418
sg10
S'i74'
p419
sg12
S'i70'
p420
sg13
Nsg14
(lp421
(i__main__
Token
p422
(dp423
g18
I450
sbasg21
I450
sbasg7
g390
sg33
Nsba(i__main__
Chain
p424
(dp425
g3
(lp426
(i__main__
Mention
p427
(dp428
g7
S't10'
p429
sg9
Nsg10
S'i17'
p430
sg12
Nsg13
Nsg14
(lp431
(i__main__
Token
p432
(dp433
g18
I78
sba(i__main__
Token
p434
(dp435
g18
I79
sba(i__main__
Token
p436
(dp437
g18
I80
sba(i__main__
Token
p438
(dp439
g18
I81
sba(i__main__
Token
p440
(dp441
g18
I82
sba(i__main__
Token
p442
(dp443
g18
I83
sba(i__main__
Token
p444
(dp445
g18
I84
sba(i__main__
Token
p446
(dp447
g18
I85
sba(i__main__
Token
p448
(dp449
g18
I86
sbasg21
I85
sba(i__main__
Mention
p450
(dp451
g7
S't10'
p452
sg9
S'Anaphora-C'
p453
sg10
S'i19'
p454
sg12
S'i17'
p455
sg13
Nsg14
(lp456
(i__main__
Token
p457
(dp458
g18
I88
sbasg21
I88
sbasg7
g429
sg33
Nsba(i__main__
Chain
p459
(dp460
g3
(lp461
(i__main__
Mention
p462
(dp463
g7
S't11'
p464
sg9
Nsg10
S'i22'
p465
sg12
Nsg13
Nsg14
(lp466
(i__main__
Token
p467
(dp468
g18
I100
sba(i__main__
Token
p469
(dp470
g18
I101
sba(i__main__
Token
p471
(dp472
g18
I102
sba(i__main__
Token
p473
(dp474
g18
I103
sbasg21
I103
sba(i__main__
Mention
p475
(dp476
g7
S't11'
p477
sg9
S'Coreference-Identity'
p478
sg10
S'i26'
p479
sg12
S'i22'
p480
sg13
Nsg14
(lp481
(i__main__
Token
p482
(dp483
g18
I121
sbasg21
I121
sba(i__main__
Mention
p484
(dp485
g7
S't11'
p486
sg9
S'Anaphora-C'
p487
sg10
S'i29'
p488
sg12
S'i26'
p489
sg13
Nsg14
(lp490
(i__main__
Token
p491
(dp492
g18
I140
sbasg21
I140
sbasg7
g464
sg33
Nsba(i__main__
Chain
p493
(dp494
g3
(lp495
(i__main__
Mention
p496
(dp497
g7
S't12'
p498
sg9
Nsg10
S'i24'
p499
sg12
Nsg13
Nsg14
(lp500
(i__main__
Token
p501
(dp502
g18
I108
sba(i__main__
Token
p503
(dp504
g18
I109
sbasg21
I109
sba(i__main__
Mention
p505
(dp506
g7
S't12'
p507
sg9
S'Coreference-Bracketed/Abbraviation'
p508
sg10
S'i25'
p509
sg12
S'i22'
p510
sg13
Nsg14
(lp511
(i__main__
Token
p512
(dp513
g18
I111
sbasg21
I111
sba(i__main__
Mention
p514
(dp515
g7
S't12'
p516
sg9
S'Coreference-Identity'
p517
sg10
S'i27'
p518
sg12
S'i25'
p519
sg13
Nsg14
(lp520
(i__main__
Token
p521
(dp522
g18
I132
sbasg21
I132
sbasg7
g498
sg33
Nsba(i__main__
Chain
p523
(dp524
g3
(lp525
(i__main__
Mention
p526
(dp527
g7
S't13'
p528
sg9
Nsg10
S'i28'
p529
sg12
Nsg13
Nsg14
(lp530
(i__main__
Token
p531
(dp532
g18
I138
sbasg21
I138
sbasg7
g528
sg33
Nsba(i__main__
Chain
p533
(dp534
g3
(lp535
(i__main__
Mention
p536
(dp537
g7
S't14'
p538
sg9
Nsg10
S'i34'
p539
sg12
Nsg13
Nsg14
(lp540
(i__main__
Token
p541
(dp542
g18
I175
sba(i__main__
Token
p543
(dp544
g18
I176
sba(i__main__
Token
p545
(dp546
g18
I177
sba(i__main__
Token
p547
(dp548
g18
I178
sba(i__main__
Token
p549
(dp550
g18
I179
sba(i__main__
Token
p551
(dp552
g18
I180
sba(i__main__
Token
p553
(dp554
g18
I181
sba(i__main__
Token
p555
(dp556
g18
I182
sba(i__main__
Token
p557
(dp558
g18
I183
sbasg21
I182
sba(i__main__
Mention
p559
(dp560
g7
S't14'
p561
sg9
S'Anaphora-E'
p562
sg10
S'i35'
p563
sg12
S'i34'
p564
sg13
Nsg14
(lp565
(i__main__
Token
p566
(dp567
g18
I185
sbasg21
I185
sbasg7
g538
sg33
Nsba(i__main__
Chain
p568
(dp569
g3
(lp570
(i__main__
Mention
p571
(dp572
g7
S't15'
p573
sg9
Nsg10
S'i38'
p574
sg12
Nsg13
Nsg14
(lp575
(i__main__
Token
p576
(dp577
g18
I199
sbasg21
I199
sbasg7
g573
sg33
Nsba(i__main__
Chain
p578
(dp579
g3
(lp580
(i__main__
Mention
p581
(dp582
g7
S't16'
p583
sg9
Nsg10
S'i40'
p584
sg12
Nsg13
Nsg14
(lp585
(i__main__
Token
p586
(dp587
g18
I208
sba(i__main__
Token
p588
(dp589
g18
I209
sba(i__main__
Token
p590
(dp591
g18
I210
sbasg21
I210
sba(i__main__
Mention
p592
(dp593
g7
S't16'
p594
sg9
S'Anaphora-C'
p595
sg10
S'i44'
p596
sg12
S'i40'
p597
sg13
Nsg14
(lp598
(i__main__
Token
p599
(dp600
g18
I269
sbasg21
I269
sbasg7
g583
sg33
Nsba(i__main__
Chain
p601
(dp602
g3
(lp603
(i__main__
Mention
p604
(dp605
g7
S't17'
p606
sg9
Nsg10
S'i41'
p607
sg12
Nsg13
Nsg14
(lp608
(i__main__
Token
p609
(dp610
g18
I218
sba(i__main__
Token
p611
(dp612
g18
I219
sba(i__main__
Token
p613
(dp614
g18
I220
sba(i__main__
Token
p615
(dp616
g18
I221
sba(i__main__
Token
p617
(dp618
g18
I222
sba(i__main__
Token
p619
(dp620
g18
I223
sba(i__main__
Token
p621
(dp622
g18
I224
sba(i__main__
Token
p623
(dp624
g18
I225
sba(i__main__
Token
p625
(dp626
g18
I226
sba(i__main__
Token
p627
(dp628
g18
I227
sba(i__main__
Token
p629
(dp630
g18
I228
sba(i__main__
Token
p631
(dp632
g18
I229
sba(i__main__
Token
p633
(dp634
g18
I230
sba(i__main__
Token
p635
(dp636
g18
I231
sba(i__main__
Token
p637
(dp638
g18
I232
sba(i__main__
Token
p639
(dp640
g18
I233
sbasg21
I231
sba(i__main__
Mention
p641
(dp642
g7
S't17'
p643
sg9
S'Anaphora-E'
p644
sg10
S'i42'
p645
sg12
S'i41'
p646
sg13
Nsg14
(lp647
(i__main__
Token
p648
(dp649
g18
I235
sbasg21
I235
sbasg7
g606
sg33
Nsba(i__main__
Chain
p650
(dp651
g3
(lp652
(i__main__
Mention
p653
(dp654
g7
S't18'
p655
sg9
Nsg10
S'i45'
p656
sg12
Nsg13
Nsg14
(lp657
(i__main__
Token
p658
(dp659
g18
I275
sbasg21
I275
sbasg7
g655
sg33
Nsba(i__main__
Chain
p660
(dp661
g3
(lp662
(i__main__
Mention
p663
(dp664
g7
S't19'
p665
sg9
Nsg10
S'i46'
p666
sg12
Nsg13
Nsg14
(lp667
(i__main__
Token
p668
(dp669
g18
I282
sba(i__main__
Token
p670
(dp671
g18
I283
sbasg21
I283
sba(i__main__
Mention
p672
(dp673
g7
S't19'
p674
sg9
S'Coreference-Identity'
p675
sg10
S'i56'
p676
sg12
S'i46'
p677
sg13
Nsg14
(lp678
(i__main__
Token
p679
(dp680
g18
I354
sbasg21
I354
sbasg7
g665
sg33
Nsba(i__main__
Chain
p681
(dp682
g3
(lp683
(i__main__
Mention
p684
(dp685
g7
S't20'
p686
sg9
Nsg10
S'i47'
p687
sg12
Nsg13
Nsg14
(lp688
(i__main__
Token
p689
(dp690
g18
I309
sbasg21
I309
sbasg7
g686
sg33
Nsba(i__main__
Chain
p691
(dp692
g3
(lp693
(i__main__
Mention
p694
(dp695
g7
S't21'
p696
sg9
Nsg10
S'i52'
p697
sg12
Nsg13
Nsg14
(lp698
(i__main__
Token
p699
(dp700
g18
I345
sbasg21
I345
sba(i__main__
Mention
p701
(dp702
g7
S't21'
p703
sg9
S'Coreference-NounComplement'
p704
sg10
S'i53'
p705
sg12
S'i52'
p706
sg13
Nsg14
(lp707
(i__main__
Token
p708
(dp709
g18
I346
sba(i__main__
Token
p710
(dp711
g18
I347
sbasg21
I347
sbasg7
g696
sg33
Nsba(i__main__
Chain
p712
(dp713
g3
(lp714
(i__main__
Mention
p715
(dp716
g7
S't22'
p717
sg9
Nsg10
S'i54'
p718
sg12
Nsg13
Nsg14
(lp719
(i__main__
Token
p720
(dp721
g18
I349
sba(i__main__
Token
p722
(dp723
g18
I350
sbasg21
I350
sba(i__main__
Mention
p724
(dp725
g7
S't22'
p726
sg9
S'Anaphora-C'
p727
sg10
S'i55'
p728
sg12
S'i54'
p729
sg13
Nsg14
(lp730
(i__main__
Token
p731
(dp732
g18
I353
sbasg21
I353
sbasg7
g717
sg33
Nsba(i__main__
Chain
p733
(dp734
g3
(lp735
(i__main__
Mention
p736
(dp737
g7
S't23'
p738
sg9
Nsg10
S'i57'
p739
sg12
Nsg13
Nsg14
(lp740
(i__main__
Token
p741
(dp742
g18
I368
sbasg21
I368
sbasg7
g738
sg33
Nsba(i__main__
Chain
p743
(dp744
g3
(lp745
(i__main__
Mention
p746
(dp747
g7
S't24'
p748
sg9
Nsg10
S'i58'
p749
sg12
Nsg13
Nsg14
(lp750
(i__main__
Token
p751
(dp752
g18
I370
sba(i__main__
Token
p753
(dp754
g18
I371
sba(i__main__
Token
p755
(dp756
g18
I372
sba(i__main__
Token
p757
(dp758
g18
I373
sba(i__main__
Token
p759
(dp760
g18
I374
sba(i__main__
Token
p761
(dp762
g18
I375
sba(i__main__
Token
p763
(dp764
g18
I376
sba(i__main__
Token
p765
(dp766
g18
I377
sba(i__main__
Token
p767
(dp768
g18
I378
sbasg21
I376
sba(i__main__
Mention
p769
(dp770
g7
S't24'
p771
sg9
S'Anaphora-E'
p772
sg10
S'i59'
p773
sg12
S'i58'
p774
sg13
Nsg14
(lp775
(i__main__
Token
p776
(dp777
g18
I379
sbasg21
I379
sbasg7
g748
sg33
Nsba(i__main__
Chain
p778
(dp779
g3
(lp780
(i__main__
Mention
p781
(dp782
g7
S't25'
p783
sg9
Nsg10
S'i63'
p784
sg12
Nsg13
Nsg14
(lp785
(i__main__
Token
p786
(dp787
g18
I401
sba(i__main__
Token
p788
(dp789
g18
I402
sba(i__main__
Token
p790
(dp791
g18
I403
sbasg21
I403
sba(i__main__
Mention
p792
(dp793
g7
S't25'
p794
sg9
S'Coreference-NounComplement'
p795
sg10
S'i64'
p796
sg12
S'i63'
p797
sg13
Nsg14
(lp798
(i__main__
Token
p799
(dp800
g18
I404
sba(i__main__
Token
p801
(dp802
g18
I405
sbasg21
I405
sba(i__main__
Mention
p803
(dp804
g7
S't25'
p805
sg9
S'Anaphora-C'
p806
sg10
S'i69'
p807
sg12
S'i64'
p808
sg13
Nsg14
(lp809
(i__main__
Token
p810
(dp811
g18
I433
sbasg21
I433
sbasg7
g783
sg33
Nsba(i__main__
Chain
p812
(dp813
g3
(lp814
(i__main__
Mention
p815
(dp816
g7
S't26'
p817
sg9
Nsg10
S'i67'
p818
sg12
Nsg13
Nsg14
(lp819
(i__main__
Token
p820
(dp821
g18
I420
sbasg21
I420
sbasg7
g817
sg33
Nsba(i__main__
Chain
p822
(dp823
g3
(lp824
(i__main__
Mention
p825
(dp826
g7
S't27'
p827
sg9
Nsg10
S'i72'
p828
sg12
Nsg13
Nsg14
(lp829
(i__main__
Token
p830
(dp831
g18
I444
sbasg21
I444
sbasg7
g827
sg33
Nsba.