(lp0
(i__main__
Chain
p1
(dp2
S'mentionList'
p3
(lp4
(i__main__
Mention
p5
(dp6
S'chainId'
p7
S't1'
p8
sS'relType'
p9
NsS'mentionId'
p10
S'i1'
p11
sS'antecedentId'
p12
NsS'crefMod'
p13
NsS'tokenList'
p14
(lp15
(i__main__
Token
p16
(dp17
S'tokenId'
p18
I0
sbasS'mentionHead'
p19
I0
sba(i__main__
Mention
p20
(dp21
g7
S't1'
p22
sg9
Nsg10
S'i28'
p23
sg12
Nsg13
Nsg14
(lp24
(i__main__
Token
p25
(dp26
g18
I102
sba(i__main__
Token
p27
(dp28
g18
I103
sbasg19
Nsba(i__main__
Mention
p29
(dp30
g7
S't1'
p31
sg9
S'Coreference-Identity'
p32
sg10
S'i77'
p33
sg12
S'i28'
p34
sg13
Nsg14
(lp35
(i__main__
Token
p36
(dp37
g18
I354
sbasg19
I354
sba(i__main__
Mention
p38
(dp39
g7
S't1'
p40
sg9
Nsg10
S'i79'
p41
sg12
Nsg13
Nsg14
(lp42
(i__main__
Token
p43
(dp44
g18
I369
sbasg19
Nsbasg7
g8
sS'chainHead'
p45
Nsba(i__main__
Chain
p46
(dp47
g3
(lp48
(i__main__
Mention
p49
(dp50
g7
S't2'
p51
sg9
Nsg10
S'i2'
p52
sg12
Nsg13
Nsg14
(lp53
(i__main__
Token
p54
(dp55
g18
I2
sbasg19
I2
sba(i__main__
Mention
p56
(dp57
g7
S't2'
p58
sg9
S'Coreference-NounComplement'
p59
sg10
S'i3'
p60
sg12
S'i1'
p61
sg13
Nsg14
(lp62
(i__main__
Token
p63
(dp64
g18
I3
sba(i__main__
Token
p65
(dp66
g18
I4
sba(i__main__
Token
p67
(dp68
g18
I5
sbasg19
I5
sba(i__main__
Mention
p69
(dp70
g7
S't2'
p71
sg9
S'Anaphora-C'
p72
sg10
S'i8'
p73
sg12
S'i3'
p74
sg13
Nsg14
(lp75
(i__main__
Token
p76
(dp77
g18
I16
sbasg19
I16
sba(i__main__
Mention
p78
(dp79
g7
S't2'
p80
sg9
S'Coreference-Identity'
p81
sg10
S'i10'
p82
sg12
S'i8'
p83
sg13
Nsg14
(lp84
(i__main__
Token
p85
(dp86
g18
I29
sbasg19
I29
sba(i__main__
Mention
p87
(dp88
g7
S't2'
p89
sg9
S'Coreference-Identity'
p90
sg10
S'i19'
p91
sg12
S'i10'
p92
sg13
Nsg14
(lp93
(i__main__
Token
p94
(dp95
g18
I67
sbasg19
I67
sba(i__main__
Mention
p96
(dp97
g7
S't2'
p98
sg9
S'Coreference-Identity'
p99
sg10
S'i24'
p100
sg12
S'i19'
p101
sg13
Nsg14
(lp102
(i__main__
Token
p103
(dp104
g18
I87
sbasg19
I87
sba(i__main__
Mention
p105
(dp106
g7
S't2'
p107
sg9
S'Anaphora-C'
p108
sg10
S'i35'
p109
sg12
S'i24'
p110
sg13
Nsg14
(lp111
(i__main__
Token
p112
(dp113
g18
I135
sbasg19
I135
sba(i__main__
Mention
p114
(dp115
g7
S't2'
p116
sg9
S'Anaphora-C'
p117
sg10
S'i38'
p118
sg12
S'i35'
p119
sg13
Nsg14
(lp120
(i__main__
Token
p121
(dp122
g18
I148
sbasg19
I148
sba(i__main__
Mention
p123
(dp124
g7
S't2'
p125
sg9
S'Anaphora-C'
p126
sg10
S'i42'
p127
sg12
S'i38'
p128
sg13
Nsg14
(lp129
(i__main__
Token
p130
(dp131
g18
I163
sbasg19
I163
sba(i__main__
Mention
p132
(dp133
g7
S't2'
p134
sg9
S'Anaphora-C'
p135
sg10
S'i47'
p136
sg12
S'i42'
p137
sg13
Nsg14
(lp138
(i__main__
Token
p139
(dp140
g18
I183
sbasg19
I183
sba(i__main__
Mention
p141
(dp142
g7
S't2'
p143
sg9
S'Anaphora-C'
p144
sg10
S'i48'
p145
sg12
S'i47'
p146
sg13
Nsg14
(lp147
(i__main__
Token
p148
(dp149
g18
I189
sbasg19
I189
sba(i__main__
Mention
p150
(dp151
g7
S't2'
p152
sg9
S'Coreference-Identity'
p153
sg10
S'i53'
p154
sg12
S'i48'
p155
sg13
Nsg14
(lp156
(i__main__
Token
p157
(dp158
g18
I224
sbasg19
I224
sba(i__main__
Mention
p159
(dp160
g7
S't2'
p161
sg9
S'Anaphora-C'
p162
sg10
S'i54'
p163
sg12
S'i53'
p164
sg13
Nsg14
(lp165
(i__main__
Token
p166
(dp167
g18
I228
sbasg19
I228
sba(i__main__
Mention
p168
(dp169
g7
S't2'
p170
sg9
S'Anaphora-C'
p171
sg10
S'i57'
p172
sg12
S'i54'
p173
sg13
Nsg14
(lp174
(i__main__
Token
p175
(dp176
g18
I247
sbasg19
I247
sba(i__main__
Mention
p177
(dp178
g7
S't2'
p179
sg9
S'Coreference-Identity'
p180
sg10
S'i61'
p181
sg12
S'i57'
p182
sg13
Nsg14
(lp183
(i__main__
Token
p184
(dp185
g18
I265
sbasg19
I265
sba(i__main__
Mention
p186
(dp187
g7
S't2'
p188
sg9
S'Coreference-Identity'
p189
sg10
S'i68'
p190
sg12
S'i61'
p191
sg13
Nsg14
(lp192
(i__main__
Token
p193
(dp194
g18
I298
sbasg19
I298
sba(i__main__
Mention
p195
(dp196
g7
S't2'
p197
sg9
S'Anaphora-C'
p198
sg10
S'i75'
p199
sg12
S'i68'
p200
sg13
Nsg14
(lp201
(i__main__
Token
p202
(dp203
g18
I344
sbasg19
I344
sbasg7
g51
sg45
Nsba(i__main__
Chain
p204
(dp205
g3
(lp206
(i__main__
Mention
p207
(dp208
g7
S't3'
p209
sg9
Nsg10
S'i5'
p210
sg12
Nsg13
Nsg14
(lp211
(i__main__
Token
p212
(dp213
g18
I10
sbasg19
I10
sba(i__main__
Mention
p214
(dp215
g7
S't3'
p216
sg9
S'Coreference-Identity'
p217
sg10
S'i12'
p218
sg12
S'i5'
p219
sg13
Nsg14
(lp220
(i__main__
Token
p221
(dp222
g18
I35
sbasg19
I35
sba(i__main__
Mention
p223
(dp224
g7
S't3'
p225
sg9
S'Coreference-Identity'
p226
sg10
S'i21'
p227
sg12
S'i12'
p228
sg13
Nsg14
(lp229
(i__main__
Token
p230
(dp231
g18
I80
sbasg19
I80
sba(i__main__
Mention
p232
(dp233
g7
S't3'
p234
sg9
S'Coreference-Identity'
p235
sg10
S'i25'
p236
sg12
S'i21'
p237
sg13
Nsg14
(lp238
(i__main__
Token
p239
(dp240
g18
I93
sbasg19
I93
sba(i__main__
Mention
p241
(dp242
g7
S't3'
p243
sg9
S'Coreference-Apposition'
p244
sg10
S'i26'
p245
sg12
S'i25'
p246
sg13
Nsg14
(lp247
(i__main__
Token
p248
(dp249
g18
I94
sba(i__main__
Token
p250
(dp251
g18
I95
sbasg19
I95
sba(i__main__
Mention
p252
(dp253
g7
S't3'
p254
sg9
S'Anaphora-C'
p255
sg10
S'i27'
p256
sg12
S'i26'
p257
sg13
Nsg14
(lp258
(i__main__
Token
p259
(dp260
g18
I98
sbasg19
I98
sba(i__main__
Mention
p261
(dp262
g7
S't3'
p263
sg9
S'Coreference-Noun-Noun'
p264
sg10
S'i32'
p265
sg12
S'i27'
p266
sg13
Nsg14
(lp267
(i__main__
Token
p268
(dp269
g18
I121
sbasg19
I121
sba(i__main__
Mention
p270
(dp271
g7
S't3'
p272
sg9
S'Coreference-Identity'
p273
sg10
S'i40'
p274
sg12
S'i32'
p275
sg13
Nsg14
(lp276
(i__main__
Token
p277
(dp278
g18
I151
sbasg19
I151
sba(i__main__
Mention
p279
(dp280
g7
S't3'
p281
sg9
S'Coreference-Identity'
p282
sg10
S'i60'
p283
sg12
S'i40'
p284
sg13
Nsg14
(lp285
(i__main__
Token
p286
(dp287
g18
I257
sbasg19
I257
sba(i__main__
Mention
p288
(dp289
g7
S't3'
p290
sg9
S'Coreference-Identity'
p291
sg10
S'i70'
p292
sg12
S'i60'
p293
sg13
Nsg14
(lp294
(i__main__
Token
p295
(dp296
g18
I312
sbasg19
I312
sbasg7
g209
sg45
Nsba(i__main__
Chain
p297
(dp298
g3
(lp299
(i__main__
Mention
p300
(dp301
g7
S't4'
p302
sg9
Nsg10
S'i6'
p303
sg12
Nsg13
Nsg14
(lp304
(i__main__
Token
p305
(dp306
g18
I10
sba(i__main__
Token
p307
(dp308
g18
I11
sbasg19
I11
sba(i__main__
Mention
p309
(dp310
g7
S't4'
p311
sg9
S'Coreference-Identity'
p312
sg10
S'i13'
p313
sg12
S'i6'
p314
sg13
Nsg14
(lp315
(i__main__
Token
p316
(dp317
g18
I35
sba(i__main__
Token
p318
(dp319
g18
I36
sbasg19
I36
sba(i__main__
Mention
p320
(dp321
g7
S't4'
p322
sg9
S'Coreference-Identity'
p323
sg10
S'i22'
p324
sg12
S'i13'
p325
sg13
Nsg14
(lp326
(i__main__
Token
p327
(dp328
g18
I80
sba(i__main__
Token
p329
(dp330
g18
I81
sbasg19
I81
sba(i__main__
Mention
p331
(dp332
g7
S't4'
p333
sg9
S'Coreference-Identity'
p334
sg10
S'i33'
p335
sg12
S'i22'
p336
sg13
Nsg14
(lp337
(i__main__
Token
p338
(dp339
g18
I121
sba(i__main__
Token
p340
(dp341
g18
I122
sbasg19
I122
sba(i__main__
Mention
p342
(dp343
g7
S't4'
p344
sg9
S'Coreference-Identity'
p345
sg10
S'i71'
p346
sg12
S'i33'
p347
sg13
Nsg14
(lp348
(i__main__
Token
p349
(dp350
g18
I312
sba(i__main__
Token
p351
(dp352
g18
I313
sbasg19
I313
sba(i__main__
Mention
p353
(dp354
g7
S't4'
p355
sg9
S'Coreference-Identity'
p356
sg10
S'i73'
p357
sg12
S'i71'
p358
sg13
Nsg14
(lp359
(i__main__
Token
p360
(dp361
g18
I328
sba(i__main__
Token
p362
(dp363
g18
I329
sbasg19
I329
sbasg7
g302
sg45
Nsba(i__main__
Chain
p364
(dp365
g3
(lp366
(i__main__
Mention
p367
(dp368
g7
S't5'
p369
sg9
Nsg10
S'i7'
p370
sg12
Nsg13
Nsg14
(lp371
(i__main__
Token
p372
(dp373
g18
I13
sbasg19
I13
sba(i__main__
Mention
p374
(dp375
g7
S't5'
p376
sg9
S'Coreference-Identity'
p377
sg10
S'i14'
p378
sg12
S'i7'
p379
sg13
Nsg14
(lp380
(i__main__
Token
p381
(dp382
g18
I38
sbasg19
I38
sba(i__main__
Mention
p383
(dp384
g7
S't5'
p385
sg9
S'Anaphora-C'
p386
sg10
S'i15'
p387
sg12
S'i14'
p388
sg13
Nsg14
(lp389
(i__main__
Token
p390
(dp391
g18
I51
sbasg19
I51
sba(i__main__
Mention
p392
(dp393
g7
S't5'
p394
sg9
S'Coreference-Identity'
p395
sg10
S'i23'
p396
sg12
S'i15'
p397
sg13
Nsg14
(lp398
(i__main__
Token
p399
(dp400
g18
I83
sbasg19
I83
sba(i__main__
Mention
p401
(dp402
g7
S't5'
p403
sg9
S'Coreference-Identity'
p404
sg10
S'i34'
p405
sg12
S'i23'
p406
sg13
Nsg14
(lp407
(i__main__
Token
p408
(dp409
g18
I124
sbasg19
I124
sba(i__main__
Mention
p410
(dp411
g7
S't5'
p412
sg9
S'Coreference-Identity'
p413
sg10
S'i72'
p414
sg12
S'i34'
p415
sg13
Nsg14
(lp416
(i__main__
Token
p417
(dp418
g18
I315
sbasg19
I315
sba(i__main__
Mention
p419
(dp420
g7
S't5'
p421
sg9
S'Coreference-Identity'
p422
sg10
S'i74'
p423
sg12
S'i72'
p424
sg13
Nsg14
(lp425
(i__main__
Token
p426
(dp427
g18
I331
sbasg19
I331
sbasg7
g369
sg45
Nsba(i__main__
Chain
p428
(dp429
g3
(lp430
(i__main__
Mention
p431
(dp432
g7
S't6'
p433
sg9
Nsg10
S'i9'
p434
sg12
Nsg13
Nsg14
(lp435
(i__main__
Token
p436
(dp437
g18
I20
sba(i__main__
Token
p438
(dp439
g18
I21
sba(i__main__
Token
p440
(dp441
g18
I22
sbasg19
I22
sba(i__main__
Mention
p442
(dp443
g7
S't6'
p444
sg9
S'Coreference-Identity'
p445
sg10
S'i16'
p446
sg12
S'i89'
p447
sg13
Nsg14
(lp448
(i__main__
Token
p449
(dp450
g18
I53
sba(i__main__
Token
p451
(dp452
g18
I54
sba(i__main__
Token
p453
(dp454
g18
I55
sba(i__main__
Token
p455
(dp456
g18
I56
sbasg19
I56
sbasg7
g433
sg45
Nsba(i__main__
Chain
p457
(dp458
g3
(lp459
(i__main__
Mention
p460
(dp461
g7
S't7'
p462
sg9
Nsg10
S'i11'
p463
sg12
Nsg13
Nsg14
(lp464
(i__main__
Token
p465
(dp466
g18
I33
sbasg19
I33
sba(i__main__
Mention
p467
(dp468
g7
S't7'
p469
sg9
S'Coreference-Identity'
p470
sg10
S'i20'
p471
sg12
S'i11'
p472
sg13
Nsg14
(lp473
(i__main__
Token
p474
(dp475
g18
I71
sbasg19
I71
sba(i__main__
Mention
p476
(dp477
g7
S't7'
p478
sg9
Nsg10
S'i29'
p479
sg12
Nsg13
Nsg14
(lp480
(i__main__
Token
p481
(dp482
g18
I102
sba(i__main__
Token
p483
(dp484
g18
I103
sbasg19
Nsba(i__main__
Mention
p485
(dp486
g7
S't7'
p487
sg9
S'Coreference-Identity'
p488
sg10
S'i36'
p489
sg12
S'i29'
p490
sg13
Nsg14
(lp491
(i__main__
Token
p492
(dp493
g18
I139
sbasg19
I139
sba(i__main__
Mention
p494
(dp495
g7
S't7'
p496
sg9
S'Anaphora-C'
p497
sg10
S'i37'
p498
sg12
S'i36'
p499
sg13
Nsg14
(lp500
(i__main__
Token
p501
(dp502
g18
I140
sbasg19
I140
sba(i__main__
Mention
p503
(dp504
g7
S't7'
p505
sg9
S'Coreference-Identity'
p506
sg10
S'i39'
p507
sg12
S'i37'
p508
sg13
Nsg14
(lp509
(i__main__
Token
p510
(dp511
g18
I149
sbasg19
I149
sba(i__main__
Mention
p512
(dp513
g7
S't7'
p514
sg9
S'Coreference-Identity'
p515
sg10
S'i44'
p516
sg12
S'i39'
p517
sg13
Nsg14
(lp518
(i__main__
Token
p519
(dp520
g18
I168
sbasg19
I168
sba(i__main__
Mention
p521
(dp522
g7
S't7'
p523
sg9
S'Coreference-Identity'
p524
sg10
S'i55'
p525
sg12
S'i44'
p526
sg13
Nsg14
(lp527
(i__main__
Token
p528
(dp529
g18
I229
sbasg19
I229
sba(i__main__
Mention
p530
(dp531
g7
S't7'
p532
sg9
S'Coreference-Identity'
p533
sg10
S'i59'
p534
sg12
S'i55'
p535
sg13
Nsg14
(lp536
(i__main__
Token
p537
(dp538
g18
I253
sbasg19
I253
sba(i__main__
Mention
p539
(dp540
g7
S't7'
p541
sg9
S'Coreference-Identity'
p542
sg10
S'i64'
p543
sg12
S'i59'
p544
sg13
Nsg14
(lp545
(i__main__
Token
p546
(dp547
g18
I275
sbasg19
I275
sba(i__main__
Mention
p548
(dp549
g7
S't7'
p550
sg9
S'Coreference-Identity'
p551
sg10
S'i69'
p552
sg12
S'i64'
p553
sg13
Nsg14
(lp554
(i__main__
Token
p555
(dp556
g18
I302
sbasg19
I302
sba(i__main__
Mention
p557
(dp558
g7
S't7'
p559
sg9
S'Coreference-Identity'
p560
sg10
S'i76'
p561
sg12
S'i69'
p562
sg13
Nsg14
(lp563
(i__main__
Token
p564
(dp565
g18
I352
sbasg19
I352
sba(i__main__
Mention
p566
(dp567
g7
S't7'
p568
sg9
Nsg10
S'i80'
p569
sg12
Nsg13
Nsg14
(lp570
(i__main__
Token
p571
(dp572
g18
I369
sbasg19
Nsbasg7
g462
sg45
Nsba(i__main__
Chain
p573
(dp574
g3
(lp575
(i__main__
Mention
p576
(dp577
g7
S't8'
p578
sg9
Nsg10
S'i18'
p579
sg12
Nsg13
Nsg14
(lp580
(i__main__
Token
p581
(dp582
g18
I61
sba(i__main__
Token
p583
(dp584
g18
I62
sbasg19
I62
sba(i__main__
Mention
p585
(dp586
g7
S't8'
p587
sg9
S'Coreference-Identity'
p588
sg10
S'i30'
p589
sg12
S'i18'
p590
sg13
Nsg14
(lp591
(i__main__
Token
p592
(dp593
g18
I111
sbasg19
I111
sbasg7
g578
sg45
Nsba(i__main__
Chain
p594
(dp595
g3
(lp596
(i__main__
Mention
p597
(dp598
g7
S't9'
p599
sg9
Nsg10
S'i31'
p600
sg12
Nsg13
Nsg14
(lp601
(i__main__
Token
p602
(dp603
g18
I120
sbasg19
I120
sbasg7
g599
sg45
Nsba(i__main__
Chain
p604
(dp605
g3
(lp606
(i__main__
Mention
p607
(dp608
g7
S't10'
p609
sg9
Nsg10
S'i41'
p610
sg12
Nsg13
Nsg14
(lp611
(i__main__
Token
p612
(dp613
g18
I155
sba(i__main__
Token
p614
(dp615
g18
I156
sbasg19
I156
sba(i__main__
Mention
p616
(dp617
g7
S't10'
p618
sg9
S'Coreference-Identity'
p619
sg10
S'i45'
p620
sg12
S'i41'
p621
sg13
Nsg14
(lp622
(i__main__
Token
p623
(dp624
g18
I176
sba(i__main__
Token
p625
(dp626
g18
I177
sbasg19
I177
sbasg7
g609
sg45
Nsba(i__main__
Chain
p627
(dp628
g3
(lp629
(i__main__
Mention
p630
(dp631
g7
S't11'
p632
sg9
Nsg10
S'i43'
p633
sg12
Nsg13
Nsg14
(lp634
(i__main__
Token
p635
(dp636
g18
I166
sba(i__main__
Token
p637
(dp638
g18
I167
sba(i__main__
Token
p639
(dp640
g18
I168
sba(i__main__
Token
p641
(dp642
g18
I169
sba(i__main__
Token
p643
(dp644
g18
I170
sba(i__main__
Token
p645
(dp646
g18
I171
sba(i__main__
Token
p647
(dp648
g18
I172
sba(i__main__
Token
p649
(dp650
g18
I173
sba(i__main__
Token
p651
(dp652
g18
I174
sba(i__main__
Token
p653
(dp654
g18
I175
sba(i__main__
Token
p655
(dp656
g18
I176
sba(i__main__
Token
p657
(dp658
g18
I177
sba(i__main__
Token
p659
(dp660
g18
I178
sba(i__main__
Token
p661
(dp662
g18
I179
sbasg19
I178
sba(i__main__
Mention
p663
(dp664
g7
S't11'
p665
sg9
S'Anaphora-E'
p666
sg10
S'i46'
p667
sg12
S'i43'
p668
sg13
Nsg14
(lp669
(i__main__
Token
p670
(dp671
g18
I181
sbasg19
I181
sbasg7
g632
sg45
Nsba(i__main__
Chain
p672
(dp673
g3
(lp674
(i__main__
Mention
p675
(dp676
g7
S't12'
p677
sg9
Nsg10
S'i49'
p678
sg12
Nsg13
Nsg14
(lp679
(i__main__
Token
p680
(dp681
g18
I192
sba(i__main__
Token
p682
(dp683
g18
I193
sba(i__main__
Token
p684
(dp685
g18
I194
sba(i__main__
Token
p686
(dp687
g18
I195
sba(i__main__
Token
p688
(dp689
g18
I196
sba(i__main__
Token
p690
(dp691
g18
I197
sba(i__main__
Token
p692
(dp693
g18
I198
sba(i__main__
Token
p694
(dp695
g18
I199
sba(i__main__
Token
p696
(dp697
g18
I200
sba(i__main__
Token
p698
(dp699
g18
I201
sba(i__main__
Token
p700
(dp701
g18
I202
sba(i__main__
Token
p702
(dp703
g18
I203
sba(i__main__
Token
p704
(dp705
g18
I204
sba(i__main__
Token
p706
(dp707
g18
I205
sba(i__main__
Token
p708
(dp709
g18
I206
sba(i__main__
Token
p710
(dp711
g18
I207
sba(i__main__
Token
p712
(dp713
g18
I208
sba(i__main__
Token
p714
(dp715
g18
I209
sba(i__main__
Token
p716
(dp717
g18
I210
sba(i__main__
Token
p718
(dp719
g18
I211
sba(i__main__
Token
p720
(dp721
g18
I212
sba(i__main__
Token
p722
(dp723
g18
I213
sba(i__main__
Token
p724
(dp725
g18
I214
sba(i__main__
Token
p726
(dp727
g18
I215
sbasg19
I214
sba(i__main__
Mention
p728
(dp729
g7
S't12'
p730
sg9
S'Anaphora-E'
p731
sg10
S'i52'
p732
sg12
S'i49'
p733
sg13
Nsg14
(lp734
(i__main__
Token
p735
(dp736
g18
I217
sbasg19
I217
sbasg7
g677
sg45
Nsba(i__main__
Chain
p737
(dp738
g3
(lp739
(i__main__
Mention
p740
(dp741
g7
S't13'
p742
sg9
Nsg10
S'i50'
p743
sg12
Nsg13
Nsg14
(lp744
(i__main__
Token
p745
(dp746
g18
I196
sba(i__main__
Token
p747
(dp748
g18
I197
sbasg19
I197
sba(i__main__
Mention
p749
(dp750
g7
S't13'
p751
sg9
S'Anaphora-C'
p752
sg10
S'i51'
p753
sg12
S'i50'
p754
sg13
Nsg14
(lp755
(i__main__
Token
p756
(dp757
g18
I207
sbasg19
I207
sbasg7
g742
sg45
Nsba(i__main__
Chain
p758
(dp759
g3
(lp760
(i__main__
Mention
p761
(dp762
g7
S't14'
p763
sg9
Nsg10
S'i56'
p764
sg12
Nsg13
Nsg14
(lp765
(i__main__
Token
p766
(dp767
g18
I237
sba(i__main__
Token
p768
(dp769
g18
I238
sba(i__main__
Token
p770
(dp771
g18
I239
sba(i__main__
Token
p772
(dp773
g18
I240
sba(i__main__
Token
p774
(dp775
g18
I241
sbasg19
I241
sba(i__main__
Mention
p776
(dp777
g7
S't14'
p778
sg9
S'Coreference-Identity'
p779
sg10
S'i58'
p780
sg12
S'i56'
p781
sg13
Nsg14
(lp782
(i__main__
Token
p783
(dp784
g18
I248
sba(i__main__
Token
p785
(dp786
g18
I249
sbasg19
I249
sbasg7
g763
sg45
Nsba(i__main__
Chain
p787
(dp788
g3
(lp789
(i__main__
Mention
p790
(dp791
g7
S't15'
p792
sg9
Nsg10
S'i62'
p793
sg12
Nsg13
Nsg14
(lp794
(i__main__
Token
p795
(dp796
g18
I267
sbasg19
I267
sba(i__main__
Mention
p797
(dp798
g7
S't15'
p799
sg9
S'Anaphora-RE'
p800
sg10
S'i63'
p801
sg12
S'i62'
p802
sg13
Nsg14
(lp803
(i__main__
Token
p804
(dp805
g18
I271
sba(i__main__
Token
p806
(dp807
g18
I272
sba(i__main__
Token
p808
(dp809
g18
I273
sba(i__main__
Token
p810
(dp811
g18
I274
sba(i__main__
Token
p812
(dp813
g18
I275
sba(i__main__
Token
p814
(dp815
g18
I276
sba(i__main__
Token
p816
(dp817
g18
I277
sba(i__main__
Token
p818
(dp819
g18
I278
sba(i__main__
Token
p820
(dp821
g18
I279
sba(i__main__
Token
p822
(dp823
g18
I280
sba(i__main__
Token
p824
(dp825
g18
I281
sba(i__main__
Token
p826
(dp827
g18
I282
sba(i__main__
Token
p828
(dp829
g18
I283
sba(i__main__
Token
p830
(dp831
g18
I284
sba(i__main__
Token
p832
(dp833
g18
I285
sba(i__main__
Token
p834
(dp835
g18
I286
sba(i__main__
Token
p836
(dp837
g18
I287
sba(i__main__
Token
p838
(dp839
g18
I288
sba(i__main__
Token
p840
(dp841
g18
I289
sba(i__main__
Token
p842
(dp843
g18
I290
sba(i__main__
Token
p844
(dp845
g18
I291
sba(i__main__
Token
p846
(dp847
g18
I292
sba(i__main__
Token
p848
(dp849
g18
I293
sba(i__main__
Token
p850
(dp851
g18
I294
sba(i__main__
Token
p852
(dp853
g18
I295
sba(i__main__
Token
p854
(dp855
g18
I296
sbasg19
I296
sbasg7
g792
sg45
Nsba(i__main__
Chain
p856
(dp857
g3
(lp858
(i__main__
Mention
p859
(dp860
g7
S't16'
p861
sg9
Nsg10
S'i65'
p862
sg12
Nsg13
Nsg14
(lp863
(i__main__
Token
p864
(dp865
g18
I277
sba(i__main__
Token
p866
(dp867
g18
I278
sba(i__main__
Token
p868
(dp869
g18
I279
sbasg19
I279
sba(i__main__
Mention
p870
(dp871
g7
S't16'
p872
sg9
S'Anaphora-C'
p873
sg10
S'i66'
p874
sg12
S'i65'
p875
sg13
Nsg14
(lp876
(i__main__
Token
p877
(dp878
g18
I281
sbasg19
I281
sba(i__main__
Mention
p879
(dp880
g7
S't16'
p881
sg9
S'Anaphora-C'
p882
sg10
S'i67'
p883
sg12
S'i66'
p884
sg13
Nsg14
(lp885
(i__main__
Token
p886
(dp887
g18
I285
sbasg19
I285
sbasg7
g861
sg45
Nsba(i__main__
Chain
p888
(dp889
g3
(lp890
(i__main__
Mention
p891
(dp892
g7
S't17'
p893
sg9
Nsg10
S'i78'
p894
sg12
Nsg13
Nsg14
(lp895
(i__main__
Token
p896
(dp897
g18
I368
sbasg19
I368
sbasg7
g893
sg45
Nsba.