(lp0
(i__main__
Chain
p1
(dp2
S'mentionList'
p3
(lp4
(i__main__
Mention
p5
(dp6
S'chainId'
p7
S't1'
p8
sS'relType'
p9
NsS'mentionId'
p10
S'i1'
p11
sS'antecedentId'
p12
NsS'crefMod'
p13
NsS'tokenList'
p14
(lp15
(i__main__
Token
p16
(dp17
S'tokenId'
p18
I0
sba(i__main__
Token
p19
(dp20
g18
I1
sba(i__main__
Token
p21
(dp22
g18
I2
sba(i__main__
Token
p23
(dp24
g18
I3
sbasS'mentionHead'
p25
I3
sba(i__main__
Mention
p26
(dp27
g7
S't1'
p28
sg9
S'Coreference-Noun-Noun'
p29
sg10
S'i2'
p30
sg12
S'i1'
p31
sg13
Nsg14
(lp32
(i__main__
Token
p33
(dp34
g18
I5
sbasg25
I5
sba(i__main__
Mention
p35
(dp36
g7
S't1'
p37
sg9
S'Coreference-NounComplement'
p38
sg10
S'i3'
p39
sg12
S'i22'
p40
sg13
Nsg14
(lp41
(i__main__
Token
p42
(dp43
g18
I6
sba(i__main__
Token
p44
(dp45
g18
I7
sbasg25
I7
sba(i__main__
Mention
p46
(dp47
g7
S't1'
p48
sg9
S'Coreference-Identity'
p49
sg10
S'i10'
p50
sg12
S'i3'
p51
sg13
Nsg14
(lp52
(i__main__
Token
p53
(dp54
g18
I43
sba(i__main__
Token
p55
(dp56
g18
I44
sbasg25
I44
sba(i__main__
Mention
p57
(dp58
g7
S't1'
p59
sg9
S'Coreference-Identity'
p60
sg10
S'i16'
p61
sg12
S'i10'
p62
sg13
Nsg14
(lp63
(i__main__
Token
p64
(dp65
g18
I89
sbasg25
I89
sba(i__main__
Mention
p66
(dp67
g7
S't1'
p68
sg9
S'Anaphora-C'
p69
sg10
S'i17'
p70
sg12
S'i16'
p71
sg13
Nsg14
(lp72
(i__main__
Token
p73
(dp74
g18
I112
sbasg25
I112
sba(i__main__
Mention
p75
(dp76
g7
S't1'
p77
sg9
S'Anaphora-C'
p78
sg10
S'i19'
p79
sg12
S'i17'
p80
sg13
Nsg14
(lp81
(i__main__
Token
p82
(dp83
g18
I135
sbasg25
I135
sba(i__main__
Mention
p84
(dp85
g7
S't1'
p86
sg9
S'Coreference-Identity'
p87
sg10
S'i20'
p88
sg12
S'i19'
p89
sg13
Nsg14
(lp90
(i__main__
Token
p91
(dp92
g18
I141
sba(i__main__
Token
p93
(dp94
g18
I142
sbasg25
I142
sba(i__main__
Mention
p95
(dp96
g7
S't1'
p97
sg9
S'Anaphora-C'
p98
sg10
S'i21'
p99
sg12
S'i20'
p100
sg13
Nsg14
(lp101
(i__main__
Token
p102
(dp103
g18
I160
sbasg25
I160
sba(i__main__
Mention
p104
(dp105
g7
S't1'
p106
sg9
S'Anaphora-C'
p107
sg10
S'i22'
p108
sg12
S'i21'
p109
sg13
Nsg14
(lp110
(i__main__
Token
p111
(dp112
g18
I166
sbasg25
I166
sba(i__main__
Mention
p113
(dp114
g7
S't1'
p115
sg9
S'Anaphora-C'
p116
sg10
S'i25'
p117
sg12
S'i22'
p118
sg13
Nsg14
(lp119
(i__main__
Token
p120
(dp121
g18
I180
sbasg25
I180
sbasg7
g8
sS'chainHead'
p122
Nsba(i__main__
Chain
p123
(dp124
g3
(lp125
(i__main__
Mention
p126
(dp127
g7
S't2'
p128
sg9
Nsg10
S'i5'
p129
sg12
Nsg13
Nsg14
(lp130
(i__main__
Token
p131
(dp132
g18
I11
sba(i__main__
Token
p133
(dp134
g18
I12
sbasg25
I12
sba(i__main__
Mention
p135
(dp136
g7
S't2'
p137
sg9
S'Coreference-Noun-Noun'
p138
sg10
S'i6'
p139
sg12
S'i5'
p140
sg13
Nsg14
(lp141
(i__main__
Token
p142
(dp143
g18
I20
sba(i__main__
Token
p144
(dp145
g18
I21
sba(i__main__
Token
p146
(dp147
g18
I22
sba(i__main__
Token
p148
(dp149
g18
I23
sbasg25
I23
sba(i__main__
Mention
p150
(dp151
g7
S't2'
p152
sg9
S'Coreference-Noun-Noun'
p153
sg10
S'i13'
p154
sg12
S'i24'
p155
sg13
Nsg14
(lp156
(i__main__
Token
p157
(dp158
g18
I64
sba(i__main__
Token
p159
(dp160
g18
I65
sbasg25
I65
sbasg7
g128
sg122
Nsba(i__main__
Chain
p161
(dp162
g3
(lp163
(i__main__
Mention
p164
(dp165
g7
S't3'
p166
sg9
Nsg10
S'i7'
p167
sg12
Nsg13
Nsg14
(lp168
(i__main__
Token
p169
(dp170
g18
I24
sbasg25
I24
sba(i__main__
Mention
p171
(dp172
g7
S't3'
p173
sg9
S'Coreference-Identity'
p174
sg10
S'i9'
p175
sg12
S'i7'
p176
sg13
Nsg14
(lp177
(i__main__
Token
p178
(dp179
g18
I36
sbasg25
I36
sba(i__main__
Mention
p180
(dp181
g7
S't3'
p182
sg9
S'Coreference-Identity'
p183
sg10
S'i11'
p184
sg12
S'i9'
p185
sg13
Nsg14
(lp186
(i__main__
Token
p187
(dp188
g18
I50
sbasg25
I50
sbasg7
g166
sg122
Nsba(i__main__
Chain
p189
(dp190
g3
(lp191
(i__main__
Mention
p192
(dp193
g7
S't4'
p194
sg9
Nsg10
S'i8'
p195
sg12
Nsg13
Nsg14
(lp196
(i__main__
Token
p197
(dp198
g18
I26
sba(i__main__
Token
p199
(dp200
g18
I27
sbasg25
I27
sba(i__main__
Mention
p201
(dp202
g7
S't4'
p203
sg9
S'Coreference-Identity'
p204
sg10
S'i12'
p205
sg12
S'i8'
p206
sg13
Nsg14
(lp207
(i__main__
Token
p208
(dp209
g18
I52
sba(i__main__
Token
p210
(dp211
g18
I53
sbasg25
I53
sbasg7
g194
sg122
Nsba(i__main__
Chain
p212
(dp213
g3
(lp214
(i__main__
Mention
p215
(dp216
g7
S't5'
p217
sg9
Nsg10
S'i15'
p218
sg12
Nsg13
Nsg14
(lp219
(i__main__
Token
p220
(dp221
g18
I68
sbasg25
I68
sba(i__main__
Mention
p222
(dp223
g7
S't5'
p224
sg9
S'Coreference-Identity'
p225
sg10
S'i18'
p226
sg12
S'i15'
p227
sg13
Nsg14
(lp228
(i__main__
Token
p229
(dp230
g18
I122
sbasg25
I122
sbasg7
g217
sg122
Nsba(i__main__
Chain
p231
(dp232
g3
(lp233
(i__main__
Mention
p234
(dp235
g7
S't6'
p236
sg9
Nsg10
S'i23'
p237
sg12
Nsg13
Nsg14
(lp238
(i__main__
Token
p239
(dp240
g18
I167
sbasg25
I167
sba(i__main__
Mention
p241
(dp242
g7
S't6'
p243
sg9
S'Anaphora-RC'
p244
sg10
S'i24'
p245
sg12
S'i23'
p246
sg13
Nsg14
(lp247
(i__main__
Token
p248
(dp249
g18
I171
sba(i__main__
Token
p250
(dp251
g18
I172
sba(i__main__
Token
p252
(dp253
g18
I173
sba(i__main__
Token
p254
(dp255
g18
I174
sba(i__main__
Token
p256
(dp257
g18
I175
sba(i__main__
Token
p258
(dp259
g18
I176
sba(i__main__
Token
p260
(dp261
g18
I177
sba(i__main__
Token
p262
(dp263
g18
I178
sba(i__main__
Token
p264
(dp265
g18
I179
sba(i__main__
Token
p266
(dp267
g18
I180
sba(i__main__
Token
p268
(dp269
g18
I181
sba(i__main__
Token
p270
(dp271
g18
I182
sbasg25
I182
sbasg7
g236
sg122
Nsba.