(lp0
(i__main__
Chain
p1
(dp2
S'mentionList'
p3
(lp4
(i__main__
Mention
p5
(dp6
S'chainId'
p7
S't1'
p8
sS'relType'
p9
NsS'mentionId'
p10
S'i1'
p11
sS'antecedentId'
p12
NsS'crefMod'
p13
NsS'tokenList'
p14
(lp15
(i__main__
Token
p16
(dp17
S'tokenId'
p18
I0
sba(i__main__
Token
p19
(dp20
g18
I1
sba(i__main__
Token
p21
(dp22
g18
I2
sba(i__main__
Token
p23
(dp24
g18
I3
sbasS'mentionHead'
p25
I3
sba(i__main__
Mention
p26
(dp27
g7
S't1'
p28
sg9
S'Coreference-Bracketed/Abbraviation'
p29
sg10
S'i2'
p30
sg12
S'i1'
p31
sg13
Nsg14
(lp32
(i__main__
Token
p33
(dp34
g18
I5
sbasg25
I5
sba(i__main__
Mention
p35
(dp36
g7
S't1'
p37
sg9
S'Coreference-Noun-Noun'
p38
sg10
S'i8'
p39
sg12
S'i2'
p40
sg13
Nsg14
(lp41
(i__main__
Token
p42
(dp43
g18
I32
sbasg25
I32
sba(i__main__
Mention
p44
(dp45
g7
S't1'
p46
sg9
S'Coreference-Identity'
p47
sg10
S'i14'
p48
sg12
S'i8'
p49
sg13
Nsg14
(lp50
(i__main__
Token
p51
(dp52
g18
I62
sbasg25
I62
sba(i__main__
Mention
p53
(dp54
g7
S't1'
p55
sg9
S'Coreference-Noun-Noun'
p56
sg10
S'i18'
p57
sg12
S'i14'
p58
sg13
Nsg14
(lp59
(i__main__
Token
p60
(dp61
g18
I78
sbasg25
I78
sba(i__main__
Mention
p62
(dp63
g7
S't1'
p64
sg9
S'Coreference-Identity'
p65
sg10
S'i44'
p66
sg12
S'i18'
p67
sg13
Nsg14
(lp68
(i__main__
Token
p69
(dp70
g18
I208
sbasg25
I208
sba(i__main__
Mention
p71
(dp72
g7
S't1'
p73
sg9
S'Coreference-Identity'
p74
sg10
S'i53'
p75
sg12
S'i44'
p76
sg13
Nsg14
(lp77
(i__main__
Token
p78
(dp79
g18
I250
sbasg25
I250
sba(i__main__
Mention
p80
(dp81
g7
S't1'
p82
sg9
S'Coreference-Identity'
p83
sg10
S'i54'
p84
sg12
S'i53'
p85
sg13
Nsg14
(lp86
(i__main__
Token
p87
(dp88
g18
I276
sbasg25
I276
sbasg7
g8
sS'chainHead'
p89
Nsba(i__main__
Chain
p90
(dp91
g3
(lp92
(i__main__
Mention
p93
(dp94
g7
S't2'
p95
sg9
Nsg10
S'i3'
p96
sg12
Nsg13
Nsg14
(lp97
(i__main__
Token
p98
(dp99
g18
I8
sba(i__main__
Token
p100
(dp101
g18
I9
sba(i__main__
Token
p102
(dp103
g18
I10
sbasg25
I10
sba(i__main__
Mention
p104
(dp105
g7
S't2'
p106
sg9
Nsg10
S'i9'
p107
sg12
Nsg13
Nsg14
(lp108
(i__main__
Token
p109
(dp110
g18
I34
sba(i__main__
Token
p111
(dp112
g18
I35
sbasg25
Nsba(i__main__
Mention
p113
(dp114
g7
S't2'
p115
sg9
Nsg10
S'i16'
p116
sg12
Nsg13
Nsg14
(lp117
(i__main__
Token
p118
(dp119
g18
I69
sba(i__main__
Token
p120
(dp121
g18
I70
sbasg25
Nsba(i__main__
Mention
p122
(dp123
g7
S't2'
p124
sg9
Nsg10
S'i19'
p125
sg12
Nsg13
Nsg14
(lp126
(i__main__
Token
p127
(dp128
g18
I85
sba(i__main__
Token
p129
(dp130
g18
I86
sba(i__main__
Token
p131
(dp132
g18
I87
sba(i__main__
Token
p133
(dp134
g18
I88
sba(i__main__
Token
p135
(dp136
g18
I89
sba(i__main__
Token
p137
(dp138
g18
I90
sbasg25
Nsba(i__main__
Mention
p139
(dp140
g7
S't2'
p141
sg9
S'Coreference-Noun-Noun'
p142
sg10
S'i21'
p143
sg12
S'i19'
p144
sg13
Nsg14
(lp145
(i__main__
Token
p146
(dp147
g18
I91
sba(i__main__
Token
p148
(dp149
g18
I92
sbasg25
I92
sba(i__main__
Mention
p150
(dp151
g7
S't2'
p152
sg9
Nsg10
S'i23'
p153
sg12
Nsg13
Nsg14
(lp154
(i__main__
Token
p155
(dp156
g18
I96
sbasg25
Nsba(i__main__
Mention
p157
(dp158
g7
S't2'
p159
sg9
Nsg10
S'i27'
p160
sg12
Nsg13
Nsg14
(lp161
(i__main__
Token
p162
(dp163
g18
I122
sbasg25
Nsba(i__main__
Mention
p164
(dp165
g7
S't2'
p166
sg9
S'Coreference-Noun-Noun'
p167
sg10
S'i35'
p168
sg12
S'i27'
p169
sg13
Nsg14
(lp170
(i__main__
Token
p171
(dp172
g18
I169
sba(i__main__
Token
p173
(dp174
g18
I170
sba(i__main__
Token
p175
(dp176
g18
I171
sbasg25
I171
sba(i__main__
Mention
p177
(dp178
g7
S't2'
p179
sg9
S'Coreference-Noun-Noun'
p180
sg10
S'i38'
p181
sg12
S'i35'
p182
sg13
Nsg14
(lp183
(i__main__
Token
p184
(dp185
g18
I187
sba(i__main__
Token
p186
(dp187
g18
I188
sbasg25
I188
sba(i__main__
Mention
p188
(dp189
g7
S't2'
p190
sg9
Nsg10
S'i45'
p191
sg12
Nsg13
Nsg14
(lp192
(i__main__
Token
p193
(dp194
g18
I210
sba(i__main__
Token
p195
(dp196
g18
I211
sba(i__main__
Token
p197
(dp198
g18
I212
sbasg25
Nsba(i__main__
Mention
p199
(dp200
g7
S't2'
p201
sg9
Nsg10
S'i47'
p202
sg12
Nsg13
Nsg14
(lp203
(i__main__
Token
p204
(dp205
g18
I218
sbasg25
Nsba(i__main__
Mention
p206
(dp207
g7
S't2'
p208
sg9
Nsg10
S'i49'
p209
sg12
Nsg13
Nsg14
(lp210
(i__main__
Token
p211
(dp212
g18
I224
sbasg25
Nsbasg7
g95
sg89
Nsba(i__main__
Chain
p213
(dp214
g3
(lp215
(i__main__
Mention
p216
(dp217
g7
S't3'
p218
sg9
Nsg10
S'i4'
p219
sg12
Nsg13
Nsg14
(lp220
(i__main__
Token
p221
(dp222
g18
I12
sba(i__main__
Token
p223
(dp224
g18
I13
sba(i__main__
Token
p225
(dp226
g18
I14
sbasg25
I14
sba(i__main__
Mention
p227
(dp228
g7
S't3'
p229
sg9
Nsg10
S'i10'
p230
sg12
Nsg13
Nsg14
(lp231
(i__main__
Token
p232
(dp233
g18
I34
sba(i__main__
Token
p234
(dp235
g18
I35
sbasg25
Nsba(i__main__
Mention
p236
(dp237
g7
S't3'
p238
sg9
Nsg10
S'i17'
p239
sg12
Nsg13
Nsg14
(lp240
(i__main__
Token
p241
(dp242
g18
I69
sba(i__main__
Token
p243
(dp244
g18
I70
sbasg25
Nsba(i__main__
Mention
p245
(dp246
g7
S't3'
p247
sg9
Nsg10
S'i20'
p248
sg12
Nsg13
Nsg14
(lp249
(i__main__
Token
p250
(dp251
g18
I85
sba(i__main__
Token
p252
(dp253
g18
I86
sba(i__main__
Token
p254
(dp255
g18
I87
sba(i__main__
Token
p256
(dp257
g18
I88
sba(i__main__
Token
p258
(dp259
g18
I89
sba(i__main__
Token
p260
(dp261
g18
I90
sbasg25
Nsba(i__main__
Mention
p262
(dp263
g7
S't3'
p264
sg9
S'Coreference-Noun-Noun'
p265
sg10
S'i22'
p266
sg12
S'i20'
p267
sg13
Nsg14
(lp268
(i__main__
Token
p269
(dp270
g18
I94
sba(i__main__
Token
p271
(dp272
g18
I95
sbasg25
I95
sba(i__main__
Mention
p273
(dp274
g7
S't3'
p275
sg9
Nsg10
S'i24'
p276
sg12
Nsg13
Nsg14
(lp277
(i__main__
Token
p278
(dp279
g18
I96
sbasg25
Nsba(i__main__
Mention
p280
(dp281
g7
S't3'
p282
sg9
Nsg10
S'i28'
p283
sg12
Nsg13
Nsg14
(lp284
(i__main__
Token
p285
(dp286
g18
I122
sbasg25
Nsba(i__main__
Mention
p287
(dp288
g7
S't3'
p289
sg9
S'Coreference-Noun-Noun'
p290
sg10
S'i36'
p291
sg12
S'i28'
p292
sg13
Nsg14
(lp293
(i__main__
Token
p294
(dp295
g18
I173
sba(i__main__
Token
p296
(dp297
g18
I174
sbasg25
I174
sba(i__main__
Mention
p298
(dp299
g7
S't3'
p300
sg9
S'Coreference-Noun-Noun'
p301
sg10
S'i41'
p302
sg12
S'i36'
p303
sg13
Nsg14
(lp304
(i__main__
Token
p305
(dp306
g18
I197
sbasg25
I197
sba(i__main__
Mention
p307
(dp308
g7
S't3'
p309
sg9
Nsg10
S'i46'
p310
sg12
Nsg13
Nsg14
(lp311
(i__main__
Token
p312
(dp313
g18
I210
sba(i__main__
Token
p314
(dp315
g18
I211
sba(i__main__
Token
p316
(dp317
g18
I212
sbasg25
Nsba(i__main__
Mention
p318
(dp319
g7
S't3'
p320
sg9
Nsg10
S'i48'
p321
sg12
Nsg13
Nsg14
(lp322
(i__main__
Token
p323
(dp324
g18
I218
sbasg25
Nsba(i__main__
Mention
p325
(dp326
g7
S't3'
p327
sg9
Nsg10
S'i50'
p328
sg12
Nsg13
Nsg14
(lp329
(i__main__
Token
p330
(dp331
g18
I224
sbasg25
Nsbasg7
g218
sg89
Nsba(i__main__
Chain
p332
(dp333
g3
(lp334
(i__main__
Mention
p335
(dp336
g7
S't4'
p337
sg9
Nsg10
S'i5'
p338
sg12
Nsg13
Nsg14
(lp339
(i__main__
Token
p340
(dp341
g18
I16
sba(i__main__
Token
p342
(dp343
g18
I17
sba(i__main__
Token
p344
(dp345
g18
I18
sbasg25
I18
sba(i__main__
Mention
p346
(dp347
g7
S't4'
p348
sg9
S'Coreference-Identity'
p349
sg10
S'i11'
p350
sg12
S'i5'
p351
sg13
Nsg14
(lp352
(i__main__
Token
p353
(dp354
g18
I37
sba(i__main__
Token
p355
(dp356
g18
I38
sba(i__main__
Token
p357
(dp358
g18
I39
sbasg25
I39
sba(i__main__
Mention
p359
(dp360
g7
S't4'
p361
sg9
S'Coreference-Identity'
p362
sg10
S'i33'
p363
sg12
S'i11'
p364
sg13
Nsg14
(lp365
(i__main__
Token
p366
(dp367
g18
I137
sba(i__main__
Token
p368
(dp369
g18
I138
sba(i__main__
Token
p370
(dp371
g18
I139
sbasg25
I139
sba(i__main__
Mention
p372
(dp373
g7
S't4'
p374
sg9
S'Coreference-Identity'
p375
sg10
S'i37'
p376
sg12
S'i33'
p377
sg13
Nsg14
(lp378
(i__main__
Token
p379
(dp380
g18
I181
sba(i__main__
Token
p381
(dp382
g18
I182
sba(i__main__
Token
p383
(dp384
g18
I183
sbasg25
I183
sba(i__main__
Mention
p385
(dp386
g7
S't4'
p387
sg9
S'Anaphora-C'
p388
sg10
S'i39'
p389
sg12
S'i37'
p390
sg13
Nsg14
(lp391
(i__main__
Token
p392
(dp393
g18
I190
sbasg25
I190
sba(i__main__
Mention
p394
(dp395
g7
S't4'
p396
sg9
S'Coreference-Identity'
p397
sg10
S'i42'
p398
sg12
S'i39'
p399
sg13
Nsg14
(lp400
(i__main__
Token
p401
(dp402
g18
I198
sba(i__main__
Token
p403
(dp404
g18
I199
sba(i__main__
Token
p405
(dp406
g18
I200
sbasg25
I200
sba(i__main__
Mention
p407
(dp408
g7
S't4'
p409
sg9
S'Coreference-Identity'
p410
sg10
S'i55'
p411
sg12
S'i42'
p412
sg13
Nsg14
(lp413
(i__main__
Token
p414
(dp415
g18
I283
sba(i__main__
Token
p416
(dp417
g18
I284
sba(i__main__
Token
p418
(dp419
g18
I285
sbasg25
I285
sbasg7
g337
sg89
Nsba(i__main__
Chain
p420
(dp421
g3
(lp422
(i__main__
Mention
p423
(dp424
g7
S't5'
p425
sg9
Nsg10
S'i6'
p426
sg12
Nsg13
Nsg14
(lp427
(i__main__
Token
p428
(dp429
g18
I20
sbasg25
I20
sba(i__main__
Mention
p430
(dp431
g7
S't5'
p432
sg9
S'Coreference-Identity'
p433
sg10
S'i12'
p434
sg12
S'i6'
p435
sg13
Nsg14
(lp436
(i__main__
Token
p437
(dp438
g18
I42
sbasg25
I42
sba(i__main__
Mention
p439
(dp440
g7
S't5'
p441
sg9
S'Coreference-Identity'
p442
sg10
S'i40'
p443
sg12
S'i12'
p444
sg13
Nsg14
(lp445
(i__main__
Token
p446
(dp447
g18
I191
sbasg25
I191
sba(i__main__
Mention
p448
(dp449
g7
S't5'
p450
sg9
Nsg10
S'i51'
p451
sg12
Nsg13
Nsg14
(lp452
(i__main__
Token
p453
(dp454
g18
I225
sba(i__main__
Token
p455
(dp456
g18
I226
sbasg25
Nsbasg7
g425
sg89
Nsba(i__main__
Chain
p457
(dp458
g3
(lp459
(i__main__
Mention
p460
(dp461
g7
S't6'
p462
sg9
Nsg10
S'i7'
p463
sg12
Nsg13
Nsg14
(lp464
(i__main__
Token
p465
(dp466
g18
I22
sba(i__main__
Token
p467
(dp468
g18
I23
sba(i__main__
Token
p469
(dp470
g18
I24
sbasg25
I24
sba(i__main__
Mention
p471
(dp472
g7
S't6'
p473
sg9
S'Coreference-Identity'
p474
sg10
S'i13'
p475
sg12
S'i7'
p476
sg13
Nsg14
(lp477
(i__main__
Token
p478
(dp479
g18
I46
sba(i__main__
Token
p480
(dp481
g18
I47
sba(i__main__
Token
p482
(dp483
g18
I49
sbasg25
I49
sba(i__main__
Mention
p484
(dp485
g7
S't6'
p486
sg9
S'Coreference-Identity'
p487
sg10
S'i43'
p488
sg12
S'i13'
p489
sg13
Nsg14
(lp490
(i__main__
Token
p491
(dp492
g18
I202
sba(i__main__
Token
p493
(dp494
g18
I203
sba(i__main__
Token
p495
(dp496
g18
I204
sbasg25
I204
sba(i__main__
Mention
p497
(dp498
g7
S't6'
p499
sg9
Nsg10
S'i52'
p500
sg12
Nsg13
Nsg14
(lp501
(i__main__
Token
p502
(dp503
g18
I225
sba(i__main__
Token
p504
(dp505
g18
I226
sbasg25
Nsbasg7
g462
sg89
Nsba(i__main__
Chain
p506
(dp507
g3
(lp508
(i__main__
Mention
p509
(dp510
g7
S't7'
p511
sg9
Nsg10
S'i15'
p512
sg12
Nsg13
Nsg14
(lp513
(i__main__
Token
p514
(dp515
g18
I64
sbasg25
I64
sbasg7
g511
sg89
Nsba(i__main__
Chain
p516
(dp517
g3
(lp518
(i__main__
Mention
p519
(dp520
g7
S't8'
p521
sg9
Nsg10
S'i25'
p522
sg12
Nsg13
Nsg14
(lp523
(i__main__
Token
p524
(dp525
g18
I97
sba(i__main__
Token
p526
(dp527
g18
I98
sba(i__main__
Token
p528
(dp529
g18
I99
sba(i__main__
Token
p530
(dp531
g18
I100
sbasg25
I100
sba(i__main__
Mention
p532
(dp533
g7
S't8'
p534
sg9
S'Coreference-RPartOf'
p535
sg10
S'i26'
p536
sg12
S'i25'
p537
sg13
Nsg14
(lp538
(i__main__
Token
p539
(dp540
g18
I110
sba(i__main__
Token
p541
(dp542
g18
I111
sbasg25
I111
sba(i__main__
Mention
p543
(dp544
g7
S't8'
p545
sg9
S'Anaphora-C'
p546
sg10
S'i29'
p547
sg12
S'i26'
p548
sg13
Nsg14
(lp549
(i__main__
Token
p550
(dp551
g18
I123
sbasg25
I123
sbasg7
g521
sg89
Nsba(i__main__
Chain
p552
(dp553
g3
(lp554
(i__main__
Mention
p555
(dp556
g7
S't9'
p557
sg9
Nsg10
S'i30'
p558
sg12
Nsg13
Nsg14
(lp559
(i__main__
Token
p560
(dp561
g18
I126
sba(i__main__
Token
p562
(dp563
g18
I127
sba(i__main__
Token
p564
(dp565
g18
I128
sbasg25
I128
sba(i__main__
Mention
p566
(dp567
g7
S't9'
p568
sg9
S'Coreference-Bracketed/Abbraviation'
p569
sg10
S'i31'
p570
sg12
S'i30'
p571
sg13
Nsg14
(lp572
(i__main__
Token
p573
(dp574
g18
I130
sbasg25
I130
sba(i__main__
Mention
p575
(dp576
g7
S't9'
p577
sg9
S'Coreference-Identity'
p578
sg10
S'i34'
p579
sg12
S'i31'
p580
sg13
Nsg14
(lp581
(i__main__
Token
p582
(dp583
g18
I149
sbasg25
I149
sba(i__main__
Mention
p584
(dp585
g7
S't9'
p586
sg9
S'Coreference-Identity'
p587
sg10
S'i56'
p588
sg12
S'i34'
p589
sg13
Nsg14
(lp590
(i__main__
Token
p591
(dp592
g18
I292
sbasg25
I292
sbasg7
g557
sg89
Nsba(i__main__
Chain
p593
(dp594
g3
(lp595
(i__main__
Mention
p596
(dp597
g7
S't10'
p598
sg9
Nsg10
S'i32'
p599
sg12
Nsg13
Nsg14
(lp600
(i__main__
Token
p601
(dp602
g18
I136
sbasg25
I136
sbasg7
g598
sg89
Nsba.