(lp0
(i__main__
Chain
p1
(dp2
S'mentionList'
p3
(lp4
(i__main__
Mention
p5
(dp6
S'chainId'
p7
S't1'
p8
sS'relType'
p9
NsS'mentionId'
p10
S'i1'
p11
sS'antecedentId'
p12
NsS'crefMod'
p13
NsS'tokenList'
p14
(lp15
(i__main__
Token
p16
(dp17
S'tokenId'
p18
I0
sba(i__main__
Token
p19
(dp20
g18
I1
sbasS'mentionHead'
p21
I1
sba(i__main__
Mention
p22
(dp23
g7
S't1'
p24
sg9
S'Coreference-Identity'
p25
sg10
S'i30'
p26
sg12
S'i1'
p27
sg13
Nsg14
(lp28
(i__main__
Token
p29
(dp30
g18
I106
sbasg21
I106
sba(i__main__
Mention
p31
(dp32
g7
S't1'
p33
sg9
S'Coreference-Noun-Noun'
p34
sg10
S'i34'
p35
sg12
S'i30'
p36
sg13
Nsg14
(lp37
(i__main__
Token
p38
(dp39
g18
I125
sbasg21
I125
sba(i__main__
Mention
p40
(dp41
g7
S't1'
p42
sg9
S'Coreference-Identity'
p43
sg10
S'i48'
p44
sg12
S'i34'
p45
sg13
Nsg14
(lp46
(i__main__
Token
p47
(dp48
g18
I176
sbasg21
I176
sba(i__main__
Mention
p49
(dp50
g7
S't1'
p51
sg9
S'Coreference-Identity'
p52
sg10
S'i59'
p53
sg12
S'i48'
p54
sg13
Nsg14
(lp55
(i__main__
Token
p56
(dp57
g18
I204
sbasg21
I204
sba(i__main__
Mention
p58
(dp59
g7
S't1'
p60
sg9
S'Coreference-Identity'
p61
sg10
S'i75'
p62
sg12
S'i59'
p63
sg13
Nsg14
(lp64
(i__main__
Token
p65
(dp66
g18
I271
sbasg21
I271
sba(i__main__
Mention
p67
(dp68
g7
S't1'
p69
sg9
S'Coreference-Identity'
p70
sg10
S'i80'
p71
sg12
S'i75'
p72
sg13
Nsg14
(lp73
(i__main__
Token
p74
(dp75
g18
I291
sbasg21
I291
sba(i__main__
Mention
p76
(dp77
g7
S't1'
p78
sg9
S'Coreference-Noun-Noun'
p79
sg10
S'i83'
p80
sg12
S'i80'
p81
sg13
Nsg14
(lp82
(i__main__
Token
p83
(dp84
g18
I302
sbasg21
I302
sba(i__main__
Mention
p85
(dp86
g7
S't1'
p87
sg9
S'Coreference-Noun-Noun'
p88
sg10
S'i93'
p89
sg12
S'i83'
p90
sg13
Nsg14
(lp91
(i__main__
Token
p92
(dp93
g18
I351
sbasg21
I351
sbasg7
g8
sS'chainHead'
p94
Nsba(i__main__
Chain
p95
(dp96
g3
(lp97
(i__main__
Mention
p98
(dp99
g7
S't2'
p100
sg9
Nsg10
S'i2'
p101
sg12
Nsg13
Nsg14
(lp102
(i__main__
Token
p103
(dp104
g18
I3
sbasg21
I3
sba(i__main__
Mention
p105
(dp106
g7
S't2'
p107
sg9
S'Coreference-Noun-Noun'
p108
sg10
S'i4'
p109
sg12
S'i2'
p110
sg13
Nsg14
(lp111
(i__main__
Token
p112
(dp113
g18
I8
sbasg21
I8
sba(i__main__
Mention
p114
(dp115
g7
S't2'
p116
sg9
S'Coreference-NounComplement'
p117
sg10
S'i5'
p118
sg12
S'i4'
p119
sg13
Nsg14
(lp120
(i__main__
Token
p121
(dp122
g18
I9
sba(i__main__
Token
p123
(dp124
g18
I10
sba(i__main__
Token
p125
(dp126
g18
I11
sbasg21
I11
sba(i__main__
Mention
p127
(dp128
g7
S't2'
p129
sg9
S'Anaphora-C'
p130
sg10
S'i8'
p131
sg12
S'i5'
p132
sg13
Nsg14
(lp133
(i__main__
Token
p134
(dp135
g18
I33
sbasg21
I33
sba(i__main__
Mention
p136
(dp137
g7
S't2'
p138
sg9
S'Anaphora-C'
p139
sg10
S'i14'
p140
sg12
S'i8'
p141
sg13
Nsg14
(lp142
(i__main__
Token
p143
(dp144
g18
I50
sbasg21
I50
sba(i__main__
Mention
p145
(dp146
g7
S't2'
p147
sg9
S'Coreference-Identity'
p148
sg10
S'i28'
p149
sg12
S'i14'
p150
sg13
Nsg14
(lp151
(i__main__
Token
p152
(dp153
g18
I101
sbasg21
I101
sba(i__main__
Mention
p154
(dp155
g7
S't2'
p156
sg9
S'Anaphora-C'
p157
sg10
S'i33'
p158
sg12
S'i28'
p159
sg13
Nsg14
(lp160
(i__main__
Token
p161
(dp162
g18
I122
sbasg21
I122
sba(i__main__
Mention
p163
(dp164
g7
S't2'
p165
sg9
S'Coreference-Identity'
p166
sg10
S'i50'
p167
sg12
S'i33'
p168
sg13
Nsg14
(lp169
(i__main__
Token
p170
(dp171
g18
I186
sbasg21
I186
sba(i__main__
Mention
p172
(dp173
g7
S't2'
p174
sg9
S'Anaphora-C'
p175
sg10
S'i53'
p176
sg12
S'i50'
p177
sg13
Nsg14
(lp178
(i__main__
Token
p179
(dp180
g18
I191
sbasg21
I191
sba(i__main__
Mention
p181
(dp182
g7
S't2'
p183
sg9
S'Coreference-Noun-Noun'
p184
sg10
S'i63'
p185
sg12
S'i53'
p186
sg13
Nsg14
(lp187
(i__main__
Token
p188
(dp189
g18
I221
sbasg21
I221
sba(i__main__
Mention
p190
(dp191
g7
S't2'
p192
sg9
S'Anaphora-C'
p193
sg10
S'i64'
p194
sg12
S'i63'
p195
sg13
Nsg14
(lp196
(i__main__
Token
p197
(dp198
g18
I225
sbasg21
I225
sba(i__main__
Mention
p199
(dp200
g7
S't2'
p201
sg9
S'Anaphora-C'
p202
sg10
S'i70'
p203
sg12
S'i64'
p204
sg13
Nsg14
(lp205
(i__main__
Token
p206
(dp207
g18
I244
sbasg21
I244
sba(i__main__
Mention
p208
(dp209
g7
S't2'
p210
sg9
S'Coreference-Noun-Noun'
p211
sg10
S'i73'
p212
sg12
S'i70'
p213
sg13
Nsg14
(lp214
(i__main__
Token
p215
(dp216
g18
I265
sbasg21
I265
sba(i__main__
Mention
p217
(dp218
g7
S't2'
p219
sg9
S'Anaphora-C'
p220
sg10
S'i78'
p221
sg12
S'i73'
p222
sg13
Nsg14
(lp223
(i__main__
Token
p224
(dp225
g18
I282
sbasg21
I282
sbasg7
g100
sg94
Nsba(i__main__
Chain
p226
(dp227
g3
(lp228
(i__main__
Mention
p229
(dp230
g7
S't3'
p231
sg9
Nsg10
S'i3'
p232
sg12
Nsg13
Nsg14
(lp233
(i__main__
Token
p234
(dp235
g18
I5
sba(i__main__
Token
p236
(dp237
g18
I6
sbasg21
I6
sba(i__main__
Mention
p238
(dp239
g7
S't3'
p240
sg9
S'Coreference-Identity'
p241
sg10
S'i15'
p242
sg12
S'i3'
p243
sg13
Nsg14
(lp244
(i__main__
Token
p245
(dp246
g18
I53
sba(i__main__
Token
p247
(dp248
g18
I54
sbasg21
I54
sba(i__main__
Mention
p249
(dp250
g7
S't3'
p251
sg9
S'Coreference-Noun-Noun'
p252
sg10
S'i24'
p253
sg12
S'i15'
p254
sg13
Nsg14
(lp255
(i__main__
Token
p256
(dp257
g18
I77
sbasg21
I77
sba(i__main__
Mention
p258
(dp259
g7
S't3'
p260
sg9
S'Anaphora-C'
p261
sg10
S'i26'
p262
sg12
S'i24'
p263
sg13
Nsg14
(lp264
(i__main__
Token
p265
(dp266
g18
I90
sbasg21
I90
sba(i__main__
Mention
p267
(dp268
g7
S't3'
p269
sg9
S'Coreference-Noun-Noun'
p270
sg10
S'i38'
p271
sg12
S'i26'
p272
sg13
Nsg14
(lp273
(i__main__
Token
p274
(dp275
g18
I139
sba(i__main__
Token
p276
(dp277
g18
I140
sbasg21
I140
sba(i__main__
Mention
p278
(dp279
g7
S't3'
p280
sg9
S'Coreference-Noun-Noun'
p281
sg10
S'i42'
p282
sg12
S'i38'
p283
sg13
Nsg14
(lp284
(i__main__
Token
p285
(dp286
g18
I159
sbasg21
I159
sba(i__main__
Mention
p287
(dp288
g7
S't3'
p289
sg9
S'Coreference-Noun-Noun'
p290
sg10
S'i65'
p291
sg12
S'i42'
p292
sg13
Nsg14
(lp293
(i__main__
Token
p294
(dp295
g18
I226
sbasg21
I226
sba(i__main__
Mention
p296
(dp297
g7
S't3'
p298
sg9
S'Coreference-Noun-Noun'
p299
sg10
S'i71'
p300
sg12
S'i65'
p301
sg13
Nsg14
(lp302
(i__main__
Token
p303
(dp304
g18
I256
sbasg21
I256
sbasg7
g231
sg94
Nsba(i__main__
Chain
p305
(dp306
g3
(lp307
(i__main__
Mention
p308
(dp309
g7
S't4'
p310
sg9
Nsg10
S'i6'
p311
sg12
Nsg13
Nsg14
(lp312
(i__main__
Token
p313
(dp314
g18
I25
sbasg21
I25
sba(i__main__
Mention
p315
(dp316
g7
S't4'
p317
sg9
Nsg10
S'i10'
p318
sg12
Nsg13
Nsg14
(lp319
(i__main__
Token
p320
(dp321
g18
I37
sba(i__main__
Token
p322
(dp323
g18
I38
sbasg21
Nsba(i__main__
Mention
p324
(dp325
g7
S't4'
p326
sg9
S'Coreference-PartOf'
p327
sg10
S'i31'
p328
sg12
S'i10'
p329
sg13
Nsg14
(lp330
(i__main__
Token
p331
(dp332
g18
I113
sbasg21
I113
sba(i__main__
Mention
p333
(dp334
g7
S't4'
p335
sg9
S'Coreference-Identity'
p336
sg10
S'i47'
p337
sg12
S'i31'
p338
sg13
Nsg14
(lp339
(i__main__
Token
p340
(dp341
g18
I175
sbasg21
I175
sba(i__main__
Mention
p342
(dp343
g7
S't4'
p344
sg9
S'Coreference-Identity'
p345
sg10
S'i58'
p346
sg12
S'i47'
p347
sg13
Nsg14
(lp348
(i__main__
Token
p349
(dp350
g18
I203
sbasg21
I203
sbasg7
g310
sg94
Nsba(i__main__
Chain
p351
(dp352
g3
(lp353
(i__main__
Mention
p354
(dp355
g7
S't5'
p356
sg9
Nsg10
S'i7'
p357
sg12
Nsg13
Nsg14
(lp358
(i__main__
Token
p359
(dp360
g18
I27
sbasg21
I27
sba(i__main__
Mention
p361
(dp362
g7
S't5'
p363
sg9
Nsg10
S'i11'
p364
sg12
Nsg13
Nsg14
(lp365
(i__main__
Token
p366
(dp367
g18
I37
sba(i__main__
Token
p368
(dp369
g18
I38
sbasg21
Nsba(i__main__
Mention
p370
(dp371
g7
S't5'
p372
sg9
S'Coreference-PartOf'
p373
sg10
S'i32'
p374
sg12
S'i11'
p375
sg13
Nsg14
(lp376
(i__main__
Token
p377
(dp378
g18
I115
sbasg21
I115
sba(i__main__
Mention
p379
(dp380
g7
S't5'
p381
sg9
S'Coreference-Identity'
p382
sg10
S'i36'
p383
sg12
S'i32'
p384
sg13
Nsg14
(lp385
(i__main__
Token
p386
(dp387
g18
I126
sbasg21
I126
sba(i__main__
Mention
p388
(dp389
g7
S't5'
p390
sg9
S'Coreference-Identity'
p391
sg10
S'i44'
p392
sg12
S'i36'
p393
sg13
Nsg14
(lp394
(i__main__
Token
p395
(dp396
g18
I161
sbasg21
I161
sba(i__main__
Mention
p397
(dp398
g7
S't5'
p399
sg9
S'Coreference-Identity'
p400
sg10
S'i49'
p401
sg12
S'i44'
p402
sg13
Nsg14
(lp403
(i__main__
Token
p404
(dp405
g18
I178
sbasg21
I178
sba(i__main__
Mention
p406
(dp407
g7
S't5'
p408
sg9
S'Coreference-Identity'
p409
sg10
S'i55'
p410
sg12
S'i49'
p411
sg13
Nsg14
(lp412
(i__main__
Token
p413
(dp414
g18
I192
sbasg21
I192
sba(i__main__
Mention
p415
(dp416
g7
S't5'
p417
sg9
S'Coreference-Identity'
p418
sg10
S'i79'
p419
sg12
S'i55'
p420
sg13
Nsg14
(lp421
(i__main__
Token
p422
(dp423
g18
I289
sbasg21
I289
sba(i__main__
Mention
p424
(dp425
g7
S't5'
p426
sg9
S'Coreference-Identity'
p427
sg10
S'i87'
p428
sg12
S'i79'
p429
sg13
Nsg14
(lp430
(i__main__
Token
p431
(dp432
g18
I324
sbasg21
I324
sba(i__main__
Mention
p433
(dp434
g7
S't5'
p435
sg9
S'Anaphora-C'
p436
sg10
S'i90'
p437
sg12
S'i87'
p438
sg13
Nsg14
(lp439
(i__main__
Token
p440
(dp441
g18
I331
sbasg21
I331
sba(i__main__
Mention
p442
(dp443
g7
S't5'
p444
sg9
S'Anaphora-C'
p445
sg10
S'i91'
p446
sg12
S'i90'
p447
sg13
Nsg14
(lp448
(i__main__
Token
p449
(dp450
g18
I336
sbasg21
I336
sba(i__main__
Mention
p451
(dp452
g7
S't5'
p453
sg9
S'Anaphora-C'
p454
sg10
S'i92'
p455
sg12
S'i91'
p456
sg13
Nsg14
(lp457
(i__main__
Token
p458
(dp459
g18
I343
sbasg21
I343
sbasg7
g356
sg94
Nsba(i__main__
Chain
p460
(dp461
g3
(lp462
(i__main__
Mention
p463
(dp464
g7
S't6'
p465
sg9
Nsg10
S'i9'
p466
sg12
Nsg13
Nsg14
(lp467
(i__main__
Token
p468
(dp469
g18
I33
sba(i__main__
Token
p470
(dp471
g18
I34
sba(i__main__
Token
p472
(dp473
g18
I35
sba(i__main__
Token
p474
(dp475
g18
I36
sba(i__main__
Token
p476
(dp477
g18
I37
sba(i__main__
Token
p478
(dp479
g18
I38
sba(i__main__
Token
p480
(dp481
g18
I39
sba(i__main__
Token
p482
(dp483
g18
I40
sba(i__main__
Token
p484
(dp485
g18
I41
sba(i__main__
Token
p486
(dp487
g18
I42
sba(i__main__
Token
p488
(dp489
g18
I43
sba(i__main__
Token
p490
(dp491
g18
I44
sba(i__main__
Token
p492
(dp493
g18
I45
sbasg21
I43
sba(i__main__
Mention
p494
(dp495
g7
S't6'
p496
sg9
S'Anaphora-C'
p497
sg10
S'i12'
p498
sg12
S'i9'
p499
sg13
Nsg14
(lp500
(i__main__
Token
p501
(dp502
g18
I47
sbasg21
I47
sbasg7
g465
sg94
Nsba(i__main__
Chain
p503
(dp504
g3
(lp505
(i__main__
Mention
p506
(dp507
g7
S't7'
p508
sg9
Nsg10
S'i16'
p509
sg12
Nsg13
Nsg14
(lp510
(i__main__
Token
p511
(dp512
g18
I53
sba(i__main__
Token
p513
(dp514
g18
I54
sba(i__main__
Token
p515
(dp516
g18
I55
sbasg21
I55
sba(i__main__
Mention
p517
(dp518
g7
S't7'
p519
sg9
S'Coreference-Identity'
p520
sg10
S'i72'
p521
sg12
S'i16'
p522
sg13
Nsg14
(lp523
(i__main__
Token
p524
(dp525
g18
I256
sba(i__main__
Token
p526
(dp527
g18
I257
sbasg21
I257
sbasg7
g508
sg94
Nsba(i__main__
Chain
p528
(dp529
g3
(lp530
(i__main__
Mention
p531
(dp532
g7
S't8'
p533
sg9
Nsg10
S'i17'
p534
sg12
Nsg13
Nsg14
(lp535
(i__main__
Token
p536
(dp537
g18
I56
sba(i__main__
Token
p538
(dp539
g18
I57
sba(i__main__
Token
p540
(dp541
g18
I58
sba(i__main__
Token
p542
(dp543
g18
I59
sba(i__main__
Token
p544
(dp545
g18
I60
sba(i__main__
Token
p546
(dp547
g18
I61
sba(i__main__
Token
p548
(dp549
g18
I62
sba(i__main__
Token
p550
(dp551
g18
I63
sbasg21
I63
sba(i__main__
Mention
p552
(dp553
g7
S't8'
p554
sg9
S'Anaphora-C'
p555
sg10
S'i22'
p556
sg12
S'i17'
p557
sg13
Nsg14
(lp558
(i__main__
Token
p559
(dp560
g18
I75
sbasg21
I75
sba(i__main__
Mention
p561
(dp562
g7
S't8'
p563
sg9
S'Coreference-Identity'
p564
sg10
S'i61'
p565
sg12
S'i22'
p566
sg13
Nsg14
(lp567
(i__main__
Token
p568
(dp569
g18
I216
sba(i__main__
Token
p570
(dp571
g18
I217
sbasg21
I217
sbasg7
g533
sg94
Nsba(i__main__
Chain
p572
(dp573
g3
(lp574
(i__main__
Mention
p575
(dp576
g7
S't9'
p577
sg9
Nsg10
S'i18'
p578
sg12
Nsg13
Nsg14
(lp579
(i__main__
Token
p580
(dp581
g18
I62
sbasg21
I62
sba(i__main__
Mention
p582
(dp583
g7
S't9'
p584
sg9
S'Coreference-Identity'
p585
sg10
S'i25'
p586
sg12
S'i18'
p587
sg13
Nsg14
(lp588
(i__main__
Token
p589
(dp590
g18
I83
sbasg21
I83
sba(i__main__
Mention
p591
(dp592
g7
S't9'
p593
sg9
S'Coreference-Identity'
p594
sg10
S'i27'
p595
sg12
S'i25'
p596
sg13
Nsg14
(lp597
(i__main__
Token
p598
(dp599
g18
I93
sbasg21
I93
sba(i__main__
Mention
p600
(dp601
g7
S't9'
p602
sg9
S'Coreference-Identity'
p603
sg10
S'i62'
p604
sg12
S'i27'
p605
sg13
Nsg14
(lp606
(i__main__
Token
p607
(dp608
g18
I216
sbasg21
I216
sbasg7
g577
sg94
Nsba(i__main__
Chain
p609
(dp610
g3
(lp611
(i__main__
Mention
p612
(dp613
g7
S't10'
p614
sg9
Nsg10
S'i19'
p615
sg12
Nsg13
Nsg14
(lp616
(i__main__
Token
p617
(dp618
g18
I65
sbasg21
I65
sba(i__main__
Mention
p619
(dp620
g7
S't10'
p621
sg9
S'Coreference-Identity'
p622
sg10
S'i60'
p623
sg12
S'i19'
p624
sg13
Nsg14
(lp625
(i__main__
Token
p626
(dp627
g18
I214
sbasg21
I214
sbasg7
g614
sg94
Nsba(i__main__
Chain
p628
(dp629
g3
(lp630
(i__main__
Mention
p631
(dp632
g7
S't11'
p633
sg9
Nsg10
S'i20'
p634
sg12
Nsg13
Nsg14
(lp635
(i__main__
Token
p636
(dp637
g18
I67
sba(i__main__
Token
p638
(dp639
g18
I68
sbasg21
I68
sba(i__main__
Mention
p640
(dp641
g7
S't11'
p642
sg9
S'Coreference-NounComplement'
p643
sg10
S'i21'
p644
sg12
S'i20'
p645
sg13
Nsg14
(lp646
(i__main__
Token
p647
(dp648
g18
I69
sba(i__main__
Token
p649
(dp650
g18
I70
sbasg21
I70
sba(i__main__
Mention
p651
(dp652
g7
S't11'
p653
sg9
S'Coreference-Identity'
p654
sg10
S'i69'
p655
sg12
S'i21'
p656
sg13
Nsg14
(lp657
(i__main__
Token
p658
(dp659
g18
I238
sba(i__main__
Token
p660
(dp661
g18
I239
sbasg21
I239
sbasg7
g633
sg94
Nsba(i__main__
Chain
p662
(dp663
g3
(lp664
(i__main__
Mention
p665
(dp666
g7
S't12'
p667
sg9
Nsg10
S'i29'
p668
sg12
Nsg13
Nsg14
(lp669
(i__main__
Token
p670
(dp671
g18
I105
sbasg21
I105
sbasg7
g667
sg94
Nsba(i__main__
Chain
p672
(dp673
g3
(lp674
(i__main__
Mention
p675
(dp676
g7
S't13'
p677
sg9
Nsg10
S'i35'
p678
sg12
Nsg13
Nsg14
(lp679
(i__main__
Token
p680
(dp681
g18
I125
sba(i__main__
Token
p682
(dp683
g18
I126
sba(i__main__
Token
p684
(dp685
g18
I127
sba(i__main__
Token
p686
(dp687
g18
I128
sba(i__main__
Token
p688
(dp689
g18
I129
sba(i__main__
Token
p690
(dp691
g18
I130
sba(i__main__
Token
p692
(dp693
g18
I131
sba(i__main__
Token
p694
(dp695
g18
I132
sbasg21
I130
sba(i__main__
Mention
p696
(dp697
g7
S't13'
p698
sg9
S'Anaphora-C'
p699
sg10
S'i37'
p700
sg12
S'i35'
p701
sg13
Nsg14
(lp702
(i__main__
Token
p703
(dp704
g18
I134
sbasg21
I134
sbasg7
g677
sg94
Nsba(i__main__
Chain
p705
(dp706
g3
(lp707
(i__main__
Mention
p708
(dp709
g7
S't14'
p710
sg9
Nsg10
S'i39'
p711
sg12
Nsg13
Nsg14
(lp712
(i__main__
Token
p713
(dp714
g18
I139
sba(i__main__
Token
p715
(dp716
g18
I140
sba(i__main__
Token
p717
(dp718
g18
I141
sba(i__main__
Token
p719
(dp720
g18
I142
sba(i__main__
Token
p721
(dp722
g18
I143
sba(i__main__
Token
p723
(dp724
g18
I144
sba(i__main__
Token
p725
(dp726
g18
I145
sba(i__main__
Token
p727
(dp728
g18
I146
sba(i__main__
Token
p729
(dp730
g18
I147
sba(i__main__
Token
p731
(dp732
g18
I148
sba(i__main__
Token
p733
(dp734
g18
I149
sba(i__main__
Token
p735
(dp736
g18
I150
sba(i__main__
Token
p737
(dp738
g18
I151
sba(i__main__
Token
p739
(dp740
g18
I152
sba(i__main__
Token
p741
(dp742
g18
I153
sba(i__main__
Token
p743
(dp744
g18
I154
sbasg21
I152
sba(i__main__
Mention
p745
(dp746
g7
S't14'
p747
sg9
S'Anaphora-C'
p748
sg10
S'i40'
p749
sg12
S'i39'
p750
sg13
Nsg14
(lp751
(i__main__
Token
p752
(dp753
g18
I156
sbasg21
I156
sbasg7
g710
sg94
Nsba(i__main__
Chain
p754
(dp755
g3
(lp756
(i__main__
Mention
p757
(dp758
g7
S't15'
p759
sg9
Nsg10
S'i43'
p760
sg12
Nsg13
Nsg14
(lp761
(i__main__
Token
p762
(dp763
g18
I159
sba(i__main__
Token
p764
(dp765
g18
I160
sba(i__main__
Token
p766
(dp767
g18
I161
sba(i__main__
Token
p768
(dp769
g18
I162
sba(i__main__
Token
p770
(dp771
g18
I163
sba(i__main__
Token
p772
(dp773
g18
I164
sba(i__main__
Token
p774
(dp775
g18
I165
sba(i__main__
Token
p776
(dp777
g18
I166
sba(i__main__
Token
p778
(dp779
g18
I167
sba(i__main__
Token
p780
(dp781
g18
I168
sba(i__main__
Token
p782
(dp783
g18
I169
sba(i__main__
Token
p784
(dp785
g18
I170
sba(i__main__
Token
p786
(dp787
g18
I171
sbasg21
I170
sba(i__main__
Mention
p788
(dp789
g7
S't15'
p790
sg9
S'Anaphora-C'
p791
sg10
S'i45'
p792
sg12
S'i43'
p793
sg13
Nsg14
(lp794
(i__main__
Token
p795
(dp796
g18
I173
sbasg21
I173
sbasg7
g759
sg94
Nsba(i__main__
Chain
p797
(dp798
g3
(lp799
(i__main__
Mention
p800
(dp801
g7
S't16'
p802
sg9
S'anaphora-E'
p803
sg10
S'i51'
p804
sg12
S'i52'
p805
sg13
Nsg14
(lp806
(i__main__
Token
p807
(dp808
g18
I190
sbasg21
I190
sba(i__main__
Mention
p809
(dp810
g7
S't16'
p811
sg9
S'Anaphora-RT'
p812
sg10
S'i54'
p813
sg12
S'i51'
p814
sg13
Nsg14
(lp815
(i__main__
Token
p816
(dp817
g18
I191
sba(i__main__
Token
p818
(dp819
g18
I192
sba(i__main__
Token
p820
(dp821
g18
I193
sba(i__main__
Token
p822
(dp823
g18
I194
sba(i__main__
Token
p824
(dp825
g18
I195
sba(i__main__
Token
p826
(dp827
g18
I196
sba(i__main__
Token
p828
(dp829
g18
I197
sba(i__main__
Token
p830
(dp831
g18
I198
sba(i__main__
Token
p832
(dp833
g18
I199
sba(i__main__
Token
p834
(dp835
g18
I200
sba(i__main__
Token
p836
(dp837
g18
I201
sbasg21
I199
sba(i__main__
Mention
p838
(dp839
g7
S't16'
p840
sg9
S'Anaphora-T'
p841
sg10
S'i56'
p842
sg12
S'i54'
p843
sg13
Nsg14
(lp844
(i__main__
Token
p845
(dp846
g18
I202
sbasg21
I202
sbasg7
g802
sg94
Nsba(i__main__
Chain
p847
(dp848
g3
(lp849
(i__main__
Mention
p850
(dp851
g7
S't17'
p852
sg9
Nsg10
S'i66'
p853
sg12
Nsg13
Nsg14
(lp854
(i__main__
Token
p855
(dp856
g18
I230
sbasg21
I230
sba(i__main__
Mention
p857
(dp858
g7
S't17'
p859
sg9
S'Coreference-NounComplement'
p860
sg10
S'i67'
p861
sg12
S'i66'
p862
sg13
Nsg14
(lp863
(i__main__
Token
p864
(dp865
g18
I231
sba(i__main__
Token
p866
(dp867
g18
I232
sbasg21
I232
sba(i__main__
Mention
p868
(dp869
g7
S't17'
p870
sg9
S'Anaphora-C'
p871
sg10
S'i68'
p872
sg12
S'i67'
p873
sg13
Nsg14
(lp874
(i__main__
Token
p875
(dp876
g18
I237
sbasg21
I237
sba(i__main__
Mention
p877
(dp878
g7
S't17'
p879
sg9
S'Coreference-Noun-Noun'
p880
sg10
S'i94'
p881
sg12
S'i68'
p882
sg13
Nsg14
(lp883
(i__main__
Token
p884
(dp885
g18
I351
sba(i__main__
Token
p886
(dp887
g18
I352
sbasg21
I352
sba(i__main__
Mention
p888
(dp889
g7
S't17'
p890
sg9
S'Coreference-NounComplement'
p891
sg10
S'i95'
p892
sg12
S'i94'
p893
sg13
Nsg14
(lp894
(i__main__
Token
p895
(dp896
g18
I353
sba(i__main__
Token
p897
(dp898
g18
I354
sbasg21
I354
sbasg7
g852
sg94
Nsba(i__main__
Chain
p899
(dp900
g3
(lp901
(i__main__
Mention
p902
(dp903
g7
S't18'
p904
sg9
Nsg10
S'i74'
p905
sg12
Nsg13
Nsg14
(lp906
(i__main__
Token
p907
(dp908
g18
I265
sba(i__main__
Token
p909
(dp910
g18
I266
sba(i__main__
Token
p911
(dp912
g18
I267
sba(i__main__
Token
p913
(dp914
g18
I268
sba(i__main__
Token
p915
(dp916
g18
I269
sba(i__main__
Token
p917
(dp918
g18
I270
sba(i__main__
Token
p919
(dp920
g18
I271
sba(i__main__
Token
p921
(dp922
g18
I272
sba(i__main__
Token
p923
(dp924
g18
I273
sba(i__main__
Token
p925
(dp926
g18
I274
sba(i__main__
Token
p927
(dp928
g18
I275
sba(i__main__
Token
p929
(dp930
g18
I276
sba(i__main__
Token
p931
(dp932
g18
I277
sbasg21
I277
sba(i__main__
Mention
p933
(dp934
g7
S't18'
p935
sg9
S'Anaphora-C'
p936
sg10
S'i76'
p937
sg12
S'i74'
p938
sg13
Nsg14
(lp939
(i__main__
Token
p940
(dp941
g18
I279
sbasg21
I279
sbasg7
g904
sg94
Nsba(i__main__
Chain
p942
(dp943
g3
(lp944
(i__main__
Mention
p945
(dp946
g7
S't19'
p947
sg9
Nsg10
S'i81'
p948
sg12
Nsg13
Nsg14
(lp949
(i__main__
Token
p950
(dp951
g18
I294
sba(i__main__
Token
p952
(dp953
g18
I295
sbasg21
I295
sba(i__main__
Mention
p954
(dp955
g7
S't19'
p956
sg9
S'Coreference-NounComplement'
p957
sg10
S'i82'
p958
sg12
S'i81'
p959
sg13
Nsg14
(lp960
(i__main__
Token
p961
(dp962
g18
I296
sba(i__main__
Token
p963
(dp964
g18
I297
sbasg21
I297
sba(i__main__
Mention
p965
(dp966
g7
S't19'
p967
sg9
S'Coreference-Identity'
p968
sg10
S'i84'
p969
sg12
S'i82'
p970
sg13
Nsg14
(lp971
(i__main__
Token
p972
(dp973
g18
I317
sbasg21
I317
sba(i__main__
Mention
p974
(dp975
g7
S't19'
p976
sg9
S'Anaphora-C'
p977
sg10
S'i85'
p978
sg12
S'i84'
p979
sg13
Nsg14
(lp980
(i__main__
Token
p981
(dp982
g18
I321
sbasg21
I321
sba(i__main__
Mention
p983
(dp984
g7
S't19'
p985
sg9
S'Anaphora-C'
p986
sg10
S'i88'
p987
sg12
S'i85'
p988
sg13
Nsg14
(lp989
(i__main__
Token
p990
(dp991
g18
I330
sbasg21
I330
sbasg7
g947
sg94
Nsba(i__main__
Chain
p992
(dp993
g3
(lp994
(i__main__
Mention
p995
(dp996
g7
S't20'
p997
sg9
S'anaphora-?'
p998
sg10
S'i86'
p999
sg12
S'i86'
p1000
sg13
Nsg14
(lp1001
(i__main__
Token
p1002
(dp1003
g18
I322
sbasg21
I322
sba(i__main__
Mention
p1004
(dp1005
g7
S't20'
p1006
sg9
S'Anaphora-RC'
p1007
sg10
S'i89'
p1008
sg12
S'i86'
p1009
sg13
Nsg14
(lp1010
(i__main__
Token
p1011
(dp1012
g18
I330
sba(i__main__
Token
p1013
(dp1014
g18
I331
sba(i__main__
Token
p1015
(dp1016
g18
I332
sba(i__main__
Token
p1017
(dp1018
g18
I333
sbasg21
I333
sbasg7
g997
sg94
Nsba(i__main__
Chain
p1019
(dp1020
g3
(lp1021
(i__main__
Mention
p1022
(dp1023
g7
S't21'
p1024
sg9
Nsg10
S'i96'
p1025
sg12
Nsg13
Nsg14
(lp1026
(i__main__
Token
p1027
(dp1028
g18
I356
sbasg21
Nsba(i__main__
Mention
p1029
(dp1030
g7
S't21'
p1031
sg9
S'Coreference-NounComplement'
p1032
sg10
S'i98'
p1033
sg12
S'i96'
p1034
sg13
Nsg14
(lp1035
(i__main__
Token
p1036
(dp1037
g18
I357
sba(i__main__
Token
p1038
(dp1039
g18
I358
sbasg21
I358
sbasg7
g1024
sg94
Nsba(i__main__
Chain
p1040
(dp1041
g3
(lp1042
(i__main__
Mention
p1043
(dp1044
g7
S't22'
p1045
sg9
Nsg10
S'i97'
p1046
sg12
Nsg13
Nsg14
(lp1047
(i__main__
Token
p1048
(dp1049
g18
I356
sbasg21
Nsba(i__main__
Mention
p1050
(dp1051
g7
S't22'
p1052
sg9
S'Coreference-NounComplement'
p1053
sg10
S'i99'
p1054
sg12
S'i97'
p1055
sg13
Nsg14
(lp1056
(i__main__
Token
p1057
(dp1058
g18
I360
sbasg21
I360
sbasg7
g1045
sg94
Nsba.