(lp0
(i__main__
Chain
p1
(dp2
S'mentionList'
p3
(lp4
(i__main__
Mention
p5
(dp6
S'chainId'
p7
S't1'
p8
sS'relType'
p9
NsS'mentionId'
p10
S'i1'
p11
sS'antecedentId'
p12
NsS'crefMod'
p13
NsS'tokenList'
p14
(lp15
(i__main__
Token
p16
(dp17
S'tokenId'
p18
I0
sba(i__main__
Token
p19
(dp20
g18
I1
sbasS'mentionHead'
p21
I1
sba(i__main__
Mention
p22
(dp23
g7
S't1'
p24
sg9
S'Coreference-Identity'
p25
sg10
S'i5'
p26
sg12
S'i1'
p27
sg13
Nsg14
(lp28
(i__main__
Token
p29
(dp30
g18
I40
sba(i__main__
Token
p31
(dp32
g18
I41
sbasg21
I41
sba(i__main__
Mention
p33
(dp34
g7
S't1'
p35
sg9
S'Coreference-Identity'
p36
sg10
S'i6'
p37
sg12
S'i5'
p38
sg13
Nsg14
(lp39
(i__main__
Token
p40
(dp41
g18
I60
sba(i__main__
Token
p42
(dp43
g18
I61
sbasg21
I61
sba(i__main__
Mention
p44
(dp45
g7
S't1'
p46
sg9
S'Anaphora-C'
p47
sg10
S'i10'
p48
sg12
S'i6'
p49
sg13
Nsg14
(lp50
(i__main__
Token
p51
(dp52
g18
I84
sbasg21
I84
sba(i__main__
Mention
p53
(dp54
g7
S't1'
p55
sg9
S'Coreference-Identity'
p56
sg10
S'i40'
p57
sg12
S'i10'
p58
sg13
Nsg14
(lp59
(i__main__
Token
p60
(dp61
g18
I270
sba(i__main__
Token
p62
(dp63
g18
I271
sbasg21
I271
sbasg7
g8
sS'chainHead'
p64
Nsba(i__main__
Chain
p65
(dp66
g3
(lp67
(i__main__
Mention
p68
(dp69
g7
S't2'
p70
sg9
Nsg10
S'i2'
p71
sg12
Nsg13
Nsg14
(lp72
(i__main__
Token
p73
(dp74
g18
I16
sbasg21
I16
sba(i__main__
Mention
p75
(dp76
g7
S't2'
p77
sg9
S'Coreference-Identity'
p78
sg10
S'i44'
p79
sg12
S'i2'
p80
sg13
Nsg14
(lp81
(i__main__
Token
p82
(dp83
g18
I298
sbasg21
I298
sbasg7
g70
sg64
Nsba(i__main__
Chain
p84
(dp85
g3
(lp86
(i__main__
Mention
p87
(dp88
g7
S't3'
p89
sg9
Nsg10
S'i3'
p90
sg12
Nsg13
Nsg14
(lp91
(i__main__
Token
p92
(dp93
g18
I26
sba(i__main__
Token
p94
(dp95
g18
I27
sba(i__main__
Token
p96
(dp97
g18
I28
sba(i__main__
Token
p98
(dp99
g18
I29
sbasg21
I29
sba(i__main__
Mention
p100
(dp101
g7
S't3'
p102
sg9
S'Anaphora-C'
p103
sg10
S'i4'
p104
sg12
S'i3'
p105
sg13
Nsg14
(lp106
(i__main__
Token
p107
(dp108
g18
I39
sbasg21
I39
sba(i__main__
Mention
p109
(dp110
g7
S't3'
p111
sg9
S'Coreference-Identity'
p112
sg10
S'i13'
p113
sg12
S'i51'
p114
sg13
Nsg14
(lp115
(i__main__
Token
p116
(dp117
g18
I105
sba(i__main__
Token
p118
(dp119
g18
I106
sbasg21
I106
sba(i__main__
Mention
p120
(dp121
g7
S't3'
p122
sg9
S'Anaphora-C'
p123
sg10
S'i18'
p124
sg12
S'i13'
p125
sg13
Nsg14
(lp126
(i__main__
Token
p127
(dp128
g18
I148
sbasg21
I148
sba(i__main__
Mention
p129
(dp130
g7
S't3'
p131
sg9
S'Coreference-Identity'
p132
sg10
S'i28'
p133
sg12
S'i18'
p134
sg13
Nsg14
(lp135
(i__main__
Token
p136
(dp137
g18
I191
sba(i__main__
Token
p138
(dp139
g18
I192
sbasg21
I192
sba(i__main__
Mention
p140
(dp141
g7
S't3'
p142
sg9
S'Anaphora-C'
p143
sg10
S'i32'
p144
sg12
S'i28'
p145
sg13
Nsg14
(lp146
(i__main__
Token
p147
(dp148
g18
I215
sbasg21
I215
sba(i__main__
Mention
p149
(dp150
g7
S't3'
p151
sg9
S'Coreference-Identity'
p152
sg10
S'i37'
p153
sg12
S'i32'
p154
sg13
Nsg14
(lp155
(i__main__
Token
p156
(dp157
g18
I249
sba(i__main__
Token
p158
(dp159
g18
I250
sbasg21
I250
sba(i__main__
Mention
p160
(dp161
g7
S't3'
p162
sg9
S'Coreference-Identity'
p163
sg10
S'i39'
p164
sg12
S'i37'
p165
sg13
Nsg14
(lp166
(i__main__
Token
p167
(dp168
g18
I257
sba(i__main__
Token
p169
(dp170
g18
I258
sbasg21
I258
sba(i__main__
Mention
p171
(dp172
g7
S't3'
p173
sg9
S'Anaphora-C'
p174
sg10
S'i42'
p175
sg12
S'i39'
p176
sg13
Nsg14
(lp177
(i__main__
Token
p178
(dp179
g18
I288
sbasg21
I288
sba(i__main__
Mention
p180
(dp181
g7
S't3'
p182
sg9
S'Anaphora-C'
p183
sg10
S'i43'
p184
sg12
S'i42'
p185
sg13
Nsg14
(lp186
(i__main__
Token
p187
(dp188
g18
I292
sbasg21
I292
sbasg7
g89
sg64
Nsba(i__main__
Chain
p189
(dp190
g3
(lp191
(i__main__
Mention
p192
(dp193
g7
S't4'
p194
sg9
S'anaphora-?'
p195
sg10
S'i7'
p196
sg12
S'i7'
p197
sg13
Nsg14
(lp198
(i__main__
Token
p199
(dp200
g18
I76
sbasg21
I76
sbasg7
g194
sg64
Nsba(i__main__
Chain
p201
(dp202
g3
(lp203
(i__main__
Mention
p204
(dp205
g7
S't5'
p206
sg9
S'anaphora-?'
p207
sg10
S'i8'
p208
sg12
S'i8'
p209
sg13
Nsg14
(lp210
(i__main__
Token
p211
(dp212
g18
I77
sbasg21
I77
sbasg7
g206
sg64
Nsba(i__main__
Chain
p213
(dp214
g3
(lp215
(i__main__
Mention
p216
(dp217
g7
S't6'
p218
sg9
Nsg10
S'i9'
p219
sg12
Nsg13
Nsg14
(lp220
(i__main__
Token
p221
(dp222
g18
I79
sbasg21
I79
sba(i__main__
Mention
p223
(dp224
g7
S't6'
p225
sg9
S'Anaphora-C'
p226
sg10
S'i11'
p227
sg12
S'i9'
p228
sg13
Nsg14
(lp229
(i__main__
Token
p230
(dp231
g18
I85
sbasg21
I85
sbasg7
g218
sg64
Nsba(i__main__
Chain
p232
(dp233
g3
(lp234
(i__main__
Mention
p235
(dp236
g7
S't7'
p237
sg9
S'anaphora-?'
p238
sg10
S'i12'
p239
sg12
S'i12'
p240
sg13
Nsg14
(lp241
(i__main__
Token
p242
(dp243
g18
I95
sbasg21
I95
sbasg7
g237
sg64
Nsba(i__main__
Chain
p244
(dp245
g3
(lp246
(i__main__
Mention
p247
(dp248
g7
S't8'
p249
sg9
Nsg10
S'i15'
p250
sg12
Nsg13
Nsg14
(lp251
(i__main__
Token
p252
(dp253
g18
I112
sba(i__main__
Token
p254
(dp255
g18
I113
sbasg21
I113
sba(i__main__
Mention
p256
(dp257
g7
S't8'
p258
sg9
S'Anaphora-C'
p259
sg10
S'i16'
p260
sg12
S'i15'
p261
sg13
Nsg14
(lp262
(i__main__
Token
p263
(dp264
g18
I127
sbasg21
I127
sbasg7
g249
sg64
Nsba(i__main__
Chain
p265
(dp266
g3
(lp267
(i__main__
Mention
p268
(dp269
g7
S't9'
p270
sg9
Nsg10
S'i17'
p271
sg12
Nsg13
Nsg14
(lp272
(i__main__
Token
p273
(dp274
g18
I139
sbasg21
I139
sba(i__main__
Mention
p275
(dp276
g7
S't9'
p277
sg9
S'Anaphora-C'
p278
sg10
S'i19'
p279
sg12
S'i17'
p280
sg13
Nsg14
(lp281
(i__main__
Token
p282
(dp283
g18
I151
sbasg21
I151
sbasg7
g270
sg64
Nsba(i__main__
Chain
p284
(dp285
g3
(lp286
(i__main__
Mention
p287
(dp288
g7
S't10'
p289
sg9
Nsg10
S'i20'
p290
sg12
Nsg13
Nsg14
(lp291
(i__main__
Token
p292
(dp293
g18
I154
sbasg21
I154
sba(i__main__
Mention
p294
(dp295
g7
S't10'
p296
sg9
S'Anaphora-C'
p297
sg10
S'i21'
p298
sg12
S'i20'
p299
sg13
Nsg14
(lp300
(i__main__
Token
p301
(dp302
g18
I161
sbasg21
I161
sba(i__main__
Mention
p303
(dp304
g7
S't10'
p305
sg9
S'Anaphora-C'
p306
sg10
S'i23'
p307
sg12
S'i21'
p308
sg13
Nsg14
(lp309
(i__main__
Token
p310
(dp311
g18
I173
sbasg21
I173
sbasg7
g289
sg64
Nsba(i__main__
Chain
p312
(dp313
g3
(lp314
(i__main__
Mention
p315
(dp316
g7
S't11'
p317
sg9
S'anaphora-?'
p318
sg10
S'i22'
p319
sg12
S'i22'
p320
sg13
Nsg14
(lp321
(i__main__
Token
p322
(dp323
g18
I172
sbasg21
I172
sbasg7
g317
sg64
Nsba(i__main__
Chain
p324
(dp325
g3
(lp326
(i__main__
Mention
p327
(dp328
g7
S't12'
p329
sg9
S'anaphora-?'
p330
sg10
S'i24'
p331
sg12
S'i24'
p332
sg13
Nsg14
(lp333
(i__main__
Token
p334
(dp335
g18
I174
sbasg21
I174
sbasg7
g329
sg64
Nsba(i__main__
Chain
p336
(dp337
g3
(lp338
(i__main__
Mention
p339
(dp340
g7
S't13'
p341
sg9
S'anaphora-?'
p342
sg10
S'i25'
p343
sg12
S'i25'
p344
sg13
Nsg14
(lp345
(i__main__
Token
p346
(dp347
g18
I180
sbasg21
I180
sbasg7
g341
sg64
Nsba(i__main__
Chain
p348
(dp349
g3
(lp350
(i__main__
Mention
p351
(dp352
g7
S't14'
p353
sg9
Nsg10
S'i26'
p354
sg12
Nsg13
Nsg14
(lp355
(i__main__
Token
p356
(dp357
g18
I182
sba(i__main__
Token
p358
(dp359
g18
I183
sbasg21
I183
sba(i__main__
Mention
p360
(dp361
g7
S't14'
p362
sg9
S'Coreference-NounComplement'
p363
sg10
S'i27'
p364
sg12
S'i26'
p365
sg13
Nsg14
(lp366
(i__main__
Token
p367
(dp368
g18
I184
sba(i__main__
Token
p369
(dp370
g18
I185
sba(i__main__
Token
p371
(dp372
g18
I186
sbasg21
I186
sbasg7
g353
sg64
Nsba(i__main__
Chain
p373
(dp374
g3
(lp375
(i__main__
Mention
p376
(dp377
g7
S't15'
p378
sg9
Nsg10
S'i29'
p379
sg12
Nsg13
Nsg14
(lp380
(i__main__
Token
p381
(dp382
g18
I197
sba(i__main__
Token
p383
(dp384
g18
I198
sba(i__main__
Token
p385
(dp386
g18
I199
sba(i__main__
Token
p387
(dp388
g18
I200
sbasg21
I200
sba(i__main__
Mention
p389
(dp390
g7
S't15'
p391
sg9
S'Anaphora-C'
p392
sg10
S'i30'
p393
sg12
S'i29'
p394
sg13
Nsg14
(lp395
(i__main__
Token
p396
(dp397
g18
I204
sbasg21
I204
sba(i__main__
Mention
p398
(dp399
g7
S't15'
p400
sg9
S'Anaphora-C'
p401
sg10
S'i31'
p402
sg12
S'i30'
p403
sg13
Nsg14
(lp404
(i__main__
Token
p405
(dp406
g18
I214
sbasg21
I214
sbasg7
g378
sg64
Nsba(i__main__
Chain
p407
(dp408
g3
(lp409
(i__main__
Mention
p410
(dp411
g7
S't16'
p412
sg9
S'anaphora-?'
p413
sg10
S'i33'
p414
sg12
S'i33'
p415
sg13
Nsg14
(lp416
(i__main__
Token
p417
(dp418
g18
I220
sbasg21
I220
sbasg7
g412
sg64
Nsba(i__main__
Chain
p419
(dp420
g3
(lp421
(i__main__
Mention
p422
(dp423
g7
S't17'
p424
sg9
S'anaphora-?'
p425
sg10
S'i34'
p426
sg12
S'i34'
p427
sg13
Nsg14
(lp428
(i__main__
Token
p429
(dp430
g18
I221
sbasg21
I221
sbasg7
g424
sg64
Nsba(i__main__
Chain
p431
(dp432
g3
(lp433
(i__main__
Mention
p434
(dp435
g7
S't18'
p436
sg9
Nsg10
S'i35'
p437
sg12
Nsg13
Nsg14
(lp438
(i__main__
Token
p439
(dp440
g18
I237
sba(i__main__
Token
p441
(dp442
g18
I238
sbasg21
I238
sba(i__main__
Mention
p443
(dp444
g7
S't18'
p445
sg9
S'Anaphora-C'
p446
sg10
S'i38'
p447
sg12
S'i35'
p448
sg13
Nsg14
(lp449
(i__main__
Token
p450
(dp451
g18
I256
sbasg21
I256
sbasg7
g436
sg64
Nsba(i__main__
Chain
p452
(dp453
g3
(lp454
(i__main__
Mention
p455
(dp456
g7
S't19'
p457
sg9
Nsg10
S'i36'
p458
sg12
Nsg13
Nsg14
(lp459
(i__main__
Token
p460
(dp461
g18
I244
sbasg21
I244
sba(i__main__
Mention
p462
(dp463
g7
S't19'
p464
sg9
S'Coreference-Identity'
p465
sg10
S'i41'
p466
sg12
S'i36'
p467
sg13
Nsg14
(lp468
(i__main__
Token
p469
(dp470
g18
I278
sbasg21
I278
sbasg7
g457
sg64
Nsba.