(lp0
(i__main__
Chain
p1
(dp2
S'mentionList'
p3
(lp4
(i__main__
Mention
p5
(dp6
S'chainId'
p7
S't1'
p8
sS'relType'
p9
NsS'mentionId'
p10
S'i1'
p11
sS'antecedentId'
p12
NsS'crefMod'
p13
NsS'tokenList'
p14
(lp15
(i__main__
Token
p16
(dp17
S'tokenId'
p18
I0
sbasS'mentionHead'
p19
I0
sba(i__main__
Mention
p20
(dp21
g7
S't1'
p22
sg9
S'Coreference-InferedRelation'
p23
sg10
S'i7'
p24
sg12
S'i1'
p25
sg13
Nsg14
(lp26
(i__main__
Token
p27
(dp28
g18
I48
sbasg19
I48
sbasg7
g8
sS'chainHead'
p29
Nsba(i__main__
Chain
p30
(dp31
g3
(lp32
(i__main__
Mention
p33
(dp34
g7
S't2'
p35
sg9
Nsg10
S'i2'
p36
sg12
Nsg13
Nsg14
(lp37
(i__main__
Token
p38
(dp39
g18
I6
sba(i__main__
Token
p40
(dp41
g18
I7
sbasg19
I7
sba(i__main__
Mention
p42
(dp43
g7
S't2'
p44
sg9
S'Coreference-Identity'
p45
sg10
S'i5'
p46
sg12
S'i2'
p47
sg13
Nsg14
(lp48
(i__main__
Token
p49
(dp50
g18
I32
sbasg19
I32
sba(i__main__
Mention
p51
(dp52
g7
S't2'
p53
sg9
S'Coreference-Identity'
p54
sg10
S'i11'
p55
sg12
S'i5'
p56
sg13
Nsg14
(lp57
(i__main__
Token
p58
(dp59
g18
I60
sbasg19
I60
sba(i__main__
Mention
p60
(dp61
g7
S't2'
p62
sg9
S'Anaphora-C'
p63
sg10
S'i13'
p64
sg12
S'i11'
p65
sg13
Nsg14
(lp66
(i__main__
Token
p67
(dp68
g18
I69
sbasg19
I69
sbasg7
g35
sg29
Nsba(i__main__
Chain
p69
(dp70
g3
(lp71
(i__main__
Mention
p72
(dp73
g7
S't3'
p74
sg9
Nsg10
S'i3'
p75
sg12
Nsg13
Nsg14
(lp76
(i__main__
Token
p77
(dp78
g18
I15
sbasg19
I15
sba(i__main__
Mention
p79
(dp80
g7
S't3'
p81
sg9
S'Coreference-Identity'
p82
sg10
S'i8'
p83
sg12
S'i3'
p84
sg13
Nsg14
(lp85
(i__main__
Token
p86
(dp87
g18
I50
sbasg19
I50
sba(i__main__
Mention
p88
(dp89
g7
S't3'
p90
sg9
S'Coreference-Identity'
p91
sg10
S'i15'
p92
sg12
S'i8'
p93
sg13
Nsg14
(lp94
(i__main__
Token
p95
(dp96
g18
I76
sbasg19
I76
sba(i__main__
Mention
p97
(dp98
g7
S't3'
p99
sg9
S'Coreference-Identity'
p100
sg10
S'i20'
p101
sg12
S'i15'
p102
sg13
Nsg14
(lp103
(i__main__
Token
p104
(dp105
g18
I118
sbasg19
I118
sba(i__main__
Mention
p106
(dp107
g7
S't3'
p108
sg9
Nsg10
S'i25'
p109
sg12
Nsg13
Nsg14
(lp110
(i__main__
Token
p111
(dp112
g18
I150
sba(i__main__
Token
p113
(dp114
g18
I151
sbasg19
Nsbasg7
g74
sg29
Nsba(i__main__
Chain
p115
(dp116
g3
(lp117
(i__main__
Mention
p118
(dp119
g7
S't4'
p120
sg9
Nsg10
S'i4'
p121
sg12
Nsg13
Nsg14
(lp122
(i__main__
Token
p123
(dp124
g18
I17
sbasg19
I17
sba(i__main__
Mention
p125
(dp126
g7
S't4'
p127
sg9
Nsg10
S'i26'
p128
sg12
Nsg13
Nsg14
(lp129
(i__main__
Token
p130
(dp131
g18
I150
sba(i__main__
Token
p132
(dp133
g18
I151
sbasg19
Nsbasg7
g120
sg29
Nsba(i__main__
Chain
p134
(dp135
g3
(lp136
(i__main__
Mention
p137
(dp138
g7
S't5'
p139
sg9
Nsg10
S'i6'
p140
sg12
Nsg13
Nsg14
(lp141
(i__main__
Token
p142
(dp143
g18
I34
sbasg19
I34
sba(i__main__
Mention
p144
(dp145
g7
S't5'
p146
sg9
S'Coreference-Identity'
p147
sg10
S'i14'
p148
sg12
S'i6'
p149
sg13
Nsg14
(lp150
(i__main__
Token
p151
(dp152
g18
I70
sbasg19
I70
sbasg7
g139
sg29
Nsba(i__main__
Chain
p153
(dp154
g3
(lp155
(i__main__
Mention
p156
(dp157
g7
S't6'
p158
sg9
Nsg10
S'i9'
p159
sg12
Nsg13
Nsg14
(lp160
(i__main__
Token
p161
(dp162
g18
I53
sbasg19
I53
sba(i__main__
Mention
p163
(dp164
g7
S't6'
p165
sg9
S'Coreference-NounComplement'
p166
sg10
S'i10'
p167
sg12
S'i9'
p168
sg13
Nsg14
(lp169
(i__main__
Token
p170
(dp171
g18
I54
sba(i__main__
Token
p172
(dp173
g18
I55
sba(i__main__
Token
p174
(dp175
g18
I56
sbasg19
I56
sba(i__main__
Mention
p176
(dp177
g7
S't6'
p178
sg9
S'Coreference-Identity'
p179
sg10
S'i18'
p180
sg12
S'i10'
p181
sg13
Nsg14
(lp182
(i__main__
Token
p183
(dp184
g18
I106
sbasg19
I106
sbasg7
g158
sg29
Nsba(i__main__
Chain
p185
(dp186
g3
(lp187
(i__main__
Mention
p188
(dp189
g7
S't7'
p190
sg9
Nsg10
S'i12'
p191
sg12
Nsg13
Nsg14
(lp192
(i__main__
Token
p193
(dp194
g18
I60
sba(i__main__
Token
p195
(dp196
g18
I61
sba(i__main__
Token
p197
(dp198
g18
I62
sba(i__main__
Token
p199
(dp200
g18
I63
sba(i__main__
Token
p201
(dp202
g18
I64
sba(i__main__
Token
p203
(dp204
g18
I65
sba(i__main__
Token
p205
(dp206
g18
I66
sba(i__main__
Token
p207
(dp208
g18
I67
sba(i__main__
Token
p209
(dp210
g18
I68
sba(i__main__
Token
p211
(dp212
g18
I69
sba(i__main__
Token
p213
(dp214
g18
I70
sba(i__main__
Token
p215
(dp216
g18
I71
sba(i__main__
Token
p217
(dp218
g18
I72
sba(i__main__
Token
p219
(dp220
g18
I73
sba(i__main__
Token
p221
(dp222
g18
I74
sbasg19
I72
sba(i__main__
Mention
p223
(dp224
g7
S't7'
p225
sg9
S'Anaphora-C'
p226
sg10
S'i16'
p227
sg12
S'i17'
p228
sg13
Nsg14
(lp229
(i__main__
Token
p230
(dp231
g18
I90
sbasg19
I90
sba(i__main__
Mention
p232
(dp233
g7
S't7'
p234
sg9
S'Coreference-Noun-Noun'
p235
sg10
S'i19'
p236
sg12
S'i16'
p237
sg13
Nsg14
(lp238
(i__main__
Token
p239
(dp240
g18
I108
sbasg19
I108
sbasg7
g190
sg29
Nsba(i__main__
Chain
p241
(dp242
g3
(lp243
(i__main__
Mention
p244
(dp245
g7
S't8'
p246
sg9
Nsg10
S'i21'
p247
sg12
Nsg13
Nsg14
(lp248
(i__main__
Token
p249
(dp250
g18
I126
sba(i__main__
Token
p251
(dp252
g18
I127
sbasg19
I127
sba(i__main__
Mention
p253
(dp254
g7
S't8'
p255
sg9
S'Coreference-NounComplement'
p256
sg10
S'i22'
p257
sg12
S'i21'
p258
sg13
Nsg14
(lp259
(i__main__
Token
p260
(dp261
g18
I128
sba(i__main__
Token
p262
(dp263
g18
I129
sba(i__main__
Token
p264
(dp265
g18
I130
sbasg19
I130
sbasg7
g246
sg29
Nsba(i__main__
Chain
p266
(dp267
g3
(lp268
(i__main__
Mention
p269
(dp270
g7
S't9'
p271
sg9
Nsg10
S'i23'
p272
sg12
Nsg13
Nsg14
(lp273
(i__main__
Token
p274
(dp275
g18
I142
sbasg19
I142
sba(i__main__
Mention
p276
(dp277
g7
S't9'
p278
sg9
S'Coreference-NounComplement'
p279
sg10
S'i24'
p280
sg12
S'i23'
p281
sg13
Nsg14
(lp282
(i__main__
Token
p283
(dp284
g18
I143
sba(i__main__
Token
p285
(dp286
g18
I144
sba(i__main__
Token
p287
(dp288
g18
I145
sbasg19
I145
sbasg7
g271
sg29
Nsba.