(lp0
(i__main__
Chain
p1
(dp2
S'mentionList'
p3
(lp4
(i__main__
Mention
p5
(dp6
S'chainId'
p7
S't1'
p8
sS'relType'
p9
NsS'mentionId'
p10
S'i1'
p11
sS'antecedentId'
p12
NsS'crefMod'
p13
NsS'tokenList'
p14
(lp15
(i__main__
Token
p16
(dp17
S'tokenId'
p18
I0
sba(i__main__
Token
p19
(dp20
g18
I1
sbasS'mentionHead'
p21
I1
sba(i__main__
Mention
p22
(dp23
g7
S't1'
p24
sg9
S'Coreference-Identity'
p25
sg10
S'i8'
p26
sg12
S'i1'
p27
sg13
Nsg14
(lp28
(i__main__
Token
p29
(dp30
g18
I46
sba(i__main__
Token
p31
(dp32
g18
I47
sbasg21
I47
sba(i__main__
Mention
p33
(dp34
g7
S't1'
p35
sg9
S'Coreference-Identity'
p36
sg10
S'i9'
p37
sg12
S'i8'
p38
sg13
Nsg14
(lp39
(i__main__
Token
p40
(dp41
g18
I52
sbasg21
I52
sba(i__main__
Mention
p42
(dp43
g7
S't1'
p44
sg9
S'Coreference-Identity'
p45
sg10
S'i13'
p46
sg12
S'i9'
p47
sg13
Nsg14
(lp48
(i__main__
Token
p49
(dp50
g18
I69
sbasg21
I69
sba(i__main__
Mention
p51
(dp52
g7
S't1'
p53
sg9
S'Coreference-Identity'
p54
sg10
S'i23'
p55
sg12
S'i13'
p56
sg13
Nsg14
(lp57
(i__main__
Token
p58
(dp59
g18
I118
sba(i__main__
Token
p60
(dp61
g18
I119
sbasg21
I119
sba(i__main__
Mention
p62
(dp63
g7
S't1'
p64
sg9
S'Coreference-Identity'
p65
sg10
S'i24'
p66
sg12
S'i23'
p67
sg13
Nsg14
(lp68
(i__main__
Token
p69
(dp70
g18
I133
sba(i__main__
Token
p71
(dp72
g18
I134
sbasg21
I134
sbasg7
g8
sS'chainHead'
p73
Nsba(i__main__
Chain
p74
(dp75
g3
(lp76
(i__main__
Mention
p77
(dp78
g7
S't2'
p79
sg9
Nsg10
S'i2'
p80
sg12
Nsg13
Nsg14
(lp81
(i__main__
Token
p82
(dp83
g18
I2
sbasg21
I2
sba(i__main__
Mention
p84
(dp85
g7
S't2'
p86
sg9
S'Coreference-Identity'
p87
sg10
S'i17'
p88
sg12
S'i2'
p89
sg13
Nsg14
(lp90
(i__main__
Token
p91
(dp92
g18
I94
sbasg21
I94
sbasg7
g79
sg73
Nsba(i__main__
Chain
p93
(dp94
g3
(lp95
(i__main__
Mention
p96
(dp97
g7
S't3'
p98
sg9
Nsg10
S'i3'
p99
sg12
Nsg13
Nsg14
(lp100
(i__main__
Token
p101
(dp102
g18
I4
sba(i__main__
Token
p103
(dp104
g18
I5
sbasg21
I5
sba(i__main__
Mention
p105
(dp106
g7
S't3'
p107
sg9
S'Coreference-Noun-Noun'
p108
sg10
S'i16'
p109
sg12
S'i3'
p110
sg13
Nsg14
(lp111
(i__main__
Token
p112
(dp113
g18
I82
sba(i__main__
Token
p114
(dp115
g18
I83
sba(i__main__
Token
p116
(dp117
g18
I84
sbasg21
I84
sba(i__main__
Mention
p118
(dp119
g7
S't3'
p120
sg9
S'Coreference-Noun-Noun'
p121
sg10
S'i22'
p122
sg12
S'i16'
p123
sg13
Nsg14
(lp124
(i__main__
Token
p125
(dp126
g18
I110
sba(i__main__
Token
p127
(dp128
g18
I111
sbasg21
I111
sbasg7
g98
sg73
Nsba(i__main__
Chain
p129
(dp130
g3
(lp131
(i__main__
Mention
p132
(dp133
g7
S't4'
p134
sg9
Nsg10
S'i4'
p135
sg12
Nsg13
Nsg14
(lp136
(i__main__
Token
p137
(dp138
g18
I15
sbasg21
I15
sba(i__main__
Mention
p139
(dp140
g7
S't4'
p141
sg9
S'Coreference-Identity'
p142
sg10
S'i10'
p143
sg12
S'i4'
p144
sg13
Nsg14
(lp145
(i__main__
Token
p146
(dp147
g18
I53
sbasg21
I53
sba(i__main__
Mention
p148
(dp149
g7
S't4'
p150
sg9
S'Coreference-Identity'
p151
sg10
S'i14'
p152
sg12
S'i10'
p153
sg13
Nsg14
(lp154
(i__main__
Token
p155
(dp156
g18
I70
sbasg21
I70
sba(i__main__
Mention
p157
(dp158
g7
S't4'
p159
sg9
S'Coreference-Identity'
p160
sg10
S'i25'
p161
sg12
S'i14'
p162
sg13
Nsg14
(lp163
(i__main__
Token
p164
(dp165
g18
I138
sbasg21
I138
sbasg7
g134
sg73
Nsba(i__main__
Chain
p166
(dp167
g3
(lp168
(i__main__
Mention
p169
(dp170
g7
S't5'
p171
sg9
Nsg10
S'i5'
p172
sg12
Nsg13
Nsg14
(lp173
(i__main__
Token
p174
(dp175
g18
I28
sba(i__main__
Token
p176
(dp177
g18
I29
sbasg21
I29
sba(i__main__
Mention
p178
(dp179
g7
S't5'
p180
sg9
S'Coreference-Identity'
p181
sg10
S'i11'
p182
sg12
S'i5'
p183
sg13
Nsg14
(lp184
(i__main__
Token
p185
(dp186
g18
I60
sba(i__main__
Token
p187
(dp188
g18
I61
sbasg21
I61
sbasg7
g171
sg73
Nsba(i__main__
Chain
p189
(dp190
g3
(lp191
(i__main__
Mention
p192
(dp193
g7
S't6'
p194
sg9
Nsg10
S'i6'
p195
sg12
Nsg13
Nsg14
(lp196
(i__main__
Token
p197
(dp198
g18
I33
sbasg21
I33
sba(i__main__
Mention
p199
(dp200
g7
S't6'
p201
sg9
S'Coreference-Noun-Noun'
p202
sg10
S'i7'
p203
sg12
S'i6'
p204
sg13
Nsg14
(lp205
(i__main__
Token
p206
(dp207
g18
I40
sba(i__main__
Token
p208
(dp209
g18
I41
sbasg21
I41
sba(i__main__
Mention
p210
(dp211
g7
S't6'
p212
sg9
S'Coreference-Identity'
p213
sg10
S'i12'
p214
sg12
S'i7'
p215
sg13
Nsg14
(lp216
(i__main__
Token
p217
(dp218
g18
I65
sbasg21
I65
sbasg7
g194
sg73
Nsba(i__main__
Chain
p219
(dp220
g3
(lp221
(i__main__
Mention
p222
(dp223
g7
S't7'
p224
sg9
Nsg10
S'i15'
p225
sg12
Nsg13
Nsg14
(lp226
(i__main__
Token
p227
(dp228
g18
I79
sba(i__main__
Token
p229
(dp230
g18
I80
sbasg21
I80
sba(i__main__
Mention
p231
(dp232
g7
S't7'
p233
sg9
S'Coreference-Noun-Noun'
p234
sg10
S'i21'
p235
sg12
S'i15'
p236
sg13
Nsg14
(lp237
(i__main__
Token
p238
(dp239
g18
I108
sba(i__main__
Token
p240
(dp241
g18
I109
sbasg21
I109
sbasg7
g224
sg73
Nsba(i__main__
Chain
p242
(dp243
g3
(lp244
(i__main__
Mention
p245
(dp246
g7
S't8'
p247
sg9
Nsg10
S'i18'
p248
sg12
Nsg13
Nsg14
(lp249
(i__main__
Token
p250
(dp251
g18
I94
sba(i__main__
Token
p252
(dp253
g18
I95
sba(i__main__
Token
p254
(dp255
g18
I96
sba(i__main__
Token
p256
(dp257
g18
I97
sba(i__main__
Token
p258
(dp259
g18
I98
sba(i__main__
Token
p260
(dp261
g18
I99
sba(i__main__
Token
p262
(dp263
g18
I100
sba(i__main__
Token
p264
(dp265
g18
I101
sba(i__main__
Token
p266
(dp267
g18
I102
sba(i__main__
Token
p268
(dp269
g18
I103
sba(i__main__
Token
p270
(dp271
g18
I104
sbasg21
I102
sba(i__main__
Mention
p272
(dp273
g7
S't8'
p274
sg9
S'Anaphora-C'
p275
sg10
S'i19'
p276
sg12
S'i18'
p277
sg13
Nsg14
(lp278
(i__main__
Token
p279
(dp280
g18
I106
sbasg21
I106
sbasg7
g247
sg73
Nsba.