(lp0
(i__main__
Chain
p1
(dp2
S'mentionList'
p3
(lp4
(i__main__
Mention
p5
(dp6
S'chainId'
p7
S't1'
p8
sS'relType'
p9
NsS'mentionId'
p10
S'i1'
p11
sS'antecedentId'
p12
NsS'crefMod'
p13
NsS'tokenList'
p14
(lp15
(i__main__
Token
p16
(dp17
S'tokenId'
p18
I6
sba(i__main__
Token
p19
(dp20
g18
I7
sbasS'mentionHead'
p21
I7
sba(i__main__
Mention
p22
(dp23
g7
S't1'
p24
sg9
S'Coreference-NounComplement'
p25
sg10
S'i2'
p26
sg12
S'i1'
p27
sg13
Nsg14
(lp28
(i__main__
Token
p29
(dp30
g18
I8
sba(i__main__
Token
p31
(dp32
g18
I9
sbasg21
I9
sba(i__main__
Mention
p33
(dp34
g7
S't1'
p35
sg9
S'Anaphora-C'
p36
sg10
S'i4'
p37
sg12
S'i2'
p38
sg13
Nsg14
(lp39
(i__main__
Token
p40
(dp41
g18
I17
sbasg21
I17
sba(i__main__
Mention
p42
(dp43
g7
S't1'
p44
sg9
S'Anaphora-C'
p45
sg10
S'i5'
p46
sg12
S'i4'
p47
sg13
Nsg14
(lp48
(i__main__
Token
p49
(dp50
g18
I23
sbasg21
I23
sba(i__main__
Mention
p51
(dp52
g7
S't1'
p53
sg9
S'Anaphora-C'
p54
sg10
S'i7'
p55
sg12
S'i5'
p56
sg13
Nsg14
(lp57
(i__main__
Token
p58
(dp59
g18
I42
sbasg21
I42
sba(i__main__
Mention
p60
(dp61
g7
S't1'
p62
sg9
S'Anaphora-C'
p63
sg10
S'i9'
p64
sg12
S'i7'
p65
sg13
Nsg14
(lp66
(i__main__
Token
p67
(dp68
g18
I50
sbasg21
I50
sba(i__main__
Mention
p69
(dp70
g7
S't1'
p71
sg9
S'Coreference-Identity'
p72
sg10
S'i12'
p73
sg12
S'i9'
p74
sg13
Nsg14
(lp75
(i__main__
Token
p76
(dp77
g18
I61
sba(i__main__
Token
p78
(dp79
g18
I62
sbasg21
I62
sba(i__main__
Mention
p80
(dp81
g7
S't1'
p82
sg9
S'Anaphora-C'
p83
sg10
S'i16'
p84
sg12
S'i12'
p85
sg13
Nsg14
(lp86
(i__main__
Token
p87
(dp88
g18
I83
sbasg21
I83
sba(i__main__
Mention
p89
(dp90
g7
S't1'
p91
sg9
S'Coreference-Identity'
p92
sg10
S'i17'
p93
sg12
S'i16'
p94
sg13
Nsg14
(lp95
(i__main__
Token
p96
(dp97
g18
I95
sba(i__main__
Token
p98
(dp99
g18
I96
sbasg21
I96
sba(i__main__
Mention
p100
(dp101
g7
S't1'
p102
sg9
S'Anaphora-C'
p103
sg10
S'i18'
p104
sg12
S'i17'
p105
sg13
Nsg14
(lp106
(i__main__
Token
p107
(dp108
g18
I105
sbasg21
I105
sba(i__main__
Mention
p109
(dp110
g7
S't1'
p111
sg9
S'Anaphora-C'
p112
sg10
S'i19'
p113
sg12
S'i18'
p114
sg13
Nsg14
(lp115
(i__main__
Token
p116
(dp117
g18
I106
sbasg21
I106
sba(i__main__
Mention
p118
(dp119
g7
S't1'
p120
sg9
S'Anaphora-C'
p121
sg10
S'i20'
p122
sg12
S'i19'
p123
sg13
Nsg14
(lp124
(i__main__
Token
p125
(dp126
g18
I121
sbasg21
I121
sba(i__main__
Mention
p127
(dp128
g7
S't1'
p129
sg9
S'Coreference-Identity'
p130
sg10
S'i21'
p131
sg12
S'i20'
p132
sg13
Nsg14
(lp133
(i__main__
Token
p134
(dp135
g18
I138
sba(i__main__
Token
p136
(dp137
g18
I139
sbasg21
I139
sba(i__main__
Mention
p138
(dp139
g7
S't1'
p140
sg9
S'Anaphora-C'
p141
sg10
S'i22'
p142
sg12
S'i21'
p143
sg13
Nsg14
(lp144
(i__main__
Token
p145
(dp146
g18
I149
sbasg21
I149
sba(i__main__
Mention
p147
(dp148
g7
S't1'
p149
sg9
S'Anaphora-C'
p150
sg10
S'i30'
p151
sg12
S'i22'
p152
sg13
Nsg14
(lp153
(i__main__
Token
p154
(dp155
g18
I170
sbasg21
I170
sbasg7
g8
sS'chainHead'
p156
Nsba(i__main__
Chain
p157
(dp158
g3
(lp159
(i__main__
Mention
p160
(dp161
g7
S't2'
p162
sg9
Nsg10
S'i3'
p163
sg12
Nsg13
Nsg14
(lp164
(i__main__
Token
p165
(dp166
g18
I11
sbasg21
I11
sba(i__main__
Mention
p167
(dp168
g7
S't2'
p169
sg9
S'Coreference-Identity'
p170
sg10
S'i15'
p171
sg12
S'i3'
p172
sg13
Nsg14
(lp173
(i__main__
Token
p174
(dp175
g18
I79
sbasg21
I79
sbasg7
g162
sg156
Nsba(i__main__
Chain
p176
(dp177
g3
(lp178
(i__main__
Mention
p179
(dp180
g7
S't3'
p181
sg9
Nsg10
S'i6'
p182
sg12
Nsg13
Nsg14
(lp183
(i__main__
Token
p184
(dp185
g18
I24
sba(i__main__
Token
p186
(dp187
g18
I25
sbasg21
I25
sba(i__main__
Mention
p188
(dp189
g7
S't3'
p190
sg9
S'Coreference-Identity'
p191
sg10
S'i13'
p192
sg12
S'i8'
p193
sg13
Nsg14
(lp194
(i__main__
Token
p195
(dp196
g18
I76
sba(i__main__
Token
p197
(dp198
g18
I77
sbasg21
I77
sbasg7
g181
sg156
Nsba(i__main__
Chain
p199
(dp200
g3
(lp201
(i__main__
Mention
p202
(dp203
g7
S't4'
p204
sg9
Nsg10
S'i8'
p205
sg12
Nsg13
Nsg14
(lp206
(i__main__
Token
p207
(dp208
g18
I46
sbasg21
I46
sba(i__main__
Mention
p209
(dp210
g7
S't4'
p211
sg9
S'Coreference-Identity'
p212
sg10
S'i10'
p213
sg12
S'i8'
p214
sg13
Nsg14
(lp215
(i__main__
Token
p216
(dp217
g18
I55
sbasg21
I55
sba(i__main__
Mention
p218
(dp219
g7
S't4'
p220
sg9
S'Anaphora-C'
p221
sg10
S'i11'
p222
sg12
S'i10'
p223
sg13
Nsg14
(lp224
(i__main__
Token
p225
(dp226
g18
I56
sbasg21
I56
sbasg7
g204
sg156
Nsba(i__main__
Chain
p227
(dp228
g3
(lp229
(i__main__
Mention
p230
(dp231
g7
S't5'
p232
sg9
Nsg10
S'i23'
p233
sg12
Nsg13
Nsg14
(lp234
(i__main__
Token
p235
(dp236
g18
I150
sba(i__main__
Token
p237
(dp238
g18
I151
sbasg21
Nsba(i__main__
Mention
p239
(dp240
g7
S't5'
p241
sg9
S'Coreference-PartOf'
p242
sg10
S'i27'
p243
sg12
S'i23'
p244
sg13
Nsg14
(lp245
(i__main__
Token
p246
(dp247
g18
I156
sba(i__main__
Token
p248
(dp249
g18
I157
sba(i__main__
Token
p250
(dp251
g18
I158
sbasg21
I158
sbasg7
g232
sg156
Nsba(i__main__
Chain
p252
(dp253
g3
(lp254
(i__main__
Mention
p255
(dp256
g7
S't6'
p257
sg9
Nsg10
S'i24'
p258
sg12
Nsg13
Nsg14
(lp259
(i__main__
Token
p260
(dp261
g18
I150
sba(i__main__
Token
p262
(dp263
g18
I151
sbasg21
Nsba(i__main__
Mention
p264
(dp265
g7
S't6'
p266
sg9
S'Coreference-PartOf'
p267
sg10
S'i28'
p268
sg12
S'i24'
p269
sg13
Nsg14
(lp270
(i__main__
Token
p271
(dp272
g18
I160
sba(i__main__
Token
p273
(dp274
g18
I161
sba(i__main__
Token
p275
(dp276
g18
I162
sba(i__main__
Token
p277
(dp278
g18
I163
sbasg21
I163
sbasg7
g257
sg156
Nsba(i__main__
Chain
p279
(dp280
g3
(lp281
(i__main__
Mention
p282
(dp283
g7
S't7'
p284
sg9
Nsg10
S'i25'
p285
sg12
Nsg13
Nsg14
(lp286
(i__main__
Token
p287
(dp288
g18
I150
sba(i__main__
Token
p289
(dp290
g18
I151
sbasg21
Nsba(i__main__
Mention
p291
(dp292
g7
S't7'
p293
sg9
S'Coreference-PartOf'
p294
sg10
S'i26'
p295
sg12
S'i25'
p296
sg13
Nsg14
(lp297
(i__main__
Token
p298
(dp299
g18
I153
sba(i__main__
Token
p300
(dp301
g18
I154
sbasg21
I154
sba(i__main__
Mention
p302
(dp303
g7
S't7'
p304
sg9
S'Coreference-Identity'
p305
sg10
S'i29'
p306
sg12
S'i26'
p307
sg13
Nsg14
(lp308
(i__main__
Token
p309
(dp310
g18
I168
sba(i__main__
Token
p311
(dp312
g18
I169
sbasg21
I169
sba(i__main__
Mention
p313
(dp314
g7
S't7'
p315
sg9
S'Coreference-Noun-Noun'
p316
sg10
S'i31'
p317
sg12
S'i29'
p318
sg13
Nsg14
(lp319
(i__main__
Token
p320
(dp321
g18
I171
sba(i__main__
Token
p322
(dp323
g18
I172
sbasg21
I172
sbasg7
g284
sg156
Nsba.