(lp0
(i__main__
Chain
p1
(dp2
S'mentionList'
p3
(lp4
(i__main__
Mention
p5
(dp6
S'chainId'
p7
S't1'
p8
sS'relType'
p9
NsS'mentionId'
p10
S'i1'
p11
sS'antecedentId'
p12
NsS'crefMod'
p13
NsS'tokenList'
p14
(lp15
(i__main__
Token
p16
(dp17
S'tokenId'
p18
I0
sbasS'mentionHead'
p19
I0
sba(i__main__
Mention
p20
(dp21
g7
S't1'
p22
sg9
S'Coreference-Identity'
p23
sg10
S'i35'
p24
sg12
S'i1'
p25
sg13
Nsg14
(lp26
(i__main__
Token
p27
(dp28
g18
I180
sba(i__main__
Token
p29
(dp30
g18
I181
sbasg19
I181
sba(i__main__
Mention
p31
(dp32
g7
S't1'
p33
sg9
S'Anaphora-C'
p34
sg10
S'i36'
p35
sg12
S'i35'
p36
sg13
Nsg14
(lp37
(i__main__
Token
p38
(dp39
g18
I185
sbasg19
I185
sba(i__main__
Mention
p40
(dp41
g7
S't1'
p42
sg9
S'Coreference-Identity'
p43
sg10
S'i48'
p44
sg12
S'i36'
p45
sg13
Nsg14
(lp46
(i__main__
Token
p47
(dp48
g18
I250
sba(i__main__
Token
p49
(dp50
g18
I251
sba(i__main__
Token
p51
(dp52
g18
I252
sbasg19
I252
sba(i__main__
Mention
p53
(dp54
g7
S't1'
p55
sg9
S'Anaphora-C'
p56
sg10
S'i49'
p57
sg12
S'i48'
p58
sg13
Nsg14
(lp59
(i__main__
Token
p60
(dp61
g18
I258
sbasg19
I258
sbasg7
g8
sS'chainHead'
p62
Nsba(i__main__
Chain
p63
(dp64
g3
(lp65
(i__main__
Mention
p66
(dp67
g7
S't2'
p68
sg9
Nsg10
S'i2'
p69
sg12
Nsg13
Nsg14
(lp70
(i__main__
Token
p71
(dp72
g18
I5
sbasg19
I5
sba(i__main__
Mention
p73
(dp74
g7
S't2'
p75
sg9
S'Coreference-Noun-Noun'
p76
sg10
S'i5'
p77
sg12
S'i2'
p78
sg13
Nsg14
(lp79
(i__main__
Token
p80
(dp81
g18
I16
sbasg19
I16
sba(i__main__
Mention
p82
(dp83
g7
S't2'
p84
sg9
S'Coreference-Noun-Noun'
p85
sg10
S'i7'
p86
sg12
S'i5'
p87
sg13
Nsg14
(lp88
(i__main__
Token
p89
(dp90
g18
I25
sbasg19
I25
sba(i__main__
Mention
p91
(dp92
g7
S't2'
p93
sg9
S'Coreference-PartOf'
p94
sg10
S'i18'
p95
sg12
S'i7'
p96
sg13
Nsg14
(lp97
(i__main__
Token
p98
(dp99
g18
I73
sba(i__main__
Token
p100
(dp101
g18
I74
sbasg19
I74
sba(i__main__
Mention
p102
(dp103
g7
S't2'
p104
sg9
S'Coreference-Noun-Noun'
p105
sg10
S'i20'
p106
sg12
S'i18'
p107
sg13
Nsg14
(lp108
(i__main__
Token
p109
(dp110
g18
I91
sbasg19
I91
sba(i__main__
Mention
p111
(dp112
g7
S't2'
p113
sg9
S'Coreference-Noun-Noun'
p114
sg10
S'i27'
p115
sg12
S'i20'
p116
sg13
Nsg14
(lp117
(i__main__
Token
p118
(dp119
g18
I141
sbasg19
I141
sba(i__main__
Mention
p120
(dp121
g7
S't2'
p122
sg9
S'Coreference-Noun-Noun'
p123
sg10
S'i31'
p124
sg12
S'i27'
p125
sg13
Nsg14
(lp126
(i__main__
Token
p127
(dp128
g18
I160
sbasg19
I160
sba(i__main__
Mention
p129
(dp130
g7
S't2'
p131
sg9
S'Coreference-Identity'
p132
sg10
S'i34'
p133
sg12
S'i31'
p134
sg13
Nsg14
(lp135
(i__main__
Token
p136
(dp137
g18
I180
sbasg19
I180
sba(i__main__
Mention
p138
(dp139
g7
S't2'
p140
sg9
S'Coreference-Identity'
p141
sg10
S'i37'
p142
sg12
S'i34'
p143
sg13
Nsg14
(lp144
(i__main__
Token
p145
(dp146
g18
I186
sbasg19
I186
sba(i__main__
Mention
p147
(dp148
g7
S't2'
p149
sg9
S'Coreference-Noun-Noun'
p150
sg10
S'i39'
p151
sg12
S'i37'
p152
sg13
Nsg14
(lp153
(i__main__
Token
p154
(dp155
g18
I198
sbasg19
I198
sba(i__main__
Mention
p156
(dp157
g7
S't2'
p158
sg9
S'Coreference-Noun-Noun'
p159
sg10
S'i41'
p160
sg12
S'i39'
p161
sg13
Nsg14
(lp162
(i__main__
Token
p163
(dp164
g18
I210
sba(i__main__
Token
p165
(dp166
g18
I211
sbasg19
I211
sba(i__main__
Mention
p167
(dp168
g7
S't2'
p169
sg9
S'Coreference-Noun-Noun'
p170
sg10
S'i46'
p171
sg12
S'i41'
p172
sg13
Nsg14
(lp173
(i__main__
Token
p174
(dp175
g18
I237
sbasg19
I237
sba(i__main__
Mention
p176
(dp177
g7
S't2'
p178
sg9
S'Coreference-Identity'
p179
sg10
S'i51'
p180
sg12
S'i46'
p181
sg13
Nsg14
(lp182
(i__main__
Token
p183
(dp184
g18
I270
sbasg19
I270
sba(i__main__
Mention
p185
(dp186
g7
S't2'
p187
sg9
S'Coreference-Noun-Noun'
p188
sg10
S'i53'
p189
sg12
S'i51'
p190
sg13
Nsg14
(lp191
(i__main__
Token
p192
(dp193
g18
I275
sbasg19
I275
sba(i__main__
Mention
p194
(dp195
g7
S't2'
p196
sg9
S'Coreference-Identity'
p197
sg10
S'i56'
p198
sg12
S'i53'
p199
sg13
Nsg14
(lp200
(i__main__
Token
p201
(dp202
g18
I296
sbasg19
I296
sba(i__main__
Mention
p203
(dp204
g7
S't2'
p205
sg9
S'Coreference-Noun-Noun'
p206
sg10
S'i59'
p207
sg12
S'i56'
p208
sg13
Nsg14
(lp209
(i__main__
Token
p210
(dp211
g18
I321
sbasg19
I321
sbasg7
g68
sg62
Nsba(i__main__
Chain
p212
(dp213
g3
(lp214
(i__main__
Mention
p215
(dp216
g7
S't3'
p217
sg9
Nsg10
S'i3'
p218
sg12
Nsg13
Nsg14
(lp219
(i__main__
Token
p220
(dp221
g18
I7
sba(i__main__
Token
p222
(dp223
g18
I8
sbasg19
I8
sba(i__main__
Mention
p224
(dp225
g7
S't3'
p226
sg9
S'Anaphora-C'
p227
sg10
S'i4'
p228
sg12
S'i3'
p229
sg13
Nsg14
(lp230
(i__main__
Token
p231
(dp232
g18
I13
sbasg19
I13
sba(i__main__
Mention
p233
(dp234
g7
S't3'
p235
sg9
S'Coreference-Noun-Noun'
p236
sg10
S'i10'
p237
sg12
S'i4'
p238
sg13
Nsg14
(lp239
(i__main__
Token
p240
(dp241
g18
I37
sbasg19
I37
sba(i__main__
Mention
p242
(dp243
g7
S't3'
p244
sg9
S'Anaphora-C'
p245
sg10
S'i12'
p246
sg12
S'i10'
p247
sg13
Nsg14
(lp248
(i__main__
Token
p249
(dp250
g18
I46
sbasg19
I46
sba(i__main__
Mention
p251
(dp252
g7
S't3'
p253
sg9
S'Coreference-Identity'
p254
sg10
S'i13'
p255
sg12
S'i12'
p256
sg13
Nsg14
(lp257
(i__main__
Token
p258
(dp259
g18
I54
sbasg19
I54
sba(i__main__
Mention
p260
(dp261
g7
S't3'
p262
sg9
S'Coreference-Identity'
p263
sg10
S'i14'
p264
sg12
S'i13'
p265
sg13
Nsg14
(lp266
(i__main__
Token
p267
(dp268
g18
I65
sbasg19
I65
sba(i__main__
Mention
p269
(dp270
g7
S't3'
p271
sg9
S'Coreference-Identity'
p272
sg10
S'i19'
p273
sg12
S'i14'
p274
sg13
Nsg14
(lp275
(i__main__
Token
p276
(dp277
g18
I89
sbasg19
I89
sba(i__main__
Mention
p278
(dp279
g7
S't3'
p280
sg9
S'Coreference-Identity'
p281
sg10
S'i25'
p282
sg12
S'i19'
p283
sg13
Nsg14
(lp284
(i__main__
Token
p285
(dp286
g18
I120
sbasg19
I120
sba(i__main__
Mention
p287
(dp288
g7
S't3'
p289
sg9
S'Coreference-Identity'
p290
sg10
S'i26'
p291
sg12
S'i25'
p292
sg13
Nsg14
(lp293
(i__main__
Token
p294
(dp295
g18
I135
sbasg19
I135
sba(i__main__
Mention
p296
(dp297
g7
S't3'
p298
sg9
S'Coreference-Identity'
p299
sg10
S'i28'
p300
sg12
S'i26'
p301
sg13
Nsg14
(lp302
(i__main__
Token
p303
(dp304
g18
I148
sbasg19
I148
sba(i__main__
Mention
p305
(dp306
g7
S't3'
p307
sg9
S'Coreference-Identity'
p308
sg10
S'i32'
p309
sg12
S'i28'
p310
sg13
Nsg14
(lp311
(i__main__
Token
p312
(dp313
g18
I164
sbasg19
I164
sba(i__main__
Mention
p314
(dp315
g7
S't3'
p316
sg9
S'Coreference-Identity'
p317
sg10
S'i33'
p318
sg12
S'i32'
p319
sg13
Nsg14
(lp320
(i__main__
Token
p321
(dp322
g18
I171
sbasg19
I171
sbasg7
g217
sg62
Nsba(i__main__
Chain
p323
(dp324
g3
(lp325
(i__main__
Mention
p326
(dp327
g7
S't4'
p328
sg9
Nsg10
S'i6'
p329
sg12
Nsg13
Nsg14
(lp330
(i__main__
Token
p331
(dp332
g18
I18
sba(i__main__
Token
p333
(dp334
g18
I19
sbasg19
I19
sba(i__main__
Mention
p335
(dp336
g7
S't4'
p337
sg9
S'Coreference-Identity'
p338
sg10
S'i9'
p339
sg12
S'i6'
p340
sg13
Nsg14
(lp341
(i__main__
Token
p342
(dp343
g18
I31
sba(i__main__
Token
p344
(dp345
g18
I32
sbasg19
I32
sba(i__main__
Mention
p346
(dp347
g7
S't4'
p348
sg9
S'Coreference-Identity'
p349
sg10
S'i16'
p350
sg12
S'i9'
p351
sg13
Nsg14
(lp352
(i__main__
Token
p353
(dp354
g18
I70
sba(i__main__
Token
p355
(dp356
g18
I71
sbasg19
I71
sba(i__main__
Mention
p357
(dp358
g7
S't4'
p359
sg9
S'Coreference-Identity'
p360
sg10
S'i21'
p361
sg12
S'i16'
p362
sg13
Nsg14
(lp363
(i__main__
Token
p364
(dp365
g18
I96
sba(i__main__
Token
p366
(dp367
g18
I97
sbasg19
I97
sba(i__main__
Mention
p368
(dp369
g7
S't4'
p370
sg9
S'Anaphora-C'
p371
sg10
S'i23'
p372
sg12
S'i21'
p373
sg13
Nsg14
(lp374
(i__main__
Token
p375
(dp376
g18
I105
sbasg19
I105
sba(i__main__
Mention
p377
(dp378
g7
S't4'
p379
sg9
S'Anaphora-C'
p380
sg10
S'i30'
p381
sg12
S'i23'
p382
sg13
Nsg14
(lp383
(i__main__
Token
p384
(dp385
g18
I159
sbasg19
I159
sba(i__main__
Mention
p386
(dp387
g7
S't4'
p388
sg9
S'Coreference-Identity'
p389
sg10
S'i38'
p390
sg12
S'i30'
p391
sg13
Nsg14
(lp392
(i__main__
Token
p393
(dp394
g18
I191
sba(i__main__
Token
p395
(dp396
g18
I192
sbasg19
I192
sba(i__main__
Mention
p397
(dp398
g7
S't4'
p399
sg9
S'Coreference-Identity'
p400
sg10
S'i50'
p401
sg12
S'i38'
p402
sg13
Nsg14
(lp403
(i__main__
Token
p404
(dp405
g18
I264
sba(i__main__
Token
p406
(dp407
g18
I265
sbasg19
I265
sba(i__main__
Mention
p408
(dp409
g7
S't4'
p410
sg9
S'Coreference-Identity'
p411
sg10
S'i54'
p412
sg12
S'i50'
p413
sg13
Nsg14
(lp414
(i__main__
Token
p415
(dp416
g18
I280
sba(i__main__
Token
p417
(dp418
g18
I281
sbasg19
I281
sbasg7
g328
sg62
Nsba(i__main__
Chain
p419
(dp420
g3
(lp421
(i__main__
Mention
p422
(dp423
g7
S't5'
p424
sg9
Nsg10
S'i8'
p425
sg12
Nsg13
Nsg14
(lp426
(i__main__
Token
p427
(dp428
g18
I28
sba(i__main__
Token
p429
(dp430
g18
I29
sbasg19
I29
sba(i__main__
Mention
p431
(dp432
g7
S't5'
p433
sg9
S'Coreference-Identity'
p434
sg10
S'i42'
p435
sg12
S'i8'
p436
sg13
Nsg14
(lp437
(i__main__
Token
p438
(dp439
g18
I214
sba(i__main__
Token
p440
(dp441
g18
I215
sbasg19
I215
sbasg7
g424
sg62
Nsba(i__main__
Chain
p442
(dp443
g3
(lp444
(i__main__
Mention
p445
(dp446
g7
S't6'
p447
sg9
Nsg10
S'i11'
p448
sg12
Nsg13
Nsg14
(lp449
(i__main__
Token
p450
(dp451
g18
I39
sba(i__main__
Token
p452
(dp453
g18
I40
sbasg19
I40
sba(i__main__
Mention
p454
(dp455
g7
S't6'
p456
sg9
S'Coreference-Identity'
p457
sg10
S'i22'
p458
sg12
S'i11'
p459
sg13
Nsg14
(lp460
(i__main__
Token
p461
(dp462
g18
I100
sbasg19
I100
sba(i__main__
Mention
p463
(dp464
g7
S't6'
p465
sg9
S'Coreference-Identity'
p466
sg10
S'i29'
p467
sg12
S'i22'
p468
sg13
Nsg14
(lp469
(i__main__
Token
p470
(dp471
g18
I150
sba(i__main__
Token
p472
(dp473
g18
I151
sbasg19
I151
sbasg7
g447
sg62
Nsba(i__main__
Chain
p474
(dp475
g3
(lp476
(i__main__
Mention
p477
(dp478
g7
S't7'
p479
sg9
Nsg10
S'i15'
p480
sg12
Nsg13
Nsg14
(lp481
(i__main__
Token
p482
(dp483
g18
I66
sbasg19
I66
sba(i__main__
Mention
p484
(dp485
g7
S't7'
p486
sg9
S'Anaphora-RC'
p487
sg10
S'i17'
p488
sg12
S'i15'
p489
sg13
Nsg14
(lp490
(i__main__
Token
p491
(dp492
g18
I70
sba(i__main__
Token
p493
(dp494
g18
I71
sba(i__main__
Token
p495
(dp496
g18
I72
sba(i__main__
Token
p497
(dp498
g18
I73
sba(i__main__
Token
p499
(dp500
g18
I74
sba(i__main__
Token
p501
(dp502
g18
I75
sba(i__main__
Token
p503
(dp504
g18
I76
sba(i__main__
Token
p505
(dp506
g18
I77
sba(i__main__
Token
p507
(dp508
g18
I78
sba(i__main__
Token
p509
(dp510
g18
I79
sba(i__main__
Token
p511
(dp512
g18
I80
sba(i__main__
Token
p513
(dp514
g18
I81
sba(i__main__
Token
p515
(dp516
g18
I82
sba(i__main__
Token
p517
(dp518
g18
I83
sba(i__main__
Token
p519
(dp520
g18
I84
sbasg19
I84
sbasg7
g479
sg62
Nsba(i__main__
Chain
p521
(dp522
g3
(lp523
(i__main__
Mention
p524
(dp525
g7
S't8'
p526
sg9
Nsg10
S'i24'
p527
sg12
Nsg13
Nsg14
(lp528
(i__main__
Token
p529
(dp530
g18
I113
sbasg19
I113
sbasg7
g526
sg62
Nsba(i__main__
Chain
p531
(dp532
g3
(lp533
(i__main__
Mention
p534
(dp535
g7
S't9'
p536
sg9
Nsg10
S'i40'
p537
sg12
Nsg13
Nsg14
(lp538
(i__main__
Token
p539
(dp540
g18
I203
sbasg19
I203
sba(i__main__
Mention
p541
(dp542
g7
S't9'
p543
sg9
S'Coreference-Identity'
p544
sg10
S'i44'
p545
sg12
S'i40'
p546
sg13
Nsg14
(lp547
(i__main__
Token
p548
(dp549
g18
I225
sbasg19
I225
sbasg7
g536
sg62
Nsba(i__main__
Chain
p550
(dp551
g3
(lp552
(i__main__
Mention
p553
(dp554
g7
S't10'
p555
sg9
Nsg10
S'i43'
p556
sg12
Nsg13
Nsg14
(lp557
(i__main__
Token
p558
(dp559
g18
I217
sbasg19
I217
sba(i__main__
Mention
p560
(dp561
g7
S't10'
p562
sg9
S'Coreference-Identity'
p563
sg10
S'i57'
p564
sg12
S'i43'
p565
sg13
Nsg14
(lp566
(i__main__
Token
p567
(dp568
g18
I298
sbasg19
I298
sba(i__main__
Mention
p569
(dp570
g7
S't10'
p571
sg9
S'Coreference-Identity'
p572
sg10
S'i58'
p573
sg12
S'i57'
p574
sg13
Nsg14
(lp575
(i__main__
Token
p576
(dp577
g18
I308
sbasg19
I308
sbasg7
g555
sg62
Nsba(i__main__
Chain
p578
(dp579
g3
(lp580
(i__main__
Mention
p581
(dp582
g7
S't11'
p583
sg9
Nsg10
S'i45'
p584
sg12
Nsg13
Nsg14
(lp585
(i__main__
Token
p586
(dp587
g18
I227
sbasg19
I227
sbasg7
g583
sg62
Nsba(i__main__
Chain
p588
(dp589
g3
(lp590
(i__main__
Mention
p591
(dp592
g7
S't12'
p593
sg9
Nsg10
S'i47'
p594
sg12
Nsg13
Nsg14
(lp595
(i__main__
Token
p596
(dp597
g18
I242
sbasg19
I242
sbasg7
g593
sg62
Nsba(i__main__
Chain
p598
(dp599
g3
(lp600
(i__main__
Mention
p601
(dp602
g7
S't13'
p603
sg9
Nsg10
S'i52'
p604
sg12
Nsg13
Nsg14
(lp605
(i__main__
Token
p606
(dp607
g18
I270
sba(i__main__
Token
p608
(dp609
g18
I271
sba(i__main__
Token
p610
(dp611
g18
I272
sbasg19
I272
sba(i__main__
Mention
p612
(dp613
g7
S't13'
p614
sg9
S'Anaphora-C'
p615
sg10
S'i55'
p616
sg12
S'i52'
p617
sg13
Nsg14
(lp618
(i__main__
Token
p619
(dp620
g18
I287
sbasg19
I287
sbasg7
g603
sg62
Nsba.