(lp0
(i__main__
Chain
p1
(dp2
S'mentionList'
p3
(lp4
(i__main__
Mention
p5
(dp6
S'chainId'
p7
S't1'
p8
sS'relType'
p9
NsS'mentionId'
p10
S'i1'
p11
sS'antecedentId'
p12
NsS'crefMod'
p13
NsS'tokenList'
p14
(lp15
(i__main__
Token
p16
(dp17
S'tokenId'
p18
I0
sbasS'mentionHead'
p19
I0
sba(i__main__
Mention
p20
(dp21
g7
S't1'
p22
sg9
S'Coreference-Identity'
p23
sg10
S'i13'
p24
sg12
S'i1'
p25
sg13
Nsg14
(lp26
(i__main__
Token
p27
(dp28
g18
I127
sbasg19
I127
sba(i__main__
Mention
p29
(dp30
g7
S't1'
p31
sg9
S'Coreference-Identity'
p32
sg10
S'i15'
p33
sg12
S'i13'
p34
sg13
Nsg14
(lp35
(i__main__
Token
p36
(dp37
g18
I135
sbasg19
I135
sbasg7
g8
sS'chainHead'
p38
Nsba(i__main__
Chain
p39
(dp40
g3
(lp41
(i__main__
Mention
p42
(dp43
g7
S't2'
p44
sg9
Nsg10
S'i2'
p45
sg12
Nsg13
Nsg14
(lp46
(i__main__
Token
p47
(dp48
g18
I7
sbasg19
I7
sba(i__main__
Mention
p49
(dp50
g7
S't2'
p51
sg9
S'Coreference-Identity'
p52
sg10
S'i8'
p53
sg12
S'i2'
p54
sg13
Nsg14
(lp55
(i__main__
Token
p56
(dp57
g18
I58
sba(i__main__
Token
p58
(dp59
g18
I59
sbasg19
I59
sba(i__main__
Mention
p60
(dp61
g7
S't2'
p62
sg9
S'Coreference-Identity'
p63
sg10
S'i9'
p64
sg12
S'i8'
p65
sg13
Nsg14
(lp66
(i__main__
Token
p67
(dp68
g18
I88
sbasg19
I88
sbasg7
g44
sg38
Nsba(i__main__
Chain
p69
(dp70
g3
(lp71
(i__main__
Mention
p72
(dp73
g7
S't3'
p74
sg9
Nsg10
S'i3'
p75
sg12
Nsg13
Nsg14
(lp76
(i__main__
Token
p77
(dp78
g18
I9
sba(i__main__
Token
p79
(dp80
g18
I10
sbasg19
I10
sba(i__main__
Mention
p81
(dp82
g7
S't3'
p83
sg9
S'Anaphora-C'
p84
sg10
S'i4'
p85
sg12
S'i3'
p86
sg13
Nsg14
(lp87
(i__main__
Token
p88
(dp89
g18
I18
sbasg19
I18
sbasg7
g74
sg38
Nsba(i__main__
Chain
p90
(dp91
g3
(lp92
(i__main__
Mention
p93
(dp94
g7
S't4'
p95
sg9
Nsg10
S'i5'
p96
sg12
Nsg13
Nsg14
(lp97
(i__main__
Token
p98
(dp99
g18
I31
sbasg19
I31
sba(i__main__
Mention
p100
(dp101
g7
S't4'
p102
sg9
S'Coreference-Identity'
p103
sg10
S'i6'
p104
sg12
S'i5'
p105
sg13
Nsg14
(lp106
(i__main__
Token
p107
(dp108
g18
I47
sbasg19
I47
sbasg7
g95
sg38
Nsba(i__main__
Chain
p109
(dp110
g3
(lp111
(i__main__
Mention
p112
(dp113
g7
S't5'
p114
sg9
Nsg10
S'i7'
p115
sg12
Nsg13
Nsg14
(lp116
(i__main__
Token
p117
(dp118
g18
I56
sbasg19
I56
sbasg7
g114
sg38
Nsba(i__main__
Chain
p119
(dp120
g3
(lp121
(i__main__
Mention
p122
(dp123
g7
S't6'
p124
sg9
Nsg10
S'i10'
p125
sg12
Nsg13
Nsg14
(lp126
(i__main__
Token
p127
(dp128
g18
I96
sbasg19
I96
sba(i__main__
Mention
p129
(dp130
g7
S't6'
p131
sg9
S'Anaphora-C'
p132
sg10
S'i12'
p133
sg12
S'i10'
p134
sg13
Nsg14
(lp135
(i__main__
Token
p136
(dp137
g18
I104
sbasg19
I104
sbasg7
g124
sg38
Nsba(i__main__
Chain
p138
(dp139
g3
(lp140
(i__main__
Mention
p141
(dp142
g7
S't7'
p143
sg9
Nsg10
S'i11'
p144
sg12
Nsg13
Nsg14
(lp145
(i__main__
Token
p146
(dp147
g18
I97
sbasg19
I97
sba(i__main__
Mention
p148
(dp149
g7
S't7'
p150
sg9
S'Coreference-Identity'
p151
sg10
S'i16'
p152
sg12
S'i11'
p153
sg13
Nsg14
(lp154
(i__main__
Token
p155
(dp156
g18
I137
sbasg19
I137
sbasg7
g143
sg38
Nsba(i__main__
Chain
p157
(dp158
g3
(lp159
(i__main__
Mention
p160
(dp161
g7
S't8'
p162
sg9
Nsg10
S'i14'
p163
sg12
Nsg13
Nsg14
(lp164
(i__main__
Token
p165
(dp166
g18
I134
sbasg19
I134
sbasg7
g162
sg38
Nsba(i__main__
Chain
p167
(dp168
g3
(lp169
(i__main__
Mention
p170
(dp171
g7
S't9'
p172
sg9
Nsg10
S'i17'
p173
sg12
Nsg13
Nsg14
(lp174
(i__main__
Token
p175
(dp176
g18
I137
sba(i__main__
Token
p177
(dp178
g18
I138
sba(i__main__
Token
p179
(dp180
g18
I139
sba(i__main__
Token
p181
(dp182
g18
I140
sbasg19
I140
sba(i__main__
Mention
p183
(dp184
g7
S't9'
p185
sg9
S'Coreference-Abbreviation'
p186
sg10
S'i18'
p187
sg12
S'i17'
p188
sg13
Nsg14
(lp189
(i__main__
Token
p190
(dp191
g18
I158
sbasg19
I158
sba(i__main__
Mention
p192
(dp193
g7
S't9'
p194
sg9
S'Coreference-Identity'
p195
sg10
S'i19'
p196
sg12
S'i18'
p197
sg13
Nsg14
(lp198
(i__main__
Token
p199
(dp200
g18
I162
sbasg19
I162
sba(i__main__
Mention
p201
(dp202
g7
S't9'
p203
sg9
S'Coreference-Identity'
p204
sg10
S'i23'
p205
sg12
S'i19'
p206
sg13
Nsg14
(lp207
(i__main__
Token
p208
(dp209
g18
I188
sbasg19
I188
sbasg7
g172
sg38
Nsba(i__main__
Chain
p210
(dp211
g3
(lp212
(i__main__
Mention
p213
(dp214
g7
S't10'
p215
sg9
Nsg10
S'i20'
p216
sg12
Nsg13
Nsg14
(lp217
(i__main__
Token
p218
(dp219
g18
I166
sba(i__main__
Token
p220
(dp221
g18
I167
sba(i__main__
Token
p222
(dp223
g18
I168
sbasg19
I168
sba(i__main__
Mention
p224
(dp225
g7
S't10'
p226
sg9
S'Anaphora-C'
p227
sg10
S'i21'
p228
sg12
S'i20'
p229
sg13
Nsg14
(lp230
(i__main__
Token
p231
(dp232
g18
I181
sbasg19
I181
sbasg7
g215
sg38
Nsba(i__main__
Chain
p233
(dp234
g3
(lp235
(i__main__
Mention
p236
(dp237
g7
S't11'
p238
sg9
Nsg10
S'i22'
p239
sg12
Nsg13
Nsg14
(lp240
(i__main__
Token
p241
(dp242
g18
I182
sbasg19
I182
sbasg7
g238
sg38
Nsba(i__main__
Chain
p243
(dp244
g3
(lp245
(i__main__
Mention
p246
(dp247
g7
S't12'
p248
sg9
Nsg10
S'i24'
p249
sg12
Nsg13
Nsg14
(lp250
(i__main__
Token
p251
(dp252
g18
I195
sbasg19
I195
sbasg7
g248
sg38
Nsba.