(lp0
(i__main__
Chain
p1
(dp2
S'mentionList'
p3
(lp4
(i__main__
Mention
p5
(dp6
S'chainId'
p7
S't1'
p8
sS'relType'
p9
NsS'mentionId'
p10
S'i1'
p11
sS'antecedentId'
p12
NsS'crefMod'
p13
NsS'tokenList'
p14
(lp15
(i__main__
Token
p16
(dp17
S'tokenId'
p18
I8
sbasS'mentionHead'
p19
I8
sba(i__main__
Mention
p20
(dp21
g7
S't1'
p22
sg9
S'Coreference-Identity'
p23
sg10
S'i13'
p24
sg12
S'i1'
p25
sg13
Nsg14
(lp26
(i__main__
Token
p27
(dp28
g18
I118
sba(i__main__
Token
p29
(dp30
g18
I119
sbasg19
I119
sba(i__main__
Mention
p31
(dp32
g7
S't1'
p33
sg9
S'Coreference-Identity'
p34
sg10
S'i14'
p35
sg12
S'i13'
p36
sg13
Nsg14
(lp37
(i__main__
Token
p38
(dp39
g18
I144
sbasg19
I144
sba(i__main__
Mention
p40
(dp41
g7
S't1'
p42
sg9
S'Coreference-Identity'
p43
sg10
S'i17'
p44
sg12
S'i14'
p45
sg13
Nsg14
(lp46
(i__main__
Token
p47
(dp48
g18
I207
sbasg19
I207
sba(i__main__
Mention
p49
(dp50
g7
S't1'
p51
sg9
S'Coreference-Identity'
p52
sg10
S'i18'
p53
sg12
S'i17'
p54
sg13
Nsg14
(lp55
(i__main__
Token
p56
(dp57
g18
I226
sbasg19
I226
sba(i__main__
Mention
p58
(dp59
g7
S't1'
p60
sg9
S'Coreference-Identity'
p61
sg10
S'i19'
p62
sg12
S'i18'
p63
sg13
Nsg14
(lp64
(i__main__
Token
p65
(dp66
g18
I250
sbasg19
I250
sba(i__main__
Mention
p67
(dp68
g7
S't1'
p69
sg9
S'Coreference-Identity'
p70
sg10
S'i20'
p71
sg12
S'i19'
p72
sg13
Nsg14
(lp73
(i__main__
Token
p74
(dp75
g18
I269
sbasg19
I269
sbasg7
g8
sS'chainHead'
p76
Nsba(i__main__
Chain
p77
(dp78
g3
(lp79
(i__main__
Mention
p80
(dp81
g7
S't2'
p82
sg9
Nsg10
S'i2'
p83
sg12
Nsg13
Nsg14
(lp84
(i__main__
Token
p85
(dp86
g18
I37
sba(i__main__
Token
p87
(dp88
g18
I38
sbasg19
I38
sba(i__main__
Mention
p89
(dp90
g7
S't2'
p91
sg9
S'Coreference-Noun-Noun'
p92
sg10
S'i3'
p93
sg12
S'i2'
p94
sg13
Nsg14
(lp95
(i__main__
Token
p96
(dp97
g18
I40
sbasg19
I40
sba(i__main__
Mention
p98
(dp99
g7
S't2'
p100
sg9
S'Coreference-NounComplement'
p101
sg10
S'i4'
p102
sg12
S'i3'
p103
sg13
Nsg14
(lp104
(i__main__
Token
p105
(dp106
g18
I41
sba(i__main__
Token
p107
(dp108
g18
I42
sbasg19
I42
sba(i__main__
Mention
p109
(dp110
g7
S't2'
p111
sg9
S'Coreference-Identity'
p112
sg10
S'i16'
p113
sg12
S'i4'
p114
sg13
Nsg14
(lp115
(i__main__
Token
p116
(dp117
g18
I175
sbasg19
I175
sba(i__main__
Mention
p118
(dp119
g7
S't2'
p120
sg9
S'Coreference-Identity'
p121
sg10
S'i21'
p122
sg12
S'i16'
p123
sg13
Nsg14
(lp124
(i__main__
Token
p125
(dp126
g18
I288
sbasg19
I288
sbasg7
g82
sg76
Nsba(i__main__
Chain
p127
(dp128
g3
(lp129
(i__main__
Mention
p130
(dp131
g7
S't3'
p132
sg9
Nsg10
S'i5'
p133
sg12
Nsg13
Nsg14
(lp134
(i__main__
Token
p135
(dp136
g18
I51
sbasg19
I51
sba(i__main__
Mention
p137
(dp138
g7
S't3'
p139
sg9
S'Anaphora-C'
p140
sg10
S'i6'
p141
sg12
S'i5'
p142
sg13
Nsg14
(lp143
(i__main__
Token
p144
(dp145
g18
I59
sbasg19
I59
sbasg7
g132
sg76
Nsba(i__main__
Chain
p146
(dp147
g3
(lp148
(i__main__
Mention
p149
(dp150
g7
S't4'
p151
sg9
Nsg10
S'i7'
p152
sg12
Nsg13
Nsg14
(lp153
(i__main__
Token
p154
(dp155
g18
I59
sba(i__main__
Token
p156
(dp157
g18
I60
sba(i__main__
Token
p158
(dp159
g18
I61
sba(i__main__
Token
p160
(dp161
g18
I62
sba(i__main__
Token
p162
(dp163
g18
I63
sba(i__main__
Token
p164
(dp165
g18
I64
sba(i__main__
Token
p166
(dp167
g18
I65
sba(i__main__
Token
p168
(dp169
g18
I66
sba(i__main__
Token
p170
(dp171
g18
I67
sbasg19
I67
sba(i__main__
Mention
p172
(dp173
g7
S't4'
p174
sg9
S'Anaphora-E'
p175
sg10
S'i8'
p176
sg12
S'i7'
p177
sg13
Nsg14
(lp178
(i__main__
Token
p179
(dp180
g18
I69
sbasg19
I69
sbasg7
g151
sg76
Nsba(i__main__
Chain
p181
(dp182
g3
(lp183
(i__main__
Mention
p184
(dp185
g7
S't5'
p186
sg9
Nsg10
S'i9'
p187
sg12
Nsg13
Nsg14
(lp188
(i__main__
Token
p189
(dp190
g18
I85
sba(i__main__
Token
p191
(dp192
g18
I86
sba(i__main__
Token
p193
(dp194
g18
I87
sba(i__main__
Token
p195
(dp196
g18
I88
sbasg19
I88
sba(i__main__
Mention
p197
(dp198
g7
S't5'
p199
sg9
S'Coreference-Identity'
p200
sg10
S'i12'
p201
sg12
S'i9'
p202
sg13
Nsg14
(lp203
(i__main__
Token
p204
(dp205
g18
I115
sba(i__main__
Token
p206
(dp207
g18
I116
sbasg19
I116
sba(i__main__
Mention
p208
(dp209
g7
S't5'
p210
sg9
S'Coreference-Noun-Noun'
p211
sg10
S'i15'
p212
sg12
S'i12'
p213
sg13
Nsg14
(lp214
(i__main__
Token
p215
(dp216
g18
I158
sbasg19
I158
sba(i__main__
Mention
p217
(dp218
g7
S't5'
p219
sg9
S'Coreference-Identity'
p220
sg10
S'i22'
p221
sg12
S'i9'
p222
sg13
Nsg14
(lp223
(i__main__
Token
p224
(dp225
g18
I297
sba(i__main__
Token
p226
(dp227
g18
I298
sba(i__main__
Token
p228
(dp229
g18
I299
sba(i__main__
Token
p230
(dp231
g18
I300
sbasg19
I300
sbasg7
g186
sg76
Nsba(i__main__
Chain
p232
(dp233
g3
(lp234
(i__main__
Mention
p235
(dp236
g7
S't6'
p237
sg9
Nsg10
S'i10'
p238
sg12
Nsg13
Nsg14
(lp239
(i__main__
Token
p240
(dp241
g18
I90
sba(i__main__
Token
p242
(dp243
g18
I91
sba(i__main__
Token
p244
(dp245
g18
I92
sba(i__main__
Token
p246
(dp247
g18
I93
sba(i__main__
Token
p248
(dp249
g18
I94
sba(i__main__
Token
p250
(dp251
g18
I95
sba(i__main__
Token
p252
(dp253
g18
I96
sba(i__main__
Token
p254
(dp255
g18
I97
sba(i__main__
Token
p256
(dp257
g18
I98
sba(i__main__
Token
p258
(dp259
g18
I99
sba(i__main__
Token
p260
(dp261
g18
I100
sba(i__main__
Token
p262
(dp263
g18
I101
sba(i__main__
Token
p264
(dp265
g18
I102
sba(i__main__
Token
p266
(dp267
g18
I103
sba(i__main__
Token
p268
(dp269
g18
I104
sba(i__main__
Token
p270
(dp271
g18
I105
sba(i__main__
Token
p272
(dp273
g18
I106
sba(i__main__
Token
p274
(dp275
g18
I107
sba(i__main__
Token
p276
(dp277
g18
I108
sba(i__main__
Token
p278
(dp279
g18
I109
sba(i__main__
Token
p280
(dp281
g18
I110
sbasg19
I110
sba(i__main__
Mention
p282
(dp283
g7
S't6'
p284
sg9
S'Anaphora-E'
p285
sg10
S'i11'
p286
sg12
S'i10'
p287
sg13
Nsg14
(lp288
(i__main__
Token
p289
(dp290
g18
I112
sbasg19
I112
sbasg7
g237
sg76
Nsba(i__main__
Chain
p291
(dp292
g3
(lp293
(i__main__
Mention
p294
(dp295
g7
S't7'
p296
sg9
Nsg10
S'i24'
p297
sg12
Nsg13
Nsg14
(lp298
(i__main__
Token
p299
(dp300
g18
I330
sba(i__main__
Token
p301
(dp302
g18
I331
sba(i__main__
Token
p303
(dp304
g18
I332
sbasg19
I332
sba(i__main__
Mention
p305
(dp306
g7
S't7'
p307
sg9
S'Anaphora-C'
p308
sg10
S'i25'
p309
sg12
S'i24'
p310
sg13
Nsg14
(lp311
(i__main__
Token
p312
(dp313
g18
I344
sbasg19
I344
sbasg7
g296
sg76
Nsba.