(lp0
(i__main__
Chain
p1
(dp2
S'mentionList'
p3
(lp4
(i__main__
Mention
p5
(dp6
S'chainId'
p7
S't1'
p8
sS'relType'
p9
NsS'mentionId'
p10
S'i1'
p11
sS'antecedentId'
p12
NsS'crefMod'
p13
NsS'tokenList'
p14
(lp15
(i__main__
Token
p16
(dp17
S'tokenId'
p18
I0
sbasS'mentionHead'
p19
I0
sba(i__main__
Mention
p20
(dp21
g7
S't1'
p22
sg9
S'Coreference-Identity'
p23
sg10
S'i22'
p24
sg12
S'i1'
p25
sg13
Nsg14
(lp26
(i__main__
Token
p27
(dp28
g18
I83
sbasg19
I83
sba(i__main__
Mention
p29
(dp30
g7
S't1'
p31
sg9
S'Coreference-Identity'
p32
sg10
S'i48'
p33
sg12
S'i22'
p34
sg13
Nsg14
(lp35
(i__main__
Token
p36
(dp37
g18
I199
sbasg19
I199
sba(i__main__
Mention
p38
(dp39
g7
S't1'
p40
sg9
S'Coreference-Identity'
p41
sg10
S'i61'
p42
sg12
S'i48'
p43
sg13
Nsg14
(lp44
(i__main__
Token
p45
(dp46
g18
I276
sbasg19
I276
sbasg7
g8
sS'chainHead'
p47
Nsba(i__main__
Chain
p48
(dp49
g3
(lp50
(i__main__
Mention
p51
(dp52
g7
S't2'
p53
sg9
Nsg10
S'i2'
p54
sg12
Nsg13
Nsg14
(lp55
(i__main__
Token
p56
(dp57
g18
I3
sbasg19
I3
sba(i__main__
Mention
p58
(dp59
g7
S't2'
p60
sg9
S'Coreference-Identity'
p61
sg10
S'i46'
p62
sg12
S'i2'
p63
sg13
Nsg14
(lp64
(i__main__
Token
p65
(dp66
g18
I195
sbasg19
I195
sba(i__main__
Mention
p67
(dp68
g7
S't2'
p69
sg9
S'Coreference-Identity'
p70
sg10
S'i51'
p71
sg12
S'i46'
p72
sg13
Nsg14
(lp73
(i__main__
Token
p74
(dp75
g18
I221
sbasg19
I221
sba(i__main__
Mention
p76
(dp77
g7
S't2'
p78
sg9
S'Coreference-Identity'
p79
sg10
S'i58'
p80
sg12
S'i51'
p81
sg13
Nsg14
(lp82
(i__main__
Token
p83
(dp84
g18
I241
sbasg19
I241
sbasg7
g53
sg47
Nsba(i__main__
Chain
p85
(dp86
g3
(lp87
(i__main__
Mention
p88
(dp89
g7
S't3'
p90
sg9
Nsg10
S'i3'
p91
sg12
Nsg13
Nsg14
(lp92
(i__main__
Token
p93
(dp94
g18
I5
sbasg19
I5
sba(i__main__
Mention
p95
(dp96
g7
S't3'
p97
sg9
S'Coreference-Identity'
p98
sg10
S'i9'
p99
sg12
S'i3'
p100
sg13
Nsg14
(lp101
(i__main__
Token
p102
(dp103
g18
I26
sbasg19
I26
sba(i__main__
Mention
p104
(dp105
g7
S't3'
p106
sg9
S'Coreference-InferedRelation'
p107
sg10
S'i18'
p108
sg12
S'i9'
p109
sg13
Nsg14
(lp110
(i__main__
Token
p111
(dp112
g18
I55
sbasg19
I55
sba(i__main__
Mention
p113
(dp114
g7
S't3'
p115
sg9
S'Coreference-InferedRelation'
p116
sg10
S'i32'
p117
sg12
S'i18'
p118
sg13
Nsg14
(lp119
(i__main__
Token
p120
(dp121
g18
I126
sbasg19
I126
sba(i__main__
Mention
p122
(dp123
g7
S't3'
p124
sg9
S'Coreference-InferedRelation'
p125
sg10
S'i38'
p126
sg12
S'i32'
p127
sg13
Nsg14
(lp128
(i__main__
Token
p129
(dp130
g18
I157
sbasg19
I157
sba(i__main__
Mention
p131
(dp132
g7
S't3'
p133
sg9
S'Coreference-InferedRelation'
p134
sg10
S'i39'
p135
sg12
S'i38'
p136
sg13
Nsg14
(lp137
(i__main__
Token
p138
(dp139
g18
I166
sbasg19
I166
sba(i__main__
Mention
p140
(dp141
g7
S't3'
p142
sg9
S'Coreference-RPartOf'
p143
sg10
S'i43'
p144
sg12
S'i39'
p145
sg13
Nsg14
(lp146
(i__main__
Token
p147
(dp148
g18
I180
sba(i__main__
Token
p149
(dp150
g18
I181
sbasg19
I181
sba(i__main__
Mention
p151
(dp152
g7
S't3'
p153
sg9
S'Coreference-PartOf'
p154
sg10
S'i47'
p155
sg12
S'i43'
p156
sg13
Nsg14
(lp157
(i__main__
Token
p158
(dp159
g18
I197
sbasg19
I197
sbasg7
g90
sg47
Nsba(i__main__
Chain
p160
(dp161
g3
(lp162
(i__main__
Mention
p163
(dp164
g7
S't4'
p165
sg9
Nsg10
S'i4'
p166
sg12
Nsg13
Nsg14
(lp167
(i__main__
Token
p168
(dp169
g18
I7
sbasg19
I7
sba(i__main__
Mention
p170
(dp171
g7
S't4'
p172
sg9
S'Coreference-Identity'
p173
sg10
S'i50'
p174
sg12
S'i4'
p175
sg13
Nsg14
(lp176
(i__main__
Token
p177
(dp178
g18
I209
sbasg19
I209
sba(i__main__
Mention
p179
(dp180
g7
S't4'
p181
sg9
S'Coreference-Identity'
p182
sg10
S'i57'
p183
sg12
S'i50'
p184
sg13
Nsg14
(lp185
(i__main__
Token
p186
(dp187
g18
I238
sbasg19
I238
sbasg7
g165
sg47
Nsba(i__main__
Chain
p188
(dp189
g3
(lp190
(i__main__
Mention
p191
(dp192
g7
S't5'
p193
sg9
Nsg10
S'i5'
p194
sg12
Nsg13
Nsg14
(lp195
(i__main__
Token
p196
(dp197
g18
I18
sbasg19
I18
sba(i__main__
Mention
p198
(dp199
g7
S't5'
p200
sg9
S'Coreference-Identity'
p201
sg10
S'i44'
p202
sg12
S'i5'
p203
sg13
Nsg14
(lp204
(i__main__
Token
p205
(dp206
g18
I183
sbasg19
I183
sba(i__main__
Mention
p207
(dp208
g7
S't5'
p209
sg9
S'Coreference-Identity'
p210
sg10
S'i54'
p211
sg12
S'i44'
p212
sg13
Nsg14
(lp213
(i__main__
Token
p214
(dp215
g18
I232
sbasg19
I232
sba(i__main__
Mention
p216
(dp217
g7
S't5'
p218
sg9
Nsg10
S'i56'
p219
sg12
Nsg13
Nsg14
(lp220
(i__main__
Token
p221
(dp222
g18
I233
sbasg19
Nsbasg7
g193
sg47
Nsba(i__main__
Chain
p223
(dp224
g3
(lp225
(i__main__
Mention
p226
(dp227
g7
S't6'
p228
sg9
Nsg10
S'i6'
p229
sg12
Nsg13
Nsg14
(lp230
(i__main__
Token
p231
(dp232
g18
I20
sbasg19
I20
sba(i__main__
Mention
p233
(dp234
g7
S't6'
p235
sg9
S'Coreference-NounComplement'
p236
sg10
S'i7'
p237
sg12
S'i6'
p238
sg13
Nsg14
(lp239
(i__main__
Token
p240
(dp241
g18
I21
sba(i__main__
Token
p242
(dp243
g18
I22
sbasg19
I22
sba(i__main__
Mention
p244
(dp245
g7
S't6'
p246
sg9
S'Coreference-Identity'
p247
sg10
S'i14'
p248
sg12
S'i7'
p249
sg13
Nsg14
(lp250
(i__main__
Token
p251
(dp252
g18
I36
sbasg19
I36
sba(i__main__
Mention
p253
(dp254
g7
S't6'
p255
sg9
S'Coreference-Identity'
p256
sg10
S'i29'
p257
sg12
S'i14'
p258
sg13
Nsg14
(lp259
(i__main__
Token
p260
(dp261
g18
I119
sbasg19
I119
sba(i__main__
Mention
p262
(dp263
g7
S't6'
p264
sg9
S'Anaphora-C'
p265
sg10
S'i31'
p266
sg12
S'i29'
p267
sg13
Nsg14
(lp268
(i__main__
Token
p269
(dp270
g18
I123
sbasg19
I123
sbasg7
g228
sg47
Nsba(i__main__
Chain
p271
(dp272
g3
(lp273
(i__main__
Mention
p274
(dp275
g7
S't7'
p276
sg9
Nsg10
S'i8'
p277
sg12
Nsg13
Nsg14
(lp278
(i__main__
Token
p279
(dp280
g18
I24
sbasg19
I24
sba(i__main__
Mention
p281
(dp282
g7
S't7'
p283
sg9
S'Coreference-Identity'
p284
sg10
S'i30'
p285
sg12
S'i8'
p286
sg13
Nsg14
(lp287
(i__main__
Token
p288
(dp289
g18
I121
sbasg19
I121
sbasg7
g276
sg47
Nsba(i__main__
Chain
p290
(dp291
g3
(lp292
(i__main__
Mention
p293
(dp294
g7
S't8'
p295
sg9
Nsg10
S'i10'
p296
sg12
Nsg13
Nsg14
(lp297
(i__main__
Token
p298
(dp299
g18
I26
sba(i__main__
Token
p300
(dp301
g18
I27
sbasg19
I27
sba(i__main__
Mention
p302
(dp303
g7
S't8'
p304
sg9
S'Coreference-NounComplement'
p305
sg10
S'i11'
p306
sg12
S'i10'
p307
sg13
Nsg14
(lp308
(i__main__
Token
p309
(dp310
g18
I28
sba(i__main__
Token
p311
(dp312
g18
I29
sbasg19
I29
sba(i__main__
Mention
p313
(dp314
g7
S't8'
p315
sg9
S'Coreference-Identity'
p316
sg10
S'i15'
p317
sg12
S'i11'
p318
sg13
Nsg14
(lp319
(i__main__
Token
p320
(dp321
g18
I38
sbasg19
I38
sba(i__main__
Mention
p322
(dp323
g7
S't8'
p324
sg9
S'Coreference-Noun-Noun'
p325
sg10
S'i33'
p326
sg12
S'i15'
p327
sg13
Nsg14
(lp328
(i__main__
Token
p329
(dp330
g18
I126
sba(i__main__
Token
p331
(dp332
g18
I127
sbasg19
I127
sbasg7
g295
sg47
Nsba(i__main__
Chain
p333
(dp334
g3
(lp335
(i__main__
Mention
p336
(dp337
g7
S't9'
p338
sg9
Nsg10
S'i12'
p339
sg12
Nsg13
Nsg14
(lp340
(i__main__
Token
p341
(dp342
g18
I31
sba(i__main__
Token
p343
(dp344
g18
I32
sbasg19
I32
sba(i__main__
Mention
p345
(dp346
g7
S't9'
p347
sg9
S'Anaphora-C'
p348
sg10
S'i13'
p349
sg12
S'i12'
p350
sg13
Nsg14
(lp351
(i__main__
Token
p352
(dp353
g18
I35
sbasg19
I35
sbasg7
g338
sg47
Nsba(i__main__
Chain
p354
(dp355
g3
(lp356
(i__main__
Mention
p357
(dp358
g7
S't10'
p359
sg9
Nsg10
S'i16'
p360
sg12
Nsg13
Nsg14
(lp361
(i__main__
Token
p362
(dp363
g18
I40
sba(i__main__
Token
p364
(dp365
g18
I41
sbasg19
I41
sba(i__main__
Mention
p366
(dp367
g7
S't10'
p368
sg9
S'Coreference-Identity'
p369
sg10
S'i19'
p370
sg12
S'i16'
p371
sg13
Nsg14
(lp372
(i__main__
Token
p373
(dp374
g18
I69
sbasg19
I69
sba(i__main__
Mention
p375
(dp376
g7
S't10'
p377
sg9
S'Anaphora-C'
p378
sg10
S'i21'
p379
sg12
S'i19'
p380
sg13
Nsg14
(lp381
(i__main__
Token
p382
(dp383
g18
I80
sbasg19
I80
sbasg7
g359
sg47
Nsba(i__main__
Chain
p384
(dp385
g3
(lp386
(i__main__
Mention
p387
(dp388
g7
S't11'
p389
sg9
Nsg10
S'i17'
p390
sg12
Nsg13
Nsg14
(lp391
(i__main__
Token
p392
(dp393
g18
I52
sba(i__main__
Token
p394
(dp395
g18
I53
sbasg19
I53
sba(i__main__
Mention
p396
(dp397
g7
S't11'
p398
sg9
S'Coreference-Identity'
p399
sg10
S'i27'
p400
sg12
S'i17'
p401
sg13
Nsg14
(lp402
(i__main__
Token
p403
(dp404
g18
I104
sba(i__main__
Token
p405
(dp406
g18
I105
sba(i__main__
Token
p407
(dp408
g18
I106
sbasg19
I106
sba(i__main__
Mention
p409
(dp410
g7
S't11'
p411
sg9
S'Coreference-Identity'
p412
sg10
S'i37'
p413
sg12
S'i27'
p414
sg13
Nsg14
(lp415
(i__main__
Token
p416
(dp417
g18
I154
sba(i__main__
Token
p418
(dp419
g18
I155
sbasg19
I155
sbasg7
g389
sg47
Nsba(i__main__
Chain
p420
(dp421
g3
(lp422
(i__main__
Mention
p423
(dp424
g7
S't12'
p425
sg9
Nsg10
S'i20'
p426
sg12
Nsg13
Nsg14
(lp427
(i__main__
Token
p428
(dp429
g18
I69
sba(i__main__
Token
p430
(dp431
g18
I70
sba(i__main__
Token
p432
(dp433
g18
I71
sba(i__main__
Token
p434
(dp435
g18
I72
sba(i__main__
Token
p436
(dp437
g18
I73
sba(i__main__
Token
p438
(dp439
g18
I74
sbasg19
I74
sba(i__main__
Mention
p440
(dp441
g7
S't12'
p442
sg9
S'Coreference-Identity'
p443
sg10
S'i28'
p444
sg12
S'i20'
p445
sg13
Nsg14
(lp446
(i__main__
Token
p447
(dp448
g18
I114
sba(i__main__
Token
p449
(dp450
g18
I115
sbasg19
I115
sbasg7
g425
sg47
Nsba(i__main__
Chain
p451
(dp452
g3
(lp453
(i__main__
Mention
p454
(dp455
g7
S't13'
p456
sg9
Nsg10
S'i23'
p457
sg12
Nsg13
Nsg14
(lp458
(i__main__
Token
p459
(dp460
g18
I83
sba(i__main__
Token
p461
(dp462
g18
I84
sbasg19
I84
sba(i__main__
Mention
p463
(dp464
g7
S't13'
p465
sg9
S'Coreference-Identity'
p466
sg10
S'i62'
p467
sg12
S'i23'
p468
sg13
Nsg14
(lp469
(i__main__
Token
p470
(dp471
g18
I276
sba(i__main__
Token
p472
(dp473
g18
I277
sbasg19
I277
sbasg7
g456
sg47
Nsba(i__main__
Chain
p474
(dp475
g3
(lp476
(i__main__
Mention
p477
(dp478
g7
S't14'
p479
sg9
Nsg10
S'i24'
p480
sg12
Nsg13
Nsg14
(lp481
(i__main__
Token
p482
(dp483
g18
I92
sbasg19
I92
sba(i__main__
Mention
p484
(dp485
g7
S't14'
p486
sg9
S'Coreference-Identity'
p487
sg10
S'i65'
p488
sg12
S'i24'
p489
sg13
Nsg14
(lp490
(i__main__
Token
p491
(dp492
g18
I292
sbasg19
I292
sbasg7
g479
sg47
Nsba(i__main__
Chain
p493
(dp494
g3
(lp495
(i__main__
Mention
p496
(dp497
g7
S't15'
p498
sg9
Nsg10
S'i25'
p499
sg12
Nsg13
Nsg14
(lp500
(i__main__
Token
p501
(dp502
g18
I94
sba(i__main__
Token
p503
(dp504
g18
I95
sba(i__main__
Token
p505
(dp506
g18
I96
sbasg19
I96
sba(i__main__
Mention
p507
(dp508
g7
S't15'
p509
sg9
S'Coreference-NounComplement'
p510
sg10
S'i26'
p511
sg12
S'i25'
p512
sg13
Nsg14
(lp513
(i__main__
Token
p514
(dp515
g18
I97
sba(i__main__
Token
p516
(dp517
g18
I98
sba(i__main__
Token
p518
(dp519
g18
I99
sbasg19
I99
sbasg7
g498
sg47
Nsba(i__main__
Chain
p520
(dp521
g3
(lp522
(i__main__
Mention
p523
(dp524
g7
S't16'
p525
sg9
Nsg10
S'i34'
p526
sg12
Nsg13
Nsg14
(lp527
(i__main__
Token
p528
(dp529
g18
I134
sbasg19
I134
sba(i__main__
Mention
p530
(dp531
g7
S't16'
p532
sg9
S'Coreference-Identity'
p533
sg10
S'i42'
p534
sg12
S'i34'
p535
sg13
Nsg14
(lp536
(i__main__
Token
p537
(dp538
g18
I178
sbasg19
I178
sba(i__main__
Mention
p539
(dp540
g7
S't16'
p541
sg9
S'Coreference-Identity'
p542
sg10
S'i52'
p543
sg12
S'i42'
p544
sg13
Nsg14
(lp545
(i__main__
Token
p546
(dp547
g18
I223
sbasg19
I223
sbasg7
g525
sg47
Nsba(i__main__
Chain
p548
(dp549
g3
(lp550
(i__main__
Mention
p551
(dp552
g7
S't17'
p553
sg9
Nsg10
S'i35'
p554
sg12
Nsg13
Nsg14
(lp555
(i__main__
Token
p556
(dp557
g18
I136
sba(i__main__
Token
p558
(dp559
g18
I137
sba(i__main__
Token
p560
(dp561
g18
I138
sba(i__main__
Token
p562
(dp563
g18
I139
sba(i__main__
Token
p564
(dp565
g18
I140
sba(i__main__
Token
p566
(dp567
g18
I141
sba(i__main__
Token
p568
(dp569
g18
I142
sba(i__main__
Token
p570
(dp571
g18
I143
sba(i__main__
Token
p572
(dp573
g18
I144
sba(i__main__
Token
p574
(dp575
g18
I145
sba(i__main__
Token
p576
(dp577
g18
I146
sba(i__main__
Token
p578
(dp579
g18
I147
sbasg19
I145
sba(i__main__
Mention
p580
(dp581
g7
S't17'
p582
sg9
S'Anaphora-C'
p583
sg10
S'i36'
p584
sg12
S'i35'
p585
sg13
Nsg14
(lp586
(i__main__
Token
p587
(dp588
g18
I149
sbasg19
I149
sbasg7
g553
sg47
Nsba(i__main__
Chain
p589
(dp590
g3
(lp591
(i__main__
Mention
p592
(dp593
g7
S't18'
p594
sg9
Nsg10
S'i40'
p595
sg12
Nsg13
Nsg14
(lp596
(i__main__
Token
p597
(dp598
g18
I170
sba(i__main__
Token
p599
(dp600
g18
I171
sbasg19
I171
sba(i__main__
Mention
p601
(dp602
g7
S't18'
p603
sg9
S'Coreference-NounComplement'
p604
sg10
S'i41'
p605
sg12
S'i40'
p606
sg13
Nsg14
(lp607
(i__main__
Token
p608
(dp609
g18
I172
sba(i__main__
Token
p610
(dp611
g18
I173
sba(i__main__
Token
p612
(dp613
g18
I174
sbasg19
I174
sba(i__main__
Mention
p614
(dp615
g7
S't18'
p616
sg9
S'Anaphora-C'
p617
sg10
S'i45'
p618
sg12
S'i41'
p619
sg13
Nsg14
(lp620
(i__main__
Token
p621
(dp622
g18
I189
sbasg19
I189
sba(i__main__
Mention
p623
(dp624
g7
S't18'
p625
sg9
S'Anaphora-C'
p626
sg10
S'i49'
p627
sg12
S'i45'
p628
sg13
Nsg14
(lp629
(i__main__
Token
p630
(dp631
g18
I206
sbasg19
I206
sbasg7
g594
sg47
Nsba(i__main__
Chain
p632
(dp633
g3
(lp634
(i__main__
Mention
p635
(dp636
g7
S't19'
p637
sg9
Nsg10
S'i53'
p638
sg12
Nsg13
Nsg14
(lp639
(i__main__
Token
p640
(dp641
g18
I230
sbasg19
I230
sba(i__main__
Mention
p642
(dp643
g7
S't19'
p644
sg9
Nsg10
S'i55'
p645
sg12
Nsg13
Nsg14
(lp646
(i__main__
Token
p647
(dp648
g18
I233
sbasg19
Nsba(i__main__
Mention
p649
(dp650
g7
S't19'
p651
sg9
S'Coreference-PartOf'
p652
sg10
S'i68'
p653
sg12
S'i55'
p654
sg13
Nsg14
(lp655
(i__main__
Token
p656
(dp657
g18
I306
sba(i__main__
Token
p658
(dp659
g18
I307
sbasg19
I307
sbasg7
g637
sg47
Nsba(i__main__
Chain
p660
(dp661
g3
(lp662
(i__main__
Mention
p663
(dp664
g7
S't20'
p665
sg9
Nsg10
S'i59'
p666
sg12
Nsg13
Nsg14
(lp667
(i__main__
Token
p668
(dp669
g18
I262
sbasg19
I262
sba(i__main__
Mention
p670
(dp671
g7
S't20'
p672
sg9
S'Coreference-NounComplement'
p673
sg10
S'i60'
p674
sg12
S'i59'
p675
sg13
Nsg14
(lp676
(i__main__
Token
p677
(dp678
g18
I263
sba(i__main__
Token
p679
(dp680
g18
I264
sbasg19
I264
sba(i__main__
Mention
p681
(dp682
g7
S't20'
p683
sg9
S'Anaphora-C'
p684
sg10
S'i64'
p685
sg12
S'i60'
p686
sg13
Nsg14
(lp687
(i__main__
Token
p688
(dp689
g18
I286
sbasg19
I286
sbasg7
g665
sg47
Nsba(i__main__
Chain
p690
(dp691
g3
(lp692
(i__main__
Mention
p693
(dp694
g7
S't21'
p695
sg9
Nsg10
S'i63'
p696
sg12
Nsg13
Nsg14
(lp697
(i__main__
Token
p698
(dp699
g18
I281
sbasg19
I281
sbasg7
g695
sg47
Nsba(i__main__
Chain
p700
(dp701
g3
(lp702
(i__main__
Mention
p703
(dp704
g7
S't22'
p705
sg9
Nsg10
S'i66'
p706
sg12
Nsg13
Nsg14
(lp707
(i__main__
Token
p708
(dp709
g18
I292
sba(i__main__
Token
p710
(dp711
g18
I293
sbasg19
I293
sba(i__main__
Mention
p712
(dp713
g7
S't22'
p714
sg9
S'Coreference-NounComplement'
p715
sg10
S'i67'
p716
sg12
S'i66'
p717
sg13
Nsg14
(lp718
(i__main__
Token
p719
(dp720
g18
I294
sba(i__main__
Token
p721
(dp722
g18
I295
sbasg19
I295
sbasg7
g705
sg47
Nsba.