(lp0
(i__main__
Chain
p1
(dp2
S'mentionList'
p3
(lp4
(i__main__
Mention
p5
(dp6
S'chainId'
p7
S't1'
p8
sS'relType'
p9
NsS'mentionId'
p10
S'i1'
p11
sS'antecedentId'
p12
NsS'crefMod'
p13
NsS'tokenList'
p14
(lp15
(i__main__
Token
p16
(dp17
S'tokenId'
p18
I2
sba(i__main__
Token
p19
(dp20
g18
I3
sbasS'mentionHead'
p21
I3
sba(i__main__
Mention
p22
(dp23
g7
S't1'
p24
sg9
S'Coreference-Identity'
p25
sg10
S'i20'
p26
sg12
S'i1'
p27
sg13
Nsg14
(lp28
(i__main__
Token
p29
(dp30
g18
I134
sba(i__main__
Token
p31
(dp32
g18
I135
sba(i__main__
Token
p33
(dp34
g18
I136
sbasg21
I136
sba(i__main__
Mention
p35
(dp36
g7
S't1'
p37
sg9
S'Coreference-Identity'
p38
sg10
S'i26'
p39
sg12
S'i20'
p40
sg13
Nsg14
(lp41
(i__main__
Token
p42
(dp43
g18
I176
sba(i__main__
Token
p44
(dp45
g18
I177
sbasg21
I177
sba(i__main__
Mention
p46
(dp47
g7
S't1'
p48
sg9
S'Coreference-Identity'
p49
sg10
S'i30'
p50
sg12
S'i26'
p51
sg13
Nsg14
(lp52
(i__main__
Token
p53
(dp54
g18
I196
sba(i__main__
Token
p55
(dp56
g18
I197
sbasg21
I197
sba(i__main__
Mention
p57
(dp58
g7
S't1'
p59
sg9
S'Coreference-Identity'
p60
sg10
S'i36'
p61
sg12
S'i30'
p62
sg13
Nsg14
(lp63
(i__main__
Token
p64
(dp65
g18
I226
sba(i__main__
Token
p66
(dp67
g18
I227
sbasg21
I227
sba(i__main__
Mention
p68
(dp69
g7
S't1'
p70
sg9
S'Coreference-Identity'
p71
sg10
S'i37'
p72
sg12
S'i36'
p73
sg13
Nsg14
(lp74
(i__main__
Token
p75
(dp76
g18
I235
sba(i__main__
Token
p77
(dp78
g18
I236
sbasg21
I236
sbasg7
g8
sS'chainHead'
p79
Nsba(i__main__
Chain
p80
(dp81
g3
(lp82
(i__main__
Mention
p83
(dp84
g7
S't2'
p85
sg9
Nsg10
S'i2'
p86
sg12
Nsg13
Nsg14
(lp87
(i__main__
Token
p88
(dp89
g18
I5
sba(i__main__
Token
p90
(dp91
g18
I6
sbasg21
I6
sba(i__main__
Mention
p92
(dp93
g7
S't2'
p94
sg9
S'Coreference-Identity'
p95
sg10
S'i21'
p96
sg12
S'i2'
p97
sg13
Nsg14
(lp98
(i__main__
Token
p99
(dp100
g18
I141
sba(i__main__
Token
p101
(dp102
g18
I142
sbasg21
I142
sba(i__main__
Mention
p103
(dp104
g7
S't2'
p105
sg9
S'Coreference-Identity'
p106
sg10
S'i39'
p107
sg12
S'i21'
p108
sg13
Nsg14
(lp109
(i__main__
Token
p110
(dp111
g18
I250
sba(i__main__
Token
p112
(dp113
g18
I251
sbasg21
I251
sba(i__main__
Mention
p114
(dp115
g7
S't2'
p116
sg9
S'Anaphora-C'
p117
sg10
S'i41'
p118
sg12
S'i39'
p119
sg13
Nsg14
(lp120
(i__main__
Token
p121
(dp122
g18
I259
sbasg21
I259
sbasg7
g85
sg79
Nsba(i__main__
Chain
p123
(dp124
g3
(lp125
(i__main__
Mention
p126
(dp127
g7
S't3'
p128
sg9
Nsg10
S'i3'
p129
sg12
Nsg13
Nsg14
(lp130
(i__main__
Token
p131
(dp132
g18
I13
sbasg21
I13
sbasg7
g128
sg79
Nsba(i__main__
Chain
p133
(dp134
g3
(lp135
(i__main__
Mention
p136
(dp137
g7
S't4'
p138
sg9
Nsg10
S'i4'
p139
sg12
Nsg13
Nsg14
(lp140
(i__main__
Token
p141
(dp142
g18
I14
sba(i__main__
Token
p143
(dp144
g18
I15
sba(i__main__
Token
p145
(dp146
g18
I16
sbasg21
I16
sba(i__main__
Mention
p147
(dp148
g7
S't4'
p149
sg9
S'Coreference-Bracketed/Abbraviation'
p150
sg10
S'i5'
p151
sg12
S'i1'
p152
sg13
Nsg14
(lp153
(i__main__
Token
p154
(dp155
g18
I18
sbasg21
I18
sba(i__main__
Mention
p156
(dp157
g7
S't4'
p158
sg9
S'Coreference-Noun-Noun'
p159
sg10
S'i6'
p160
sg12
S'i5'
p161
sg13
Nsg14
(lp162
(i__main__
Token
p163
(dp164
g18
I28
sbasg21
I28
sba(i__main__
Mention
p165
(dp166
g7
S't4'
p167
sg9
S'Coreference-Identity'
p168
sg10
S'i8'
p169
sg12
S'i6'
p170
sg13
Nsg14
(lp171
(i__main__
Token
p172
(dp173
g18
I45
sbasg21
I45
sba(i__main__
Mention
p174
(dp175
g7
S't4'
p176
sg9
S'Coreference-Identity'
p177
sg10
S'i14'
p178
sg12
S'i8'
p179
sg13
Nsg14
(lp180
(i__main__
Token
p181
(dp182
g18
I72
sbasg21
I72
sba(i__main__
Mention
p183
(dp184
g7
S't4'
p185
sg9
S'Coreference-Identity'
p186
sg10
S'i16'
p187
sg12
S'i14'
p188
sg13
Nsg14
(lp189
(i__main__
Token
p190
(dp191
g18
I111
sbasg21
I111
sba(i__main__
Mention
p192
(dp193
g7
S't4'
p194
sg9
S'Anaphora-C'
p195
sg10
S'i17'
p196
sg12
S'i16'
p197
sg13
Nsg14
(lp198
(i__main__
Token
p199
(dp200
g18
I112
sbasg21
I112
sba(i__main__
Mention
p201
(dp202
g7
S't4'
p203
sg9
S'Coreference-Identity'
p204
sg10
S'i24'
p205
sg12
S'i17'
p206
sg13
Nsg14
(lp207
(i__main__
Token
p208
(dp209
g18
I160
sbasg21
I160
sba(i__main__
Mention
p210
(dp211
g7
S't4'
p212
sg9
S'Coreference-Identity'
p213
sg10
S'i25'
p214
sg12
S'i24'
p215
sg13
Nsg14
(lp216
(i__main__
Token
p217
(dp218
g18
I166
sba(i__main__
Token
p219
(dp220
g18
I167
sba(i__main__
Token
p221
(dp222
g18
I168
sbasg21
I168
sba(i__main__
Mention
p223
(dp224
g7
S't4'
p225
sg9
S'Coreference-Identity'
p226
sg10
S'i31'
p227
sg12
S'i25'
p228
sg13
Nsg14
(lp229
(i__main__
Token
p230
(dp231
g18
I207
sbasg21
I207
sba(i__main__
Mention
p232
(dp233
g7
S't4'
p234
sg9
S'Coreference-Identity'
p235
sg10
S'i38'
p236
sg12
S'i31'
p237
sg13
Nsg14
(lp238
(i__main__
Token
p239
(dp240
g18
I241
sbasg21
I241
sba(i__main__
Mention
p241
(dp242
g7
S't4'
p243
sg9
S'Coreference-Identity'
p244
sg10
S'i43'
p245
sg12
S'i38'
p246
sg13
Nsg14
(lp247
(i__main__
Token
p248
(dp249
g18
I297
sbasg21
I297
sba(i__main__
Mention
p250
(dp251
g7
S't4'
p252
sg9
S'Coreference-Identity'
p253
sg10
S'i45'
p254
sg12
S'i43'
p255
sg13
Nsg14
(lp256
(i__main__
Token
p257
(dp258
g18
I321
sbasg21
I321
sba(i__main__
Mention
p259
(dp260
g7
S't4'
p261
sg9
S'Anaphora-C'
p262
sg10
S'i47'
p263
sg12
S'i45'
p264
sg13
Nsg14
(lp265
(i__main__
Token
p266
(dp267
g18
I329
sbasg21
I329
sba(i__main__
Mention
p268
(dp269
g7
S't4'
p270
sg9
S'Coreference-Identity'
p271
sg10
S'i52'
p272
sg12
S'i47'
p273
sg13
Nsg14
(lp274
(i__main__
Token
p275
(dp276
g18
I350
sbasg21
I350
sba(i__main__
Mention
p277
(dp278
g7
S't4'
p279
sg9
S'Coreference-Identity'
p280
sg10
S'i61'
p281
sg12
S'i52'
p282
sg13
Nsg14
(lp283
(i__main__
Token
p284
(dp285
g18
I412
sbasg21
I412
sba(i__main__
Mention
p286
(dp287
g7
S't4'
p288
sg9
S'Coreference-Identity'
p289
sg10
S'i62'
p290
sg12
S'i61'
p291
sg13
Nsg14
(lp292
(i__main__
Token
p293
(dp294
g18
I422
sbasg21
I422
sbasg7
g138
sg79
Nsba(i__main__
Chain
p295
(dp296
g3
(lp297
(i__main__
Mention
p298
(dp299
g7
S't5'
p300
sg9
Nsg10
S'i7'
p301
sg12
Nsg13
Nsg14
(lp302
(i__main__
Token
p303
(dp304
g18
I37
sbasg21
I37
sbasg7
g300
sg79
Nsba(i__main__
Chain
p305
(dp306
g3
(lp307
(i__main__
Mention
p308
(dp309
g7
S't6'
p310
sg9
Nsg10
S'i9'
p311
sg12
Nsg13
Nsg14
(lp312
(i__main__
Token
p313
(dp314
g18
I46
sba(i__main__
Token
p315
(dp316
g18
I47
sbasg21
I47
sba(i__main__
Mention
p317
(dp318
g7
S't6'
p319
sg9
S'Anaphora-C'
p320
sg10
S'i11'
p321
sg12
S'i9'
p322
sg13
Nsg14
(lp323
(i__main__
Token
p324
(dp325
g18
I55
sbasg21
I55
sba(i__main__
Mention
p326
(dp327
g7
S't6'
p328
sg9
S'Coreference-Identity'
p329
sg10
S'i22'
p330
sg12
S'i11'
p331
sg13
Nsg14
(lp332
(i__main__
Token
p333
(dp334
g18
I149
sba(i__main__
Token
p335
(dp336
g18
I150
sbasg21
I150
sba(i__main__
Mention
p337
(dp338
g7
S't6'
p339
sg9
S'Coreference-Identity'
p340
sg10
S'i50'
p341
sg12
S'i22'
p342
sg13
Nsg14
(lp343
(i__main__
Token
p344
(dp345
g18
I342
sba(i__main__
Token
p346
(dp347
g18
I343
sbasg21
I343
sba(i__main__
Mention
p348
(dp349
g7
S't6'
p350
sg9
S'Coreference-PartOf'
p351
sg10
S'i55'
p352
sg12
S'i27'
p353
sg13
Nsg14
(lp354
(i__main__
Token
p355
(dp356
g18
I393
sba(i__main__
Token
p357
(dp358
g18
I394
sba(i__main__
Token
p359
(dp360
g18
I395
sbasg21
I395
sba(i__main__
Mention
p361
(dp362
g7
S't6'
p363
sg9
S'Coreference-Identity'
p364
sg10
S'i58'
p365
sg12
S'i55'
p366
sg13
Nsg14
(lp367
(i__main__
Token
p368
(dp369
g18
I404
sba(i__main__
Token
p370
(dp371
g18
I405
sbasg21
I405
sba(i__main__
Mention
p372
(dp373
g7
S't6'
p374
sg9
S'Coreference-Identity'
p375
sg10
S'i68'
p376
sg12
S'i58'
p377
sg13
Nsg14
(lp378
(i__main__
Token
p379
(dp380
g18
I454
sba(i__main__
Token
p381
(dp382
g18
I455
sbasg21
I455
sbasg7
g310
sg79
Nsba(i__main__
Chain
p383
(dp384
g3
(lp385
(i__main__
Mention
p386
(dp387
g7
S't7'
p388
sg9
Nsg10
S'i10'
p389
sg12
Nsg13
Nsg14
(lp390
(i__main__
Token
p391
(dp392
g18
I49
sbasg21
I49
sba(i__main__
Mention
p393
(dp394
g7
S't7'
p395
sg9
S'Coreference-Identity'
p396
sg10
S'i12'
p397
sg12
S'i10'
p398
sg13
Nsg14
(lp399
(i__main__
Token
p400
(dp401
g18
I56
sbasg21
I56
sba(i__main__
Mention
p402
(dp403
g7
S't7'
p404
sg9
S'Coreference-Identity'
p405
sg10
S'i23'
p406
sg12
S'i12'
p407
sg13
Nsg14
(lp408
(i__main__
Token
p409
(dp410
g18
I152
sbasg21
I152
sba(i__main__
Mention
p411
(dp412
g7
S't7'
p413
sg9
S'Coreference-Identity'
p414
sg10
S'i51'
p415
sg12
S'i23'
p416
sg13
Nsg14
(lp417
(i__main__
Token
p418
(dp419
g18
I345
sbasg21
I345
sba(i__main__
Mention
p420
(dp421
g7
S't7'
p422
sg9
S'Coreference-Identity'
p423
sg10
S'i60'
p424
sg12
S'i51'
p425
sg13
Nsg14
(lp426
(i__main__
Token
p427
(dp428
g18
I407
sbasg21
I407
sbasg7
g388
sg79
Nsba(i__main__
Chain
p429
(dp430
g3
(lp431
(i__main__
Mention
p432
(dp433
g7
S't8'
p434
sg9
Nsg10
S'i13'
p435
sg12
Nsg13
Nsg14
(lp436
(i__main__
Token
p437
(dp438
g18
I70
sbasg21
I70
sbasg7
g434
sg79
Nsba(i__main__
Chain
p439
(dp440
g3
(lp441
(i__main__
Mention
p442
(dp443
g7
S't9'
p444
sg9
Nsg10
S'i15'
p445
sg12
Nsg13
Nsg14
(lp446
(i__main__
Token
p447
(dp448
g18
I88
sbasg21
I88
sba(i__main__
Mention
p449
(dp450
g7
S't9'
p451
sg9
S'Coreference-Identity'
p452
sg10
S'i18'
p453
sg12
S'i15'
p454
sg13
Nsg14
(lp455
(i__main__
Token
p456
(dp457
g18
I116
sbasg21
I116
sba(i__main__
Mention
p458
(dp459
g7
S't9'
p460
sg9
S'Coreference-Identity'
p461
sg10
S'i29'
p462
sg12
S'i18'
p463
sg13
Nsg14
(lp464
(i__main__
Token
p465
(dp466
g18
I184
sbasg21
I184
sba(i__main__
Mention
p467
(dp468
g7
S't9'
p469
sg9
S'Coreference-Identity'
p470
sg10
S'i40'
p471
sg12
S'i29'
p472
sg13
Nsg14
(lp473
(i__main__
Token
p474
(dp475
g18
I253
sbasg21
I253
sbasg7
g444
sg79
Nsba(i__main__
Chain
p476
(dp477
g3
(lp478
(i__main__
Mention
p479
(dp480
g7
S't10'
p481
sg9
Nsg10
S'i19'
p482
sg12
Nsg13
Nsg14
(lp483
(i__main__
Token
p484
(dp485
g18
I132
sbasg21
I132
sba(i__main__
Mention
p486
(dp487
g7
S't10'
p488
sg9
S'Coreference-Identity'
p489
sg10
S'i42'
p490
sg12
S'i19'
p491
sg13
Nsg14
(lp492
(i__main__
Token
p493
(dp494
g18
I295
sbasg21
I295
sba(i__main__
Mention
p495
(dp496
g7
S't10'
p497
sg9
S'Anaphora-C'
p498
sg10
S'i44'
p499
sg12
S'i42'
p500
sg13
Nsg14
(lp501
(i__main__
Token
p502
(dp503
g18
I304
sbasg21
I304
sbasg7
g481
sg79
Nsba(i__main__
Chain
p504
(dp505
g3
(lp506
(i__main__
Mention
p507
(dp508
g7
S't11'
p509
sg9
Nsg10
S'i27'
p510
sg12
Nsg13
Nsg14
(lp511
(i__main__
Token
p512
(dp513
g18
I176
sba(i__main__
Token
p514
(dp515
g18
I177
sba(i__main__
Token
p516
(dp517
g18
I178
sba(i__main__
Token
p518
(dp519
g18
I179
sba(i__main__
Token
p520
(dp521
g18
I180
sba(i__main__
Token
p522
(dp523
g18
I181
sba(i__main__
Token
p524
(dp525
g18
I182
sbasg21
I182
sba(i__main__
Mention
p526
(dp527
g7
S't11'
p528
sg9
S'Anaphora-E'
p529
sg10
S'i28'
p530
sg12
S'i27'
p531
sg13
Nsg14
(lp532
(i__main__
Token
p533
(dp534
g18
I183
sbasg21
I183
sbasg7
g509
sg79
Nsba(i__main__
Chain
p535
(dp536
g3
(lp537
(i__main__
Mention
p538
(dp539
g7
S't12'
p540
sg9
Nsg10
S'i32'
p541
sg12
Nsg13
Nsg14
(lp542
(i__main__
Token
p543
(dp544
g18
I209
sba(i__main__
Token
p545
(dp546
g18
I210
sbasg21
I210
sba(i__main__
Mention
p547
(dp548
g7
S't12'
p549
sg9
Nsg10
S'i34'
p550
sg12
Nsg13
Nsg14
(lp551
(i__main__
Token
p552
(dp553
g18
I221
sbasg21
Nsbasg7
g540
sg79
Nsba(i__main__
Chain
p554
(dp555
g3
(lp556
(i__main__
Mention
p557
(dp558
g7
S't13'
p559
sg9
Nsg10
S'i33'
p560
sg12
Nsg13
Nsg14
(lp561
(i__main__
Token
p562
(dp563
g18
I212
sba(i__main__
Token
p564
(dp565
g18
I213
sba(i__main__
Token
p566
(dp567
g18
I214
sbasg21
I214
sba(i__main__
Mention
p568
(dp569
g7
S't13'
p570
sg9
Nsg10
S'i35'
p571
sg12
Nsg13
Nsg14
(lp572
(i__main__
Token
p573
(dp574
g18
I221
sbasg21
Nsbasg7
g559
sg79
Nsba(i__main__
Chain
p575
(dp576
g3
(lp577
(i__main__
Mention
p578
(dp579
g7
S't14'
p580
sg9
Nsg10
S'i46'
p581
sg12
Nsg13
Nsg14
(lp582
(i__main__
Token
p583
(dp584
g18
I321
sba(i__main__
Token
p585
(dp586
g18
I322
sba(i__main__
Token
p587
(dp588
g18
I323
sba(i__main__
Token
p589
(dp590
g18
I324
sba(i__main__
Token
p591
(dp592
g18
I325
sba(i__main__
Token
p593
(dp594
g18
I326
sba(i__main__
Token
p595
(dp596
g18
I327
sba(i__main__
Token
p597
(dp598
g18
I328
sba(i__main__
Token
p599
(dp600
g18
I329
sba(i__main__
Token
p601
(dp602
g18
I330
sba(i__main__
Token
p603
(dp604
g18
I331
sba(i__main__
Token
p605
(dp606
g18
I332
sba(i__main__
Token
p607
(dp608
g18
I333
sba(i__main__
Token
p609
(dp610
g18
I334
sba(i__main__
Token
p611
(dp612
g18
I335
sbasg21
I335
sba(i__main__
Mention
p613
(dp614
g7
S't14'
p615
sg9
S'Anaphora-E'
p616
sg10
S'i48'
p617
sg12
S'i46'
p618
sg13
Nsg14
(lp619
(i__main__
Token
p620
(dp621
g18
I337
sbasg21
I337
sbasg7
g580
sg79
Nsba(i__main__
Chain
p622
(dp623
g3
(lp624
(i__main__
Mention
p625
(dp626
g7
S't15'
p627
sg9
Nsg10
S'i49'
p628
sg12
Nsg13
Nsg14
(lp629
(i__main__
Token
p630
(dp631
g18
I339
sbasg21
I339
sba(i__main__
Mention
p632
(dp633
g7
S't15'
p634
sg9
S'Coreference-Identity'
p635
sg10
S'i53'
p636
sg12
S'i49'
p637
sg13
Nsg14
(lp638
(i__main__
Token
p639
(dp640
g18
I356
sba(i__main__
Token
p641
(dp642
g18
I357
sbasg21
I357
sba(i__main__
Mention
p643
(dp644
g7
S't15'
p645
sg9
S'Coreference-PartOf'
p646
sg10
S'i54'
p647
sg12
S'i53'
p648
sg13
Nsg14
(lp649
(i__main__
Token
p650
(dp651
g18
I373
sbasg21
I373
sba(i__main__
Mention
p652
(dp653
g7
S't15'
p654
sg9
S'Coreference-Identity'
p655
sg10
S'i57'
p656
sg12
S'i54'
p657
sg13
Nsg14
(lp658
(i__main__
Token
p659
(dp660
g18
I399
sbasg21
I399
sba(i__main__
Mention
p661
(dp662
g7
S't15'
p663
sg9
S'Coreference-Identity'
p664
sg10
S'i66'
p665
sg12
S'i57'
p666
sg13
Nsg14
(lp667
(i__main__
Token
p668
(dp669
g18
I436
sbasg21
I436
sba(i__main__
Mention
p670
(dp671
g7
S't15'
p672
sg9
S'Coreference-Identity'
p673
sg10
S'i67'
p674
sg12
S'i66'
p675
sg13
Nsg14
(lp676
(i__main__
Token
p677
(dp678
g18
I442
sbasg21
I442
sbasg7
g627
sg79
Nsba(i__main__
Chain
p679
(dp680
g3
(lp681
(i__main__
Mention
p682
(dp683
g7
S't16'
p684
sg9
Nsg10
S'i59'
p685
sg12
Nsg13
Nsg14
(lp686
(i__main__
Token
p687
(dp688
g18
I404
sba(i__main__
Token
p689
(dp690
g18
I405
sba(i__main__
Token
p691
(dp692
g18
I406
sba(i__main__
Token
p693
(dp694
g18
I407
sba(i__main__
Token
p695
(dp696
g18
I408
sba(i__main__
Token
p697
(dp698
g18
I409
sbasg21
I409
sba(i__main__
Mention
p699
(dp700
g7
S't16'
p701
sg9
S'Anaphora-C'
p702
sg10
S'i63'
p703
sg12
S'i59'
p704
sg13
Nsg14
(lp705
(i__main__
Token
p706
(dp707
g18
I424
sbasg21
I424
sbasg7
g684
sg79
Nsba(i__main__
Chain
p708
(dp709
g3
(lp710
(i__main__
Mention
p711
(dp712
g7
S't17'
p713
sg9
Nsg10
S'i64'
p714
sg12
Nsg13
Nsg14
(lp715
(i__main__
Token
p716
(dp717
g18
I426
sba(i__main__
Token
p718
(dp719
g18
I427
sbasg21
I427
sba(i__main__
Mention
p720
(dp721
g7
S't17'
p722
sg9
S'Anaphora-C'
p723
sg10
S'i65'
p724
sg12
S'i64'
p725
sg13
Nsg14
(lp726
(i__main__
Token
p727
(dp728
g18
I430
sbasg21
I430
sbasg7
g713
sg79
Nsba.