(lp0
(i__main__
Chain
p1
(dp2
S'mentionList'
p3
(lp4
(i__main__
Mention
p5
(dp6
S'chainId'
p7
S't1'
p8
sS'relType'
p9
NsS'mentionId'
p10
S'i1'
p11
sS'antecedentId'
p12
NsS'crefMod'
p13
NsS'tokenList'
p14
(lp15
(i__main__
Token
p16
(dp17
S'tokenId'
p18
I0
sbasS'mentionHead'
p19
I0
sba(i__main__
Mention
p20
(dp21
g7
S't1'
p22
sg9
S'Coreference-Identity'
p23
sg10
S'i6'
p24
sg12
S'i1'
p25
sg13
Nsg14
(lp26
(i__main__
Token
p27
(dp28
g18
I20
sbasg19
I20
sba(i__main__
Mention
p29
(dp30
g7
S't1'
p31
sg9
S'Coreference-Identity'
p32
sg10
S'i18'
p33
sg12
S'i6'
p34
sg13
Nsg14
(lp35
(i__main__
Token
p36
(dp37
g18
I86
sbasg19
I86
sbasg7
g8
sS'chainHead'
p38
Nsba(i__main__
Chain
p39
(dp40
g3
(lp41
(i__main__
Mention
p42
(dp43
g7
S't2'
p44
sg9
S'anaphora-?'
p45
sg10
S'i2'
p46
sg12
S'i3'
p47
sg13
Nsg14
(lp48
(i__main__
Token
p49
(dp50
g18
I3
sbasg19
I3
sbasg7
g44
sg38
Nsba(i__main__
Chain
p51
(dp52
g3
(lp53
(i__main__
Mention
p54
(dp55
g7
S't3'
p56
sg9
Nsg10
S'i4'
p57
sg12
Nsg13
Nsg14
(lp58
(i__main__
Token
p59
(dp60
g18
I8
sbasg19
I8
sba(i__main__
Mention
p61
(dp62
g7
S't3'
p63
sg9
S'Coreference-Identity'
p64
sg10
S'i7'
p65
sg12
S'i4'
p66
sg13
Nsg14
(lp67
(i__main__
Token
p68
(dp69
g18
I24
sbasg19
I24
sba(i__main__
Mention
p70
(dp71
g7
S't3'
p72
sg9
S'Coreference-InferedRelation'
p73
sg10
S'i15'
p74
sg12
S'i7'
p75
sg13
Nsg14
(lp76
(i__main__
Token
p77
(dp78
g18
I62
sbasg19
I62
sbasg7
g56
sg38
Nsba(i__main__
Chain
p79
(dp80
g3
(lp81
(i__main__
Mention
p82
(dp83
g7
S't4'
p84
sg9
Nsg10
S'i5'
p85
sg12
Nsg13
Nsg14
(lp86
(i__main__
Token
p87
(dp88
g18
I18
sba(i__main__
Token
p89
(dp90
g18
I19
sba(i__main__
Token
p91
(dp92
g18
I20
sba(i__main__
Token
p93
(dp94
g18
I21
sba(i__main__
Token
p95
(dp96
g18
I22
sba(i__main__
Token
p97
(dp98
g18
I23
sba(i__main__
Token
p99
(dp100
g18
I24
sba(i__main__
Token
p101
(dp102
g18
I25
sba(i__main__
Token
p103
(dp104
g18
I26
sba(i__main__
Token
p105
(dp106
g18
I27
sba(i__main__
Token
p107
(dp108
g18
I28
sba(i__main__
Token
p109
(dp110
g18
I29
sba(i__main__
Token
p111
(dp112
g18
I30
sba(i__main__
Token
p113
(dp114
g18
I31
sba(i__main__
Token
p115
(dp116
g18
I32
sba(i__main__
Token
p117
(dp118
g18
I33
sba(i__main__
Token
p119
(dp120
g18
I34
sba(i__main__
Token
p121
(dp122
g18
I35
sba(i__main__
Token
p123
(dp124
g18
I36
sba(i__main__
Token
p125
(dp126
g18
I37
sba(i__main__
Token
p127
(dp128
g18
I38
sba(i__main__
Token
p129
(dp130
g18
I39
sbasg19
I38
sba(i__main__
Mention
p131
(dp132
g7
S't4'
p133
sg9
S'Coreference-Noun-Noun'
p134
sg10
S'i12'
p135
sg12
S'i5'
p136
sg13
Nsg14
(lp137
(i__main__
Token
p138
(dp139
g18
I45
sba(i__main__
Token
p140
(dp141
g18
I46
sbasg19
I46
sbasg7
g84
sg38
Nsba(i__main__
Chain
p142
(dp143
g3
(lp144
(i__main__
Mention
p145
(dp146
g7
S't5'
p147
sg9
Nsg10
S'i8'
p148
sg12
Nsg13
Nsg14
(lp149
(i__main__
Token
p150
(dp151
g18
I26
sba(i__main__
Token
p152
(dp153
g18
I27
sbasg19
I27
sba(i__main__
Mention
p154
(dp155
g7
S't5'
p156
sg9
S'Anaphora-C'
p157
sg10
S'i9'
p158
sg12
S'i8'
p159
sg13
Nsg14
(lp160
(i__main__
Token
p161
(dp162
g18
I29
sbasg19
I29
sba(i__main__
Mention
p163
(dp164
g7
S't5'
p165
sg9
S'Coreference-Noun-Noun'
p166
sg10
S'i16'
p167
sg12
S'i9'
p168
sg13
Nsg14
(lp169
(i__main__
Token
p170
(dp171
g18
I81
sba(i__main__
Token
p172
(dp173
g18
I82
sbasg19
I82
sba(i__main__
Mention
p174
(dp175
g7
S't5'
p176
sg9
S'Coreference-Apposition'
p177
sg10
S'i17'
p178
sg12
S'i16'
p179
sg13
Nsg14
(lp180
(i__main__
Token
p181
(dp182
g18
I84
sbasg19
I84
sba(i__main__
Mention
p183
(dp184
g7
S't5'
p185
sg9
S'Anaphora-C'
p186
sg10
S'i19'
p187
sg12
S'i17'
p188
sg13
Nsg14
(lp189
(i__main__
Token
p190
(dp191
g18
I90
sbasg19
I90
sba(i__main__
Mention
p192
(dp193
g7
S't5'
p194
sg9
S'Anaphora-C'
p195
sg10
S'i22'
p196
sg12
S'i19'
p197
sg13
Nsg14
(lp198
(i__main__
Token
p199
(dp200
g18
I97
sbasg19
I97
sba(i__main__
Mention
p201
(dp202
g7
S't5'
p203
sg9
S'Anaphora-C'
p204
sg10
S'i25'
p205
sg12
S'i22'
p206
sg13
Nsg14
(lp207
(i__main__
Token
p208
(dp209
g18
I104
sbasg19
I104
sba(i__main__
Mention
p210
(dp211
g7
S't5'
p212
sg9
S'Anaphora-C'
p213
sg10
S'i28'
p214
sg12
S'i25'
p215
sg13
Nsg14
(lp216
(i__main__
Token
p217
(dp218
g18
I107
sbasg19
I107
sba(i__main__
Mention
p219
(dp220
g7
S't5'
p221
sg9
S'Anaphora-C'
p222
sg10
S'i30'
p223
sg12
S'i28'
p224
sg13
Nsg14
(lp225
(i__main__
Token
p226
(dp227
g18
I118
sbasg19
I118
sba(i__main__
Mention
p228
(dp229
g7
S't5'
p230
sg9
S'Coreference-Noun-Noun'
p231
sg10
S'i31'
p232
sg12
S'i30'
p233
sg13
Nsg14
(lp234
(i__main__
Token
p235
(dp236
g18
I131
sbasg19
I131
sba(i__main__
Mention
p237
(dp238
g7
S't5'
p239
sg9
S'Coreference-Noun-Noun'
p240
sg10
S'i32'
p241
sg12
S'i31'
p242
sg13
Nsg14
(lp243
(i__main__
Token
p244
(dp245
g18
I150
sba(i__main__
Token
p246
(dp247
g18
I151
sbasg19
I151
sba(i__main__
Mention
p248
(dp249
g7
S't5'
p250
sg9
S'Anaphora-C'
p251
sg10
S'i33'
p252
sg12
S'i32'
p253
sg13
Nsg14
(lp254
(i__main__
Token
p255
(dp256
g18
I157
sbasg19
I157
sba(i__main__
Mention
p257
(dp258
g7
S't5'
p259
sg9
S'Anaphora-C'
p260
sg10
S'i35'
p261
sg12
S'i33'
p262
sg13
Nsg14
(lp263
(i__main__
Token
p264
(dp265
g18
I165
sbasg19
I165
sba(i__main__
Mention
p266
(dp267
g7
S't5'
p268
sg9
S'Anaphora-C'
p269
sg10
S'i36'
p270
sg12
S'i35'
p271
sg13
Nsg14
(lp272
(i__main__
Token
p273
(dp274
g18
I166
sbasg19
I166
sba(i__main__
Mention
p275
(dp276
g7
S't5'
p277
sg9
S'Anaphora-C'
p278
sg10
S'i42'
p279
sg12
S'i36'
p280
sg13
Nsg14
(lp281
(i__main__
Token
p282
(dp283
g18
I186
sbasg19
I186
sba(i__main__
Mention
p284
(dp285
g7
S't5'
p286
sg9
S'Anaphora-C'
p287
sg10
S'i43'
p288
sg12
S'i42'
p289
sg13
Nsg14
(lp290
(i__main__
Token
p291
(dp292
g18
I191
sbasg19
I191
sba(i__main__
Mention
p293
(dp294
g7
S't5'
p295
sg9
S'Anaphora-C'
p296
sg10
S'i44'
p297
sg12
S'i43'
p298
sg13
Nsg14
(lp299
(i__main__
Token
p300
(dp301
g18
I198
sbasg19
I198
sbasg7
g147
sg38
Nsba(i__main__
Chain
p302
(dp303
g3
(lp304
(i__main__
Mention
p305
(dp306
g7
S't6'
p307
sg9
Nsg10
S'i10'
p308
sg12
Nsg13
Nsg14
(lp309
(i__main__
Token
p310
(dp311
g18
I30
sba(i__main__
Token
p312
(dp313
g18
I31
sbasg19
I31
sba(i__main__
Mention
p314
(dp315
g7
S't6'
p316
sg9
S'Coreference-Identity'
p317
sg10
S'i20'
p318
sg12
S'i10'
p319
sg13
Nsg14
(lp320
(i__main__
Token
p321
(dp322
g18
I91
sbasg19
I91
sba(i__main__
Mention
p323
(dp324
g7
S't6'
p325
sg9
S'Coreference-Noun-Noun'
p326
sg10
S'i34'
p327
sg12
S'i20'
p328
sg13
Nsg14
(lp329
(i__main__
Token
p330
(dp331
g18
I158
sba(i__main__
Token
p332
(dp333
g18
I159
sbasg19
I159
sba(i__main__
Mention
p334
(dp335
g7
S't6'
p336
sg9
S'Coreference-Noun-Noun'
p337
sg10
S'i37'
p338
sg12
S'i34'
p339
sg13
Nsg14
(lp340
(i__main__
Token
p341
(dp342
g18
I167
sbasg19
I167
sbasg7
g307
sg38
Nsba(i__main__
Chain
p343
(dp344
g3
(lp345
(i__main__
Mention
p346
(dp347
g7
S't7'
p348
sg9
Nsg10
S'i11'
p349
sg12
Nsg13
Nsg14
(lp350
(i__main__
Token
p351
(dp352
g18
I34
sba(i__main__
Token
p353
(dp354
g18
I35
sbasg19
I35
sba(i__main__
Mention
p355
(dp356
g7
S't7'
p357
sg9
S'Coreference-Identity'
p358
sg10
S'i39'
p359
sg12
S'i11'
p360
sg13
Nsg14
(lp361
(i__main__
Token
p362
(dp363
g18
I176
sba(i__main__
Token
p364
(dp365
g18
I177
sbasg19
I177
sbasg7
g348
sg38
Nsba(i__main__
Chain
p366
(dp367
g3
(lp368
(i__main__
Mention
p369
(dp370
g7
S't8'
p371
sg9
Nsg10
S'i13'
p372
sg12
Nsg13
Nsg14
(lp373
(i__main__
Token
p374
(dp375
g18
I51
sba(i__main__
Token
p376
(dp377
g18
I52
sba(i__main__
Token
p378
(dp379
g18
I53
sba(i__main__
Token
p380
(dp381
g18
I54
sba(i__main__
Token
p382
(dp383
g18
I55
sbasg19
I55
sba(i__main__
Mention
p384
(dp385
g7
S't8'
p386
sg9
S'Coreference-Identity'
p387
sg10
S'i38'
p388
sg12
S'i13'
p389
sg13
Nsg14
(lp390
(i__main__
Token
p391
(dp392
g18
I168
sba(i__main__
Token
p393
(dp394
g18
I169
sba(i__main__
Token
p395
(dp396
g18
I170
sbasg19
I170
sbasg7
g371
sg38
Nsba(i__main__
Chain
p397
(dp398
g3
(lp399
(i__main__
Mention
p400
(dp401
g7
S't9'
p402
sg9
S'anaphora-?'
p403
sg10
S'i14'
p404
sg12
S'i14'
p405
sg13
Nsg14
(lp406
(i__main__
Token
p407
(dp408
g18
I57
sbasg19
I57
sbasg7
g402
sg38
Nsba(i__main__
Chain
p409
(dp410
g3
(lp411
(i__main__
Mention
p412
(dp413
g7
S't10'
p414
sg9
Nsg10
S'i21'
p415
sg12
Nsg13
Nsg14
(lp416
(i__main__
Token
p417
(dp418
g18
I96
sbasg19
I96
sba(i__main__
Mention
p419
(dp420
g7
S't10'
p421
sg9
S'Anaphora-RT'
p422
sg10
S'i23'
p423
sg12
S'i21'
p424
sg13
Nsg14
(lp425
(i__main__
Token
p426
(dp427
g18
I97
sba(i__main__
Token
p428
(dp429
g18
I98
sba(i__main__
Token
p430
(dp431
g18
I99
sba(i__main__
Token
p432
(dp433
g18
I100
sba(i__main__
Token
p434
(dp435
g18
I101
sba(i__main__
Token
p436
(dp437
g18
I102
sbasg19
I100
sbasg7
g414
sg38
Nsba(i__main__
Chain
p438
(dp439
g3
(lp440
(i__main__
Mention
p441
(dp442
g7
S't11'
p443
sg9
S'anaphora-?'
p444
sg10
S'i24'
p445
sg12
S'i24'
p446
sg13
Nsg14
(lp447
(i__main__
Token
p448
(dp449
g18
I103
sbasg19
I103
sbasg7
g443
sg38
Nsba(i__main__
Chain
p450
(dp451
g3
(lp452
(i__main__
Mention
p453
(dp454
g7
S't12'
p455
sg9
Nsg10
S'i26'
p456
sg12
Nsg13
Nsg14
(lp457
(i__main__
Token
p458
(dp459
g18
I104
sba(i__main__
Token
p460
(dp461
g18
I105
sba(i__main__
Token
p462
(dp463
g18
I106
sba(i__main__
Token
p464
(dp465
g18
I107
sba(i__main__
Token
p466
(dp467
g18
I108
sba(i__main__
Token
p468
(dp469
g18
I109
sba(i__main__
Token
p470
(dp471
g18
I110
sba(i__main__
Token
p472
(dp473
g18
I111
sbasg19
I109
sba(i__main__
Mention
p474
(dp475
g7
S't12'
p476
sg9
S'Anaphora-E'
p477
sg10
S'i29'
p478
sg12
S'i26'
p479
sg13
Nsg14
(lp480
(i__main__
Token
p481
(dp482
g18
I113
sbasg19
I113
sbasg7
g455
sg38
Nsba(i__main__
Chain
p483
(dp484
g3
(lp485
(i__main__
Mention
p486
(dp487
g7
S't13'
p488
sg9
Nsg10
S'i27'
p489
sg12
Nsg13
Nsg14
(lp490
(i__main__
Token
p491
(dp492
g18
I105
sbasg19
I105
sba(i__main__
Mention
p493
(dp494
g7
S't13'
p495
sg9
S'Coreference-Identity'
p496
sg10
S'i40'
p497
sg12
S'i27'
p498
sg13
Nsg14
(lp499
(i__main__
Token
p500
(dp501
g18
I184
sbasg19
I184
sba(i__main__
Mention
p502
(dp503
g7
S't13'
p504
sg9
S'Coreference-NounComplement'
p505
sg10
S'i41'
p506
sg12
S'i40'
p507
sg13
Nsg14
(lp508
(i__main__
Token
p509
(dp510
g18
I185
sbasg19
I185
sba(i__main__
Mention
p511
(dp512
g7
S't13'
p513
sg9
S'Coreference-Identity'
p514
sg10
S'i49'
p515
sg12
S'i41'
p516
sg13
Nsg14
(lp517
(i__main__
Token
p518
(dp519
g18
I218
sbasg19
I218
sbasg7
g488
sg38
Nsba(i__main__
Chain
p520
(dp521
g3
(lp522
(i__main__
Mention
p523
(dp524
g7
S't14'
p525
sg9
Nsg10
S'i45'
p526
sg12
Nsg13
Nsg14
(lp527
(i__main__
Token
p528
(dp529
g18
I199
sba(i__main__
Token
p530
(dp531
g18
I200
sbasg19
I200
sba(i__main__
Mention
p532
(dp533
g7
S't14'
p534
sg9
S'Coreference-NounComplement'
p535
sg10
S'i46'
p536
sg12
S'i45'
p537
sg13
Nsg14
(lp538
(i__main__
Token
p539
(dp540
g18
I201
sbasg19
I201
sbasg7
g525
sg38
Nsba(i__main__
Chain
p541
(dp542
g3
(lp543
(i__main__
Mention
p544
(dp545
g7
S't15'
p546
sg9
Nsg10
S'i47'
p547
sg12
Nsg13
Nsg14
(lp548
(i__main__
Token
p549
(dp550
g18
I208
sbasg19
I208
sba(i__main__
Mention
p551
(dp552
g7
S't15'
p553
sg9
S'Coreference-NounComplement'
p554
sg10
S'i48'
p555
sg12
S'i47'
p556
sg13
Nsg14
(lp557
(i__main__
Token
p558
(dp559
g18
I209
sbasg19
I209
sba(i__main__
Mention
p560
(dp561
g7
S't15'
p562
sg9
S'Coreference-Identity'
p563
sg10
S'i50'
p564
sg12
S'i48'
p565
sg13
Nsg14
(lp566
(i__main__
Token
p567
(dp568
g18
I231
sbasg19
I231
sbasg7
g546
sg38
Nsba(i__main__
Chain
p569
(dp570
g3
(lp571
(i__main__
Mention
p572
(dp573
g7
S't16'
p574
sg9
Nsg10
S'i51'
p575
sg12
Nsg13
Nsg14
(lp576
(i__main__
Token
p577
(dp578
g18
I242
sba(i__main__
Token
p579
(dp580
g18
I243
sba(i__main__
Token
p581
(dp582
g18
I244
sbasg19
I244
sba(i__main__
Mention
p583
(dp584
g7
S't16'
p585
sg9
S'Anaphora-C'
p586
sg10
S'i52'
p587
sg12
S'i51'
p588
sg13
Nsg14
(lp589
(i__main__
Token
p590
(dp591
g18
I258
sbasg19
I258
sbasg7
g574
sg38
Nsba.