(lp0
(i__main__
Chain
p1
(dp2
S'mentionList'
p3
(lp4
(i__main__
Mention
p5
(dp6
S'chainId'
p7
S't1'
p8
sS'relType'
p9
NsS'mentionId'
p10
S'i1'
p11
sS'antecedentId'
p12
NsS'crefMod'
p13
NsS'tokenList'
p14
(lp15
(i__main__
Token
p16
(dp17
S'tokenId'
p18
I0
sbasS'mentionHead'
p19
I0
sba(i__main__
Mention
p20
(dp21
g7
S't1'
p22
sg9
S'Coreference-InferedRelation'
p23
sg10
S'i11'
p24
sg12
S'i1'
p25
sg13
Nsg14
(lp26
(i__main__
Token
p27
(dp28
g18
I44
sbasg19
I44
sbasg7
g8
sS'chainHead'
p29
Nsba(i__main__
Chain
p30
(dp31
g3
(lp32
(i__main__
Mention
p33
(dp34
g7
S't2'
p35
sg9
Nsg10
S'i2'
p36
sg12
Nsg13
Nsg14
(lp37
(i__main__
Token
p38
(dp39
g18
I2
sba(i__main__
Token
p40
(dp41
g18
I3
sbasg19
I3
sba(i__main__
Mention
p42
(dp43
g7
S't2'
p44
sg9
S'Coreference-Identity'
p45
sg10
S'i12'
p46
sg12
S'i2'
p47
sg13
Nsg14
(lp48
(i__main__
Token
p49
(dp50
g18
I46
sba(i__main__
Token
p51
(dp52
g18
I47
sbasg19
I47
sba(i__main__
Mention
p53
(dp54
g7
S't2'
p55
sg9
S'Coreference-Identity'
p56
sg10
S'i23'
p57
sg12
S'i12'
p58
sg13
Nsg14
(lp59
(i__main__
Token
p60
(dp61
g18
I96
sbasg19
I96
sba(i__main__
Mention
p62
(dp63
g7
S't2'
p64
sg9
S'Coreference-Identity'
p65
sg10
S'i31'
p66
sg12
S'i23'
p67
sg13
Nsg14
(lp68
(i__main__
Token
p69
(dp70
g18
I144
sbasg19
I144
sbasg7
g35
sg29
Nsba(i__main__
Chain
p71
(dp72
g3
(lp73
(i__main__
Mention
p74
(dp75
g7
S't3'
p76
sg9
Nsg10
S'i3'
p77
sg12
Nsg13
Nsg14
(lp78
(i__main__
Token
p79
(dp80
g18
I5
sba(i__main__
Token
p81
(dp82
g18
I6
sbasg19
I6
sba(i__main__
Mention
p83
(dp84
g7
S't3'
p85
sg9
S'Coreference-NounComplement'
p86
sg10
S'i4'
p87
sg12
S'i3'
p88
sg13
Nsg14
(lp89
(i__main__
Token
p90
(dp91
g18
I7
sba(i__main__
Token
p92
(dp93
g18
I8
sbasg19
I8
sba(i__main__
Mention
p94
(dp95
g7
S't3'
p96
sg9
S'Anaphora-C'
p97
sg10
S'i7'
p98
sg12
S'i4'
p99
sg13
Nsg14
(lp100
(i__main__
Token
p101
(dp102
g18
I21
sbasg19
I21
sba(i__main__
Mention
p103
(dp104
g7
S't3'
p105
sg9
S'Anaphora-C'
p106
sg10
S'i9'
p107
sg12
S'i7'
p108
sg13
Nsg14
(lp109
(i__main__
Token
p110
(dp111
g18
I30
sbasg19
I30
sba(i__main__
Mention
p112
(dp113
g7
S't3'
p114
sg9
S'Anaphora-C'
p115
sg10
S'i10'
p116
sg12
S'i9'
p117
sg13
Nsg14
(lp118
(i__main__
Token
p119
(dp120
g18
I35
sbasg19
I35
sba(i__main__
Mention
p121
(dp122
g7
S't3'
p123
sg9
S'Coreference-Identity'
p124
sg10
S'i15'
p125
sg12
S'i10'
p126
sg13
Nsg14
(lp127
(i__main__
Token
p128
(dp129
g18
I53
sba(i__main__
Token
p130
(dp131
g18
I54
sbasg19
I54
sba(i__main__
Mention
p132
(dp133
g7
S't3'
p134
sg9
S'Anaphora-C'
p135
sg10
S'i17'
p136
sg12
S'i15'
p137
sg13
Nsg14
(lp138
(i__main__
Token
p139
(dp140
g18
I58
sbasg19
I58
sba(i__main__
Mention
p141
(dp142
g7
S't3'
p143
sg9
S'Anaphora-C'
p144
sg10
S'i22'
p145
sg12
S'i17'
p146
sg13
Nsg14
(lp147
(i__main__
Token
p148
(dp149
g18
I88
sbasg19
I88
sba(i__main__
Mention
p150
(dp151
g7
S't3'
p152
sg9
S'Coreference-Noun-Noun'
p153
sg10
S'i27'
p154
sg12
S'i22'
p155
sg13
Nsg14
(lp156
(i__main__
Token
p157
(dp158
g18
I131
sbasg19
I131
sba(i__main__
Mention
p159
(dp160
g7
S't3'
p161
sg9
S'Coreference-NounComplement'
p162
sg10
S'i28'
p163
sg12
S'i27'
p164
sg13
Nsg14
(lp165
(i__main__
Token
p166
(dp167
g18
I132
sba(i__main__
Token
p168
(dp169
g18
I133
sbasg19
I133
sba(i__main__
Mention
p170
(dp171
g7
S't3'
p172
sg9
S'Coreference-Identity'
p173
sg10
S'i34'
p174
sg12
S'i28'
p175
sg13
Nsg14
(lp176
(i__main__
Token
p177
(dp178
g18
I157
sbasg19
I157
sba(i__main__
Mention
p179
(dp180
g7
S't3'
p181
sg9
S'Coreference-Identity'
p182
sg10
S'i38'
p183
sg12
S'i34'
p184
sg13
Nsg14
(lp185
(i__main__
Token
p186
(dp187
g18
I167
sbasg19
I167
sbasg7
g76
sg29
Nsba(i__main__
Chain
p188
(dp189
g3
(lp190
(i__main__
Mention
p191
(dp192
g7
S't4'
p193
sg9
Nsg10
S'i5'
p194
sg12
Nsg13
Nsg14
(lp195
(i__main__
Token
p196
(dp197
g18
I10
sba(i__main__
Token
p198
(dp199
g18
I11
sba(i__main__
Token
p200
(dp201
g18
I12
sba(i__main__
Token
p202
(dp203
g18
I13
sba(i__main__
Token
p204
(dp205
g18
I14
sba(i__main__
Token
p206
(dp207
g18
I15
sba(i__main__
Token
p208
(dp209
g18
I16
sba(i__main__
Token
p210
(dp211
g18
I17
sbasg19
I17
sba(i__main__
Mention
p212
(dp213
g7
S't4'
p214
sg9
S'Coreference-Noun-Noun'
p215
sg10
S'i19'
p216
sg12
S'i5'
p217
sg13
Nsg14
(lp218
(i__main__
Token
p219
(dp220
g18
I76
sba(i__main__
Token
p221
(dp222
g18
I77
sbasg19
I77
sba(i__main__
Mention
p223
(dp224
g7
S't4'
p225
sg9
S'Coreference-Identity'
p226
sg10
S'i24'
p227
sg12
S'i19'
p228
sg13
Nsg14
(lp229
(i__main__
Token
p230
(dp231
g18
I100
sbasg19
I100
sba(i__main__
Mention
p232
(dp233
g7
S't4'
p234
sg9
S'Coreference-Identity'
p235
sg10
S'i29'
p236
sg12
S'i24'
p237
sg13
Nsg14
(lp238
(i__main__
Token
p239
(dp240
g18
I135
sbasg19
I135
sba(i__main__
Mention
p241
(dp242
g7
S't4'
p243
sg9
S'Coreference-Identity'
p244
sg10
S'i33'
p245
sg12
S'i29'
p246
sg13
Nsg14
(lp247
(i__main__
Token
p248
(dp249
g18
I153
sbasg19
I153
sba(i__main__
Mention
p250
(dp251
g7
S't4'
p252
sg9
S'Anaphora-C'
p253
sg10
S'i35'
p254
sg12
S'i33'
p255
sg13
Nsg14
(lp256
(i__main__
Token
p257
(dp258
g18
I158
sbasg19
I158
sba(i__main__
Mention
p259
(dp260
g7
S't4'
p261
sg9
S'Anaphora-C'
p262
sg10
S'i36'
p263
sg12
S'i35'
p264
sg13
Nsg14
(lp265
(i__main__
Token
p266
(dp267
g18
I159
sbasg19
I159
sba(i__main__
Mention
p268
(dp269
g7
S't4'
p270
sg9
S'Anaphora-C'
p271
sg10
S'i37'
p272
sg12
S'i36'
p273
sg13
Nsg14
(lp274
(i__main__
Token
p275
(dp276
g18
I163
sbasg19
I163
sbasg7
g193
sg29
Nsba(i__main__
Chain
p277
(dp278
g3
(lp279
(i__main__
Mention
p280
(dp281
g7
S't5'
p282
sg9
Nsg10
S'i6'
p283
sg12
Nsg13
Nsg14
(lp284
(i__main__
Token
p285
(dp286
g18
I19
sbasg19
I19
sba(i__main__
Mention
p287
(dp288
g7
S't5'
p289
sg9
S'Coreference-Identity'
p290
sg10
S'i20'
p291
sg12
S'i6'
p292
sg13
Nsg14
(lp293
(i__main__
Token
p294
(dp295
g18
I79
sbasg19
I79
sba(i__main__
Mention
p296
(dp297
g7
S't5'
p298
sg9
S'Coreference-Identity'
p299
sg10
S'i25'
p300
sg12
S'i20'
p301
sg13
Nsg14
(lp302
(i__main__
Token
p303
(dp304
g18
I102
sbasg19
I102
sbasg7
g282
sg29
Nsba(i__main__
Chain
p305
(dp306
g3
(lp307
(i__main__
Mention
p308
(dp309
g7
S't6'
p310
sg9
Nsg10
S'i8'
p311
sg12
Nsg13
Nsg14
(lp312
(i__main__
Token
p313
(dp314
g18
I24
sbasg19
I24
sba(i__main__
Mention
p315
(dp316
g7
S't6'
p317
sg9
S'Coreference-Noun-Noun'
p318
sg10
S'i16'
p319
sg12
S'i8'
p320
sg13
Nsg14
(lp321
(i__main__
Token
p322
(dp323
g18
I56
sba(i__main__
Token
p324
(dp325
g18
I57
sbasg19
I57
sbasg7
g310
sg29
Nsba(i__main__
Chain
p326
(dp327
g3
(lp328
(i__main__
Mention
p329
(dp330
g7
S't7'
p331
sg9
Nsg10
S'i13'
p332
sg12
Nsg13
Nsg14
(lp333
(i__main__
Token
p334
(dp335
g18
I49
sbasg19
I49
sba(i__main__
Mention
p336
(dp337
g7
S't7'
p338
sg9
S'Coreference-NounComplement'
p339
sg10
S'i14'
p340
sg12
S'i13'
p341
sg13
Nsg14
(lp342
(i__main__
Token
p343
(dp344
g18
I50
sba(i__main__
Token
p345
(dp346
g18
I51
sbasg19
I51
sba(i__main__
Mention
p347
(dp348
g7
S't7'
p349
sg9
S'Anaphora-C'
p350
sg10
S'i18'
p351
sg12
S'i14'
p352
sg13
Nsg14
(lp353
(i__main__
Token
p354
(dp355
g18
I66
sbasg19
I66
sba(i__main__
Mention
p356
(dp357
g7
S't7'
p358
sg9
S'Anaphora-C'
p359
sg10
S'i21'
p360
sg12
S'i18'
p361
sg13
Nsg14
(lp362
(i__main__
Token
p363
(dp364
g18
I83
sbasg19
I83
sba(i__main__
Mention
p365
(dp366
g7
S't7'
p367
sg9
S'Coreference-Identity'
p368
sg10
S'i26'
p369
sg12
S'i21'
p370
sg13
Nsg14
(lp371
(i__main__
Token
p372
(dp373
g18
I110
sba(i__main__
Token
p374
(dp375
g18
I111
sbasg19
I111
sba(i__main__
Mention
p376
(dp377
g7
S't7'
p378
sg9
S'Anaphora-C'
p379
sg10
S'i30'
p380
sg12
S'i26'
p381
sg13
Nsg14
(lp382
(i__main__
Token
p383
(dp384
g18
I141
sbasg19
I141
sbasg7
g331
sg29
Nsba(i__main__
Chain
p385
(dp386
g3
(lp387
(i__main__
Mention
p388
(dp389
g7
S't8'
p390
sg9
S'anaphora-?'
p391
sg10
S'i32'
p392
sg12
S'i32'
p393
sg13
Nsg14
(lp394
(i__main__
Token
p395
(dp396
g18
I148
sbasg19
I148
sbasg7
g390
sg29
Nsba.