(lp0
(i__main__
Chain
p1
(dp2
S'mentionList'
p3
(lp4
(i__main__
Mention
p5
(dp6
S'chainId'
p7
S't1'
p8
sS'relType'
p9
NsS'mentionId'
p10
S'i1'
p11
sS'antecedentId'
p12
NsS'crefMod'
p13
NsS'tokenList'
p14
(lp15
(i__main__
Token
p16
(dp17
S'tokenId'
p18
I3
sbasS'mentionHead'
p19
I3
sba(i__main__
Mention
p20
(dp21
g7
S't1'
p22
sg9
S'Anaphora-C'
p23
sg10
S'i5'
p24
sg12
S'i1'
p25
sg13
Nsg14
(lp26
(i__main__
Token
p27
(dp28
g18
I19
sbasg19
I19
sba(i__main__
Mention
p29
(dp30
g7
S't1'
p31
sg9
S'Anaphora-C'
p32
sg10
S'i9'
p33
sg12
S'i5'
p34
sg13
Nsg14
(lp35
(i__main__
Token
p36
(dp37
g18
I39
sbasg19
I39
sba(i__main__
Mention
p38
(dp39
g7
S't1'
p40
sg9
S'Coreference-Noun-Noun'
p41
sg10
S'i24'
p42
sg12
S'i9'
p43
sg13
Nsg14
(lp44
(i__main__
Token
p45
(dp46
g18
I124
sbasg19
I124
sba(i__main__
Mention
p47
(dp48
g7
S't1'
p49
sg9
S'Coreference-NounComplement'
p50
sg10
S'i25'
p51
sg12
S'i24'
p52
sg13
Nsg14
(lp53
(i__main__
Token
p54
(dp55
g18
I125
sba(i__main__
Token
p56
(dp57
g18
I126
sbasg19
I126
sba(i__main__
Mention
p58
(dp59
g7
S't1'
p60
sg9
S'Coreference-Identity'
p61
sg10
S'i30'
p62
sg12
S'i25'
p63
sg13
Nsg14
(lp64
(i__main__
Token
p65
(dp66
g18
I146
sbasg19
I146
sba(i__main__
Mention
p67
(dp68
g7
S't1'
p69
sg9
S'Coreference-Identity'
p70
sg10
S'i35'
p71
sg12
S'i30'
p72
sg13
Nsg14
(lp73
(i__main__
Token
p74
(dp75
g18
I172
sbasg19
I172
sba(i__main__
Mention
p76
(dp77
g7
S't1'
p78
sg9
S'Coreference-Noun-Noun'
p79
sg10
S'i37'
p80
sg12
S'i35'
p81
sg13
Nsg14
(lp82
(i__main__
Token
p83
(dp84
g18
I186
sba(i__main__
Token
p85
(dp86
g18
I187
sba(i__main__
Token
p87
(dp88
g18
I188
sbasg19
I188
sba(i__main__
Mention
p89
(dp90
g7
S't1'
p91
sg9
S'Anaphora-C'
p92
sg10
S'i41'
p93
sg12
S'i37'
p94
sg13
Nsg14
(lp95
(i__main__
Token
p96
(dp97
g18
I203
sbasg19
I203
sba(i__main__
Mention
p98
(dp99
g7
S't1'
p100
sg9
S'Anaphora-C'
p101
sg10
S'i46'
p102
sg12
S'i41'
p103
sg13
Nsg14
(lp104
(i__main__
Token
p105
(dp106
g18
I222
sbasg19
I222
sba(i__main__
Mention
p107
(dp108
g7
S't1'
p109
sg9
S'Anaphora-C'
p110
sg10
S'i54'
p111
sg12
S'i46'
p112
sg13
Nsg14
(lp113
(i__main__
Token
p114
(dp115
g18
I274
sbasg19
I274
sba(i__main__
Mention
p116
(dp117
g7
S't1'
p118
sg9
S'Coreference-Identity'
p119
sg10
S'i55'
p120
sg12
S'i54'
p121
sg13
Nsg14
(lp122
(i__main__
Token
p123
(dp124
g18
I277
sbasg19
I277
sba(i__main__
Mention
p125
(dp126
g7
S't1'
p127
sg9
S'Anaphora-C'
p128
sg10
S'i56'
p129
sg12
S'i55'
p130
sg13
Nsg14
(lp131
(i__main__
Token
p132
(dp133
g18
I284
sbasg19
I284
sba(i__main__
Mention
p134
(dp135
g7
S't1'
p136
sg9
S'Coreference-Noun-Noun'
p137
sg10
S'i64'
p138
sg12
S'i56'
p139
sg13
Nsg14
(lp140
(i__main__
Token
p141
(dp142
g18
I340
sba(i__main__
Token
p143
(dp144
g18
I341
sbasg19
I341
sba(i__main__
Mention
p145
(dp146
g7
S't1'
p147
sg9
S'Anaphora-C'
p148
sg10
S'i66'
p149
sg12
S'i64'
p150
sg13
Nsg14
(lp151
(i__main__
Token
p152
(dp153
g18
I348
sbasg19
I348
sba(i__main__
Mention
p154
(dp155
g7
S't1'
p156
sg9
S'Coreference-Noun-Noun'
p157
sg10
S'i72'
p158
sg12
S'i66'
p159
sg13
Nsg14
(lp160
(i__main__
Token
p161
(dp162
g18
I377
sbasg19
I377
sba(i__main__
Mention
p163
(dp164
g7
S't1'
p165
sg9
S'Anaphora-C'
p166
sg10
S'i75'
p167
sg12
S'i72'
p168
sg13
Nsg14
(lp169
(i__main__
Token
p170
(dp171
g18
I395
sbasg19
I395
sba(i__main__
Mention
p172
(dp173
g7
S't1'
p174
sg9
S'Coreference-Noun-Noun'
p175
sg10
S'i76'
p176
sg12
S'i75'
p177
sg13
Nsg14
(lp178
(i__main__
Token
p179
(dp180
g18
I400
sbasg19
I400
sba(i__main__
Mention
p181
(dp182
g7
S't1'
p183
sg9
S'Anaphora-C'
p184
sg10
S'i79'
p185
sg12
S'i76'
p186
sg13
Nsg14
(lp187
(i__main__
Token
p188
(dp189
g18
I412
sbasg19
I412
sbasg7
g8
sS'chainHead'
p190
Nsba(i__main__
Chain
p191
(dp192
g3
(lp193
(i__main__
Mention
p194
(dp195
g7
S't2'
p196
sg9
Nsg10
S'i2'
p197
sg12
Nsg13
Nsg14
(lp198
(i__main__
Token
p199
(dp200
g18
I10
sbasg19
I10
sba(i__main__
Mention
p201
(dp202
g7
S't2'
p203
sg9
S'Anaphora-RT'
p204
sg10
S'i3'
p205
sg12
S'i2'
p206
sg13
Nsg14
(lp207
(i__main__
Token
p208
(dp209
g18
I11
sba(i__main__
Token
p210
(dp211
g18
I12
sba(i__main__
Token
p212
(dp213
g18
I13
sba(i__main__
Token
p214
(dp215
g18
I14
sba(i__main__
Token
p216
(dp217
g18
I15
sba(i__main__
Token
p218
(dp219
g18
I16
sba(i__main__
Token
p220
(dp221
g18
I17
sba(i__main__
Token
p222
(dp223
g18
I18
sba(i__main__
Token
p224
(dp225
g18
I19
sba(i__main__
Token
p226
(dp227
g18
I20
sba(i__main__
Token
p228
(dp229
g18
I21
sba(i__main__
Token
p230
(dp231
g18
I22
sba(i__main__
Token
p232
(dp233
g18
I23
sba(i__main__
Token
p234
(dp235
g18
I24
sba(i__main__
Token
p236
(dp237
g18
I25
sba(i__main__
Token
p238
(dp239
g18
I26
sba(i__main__
Token
p240
(dp241
g18
I27
sba(i__main__
Token
p242
(dp243
g18
I28
sba(i__main__
Token
p244
(dp245
g18
I29
sba(i__main__
Token
p246
(dp247
g18
I30
sba(i__main__
Token
p248
(dp249
g18
I31
sba(i__main__
Token
p250
(dp251
g18
I32
sbasg19
I24
sbasg7
g196
sg190
Nsba(i__main__
Chain
p252
(dp253
g3
(lp254
(i__main__
Mention
p255
(dp256
g7
S't3'
p257
sg9
Nsg10
S'i4'
p258
sg12
Nsg13
Nsg14
(lp259
(i__main__
Token
p260
(dp261
g18
I16
sba(i__main__
Token
p262
(dp263
g18
I17
sbasg19
I17
sba(i__main__
Mention
p264
(dp265
g7
S't3'
p266
sg9
S'Coreference-Noun-Noun'
p267
sg10
S'i10'
p268
sg12
S'i4'
p269
sg13
Nsg14
(lp270
(i__main__
Token
p271
(dp272
g18
I47
sba(i__main__
Token
p273
(dp274
g18
I48
sbasg19
I48
sba(i__main__
Mention
p275
(dp276
g7
S't3'
p277
sg9
S'Anaphora-C'
p278
sg10
S'i11'
p279
sg12
S'i10'
p280
sg13
Nsg14
(lp281
(i__main__
Token
p282
(dp283
g18
I57
sbasg19
I57
sba(i__main__
Mention
p284
(dp285
g7
S't3'
p286
sg9
Nsg10
S'i44'
p287
sg12
Nsg13
Nsg14
(lp288
(i__main__
Token
p289
(dp290
g18
I218
sba(i__main__
Token
p291
(dp292
g18
I219
sbasg19
Nsba(i__main__
Mention
p293
(dp294
g7
S't3'
p295
sg9
Nsg10
S'i52'
p296
sg12
Nsg13
Nsg14
(lp297
(i__main__
Token
p298
(dp299
g18
I268
sba(i__main__
Token
p300
(dp301
g18
I269
sba(i__main__
Token
p302
(dp303
g18
I270
sbasg19
Nsba(i__main__
Mention
p304
(dp305
g7
S't3'
p306
sg9
S'Coreference-RPartOf'
p307
sg10
S'i78'
p308
sg12
S'i52'
p309
sg13
Nsg14
(lp310
(i__main__
Token
p311
(dp312
g18
I408
sba(i__main__
Token
p313
(dp314
g18
I409
sba(i__main__
Token
p315
(dp316
g18
I410
sbasg19
I410
sbasg7
g257
sg190
Nsba(i__main__
Chain
p317
(dp318
g3
(lp319
(i__main__
Mention
p320
(dp321
g7
S't4'
p322
sg9
Nsg10
S'i6'
p323
sg12
Nsg13
Nsg14
(lp324
(i__main__
Token
p325
(dp326
g18
I34
sbasg19
I34
sba(i__main__
Mention
p327
(dp328
g7
S't4'
p329
sg9
S'Anaphora-RC'
p330
sg10
S'i7'
p331
sg12
S'i6'
p332
sg13
Nsg14
(lp333
(i__main__
Token
p334
(dp335
g18
I35
sba(i__main__
Token
p336
(dp337
g18
I36
sbasg19
I36
sba(i__main__
Mention
p338
(dp339
g7
S't4'
p340
sg9
S'Anaphora-C'
p341
sg10
S'i8'
p342
sg12
S'i7'
p343
sg13
Nsg14
(lp344
(i__main__
Token
p345
(dp346
g18
I38
sbasg19
I38
sbasg7
g322
sg190
Nsba(i__main__
Chain
p347
(dp348
g3
(lp349
(i__main__
Mention
p350
(dp351
g7
S't5'
p352
sg9
Nsg10
S'i12'
p353
sg12
Nsg13
Nsg14
(lp354
(i__main__
Token
p355
(dp356
g18
I67
sbasg19
I67
sbasg7
g352
sg190
Nsba(i__main__
Chain
p357
(dp358
g3
(lp359
(i__main__
Mention
p360
(dp361
g7
S't6'
p362
sg9
Nsg10
S'i13'
p363
sg12
Nsg13
Nsg14
(lp364
(i__main__
Token
p365
(dp366
g18
I73
sbasg19
I73
sba(i__main__
Mention
p367
(dp368
g7
S't6'
p369
sg9
S'Anaphora-RT'
p370
sg10
S'i14'
p371
sg12
S'i13'
p372
sg13
Nsg14
(lp373
(i__main__
Token
p374
(dp375
g18
I75
sba(i__main__
Token
p376
(dp377
g18
I76
sba(i__main__
Token
p378
(dp379
g18
I77
sba(i__main__
Token
p380
(dp381
g18
I78
sbasg19
I77
sbasg7
g362
sg190
Nsba(i__main__
Chain
p382
(dp383
g3
(lp384
(i__main__
Mention
p385
(dp386
g7
S't7'
p387
sg9
Nsg10
S'i15'
p388
sg12
Nsg13
Nsg14
(lp389
(i__main__
Token
p390
(dp391
g18
I75
sbasg19
I75
sbasg7
g387
sg190
Nsba(i__main__
Chain
p392
(dp393
g3
(lp394
(i__main__
Mention
p395
(dp396
g7
S't8'
p397
sg9
Nsg10
S'i16'
p398
sg12
Nsg13
Nsg14
(lp399
(i__main__
Token
p400
(dp401
g18
I79
sbasg19
I79
sbasg7
g397
sg190
Nsba(i__main__
Chain
p402
(dp403
g3
(lp404
(i__main__
Mention
p405
(dp406
g7
S't9'
p407
sg9
Nsg10
S'i17'
p408
sg12
Nsg13
Nsg14
(lp409
(i__main__
Token
p410
(dp411
g18
I89
sba(i__main__
Token
p412
(dp413
g18
I90
sba(i__main__
Token
p414
(dp415
g18
I91
sba(i__main__
Token
p416
(dp417
g18
I92
sba(i__main__
Token
p418
(dp419
g18
I93
sbasg19
I93
sba(i__main__
Mention
p420
(dp421
g7
S't9'
p422
sg9
S'Anaphora-C'
p423
sg10
S'i19'
p424
sg12
S'i17'
p425
sg13
Nsg14
(lp426
(i__main__
Token
p427
(dp428
g18
I103
sbasg19
I103
sba(i__main__
Mention
p429
(dp430
g7
S't9'
p431
sg9
S'Anaphora-C'
p432
sg10
S'i21'
p433
sg12
S'i19'
p434
sg13
Nsg14
(lp435
(i__main__
Token
p436
(dp437
g18
I108
sbasg19
I108
sba(i__main__
Mention
p438
(dp439
g7
S't9'
p440
sg9
S'Anaphora-C'
p441
sg10
S'i22'
p442
sg12
S'i21'
p443
sg13
Nsg14
(lp444
(i__main__
Token
p445
(dp446
g18
I109
sbasg19
I109
sbasg7
g407
sg190
Nsba(i__main__
Chain
p447
(dp448
g3
(lp449
(i__main__
Mention
p450
(dp451
g7
S't10'
p452
sg9
Nsg10
S'i18'
p453
sg12
Nsg13
Nsg14
(lp454
(i__main__
Token
p455
(dp456
g18
I98
sbasg19
I98
sba(i__main__
Mention
p457
(dp458
g7
S't10'
p459
sg9
S'Coreference-Identity'
p460
sg10
S'i20'
p461
sg12
S'i18'
p462
sg13
Nsg14
(lp463
(i__main__
Token
p464
(dp465
g18
I104
sba(i__main__
Token
p466
(dp467
g18
I105
sbasg19
I105
sba(i__main__
Mention
p468
(dp469
g7
S't10'
p470
sg9
S'Anaphora-C'
p471
sg10
S'i23'
p472
sg12
S'i20'
p473
sg13
Nsg14
(lp474
(i__main__
Token
p475
(dp476
g18
I117
sbasg19
I117
sbasg7
g452
sg190
Nsba(i__main__
Chain
p477
(dp478
g3
(lp479
(i__main__
Mention
p480
(dp481
g7
S't11'
p482
sg9
Nsg10
S'i26'
p483
sg12
Nsg13
Nsg14
(lp484
(i__main__
Token
p485
(dp486
g18
I133
sbasg19
I133
sba(i__main__
Mention
p487
(dp488
g7
S't11'
p489
sg9
Nsg10
S'i29'
p490
sg12
Nsg13
Nsg14
(lp491
(i__main__
Token
p492
(dp493
g18
I141
sbasg19
Nsbasg7
g482
sg190
Nsba(i__main__
Chain
p494
(dp495
g3
(lp496
(i__main__
Mention
p497
(dp498
g7
S't12'
p499
sg9
Nsg10
S'i27'
p500
sg12
Nsg13
Nsg14
(lp501
(i__main__
Token
p502
(dp503
g18
I135
sbasg19
I135
sba(i__main__
Mention
p504
(dp505
g7
S't12'
p506
sg9
Nsg10
S'i28'
p507
sg12
Nsg13
Nsg14
(lp508
(i__main__
Token
p509
(dp510
g18
I141
sbasg19
Nsbasg7
g499
sg190
Nsba(i__main__
Chain
p511
(dp512
g3
(lp513
(i__main__
Mention
p514
(dp515
g7
S't13'
p516
sg9
Nsg10
S'i31'
p517
sg12
Nsg13
Nsg14
(lp518
(i__main__
Token
p519
(dp520
g18
I154
sba(i__main__
Token
p521
(dp522
g18
I155
sbasg19
I155
sba(i__main__
Mention
p523
(dp524
g7
S't13'
p525
sg9
S'Anaphora-C'
p526
sg10
S'i32'
p527
sg12
S'i31'
p528
sg13
Nsg14
(lp529
(i__main__
Token
p530
(dp531
g18
I161
sbasg19
I161
sba(i__main__
Mention
p532
(dp533
g7
S't13'
p534
sg9
S'Coreference-Noun-Noun'
p535
sg10
S'i33'
p536
sg12
S'i32'
p537
sg13
Nsg14
(lp538
(i__main__
Token
p539
(dp540
g18
I169
sbasg19
I169
sba(i__main__
Mention
p541
(dp542
g7
S't13'
p543
sg9
S'Anaphora-C'
p544
sg10
S'i34'
p545
sg12
S'i33'
p546
sg13
Nsg14
(lp547
(i__main__
Token
p548
(dp549
g18
I171
sbasg19
I171
sba(i__main__
Mention
p550
(dp551
g7
S't13'
p552
sg9
S'Anaphora-C'
p553
sg10
S'i36'
p554
sg12
S'i34'
p555
sg13
Nsg14
(lp556
(i__main__
Token
p557
(dp558
g18
I174
sbasg19
I174
sba(i__main__
Mention
p559
(dp560
g7
S't13'
p561
sg9
S'Coreference-Noun-Noun'
p562
sg10
S'i38'
p563
sg12
S'i36'
p564
sg13
Nsg14
(lp565
(i__main__
Token
p566
(dp567
g18
I192
sbasg19
I192
sba(i__main__
Mention
p568
(dp569
g7
S't13'
p570
sg9
S'Anaphora-C'
p571
sg10
S'i39'
p572
sg12
S'i38'
p573
sg13
Nsg14
(lp574
(i__main__
Token
p575
(dp576
g18
I196
sbasg19
I196
sba(i__main__
Mention
p577
(dp578
g7
S't13'
p579
sg9
S'Coreference-Noun-Noun'
p580
sg10
S'i40'
p581
sg12
S'i39'
p582
sg13
Nsg14
(lp583
(i__main__
Token
p584
(dp585
g18
I201
sbasg19
I201
sba(i__main__
Mention
p586
(dp587
g7
S't13'
p588
sg9
S'Anaphora-C'
p589
sg10
S'i42'
p590
sg12
S'i40'
p591
sg13
Nsg14
(lp592
(i__main__
Token
p593
(dp594
g18
I208
sbasg19
I208
sbasg7
g516
sg190
Nsba(i__main__
Chain
p595
(dp596
g3
(lp597
(i__main__
Mention
p598
(dp599
g7
S't14'
p600
sg9
Nsg10
S'i43'
p601
sg12
Nsg13
Nsg14
(lp602
(i__main__
Token
p603
(dp604
g18
I213
sbasg19
I213
sbasg7
g600
sg190
Nsba(i__main__
Chain
p605
(dp606
g3
(lp607
(i__main__
Mention
p608
(dp609
g7
S't15'
p610
sg9
Nsg10
S'i45'
p611
sg12
Nsg13
Nsg14
(lp612
(i__main__
Token
p613
(dp614
g18
I218
sba(i__main__
Token
p615
(dp616
g18
I219
sbasg19
Nsba(i__main__
Mention
p617
(dp618
g7
S't15'
p619
sg9
Nsg10
S'i53'
p620
sg12
Nsg13
Nsg14
(lp621
(i__main__
Token
p622
(dp623
g18
I268
sba(i__main__
Token
p624
(dp625
g18
I269
sba(i__main__
Token
p626
(dp627
g18
I270
sbasg19
Nsbasg7
g610
sg190
Nsba(i__main__
Chain
p628
(dp629
g3
(lp630
(i__main__
Mention
p631
(dp632
g7
S't16'
p633
sg9
Nsg10
S'i47'
p634
sg12
Nsg13
Nsg14
(lp635
(i__main__
Token
p636
(dp637
g18
I235
sba(i__main__
Token
p638
(dp639
g18
I236
sba(i__main__
Token
p640
(dp641
g18
I237
sba(i__main__
Token
p642
(dp643
g18
I238
sba(i__main__
Token
p644
(dp645
g18
I239
sba(i__main__
Token
p646
(dp647
g18
I240
sba(i__main__
Token
p648
(dp649
g18
I241
sbasg19
I240
sba(i__main__
Mention
p650
(dp651
g7
S't16'
p652
sg9
S'Anaphora-C'
p653
sg10
S'i48'
p654
sg12
S'i47'
p655
sg13
Nsg14
(lp656
(i__main__
Token
p657
(dp658
g18
I243
sbasg19
I243
sbasg7
g633
sg190
Nsba(i__main__
Chain
p659
(dp660
g3
(lp661
(i__main__
Mention
p662
(dp663
g7
S't17'
p664
sg9
Nsg10
S'i49'
p665
sg12
Nsg13
Nsg14
(lp666
(i__main__
Token
p667
(dp668
g18
I258
sbasg19
I258
sba(i__main__
Mention
p669
(dp670
g7
S't17'
p671
sg9
S'Anaphora-RT'
p672
sg10
S'i50'
p673
sg12
S'i49'
p674
sg13
Nsg14
(lp675
(i__main__
Token
p676
(dp677
g18
I259
sba(i__main__
Token
p678
(dp679
g18
I260
sba(i__main__
Token
p680
(dp681
g18
I261
sba(i__main__
Token
p682
(dp683
g18
I262
sba(i__main__
Token
p684
(dp685
g18
I263
sbasg19
I263
sbasg7
g664
sg190
Nsba(i__main__
Chain
p686
(dp687
g3
(lp688
(i__main__
Mention
p689
(dp690
g7
S't18'
p691
sg9
Nsg10
S'i51'
p692
sg12
Nsg13
Nsg14
(lp693
(i__main__
Token
p694
(dp695
g18
I264
sbasg19
I264
sbasg7
g691
sg190
Nsba(i__main__
Chain
p696
(dp697
g3
(lp698
(i__main__
Mention
p699
(dp700
g7
S't19'
p701
sg9
Nsg10
S'i57'
p702
sg12
Nsg13
Nsg14
(lp703
(i__main__
Token
p704
(dp705
g18
I302
sba(i__main__
Token
p706
(dp707
g18
I303
sbasg19
I303
sba(i__main__
Mention
p708
(dp709
g7
S't19'
p710
sg9
S'Anaphora-T'
p711
sg10
S'i60'
p712
sg12
S'i57'
p713
sg13
Nsg14
(lp714
(i__main__
Token
p715
(dp716
g18
I311
sbasg19
I311
sbasg7
g701
sg190
Nsba(i__main__
Chain
p717
(dp718
g3
(lp719
(i__main__
Mention
p720
(dp721
g7
S't20'
p722
sg9
Nsg10
S'i58'
p723
sg12
Nsg13
Nsg14
(lp724
(i__main__
Token
p725
(dp726
g18
I304
sbasg19
I304
sba(i__main__
Mention
p727
(dp728
g7
S't20'
p729
sg9
S'Anaphora-RT'
p730
sg10
S'i59'
p731
sg12
S'i58'
p732
sg13
Nsg14
(lp733
(i__main__
Token
p734
(dp735
g18
I305
sba(i__main__
Token
p736
(dp737
g18
I306
sba(i__main__
Token
p738
(dp739
g18
I307
sba(i__main__
Token
p740
(dp741
g18
I308
sba(i__main__
Token
p742
(dp743
g18
I309
sba(i__main__
Token
p744
(dp745
g18
I310
sba(i__main__
Token
p746
(dp747
g18
I311
sba(i__main__
Token
p748
(dp749
g18
I312
sba(i__main__
Token
p750
(dp751
g18
I313
sba(i__main__
Token
p752
(dp753
g18
I314
sba(i__main__
Token
p754
(dp755
g18
I315
sba(i__main__
Token
p756
(dp757
g18
I316
sba(i__main__
Token
p758
(dp759
g18
I317
sba(i__main__
Token
p760
(dp761
g18
I318
sba(i__main__
Token
p762
(dp763
g18
I319
sba(i__main__
Token
p764
(dp765
g18
I320
sbasg19
I319
sbasg7
g722
sg190
Nsba(i__main__
Chain
p766
(dp767
g3
(lp768
(i__main__
Mention
p769
(dp770
g7
S't21'
p771
sg9
Nsg10
S'i61'
p772
sg12
Nsg13
Nsg14
(lp773
(i__main__
Token
p774
(dp775
g18
I313
sba(i__main__
Token
p776
(dp777
g18
I314
sbasg19
I314
sba(i__main__
Mention
p778
(dp779
g7
S't21'
p780
sg9
S'Coreference-NounComplement'
p781
sg10
S'i62'
p782
sg12
S'i61'
p783
sg13
Nsg14
(lp784
(i__main__
Token
p785
(dp786
g18
I315
sba(i__main__
Token
p787
(dp788
g18
I316
sbasg19
I316
sba(i__main__
Mention
p789
(dp790
g7
S't21'
p791
sg9
S'Anaphora-C'
p792
sg10
S'i63'
p793
sg12
S'i62'
p794
sg13
Nsg14
(lp795
(i__main__
Token
p796
(dp797
g18
I321
sbasg19
I321
sbasg7
g771
sg190
Nsba(i__main__
Chain
p798
(dp799
g3
(lp800
(i__main__
Mention
p801
(dp802
g7
S't22'
p803
sg9
Nsg10
S'i65'
p804
sg12
Nsg13
Nsg14
(lp805
(i__main__
Token
p806
(dp807
g18
I342
sbasg19
I342
sba(i__main__
Mention
p808
(dp809
g7
S't22'
p810
sg9
S'Anaphora-RC'
p811
sg10
S'i67'
p812
sg12
S'i65'
p813
sg13
Nsg14
(lp814
(i__main__
Token
p815
(dp816
g18
I348
sba(i__main__
Token
p817
(dp818
g18
I349
sba(i__main__
Token
p819
(dp820
g18
I350
sba(i__main__
Token
p821
(dp822
g18
I351
sba(i__main__
Token
p823
(dp824
g18
I352
sba(i__main__
Token
p825
(dp826
g18
I353
sba(i__main__
Token
p827
(dp828
g18
I354
sba(i__main__
Token
p829
(dp830
g18
I355
sba(i__main__
Token
p831
(dp832
g18
I356
sba(i__main__
Token
p833
(dp834
g18
I357
sba(i__main__
Token
p835
(dp836
g18
I358
sba(i__main__
Token
p837
(dp838
g18
I359
sba(i__main__
Token
p839
(dp840
g18
I360
sba(i__main__
Token
p841
(dp842
g18
I361
sba(i__main__
Token
p843
(dp844
g18
I362
sba(i__main__
Token
p845
(dp846
g18
I363
sba(i__main__
Token
p847
(dp848
g18
I364
sba(i__main__
Token
p849
(dp850
g18
I365
sba(i__main__
Token
p851
(dp852
g18
I366
sba(i__main__
Token
p853
(dp854
g18
I367
sbasg19
I366
sbasg7
g803
sg190
Nsba(i__main__
Chain
p855
(dp856
g3
(lp857
(i__main__
Mention
p858
(dp859
g7
S't23'
p860
sg9
Nsg10
S'i68'
p861
sg12
Nsg13
Nsg14
(lp862
(i__main__
Token
p863
(dp864
g18
I370
sbasg19
I370
sba(i__main__
Mention
p865
(dp866
g7
S't23'
p867
sg9
Nsg10
S'i69'
p868
sg12
Nsg13
Nsg14
(lp869
(i__main__
Token
p870
(dp871
g18
I373
sba(i__main__
Token
p872
(dp873
g18
I374
sba(i__main__
Token
p874
(dp875
g18
I375
sbasg19
Nsbasg7
g860
sg190
Nsba(i__main__
Chain
p876
(dp877
g3
(lp878
(i__main__
Mention
p879
(dp880
g7
S't24'
p881
sg9
Nsg10
S'i70'
p882
sg12
Nsg13
Nsg14
(lp883
(i__main__
Token
p884
(dp885
g18
I373
sbasg19
I373
sbasg7
g881
sg190
Nsba(i__main__
Chain
p886
(dp887
g3
(lp888
(i__main__
Mention
p889
(dp890
g7
S't25'
p891
sg9
Nsg10
S'i71'
p892
sg12
Nsg13
Nsg14
(lp893
(i__main__
Token
p894
(dp895
g18
I374
sbasg19
Nsba(i__main__
Mention
p896
(dp897
g7
S't25'
p898
sg9
S'Coreference-Identity'
p899
sg10
S'i77'
p900
sg12
S'i71'
p901
sg13
Nsg14
(lp902
(i__main__
Token
p903
(dp904
g18
I401
sbasg19
I401
sbasg7
g891
sg190
Nsba(i__main__
Chain
p905
(dp906
g3
(lp907
(i__main__
Mention
p908
(dp909
g7
S't26'
p910
sg9
Nsg10
S'i73'
p911
sg12
Nsg13
Nsg14
(lp912
(i__main__
Token
p913
(dp914
g18
I380
sbasg19
I380
sbasg7
g910
sg190
Nsba(i__main__
Chain
p915
(dp916
g3
(lp917
(i__main__
Mention
p918
(dp919
g7
S't27'
p920
sg9
Nsg10
S'i74'
p921
sg12
Nsg13
Nsg14
(lp922
(i__main__
Token
p923
(dp924
g18
I394
sbasg19
I394
sbasg7
g920
sg190
Nsba(i__main__
Chain
p925
(dp926
g3
(lp927
(i__main__
Mention
p928
(dp929
g7
S't28'
p930
sg9
Nsg10
S'i80'
p931
sg12
Nsg13
Nsg14
(lp932
(i__main__
Token
p933
(dp934
g18
I434
sbasg19
I434
sbasg7
g930
sg190
Nsba.