(lp0
(i__main__
Chain
p1
(dp2
S'mentionList'
p3
(lp4
(i__main__
Mention
p5
(dp6
S'chainId'
p7
S't1'
p8
sS'relType'
p9
NsS'mentionId'
p10
S'i1'
p11
sS'antecedentId'
p12
NsS'crefMod'
p13
NsS'tokenList'
p14
(lp15
(i__main__
Token
p16
(dp17
S'tokenId'
p18
I0
sbasS'mentionHead'
p19
I0
sba(i__main__
Mention
p20
(dp21
g7
S't1'
p22
sg9
S'Coreference-InferedRelation'
p23
sg10
S'i7'
p24
sg12
S'i1'
p25
sg13
Nsg14
(lp26
(i__main__
Token
p27
(dp28
g18
I18
sbasg19
I18
sba(i__main__
Mention
p29
(dp30
g7
S't1'
p31
sg9
S'Coreference-Identity'
p32
sg10
S'i42'
p33
sg12
S'i7'
p34
sg13
Nsg14
(lp35
(i__main__
Token
p36
(dp37
g18
I111
sbasg19
I111
sba(i__main__
Mention
p38
(dp39
g7
S't1'
p40
sg9
S'Coreference-Noun-Noun'
p41
sg10
S'i49'
p42
sg12
S'i42'
p43
sg13
Nsg14
(lp44
(i__main__
Token
p45
(dp46
g18
I137
sbasg19
I137
sba(i__main__
Mention
p47
(dp48
g7
S't1'
p49
sg9
S'Coreference-InferedRelation'
p50
sg10
S'i50'
p51
sg12
S'i49'
p52
sg13
Nsg14
(lp53
(i__main__
Token
p54
(dp55
g18
I139
sbasg19
I139
sba(i__main__
Mention
p56
(dp57
g7
S't1'
p58
sg9
S'Coreference-Identity'
p59
sg10
S'i51'
p60
sg12
S'i50'
p61
sg13
Nsg14
(lp62
(i__main__
Token
p63
(dp64
g18
I147
sbasg19
I147
sba(i__main__
Mention
p65
(dp66
g7
S't1'
p67
sg9
S'Coreference-Identity'
p68
sg10
S'i55'
p69
sg12
S'i51'
p70
sg13
Nsg14
(lp71
(i__main__
Token
p72
(dp73
g18
I175
sbasg19
I175
sbasg7
g8
sS'chainHead'
p74
Nsba(i__main__
Chain
p75
(dp76
g3
(lp77
(i__main__
Mention
p78
(dp79
g7
S't2'
p80
sg9
Nsg10
S'i2'
p81
sg12
Nsg13
Nsg14
(lp82
(i__main__
Token
p83
(dp84
g18
I2
sba(i__main__
Token
p85
(dp86
g18
I3
sbasg19
I3
sba(i__main__
Mention
p87
(dp88
g7
S't2'
p89
sg9
S'Coreference-Noun-Noun'
p90
sg10
S'i4'
p91
sg12
S'i2'
p92
sg13
Nsg14
(lp93
(i__main__
Token
p94
(dp95
g18
I7
sba(i__main__
Token
p96
(dp97
g18
I8
sbasg19
I8
sba(i__main__
Mention
p98
(dp99
g7
S't2'
p100
sg9
S'Coreference-NounComplement'
p101
sg10
S'i5'
p102
sg12
S'i4'
p103
sg13
Nsg14
(lp104
(i__main__
Token
p105
(dp106
g18
I9
sba(i__main__
Token
p107
(dp108
g18
I10
sba(i__main__
Token
p109
(dp110
g18
I11
sbasg19
I11
sba(i__main__
Mention
p111
(dp112
g7
S't2'
p113
sg9
S'Anaphora-C'
p114
sg10
S'i6'
p115
sg12
S'i5'
p116
sg13
Nsg14
(lp117
(i__main__
Token
p118
(dp119
g18
I17
sbasg19
I17
sba(i__main__
Mention
p120
(dp121
g7
S't2'
p122
sg9
S'Anaphora-C'
p123
sg10
S'i12'
p124
sg12
S'i6'
p125
sg13
Nsg14
(lp126
(i__main__
Token
p127
(dp128
g18
I27
sbasg19
I27
sba(i__main__
Mention
p129
(dp130
g7
S't2'
p131
sg9
S'Coreference-Identity'
p132
sg10
S'i17'
p133
sg12
S'i12'
p134
sg13
Nsg14
(lp135
(i__main__
Token
p136
(dp137
g18
I44
sbasg19
I44
sba(i__main__
Mention
p138
(dp139
g7
S't2'
p140
sg9
S'Anaphora-C'
p141
sg10
S'i18'
p142
sg12
S'i17'
p143
sg13
Nsg14
(lp144
(i__main__
Token
p145
(dp146
g18
I48
sbasg19
I48
sba(i__main__
Mention
p147
(dp148
g7
S't2'
p149
sg9
S'Coreference-Identity'
p150
sg10
S'i23'
p151
sg12
S'i18'
p152
sg13
Nsg14
(lp153
(i__main__
Token
p154
(dp155
g18
I64
sbasg19
I64
sba(i__main__
Mention
p156
(dp157
g7
S't2'
p158
sg9
S'Anaphora-C'
p159
sg10
S'i26'
p160
sg12
S'i23'
p161
sg13
Nsg14
(lp162
(i__main__
Token
p163
(dp164
g18
I73
sbasg19
I73
sba(i__main__
Mention
p165
(dp166
g7
S't2'
p167
sg9
S'Coreference-Identity'
p168
sg10
S'i35'
p169
sg12
S'i26'
p170
sg13
Nsg14
(lp171
(i__main__
Token
p172
(dp173
g18
I93
sbasg19
I93
sba(i__main__
Mention
p174
(dp175
g7
S't2'
p176
sg9
S'Anaphora-C'
p177
sg10
S'i36'
p178
sg12
S'i35'
p179
sg13
Nsg14
(lp180
(i__main__
Token
p181
(dp182
g18
I97
sbasg19
I97
sba(i__main__
Mention
p183
(dp184
g7
S't2'
p185
sg9
S'Anaphora-C'
p186
sg10
S'i39'
p187
sg12
S'i36'
p188
sg13
Nsg14
(lp189
(i__main__
Token
p190
(dp191
g18
I105
sbasg19
I105
sba(i__main__
Mention
p192
(dp193
g7
S't2'
p194
sg9
S'Anaphora-C'
p195
sg10
S'i40'
p196
sg12
S'i39'
p197
sg13
Nsg14
(lp198
(i__main__
Token
p199
(dp200
g18
I108
sbasg19
I108
sba(i__main__
Mention
p201
(dp202
g7
S't2'
p203
sg9
S'Anaphora-C'
p204
sg10
S'i47'
p205
sg12
S'i40'
p206
sg13
Nsg14
(lp207
(i__main__
Token
p208
(dp209
g18
I126
sbasg19
I126
sbasg7
g80
sg74
Nsba(i__main__
Chain
p210
(dp211
g3
(lp212
(i__main__
Mention
p213
(dp214
g7
S't3'
p215
sg9
Nsg10
S'i3'
p216
sg12
Nsg13
Nsg14
(lp217
(i__main__
Token
p218
(dp219
g18
I5
sbasg19
I5
sba(i__main__
Mention
p220
(dp221
g7
S't3'
p222
sg9
S'Coreference-Identity'
p223
sg10
S'i14'
p224
sg12
S'i3'
p225
sg13
Nsg14
(lp226
(i__main__
Token
p227
(dp228
g18
I31
sbasg19
I31
sbasg7
g215
sg74
Nsba(i__main__
Chain
p229
(dp230
g3
(lp231
(i__main__
Mention
p232
(dp233
g7
S't4'
p234
sg9
Nsg10
S'i8'
p235
sg12
Nsg13
Nsg14
(lp236
(i__main__
Token
p237
(dp238
g18
I18
sba(i__main__
Token
p239
(dp240
g18
I19
sbasg19
I19
sba(i__main__
Mention
p241
(dp242
g7
S't4'
p243
sg9
S'Coreference-NounComplement'
p244
sg10
S'i9'
p245
sg12
S'i8'
p246
sg13
Nsg14
(lp247
(i__main__
Token
p248
(dp249
g18
I20
sba(i__main__
Token
p250
(dp251
g18
I21
sba(i__main__
Token
p252
(dp253
g18
I22
sbasg19
I22
sba(i__main__
Mention
p254
(dp255
g7
S't4'
p256
sg9
S'Coreference-Identity'
p257
sg10
S'i20'
p258
sg12
S'i9'
p259
sg13
Nsg14
(lp260
(i__main__
Token
p261
(dp262
g18
I51
sbasg19
I51
sbasg7
g234
sg74
Nsba(i__main__
Chain
p263
(dp264
g3
(lp265
(i__main__
Mention
p266
(dp267
g7
S't5'
p268
sg9
S'anaphora-?'
p269
sg10
S'i10'
p270
sg12
S'i10'
p271
sg13
Nsg14
(lp272
(i__main__
Token
p273
(dp274
g18
I24
sbasg19
I24
sba(i__main__
Mention
p275
(dp276
g7
S't5'
p277
sg9
S'Anaphora-RT'
p278
sg10
S'i11'
p279
sg12
S'i10'
p280
sg13
Nsg14
(lp281
(i__main__
Token
p282
(dp283
g18
I26
sbasg19
I26
sba(i__main__
Mention
p284
(dp285
g7
S't5'
p286
sg9
S'Anaphora-RT'
p287
sg10
S'i13'
p288
sg12
S'i11'
p289
sg13
Nsg14
(lp290
(i__main__
Token
p291
(dp292
g18
I27
sba(i__main__
Token
p293
(dp294
g18
I28
sba(i__main__
Token
p295
(dp296
g18
I29
sbasg19
I28
sbasg7
g268
sg74
Nsba(i__main__
Chain
p297
(dp298
g3
(lp299
(i__main__
Mention
p300
(dp301
g7
S't6'
p302
sg9
Nsg10
S'i15'
p303
sg12
Nsg13
Nsg14
(lp304
(i__main__
Token
p305
(dp306
g18
I33
sba(i__main__
Token
p307
(dp308
g18
I34
sbasg19
I34
sba(i__main__
Mention
p309
(dp310
g7
S't6'
p311
sg9
S'Coreference-Apposition'
p312
sg10
S'i16'
p313
sg12
S'i15'
p314
sg13
Nsg14
(lp315
(i__main__
Token
p316
(dp317
g18
I36
sba(i__main__
Token
p318
(dp319
g18
I37
sbasg19
I37
sba(i__main__
Mention
p320
(dp321
g7
S't6'
p322
sg9
S'Coreference-Noun-Noun'
p323
sg10
S'i31'
p324
sg12
S'i16'
p325
sg13
Nsg14
(lp326
(i__main__
Token
p327
(dp328
g18
I83
sbasg19
I83
sba(i__main__
Mention
p329
(dp330
g7
S't6'
p331
sg9
S'Coreference-Apposition'
p332
sg10
S'i33'
p333
sg12
S'i31'
p334
sg13
Nsg14
(lp335
(i__main__
Token
p336
(dp337
g18
I84
sba(i__main__
Token
p338
(dp339
g18
I85
sbasg19
I85
sba(i__main__
Mention
p340
(dp341
g7
S't6'
p342
sg9
S'Coreference-Noun-Noun'
p343
sg10
S'i44'
p344
sg12
S'i33'
p345
sg13
Nsg14
(lp346
(i__main__
Token
p347
(dp348
g18
I115
sbasg19
I115
sba(i__main__
Mention
p349
(dp350
g7
S't6'
p351
sg9
S'Coreference-Identity'
p352
sg10
S'i53'
p353
sg12
S'i44'
p354
sg13
Nsg14
(lp355
(i__main__
Token
p356
(dp357
g18
I168
sbasg19
I168
sbasg7
g302
sg74
Nsba(i__main__
Chain
p358
(dp359
g3
(lp360
(i__main__
Mention
p361
(dp362
g7
S't7'
p363
sg9
S'anaphora-?'
p364
sg10
S'i19'
p365
sg12
S'i19'
p366
sg13
Nsg14
(lp367
(i__main__
Token
p368
(dp369
g18
I49
sbasg19
I49
sbasg7
g363
sg74
Nsba(i__main__
Chain
p370
(dp371
g3
(lp372
(i__main__
Mention
p373
(dp374
g7
S't8'
p375
sg9
S'anaphora-?'
p376
sg10
S'i21'
p377
sg12
S'i21'
p378
sg13
Nsg14
(lp379
(i__main__
Token
p380
(dp381
g18
I55
sbasg19
I55
sbasg7
g375
sg74
Nsba(i__main__
Chain
p382
(dp383
g3
(lp384
(i__main__
Mention
p385
(dp386
g7
S't9'
p387
sg9
Nsg10
S'i22'
p388
sg12
Nsg13
Nsg14
(lp389
(i__main__
Token
p390
(dp391
g18
I61
sbasg19
I61
sba(i__main__
Mention
p392
(dp393
g7
S't9'
p394
sg9
S'Anaphora-C'
p395
sg10
S'i28'
p396
sg12
S'i22'
p397
sg13
Nsg14
(lp398
(i__main__
Token
p399
(dp400
g18
I74
sbasg19
I74
sbasg7
g387
sg74
Nsba(i__main__
Chain
p401
(dp402
g3
(lp403
(i__main__
Mention
p404
(dp405
g7
S't10'
p406
sg9
S'anaphora-?'
p407
sg10
S'i24'
p408
sg12
S'i24'
p409
sg13
Nsg14
(lp410
(i__main__
Token
p411
(dp412
g18
I66
sbasg19
I66
sba(i__main__
Mention
p413
(dp414
g7
S't10'
p415
sg9
S'Anaphora-RT'
p416
sg10
S'i25'
p417
sg12
S'i24'
p418
sg13
Nsg14
(lp419
(i__main__
Token
p420
(dp421
g18
I67
sba(i__main__
Token
p422
(dp423
g18
I68
sba(i__main__
Token
p424
(dp425
g18
I69
sba(i__main__
Token
p426
(dp427
g18
I70
sbasg19
I69
sbasg7
g406
sg74
Nsba(i__main__
Chain
p428
(dp429
g3
(lp430
(i__main__
Mention
p431
(dp432
g7
S't11'
p433
sg9
Nsg10
S'i27'
p434
sg12
Nsg13
Nsg14
(lp435
(i__main__
Token
p436
(dp437
g18
I73
sba(i__main__
Token
p438
(dp439
g18
I74
sba(i__main__
Token
p440
(dp441
g18
I75
sba(i__main__
Token
p442
(dp443
g18
I76
sba(i__main__
Token
p444
(dp445
g18
I77
sba(i__main__
Token
p446
(dp447
g18
I78
sba(i__main__
Token
p448
(dp449
g18
I79
sba(i__main__
Token
p450
(dp451
g18
I80
sba(i__main__
Token
p452
(dp453
g18
I81
sba(i__main__
Token
p454
(dp455
g18
I82
sba(i__main__
Token
p456
(dp457
g18
I83
sba(i__main__
Token
p458
(dp459
g18
I84
sba(i__main__
Token
p460
(dp461
g18
I85
sba(i__main__
Token
p462
(dp463
g18
I86
sba(i__main__
Token
p464
(dp465
g18
I87
sba(i__main__
Token
p466
(dp467
g18
I88
sba(i__main__
Token
p468
(dp469
g18
I89
sbasg19
Nsba(i__main__
Mention
p470
(dp471
g7
S't11'
p472
sg9
S'Anaphora-RE'
p473
sg10
S'i34'
p474
sg12
S'i27'
p475
sg13
Nsg14
(lp476
(i__main__
Token
p477
(dp478
g18
I91
sbasg19
I91
sbasg7
g433
sg74
Nsba(i__main__
Chain
p479
(dp480
g3
(lp481
(i__main__
Mention
p482
(dp483
g7
S't12'
p484
sg9
Nsg10
S'i29'
p485
sg12
Nsg13
Nsg14
(lp486
(i__main__
Token
p487
(dp488
g18
I77
sba(i__main__
Token
p489
(dp490
g18
I78
sbasg19
I78
sba(i__main__
Mention
p491
(dp492
g7
S't12'
p493
sg9
S'Anaphora-C'
p494
sg10
S'i30'
p495
sg12
S'i29'
p496
sg13
Nsg14
(lp497
(i__main__
Token
p498
(dp499
g18
I82
sbasg19
I82
sba(i__main__
Mention
p500
(dp501
g7
S't12'
p502
sg9
S'Coreference-Identity'
p503
sg10
S'i52'
p504
sg12
S'i30'
p505
sg13
Nsg14
(lp506
(i__main__
Token
p507
(dp508
g18
I153
sba(i__main__
Token
p509
(dp510
g18
I154
sbasg19
I154
sba(i__main__
Mention
p511
(dp512
g7
S't12'
p513
sg9
S'Coreference-Noun-Noun'
p514
sg10
S'i56'
p515
sg12
S'i52'
p516
sg13
Nsg14
(lp517
(i__main__
Token
p518
(dp519
g18
I182
sba(i__main__
Token
p520
(dp521
g18
I183
sbasg19
I183
sba(i__main__
Mention
p522
(dp523
g7
S't12'
p524
sg9
S'Coreference-Apposition'
p525
sg10
S'i57'
p526
sg12
S'i56'
p527
sg13
Nsg14
(lp528
(i__main__
Token
p529
(dp530
g18
I187
sba(i__main__
Token
p531
(dp532
g18
I188
sbasg19
I188
sbasg7
g484
sg74
Nsba(i__main__
Chain
p533
(dp534
g3
(lp535
(i__main__
Mention
p536
(dp537
g7
S't13'
p538
sg9
Nsg10
S'i32'
p539
sg12
Nsg13
Nsg14
(lp540
(i__main__
Token
p541
(dp542
g18
I83
sba(i__main__
Token
p543
(dp544
g18
I84
sba(i__main__
Token
p545
(dp546
g18
I85
sba(i__main__
Token
p547
(dp548
g18
I86
sba(i__main__
Token
p549
(dp550
g18
I87
sba(i__main__
Token
p551
(dp552
g18
I88
sba(i__main__
Token
p553
(dp554
g18
I89
sbasg19
Nsba(i__main__
Mention
p555
(dp556
g7
S't13'
p557
sg9
S'Coreference-Noun-Noun'
p558
sg10
S'i37'
p559
sg12
S'i32'
p560
sg13
Nsg14
(lp561
(i__main__
Token
p562
(dp563
g18
I98
sba(i__main__
Token
p564
(dp565
g18
I99
sbasg19
I99
sbasg7
g538
sg74
Nsba(i__main__
Chain
p566
(dp567
g3
(lp568
(i__main__
Mention
p569
(dp570
g7
S't14'
p571
sg9
S'anaphora-?'
p572
sg10
S'i38'
p573
sg12
S'i38'
p574
sg13
Nsg14
(lp575
(i__main__
Token
p576
(dp577
g18
I101
sbasg19
I101
sbasg7
g571
sg74
Nsba(i__main__
Chain
p578
(dp579
g3
(lp580
(i__main__
Mention
p581
(dp582
g7
S't15'
p583
sg9
Nsg10
S'i41'
p584
sg12
Nsg13
Nsg14
(lp585
(i__main__
Token
p586
(dp587
g18
I108
sba(i__main__
Token
p588
(dp589
g18
I109
sba(i__main__
Token
p590
(dp591
g18
I110
sba(i__main__
Token
p592
(dp593
g18
I111
sba(i__main__
Token
p594
(dp595
g18
I112
sba(i__main__
Token
p596
(dp597
g18
I113
sba(i__main__
Token
p598
(dp599
g18
I114
sba(i__main__
Token
p600
(dp601
g18
I115
sba(i__main__
Token
p602
(dp603
g18
I116
sba(i__main__
Token
p604
(dp605
g18
I117
sba(i__main__
Token
p606
(dp607
g18
I118
sba(i__main__
Token
p608
(dp609
g18
I119
sba(i__main__
Token
p610
(dp611
g18
I120
sba(i__main__
Token
p612
(dp613
g18
I121
sba(i__main__
Token
p614
(dp615
g18
I122
sba(i__main__
Token
p616
(dp617
g18
I123
sbasg19
I121
sba(i__main__
Mention
p618
(dp619
g7
S't15'
p620
sg9
S'Anaphora-C'
p621
sg10
S'i46'
p622
sg12
S'i41'
p623
sg13
Nsg14
(lp624
(i__main__
Token
p625
(dp626
g18
I125
sbasg19
I125
sbasg7
g583
sg74
Nsba(i__main__
Chain
p627
(dp628
g3
(lp629
(i__main__
Mention
p630
(dp631
g7
S't16'
p632
sg9
Nsg10
S'i43'
p633
sg12
Nsg13
Nsg14
(lp634
(i__main__
Token
p635
(dp636
g18
I111
sba(i__main__
Token
p637
(dp638
g18
I112
sba(i__main__
Token
p639
(dp640
g18
I113
sbasg19
I113
sba(i__main__
Mention
p641
(dp642
g7
S't16'
p643
sg9
S'Coreference-Identity'
p644
sg10
S'i48'
p645
sg12
S'i43'
p646
sg13
Nsg14
(lp647
(i__main__
Token
p648
(dp649
g18
I127
sbasg19
I127
sbasg7
g632
sg74
Nsba(i__main__
Chain
p650
(dp651
g3
(lp652
(i__main__
Mention
p653
(dp654
g7
S't17'
p655
sg9
Nsg10
S'i45'
p656
sg12
Nsg13
Nsg14
(lp657
(i__main__
Token
p658
(dp659
g18
I117
sbasg19
I117
sba(i__main__
Mention
p660
(dp661
g7
S't17'
p662
sg9
S'Coreference-Identity'
p663
sg10
S'i54'
p664
sg12
S'i45'
p665
sg13
Nsg14
(lp666
(i__main__
Token
p667
(dp668
g18
I170
sbasg19
I170
sbasg7
g655
sg74
Nsba.