(lp0
(i__main__
Chain
p1
(dp2
S'mentionList'
p3
(lp4
(i__main__
Mention
p5
(dp6
S'chainId'
p7
S't1'
p8
sS'relType'
p9
NsS'mentionId'
p10
S'i1'
p11
sS'antecedentId'
p12
NsS'crefMod'
p13
NsS'tokenList'
p14
(lp15
(i__main__
Token
p16
(dp17
S'tokenId'
p18
I0
sba(i__main__
Token
p19
(dp20
g18
I1
sbasS'mentionHead'
p21
I1
sba(i__main__
Mention
p22
(dp23
g7
S't1'
p24
sg9
S'Coreference-NounComplement'
p25
sg10
S'i2'
p26
sg12
S'i1'
p27
sg13
Nsg14
(lp28
(i__main__
Token
p29
(dp30
g18
I2
sba(i__main__
Token
p31
(dp32
g18
I3
sba(i__main__
Token
p33
(dp34
g18
I4
sbasg21
I4
sba(i__main__
Mention
p35
(dp36
g7
S't1'
p37
sg9
S'Coreference-Identity'
p38
sg10
S'i20'
p39
sg12
S'i2'
p40
sg13
Nsg14
(lp41
(i__main__
Token
p42
(dp43
g18
I78
sba(i__main__
Token
p44
(dp45
g18
I79
sba(i__main__
Token
p46
(dp47
g18
I80
sbasg21
I80
sbasg7
g8
sS'chainHead'
p48
Nsba(i__main__
Chain
p49
(dp50
g3
(lp51
(i__main__
Mention
p52
(dp53
g7
S't2'
p54
sg9
Nsg10
S'i3'
p55
sg12
Nsg13
Nsg14
(lp56
(i__main__
Token
p57
(dp58
g18
I6
sba(i__main__
Token
p59
(dp60
g18
I7
sbasg21
Nsba(i__main__
Mention
p61
(dp62
g7
S't2'
p63
sg9
Nsg10
S'i7'
p64
sg12
Nsg13
Nsg14
(lp65
(i__main__
Token
p66
(dp67
g18
I40
sba(i__main__
Token
p68
(dp69
g18
I41
sbasg21
Nsba(i__main__
Mention
p70
(dp71
g7
S't2'
p72
sg9
S'Coreference-PartOf'
p73
sg10
S'i13'
p74
sg12
S'i7'
p75
sg13
Nsg14
(lp76
(i__main__
Token
p77
(dp78
g18
I60
sba(i__main__
Token
p79
(dp80
g18
I61
sbasg21
I61
sba(i__main__
Mention
p81
(dp82
g7
S't2'
p83
sg9
S'Coreference-Noun-Noun'
p84
sg10
S'i14'
p85
sg12
S'i13'
p86
sg13
Nsg14
(lp87
(i__main__
Token
p88
(dp89
g18
I63
sba(i__main__
Token
p90
(dp91
g18
I64
sbasg21
I64
sba(i__main__
Mention
p92
(dp93
g7
S't2'
p94
sg9
Nsg10
S'i22'
p95
sg12
Nsg13
Nsg14
(lp96
(i__main__
Token
p97
(dp98
g18
I90
sba(i__main__
Token
p99
(dp100
g18
I91
sbasg21
Nsba(i__main__
Mention
p101
(dp102
g7
S't2'
p103
sg9
Nsg10
S'i28'
p104
sg12
Nsg13
Nsg14
(lp105
(i__main__
Token
p106
(dp107
g18
I126
sba(i__main__
Token
p108
(dp109
g18
I127
sbasg21
Nsba(i__main__
Mention
p110
(dp111
g7
S't2'
p112
sg9
S'Coreference-PartOf'
p113
sg10
S'i32'
p114
sg12
S'i28'
p115
sg13
Nsg14
(lp116
(i__main__
Token
p117
(dp118
g18
I141
sba(i__main__
Token
p119
(dp120
g18
I142
sbasg21
I142
sbasg7
g54
sg48
Nsba(i__main__
Chain
p121
(dp122
g3
(lp123
(i__main__
Mention
p124
(dp125
g7
S't3'
p126
sg9
Nsg10
S'i4'
p127
sg12
Nsg13
Nsg14
(lp128
(i__main__
Token
p129
(dp130
g18
I6
sba(i__main__
Token
p131
(dp132
g18
I7
sbasg21
Nsba(i__main__
Mention
p133
(dp134
g7
S't3'
p135
sg9
Nsg10
S'i8'
p136
sg12
Nsg13
Nsg14
(lp137
(i__main__
Token
p138
(dp139
g18
I40
sba(i__main__
Token
p140
(dp141
g18
I41
sbasg21
Nsba(i__main__
Mention
p142
(dp143
g7
S't3'
p144
sg9
S'Coreference-PartOf'
p145
sg10
S'i15'
p146
sg12
S'i8'
p147
sg13
Nsg14
(lp148
(i__main__
Token
p149
(dp150
g18
I66
sba(i__main__
Token
p151
(dp152
g18
I67
sbasg21
I67
sba(i__main__
Mention
p153
(dp154
g7
S't3'
p155
sg9
S'Coreference-Noun-Noun'
p156
sg10
S'i16'
p157
sg12
S'i15'
p158
sg13
Nsg14
(lp159
(i__main__
Token
p160
(dp161
g18
I69
sbasg21
I69
sba(i__main__
Mention
p162
(dp163
g7
S't3'
p164
sg9
Nsg10
S'i23'
p165
sg12
Nsg13
Nsg14
(lp166
(i__main__
Token
p167
(dp168
g18
I90
sba(i__main__
Token
p169
(dp170
g18
I91
sbasg21
Nsba(i__main__
Mention
p171
(dp172
g7
S't3'
p173
sg9
Nsg10
S'i29'
p174
sg12
Nsg13
Nsg14
(lp175
(i__main__
Token
p176
(dp177
g18
I126
sba(i__main__
Token
p178
(dp179
g18
I127
sbasg21
Nsbasg7
g126
sg48
Nsba(i__main__
Chain
p180
(dp181
g3
(lp182
(i__main__
Mention
p183
(dp184
g7
S't4'
p185
sg9
Nsg10
S'i5'
p186
sg12
Nsg13
Nsg14
(lp187
(i__main__
Token
p188
(dp189
g18
I6
sba(i__main__
Token
p190
(dp191
g18
I7
sbasg21
Nsba(i__main__
Mention
p192
(dp193
g7
S't4'
p194
sg9
Nsg10
S'i9'
p195
sg12
Nsg13
Nsg14
(lp196
(i__main__
Token
p197
(dp198
g18
I40
sba(i__main__
Token
p199
(dp200
g18
I41
sbasg21
Nsba(i__main__
Mention
p201
(dp202
g7
S't4'
p203
sg9
S'Coreference-PartOf'
p204
sg10
S'i17'
p205
sg12
S'i9'
p206
sg13
Nsg14
(lp207
(i__main__
Token
p208
(dp209
g18
I71
sba(i__main__
Token
p210
(dp211
g18
I72
sbasg21
I72
sba(i__main__
Mention
p212
(dp213
g7
S't4'
p214
sg9
S'Coreference-Noun-Noun'
p215
sg10
S'i18'
p216
sg12
S'i17'
p217
sg13
Nsg14
(lp218
(i__main__
Token
p219
(dp220
g18
I74
sbasg21
I74
sba(i__main__
Mention
p221
(dp222
g7
S't4'
p223
sg9
Nsg10
S'i24'
p224
sg12
Nsg13
Nsg14
(lp225
(i__main__
Token
p226
(dp227
g18
I90
sba(i__main__
Token
p228
(dp229
g18
I91
sbasg21
Nsba(i__main__
Mention
p230
(dp231
g7
S't4'
p232
sg9
Nsg10
S'i30'
p233
sg12
Nsg13
Nsg14
(lp234
(i__main__
Token
p235
(dp236
g18
I126
sba(i__main__
Token
p237
(dp238
g18
I127
sbasg21
Nsbasg7
g185
sg48
Nsba(i__main__
Chain
p239
(dp240
g3
(lp241
(i__main__
Mention
p242
(dp243
g7
S't5'
p244
sg9
Nsg10
S'i6'
p245
sg12
Nsg13
Nsg14
(lp246
(i__main__
Token
p247
(dp248
g18
I6
sba(i__main__
Token
p249
(dp250
g18
I7
sbasg21
Nsba(i__main__
Mention
p251
(dp252
g7
S't5'
p253
sg9
Nsg10
S'i10'
p254
sg12
Nsg13
Nsg14
(lp255
(i__main__
Token
p256
(dp257
g18
I40
sba(i__main__
Token
p258
(dp259
g18
I41
sbasg21
Nsba(i__main__
Mention
p260
(dp261
g7
S't5'
p262
sg9
S'Coreference-PartOf'
p263
sg10
S'i19'
p264
sg12
S'i10'
p265
sg13
Nsg14
(lp266
(i__main__
Token
p267
(dp268
g18
I76
sba(i__main__
Token
p269
(dp270
g18
I77
sbasg21
I77
sba(i__main__
Mention
p271
(dp272
g7
S't5'
p273
sg9
Nsg10
S'i25'
p274
sg12
Nsg13
Nsg14
(lp275
(i__main__
Token
p276
(dp277
g18
I90
sba(i__main__
Token
p278
(dp279
g18
I91
sbasg21
Nsba(i__main__
Mention
p280
(dp281
g7
S't5'
p282
sg9
Nsg10
S'i31'
p283
sg12
Nsg13
Nsg14
(lp284
(i__main__
Token
p285
(dp286
g18
I126
sba(i__main__
Token
p287
(dp288
g18
I127
sbasg21
Nsbasg7
g244
sg48
Nsba(i__main__
Chain
p289
(dp290
g3
(lp291
(i__main__
Mention
p292
(dp293
g7
S't6'
p294
sg9
Nsg10
S'i11'
p295
sg12
Nsg13
Nsg14
(lp296
(i__main__
Token
p297
(dp298
g18
I50
sba(i__main__
Token
p299
(dp300
g18
I51
sbasg21
I51
sba(i__main__
Mention
p301
(dp302
g7
S't6'
p303
sg9
S'Coreference-NounComplement'
p304
sg10
S'i12'
p305
sg12
S'i11'
p306
sg13
Nsg14
(lp307
(i__main__
Token
p308
(dp309
g18
I52
sba(i__main__
Token
p310
(dp311
g18
I53
sbasg21
I53
sba(i__main__
Mention
p312
(dp313
g7
S't6'
p314
sg9
S'Anaphora-C'
p315
sg10
S'i21'
p316
sg12
S'i12'
p317
sg13
Nsg14
(lp318
(i__main__
Token
p319
(dp320
g18
I87
sbasg21
I87
sbasg7
g294
sg48
Nsba(i__main__
Chain
p321
(dp322
g3
(lp323
(i__main__
Mention
p324
(dp325
g7
S't7'
p326
sg9
Nsg10
S'i26'
p327
sg12
Nsg13
Nsg14
(lp328
(i__main__
Token
p329
(dp330
g18
I117
sba(i__main__
Token
p331
(dp332
g18
I118
sbasg21
I118
sba(i__main__
Mention
p333
(dp334
g7
S't7'
p335
sg9
S'Anaphora-C'
p336
sg10
S'i27'
p337
sg12
S'i26'
p338
sg13
Nsg14
(lp339
(i__main__
Token
p340
(dp341
g18
I122
sbasg21
I122
sbasg7
g326
sg48
Nsba.