(lp0
(i__main__
Chain
p1
(dp2
S'mentionList'
p3
(lp4
(i__main__
Mention
p5
(dp6
S'chainId'
p7
S't1'
p8
sS'relType'
p9
NsS'mentionId'
p10
S'i1'
p11
sS'antecedentId'
p12
NsS'crefMod'
p13
NsS'tokenList'
p14
(lp15
(i__main__
Token
p16
(dp17
S'tokenId'
p18
I0
sbasS'mentionHead'
p19
I0
sba(i__main__
Mention
p20
(dp21
g7
S't1'
p22
sg9
S'Coreference-InferedRelation'
p23
sg10
S'i7'
p24
sg12
S'i1'
p25
sg13
Nsg14
(lp26
(i__main__
Token
p27
(dp28
g18
I28
sbasg19
I28
sba(i__main__
Mention
p29
(dp30
g7
S't1'
p31
sg9
S'Coreference-Noun-Noun'
p32
sg10
S'i13'
p33
sg12
S'i7'
p34
sg13
Nsg14
(lp35
(i__main__
Token
p36
(dp37
g18
I57
sbasg19
I57
sbasg7
g8
sS'chainHead'
p38
Nsba(i__main__
Chain
p39
(dp40
g3
(lp41
(i__main__
Mention
p42
(dp43
g7
S't2'
p44
sg9
Nsg10
S'i2'
p45
sg12
Nsg13
Nsg14
(lp46
(i__main__
Token
p47
(dp48
g18
I8
sba(i__main__
Token
p49
(dp50
g18
I9
sbasg19
I9
sba(i__main__
Mention
p51
(dp52
g7
S't2'
p53
sg9
S'Coreference-Identity'
p54
sg10
S'i8'
p55
sg12
S'i2'
p56
sg13
Nsg14
(lp57
(i__main__
Token
p58
(dp59
g18
I30
sba(i__main__
Token
p60
(dp61
g18
I31
sbasg19
I31
sba(i__main__
Mention
p62
(dp63
g7
S't2'
p64
sg9
S'Coreference-Identity'
p65
sg10
S'i14'
p66
sg12
S'i8'
p67
sg13
Nsg14
(lp68
(i__main__
Token
p69
(dp70
g18
I68
sba(i__main__
Token
p71
(dp72
g18
I69
sbasg19
I69
sba(i__main__
Mention
p73
(dp74
g7
S't2'
p75
sg9
S'Coreference-Identity'
p76
sg10
S'i21'
p77
sg12
S'i14'
p78
sg13
Nsg14
(lp79
(i__main__
Token
p80
(dp81
g18
I111
sba(i__main__
Token
p82
(dp83
g18
I112
sbasg19
I112
sbasg7
g44
sg38
Nsba(i__main__
Chain
p84
(dp85
g3
(lp86
(i__main__
Mention
p87
(dp88
g7
S't3'
p89
sg9
Nsg10
S'i3'
p90
sg12
Nsg13
Nsg14
(lp91
(i__main__
Token
p92
(dp93
g18
I11
sbasg19
I11
sba(i__main__
Mention
p94
(dp95
g7
S't3'
p96
sg9
S'Coreference-PartOf'
p97
sg10
S'i4'
p98
sg12
S'i3'
p99
sg13
Nsg14
(lp100
(i__main__
Token
p101
(dp102
g18
I21
sba(i__main__
Token
p103
(dp104
g18
I22
sbasg19
I22
sba(i__main__
Mention
p105
(dp106
g7
S't3'
p107
sg9
S'Coreference-PartOf'
p108
sg10
S'i15'
p109
sg12
S'i4'
p110
sg13
Nsg14
(lp111
(i__main__
Token
p112
(dp113
g18
I86
sba(i__main__
Token
p114
(dp115
g18
I87
sba(i__main__
Token
p116
(dp117
g18
I88
sba(i__main__
Token
p118
(dp119
g18
I89
sba(i__main__
Token
p120
(dp121
g18
I90
sba(i__main__
Token
p122
(dp123
g18
I91
sbasg19
I91
sba(i__main__
Mention
p124
(dp125
g7
S't3'
p126
sg9
S'Coreference-Identity'
p127
sg10
S'i19'
p128
sg12
S'i15'
p129
sg13
Nsg14
(lp130
(i__main__
Token
p131
(dp132
g18
I106
sbasg19
I106
sba(i__main__
Mention
p133
(dp134
g7
S't3'
p135
sg9
S'Anaphora-C'
p136
sg10
S'i20'
p137
sg12
S'i19'
p138
sg13
Nsg14
(lp139
(i__main__
Token
p140
(dp141
g18
I110
sbasg19
I110
sba(i__main__
Mention
p142
(dp143
g7
S't3'
p144
sg9
S'Anaphora-C'
p145
sg10
S'i22'
p146
sg12
S'i20'
p147
sg13
Nsg14
(lp148
(i__main__
Token
p149
(dp150
g18
I128
sbasg19
I128
sbasg7
g89
sg38
Nsba(i__main__
Chain
p151
(dp152
g3
(lp153
(i__main__
Mention
p154
(dp155
g7
S't4'
p156
sg9
Nsg10
S'i5'
p157
sg12
Nsg13
Nsg14
(lp158
(i__main__
Token
p159
(dp160
g18
I21
sba(i__main__
Token
p161
(dp162
g18
I22
sba(i__main__
Token
p163
(dp164
g18
I23
sba(i__main__
Token
p165
(dp166
g18
I24
sba(i__main__
Token
p167
(dp168
g18
I25
sba(i__main__
Token
p169
(dp170
g18
I26
sba(i__main__
Token
p171
(dp172
g18
I27
sba(i__main__
Token
p173
(dp174
g18
I28
sba(i__main__
Token
p175
(dp176
g18
I29
sba(i__main__
Token
p177
(dp178
g18
I30
sba(i__main__
Token
p179
(dp180
g18
I31
sba(i__main__
Token
p181
(dp182
g18
I32
sba(i__main__
Token
p183
(dp184
g18
I33
sba(i__main__
Token
p185
(dp186
g18
I34
sba(i__main__
Token
p187
(dp188
g18
I35
sbasg19
I35
sba(i__main__
Mention
p189
(dp190
g7
S't4'
p191
sg9
S'Coreference-Noun-Noun'
p192
sg10
S'i11'
p193
sg12
S'i5'
p194
sg13
Nsg14
(lp195
(i__main__
Token
p196
(dp197
g18
I49
sba(i__main__
Token
p198
(dp199
g18
I50
sbasg19
I50
sba(i__main__
Mention
p200
(dp201
g7
S't4'
p202
sg9
S'Coreference-Identity'
p203
sg10
S'i17'
p204
sg12
S'i11'
p205
sg13
Nsg14
(lp206
(i__main__
Token
p207
(dp208
g18
I103
sbasg19
I103
sbasg7
g156
sg38
Nsba(i__main__
Chain
p209
(dp210
g3
(lp211
(i__main__
Mention
p212
(dp213
g7
S't5'
p214
sg9
Nsg10
S'i6'
p215
sg12
Nsg13
Nsg14
(lp216
(i__main__
Token
p217
(dp218
g18
I21
sba(i__main__
Token
p219
(dp220
g18
I22
sba(i__main__
Token
p221
(dp222
g18
I23
sba(i__main__
Token
p223
(dp224
g18
I24
sba(i__main__
Token
p225
(dp226
g18
I25
sba(i__main__
Token
p227
(dp228
g18
I26
sba(i__main__
Token
p229
(dp230
g18
I27
sba(i__main__
Token
p231
(dp232
g18
I28
sba(i__main__
Token
p233
(dp234
g18
I29
sba(i__main__
Token
p235
(dp236
g18
I30
sba(i__main__
Token
p237
(dp238
g18
I31
sba(i__main__
Token
p239
(dp240
g18
I32
sba(i__main__
Token
p241
(dp242
g18
I33
sba(i__main__
Token
p243
(dp244
g18
I34
sba(i__main__
Token
p245
(dp246
g18
I35
sba(i__main__
Token
p247
(dp248
g18
I36
sba(i__main__
Token
p249
(dp250
g18
I37
sba(i__main__
Token
p251
(dp252
g18
I38
sba(i__main__
Token
p253
(dp254
g18
I39
sba(i__main__
Token
p255
(dp256
g18
I40
sbasg19
I38
sba(i__main__
Mention
p257
(dp258
g7
S't5'
p259
sg9
S'Anaphora-E'
p260
sg10
S'i12'
p261
sg12
S'i6'
p262
sg13
Nsg14
(lp263
(i__main__
Token
p264
(dp265
g18
I55
sbasg19
I55
sbasg7
g214
sg38
Nsba(i__main__
Chain
p266
(dp267
g3
(lp268
(i__main__
Mention
p269
(dp270
g7
S't6'
p271
sg9
Nsg10
S'i9'
p272
sg12
Nsg13
Nsg14
(lp273
(i__main__
Token
p274
(dp275
g18
I33
sbasg19
I33
sba(i__main__
Mention
p276
(dp277
g7
S't6'
p278
sg9
S'Coreference-Identity'
p279
sg10
S'i23'
p280
sg12
S'i9'
p281
sg13
Nsg14
(lp282
(i__main__
Token
p283
(dp284
g18
I129
sbasg19
I129
sbasg7
g271
sg38
Nsba(i__main__
Chain
p285
(dp286
g3
(lp287
(i__main__
Mention
p288
(dp289
g7
S't7'
p290
sg9
Nsg10
S'i10'
p291
sg12
Nsg13
Nsg14
(lp292
(i__main__
Token
p293
(dp294
g18
I42
sba(i__main__
Token
p295
(dp296
g18
I43
sbasg19
I43
sba(i__main__
Mention
p297
(dp298
g7
S't7'
p299
sg9
S'Coreference-Identity'
p300
sg10
S'i16'
p301
sg12
S'i10'
p302
sg13
Nsg14
(lp303
(i__main__
Token
p304
(dp305
g18
I100
sba(i__main__
Token
p306
(dp307
g18
I101
sbasg19
I101
sba(i__main__
Mention
p308
(dp309
g7
S't7'
p310
sg9
S'Anaphora-C'
p311
sg10
S'i18'
p312
sg12
S'i16'
p313
sg13
Nsg14
(lp314
(i__main__
Token
p315
(dp316
g18
I105
sbasg19
I105
sbasg7
g290
sg38
Nsba.