(lp0
(i__main__
Chain
p1
(dp2
S'mentionList'
p3
(lp4
(i__main__
Mention
p5
(dp6
S'chainId'
p7
S't1'
p8
sS'relType'
p9
NsS'mentionId'
p10
S'i1'
p11
sS'antecedentId'
p12
NsS'crefMod'
p13
NsS'tokenList'
p14
(lp15
(i__main__
Token
p16
(dp17
S'tokenId'
p18
I0
sba(i__main__
Token
p19
(dp20
g18
I1
sba(i__main__
Token
p21
(dp22
g18
I2
sba(i__main__
Token
p23
(dp24
g18
I3
sba(i__main__
Token
p25
(dp26
g18
I4
sba(i__main__
Token
p27
(dp28
g18
I5
sba(i__main__
Token
p29
(dp30
g18
I6
sba(i__main__
Token
p31
(dp32
g18
I7
sba(i__main__
Token
p33
(dp34
g18
I8
sba(i__main__
Token
p35
(dp36
g18
I9
sba(i__main__
Token
p37
(dp38
g18
I10
sba(i__main__
Token
p39
(dp40
g18
I11
sba(i__main__
Token
p41
(dp42
g18
I12
sba(i__main__
Token
p43
(dp44
g18
I13
sba(i__main__
Token
p45
(dp46
g18
I14
sbasS'mentionHead'
p47
I14
sba(i__main__
Mention
p48
(dp49
g7
S't1'
p50
sg9
S'Coreference-NounComplement'
p51
sg10
S'i2'
p52
sg12
S'i1'
p53
sg13
Nsg14
(lp54
(i__main__
Token
p55
(dp56
g18
I15
sba(i__main__
Token
p57
(dp58
g18
I16
sbasg47
I16
sba(i__main__
Mention
p59
(dp60
g7
S't1'
p61
sg9
S'Anaphora-C'
p62
sg10
S'i15'
p63
sg12
S'i2'
p64
sg13
Nsg14
(lp65
(i__main__
Token
p66
(dp67
g18
I43
sbasg47
I43
sba(i__main__
Mention
p68
(dp69
g7
S't1'
p70
sg9
S'Coreference-Identity'
p71
sg10
S'i20'
p72
sg12
S'i15'
p73
sg13
Nsg14
(lp74
(i__main__
Token
p75
(dp76
g18
I57
sbasg47
I57
sba(i__main__
Mention
p77
(dp78
g7
S't1'
p79
sg9
S'Anaphora-C'
p80
sg10
S'i21'
p81
sg12
S'i20'
p82
sg13
Nsg14
(lp83
(i__main__
Token
p84
(dp85
g18
I64
sbasg47
I64
sba(i__main__
Mention
p86
(dp87
g7
S't1'
p88
sg9
S'Coreference-Identity'
p89
sg10
S'i26'
p90
sg12
S'i21'
p91
sg13
Nsg14
(lp92
(i__main__
Token
p93
(dp94
g18
I78
sbasg47
I78
sba(i__main__
Mention
p95
(dp96
g7
S't1'
p97
sg9
S'Anaphora-C'
p98
sg10
S'i27'
p99
sg12
S'i26'
p100
sg13
Nsg14
(lp101
(i__main__
Token
p102
(dp103
g18
I80
sbasg47
I80
sba(i__main__
Mention
p104
(dp105
g7
S't1'
p106
sg9
S'Coreference-Noun-Noun'
p107
sg10
S'i36'
p108
sg12
S'i27'
p109
sg13
Nsg14
(lp110
(i__main__
Token
p111
(dp112
g18
I113
sba(i__main__
Token
p113
(dp114
g18
I114
sbasg47
I114
sba(i__main__
Mention
p115
(dp116
g7
S't1'
p117
sg9
S'Coreference-NounComplement'
p118
sg10
S'i37'
p119
sg12
S'i36'
p120
sg13
Nsg14
(lp121
(i__main__
Token
p122
(dp123
g18
I115
sba(i__main__
Token
p124
(dp125
g18
I116
sbasg47
I116
sba(i__main__
Mention
p126
(dp127
g7
S't1'
p128
sg9
S'Anaphora-C'
p129
sg10
S'i39'
p130
sg12
S'i37'
p131
sg13
Nsg14
(lp132
(i__main__
Token
p133
(dp134
g18
I124
sbasg47
I124
sba(i__main__
Mention
p135
(dp136
g7
S't1'
p137
sg9
S'Coreference-Identity'
p138
sg10
S'i82'
p139
sg12
S'i39'
p140
sg13
Nsg14
(lp141
(i__main__
Token
p142
(dp143
g18
I271
sba(i__main__
Token
p144
(dp145
g18
I272
sbasg47
I272
sba(i__main__
Mention
p146
(dp147
g7
S't1'
p148
sg9
S'Coreference-Identity'
p149
sg10
S'i85'
p150
sg12
S'i82'
p151
sg13
Nsg14
(lp152
(i__main__
Token
p153
(dp154
g18
I285
sbasg47
I285
sba(i__main__
Mention
p155
(dp156
g7
S't1'
p157
sg9
S'Coreference-Identity'
p158
sg10
S'i90'
p159
sg12
S'i85'
p160
sg13
Nsg14
(lp161
(i__main__
Token
p162
(dp163
g18
I299
sbasg47
I299
sba(i__main__
Mention
p164
(dp165
g7
S't1'
p166
sg9
S'Coreference-Identity'
p167
sg10
S'i100'
p168
sg12
S'i90'
p169
sg13
Nsg14
(lp170
(i__main__
Token
p171
(dp172
g18
I317
sbasg47
I317
sba(i__main__
Mention
p173
(dp174
g7
S't1'
p175
sg9
S'Anaphora-C'
p176
sg10
S'i105'
p177
sg12
S'i100'
p178
sg13
Nsg14
(lp179
(i__main__
Token
p180
(dp181
g18
I337
sbasg47
I337
sba(i__main__
Mention
p182
(dp183
g7
S't1'
p184
sg9
S'Coreference-Identity'
p185
sg10
S'i111'
p186
sg12
S'i105'
p187
sg13
Nsg14
(lp188
(i__main__
Token
p189
(dp190
g18
I354
sbasg47
I354
sba(i__main__
Mention
p191
(dp192
g7
S't1'
p193
sg9
S'Anaphora-C'
p194
sg10
S'i114'
p195
sg12
S'i111'
p196
sg13
Nsg14
(lp197
(i__main__
Token
p198
(dp199
g18
I370
sbasg47
I370
sba(i__main__
Mention
p200
(dp201
g7
S't1'
p202
sg9
S'Coreference-Identity'
p203
sg10
S'i119'
p204
sg12
S'i114'
p205
sg13
Nsg14
(lp206
(i__main__
Token
p207
(dp208
g18
I414
sba(i__main__
Token
p209
(dp210
g18
I415
sbasg47
I415
sba(i__main__
Mention
p211
(dp212
g7
S't1'
p213
sg9
S'Coreference-Identity'
p214
sg10
S'i123'
p215
sg12
S'i119'
p216
sg13
Nsg14
(lp217
(i__main__
Token
p218
(dp219
g18
I468
sba(i__main__
Token
p220
(dp221
g18
I469
sbasg47
I469
sba(i__main__
Mention
p222
(dp223
g7
S't1'
p224
sg9
S'Anaphora-C'
p225
sg10
S'i126'
p226
sg12
S'i123'
p227
sg13
Nsg14
(lp228
(i__main__
Token
p229
(dp230
g18
I479
sbasg47
I479
sba(i__main__
Mention
p231
(dp232
g7
S't1'
p233
sg9
S'Anaphora-C'
p234
sg10
S'i127'
p235
sg12
S'i126'
p236
sg13
Nsg14
(lp237
(i__main__
Token
p238
(dp239
g18
I482
sbasg47
I482
sba(i__main__
Mention
p240
(dp241
g7
S't1'
p242
sg9
S'Coreference-Identity'
p243
sg10
S'i138'
p244
sg12
S'i127'
p245
sg13
Nsg14
(lp246
(i__main__
Token
p247
(dp248
g18
I522
sba(i__main__
Token
p249
(dp250
g18
I523
sbasg47
I523
sba(i__main__
Mention
p251
(dp252
g7
S't1'
p253
sg9
S'Anaphora-C'
p254
sg10
S'i139'
p255
sg12
S'i138'
p256
sg13
Nsg14
(lp257
(i__main__
Token
p258
(dp259
g18
I525
sbasg47
I525
sba(i__main__
Mention
p260
(dp261
g7
S't1'
p262
sg9
S'Coreference-Identity'
p263
sg10
S'i142'
p264
sg12
S'i141'
p265
sg13
Nsg14
(lp266
(i__main__
Token
p267
(dp268
g18
I536
sba(i__main__
Token
p269
(dp270
g18
I537
sba(i__main__
Token
p271
(dp272
g18
I538
sbasg47
I538
sba(i__main__
Mention
p273
(dp274
g7
S't1'
p275
sg9
S'Anaphora-C'
p276
sg10
S'i148'
p277
sg12
S'i142'
p278
sg13
Nsg14
(lp279
(i__main__
Token
p280
(dp281
g18
I589
sbasg47
I589
sbasg7
g8
sS'chainHead'
p282
Nsba(i__main__
Chain
p283
(dp284
g3
(lp285
(i__main__
Mention
p286
(dp287
g7
S't2'
p288
sg9
Nsg10
S'i3'
p289
sg12
Nsg13
Nsg14
(lp290
(i__main__
Token
p291
(dp292
g18
I19
sba(i__main__
Token
p293
(dp294
g18
I20
sba(i__main__
Token
p295
(dp296
g18
I21
sbasg47
I21
sba(i__main__
Mention
p297
(dp298
g7
S't2'
p299
sg9
Nsg10
S'i14'
p300
sg12
Nsg13
Nsg14
(lp301
(i__main__
Token
p302
(dp303
g18
I32
sba(i__main__
Token
p304
(dp305
g18
I33
sbasg47
Nsba(i__main__
Mention
p306
(dp307
g7
S't2'
p308
sg9
S'Coreference-Identity'
p309
sg10
S'i32'
p310
sg12
S'i14'
p311
sg13
Nsg14
(lp312
(i__main__
Token
p313
(dp314
g18
I103
sbasg47
I103
sba(i__main__
Mention
p315
(dp316
g7
S't2'
p317
sg9
S'Coreference-Identity'
p318
sg10
S'i106'
p319
sg12
S'i32'
p320
sg13
Nsg14
(lp321
(i__main__
Token
p322
(dp323
g18
I343
sbasg47
I343
sba(i__main__
Mention
p324
(dp325
g7
S't2'
p326
sg9
S'Coreference-Noun-Noun'
p327
sg10
S'i124'
p328
sg12
S'i106'
p329
sg13
Nsg14
(lp330
(i__main__
Token
p331
(dp332
g18
I476
sbasg47
I476
sba(i__main__
Mention
p333
(dp334
g7
S't2'
p335
sg9
S'Coreference-Identity'
p336
sg10
S'i125'
p337
sg12
S'i124'
p338
sg13
Nsg14
(lp339
(i__main__
Token
p340
(dp341
g18
I477
sbasg47
I477
sbasg7
g288
sg282
Nsba(i__main__
Chain
p342
(dp343
g3
(lp344
(i__main__
Mention
p345
(dp346
g7
S't3'
p347
sg9
Nsg10
S'i4'
p348
sg12
Nsg13
Nsg14
(lp349
(i__main__
Token
p350
(dp351
g18
I19
sba(i__main__
Token
p352
(dp353
g18
I20
sbasg47
I20
sba(i__main__
Mention
p354
(dp355
g7
S't3'
p356
sg9
S'Coreference-Identity'
p357
sg10
S'i33'
p358
sg12
S'i4'
p359
sg13
Nsg14
(lp360
(i__main__
Token
p361
(dp362
g18
I103
sba(i__main__
Token
p363
(dp364
g18
I104
sbasg47
I104
sba(i__main__
Mention
p365
(dp366
g7
S't3'
p367
sg9
S'Coreference-Identity'
p368
sg10
S'i107'
p369
sg12
S'i33'
p370
sg13
Nsg14
(lp371
(i__main__
Token
p372
(dp373
g18
I343
sba(i__main__
Token
p374
(dp375
g18
I344
sbasg47
I344
sbasg7
g347
sg282
Nsba(i__main__
Chain
p376
(dp377
g3
(lp378
(i__main__
Mention
p379
(dp380
g7
S't4'
p381
sg9
Nsg10
S'i5'
p382
sg12
Nsg13
Nsg14
(lp383
(i__main__
Token
p384
(dp385
g18
I23
sbasg47
I23
sba(i__main__
Mention
p386
(dp387
g7
S't4'
p388
sg9
S'Coreference-NounComplement'
p389
sg10
S'i6'
p390
sg12
S'i5'
p391
sg13
Nsg14
(lp392
(i__main__
Token
p393
(dp394
g18
I24
sba(i__main__
Token
p395
(dp396
g18
I25
sbasg47
I25
sba(i__main__
Mention
p397
(dp398
g7
S't4'
p399
sg9
S'Coreference-Identity'
p400
sg10
S'i38'
p401
sg12
S'i6'
p402
sg13
Nsg14
(lp403
(i__main__
Token
p404
(dp405
g18
I120
sba(i__main__
Token
p406
(dp407
g18
I121
sba(i__main__
Token
p408
(dp409
g18
I122
sbasg47
I122
sbasg7
g381
sg282
Nsba(i__main__
Chain
p410
(dp411
g3
(lp412
(i__main__
Mention
p413
(dp414
g7
S't5'
p415
sg9
Nsg10
S'i7'
p416
sg12
Nsg13
Nsg14
(lp417
(i__main__
Token
p418
(dp419
g18
I27
sbasg47
I27
sba(i__main__
Mention
p420
(dp421
g7
S't5'
p422
sg9
S'Coreference-Identity'
p423
sg10
S'i145'
p424
sg12
S'i7'
p425
sg13
Nsg14
(lp426
(i__main__
Token
p427
(dp428
g18
I542
sbasg47
I542
sbasg7
g415
sg282
Nsba(i__main__
Chain
p429
(dp430
g3
(lp431
(i__main__
Mention
p432
(dp433
g7
S't6'
p434
sg9
Nsg10
S'i8'
p435
sg12
Nsg13
Nsg14
(lp436
(i__main__
Token
p437
(dp438
g18
I27
sba(i__main__
Token
p439
(dp440
g18
I30
sbasg47
Nsba(i__main__
Mention
p441
(dp442
g7
S't6'
p443
sg9
Nsg10
S'i18'
p444
sg12
Nsg13
Nsg14
(lp445
(i__main__
Token
p446
(dp447
g18
I47
sbasg47
Nsba(i__main__
Mention
p448
(dp449
g7
S't6'
p450
sg9
Nsg10
S'i24'
p451
sg12
Nsg13
Nsg14
(lp452
(i__main__
Token
p453
(dp454
g18
I73
sbasg47
Nsba(i__main__
Mention
p455
(dp456
g7
S't6'
p457
sg9
Nsg10
S'i29'
p458
sg12
Nsg13
Nsg14
(lp459
(i__main__
Token
p460
(dp461
g18
I90
sbasg47
Nsba(i__main__
Mention
p462
(dp463
g7
S't6'
p464
sg9
Nsg10
S'i68'
p465
sg12
Nsg13
Nsg14
(lp466
(i__main__
Token
p467
(dp468
g18
I238
sbasg47
Nsba(i__main__
Mention
p469
(dp470
g7
S't6'
p471
sg9
Nsg10
S'i76'
p472
sg12
Nsg13
Nsg14
(lp473
(i__main__
Token
p474
(dp475
g18
I256
sbasg47
Nsba(i__main__
Mention
p476
(dp477
g7
S't6'
p478
sg9
Nsg10
S'i83'
p479
sg12
Nsg13
Nsg14
(lp480
(i__main__
Token
p481
(dp482
g18
I281
sbasg47
Nsba(i__main__
Mention
p483
(dp484
g7
S't6'
p485
sg9
Nsg10
S'i91'
p486
sg12
Nsg13
Nsg14
(lp487
(i__main__
Token
p488
(dp489
g18
I301
sbasg47
Nsba(i__main__
Mention
p490
(dp491
g7
S't6'
p492
sg9
Nsg10
S'i96'
p493
sg12
Nsg13
Nsg14
(lp494
(i__main__
Token
p495
(dp496
g18
I310
sbasg47
Nsba(i__main__
Mention
p497
(dp498
g7
S't6'
p499
sg9
Nsg10
S'i115'
p500
sg12
Nsg13
Nsg14
(lp501
(i__main__
Token
p502
(dp503
g18
I376
sbasg47
Nsba(i__main__
Mention
p504
(dp505
g7
S't6'
p506
sg9
Nsg10
S'i136'
p507
sg12
Nsg13
Nsg14
(lp508
(i__main__
Token
p509
(dp510
g18
I515
sbasg47
Nsba(i__main__
Mention
p511
(dp512
g7
S't6'
p513
sg9
Nsg10
S'i146'
p514
sg12
Nsg13
Nsg14
(lp515
(i__main__
Token
p516
(dp517
g18
I568
sbasg47
Nsbasg7
g434
sg282
Nsba(i__main__
Chain
p518
(dp519
g3
(lp520
(i__main__
Mention
p521
(dp522
g7
S't7'
p523
sg9
Nsg10
S'i12'
p524
sg12
Nsg13
Nsg14
(lp525
(i__main__
Token
p526
(dp527
g18
I29
sbasg47
I29
sba(i__main__
Mention
p528
(dp529
g7
S't7'
p530
sg9
S'Coreference-Identity'
p531
sg10
S'i61'
p532
sg12
S'i12'
p533
sg13
Nsg14
(lp534
(i__main__
Token
p535
(dp536
g18
I208
sbasg47
I208
sba(i__main__
Mention
p537
(dp538
g7
S't7'
p539
sg9
S'Coreference-Identity'
p540
sg10
S'i144'
p541
sg12
S'i61'
p542
sg13
Nsg14
(lp543
(i__main__
Token
p544
(dp545
g18
I540
sbasg47
I540
sbasg7
g523
sg282
Nsba(i__main__
Chain
p546
(dp547
g3
(lp548
(i__main__
Mention
p549
(dp550
g7
S't8'
p551
sg9
Nsg10
S'i13'
p552
sg12
Nsg13
Nsg14
(lp553
(i__main__
Token
p554
(dp555
g18
I29
sba(i__main__
Token
p556
(dp557
g18
I30
sbasg47
Nsba(i__main__
Mention
p558
(dp559
g7
S't8'
p560
sg9
Nsg10
S'i19'
p561
sg12
Nsg13
Nsg14
(lp562
(i__main__
Token
p563
(dp564
g18
I47
sbasg47
Nsba(i__main__
Mention
p565
(dp566
g7
S't8'
p567
sg9
Nsg10
S'i25'
p568
sg12
Nsg13
Nsg14
(lp569
(i__main__
Token
p570
(dp571
g18
I73
sbasg47
Nsba(i__main__
Mention
p572
(dp573
g7
S't8'
p574
sg9
Nsg10
S'i30'
p575
sg12
Nsg13
Nsg14
(lp576
(i__main__
Token
p577
(dp578
g18
I90
sbasg47
Nsba(i__main__
Mention
p579
(dp580
g7
S't8'
p581
sg9
S'Coreference-Identity'
p582
sg10
S'i62'
p583
sg12
S'i30'
p584
sg13
Nsg14
(lp585
(i__main__
Token
p586
(dp587
g18
I208
sba(i__main__
Token
p588
(dp589
g18
I209
sbasg47
I209
sba(i__main__
Mention
p590
(dp591
g7
S't8'
p592
sg9
Nsg10
S'i69'
p593
sg12
Nsg13
Nsg14
(lp594
(i__main__
Token
p595
(dp596
g18
I238
sbasg47
Nsba(i__main__
Mention
p597
(dp598
g7
S't8'
p599
sg9
Nsg10
S'i80'
p600
sg12
Nsg13
Nsg14
(lp601
(i__main__
Token
p602
(dp603
g18
I256
sbasg47
Nsba(i__main__
Mention
p604
(dp605
g7
S't8'
p606
sg9
Nsg10
S'i84'
p607
sg12
Nsg13
Nsg14
(lp608
(i__main__
Token
p609
(dp610
g18
I281
sbasg47
Nsba(i__main__
Mention
p611
(dp612
g7
S't8'
p613
sg9
Nsg10
S'i95'
p614
sg12
Nsg13
Nsg14
(lp615
(i__main__
Token
p616
(dp617
g18
I301
sbasg47
Nsba(i__main__
Mention
p618
(dp619
g7
S't8'
p620
sg9
Nsg10
S'i97'
p621
sg12
Nsg13
Nsg14
(lp622
(i__main__
Token
p623
(dp624
g18
I310
sbasg47
Nsba(i__main__
Mention
p625
(dp626
g7
S't8'
p627
sg9
Nsg10
S'i116'
p628
sg12
Nsg13
Nsg14
(lp629
(i__main__
Token
p630
(dp631
g18
I376
sbasg47
Nsba(i__main__
Mention
p632
(dp633
g7
S't8'
p634
sg9
Nsg10
S'i137'
p635
sg12
Nsg13
Nsg14
(lp636
(i__main__
Token
p637
(dp638
g18
I515
sbasg47
Nsba(i__main__
Mention
p639
(dp640
g7
S't8'
p641
sg9
Nsg10
S'i147'
p642
sg12
Nsg13
Nsg14
(lp643
(i__main__
Token
p644
(dp645
g18
I568
sbasg47
Nsbasg7
g551
sg282
Nsba(i__main__
Chain
p646
(dp647
g3
(lp648
(i__main__
Mention
p649
(dp650
g7
S't9'
p651
sg9
Nsg10
S'i10'
p652
sg12
Nsg13
Nsg14
(lp653
(i__main__
Token
p654
(dp655
g18
I32
sba(i__main__
Token
p656
(dp657
g18
I33
sbasg47
Nsba(i__main__
Mention
p658
(dp659
g7
S't9'
p660
sg9
S'Coreference-RPartOf'
p661
sg10
S'i56'
p662
sg12
S'i10'
p663
sg13
Nsg14
(lp664
(i__main__
Token
p665
(dp666
g18
I183
sbasg47
I183
sba(i__main__
Mention
p667
(dp668
g7
S't9'
p669
sg9
Nsg10
S'i59'
p670
sg12
Nsg13
Nsg14
(lp671
(i__main__
Token
p672
(dp673
g18
I196
sba(i__main__
Token
p674
(dp675
g18
I197
sbasg47
Nsba(i__main__
Mention
p676
(dp677
g7
S't9'
p678
sg9
Nsg10
S'i71'
p679
sg12
Nsg13
Nsg14
(lp680
(i__main__
Token
p681
(dp682
g18
I240
sba(i__main__
Token
p683
(dp684
g18
I241
sbasg47
Nsba(i__main__
Mention
p685
(dp686
g7
S't9'
p687
sg9
Nsg10
S'i78'
p688
sg12
Nsg13
Nsg14
(lp689
(i__main__
Token
p690
(dp691
g18
I256
sba(i__main__
Token
p692
(dp693
g18
I257
sbasg47
Nsba(i__main__
Mention
p694
(dp695
g7
S't9'
p696
sg9
Nsg10
S'i93'
p697
sg12
Nsg13
Nsg14
(lp698
(i__main__
Token
p699
(dp700
g18
I301
sba(i__main__
Token
p701
(dp702
g18
I302
sbasg47
Nsbasg7
g651
sg282
Nsba(i__main__
Chain
p703
(dp704
g3
(lp705
(i__main__
Mention
p706
(dp707
g7
S't10'
p708
sg9
Nsg10
S'i11'
p709
sg12
Nsg13
Nsg14
(lp710
(i__main__
Token
p711
(dp712
g18
I32
sba(i__main__
Token
p713
(dp714
g18
I33
sbasg47
Nsba(i__main__
Mention
p715
(dp716
g7
S't10'
p717
sg9
S'Coreference-RPartOf'
p718
sg10
S'i63'
p719
sg12
S'i11'
p720
sg13
Nsg14
(lp721
(i__main__
Token
p722
(dp723
g18
I214
sba(i__main__
Token
p724
(dp725
g18
I215
sbasg47
I215
sba(i__main__
Mention
p726
(dp727
g7
S't10'
p728
sg9
S'Coreference-Identity'
p729
sg10
S'i9'
p730
sg12
S'i63'
p731
sg13
Nsg14
(lp732
(i__main__
Token
p733
(dp734
g18
I222
sbasg47
I222
sba(i__main__
Mention
p735
(dp736
g7
S't10'
p737
sg9
Nsg10
S'i72'
p738
sg12
Nsg13
Nsg14
(lp739
(i__main__
Token
p740
(dp741
g18
I240
sba(i__main__
Token
p742
(dp743
g18
I241
sbasg47
Nsba(i__main__
Mention
p744
(dp745
g7
S't10'
p746
sg9
Nsg10
S'i79'
p747
sg12
Nsg13
Nsg14
(lp748
(i__main__
Token
p749
(dp750
g18
I256
sba(i__main__
Token
p751
(dp752
g18
I257
sbasg47
Nsba(i__main__
Mention
p753
(dp754
g7
S't10'
p755
sg9
Nsg10
S'i94'
p756
sg12
Nsg13
Nsg14
(lp757
(i__main__
Token
p758
(dp759
g18
I301
sba(i__main__
Token
p760
(dp761
g18
I302
sbasg47
Nsbasg7
g708
sg282
Nsba(i__main__
Chain
p762
(dp763
g3
(lp764
(i__main__
Mention
p765
(dp766
g7
S't12'
p767
sg9
Nsg10
S'i16'
p768
sg12
Nsg13
Nsg14
(lp769
(i__main__
Token
p770
(dp771
g18
I44
sba(i__main__
Token
p772
(dp773
g18
I45
sbasg47
Nsba(i__main__
Mention
p774
(dp775
g7
S't12'
p776
sg9
S'Coreference-PartOf'
p777
sg10
S'i40'
p778
sg12
S'i16'
p779
sg13
Nsg14
(lp780
(i__main__
Token
p781
(dp782
g18
I125
sbasg47
I125
sba(i__main__
Mention
p783
(dp784
g7
S't12'
p785
sg9
S'Coreference-NounComplement'
p786
sg10
S'i41'
p787
sg12
S'i40'
p788
sg13
Nsg14
(lp789
(i__main__
Token
p790
(dp791
g18
I126
sbasg47
I126
sba(i__main__
Mention
p792
(dp793
g7
S't12'
p794
sg9
S'Coreference-Identity'
p795
sg10
S'i73'
p796
sg12
S'i41'
p797
sg13
Nsg14
(lp798
(i__main__
Token
p799
(dp800
g18
I243
sbasg47
I243
sba(i__main__
Mention
p801
(dp802
g7
S't12'
p803
sg9
S'Coreference-Identity'
p804
sg10
S'i74'
p805
sg12
S'i73'
p806
sg13
Nsg14
(lp807
(i__main__
Token
p808
(dp809
g18
I250
sbasg47
I250
sba(i__main__
Mention
p810
(dp811
g7
S't12'
p812
sg9
Nsg10
S'i86'
p813
sg12
Nsg13
Nsg14
(lp814
(i__main__
Token
p815
(dp816
g18
I287
sbasg47
Nsba(i__main__
Mention
p817
(dp818
g7
S't12'
p819
sg9
S'Coreference-Identity'
p820
sg10
S'i88'
p821
sg12
S'i86'
p822
sg13
Nsg14
(lp823
(i__main__
Token
p824
(dp825
g18
I288
sbasg47
I288
sba(i__main__
Mention
p826
(dp827
g7
S't12'
p828
sg9
S'Coreference-Identity'
p829
sg10
S'i117'
p830
sg12
S'i88'
p831
sg13
Nsg14
(lp832
(i__main__
Token
p833
(dp834
g18
I378
sbasg47
I378
sbasg7
g767
sg282
Nsba(i__main__
Chain
p835
(dp836
g3
(lp837
(i__main__
Mention
p838
(dp839
g7
S't13'
p840
sg9
Nsg10
S'i17'
p841
sg12
Nsg13
Nsg14
(lp842
(i__main__
Token
p843
(dp844
g18
I44
sba(i__main__
Token
p845
(dp846
g18
I45
sbasg47
Nsba(i__main__
Mention
p847
(dp848
g7
S't13'
p849
sg9
Nsg10
S'i87'
p850
sg12
Nsg13
Nsg14
(lp851
(i__main__
Token
p852
(dp853
g18
I287
sbasg47
Nsba(i__main__
Mention
p854
(dp855
g7
S't13'
p856
sg9
S'Coreference-NounComplement'
p857
sg10
S'i89'
p858
sg12
S'i87'
p859
sg13
Nsg14
(lp860
(i__main__
Token
p861
(dp862
g18
I290
sbasg47
I290
sba(i__main__
Mention
p863
(dp864
g7
S't13'
p865
sg9
S'Coreference-Identity'
p866
sg10
S'i118'
p867
sg12
S'i89'
p868
sg13
Nsg14
(lp869
(i__main__
Token
p870
(dp871
g18
I396
sbasg47
I396
sbasg7
g840
sg282
Nsba(i__main__
Chain
p872
(dp873
g3
(lp874
(i__main__
Mention
p875
(dp876
g7
S't14'
p877
sg9
Nsg10
S'i22'
p878
sg12
Nsg13
Nsg14
(lp879
(i__main__
Token
p880
(dp881
g18
I65
sbasg47
I65
sba(i__main__
Mention
p882
(dp883
g7
S't14'
p884
sg9
S'Coreference-Identity'
p885
sg10
S'i28'
p886
sg12
S'i22'
p887
sg13
Nsg14
(lp888
(i__main__
Token
p889
(dp890
g18
I81
sbasg47
I81
sba(i__main__
Mention
p891
(dp892
g7
S't14'
p893
sg9
S'Coreference-Identity'
p894
sg10
S'i75'
p895
sg12
S'i28'
p896
sg13
Nsg14
(lp897
(i__main__
Token
p898
(dp899
g18
I252
sbasg47
I252
sba(i__main__
Mention
p900
(dp901
g7
S't14'
p902
sg9
S'Coreference-Identity'
p903
sg10
S'i128'
p904
sg12
S'i75'
p905
sg13
Nsg14
(lp906
(i__main__
Token
p907
(dp908
g18
I483
sbasg47
I483
sba(i__main__
Mention
p909
(dp910
g7
S't14'
p911
sg9
S'Coreference-NounComplement'
p912
sg10
S'i129'
p913
sg12
S'i128'
p914
sg13
Nsg14
(lp915
(i__main__
Token
p916
(dp917
g18
I484
sbasg47
I484
sba(i__main__
Mention
p918
(dp919
g7
S't14'
p920
sg9
S'Anaphora-C'
p921
sg10
S'i131'
p922
sg12
S'i129'
p923
sg13
Nsg14
(lp924
(i__main__
Token
p925
(dp926
g18
I492
sbasg47
I492
sba(i__main__
Mention
p927
(dp928
g7
S't14'
p929
sg9
S'Anaphora-C'
p930
sg10
S'i132'
p931
sg12
S'i131'
p932
sg13
Nsg14
(lp933
(i__main__
Token
p934
(dp935
g18
I498
sbasg47
I498
sba(i__main__
Mention
p936
(dp937
g7
S't14'
p938
sg9
S'Anaphora-C'
p939
sg10
S'i135'
p940
sg12
S'i132'
p941
sg13
Nsg14
(lp942
(i__main__
Token
p943
(dp944
g18
I510
sbasg47
I510
sba(i__main__
Mention
p945
(dp946
g7
S't14'
p947
sg9
S'Coreference-Noun-Noun'
p948
sg10
S'i140'
p949
sg12
S'i135'
p950
sg13
Nsg14
(lp951
(i__main__
Token
p952
(dp953
g18
I526
sbasg47
I526
sba(i__main__
Mention
p954
(dp955
g7
S't14'
p956
sg9
S'Coreference-NounComplement'
p957
sg10
S'i141'
p958
sg12
S'i140'
p959
sg13
Nsg14
(lp960
(i__main__
Token
p961
(dp962
g18
I527
sbasg47
I527
sbasg7
g877
sg282
Nsba(i__main__
Chain
p963
(dp964
g3
(lp965
(i__main__
Mention
p966
(dp967
g7
S't15'
p968
sg9
Nsg10
S'i23'
p969
sg12
Nsg13
Nsg14
(lp970
(i__main__
Token
p971
(dp972
g18
I67
sbasg47
I67
sba(i__main__
Mention
p973
(dp974
g7
S't15'
p975
sg9
S'Coreference-Identity'
p976
sg10
S'i130'
p977
sg12
S'i23'
p978
sg13
Nsg14
(lp979
(i__main__
Token
p980
(dp981
g18
I486
sbasg47
I486
sbasg7
g968
sg282
Nsba(i__main__
Chain
p982
(dp983
g3
(lp984
(i__main__
Mention
p985
(dp986
g7
S't16'
p987
sg9
Nsg10
S'i31'
p988
sg12
Nsg13
Nsg14
(lp989
(i__main__
Token
p990
(dp991
g18
I90
sba(i__main__
Token
p992
(dp993
g18
I91
sba(i__main__
Token
p994
(dp995
g18
I92
sba(i__main__
Token
p996
(dp997
g18
I93
sbasg47
I93
sbasg7
g987
sg282
Nsba(i__main__
Chain
p998
(dp999
g3
(lp1000
(i__main__
Mention
p1001
(dp1002
g7
S't17'
p1003
sg9
Nsg10
S'i34'
p1004
sg12
Nsg13
Nsg14
(lp1005
(i__main__
Token
p1006
(dp1007
g18
I106
sbasg47
I106
sba(i__main__
Mention
p1008
(dp1009
g7
S't17'
p1010
sg9
S'Coreference-NounComplement'
p1011
sg10
S'i35'
p1012
sg12
S'i34'
p1013
sg13
Nsg14
(lp1014
(i__main__
Token
p1015
(dp1016
g18
I107
sba(i__main__
Token
p1017
(dp1018
g18
I108
sbasg47
I108
sba(i__main__
Mention
p1019
(dp1020
g7
S't17'
p1021
sg9
S'Coreference-Identity'
p1022
sg10
S'i42'
p1023
sg12
S'i35'
p1024
sg13
Nsg14
(lp1025
(i__main__
Token
p1026
(dp1027
g18
I134
sba(i__main__
Token
p1028
(dp1029
g18
I135
sbasg47
I135
sba(i__main__
Mention
p1030
(dp1031
g7
S't17'
p1032
sg9
S'Coreference-Noun-Noun'
p1033
sg10
S'i108'
p1034
sg12
S'i42'
p1035
sg13
Nsg14
(lp1036
(i__main__
Token
p1037
(dp1038
g18
I346
sbasg47
I346
sba(i__main__
Mention
p1039
(dp1040
g7
S't17'
p1041
sg9
S'Coreference-NounComplement'
p1042
sg10
S'i109'
p1043
sg12
S'i108'
p1044
sg13
Nsg14
(lp1045
(i__main__
Token
p1046
(dp1047
g18
I347
sba(i__main__
Token
p1048
(dp1049
g18
I348
sbasg47
I348
sba(i__main__
Mention
p1050
(dp1051
g7
S't17'
p1052
sg9
S'Anaphora-C'
p1053
sg10
S'i110'
p1054
sg12
S'i109'
p1055
sg13
Nsg14
(lp1056
(i__main__
Token
p1057
(dp1058
g18
I350
sbasg47
I350
sbasg7
g1003
sg282
Nsba(i__main__
Chain
p1059
(dp1060
g3
(lp1061
(i__main__
Mention
p1062
(dp1063
g7
S't18'
p1064
sg9
Nsg10
S'i43'
p1065
sg12
Nsg13
Nsg14
(lp1066
(i__main__
Token
p1067
(dp1068
g18
I137
sbasg47
I137
sba(i__main__
Mention
p1069
(dp1070
g7
S't18'
p1071
sg9
S'Coreference-Identity'
p1072
sg10
S'i120'
p1073
sg12
S'i43'
p1074
sg13
Nsg14
(lp1075
(i__main__
Token
p1076
(dp1077
g18
I434
sbasg47
I434
sbasg7
g1064
sg282
Nsba(i__main__
Chain
p1078
(dp1079
g3
(lp1080
(i__main__
Mention
p1081
(dp1082
g7
S't19'
p1083
sg9
Nsg10
S'i44'
p1084
sg12
Nsg13
Nsg14
(lp1085
(i__main__
Token
p1086
(dp1087
g18
I139
sbasg47
I139
sba(i__main__
Mention
p1088
(dp1089
g7
S't19'
p1090
sg9
S'Coreference-NounComplement'
p1091
sg10
S'i45'
p1092
sg12
S'i44'
p1093
sg13
Nsg14
(lp1094
(i__main__
Token
p1095
(dp1096
g18
I140
sba(i__main__
Token
p1097
(dp1098
g18
I141
sbasg47
I141
sba(i__main__
Mention
p1099
(dp1100
g7
S't19'
p1101
sg9
S'Coreference-Identity'
p1102
sg10
S'i49'
p1103
sg12
S'i45'
p1104
sg13
Nsg14
(lp1105
(i__main__
Token
p1106
(dp1107
g18
I158
sba(i__main__
Token
p1108
(dp1109
g18
I159
sbasg47
I159
sba(i__main__
Mention
p1110
(dp1111
g7
S't19'
p1112
sg9
S'Coreference-Noun-Noun'
p1113
sg10
S'i121'
p1114
sg12
S'i49'
p1115
sg13
Nsg14
(lp1116
(i__main__
Token
p1117
(dp1118
g18
I436
sbasg47
I436
sba(i__main__
Mention
p1119
(dp1120
g7
S't19'
p1121
sg9
S'Coreference-NounComplement'
p1122
sg10
S'i122'
p1123
sg12
S'i121'
p1124
sg13
Nsg14
(lp1125
(i__main__
Token
p1126
(dp1127
g18
I437
sba(i__main__
Token
p1128
(dp1129
g18
I438
sbasg47
I438
sbasg7
g1083
sg282
Nsba(i__main__
Chain
p1130
(dp1131
g3
(lp1132
(i__main__
Mention
p1133
(dp1134
g7
S't20'
p1135
sg9
S'anaphora-?'
p1136
sg10
S'i46'
p1137
sg12
S'i46'
p1138
sg13
Nsg14
(lp1139
(i__main__
Token
p1140
(dp1141
g18
I145
sbasg47
I145
sbasg7
g1135
sg282
Nsba(i__main__
Chain
p1142
(dp1143
g3
(lp1144
(i__main__
Mention
p1145
(dp1146
g7
S't11'
p1147
sg9
S'Coreference-RPartOf'
p1148
sg10
S'i47'
p1149
sg12
S'i14'
p1150
sg13
Nsg14
(lp1151
(i__main__
Token
p1152
(dp1153
g18
I149
sbasg47
I149
sba(i__main__
Mention
p1154
(dp1155
g7
S't11'
p1156
sg9
Nsg10
S'i58'
p1157
sg12
Nsg13
Nsg14
(lp1158
(i__main__
Token
p1159
(dp1160
g18
I196
sba(i__main__
Token
p1161
(dp1162
g18
I197
sbasg47
Nsba(i__main__
Mention
p1163
(dp1164
g7
S't11'
p1165
sg9
Nsg10
S'i70'
p1166
sg12
Nsg13
Nsg14
(lp1167
(i__main__
Token
p1168
(dp1169
g18
I240
sba(i__main__
Token
p1170
(dp1171
g18
I241
sbasg47
Nsba(i__main__
Mention
p1172
(dp1173
g7
S't11'
p1174
sg9
Nsg10
S'i77'
p1175
sg12
Nsg13
Nsg14
(lp1176
(i__main__
Token
p1177
(dp1178
g18
I256
sba(i__main__
Token
p1179
(dp1180
g18
I257
sbasg47
Nsba(i__main__
Mention
p1181
(dp1182
g7
S't11'
p1183
sg9
Nsg10
S'i92'
p1184
sg12
Nsg13
Nsg14
(lp1185
(i__main__
Token
p1186
(dp1187
g18
I301
sba(i__main__
Token
p1188
(dp1189
g18
I302
sbasg47
Nsbasg7
g1147
sg282
Nsba(i__main__
Chain
p1190
(dp1191
g3
(lp1192
(i__main__
Mention
p1193
(dp1194
g7
S't21'
p1195
sg9
Nsg10
S'i48'
p1196
sg12
Nsg13
Nsg14
(lp1197
(i__main__
Token
p1198
(dp1199
g18
I151
sba(i__main__
Token
p1200
(dp1201
g18
I152
sbasg47
I152
sba(i__main__
Mention
p1202
(dp1203
g7
S't21'
p1204
sg9
S'Coreference-Identity'
p1205
sg10
S'i57'
p1206
sg12
S'i48'
p1207
sg13
Nsg14
(lp1208
(i__main__
Token
p1209
(dp1210
g18
I185
sba(i__main__
Token
p1211
(dp1212
g18
I186
sbasg47
I186
sba(i__main__
Mention
p1213
(dp1214
g7
S't21'
p1215
sg9
S'Coreference-Identity'
p1216
sg10
S'i60'
p1217
sg12
S'i57'
p1218
sg13
Nsg14
(lp1219
(i__main__
Token
p1220
(dp1221
g18
I198
sba(i__main__
Token
p1222
(dp1223
g18
I199
sbasg47
I199
sba(i__main__
Mention
p1224
(dp1225
g7
S't21'
p1226
sg9
S'Coreference-Identity'
p1227
sg10
S'i67'
p1228
sg12
S'i60'
p1229
sg13
Nsg14
(lp1230
(i__main__
Token
p1231
(dp1232
g18
I225
sba(i__main__
Token
p1233
(dp1234
g18
I226
sbasg47
I226
sbasg7
g1195
sg282
Nsba(i__main__
Chain
p1235
(dp1236
g3
(lp1237
(i__main__
Mention
p1238
(dp1239
g7
S't22'
p1240
sg9
S'anaphora-?'
p1241
sg10
S'i50'
p1242
sg12
S'i50'
p1243
sg13
Nsg14
(lp1244
(i__main__
Token
p1245
(dp1246
g18
I162
sbasg47
I162
sbasg7
g1240
sg282
Nsba(i__main__
Chain
p1247
(dp1248
g3
(lp1249
(i__main__
Mention
p1250
(dp1251
g7
S't23'
p1252
sg9
Nsg10
S'i51'
p1253
sg12
Nsg13
Nsg14
(lp1254
(i__main__
Token
p1255
(dp1256
g18
I164
sbasg47
I164
sba(i__main__
Mention
p1257
(dp1258
g7
S't23'
p1259
sg9
S'Coreference-NounComplement'
p1260
sg10
S'i52'
p1261
sg12
S'i51'
p1262
sg13
Nsg14
(lp1263
(i__main__
Token
p1264
(dp1265
g18
I168
sba(i__main__
Token
p1266
(dp1267
g18
I169
sbasg47
I169
sba(i__main__
Mention
p1268
(dp1269
g7
S't23'
p1270
sg9
S'Coreference-Identity'
p1271
sg10
S'i53'
p1272
sg12
S'i52'
p1273
sg13
Nsg14
(lp1274
(i__main__
Token
p1275
(dp1276
g18
I173
sbasg47
I173
sba(i__main__
Mention
p1277
(dp1278
g7
S't23'
p1279
sg9
S'Coreference-Identity'
p1280
sg10
S'i81'
p1281
sg12
S'i53'
p1282
sg13
Nsg14
(lp1283
(i__main__
Token
p1284
(dp1285
g18
I262
sbasg47
I262
sbasg7
g1252
sg282
Nsba(i__main__
Chain
p1286
(dp1287
g3
(lp1288
(i__main__
Mention
p1289
(dp1290
g7
S't24'
p1291
sg9
Nsg10
S'i54'
p1292
sg12
Nsg13
Nsg14
(lp1293
(i__main__
Token
p1294
(dp1295
g18
I178
sbasg47
I178
sba(i__main__
Mention
p1296
(dp1297
g7
S't24'
p1298
sg9
S'Coreference-NounComplement'
p1299
sg10
S'i55'
p1300
sg12
S'i54'
p1301
sg13
Nsg14
(lp1302
(i__main__
Token
p1303
(dp1304
g18
I179
sba(i__main__
Token
p1305
(dp1306
g18
I180
sbasg47
I180
sbasg7
g1291
sg282
Nsba(i__main__
Chain
p1307
(dp1308
g3
(lp1309
(i__main__
Mention
p1310
(dp1311
g7
S't25'
p1312
sg9
Nsg10
S'i64'
p1313
sg12
Nsg13
Nsg14
(lp1314
(i__main__
Token
p1315
(dp1316
g18
I217
sbasg47
I217
sba(i__main__
Mention
p1317
(dp1318
g7
S't25'
p1319
sg9
S'Coreference-NounComplement'
p1320
sg10
S'i65'
p1321
sg12
S'i64'
p1322
sg13
Nsg14
(lp1323
(i__main__
Token
p1324
(dp1325
g18
I218
sba(i__main__
Token
p1326
(dp1327
g18
I219
sbasg47
I219
sba(i__main__
Mention
p1328
(dp1329
g7
S't25'
p1330
sg9
S'Anaphora-C'
p1331
sg10
S'i66'
p1332
sg12
S'i65'
p1333
sg13
Nsg14
(lp1334
(i__main__
Token
p1335
(dp1336
g18
I221
sbasg47
I221
sbasg7
g1312
sg282
Nsba(i__main__
Chain
p1337
(dp1338
g3
(lp1339
(i__main__
Mention
p1340
(dp1341
g7
S't26'
p1342
sg9
Nsg10
S'i98'
p1343
sg12
Nsg13
Nsg14
(lp1344
(i__main__
Token
p1345
(dp1346
g18
I313
sbasg47
I313
sba(i__main__
Mention
p1347
(dp1348
g7
S't26'
p1349
sg9
S'Anaphora-C'
p1350
sg10
S'i99'
p1351
sg12
S'i98'
p1352
sg13
Nsg14
(lp1353
(i__main__
Token
p1354
(dp1355
g18
I316
sbasg47
I316
sbasg7
g1342
sg282
Nsba(i__main__
Chain
p1356
(dp1357
g3
(lp1358
(i__main__
Mention
p1359
(dp1360
g7
S't27'
p1361
sg9
Nsg10
S'i101'
p1362
sg12
Nsg13
Nsg14
(lp1363
(i__main__
Token
p1364
(dp1365
g18
I328
sba(i__main__
Token
p1366
(dp1367
g18
I329
sbasg47
Nsba(i__main__
Mention
p1368
(dp1369
g7
S't27'
p1370
sg9
S'Coreference-NounComplement'
p1371
sg10
S'i103'
p1372
sg12
S'i101'
p1373
sg13
Nsg14
(lp1374
(i__main__
Token
p1375
(dp1376
g18
I330
sba(i__main__
Token
p1377
(dp1378
g18
I331
sbasg47
I331
sbasg7
g1361
sg282
Nsba(i__main__
Chain
p1379
(dp1380
g3
(lp1381
(i__main__
Mention
p1382
(dp1383
g7
S't28'
p1384
sg9
Nsg10
S'i102'
p1385
sg12
Nsg13
Nsg14
(lp1386
(i__main__
Token
p1387
(dp1388
g18
I328
sba(i__main__
Token
p1389
(dp1390
g18
I329
sbasg47
Nsba(i__main__
Mention
p1391
(dp1392
g7
S't28'
p1393
sg9
S'Coreference-NounComplement'
p1394
sg10
S'i104'
p1395
sg12
S'i102'
p1396
sg13
Nsg14
(lp1397
(i__main__
Token
p1398
(dp1399
g18
I333
sba(i__main__
Token
p1400
(dp1401
g18
I334
sbasg47
I334
sbasg7
g1384
sg282
Nsba(i__main__
Chain
p1402
(dp1403
g3
(lp1404
(i__main__
Mention
p1405
(dp1406
g7
S't29'
p1407
sg9
Nsg10
S'i112'
p1408
sg12
Nsg13
Nsg14
(lp1409
(i__main__
Token
p1410
(dp1411
g18
I363
sba(i__main__
Token
p1412
(dp1413
g18
I364
sbasg47
I364
sba(i__main__
Mention
p1414
(dp1415
g7
S't29'
p1416
sg9
S'Anaphora-C'
p1417
sg10
S'i113'
p1418
sg12
S'i112'
p1419
sg13
Nsg14
(lp1420
(i__main__
Token
p1421
(dp1422
g18
I367
sbasg47
I367
sbasg7
g1407
sg282
Nsba(i__main__
Chain
p1423
(dp1424
g3
(lp1425
(i__main__
Mention
p1426
(dp1427
g7
S't30'
p1428
sg9
Nsg10
S'i133'
p1429
sg12
Nsg13
Nsg14
(lp1430
(i__main__
Token
p1431
(dp1432
g18
I499
sba(i__main__
Token
p1433
(dp1434
g18
I500
sba(i__main__
Token
p1435
(dp1436
g18
I501
sbasg47
I501
sba(i__main__
Mention
p1437
(dp1438
g7
S't30'
p1439
sg9
S'Anaphora-C'
p1440
sg10
S'i134'
p1441
sg12
S'i133'
p1442
sg13
Nsg14
(lp1443
(i__main__
Token
p1444
(dp1445
g18
I506
sbasg47
I506
sbasg7
g1428
sg282
Nsba.