(lp0
(i__main__
Chain
p1
(dp2
S'mentionList'
p3
(lp4
(i__main__
Mention
p5
(dp6
S'chainId'
p7
S't1'
p8
sS'relType'
p9
NsS'mentionId'
p10
S'i1'
p11
sS'antecedentId'
p12
NsS'crefMod'
p13
NsS'tokenList'
p14
(lp15
(i__main__
Token
p16
(dp17
S'tokenId'
p18
I4
sbasS'mentionHead'
p19
I4
sba(i__main__
Mention
p20
(dp21
g7
S't1'
p22
sg9
S'Coreference-NounComplement'
p23
sg10
S'i2'
p24
sg12
S'i1'
p25
sg13
Nsg14
(lp26
(i__main__
Token
p27
(dp28
g18
I5
sba(i__main__
Token
p29
(dp30
g18
I6
sbasg19
I6
sba(i__main__
Mention
p31
(dp32
g7
S't1'
p33
sg9
S'Anaphora-C'
p34
sg10
S'i6'
p35
sg12
S'i2'
p36
sg13
Nsg14
(lp37
(i__main__
Token
p38
(dp39
g18
I23
sbasg19
I23
sba(i__main__
Mention
p40
(dp41
g7
S't1'
p42
sg9
S'Coreference-Identity'
p43
sg10
S'i18'
p44
sg12
S'i6'
p45
sg13
Nsg14
(lp46
(i__main__
Token
p47
(dp48
g18
I77
sbasg19
I77
sba(i__main__
Mention
p49
(dp50
g7
S't1'
p51
sg9
S'Anaphora-C'
p52
sg10
S'i19'
p53
sg12
S'i18'
p54
sg13
Nsg14
(lp55
(i__main__
Token
p56
(dp57
g18
I81
sbasg19
I81
sba(i__main__
Mention
p58
(dp59
g7
S't1'
p60
sg9
S'Anaphora-C'
p61
sg10
S'i21'
p62
sg12
S'i19'
p63
sg13
Nsg14
(lp64
(i__main__
Token
p65
(dp66
g18
I98
sbasg19
I98
sba(i__main__
Mention
p67
(dp68
g7
S't1'
p69
sg9
S'Anaphora-C'
p70
sg10
S'i23'
p71
sg12
S'i21'
p72
sg13
Nsg14
(lp73
(i__main__
Token
p74
(dp75
g18
I108
sbasg19
I108
sba(i__main__
Mention
p76
(dp77
g7
S't1'
p78
sg9
S'Anaphora-C'
p79
sg10
S'i24'
p80
sg12
S'i23'
p81
sg13
Nsg14
(lp82
(i__main__
Token
p83
(dp84
g18
I121
sbasg19
I121
sba(i__main__
Mention
p85
(dp86
g7
S't1'
p87
sg9
S'Anaphora-C'
p88
sg10
S'i26'
p89
sg12
S'i24'
p90
sg13
Nsg14
(lp91
(i__main__
Token
p92
(dp93
g18
I131
sbasg19
I131
sba(i__main__
Mention
p94
(dp95
g7
S't1'
p96
sg9
S'Anaphora-C'
p97
sg10
S'i27'
p98
sg12
S'i26'
p99
sg13
Nsg14
(lp100
(i__main__
Token
p101
(dp102
g18
I135
sbasg19
I135
sba(i__main__
Mention
p103
(dp104
g7
S't1'
p105
sg9
S'Anaphora-C'
p106
sg10
S'i31'
p107
sg12
S'i27'
p108
sg13
Nsg14
(lp109
(i__main__
Token
p110
(dp111
g18
I146
sbasg19
I146
sba(i__main__
Mention
p112
(dp113
g7
S't1'
p114
sg9
S'Anaphora-C'
p115
sg10
S'i34'
p116
sg12
S'i31'
p117
sg13
Nsg14
(lp118
(i__main__
Token
p119
(dp120
g18
I156
sbasg19
I156
sba(i__main__
Mention
p121
(dp122
g7
S't1'
p123
sg9
S'Anaphora-C'
p124
sg10
S'i36'
p125
sg12
S'i34'
p126
sg13
Nsg14
(lp127
(i__main__
Token
p128
(dp129
g18
I166
sbasg19
I166
sba(i__main__
Mention
p130
(dp131
g7
S't1'
p132
sg9
S'Anaphora-C'
p133
sg10
S'i37'
p134
sg12
S'i36'
p135
sg13
Nsg14
(lp136
(i__main__
Token
p137
(dp138
g18
I169
sbasg19
I169
sba(i__main__
Mention
p139
(dp140
g7
S't1'
p141
sg9
S'Anaphora-C'
p142
sg10
S'i40'
p143
sg12
S'i37'
p144
sg13
Nsg14
(lp145
(i__main__
Token
p146
(dp147
g18
I180
sbasg19
I180
sba(i__main__
Mention
p148
(dp149
g7
S't1'
p150
sg9
S'Anaphora-C'
p151
sg10
S'i42'
p152
sg12
S'i40'
p153
sg13
Nsg14
(lp154
(i__main__
Token
p155
(dp156
g18
I189
sbasg19
I189
sba(i__main__
Mention
p157
(dp158
g7
S't1'
p159
sg9
S'Coreference-Identity'
p160
sg10
S'i44'
p161
sg12
S'i42'
p162
sg13
Nsg14
(lp163
(i__main__
Token
p164
(dp165
g18
I203
sbasg19
I203
sba(i__main__
Mention
p166
(dp167
g7
S't1'
p168
sg9
S'Anaphora-C'
p169
sg10
S'i45'
p170
sg12
S'i44'
p171
sg13
Nsg14
(lp172
(i__main__
Token
p173
(dp174
g18
I207
sbasg19
I207
sba(i__main__
Mention
p175
(dp176
g7
S't1'
p177
sg9
S'Anaphora-C'
p178
sg10
S'i46'
p179
sg12
S'i45'
p180
sg13
Nsg14
(lp181
(i__main__
Token
p182
(dp183
g18
I208
sbasg19
I208
sba(i__main__
Mention
p184
(dp185
g7
S't1'
p186
sg9
S'Coreference-Identity'
p187
sg10
S'i57'
p188
sg12
S'i46'
p189
sg13
Nsg14
(lp190
(i__main__
Token
p191
(dp192
g18
I253
sbasg19
I253
sba(i__main__
Mention
p193
(dp194
g7
S't1'
p195
sg9
S'Anaphora-C'
p196
sg10
S'i58'
p197
sg12
S'i57'
p198
sg13
Nsg14
(lp199
(i__main__
Token
p200
(dp201
g18
I257
sbasg19
I257
sba(i__main__
Mention
p202
(dp203
g7
S't1'
p204
sg9
S'Anaphora-C'
p205
sg10
S'i65'
p206
sg12
S'i58'
p207
sg13
Nsg14
(lp208
(i__main__
Token
p209
(dp210
g18
I283
sbasg19
I283
sba(i__main__
Mention
p211
(dp212
g7
S't1'
p213
sg9
S'Anaphora-C'
p214
sg10
S'i68'
p215
sg12
S'i65'
p216
sg13
Nsg14
(lp217
(i__main__
Token
p218
(dp219
g18
I291
sbasg19
I291
sba(i__main__
Mention
p220
(dp221
g7
S't1'
p222
sg9
S'Anaphora-C'
p223
sg10
S'i70'
p224
sg12
S'i68'
p225
sg13
Nsg14
(lp226
(i__main__
Token
p227
(dp228
g18
I308
sbasg19
I308
sba(i__main__
Mention
p229
(dp230
g7
S't1'
p231
sg9
S'Anaphora-C'
p232
sg10
S'i71'
p233
sg12
S'i70'
p234
sg13
Nsg14
(lp235
(i__main__
Token
p236
(dp237
g18
I314
sbasg19
I314
sba(i__main__
Mention
p238
(dp239
g7
S't1'
p240
sg9
S'Anaphora-C'
p241
sg10
S'i72'
p242
sg12
S'i71'
p243
sg13
Nsg14
(lp244
(i__main__
Token
p245
(dp246
g18
I317
sbasg19
I317
sbasg7
g8
sS'chainHead'
p247
Nsba(i__main__
Chain
p248
(dp249
g3
(lp250
(i__main__
Mention
p251
(dp252
g7
S't2'
p253
sg9
Nsg10
S'i3'
p254
sg12
Nsg13
Nsg14
(lp255
(i__main__
Token
p256
(dp257
g18
I10
sba(i__main__
Token
p258
(dp259
g18
I11
sba(i__main__
Token
p260
(dp261
g18
I12
sbasg19
I12
sba(i__main__
Mention
p262
(dp263
g7
S't2'
p264
sg9
S'Coreference-Identity'
p265
sg10
S'i5'
p266
sg12
S'i3'
p267
sg13
Nsg14
(lp268
(i__main__
Token
p269
(dp270
g18
I20
sbasg19
I20
sba(i__main__
Mention
p271
(dp272
g7
S't2'
p273
sg9
S'Coreference-Identity'
p274
sg10
S'i22'
p275
sg12
S'i5'
p276
sg13
Nsg14
(lp277
(i__main__
Token
p278
(dp279
g18
I99
sbasg19
I99
sba(i__main__
Mention
p280
(dp281
g7
S't2'
p282
sg9
S'Coreference-Identity'
p283
sg10
S'i25'
p284
sg12
S'i22'
p285
sg13
Nsg14
(lp286
(i__main__
Token
p287
(dp288
g18
I126
sbasg19
I126
sba(i__main__
Mention
p289
(dp290
g7
S't2'
p291
sg9
S'Coreference-Identity'
p292
sg10
S'i32'
p293
sg12
S'i25'
p294
sg13
Nsg14
(lp295
(i__main__
Token
p296
(dp297
g18
I147
sbasg19
I147
sba(i__main__
Mention
p298
(dp299
g7
S't2'
p300
sg9
S'Coreference-Identity'
p301
sg10
S'i35'
p302
sg12
S'i32'
p303
sg13
Nsg14
(lp304
(i__main__
Token
p305
(dp306
g18
I157
sbasg19
I157
sba(i__main__
Mention
p307
(dp308
g7
S't2'
p309
sg9
S'Coreference-Identity'
p310
sg10
S'i47'
p311
sg12
S'i35'
p312
sg13
Nsg14
(lp313
(i__main__
Token
p314
(dp315
g18
I209
sbasg19
I209
sba(i__main__
Mention
p316
(dp317
g7
S't2'
p318
sg9
S'Coreference-Identity'
p319
sg10
S'i50'
p320
sg12
S'i47'
p321
sg13
Nsg14
(lp322
(i__main__
Token
p323
(dp324
g18
I220
sba(i__main__
Token
p325
(dp326
g18
I221
sbasg19
I221
sba(i__main__
Mention
p327
(dp328
g7
S't2'
p329
sg9
S'Anaphora-C'
p330
sg10
S'i55'
p331
sg12
S'i50'
p332
sg13
Nsg14
(lp333
(i__main__
Token
p334
(dp335
g18
I234
sbasg19
I234
sba(i__main__
Mention
p336
(dp337
g7
S't2'
p338
sg9
S'Coreference-Identity'
p339
sg10
S'i69'
p340
sg12
S'i55'
p341
sg13
Nsg14
(lp342
(i__main__
Token
p343
(dp344
g18
I301
sba(i__main__
Token
p345
(dp346
g18
I302
sba(i__main__
Token
p347
(dp348
g18
I303
sbasg19
I303
sbasg7
g253
sg247
Nsba(i__main__
Chain
p349
(dp350
g3
(lp351
(i__main__
Mention
p352
(dp353
g7
S't3'
p354
sg9
Nsg10
S'i4'
p355
sg12
Nsg13
Nsg14
(lp356
(i__main__
Token
p357
(dp358
g18
I14
sbasg19
I14
sba(i__main__
Mention
p359
(dp360
g7
S't3'
p361
sg9
S'Coreference-Identity'
p362
sg10
S'i28'
p363
sg12
S'i4'
p364
sg13
Nsg14
(lp365
(i__main__
Token
p366
(dp367
g18
I138
sbasg19
I138
sba(i__main__
Mention
p368
(dp369
g7
S't3'
p370
sg9
S'Coreference-Identity'
p371
sg10
S'i41'
p372
sg12
S'i28'
p373
sg13
Nsg14
(lp374
(i__main__
Token
p375
(dp376
g18
I183
sbasg19
I183
sba(i__main__
Mention
p377
(dp378
g7
S't3'
p379
sg9
S'Coreference-Identity'
p380
sg10
S'i59'
p381
sg12
S'i41'
p382
sg13
Nsg14
(lp383
(i__main__
Token
p384
(dp385
g18
I258
sbasg19
I258
sba(i__main__
Mention
p386
(dp387
g7
S't3'
p388
sg9
S'Coreference-Identity'
p389
sg10
S'i62'
p390
sg12
S'i59'
p391
sg13
Nsg14
(lp392
(i__main__
Token
p393
(dp394
g18
I270
sbasg19
I270
sbasg7
g354
sg247
Nsba(i__main__
Chain
p395
(dp396
g3
(lp397
(i__main__
Mention
p398
(dp399
g7
S't4'
p400
sg9
Nsg10
S'i7'
p401
sg12
Nsg13
Nsg14
(lp402
(i__main__
Token
p403
(dp404
g18
I24
sba(i__main__
Token
p405
(dp406
g18
I25
sba(i__main__
Token
p407
(dp408
g18
I26
sbasg19
I26
sba(i__main__
Mention
p409
(dp410
g7
S't4'
p411
sg9
S'Coreference-Identity'
p412
sg10
S'i12'
p413
sg12
S'i7'
p414
sg13
Nsg14
(lp415
(i__main__
Token
p416
(dp417
g18
I45
sbasg19
I45
sba(i__main__
Mention
p418
(dp419
g7
S't4'
p420
sg9
S'Coreference-Identity'
p421
sg10
S'i38'
p422
sg12
S'i12'
p423
sg13
Nsg14
(lp424
(i__main__
Token
p425
(dp426
g18
I170
sba(i__main__
Token
p427
(dp428
g18
I171
sba(i__main__
Token
p429
(dp430
g18
I172
sba(i__main__
Token
p431
(dp432
g18
I173
sbasg19
I173
sba(i__main__
Mention
p433
(dp434
g7
S't4'
p435
sg9
S'Coreference-Identity'
p436
sg10
S'i63'
p437
sg12
S'i38'
p438
sg13
Nsg14
(lp439
(i__main__
Token
p440
(dp441
g18
I276
sbasg19
I276
sbasg7
g400
sg247
Nsba(i__main__
Chain
p442
(dp443
g3
(lp444
(i__main__
Mention
p445
(dp446
g7
S't5'
p447
sg9
Nsg10
S'i8'
p448
sg12
Nsg13
Nsg14
(lp449
(i__main__
Token
p450
(dp451
g18
I28
sbasg19
I28
sba(i__main__
Mention
p452
(dp453
g7
S't5'
p454
sg9
S'Coreference-Identity'
p455
sg10
S'i13'
p456
sg12
S'i8'
p457
sg13
Nsg14
(lp458
(i__main__
Token
p459
(dp460
g18
I47
sbasg19
I47
sba(i__main__
Mention
p461
(dp462
g7
S't5'
p463
sg9
S'Coreference-Identity'
p464
sg10
S'i39'
p465
sg12
S'i13'
p466
sg13
Nsg14
(lp467
(i__main__
Token
p468
(dp469
g18
I175
sbasg19
I175
sba(i__main__
Mention
p470
(dp471
g7
S't5'
p472
sg9
S'Coreference-Identity'
p473
sg10
S'i43'
p474
sg12
S'i39'
p475
sg13
Nsg14
(lp476
(i__main__
Token
p477
(dp478
g18
I190
sbasg19
I190
sbasg7
g447
sg247
Nsba(i__main__
Chain
p479
(dp480
g3
(lp481
(i__main__
Mention
p482
(dp483
g7
S't6'
p484
sg9
Nsg10
S'i9'
p485
sg12
Nsg13
Nsg14
(lp486
(i__main__
Token
p487
(dp488
g18
I37
sbasg19
I37
sba(i__main__
Mention
p489
(dp490
g7
S't6'
p491
sg9
S'Coreference-Identity'
p492
sg10
S'i14'
p493
sg12
S'i9'
p494
sg13
Nsg14
(lp495
(i__main__
Token
p496
(dp497
g18
I52
sbasg19
I52
sba(i__main__
Mention
p498
(dp499
g7
S't6'
p500
sg9
S'Coreference-Noun-Noun'
p501
sg10
S'i15'
p502
sg12
S'i14'
p503
sg13
Nsg14
(lp504
(i__main__
Token
p505
(dp506
g18
I60
sbasg19
I60
sba(i__main__
Mention
p507
(dp508
g7
S't6'
p509
sg9
S'Coreference-Identity'
p510
sg10
S'i48'
p511
sg12
S'i23'
p512
sg13
Nsg14
(lp513
(i__main__
Token
p514
(dp515
g18
I212
sbasg19
I212
sba(i__main__
Mention
p516
(dp517
g7
S't6'
p518
sg9
S'Coreference-Identity'
p519
sg10
S'i51'
p520
sg12
S'i75'
p521
sg13
Nsg14
(lp522
(i__main__
Token
p523
(dp524
g18
I224
sbasg19
I224
sbasg7
g484
sg247
Nsba(i__main__
Chain
p525
(dp526
g3
(lp527
(i__main__
Mention
p528
(dp529
g7
S't7'
p530
sg9
Nsg10
S'i10'
p531
sg12
Nsg13
Nsg14
(lp532
(i__main__
Token
p533
(dp534
g18
I39
sba(i__main__
Token
p535
(dp536
g18
I40
sbasg19
I40
sba(i__main__
Mention
p537
(dp538
g7
S't7'
p539
sg9
S'Coreference-NounComplement'
p540
sg10
S'i11'
p541
sg12
S'i10'
p542
sg13
Nsg14
(lp543
(i__main__
Token
p544
(dp545
g18
I41
sba(i__main__
Token
p546
(dp547
g18
I42
sba(i__main__
Token
p548
(dp549
g18
I43
sbasg19
I43
sba(i__main__
Mention
p550
(dp551
g7
S't7'
p552
sg9
S'Coreference-Identity'
p553
sg10
S'i16'
p554
sg12
S'i11'
p555
sg13
Nsg14
(lp556
(i__main__
Token
p557
(dp558
g18
I65
sbasg19
I65
sbasg7
g530
sg247
Nsba(i__main__
Chain
p559
(dp560
g3
(lp561
(i__main__
Mention
p562
(dp563
g7
S't8'
p564
sg9
Nsg10
S'i17'
p565
sg12
Nsg13
Nsg14
(lp566
(i__main__
Token
p567
(dp568
g18
I74
sbasg19
I74
sbasg7
g564
sg247
Nsba(i__main__
Chain
p569
(dp570
g3
(lp571
(i__main__
Mention
p572
(dp573
g7
S't9'
p574
sg9
Nsg10
S'i20'
p575
sg12
Nsg13
Nsg14
(lp576
(i__main__
Token
p577
(dp578
g18
I82
sbasg19
I82
sba(i__main__
Mention
p579
(dp580
g7
S't9'
p581
sg9
S'Coreference-Identity'
p582
sg10
S'i56'
p583
sg12
S'i20'
p584
sg13
Nsg14
(lp585
(i__main__
Token
p586
(dp587
g18
I240
sbasg19
I240
sba(i__main__
Mention
p588
(dp589
g7
S't9'
p590
sg9
S'Coreference-Identity'
p591
sg10
S'i60'
p592
sg12
S'i56'
p593
sg13
Nsg14
(lp594
(i__main__
Token
p595
(dp596
g18
I261
sbasg19
I261
sbasg7
g574
sg247
Nsba(i__main__
Chain
p597
(dp598
g3
(lp599
(i__main__
Mention
p600
(dp601
g7
S't10'
p602
sg9
Nsg10
S'i29'
p603
sg12
Nsg13
Nsg14
(lp604
(i__main__
Token
p605
(dp606
g18
I140
sbasg19
I140
sba(i__main__
Mention
p607
(dp608
g7
S't10'
p609
sg9
S'Coreference-NounComplement'
p610
sg10
S'i30'
p611
sg12
S'i29'
p612
sg13
Nsg14
(lp613
(i__main__
Token
p614
(dp615
g18
I141
sba(i__main__
Token
p616
(dp617
g18
I142
sbasg19
I142
sba(i__main__
Mention
p618
(dp619
g7
S't10'
p620
sg9
S'Anaphora-C'
p621
sg10
S'i33'
p622
sg12
S'i30'
p623
sg13
Nsg14
(lp624
(i__main__
Token
p625
(dp626
g18
I152
sbasg19
I152
sbasg7
g602
sg247
Nsba(i__main__
Chain
p627
(dp628
g3
(lp629
(i__main__
Mention
p630
(dp631
g7
S't11'
p632
sg9
Nsg10
S'i53'
p633
sg12
Nsg13
Nsg14
(lp634
(i__main__
Token
p635
(dp636
g18
I226
sbasg19
I226
sbasg7
g632
sg247
Nsba(i__main__
Chain
p637
(dp638
g3
(lp639
(i__main__
Mention
p640
(dp641
g7
S't12'
p642
sg9
Nsg10
S'i54'
p643
sg12
Nsg13
Nsg14
(lp644
(i__main__
Token
p645
(dp646
g18
I229
sbasg19
I229
sbasg7
g642
sg247
Nsba(i__main__
Chain
p647
(dp648
g3
(lp649
(i__main__
Mention
p650
(dp651
g7
S't13'
p652
sg9
Nsg10
S'i61'
p653
sg12
Nsg13
Nsg14
(lp654
(i__main__
Token
p655
(dp656
g18
I269
sbasg19
I269
sbasg7
g652
sg247
Nsba(i__main__
Chain
p657
(dp658
g3
(lp659
(i__main__
Mention
p660
(dp661
g7
S't14'
p662
sg9
Nsg10
S'i64'
p663
sg12
Nsg13
Nsg14
(lp664
(i__main__
Token
p665
(dp666
g18
I276
sba(i__main__
Token
p667
(dp668
g18
I277
sba(i__main__
Token
p669
(dp670
g18
I278
sba(i__main__
Token
p671
(dp672
g18
I279
sbasg19
I279
sba(i__main__
Mention
p673
(dp674
g7
S't14'
p675
sg9
S'Anaphora-C'
p676
sg10
S'i66'
p677
sg12
S'i64'
p678
sg13
Nsg14
(lp679
(i__main__
Token
p680
(dp681
g18
I286
sbasg19
I286
sba(i__main__
Mention
p682
(dp683
g7
S't14'
p684
sg9
S'Coreference-Noun-Noun'
p685
sg10
S'i67'
p686
sg12
S'i66'
p687
sg13
Nsg14
(lp688
(i__main__
Token
p689
(dp690
g18
I287
sba(i__main__
Token
p691
(dp692
g18
I288
sbasg19
I288
sbasg7
g662
sg247
Nsba.