(lp0
(i__main__
Chain
p1
(dp2
S'mentionList'
p3
(lp4
(i__main__
Mention
p5
(dp6
S'chainId'
p7
S't1'
p8
sS'relType'
p9
NsS'mentionId'
p10
S'i1'
p11
sS'antecedentId'
p12
NsS'crefMod'
p13
NsS'tokenList'
p14
(lp15
(i__main__
Token
p16
(dp17
S'tokenId'
p18
I7
sbasS'mentionHead'
p19
I7
sba(i__main__
Mention
p20
(dp21
g7
S't1'
p22
sg9
S'Coreference-NounComplement'
p23
sg10
S'i2'
p24
sg12
S'i1'
p25
sg13
Nsg14
(lp26
(i__main__
Token
p27
(dp28
g18
I8
sba(i__main__
Token
p29
(dp30
g18
I9
sbasg19
I9
sba(i__main__
Mention
p31
(dp32
g7
S't1'
p33
sg9
S'Coreference-Identity'
p34
sg10
S'i6'
p35
sg12
S'i2'
p36
sg13
Nsg14
(lp37
(i__main__
Token
p38
(dp39
g18
I44
sbasg19
I44
sba(i__main__
Mention
p40
(dp41
g7
S't1'
p42
sg9
S'Coreference-Noun-Noun'
p43
sg10
S'i9'
p44
sg12
S'i6'
p45
sg13
Nsg14
(lp46
(i__main__
Token
p47
(dp48
g18
I61
sba(i__main__
Token
p49
(dp50
g18
I62
sbasg19
I62
sba(i__main__
Mention
p51
(dp52
g7
S't1'
p53
sg9
S'Anaphora-C'
p54
sg10
S'i12'
p55
sg12
S'i9'
p56
sg13
Nsg14
(lp57
(i__main__
Token
p58
(dp59
g18
I82
sbasg19
I82
sba(i__main__
Mention
p60
(dp61
g7
S't1'
p62
sg9
S'Coreference-Noun-Noun'
p63
sg10
S'i15'
p64
sg12
S'i12'
p65
sg13
Nsg14
(lp66
(i__main__
Token
p67
(dp68
g18
I88
sba(i__main__
Token
p69
(dp70
g18
I89
sbasg19
I89
sba(i__main__
Mention
p71
(dp72
g7
S't1'
p73
sg9
S'Coreference-Noun-Noun'
p74
sg10
S'i21'
p75
sg12
S'i15'
p76
sg13
Nsg14
(lp77
(i__main__
Token
p78
(dp79
g18
I111
sbasg19
I111
sba(i__main__
Mention
p80
(dp81
g7
S't1'
p82
sg9
S'Coreference-Identity'
p83
sg10
S'i22'
p84
sg12
S'i21'
p85
sg13
Nsg14
(lp86
(i__main__
Token
p87
(dp88
g18
I120
sbasg19
I120
sba(i__main__
Mention
p89
(dp90
g7
S't1'
p91
sg9
S'Anaphora-C'
p92
sg10
S'i23'
p93
sg12
S'i22'
p94
sg13
Nsg14
(lp95
(i__main__
Token
p96
(dp97
g18
I125
sbasg19
I125
sba(i__main__
Mention
p98
(dp99
g7
S't1'
p100
sg9
S'Coreference-Identity'
p101
sg10
S'i27'
p102
sg12
S'i23'
p103
sg13
Nsg14
(lp104
(i__main__
Token
p105
(dp106
g18
I140
sbasg19
I140
sba(i__main__
Mention
p107
(dp108
g7
S't1'
p109
sg9
S'Coreference-Identity'
p110
sg10
S'i34'
p111
sg12
S'i27'
p112
sg13
Nsg14
(lp113
(i__main__
Token
p114
(dp115
g18
I179
sbasg19
I179
sba(i__main__
Mention
p116
(dp117
g7
S't1'
p118
sg9
S'Coreference-Identity'
p119
sg10
S'i38'
p120
sg12
S'i34'
p121
sg13
Nsg14
(lp122
(i__main__
Token
p123
(dp124
g18
I199
sba(i__main__
Token
p125
(dp126
g18
I200
sbasg19
I200
sba(i__main__
Mention
p127
(dp128
g7
S't1'
p129
sg9
S'Coreference-Identity'
p130
sg10
S'i42'
p131
sg12
S'i38'
p132
sg13
Nsg14
(lp133
(i__main__
Token
p134
(dp135
g18
I222
sbasg19
I222
sba(i__main__
Mention
p136
(dp137
g7
S't1'
p138
sg9
S'Coreference-Identity'
p139
sg10
S'i48'
p140
sg12
S'i42'
p141
sg13
Nsg14
(lp142
(i__main__
Token
p143
(dp144
g18
I243
sbasg19
I243
sba(i__main__
Mention
p145
(dp146
g7
S't1'
p147
sg9
S'Anaphora-C'
p148
sg10
S'i49'
p149
sg12
S'i48'
p150
sg13
Nsg14
(lp151
(i__main__
Token
p152
(dp153
g18
I247
sbasg19
I247
sba(i__main__
Mention
p154
(dp155
g7
S't1'
p156
sg9
S'Anaphora-C'
p157
sg10
S'i53'
p158
sg12
S'i49'
p159
sg13
Nsg14
(lp160
(i__main__
Token
p161
(dp162
g18
I267
sbasg19
I267
sba(i__main__
Mention
p163
(dp164
g7
S't1'
p165
sg9
S'Anaphora-C'
p166
sg10
S'i57'
p167
sg12
S'i53'
p168
sg13
Nsg14
(lp169
(i__main__
Token
p170
(dp171
g18
I292
sbasg19
I292
sba(i__main__
Mention
p172
(dp173
g7
S't1'
p174
sg9
S'Coreference-Identity'
p175
sg10
S'i58'
p176
sg12
S'i57'
p177
sg13
Nsg14
(lp178
(i__main__
Token
p179
(dp180
g18
I307
sbasg19
I307
sba(i__main__
Mention
p181
(dp182
g7
S't1'
p183
sg9
S'Coreference-Identity'
p184
sg10
S'i76'
p185
sg12
S'i58'
p186
sg13
Nsg14
(lp187
(i__main__
Token
p188
(dp189
g18
I431
sbasg19
I431
sba(i__main__
Mention
p190
(dp191
g7
S't1'
p192
sg9
S'Anaphora-C'
p193
sg10
S'i77'
p194
sg12
S'i76'
p195
sg13
Nsg14
(lp196
(i__main__
Token
p197
(dp198
g18
I435
sbasg19
I435
sba(i__main__
Mention
p199
(dp200
g7
S't1'
p201
sg9
S'Anaphora-C'
p202
sg10
S'i82'
p203
sg12
S'i77'
p204
sg13
Nsg14
(lp205
(i__main__
Token
p206
(dp207
g18
I451
sbasg19
I451
sba(i__main__
Mention
p208
(dp209
g7
S't1'
p210
sg9
S'Coreference-Identity'
p211
sg10
S'i94'
p212
sg12
S'i82'
p213
sg13
Nsg14
(lp214
(i__main__
Token
p215
(dp216
g18
I567
sbasg19
I567
sba(i__main__
Mention
p217
(dp218
g7
S't1'
p219
sg9
S'Coreference-Identity'
p220
sg10
S'i97'
p221
sg12
S'i94'
p222
sg13
Nsg14
(lp223
(i__main__
Token
p224
(dp225
g18
I591
sbasg19
I591
sbasg7
g8
sS'chainHead'
p226
Nsba(i__main__
Chain
p227
(dp228
g3
(lp229
(i__main__
Mention
p230
(dp231
g7
S't2'
p232
sg9
Nsg10
S'i3'
p233
sg12
Nsg13
Nsg14
(lp234
(i__main__
Token
p235
(dp236
g18
I28
sba(i__main__
Token
p237
(dp238
g18
I29
sbasg19
I29
sba(i__main__
Mention
p239
(dp240
g7
S't2'
p241
sg9
S'Coreference-Identity'
p242
sg10
S'i51'
p243
sg12
S'i3'
p244
sg13
Nsg14
(lp245
(i__main__
Token
p246
(dp247
g18
I254
sba(i__main__
Token
p248
(dp249
g18
I255
sbasg19
I255
sba(i__main__
Mention
p250
(dp251
g7
S't2'
p252
sg9
S'Anaphora-C'
p253
sg10
S'i52'
p254
sg12
S'i51'
p255
sg13
Nsg14
(lp256
(i__main__
Token
p257
(dp258
g18
I261
sbasg19
I261
sba(i__main__
Mention
p259
(dp260
g7
S't2'
p261
sg9
S'Coreference-Identity'
p262
sg10
S'i66'
p263
sg12
S'i52'
p264
sg13
Nsg14
(lp265
(i__main__
Token
p266
(dp267
g18
I359
sba(i__main__
Token
p268
(dp269
g18
I360
sba(i__main__
Token
p270
(dp271
g18
I361
sbasg19
I361
sbasg7
g232
sg226
Nsba(i__main__
Chain
p272
(dp273
g3
(lp274
(i__main__
Mention
p275
(dp276
g7
S't3'
p277
sg9
Nsg10
S'i4'
p278
sg12
Nsg13
Nsg14
(lp279
(i__main__
Token
p280
(dp281
g18
I31
sba(i__main__
Token
p282
(dp283
g18
I32
sbasg19
I32
sba(i__main__
Mention
p284
(dp285
g7
S't3'
p286
sg9
S'Coreference-Noun-Noun'
p287
sg10
S'i50'
p288
sg12
S'i4'
p289
sg13
Nsg14
(lp290
(i__main__
Token
p291
(dp292
g18
I248
sba(i__main__
Token
p293
(dp294
g18
I249
sbasg19
I249
sba(i__main__
Mention
p295
(dp296
g7
S't3'
p297
sg9
S'Coreference-Identity'
p298
sg10
S'i63'
p299
sg12
S'i50'
p300
sg13
Nsg14
(lp301
(i__main__
Token
p302
(dp303
g18
I332
sba(i__main__
Token
p304
(dp305
g18
I333
sbasg19
I333
sbasg7
g277
sg226
Nsba(i__main__
Chain
p306
(dp307
g3
(lp308
(i__main__
Mention
p309
(dp310
g7
S't4'
p311
sg9
Nsg10
S'i5'
p312
sg12
Nsg13
Nsg14
(lp313
(i__main__
Token
p314
(dp315
g18
I35
sba(i__main__
Token
p316
(dp317
g18
I36
sbasg19
I36
sba(i__main__
Mention
p318
(dp319
g7
S't4'
p320
sg9
S'Coreference-Identity'
p321
sg10
S'i7'
p322
sg12
S'i5'
p323
sg13
Nsg14
(lp324
(i__main__
Token
p325
(dp326
g18
I46
sba(i__main__
Token
p327
(dp328
g18
I47
sbasg19
I47
sba(i__main__
Mention
p329
(dp330
g7
S't4'
p331
sg9
S'Anaphora-C'
p332
sg10
S'i10'
p333
sg12
S'i7'
p334
sg13
Nsg14
(lp335
(i__main__
Token
p336
(dp337
g18
I64
sbasg19
I64
sba(i__main__
Mention
p338
(dp339
g7
S't4'
p340
sg9
S'Coreference-Identity'
p341
sg10
S'i24'
p342
sg12
S'i10'
p343
sg13
Nsg14
(lp344
(i__main__
Token
p345
(dp346
g18
I130
sba(i__main__
Token
p347
(dp348
g18
I131
sbasg19
I131
sba(i__main__
Mention
p349
(dp350
g7
S't4'
p351
sg9
S'Coreference-Identity'
p352
sg10
S'i39'
p353
sg12
S'i24'
p354
sg13
Nsg14
(lp355
(i__main__
Token
p356
(dp357
g18
I205
sba(i__main__
Token
p358
(dp359
g18
I206
sbasg19
I206
sba(i__main__
Mention
p360
(dp361
g7
S't4'
p362
sg9
S'Coreference-Identity'
p363
sg10
S'i47'
p364
sg12
S'i39'
p365
sg13
Nsg14
(lp366
(i__main__
Token
p367
(dp368
g18
I232
sba(i__main__
Token
p369
(dp370
g18
I233
sbasg19
I233
sba(i__main__
Mention
p371
(dp372
g7
S't4'
p373
sg9
S'Coreference-Identity'
p374
sg10
S'i65'
p375
sg12
S'i47'
p376
sg13
Nsg14
(lp377
(i__main__
Token
p378
(dp379
g18
I351
sba(i__main__
Token
p380
(dp381
g18
I352
sbasg19
I352
sba(i__main__
Mention
p382
(dp383
g7
S't4'
p384
sg9
S'Anaphora-C'
p385
sg10
S'i67'
p386
sg12
S'i65'
p387
sg13
Nsg14
(lp388
(i__main__
Token
p389
(dp390
g18
I368
sbasg19
I368
sba(i__main__
Mention
p391
(dp392
g7
S't4'
p393
sg9
S'Anaphora-C'
p394
sg10
S'i69'
p395
sg12
S'i67'
p396
sg13
Nsg14
(lp397
(i__main__
Token
p398
(dp399
g18
I381
sbasg19
I381
sba(i__main__
Mention
p400
(dp401
g7
S't4'
p402
sg9
S'Anaphora-C'
p403
sg10
S'i73'
p404
sg12
S'i69'
p405
sg13
Nsg14
(lp406
(i__main__
Token
p407
(dp408
g18
I420
sbasg19
I420
sba(i__main__
Mention
p409
(dp410
g7
S't4'
p411
sg9
S'Coreference-Identity'
p412
sg10
S'i78'
p413
sg12
S'i73'
p414
sg13
Nsg14
(lp415
(i__main__
Token
p416
(dp417
g18
I440
sba(i__main__
Token
p418
(dp419
g18
I441
sbasg19
I441
sba(i__main__
Mention
p420
(dp421
g7
S't4'
p422
sg9
S'Anaphora-C'
p423
sg10
S'i83'
p424
sg12
S'i78'
p425
sg13
Nsg14
(lp426
(i__main__
Token
p427
(dp428
g18
I458
sbasg19
I458
sbasg7
g311
sg226
Nsba(i__main__
Chain
p429
(dp430
g3
(lp431
(i__main__
Mention
p432
(dp433
g7
S't5'
p434
sg9
Nsg10
S'i8'
p435
sg12
Nsg13
Nsg14
(lp436
(i__main__
Token
p437
(dp438
g18
I49
sbasg19
I49
sba(i__main__
Mention
p439
(dp440
g7
S't5'
p441
sg9
S'Coreference-Identity'
p442
sg10
S'i11'
p443
sg12
S'i8'
p444
sg13
Nsg14
(lp445
(i__main__
Token
p446
(dp447
g18
I65
sbasg19
I65
sba(i__main__
Mention
p448
(dp449
g7
S't5'
p450
sg9
S'Coreference-Identity'
p451
sg10
S'i79'
p452
sg12
S'i11'
p453
sg13
Nsg14
(lp454
(i__main__
Token
p455
(dp456
g18
I443
sbasg19
I443
sba(i__main__
Mention
p457
(dp458
g7
S't5'
p459
sg9
S'Anaphora-C'
p460
sg10
S'i80'
p461
sg12
S'i79'
p462
sg13
Nsg14
(lp463
(i__main__
Token
p464
(dp465
g18
I449
sbasg19
I449
sbasg7
g434
sg226
Nsba(i__main__
Chain
p466
(dp467
g3
(lp468
(i__main__
Mention
p469
(dp470
g7
S't6'
p471
sg9
Nsg10
S'i13'
p472
sg12
Nsg13
Nsg14
(lp473
(i__main__
Token
p474
(dp475
g18
I83
sbasg19
I83
sba(i__main__
Mention
p476
(dp477
g7
S't6'
p478
sg9
S'Coreference-Noun-Noun'
p479
sg10
S'i36'
p480
sg12
S'i26'
p481
sg13
Nsg14
(lp482
(i__main__
Token
p483
(dp484
g18
I191
sba(i__main__
Token
p485
(dp486
g18
I192
sba(i__main__
Token
p487
(dp488
g18
I193
sba(i__main__
Token
p489
(dp490
g18
I194
sba(i__main__
Token
p491
(dp492
g18
I195
sba(i__main__
Token
p493
(dp494
g18
I196
sbasg19
I196
sba(i__main__
Mention
p495
(dp496
g7
S't6'
p497
sg9
S'Coreference-Identity'
p498
sg10
S'i43'
p499
sg12
S'i116'
p500
sg13
Nsg14
(lp501
(i__main__
Token
p502
(dp503
g18
I224
sbasg19
I224
sbasg7
g471
sg226
Nsba(i__main__
Chain
p504
(dp505
g3
(lp506
(i__main__
Mention
p507
(dp508
g7
S't7'
p509
sg9
Nsg10
S'i14'
p510
sg12
Nsg13
Nsg14
(lp511
(i__main__
Token
p512
(dp513
g18
I87
sbasg19
I87
sba(i__main__
Mention
p514
(dp515
g7
S't7'
p516
sg9
S'Anaphora-RT'
p517
sg10
S'i16'
p518
sg12
S'i14'
p519
sg13
Nsg14
(lp520
(i__main__
Token
p521
(dp522
g18
I88
sba(i__main__
Token
p523
(dp524
g18
I89
sba(i__main__
Token
p525
(dp526
g18
I90
sba(i__main__
Token
p527
(dp528
g18
I91
sba(i__main__
Token
p529
(dp530
g18
I92
sba(i__main__
Token
p531
(dp532
g18
I93
sba(i__main__
Token
p533
(dp534
g18
I94
sba(i__main__
Token
p535
(dp536
g18
I95
sba(i__main__
Token
p537
(dp538
g18
I96
sba(i__main__
Token
p539
(dp540
g18
I97
sba(i__main__
Token
p541
(dp542
g18
I98
sbasg19
I98
sbasg7
g509
sg226
Nsba(i__main__
Chain
p543
(dp544
g3
(lp545
(i__main__
Mention
p546
(dp547
g7
S't8'
p548
sg9
Nsg10
S'i17'
p549
sg12
Nsg13
Nsg14
(lp550
(i__main__
Token
p551
(dp552
g18
I91
sbasg19
I91
sba(i__main__
Mention
p553
(dp554
g7
S't8'
p555
sg9
S'Anaphora-C'
p556
sg10
S'i20'
p557
sg12
S'i17'
p558
sg13
Nsg14
(lp559
(i__main__
Token
p560
(dp561
g18
I102
sbasg19
I102
sbasg7
g548
sg226
Nsba(i__main__
Chain
p562
(dp563
g3
(lp564
(i__main__
Mention
p565
(dp566
g7
S't9'
p567
sg9
S'anaphora-?'
p568
sg10
S'i18'
p569
sg12
S'i18'
p570
sg13
Nsg14
(lp571
(i__main__
Token
p572
(dp573
g18
I99
sbasg19
I99
sbasg7
g567
sg226
Nsba(i__main__
Chain
p574
(dp575
g3
(lp576
(i__main__
Mention
p577
(dp578
g7
S't10'
p579
sg9
Nsg10
S'i19'
p580
sg12
Nsg13
Nsg14
(lp581
(i__main__
Token
p582
(dp583
g18
I100
sbasg19
I100
sba(i__main__
Mention
p584
(dp585
g7
S't10'
p586
sg9
S'Coreference-Noun-Noun'
p587
sg10
S'i25'
p588
sg12
S'i19'
p589
sg13
Nsg14
(lp590
(i__main__
Token
p591
(dp592
g18
I135
sbasg19
I135
sba(i__main__
Mention
p593
(dp594
g7
S't10'
p595
sg9
S'Coreference-NounComplement'
p596
sg10
S'i26'
p597
sg12
S'i25'
p598
sg13
Nsg14
(lp599
(i__main__
Token
p600
(dp601
g18
I136
sba(i__main__
Token
p602
(dp603
g18
I137
sba(i__main__
Token
p604
(dp605
g18
I138
sbasg19
I138
sba(i__main__
Mention
p606
(dp607
g7
S't10'
p608
sg9
S'Anaphora-C'
p609
sg10
S'i31'
p610
sg12
S'i26'
p611
sg13
Nsg14
(lp612
(i__main__
Token
p613
(dp614
g18
I171
sbasg19
I171
sba(i__main__
Mention
p615
(dp616
g7
S't10'
p617
sg9
S'Coreference-Noun-Noun'
p618
sg10
S'i40'
p619
sg12
S'i84'
p620
sg13
Nsg14
(lp621
(i__main__
Token
p622
(dp623
g18
I219
sbasg19
I219
sba(i__main__
Mention
p624
(dp625
g7
S't10'
p626
sg9
S'Coreference-NounComplement'
p627
sg10
S'i41'
p628
sg12
S'i40'
p629
sg13
Nsg14
(lp630
(i__main__
Token
p631
(dp632
g18
I220
sbasg19
I220
sba(i__main__
Mention
p633
(dp634
g7
S't10'
p635
sg9
S'Coreference-Noun-Noun'
p636
sg10
S'i85'
p637
sg12
S'i41'
p638
sg13
Nsg14
(lp639
(i__main__
Token
p640
(dp641
g18
I500
sbasg19
I500
sba(i__main__
Mention
p642
(dp643
g7
S't10'
p644
sg9
S'Coreference-NounComplement'
p645
sg10
S'i86'
p646
sg12
S'i85'
p647
sg13
Nsg14
(lp648
(i__main__
Token
p649
(dp650
g18
I501
sbasg19
I501
sba(i__main__
Mention
p651
(dp652
g7
S't10'
p653
sg9
S'Coreference-Noun-Noun'
p654
sg10
S'i93'
p655
sg12
S'i86'
p656
sg13
Nsg14
(lp657
(i__main__
Token
p658
(dp659
g18
I566
sbasg19
I566
sbasg7
g579
sg226
Nsba(i__main__
Chain
p660
(dp661
g3
(lp662
(i__main__
Mention
p663
(dp664
g7
S't11'
p665
sg9
Nsg10
S'i28'
p666
sg12
Nsg13
Nsg14
(lp667
(i__main__
Token
p668
(dp669
g18
I142
sba(i__main__
Token
p670
(dp671
g18
I143
sbasg19
I143
sba(i__main__
Mention
p672
(dp673
g7
S't11'
p674
sg9
S'Anaphora-C'
p675
sg10
S'i30'
p676
sg12
S'i28'
p677
sg13
Nsg14
(lp678
(i__main__
Token
p679
(dp680
g18
I166
sbasg19
I166
sbasg7
g665
sg226
Nsba(i__main__
Chain
p681
(dp682
g3
(lp683
(i__main__
Mention
p684
(dp685
g7
S't12'
p686
sg9
Nsg10
S'i29'
p687
sg12
Nsg13
Nsg14
(lp688
(i__main__
Token
p689
(dp690
g18
I149
sba(i__main__
Token
p691
(dp692
g18
I150
sbasg19
I150
sba(i__main__
Mention
p693
(dp694
g7
S't12'
p695
sg9
S'Coreference-Identity'
p696
sg10
S'i95'
p697
sg12
S'i29'
p698
sg13
Nsg14
(lp699
(i__main__
Token
p700
(dp701
g18
I573
sba(i__main__
Token
p702
(dp703
g18
I574
sbasg19
I574
sbasg7
g686
sg226
Nsba(i__main__
Chain
p704
(dp705
g3
(lp706
(i__main__
Mention
p707
(dp708
g7
S't13'
p709
sg9
Nsg10
S'i33'
p710
sg12
Nsg13
Nsg14
(lp711
(i__main__
Token
p712
(dp713
g18
I176
sbasg19
I176
sba(i__main__
Mention
p714
(dp715
g7
S't13'
p716
sg9
S'Anaphora-C'
p717
sg10
S'i35'
p718
sg12
S'i33'
p719
sg13
Nsg14
(lp720
(i__main__
Token
p721
(dp722
g18
I185
sbasg19
I185
sba(i__main__
Mention
p723
(dp724
g7
S't13'
p725
sg9
S'Coreference-Identity'
p726
sg10
S'i96'
p727
sg12
S'i35'
p728
sg13
Nsg14
(lp729
(i__main__
Token
p730
(dp731
g18
I587
sba(i__main__
Token
p732
(dp733
g18
I588
sbasg19
I588
sbasg7
g709
sg226
Nsba(i__main__
Chain
p734
(dp735
g3
(lp736
(i__main__
Mention
p737
(dp738
g7
S't14'
p739
sg9
Nsg10
S'i45'
p740
sg12
Nsg13
Nsg14
(lp741
(i__main__
Token
p742
(dp743
g18
I229
sbasg19
I229
sba(i__main__
Mention
p744
(dp745
g7
S't14'
p746
sg9
S'Coreference-NounComplement'
p747
sg10
S'i46'
p748
sg12
S'i45'
p749
sg13
Nsg14
(lp750
(i__main__
Token
p751
(dp752
g18
I230
sba(i__main__
Token
p753
(dp754
g18
I231
sbasg19
I231
sbasg7
g739
sg226
Nsba(i__main__
Chain
p755
(dp756
g3
(lp757
(i__main__
Mention
p758
(dp759
g7
S't15'
p760
sg9
Nsg10
S'i54'
p761
sg12
Nsg13
Nsg14
(lp762
(i__main__
Token
p763
(dp764
g18
I277
sba(i__main__
Token
p765
(dp766
g18
I278
sba(i__main__
Token
p767
(dp768
g18
I279
sbasg19
I279
sba(i__main__
Mention
p769
(dp770
g7
S't15'
p771
sg9
S'Anaphora-C'
p772
sg10
S'i55'
p773
sg12
S'i54'
p774
sg13
Nsg14
(lp775
(i__main__
Token
p776
(dp777
g18
I283
sbasg19
I283
sba(i__main__
Mention
p778
(dp779
g7
S't15'
p780
sg9
S'Coreference-Identity'
p781
sg10
S'i75'
p782
sg12
S'i55'
p783
sg13
Nsg14
(lp784
(i__main__
Token
p785
(dp786
g18
I424
sba(i__main__
Token
p787
(dp788
g18
I425
sba(i__main__
Token
p789
(dp790
g18
I426
sbasg19
I426
sba(i__main__
Mention
p791
(dp792
g7
S't15'
p793
sg9
S'Coreference-Identity'
p794
sg10
S'i91'
p795
sg12
S'i75'
p796
sg13
Nsg14
(lp797
(i__main__
Token
p798
(dp799
g18
I546
sba(i__main__
Token
p800
(dp801
g18
I547
sbasg19
I547
sba(i__main__
Mention
p802
(dp803
g7
S't15'
p804
sg9
S'Anaphora-C'
p805
sg10
S'i92'
p806
sg12
S'i91'
p807
sg13
Nsg14
(lp808
(i__main__
Token
p809
(dp810
g18
I559
sbasg19
I559
sbasg7
g760
sg226
Nsba(i__main__
Chain
p811
(dp812
g3
(lp813
(i__main__
Mention
p814
(dp815
g7
S't16'
p816
sg9
Nsg10
S'i59'
p817
sg12
Nsg13
Nsg14
(lp818
(i__main__
Token
p819
(dp820
g18
I311
sba(i__main__
Token
p821
(dp822
g18
I312
sba(i__main__
Token
p823
(dp824
g18
I313
sba(i__main__
Token
p825
(dp826
g18
I314
sbasg19
I314
sba(i__main__
Mention
p827
(dp828
g7
S't16'
p829
sg9
S'Anaphora-C'
p830
sg10
S'i60'
p831
sg12
S'i59'
p832
sg13
Nsg14
(lp833
(i__main__
Token
p834
(dp835
g18
I316
sbasg19
I316
sbasg7
g816
sg226
Nsba(i__main__
Chain
p836
(dp837
g3
(lp838
(i__main__
Mention
p839
(dp840
g7
S't17'
p841
sg9
S'anaphora-?'
p842
sg10
S'i62'
p843
sg12
S'i62'
p844
sg13
Nsg14
(lp845
(i__main__
Token
p846
(dp847
g18
I318
sbasg19
I318
sbasg7
g841
sg226
Nsba(i__main__
Chain
p848
(dp849
g3
(lp850
(i__main__
Mention
p851
(dp852
g7
S't18'
p853
sg9
S'anaphora-?'
p854
sg10
S'i64'
p855
sg12
S'i64'
p856
sg13
Nsg14
(lp857
(i__main__
Token
p858
(dp859
g18
I337
sbasg19
I337
sbasg7
g853
sg226
Nsba(i__main__
Chain
p860
(dp861
g3
(lp862
(i__main__
Mention
p863
(dp864
g7
S't19'
p865
sg9
Nsg10
S'i71'
p866
sg12
Nsg13
Nsg14
(lp867
(i__main__
Token
p868
(dp869
g18
I400
sba(i__main__
Token
p870
(dp871
g18
I401
sbasg19
I401
sba(i__main__
Mention
p872
(dp873
g7
S't19'
p874
sg9
S'Anaphora-C'
p875
sg10
S'i72'
p876
sg12
S'i71'
p877
sg13
Nsg14
(lp878
(i__main__
Token
p879
(dp880
g18
I408
sbasg19
I408
sbasg7
g865
sg226
Nsba(i__main__
Chain
p881
(dp882
g3
(lp883
(i__main__
Mention
p884
(dp885
g7
S't20'
p886
sg9
Nsg10
S'i87'
p887
sg12
Nsg13
Nsg14
(lp888
(i__main__
Token
p889
(dp890
g18
I520
sbasg19
I520
sba(i__main__
Mention
p891
(dp892
g7
S't20'
p893
sg9
S'Anaphora-RT'
p894
sg10
S'i88'
p895
sg12
S'i87'
p896
sg13
Nsg14
(lp897
(i__main__
Token
p898
(dp899
g18
I521
sba(i__main__
Token
p900
(dp901
g18
I522
sba(i__main__
Token
p902
(dp903
g18
I523
sbasg19
I521
sbasg7
g886
sg226
Nsba(i__main__
Chain
p904
(dp905
g3
(lp906
(i__main__
Mention
p907
(dp908
g7
S't21'
p909
sg9
S'anaphora-?'
p910
sg10
S'i89'
p911
sg12
S'i89'
p912
sg13
Nsg14
(lp913
(i__main__
Token
p914
(dp915
g18
I524
sbasg19
I524
sbasg7
g909
sg226
Nsba(i__main__
Chain
p916
(dp917
g3
(lp918
(i__main__
Mention
p919
(dp920
g7
S't22'
p921
sg9
S'anaphora-?'
p922
sg10
S'i90'
p923
sg12
S'i90'
p924
sg13
Nsg14
(lp925
(i__main__
Token
p926
(dp927
g18
I531
sbasg19
I531
sbasg7
g921
sg226
Nsba(i__main__
Chain
p928
(dp929
g3
(lp930
(i__main__
Mention
p931
(dp932
g7
S't23'
p933
sg9
Nsg10
S'i98'
p934
sg12
Nsg13
Nsg14
(lp935
(i__main__
Token
p936
(dp937
g18
I593
sbasg19
I593
sba(i__main__
Mention
p938
(dp939
g7
S't23'
p940
sg9
S'Anaphora-C'
p941
sg10
S'i99'
p942
sg12
S'i98'
p943
sg13
Nsg14
(lp944
(i__main__
Token
p945
(dp946
g18
I598
sbasg19
I598
sbasg7
g933
sg226
Nsba(i__main__
Chain
p947
(dp948
g3
(lp949
(i__main__
Mention
p950
(dp951
g7
S't24'
p952
sg9
Nsg10
S'i100'
p953
sg12
Nsg13
Nsg14
(lp954
(i__main__
Token
p955
(dp956
g18
I602
sbasg19
I602
sba(i__main__
Mention
p957
(dp958
g7
S't24'
p959
sg9
S'Anaphora-E'
p960
sg10
S'i101'
p961
sg12
S'i100'
p962
sg13
Nsg14
(lp963
(i__main__
Token
p964
(dp965
g18
I605
sba(i__main__
Token
p966
(dp967
g18
I606
sba(i__main__
Token
p968
(dp969
g18
I607
sba(i__main__
Token
p970
(dp971
g18
I608
sba(i__main__
Token
p972
(dp973
g18
I609
sba(i__main__
Token
p974
(dp975
g18
I610
sba(i__main__
Token
p976
(dp977
g18
I611
sba(i__main__
Token
p978
(dp979
g18
I612
sba(i__main__
Token
p980
(dp981
g18
I613
sba(i__main__
Token
p982
(dp983
g18
I614
sba(i__main__
Token
p984
(dp985
g18
I615
sba(i__main__
Token
p986
(dp987
g18
I616
sba(i__main__
Token
p988
(dp989
g18
I617
sba(i__main__
Token
p990
(dp991
g18
I618
sbasg19
I617
sbasg7
g952
sg226
Nsba(i__main__
Chain
p992
(dp993
g3
(lp994
(i__main__
Mention
p995
(dp996
g7
S't25'
p997
sg9
S'anaphora-?'
p998
sg10
S'i102'
p999
sg12
S'i102'
p1000
sg13
Nsg14
(lp1001
(i__main__
Token
p1002
(dp1003
g18
I610
sbasg19
I610
sbasg7
g997
sg226
Nsba.