(lp0
(i__main__
Chain
p1
(dp2
S'mentionList'
p3
(lp4
(i__main__
Mention
p5
(dp6
S'chainId'
p7
S't1'
p8
sS'relType'
p9
NsS'mentionId'
p10
S'i1'
p11
sS'antecedentId'
p12
NsS'crefMod'
p13
NsS'tokenList'
p14
(lp15
(i__main__
Token
p16
(dp17
S'tokenId'
p18
I9
sba(i__main__
Token
p19
(dp20
g18
I10
sba(i__main__
Token
p21
(dp22
g18
I11
sbasS'mentionHead'
p23
I11
sba(i__main__
Mention
p24
(dp25
g7
S't1'
p26
sg9
S'Coreference-Bracketed/Abbraviation'
p27
sg10
S'i2'
p28
sg12
S'i1'
p29
sg13
Nsg14
(lp30
(i__main__
Token
p31
(dp32
g18
I13
sbasg23
I13
sba(i__main__
Mention
p33
(dp34
g7
S't1'
p35
sg9
S'Coreference-Identity'
p36
sg10
S'i20'
p37
sg12
S'i2'
p38
sg13
Nsg14
(lp39
(i__main__
Token
p40
(dp41
g18
I153
sbasg23
I153
sba(i__main__
Mention
p42
(dp43
g7
S't1'
p44
sg9
S'Coreference-Identity'
p45
sg10
S'i30'
p46
sg12
S'i20'
p47
sg13
Nsg14
(lp48
(i__main__
Token
p49
(dp50
g18
I283
sbasg23
I283
sba(i__main__
Mention
p51
(dp52
g7
S't1'
p53
sg9
S'Coreference-Identity'
p54
sg10
S'i32'
p55
sg12
S'i30'
p56
sg13
Nsg14
(lp57
(i__main__
Token
p58
(dp59
g18
I294
sbasg23
I294
sba(i__main__
Mention
p60
(dp61
g7
S't1'
p62
sg9
S'Coreference-Identity'
p63
sg10
S'i33'
p64
sg12
S'i32'
p65
sg13
Nsg14
(lp66
(i__main__
Token
p67
(dp68
g18
I301
sbasg23
I301
sbasg7
g8
sS'chainHead'
p69
Nsba(i__main__
Chain
p70
(dp71
g3
(lp72
(i__main__
Mention
p73
(dp74
g7
S't2'
p75
sg9
Nsg10
S'i3'
p76
sg12
Nsg13
Nsg14
(lp77
(i__main__
Token
p78
(dp79
g18
I21
sba(i__main__
Token
p80
(dp81
g18
I22
sbasg23
I22
sba(i__main__
Mention
p82
(dp83
g7
S't2'
p84
sg9
S'Coreference-Identity'
p85
sg10
S'i6'
p86
sg12
S'i3'
p87
sg13
Nsg14
(lp88
(i__main__
Token
p89
(dp90
g18
I42
sba(i__main__
Token
p91
(dp92
g18
I43
sbasg23
I43
sba(i__main__
Mention
p93
(dp94
g7
S't2'
p95
sg9
S'Coreference-Identity'
p96
sg10
S'i7'
p97
sg12
S'i6'
p98
sg13
Nsg14
(lp99
(i__main__
Token
p100
(dp101
g18
I57
sba(i__main__
Token
p102
(dp103
g18
I58
sbasg23
I58
sba(i__main__
Mention
p104
(dp105
g7
S't2'
p106
sg9
S'Coreference-Identity'
p107
sg10
S'i11'
p108
sg12
S'i7'
p109
sg13
Nsg14
(lp110
(i__main__
Token
p111
(dp112
g18
I84
sba(i__main__
Token
p113
(dp114
g18
I85
sba(i__main__
Token
p115
(dp116
g18
I86
sba(i__main__
Token
p117
(dp118
g18
I87
sbasg23
I87
sba(i__main__
Mention
p119
(dp120
g7
S't2'
p121
sg9
S'Coreference-Identity'
p122
sg10
S'i15'
p123
sg12
S'i11'
p124
sg13
Nsg14
(lp125
(i__main__
Token
p126
(dp127
g18
I112
sbasg23
I112
sba(i__main__
Mention
p128
(dp129
g7
S't2'
p130
sg9
S'Coreference-Identity'
p131
sg10
S'i18'
p132
sg12
S'i15'
p133
sg13
Nsg14
(lp134
(i__main__
Token
p135
(dp136
g18
I117
sbasg23
I117
sbasg7
g75
sg69
Nsba(i__main__
Chain
p137
(dp138
g3
(lp139
(i__main__
Mention
p140
(dp141
g7
S't3'
p142
sg9
Nsg10
S'i4'
p143
sg12
Nsg13
Nsg14
(lp144
(i__main__
Token
p145
(dp146
g18
I24
sbasg23
I24
sba(i__main__
Mention
p147
(dp148
g7
S't3'
p149
sg9
S'Coreference-Identity'
p150
sg10
S'i8'
p151
sg12
S'i4'
p152
sg13
Nsg14
(lp153
(i__main__
Token
p154
(dp155
g18
I60
sbasg23
I60
sba(i__main__
Mention
p156
(dp157
g7
S't3'
p158
sg9
S'Coreference-Identity'
p159
sg10
S'i9'
p160
sg12
S'i8'
p161
sg13
Nsg14
(lp162
(i__main__
Token
p163
(dp164
g18
I68
sbasg23
I68
sbasg7
g142
sg69
Nsba(i__main__
Chain
p165
(dp166
g3
(lp167
(i__main__
Mention
p168
(dp169
g7
S't4'
p170
sg9
Nsg10
S'i5'
p171
sg12
Nsg13
Nsg14
(lp172
(i__main__
Token
p173
(dp174
g18
I35
sba(i__main__
Token
p175
(dp176
g18
I36
sbasg23
I36
sba(i__main__
Mention
p177
(dp178
g7
S't4'
p179
sg9
S'Coreference-Identity'
p180
sg10
S'i12'
p181
sg12
S'i5'
p182
sg13
Nsg14
(lp183
(i__main__
Token
p184
(dp185
g18
I94
sba(i__main__
Token
p186
(dp187
g18
I95
sbasg23
I95
sba(i__main__
Mention
p188
(dp189
g7
S't4'
p190
sg9
S'Coreference-Identity'
p191
sg10
S'i38'
p192
sg12
S'i12'
p193
sg13
Nsg14
(lp194
(i__main__
Token
p195
(dp196
g18
I337
sba(i__main__
Token
p197
(dp198
g18
I338
sbasg23
I338
sbasg7
g170
sg69
Nsba(i__main__
Chain
p199
(dp200
g3
(lp201
(i__main__
Mention
p202
(dp203
g7
S't5'
p204
sg9
Nsg10
S'i10'
p205
sg12
Nsg13
Nsg14
(lp206
(i__main__
Token
p207
(dp208
g18
I79
sba(i__main__
Token
p209
(dp210
g18
I80
sba(i__main__
Token
p211
(dp212
g18
I81
sba(i__main__
Token
p213
(dp214
g18
I82
sbasg23
I82
sbasg7
g204
sg69
Nsba(i__main__
Chain
p215
(dp216
g3
(lp217
(i__main__
Mention
p218
(dp219
g7
S't6'
p220
sg9
Nsg10
S'i13'
p221
sg12
Nsg13
Nsg14
(lp222
(i__main__
Token
p223
(dp224
g18
I104
sba(i__main__
Token
p225
(dp226
g18
I105
sba(i__main__
Token
p227
(dp228
g18
I106
sbasg23
I106
sba(i__main__
Mention
p229
(dp230
g7
S't6'
p231
sg9
Nsg10
S'i17'
p232
sg12
Nsg13
Nsg14
(lp233
(i__main__
Token
p234
(dp235
g18
I114
sbasg23
Nsbasg7
g220
sg69
Nsba(i__main__
Chain
p236
(dp237
g3
(lp238
(i__main__
Mention
p239
(dp240
g7
S't7'
p241
sg9
Nsg10
S'i14'
p242
sg12
Nsg13
Nsg14
(lp243
(i__main__
Token
p244
(dp245
g18
I108
sba(i__main__
Token
p246
(dp247
g18
I109
sba(i__main__
Token
p248
(dp249
g18
I110
sba(i__main__
Token
p250
(dp251
g18
I111
sbasg23
I111
sba(i__main__
Mention
p252
(dp253
g7
S't7'
p254
sg9
Nsg10
S'i16'
p255
sg12
Nsg13
Nsg14
(lp256
(i__main__
Token
p257
(dp258
g18
I114
sbasg23
Nsbasg7
g241
sg69
Nsba(i__main__
Chain
p259
(dp260
g3
(lp261
(i__main__
Mention
p262
(dp263
g7
S't8'
p264
sg9
Nsg10
S'i19'
p265
sg12
Nsg13
Nsg14
(lp266
(i__main__
Token
p267
(dp268
g18
I140
sba(i__main__
Token
p269
(dp270
g18
I141
sba(i__main__
Token
p271
(dp272
g18
I142
sba(i__main__
Token
p273
(dp274
g18
I143
sba(i__main__
Token
p275
(dp276
g18
I144
sbasg23
I144
sbasg7
g264
sg69
Nsba(i__main__
Chain
p277
(dp278
g3
(lp279
(i__main__
Mention
p280
(dp281
g7
S't9'
p282
sg9
Nsg10
S'i21'
p283
sg12
Nsg13
Nsg14
(lp284
(i__main__
Token
p285
(dp286
g18
I173
sba(i__main__
Token
p287
(dp288
g18
I174
sba(i__main__
Token
p289
(dp290
g18
I175
sba(i__main__
Token
p291
(dp292
g18
I176
sbasg23
I176
sba(i__main__
Mention
p293
(dp294
g7
S't9'
p295
sg9
S'Coreference-Identity'
p296
sg10
S'i26'
p297
sg12
S'i48'
p298
sg13
Nsg14
(lp299
(i__main__
Token
p300
(dp301
g18
I196
sbasg23
I196
sba(i__main__
Mention
p302
(dp303
g7
S't9'
p304
sg9
S'Coreference-Identity'
p305
sg10
S'i37'
p306
sg12
S'i26'
p307
sg13
Nsg14
(lp308
(i__main__
Token
p309
(dp310
g18
I330
sbasg23
I330
sbasg7
g282
sg69
Nsba(i__main__
Chain
p311
(dp312
g3
(lp313
(i__main__
Mention
p314
(dp315
g7
S't10'
p316
sg9
Nsg10
S'i22'
p317
sg12
Nsg13
Nsg14
(lp318
(i__main__
Token
p319
(dp320
g18
I178
sba(i__main__
Token
p321
(dp322
g18
I179
sba(i__main__
Token
p323
(dp324
g18
I180
sba(i__main__
Token
p325
(dp326
g18
I181
sbasg23
I181
sba(i__main__
Mention
p327
(dp328
g7
S't10'
p329
sg9
S'Coreference-Identity'
p330
sg10
S'i23'
p331
sg12
S'i22'
p332
sg13
Nsg14
(lp333
(i__main__
Token
p334
(dp335
g18
I186
sbasg23
I186
sba(i__main__
Mention
p336
(dp337
g7
S't10'
p338
sg9
S'Anaphora-C'
p339
sg10
S'i24'
p340
sg12
S'i23'
p341
sg13
Nsg14
(lp342
(i__main__
Token
p343
(dp344
g18
I190
sbasg23
I190
sba(i__main__
Mention
p345
(dp346
g7
S't10'
p347
sg9
S'Coreference-Identity'
p348
sg10
S'i25'
p349
sg12
S'i24'
p350
sg13
Nsg14
(lp351
(i__main__
Token
p352
(dp353
g18
I196
sba(i__main__
Token
p354
(dp355
g18
I197
sbasg23
I197
sba(i__main__
Mention
p356
(dp357
g7
S't10'
p358
sg9
S'Coreference-Identity'
p359
sg10
S'i28'
p360
sg12
S'i25'
p361
sg13
Nsg14
(lp362
(i__main__
Token
p363
(dp364
g18
I275
sbasg23
I275
sba(i__main__
Mention
p365
(dp366
g7
S't10'
p367
sg9
S'Coreference-Identity'
p368
sg10
S'i36'
p369
sg12
S'i28'
p370
sg13
Nsg14
(lp371
(i__main__
Token
p372
(dp373
g18
I330
sba(i__main__
Token
p374
(dp375
g18
I331
sbasg23
I331
sbasg7
g316
sg69
Nsba(i__main__
Chain
p376
(dp377
g3
(lp378
(i__main__
Mention
p379
(dp380
g7
S't11'
p381
sg9
Nsg10
S'i29'
p382
sg12
Nsg13
Nsg14
(lp383
(i__main__
Token
p384
(dp385
g18
I280
sba(i__main__
Token
p386
(dp387
g18
I281
sbasg23
I281
sba(i__main__
Mention
p388
(dp389
g7
S't11'
p390
sg9
S'Anaphora-C'
p391
sg10
S'i31'
p392
sg12
S'i29'
p393
sg13
Nsg14
(lp394
(i__main__
Token
p395
(dp396
g18
I293
sbasg23
I293
sbasg7
g381
sg69
Nsba(i__main__
Chain
p397
(dp398
g3
(lp399
(i__main__
Mention
p400
(dp401
g7
S't12'
p402
sg9
Nsg10
S'i34'
p403
sg12
Nsg13
Nsg14
(lp404
(i__main__
Token
p405
(dp406
g18
I324
sbasg23
I324
sba(i__main__
Mention
p407
(dp408
g7
S't12'
p409
sg9
S'Anaphora-C'
p410
sg10
S'i35'
p411
sg12
S'i34'
p412
sg13
Nsg14
(lp413
(i__main__
Token
p414
(dp415
g18
I329
sbasg23
I329
sbasg7
g402
sg69
Nsba.