(lp0
(i__main__
Chain
p1
(dp2
S'mentionList'
p3
(lp4
(i__main__
Mention
p5
(dp6
S'chainId'
p7
S't1'
p8
sS'relType'
p9
NsS'mentionId'
p10
S'i1'
p11
sS'antecedentId'
p12
NsS'crefMod'
p13
NsS'tokenList'
p14
(lp15
(i__main__
Token
p16
(dp17
S'tokenId'
p18
I0
sba(i__main__
Token
p19
(dp20
g18
I1
sba(i__main__
Token
p21
(dp22
g18
I2
sbasS'mentionHead'
p23
I2
sba(i__main__
Mention
p24
(dp25
g7
S't1'
p26
sg9
S'Coreference-Identity'
p27
sg10
S'i8'
p28
sg12
S'i1'
p29
sg13
Nsg14
(lp30
(i__main__
Token
p31
(dp32
g18
I23
sbasg23
I23
sba(i__main__
Mention
p33
(dp34
g7
S't1'
p35
sg9
S'Coreference-Noun-Noun'
p36
sg10
S'i12'
p37
sg12
S'i8'
p38
sg13
Nsg14
(lp39
(i__main__
Token
p40
(dp41
g18
I44
sbasg23
I44
sba(i__main__
Mention
p42
(dp43
g7
S't1'
p44
sg9
S'Coreference-Noun-Noun'
p45
sg10
S'i16'
p46
sg12
S'i12'
p47
sg13
Nsg14
(lp48
(i__main__
Token
p49
(dp50
g18
I59
sbasg23
I59
sba(i__main__
Mention
p51
(dp52
g7
S't1'
p53
sg9
S'Coreference-Identity'
p54
sg10
S'i22'
p55
sg12
S'i16'
p56
sg13
Nsg14
(lp57
(i__main__
Token
p58
(dp59
g18
I95
sbasg23
I95
sba(i__main__
Mention
p60
(dp61
g7
S't1'
p62
sg9
S'Coreference-Identity'
p63
sg10
S'i30'
p64
sg12
S'i22'
p65
sg13
Nsg14
(lp66
(i__main__
Token
p67
(dp68
g18
I131
sbasg23
I131
sbasg7
g8
sS'chainHead'
p69
Nsba(i__main__
Chain
p70
(dp71
g3
(lp72
(i__main__
Mention
p73
(dp74
g7
S't2'
p75
sg9
Nsg10
S'i2'
p76
sg12
Nsg13
Nsg14
(lp77
(i__main__
Token
p78
(dp79
g18
I4
sba(i__main__
Token
p80
(dp81
g18
I5
sba(i__main__
Token
p82
(dp83
g18
I6
sbasg23
I6
sba(i__main__
Mention
p84
(dp85
g7
S't2'
p86
sg9
S'Coreference-NounComplement'
p87
sg10
S'i3'
p88
sg12
S'i2'
p89
sg13
Nsg14
(lp90
(i__main__
Token
p91
(dp92
g18
I7
sba(i__main__
Token
p93
(dp94
g18
I8
sbasg23
I8
sba(i__main__
Mention
p95
(dp96
g7
S't2'
p97
sg9
S'Anaphora-C'
p98
sg10
S'i4'
p99
sg12
S'i3'
p100
sg13
Nsg14
(lp101
(i__main__
Token
p102
(dp103
g18
I10
sbasg23
I10
sba(i__main__
Mention
p104
(dp105
g7
S't2'
p106
sg9
S'Coreference-Noun-Noun'
p107
sg10
S'i6'
p108
sg12
S'i4'
p109
sg13
Nsg14
(lp110
(i__main__
Token
p111
(dp112
g18
I18
sba(i__main__
Token
p113
(dp114
g18
I19
sba(i__main__
Token
p115
(dp116
g18
I20
sbasg23
I20
sba(i__main__
Mention
p117
(dp118
g7
S't2'
p119
sg9
S'Coreference-NounComplement'
p120
sg10
S'i7'
p121
sg12
S'i6'
p122
sg13
Nsg14
(lp123
(i__main__
Token
p124
(dp125
g18
I21
sbasg23
I21
sba(i__main__
Mention
p126
(dp127
g7
S't2'
p128
sg9
S'Coreference-Noun-Noun'
p129
sg10
S'i9'
p130
sg12
S'i7'
p131
sg13
Nsg14
(lp132
(i__main__
Token
p133
(dp134
g18
I25
sbasg23
I25
sba(i__main__
Mention
p135
(dp136
g7
S't2'
p137
sg9
S'Coreference-Noun-Noun'
p138
sg10
S'i10'
p139
sg12
S'i9'
p140
sg13
Nsg14
(lp141
(i__main__
Token
p142
(dp143
g18
I38
sbasg23
I38
sba(i__main__
Mention
p144
(dp145
g7
S't2'
p146
sg9
S'Anaphora-C'
p147
sg10
S'i11'
p148
sg12
S'i10'
p149
sg13
Nsg14
(lp150
(i__main__
Token
p151
(dp152
g18
I42
sbasg23
I42
sba(i__main__
Mention
p153
(dp154
g7
S't2'
p155
sg9
S'Coreference-Identity'
p156
sg10
S'i14'
p157
sg12
S'i11'
p158
sg13
Nsg14
(lp159
(i__main__
Token
p160
(dp161
g18
I54
sbasg23
I54
sba(i__main__
Mention
p162
(dp163
g7
S't2'
p164
sg9
S'Anaphora-C'
p165
sg10
S'i15'
p166
sg12
S'i14'
p167
sg13
Nsg14
(lp168
(i__main__
Token
p169
(dp170
g18
I58
sbasg23
I58
sba(i__main__
Mention
p171
(dp172
g7
S't2'
p173
sg9
S'Anaphora-C'
p174
sg10
S'i17'
p175
sg12
S'i15'
p176
sg13
Nsg14
(lp177
(i__main__
Token
p178
(dp179
g18
I66
sbasg23
I66
sba(i__main__
Mention
p180
(dp181
g7
S't2'
p182
sg9
S'Anaphora-C'
p183
sg10
S'i18'
p184
sg12
S'i17'
p185
sg13
Nsg14
(lp186
(i__main__
Token
p187
(dp188
g18
I75
sbasg23
I75
sba(i__main__
Mention
p189
(dp190
g7
S't2'
p191
sg9
S'Anaphora-C'
p192
sg10
S'i19'
p193
sg12
S'i18'
p194
sg13
Nsg14
(lp195
(i__main__
Token
p196
(dp197
g18
I82
sbasg23
I82
sba(i__main__
Mention
p198
(dp199
g7
S't2'
p200
sg9
S'Coreference-Noun-Noun'
p201
sg10
S'i20'
p202
sg12
S'i19'
p203
sg13
Nsg14
(lp204
(i__main__
Token
p205
(dp206
g18
I90
sbasg23
I90
sba(i__main__
Mention
p207
(dp208
g7
S't2'
p209
sg9
S'Anaphora-C'
p210
sg10
S'i21'
p211
sg12
S'i20'
p212
sg13
Nsg14
(lp213
(i__main__
Token
p214
(dp215
g18
I94
sbasg23
I94
sba(i__main__
Mention
p216
(dp217
g7
S't2'
p218
sg9
S'Anaphora-C'
p219
sg10
S'i26'
p220
sg12
S'i21'
p221
sg13
Nsg14
(lp222
(i__main__
Token
p223
(dp224
g18
I112
sbasg23
I112
sba(i__main__
Mention
p225
(dp226
g7
S't2'
p227
sg9
S'Coreference-Noun-Noun'
p228
sg10
S'i27'
p229
sg12
S'i26'
p230
sg13
Nsg14
(lp231
(i__main__
Token
p232
(dp233
g18
I121
sbasg23
I121
sba(i__main__
Mention
p234
(dp235
g7
S't2'
p236
sg9
S'Anaphora-C'
p237
sg10
S'i28'
p238
sg12
S'i27'
p239
sg13
Nsg14
(lp240
(i__main__
Token
p241
(dp242
g18
I125
sbasg23
I125
sba(i__main__
Mention
p243
(dp244
g7
S't2'
p245
sg9
S'Anaphora-C'
p246
sg10
S'i29'
p247
sg12
S'i28'
p248
sg13
Nsg14
(lp249
(i__main__
Token
p250
(dp251
g18
I126
sbasg23
I126
sba(i__main__
Mention
p252
(dp253
g7
S't2'
p254
sg9
S'Anaphora-C'
p255
sg10
S'i33'
p256
sg12
S'i29'
p257
sg13
Nsg14
(lp258
(i__main__
Token
p259
(dp260
g18
I140
sbasg23
I140
sba(i__main__
Mention
p261
(dp262
g7
S't2'
p263
sg9
S'Anaphora-C'
p264
sg10
S'i34'
p265
sg12
S'i33'
p266
sg13
Nsg14
(lp267
(i__main__
Token
p268
(dp269
g18
I143
sbasg23
I143
sba(i__main__
Mention
p270
(dp271
g7
S't2'
p272
sg9
S'Coreference-Identity'
p273
sg10
S'i38'
p274
sg12
S'i34'
p275
sg13
Nsg14
(lp276
(i__main__
Token
p277
(dp278
g18
I161
sbasg23
I161
sba(i__main__
Mention
p279
(dp280
g7
S't2'
p281
sg9
S'Anaphora-C'
p282
sg10
S'i39'
p283
sg12
S'i38'
p284
sg13
Nsg14
(lp285
(i__main__
Token
p286
(dp287
g18
I165
sbasg23
I165
sbasg7
g75
sg69
Nsba(i__main__
Chain
p288
(dp289
g3
(lp290
(i__main__
Mention
p291
(dp292
g7
S't3'
p293
sg9
Nsg10
S'i5'
p294
sg12
Nsg13
Nsg14
(lp295
(i__main__
Token
p296
(dp297
g18
I11
sbasg23
I11
sba(i__main__
Mention
p298
(dp299
g7
S't3'
p300
sg9
S'Coreference-Identity'
p301
sg10
S'i13'
p302
sg12
S'i5'
p303
sg13
Nsg14
(lp304
(i__main__
Token
p305
(dp306
g18
I44
sba(i__main__
Token
p307
(dp308
g18
I45
sba(i__main__
Token
p309
(dp310
g18
I46
sbasg23
I46
sba(i__main__
Mention
p311
(dp312
g7
S't3'
p313
sg9
S'Coreference-Identity'
p314
sg10
S'i23'
p315
sg12
S'i44'
p316
sg13
Nsg14
(lp317
(i__main__
Token
p318
(dp319
g18
I97
sba(i__main__
Token
p320
(dp321
g18
I98
sbasg23
I98
sba(i__main__
Mention
p322
(dp323
g7
S't3'
p324
sg9
S'Coreference-Identity'
p325
sg10
S'i40'
p326
sg12
S'i23'
p327
sg13
Nsg14
(lp328
(i__main__
Token
p329
(dp330
g18
I166
sba(i__main__
Token
p331
(dp332
g18
I167
sbasg23
I167
sba(i__main__
Mention
p333
(dp334
g7
S't3'
p335
sg9
S'Coreference-Identity'
p336
sg10
S'i41'
p337
sg12
S'i40'
p338
sg13
Nsg14
(lp339
(i__main__
Token
p340
(dp341
g18
I175
sbasg23
I175
sba(i__main__
Mention
p342
(dp343
g7
S't3'
p344
sg9
S'Coreference-Identity'
p345
sg10
S'i42'
p346
sg12
S'i41'
p347
sg13
Nsg14
(lp348
(i__main__
Token
p349
(dp350
g18
I190
sbasg23
I190
sbasg7
g293
sg69
Nsba(i__main__
Chain
p351
(dp352
g3
(lp353
(i__main__
Mention
p354
(dp355
g7
S't4'
p356
sg9
S'anaphora-?'
p357
sg10
S'i25'
p358
sg12
S'i25'
p359
sg13
Nsg14
(lp360
(i__main__
Token
p361
(dp362
g18
I103
sbasg23
I103
sbasg7
g356
sg69
Nsba(i__main__
Chain
p363
(dp364
g3
(lp365
(i__main__
Mention
p366
(dp367
g7
S't5'
p368
sg9
Nsg10
S'i31'
p369
sg12
Nsg13
Nsg14
(lp370
(i__main__
Token
p371
(dp372
g18
I131
sba(i__main__
Token
p373
(dp374
g18
I132
sbasg23
I132
sba(i__main__
Mention
p375
(dp376
g7
S't5'
p377
sg9
S'Coreference-NounComplement'
p378
sg10
S'i32'
p379
sg12
S'i31'
p380
sg13
Nsg14
(lp381
(i__main__
Token
p382
(dp383
g18
I133
sba(i__main__
Token
p384
(dp385
g18
I134
sbasg23
I134
sbasg7
g368
sg69
Nsba(i__main__
Chain
p386
(dp387
g3
(lp388
(i__main__
Mention
p389
(dp390
g7
S't6'
p391
sg9
Nsg10
S'i35'
p392
sg12
Nsg13
Nsg14
(lp393
(i__main__
Token
p394
(dp395
g18
I143
sba(i__main__
Token
p396
(dp397
g18
I144
sba(i__main__
Token
p398
(dp399
g18
I145
sba(i__main__
Token
p400
(dp401
g18
I146
sba(i__main__
Token
p402
(dp403
g18
I147
sba(i__main__
Token
p404
(dp405
g18
I148
sba(i__main__
Token
p406
(dp407
g18
I149
sba(i__main__
Token
p408
(dp409
g18
I150
sbasg23
I150
sba(i__main__
Mention
p410
(dp411
g7
S't6'
p412
sg9
S'Anaphora-E'
p413
sg10
S'i36'
p414
sg12
S'i35'
p415
sg13
Nsg14
(lp416
(i__main__
Token
p417
(dp418
g18
I152
sbasg23
I152
sbasg7
g391
sg69
Nsba.