(lp0
(i__main__
Chain
p1
(dp2
S'mentionList'
p3
(lp4
(i__main__
Mention
p5
(dp6
S'chainId'
p7
S't1'
p8
sS'relType'
p9
NsS'mentionId'
p10
S'i1'
p11
sS'antecedentId'
p12
NsS'crefMod'
p13
NsS'tokenList'
p14
(lp15
(i__main__
Token
p16
(dp17
S'tokenId'
p18
I0
sbasS'mentionHead'
p19
I0
sba(i__main__
Mention
p20
(dp21
g7
S't1'
p22
sg9
S'Coreference-Identity'
p23
sg10
S'i9'
p24
sg12
S'i1'
p25
sg13
Nsg14
(lp26
(i__main__
Token
p27
(dp28
g18
I45
sbasg19
I45
sba(i__main__
Mention
p29
(dp30
g7
S't1'
p31
sg9
S'Anaphora-C'
p32
sg10
S'i14'
p33
sg12
S'i9'
p34
sg13
Nsg14
(lp35
(i__main__
Token
p36
(dp37
g18
I99
sbasg19
I99
sba(i__main__
Mention
p38
(dp39
g7
S't1'
p40
sg9
S'Coreference-Identity'
p41
sg10
S'i26'
p42
sg12
S'i14'
p43
sg13
Nsg14
(lp44
(i__main__
Token
p45
(dp46
g18
I179
sbasg19
I179
sba(i__main__
Mention
p47
(dp48
g7
S't1'
p49
sg9
S'Anaphora-C'
p50
sg10
S'i27'
p51
sg12
S'i26'
p52
sg13
Nsg14
(lp53
(i__main__
Token
p54
(dp55
g18
I184
sbasg19
I184
sbasg7
g8
sS'chainHead'
p56
Nsba(i__main__
Chain
p57
(dp58
g3
(lp59
(i__main__
Mention
p60
(dp61
g7
S't2'
p62
sg9
Nsg10
S'i2'
p63
sg12
Nsg13
Nsg14
(lp64
(i__main__
Token
p65
(dp66
g18
I9
sba(i__main__
Token
p67
(dp68
g18
I10
sba(i__main__
Token
p69
(dp70
g18
I11
sbasg19
I11
sba(i__main__
Mention
p71
(dp72
g7
S't2'
p73
sg9
S'Coreference-Identity'
p74
sg10
S'i4'
p75
sg12
S'i2'
p76
sg13
Nsg14
(lp77
(i__main__
Token
p78
(dp79
g18
I30
sbasg19
I30
sba(i__main__
Mention
p80
(dp81
g7
S't2'
p82
sg9
S'Coreference-Identity'
p83
sg10
S'i29'
p84
sg12
S'i4'
p85
sg13
Nsg14
(lp86
(i__main__
Token
p87
(dp88
g18
I194
sba(i__main__
Token
p89
(dp90
g18
I195
sbasg19
I195
sba(i__main__
Mention
p91
(dp92
g7
S't2'
p93
sg9
S'Coreference-Identity'
p94
sg10
S'i31'
p95
sg12
S'i29'
p96
sg13
Nsg14
(lp97
(i__main__
Token
p98
(dp99
g18
I213
sbasg19
I213
sba(i__main__
Mention
p100
(dp101
g7
S't2'
p102
sg9
S'Coreference-Identity'
p103
sg10
S'i38'
p104
sg12
S'i31'
p105
sg13
Nsg14
(lp106
(i__main__
Token
p107
(dp108
g18
I265
sbasg19
I265
sbasg7
g62
sg56
Nsba(i__main__
Chain
p109
(dp110
g3
(lp111
(i__main__
Mention
p112
(dp113
g7
S't3'
p114
sg9
Nsg10
S'i3'
p115
sg12
Nsg13
Nsg14
(lp116
(i__main__
Token
p117
(dp118
g18
I13
sbasg19
I13
sba(i__main__
Mention
p119
(dp120
g7
S't3'
p121
sg9
S'Coreference-Identity'
p122
sg10
S'i8'
p123
sg12
S'i3'
p124
sg13
Nsg14
(lp125
(i__main__
Token
p126
(dp127
g18
I43
sba(i__main__
Token
p128
(dp129
g18
I44
sbasg19
I44
sba(i__main__
Mention
p130
(dp131
g7
S't3'
p132
sg9
S'Coreference-Identity'
p133
sg10
S'i25'
p134
sg12
S'i8'
p135
sg13
Nsg14
(lp136
(i__main__
Token
p137
(dp138
g18
I173
sba(i__main__
Token
p139
(dp140
g18
I174
sbasg19
I174
sbasg7
g114
sg56
Nsba(i__main__
Chain
p141
(dp142
g3
(lp143
(i__main__
Mention
p144
(dp145
g7
S't4'
p146
sg9
Nsg10
S'i5'
p147
sg12
Nsg13
Nsg14
(lp148
(i__main__
Token
p149
(dp150
g18
I33
sbasg19
I33
sba(i__main__
Mention
p151
(dp152
g7
S't4'
p153
sg9
S'Coreference-Identity'
p154
sg10
S'i28'
p155
sg12
S'i5'
p156
sg13
Nsg14
(lp157
(i__main__
Token
p158
(dp159
g18
I191
sbasg19
I191
sbasg7
g146
sg56
Nsba(i__main__
Chain
p160
(dp161
g3
(lp162
(i__main__
Mention
p163
(dp164
g7
S't5'
p165
sg9
Nsg10
S'i6'
p166
sg12
Nsg13
Nsg14
(lp167
(i__main__
Token
p168
(dp169
g18
I38
sbasg19
I38
sba(i__main__
Mention
p170
(dp171
g7
S't5'
p172
sg9
S'Coreference-Identity'
p173
sg10
S'i20'
p174
sg12
S'i6'
p175
sg13
Nsg14
(lp176
(i__main__
Token
p177
(dp178
g18
I158
sbasg19
I158
sba(i__main__
Mention
p179
(dp180
g7
S't5'
p181
sg9
S'Coreference-Identity'
p182
sg10
S'i30'
p183
sg12
S'i20'
p184
sg13
Nsg14
(lp185
(i__main__
Token
p186
(dp187
g18
I203
sbasg19
I203
sba(i__main__
Mention
p188
(dp189
g7
S't5'
p190
sg9
S'Coreference-Identity'
p191
sg10
S'i35'
p192
sg12
S'i30'
p193
sg13
Nsg14
(lp194
(i__main__
Token
p195
(dp196
g18
I245
sbasg19
I245
sbasg7
g165
sg56
Nsba(i__main__
Chain
p197
(dp198
g3
(lp199
(i__main__
Mention
p200
(dp201
g7
S't6'
p202
sg9
Nsg10
S'i7'
p203
sg12
Nsg13
Nsg14
(lp204
(i__main__
Token
p205
(dp206
g18
I40
sbasg19
I40
sba(i__main__
Mention
p207
(dp208
g7
S't6'
p209
sg9
S'Coreference-Identity'
p210
sg10
S'i21'
p211
sg12
S'i7'
p212
sg13
Nsg14
(lp213
(i__main__
Token
p214
(dp215
g18
I160
sbasg19
I160
sbasg7
g202
sg56
Nsba(i__main__
Chain
p216
(dp217
g3
(lp218
(i__main__
Mention
p219
(dp220
g7
S't7'
p221
sg9
Nsg10
S'i10'
p222
sg12
Nsg13
Nsg14
(lp223
(i__main__
Token
p224
(dp225
g18
I64
sbasg19
I64
sbasg7
g221
sg56
Nsba(i__main__
Chain
p226
(dp227
g3
(lp228
(i__main__
Mention
p229
(dp230
g7
S't8'
p231
sg9
Nsg10
S'i11'
p232
sg12
Nsg13
Nsg14
(lp233
(i__main__
Token
p234
(dp235
g18
I79
sbasg19
I79
sba(i__main__
Mention
p236
(dp237
g7
S't8'
p238
sg9
S'Coreference-Identity'
p239
sg10
S'i32'
p240
sg12
S'i11'
p241
sg13
Nsg14
(lp242
(i__main__
Token
p243
(dp244
g18
I228
sbasg19
I228
sbasg7
g231
sg56
Nsba(i__main__
Chain
p245
(dp246
g3
(lp247
(i__main__
Mention
p248
(dp249
g7
S't9'
p250
sg9
Nsg10
S'i12'
p251
sg12
Nsg13
Nsg14
(lp252
(i__main__
Token
p253
(dp254
g18
I93
sba(i__main__
Token
p255
(dp256
g18
I94
sba(i__main__
Token
p257
(dp258
g18
I95
sbasg19
I95
sba(i__main__
Mention
p259
(dp260
g7
S't9'
p261
sg9
S'Coreference-Bracketed/Abbraviation'
p262
sg10
S'i13'
p263
sg12
S'i26'
p264
sg13
Nsg14
(lp265
(i__main__
Token
p266
(dp267
g18
I97
sbasg19
I97
sbasg7
g250
sg56
Nsba(i__main__
Chain
p268
(dp269
g3
(lp270
(i__main__
Mention
p271
(dp272
g7
S't10'
p273
sg9
Nsg10
S'i15'
p274
sg12
Nsg13
Nsg14
(lp275
(i__main__
Token
p276
(dp277
g18
I113
sbasg19
I113
sba(i__main__
Mention
p278
(dp279
g7
S't10'
p280
sg9
S'Coreference-NounComplement'
p281
sg10
S'i16'
p282
sg12
S'i15'
p283
sg13
Nsg14
(lp284
(i__main__
Token
p285
(dp286
g18
I114
sba(i__main__
Token
p287
(dp288
g18
I115
sbasg19
I115
sba(i__main__
Mention
p289
(dp290
g7
S't10'
p291
sg9
S'Coreference-Identity'
p292
sg10
S'i39'
p293
sg12
S'i16'
p294
sg13
Nsg14
(lp295
(i__main__
Token
p296
(dp297
g18
I274
sbasg19
I274
sbasg7
g273
sg56
Nsba(i__main__
Chain
p298
(dp299
g3
(lp300
(i__main__
Mention
p301
(dp302
g7
S't11'
p303
sg9
Nsg10
S'i17'
p304
sg12
Nsg13
Nsg14
(lp305
(i__main__
Token
p306
(dp307
g18
I134
sbasg19
I134
sba(i__main__
Mention
p308
(dp309
g7
S't11'
p310
sg9
S'Coreference-Identity'
p311
sg10
S'i19'
p312
sg12
S'i17'
p313
sg13
Nsg14
(lp314
(i__main__
Token
p315
(dp316
g18
I153
sbasg19
I153
sba(i__main__
Mention
p317
(dp318
g7
S't11'
p319
sg9
S'Coreference-Identity'
p320
sg10
S'i33'
p321
sg12
S'i19'
p322
sg13
Nsg14
(lp323
(i__main__
Token
p324
(dp325
g18
I237
sbasg19
I237
sba(i__main__
Mention
p326
(dp327
g7
S't11'
p328
sg9
S'Anaphora-C'
p329
sg10
S'i34'
p330
sg12
S'i33'
p331
sg13
Nsg14
(lp332
(i__main__
Token
p333
(dp334
g18
I243
sbasg19
I243
sba(i__main__
Mention
p335
(dp336
g7
S't11'
p337
sg9
S'Coreference-Identity'
p338
sg10
S'i36'
p339
sg12
S'i34'
p340
sg13
Nsg14
(lp341
(i__main__
Token
p342
(dp343
g18
I255
sbasg19
I255
sba(i__main__
Mention
p344
(dp345
g7
S't11'
p346
sg9
S'Coreference-Identity'
p347
sg10
S'i40'
p348
sg12
S'i36'
p349
sg13
Nsg14
(lp350
(i__main__
Token
p351
(dp352
g18
I279
sbasg19
I279
sba(i__main__
Mention
p353
(dp354
g7
S't11'
p355
sg9
S'Coreference-Identity'
p356
sg10
S'i46'
p357
sg12
S'i40'
p358
sg13
Nsg14
(lp359
(i__main__
Token
p360
(dp361
g18
I310
sbasg19
I310
sba(i__main__
Mention
p362
(dp363
g7
S't11'
p364
sg9
S'Coreference-Identity'
p365
sg10
S'i48'
p366
sg12
S'i46'
p367
sg13
Nsg14
(lp368
(i__main__
Token
p369
(dp370
g18
I320
sbasg19
I320
sbasg7
g303
sg56
Nsba(i__main__
Chain
p371
(dp372
g3
(lp373
(i__main__
Mention
p374
(dp375
g7
S't12'
p376
sg9
Nsg10
S'i18'
p377
sg12
Nsg13
Nsg14
(lp378
(i__main__
Token
p379
(dp380
g18
I136
sbasg19
I136
sba(i__main__
Mention
p381
(dp382
g7
S't12'
p383
sg9
S'Coreference-Identity'
p384
sg10
S'i37'
p385
sg12
S'i18'
p386
sg13
Nsg14
(lp387
(i__main__
Token
p388
(dp389
g18
I257
sbasg19
I257
sba(i__main__
Mention
p390
(dp391
g7
S't12'
p392
sg9
S'Coreference-Identity'
p393
sg10
S'i42'
p394
sg12
S'i37'
p395
sg13
Nsg14
(lp396
(i__main__
Token
p397
(dp398
g18
I300
sbasg19
I300
sba(i__main__
Mention
p399
(dp400
g7
S't12'
p401
sg9
S'Anaphora-C'
p402
sg10
S'i50'
p403
sg12
S'i42'
p404
sg13
Nsg14
(lp405
(i__main__
Token
p406
(dp407
g18
I334
sbasg19
I334
sbasg7
g376
sg56
Nsba(i__main__
Chain
p408
(dp409
g3
(lp410
(i__main__
Mention
p411
(dp412
g7
S't13'
p413
sg9
Nsg10
S'i22'
p414
sg12
Nsg13
Nsg14
(lp415
(i__main__
Token
p416
(dp417
g18
I162
sbasg19
I162
sba(i__main__
Mention
p418
(dp419
g7
S't13'
p420
sg9
S'Coreference-NounComplement'
p421
sg10
S'i23'
p422
sg12
S'i22'
p423
sg13
Nsg14
(lp424
(i__main__
Token
p425
(dp426
g18
I163
sbasg19
I163
sba(i__main__
Mention
p427
(dp428
g7
S't13'
p429
sg9
S'Anaphora-C'
p430
sg10
S'i24'
p431
sg12
S'i23'
p432
sg13
Nsg14
(lp433
(i__main__
Token
p434
(dp435
g18
I171
sbasg19
I171
sbasg7
g413
sg56
Nsba(i__main__
Chain
p436
(dp437
g3
(lp438
(i__main__
Mention
p439
(dp440
g7
S't14'
p441
sg9
Nsg10
S'i41'
p442
sg12
Nsg13
Nsg14
(lp443
(i__main__
Token
p444
(dp445
g18
I289
sba(i__main__
Token
p446
(dp447
g18
I290
sba(i__main__
Token
p448
(dp449
g18
I291
sba(i__main__
Token
p450
(dp451
g18
I292
sba(i__main__
Token
p452
(dp453
g18
I293
sba(i__main__
Token
p454
(dp455
g18
I294
sba(i__main__
Token
p456
(dp457
g18
I295
sba(i__main__
Token
p458
(dp459
g18
I296
sba(i__main__
Token
p460
(dp461
g18
I297
sba(i__main__
Token
p462
(dp463
g18
I298
sbasg19
I297
sba(i__main__
Mention
p464
(dp465
g7
S't14'
p466
sg9
S'Anaphora-E'
p467
sg10
S'i44'
p468
sg12
S'i41'
p469
sg13
Nsg14
(lp470
(i__main__
Token
p471
(dp472
g18
I302
sbasg19
I302
sbasg7
g441
sg56
Nsba(i__main__
Chain
p473
(dp474
g3
(lp475
(i__main__
Mention
p476
(dp477
g7
S't15'
p478
sg9
Nsg10
S'i43'
p479
sg12
Nsg13
Nsg14
(lp480
(i__main__
Token
p481
(dp482
g18
I300
sba(i__main__
Token
p483
(dp484
g18
I301
sba(i__main__
Token
p485
(dp486
g18
I302
sba(i__main__
Token
p487
(dp488
g18
I303
sba(i__main__
Token
p489
(dp490
g18
I304
sba(i__main__
Token
p491
(dp492
g18
I305
sba(i__main__
Token
p493
(dp494
g18
I306
sbasg19
I306
sba(i__main__
Mention
p495
(dp496
g7
S't15'
p497
sg9
S'Anaphora-E'
p498
sg10
S'i45'
p499
sg12
S'i43'
p500
sg13
Nsg14
(lp501
(i__main__
Token
p502
(dp503
g18
I308
sbasg19
I308
sbasg7
g478
sg56
Nsba(i__main__
Chain
p504
(dp505
g3
(lp506
(i__main__
Mention
p507
(dp508
g7
S't16'
p509
sg9
Nsg10
S'i47'
p510
sg12
Nsg13
Nsg14
(lp511
(i__main__
Token
p512
(dp513
g18
I319
sbasg19
I319
sba(i__main__
Mention
p514
(dp515
g7
S't16'
p516
sg9
S'Anaphora-RT'
p517
sg10
S'i49'
p518
sg12
S'i47'
p519
sg13
Nsg14
(lp520
(i__main__
Token
p521
(dp522
g18
I320
sba(i__main__
Token
p523
(dp524
g18
I321
sba(i__main__
Token
p525
(dp526
g18
I322
sba(i__main__
Token
p527
(dp528
g18
I323
sbasg19
I321
sbasg7
g509
sg56
Nsba.