(lp0
(i__main__
Chain
p1
(dp2
S'mentionList'
p3
(lp4
(i__main__
Mention
p5
(dp6
S'chainId'
p7
S't1'
p8
sS'relType'
p9
NsS'mentionId'
p10
S'i1'
p11
sS'antecedentId'
p12
NsS'crefMod'
p13
NsS'tokenList'
p14
(lp15
(i__main__
Token
p16
(dp17
S'tokenId'
p18
I0
sbasS'mentionHead'
p19
I0
sba(i__main__
Mention
p20
(dp21
g7
S't1'
p22
sg9
S'Coreference-Identity'
p23
sg10
S'i14'
p24
sg12
S'i1'
p25
sg13
Nsg14
(lp26
(i__main__
Token
p27
(dp28
g18
I52
sbasg19
I52
sba(i__main__
Mention
p29
(dp30
g7
S't1'
p31
sg9
S'Coreference-InferedRelation'
p32
sg10
S'i22'
p33
sg12
S'i14'
p34
sg13
Nsg14
(lp35
(i__main__
Token
p36
(dp37
g18
I103
sbasg19
I103
sba(i__main__
Mention
p38
(dp39
g7
S't1'
p40
sg9
S'Coreference-Noun-Noun'
p41
sg10
S'i23'
p42
sg12
S'i22'
p43
sg13
Nsg14
(lp44
(i__main__
Token
p45
(dp46
g18
I114
sbasg19
I114
sbasg7
g8
sS'chainHead'
p47
Nsba(i__main__
Chain
p48
(dp49
g3
(lp50
(i__main__
Mention
p51
(dp52
g7
S't2'
p53
sg9
Nsg10
S'i2'
p54
sg12
Nsg13
Nsg14
(lp55
(i__main__
Token
p56
(dp57
g18
I0
sba(i__main__
Token
p58
(dp59
g18
I1
sbasg19
I1
sba(i__main__
Mention
p60
(dp61
g7
S't2'
p62
sg9
S'Coreference-Identity'
p63
sg10
S'i7'
p64
sg12
S'i2'
p65
sg13
Nsg14
(lp66
(i__main__
Token
p67
(dp68
g18
I21
sbasg19
I21
sba(i__main__
Mention
p69
(dp70
g7
S't2'
p71
sg9
S'Coreference-Identity'
p72
sg10
S'i15'
p73
sg12
S'i7'
p74
sg13
Nsg14
(lp75
(i__main__
Token
p76
(dp77
g18
I65
sbasg19
I65
sbasg7
g53
sg47
Nsba(i__main__
Chain
p78
(dp79
g3
(lp80
(i__main__
Mention
p81
(dp82
g7
S't3'
p83
sg9
Nsg10
S'i3'
p84
sg12
Nsg13
Nsg14
(lp85
(i__main__
Token
p86
(dp87
g18
I3
sba(i__main__
Token
p88
(dp89
g18
I4
sba(i__main__
Token
p90
(dp91
g18
I5
sba(i__main__
Token
p92
(dp93
g18
I6
sba(i__main__
Token
p94
(dp95
g18
I7
sbasg19
I7
sba(i__main__
Mention
p96
(dp97
g7
S't3'
p98
sg9
S'Coreference-Identity'
p99
sg10
S'i12'
p100
sg12
S'i3'
p101
sg13
Nsg14
(lp102
(i__main__
Token
p103
(dp104
g18
I40
sbasg19
I40
sba(i__main__
Mention
p105
(dp106
g7
S't3'
p107
sg9
S'Coreference-Identity'
p108
sg10
S'i17'
p109
sg12
S'i12'
p110
sg13
Nsg14
(lp111
(i__main__
Token
p112
(dp113
g18
I67
sba(i__main__
Token
p114
(dp115
g18
I68
sba(i__main__
Token
p116
(dp117
g18
I69
sba(i__main__
Token
p118
(dp119
g18
I70
sba(i__main__
Token
p120
(dp121
g18
I71
sbasg19
I71
sba(i__main__
Mention
p122
(dp123
g7
S't3'
p124
sg9
S'Coreference-Identity'
p125
sg10
S'i18'
p126
sg12
S'i17'
p127
sg13
Nsg14
(lp128
(i__main__
Token
p129
(dp130
g18
I83
sbasg19
I83
sba(i__main__
Mention
p131
(dp132
g7
S't3'
p133
sg9
S'Coreference-Noun-Noun'
p134
sg10
S'i21'
p135
sg12
S'i18'
p136
sg13
Nsg14
(lp137
(i__main__
Token
p138
(dp139
g18
I97
sbasg19
I97
sba(i__main__
Mention
p140
(dp141
g7
S't3'
p142
sg9
S'Coreference-Noun-Noun'
p143
sg10
S'i24'
p144
sg12
S'i21'
p145
sg13
Nsg14
(lp146
(i__main__
Token
p147
(dp148
g18
I119
sbasg19
I119
sbasg7
g83
sg47
Nsba(i__main__
Chain
p149
(dp150
g3
(lp151
(i__main__
Mention
p152
(dp153
g7
S't4'
p154
sg9
Nsg10
S'i4'
p155
sg12
Nsg13
Nsg14
(lp156
(i__main__
Token
p157
(dp158
g18
I3
sbasg19
I3
sba(i__main__
Mention
p159
(dp160
g7
S't4'
p161
sg9
S'Coreference-Identity'
p162
sg10
S'i5'
p163
sg12
S'i4'
p164
sg13
Nsg14
(lp165
(i__main__
Token
p166
(dp167
g18
I14
sbasg19
I14
sba(i__main__
Mention
p168
(dp169
g7
S't4'
p170
sg9
S'Coreference-Identity'
p171
sg10
S'i9'
p172
sg12
S'i5'
p173
sg13
Nsg14
(lp174
(i__main__
Token
p175
(dp176
g18
I23
sbasg19
I23
sba(i__main__
Mention
p177
(dp178
g7
S't4'
p179
sg9
S'Coreference-Identity'
p180
sg10
S'i13'
p181
sg12
S'i9'
p182
sg13
Nsg14
(lp183
(i__main__
Token
p184
(dp185
g18
I44
sbasg19
I44
sba(i__main__
Mention
p186
(dp187
g7
S't4'
p188
sg9
S'Coreference-Identity'
p189
sg10
S'i16'
p190
sg12
S'i13'
p191
sg13
Nsg14
(lp192
(i__main__
Token
p193
(dp194
g18
I67
sbasg19
I67
sbasg7
g154
sg47
Nsba(i__main__
Chain
p195
(dp196
g3
(lp197
(i__main__
Mention
p198
(dp199
g7
S't5'
p200
sg9
Nsg10
S'i6'
p201
sg12
Nsg13
Nsg14
(lp202
(i__main__
Token
p203
(dp204
g18
I16
sbasg19
I16
sba(i__main__
Mention
p205
(dp206
g7
S't5'
p207
sg9
S'Coreference-Identity'
p208
sg10
S'i10'
p209
sg12
S'i6'
p210
sg13
Nsg14
(lp211
(i__main__
Token
p212
(dp213
g18
I25
sbasg19
I25
sbasg7
g200
sg47
Nsba(i__main__
Chain
p214
(dp215
g3
(lp216
(i__main__
Mention
p217
(dp218
g7
S't6'
p219
sg9
Nsg10
S'i8'
p220
sg12
Nsg13
Nsg14
(lp221
(i__main__
Token
p222
(dp223
g18
I21
sba(i__main__
Token
p224
(dp225
g18
I22
sba(i__main__
Token
p226
(dp227
g18
I23
sba(i__main__
Token
p228
(dp229
g18
I24
sba(i__main__
Token
p230
(dp231
g18
I25
sba(i__main__
Token
p232
(dp233
g18
I26
sba(i__main__
Token
p234
(dp235
g18
I27
sba(i__main__
Token
p236
(dp237
g18
I28
sba(i__main__
Token
p238
(dp239
g18
I29
sba(i__main__
Token
p240
(dp241
g18
I30
sba(i__main__
Token
p242
(dp243
g18
I31
sba(i__main__
Token
p244
(dp245
g18
I32
sba(i__main__
Token
p246
(dp247
g18
I33
sba(i__main__
Token
p248
(dp249
g18
I34
sbasg19
I32
sba(i__main__
Mention
p250
(dp251
g7
S't6'
p252
sg9
S'Anaphora-E'
p253
sg10
S'i11'
p254
sg12
S'i8'
p255
sg13
Nsg14
(lp256
(i__main__
Token
p257
(dp258
g18
I36
sbasg19
I36
sbasg7
g219
sg47
Nsba(i__main__
Chain
p259
(dp260
g3
(lp261
(i__main__
Mention
p262
(dp263
g7
S't7'
p264
sg9
Nsg10
S'i19'
p265
sg12
Nsg13
Nsg14
(lp266
(i__main__
Token
p267
(dp268
g18
I83
sba(i__main__
Token
p269
(dp270
g18
I84
sba(i__main__
Token
p271
(dp272
g18
I85
sba(i__main__
Token
p273
(dp274
g18
I86
sba(i__main__
Token
p275
(dp276
g18
I87
sba(i__main__
Token
p277
(dp278
g18
I88
sba(i__main__
Token
p279
(dp280
g18
I89
sba(i__main__
Token
p281
(dp282
g18
I90
sba(i__main__
Token
p283
(dp284
g18
I91
sba(i__main__
Token
p285
(dp286
g18
I92
sbasg19
I92
sba(i__main__
Mention
p287
(dp288
g7
S't7'
p289
sg9
S'anaphora-E'
p290
sg10
S'i20'
p291
sg12
S'i19'
p292
sg13
Nsg14
(lp293
(i__main__
Token
p294
(dp295
g18
I95
sbasg19
I95
sbasg7
g264
sg47
Nsba.