(lp0
(i__main__
Chain
p1
(dp2
S'mentionList'
p3
(lp4
(i__main__
Mention
p5
(dp6
S'chainId'
p7
S't1'
p8
sS'relType'
p9
NsS'mentionId'
p10
S'i1'
p11
sS'antecedentId'
p12
NsS'crefMod'
p13
NsS'tokenList'
p14
(lp15
(i__main__
Token
p16
(dp17
S'tokenId'
p18
I0
sbasS'mentionHead'
p19
I0
sba(i__main__
Mention
p20
(dp21
g7
S't1'
p22
sg9
S'Anaphora-RC'
p23
sg10
S'i3'
p24
sg12
S'i1'
p25
sg13
Nsg14
(lp26
(i__main__
Token
p27
(dp28
g18
I20
sbasg19
I20
sba(i__main__
Mention
p29
(dp30
g7
S't1'
p31
sg9
S'Coreference-NounComplement'
p32
sg10
S'i4'
p33
sg12
S'i3'
p34
sg13
Nsg14
(lp35
(i__main__
Token
p36
(dp37
g18
I21
sba(i__main__
Token
p38
(dp39
g18
I22
sbasg19
I22
sba(i__main__
Mention
p40
(dp41
g7
S't1'
p42
sg9
S'Coreference-Noun-Noun'
p43
sg10
S'i9'
p44
sg12
S'i4'
p45
sg13
Nsg14
(lp46
(i__main__
Token
p47
(dp48
g18
I59
sbasg19
I59
sba(i__main__
Mention
p49
(dp50
g7
S't1'
p51
sg9
S'Anaphora-C'
p52
sg10
S'i12'
p53
sg12
S'i9'
p54
sg13
Nsg14
(lp55
(i__main__
Token
p56
(dp57
g18
I82
sbasg19
I82
sba(i__main__
Mention
p58
(dp59
g7
S't1'
p60
sg9
S'Anaphora-C'
p61
sg10
S'i13'
p62
sg12
S'i12'
p63
sg13
Nsg14
(lp64
(i__main__
Token
p65
(dp66
g18
I91
sbasg19
I91
sba(i__main__
Mention
p67
(dp68
g7
S't1'
p69
sg9
S'Coreference-Identity'
p70
sg10
S'i20'
p71
sg12
S'i13'
p72
sg13
Nsg14
(lp73
(i__main__
Token
p74
(dp75
g18
I118
sbasg19
I118
sba(i__main__
Mention
p76
(dp77
g7
S't1'
p78
sg9
S'Coreference-Identity'
p79
sg10
S'i30'
p80
sg12
S'i20'
p81
sg13
Nsg14
(lp82
(i__main__
Token
p83
(dp84
g18
I168
sbasg19
I168
sba(i__main__
Mention
p85
(dp86
g7
S't1'
p87
sg9
S'Anaphora-C'
p88
sg10
S'i32'
p89
sg12
S'i30'
p90
sg13
Nsg14
(lp91
(i__main__
Token
p92
(dp93
g18
I181
sbasg19
I181
sbasg7
g8
sS'chainHead'
p94
Nsba(i__main__
Chain
p95
(dp96
g3
(lp97
(i__main__
Mention
p98
(dp99
g7
S't2'
p100
sg9
Nsg10
S'i5'
p101
sg12
Nsg13
Nsg14
(lp102
(i__main__
Token
p103
(dp104
g18
I24
sba(i__main__
Token
p105
(dp106
g18
I25
sba(i__main__
Token
p107
(dp108
g18
I26
sba(i__main__
Token
p109
(dp110
g18
I27
sbasg19
I27
sba(i__main__
Mention
p111
(dp112
g7
S't2'
p113
sg9
S'Coreference-Identity'
p114
sg10
S'i21'
p115
sg12
S'i5'
p116
sg13
Nsg14
(lp117
(i__main__
Token
p118
(dp119
g18
I126
sbasg19
I126
sbasg7
g100
sg94
Nsba(i__main__
Chain
p120
(dp121
g3
(lp122
(i__main__
Mention
p123
(dp124
g7
S't3'
p125
sg9
Nsg10
S'i6'
p126
sg12
Nsg13
Nsg14
(lp127
(i__main__
Token
p128
(dp129
g18
I29
sba(i__main__
Token
p130
(dp131
g18
I30
sba(i__main__
Token
p132
(dp133
g18
I31
sbasg19
I31
sba(i__main__
Mention
p134
(dp135
g7
S't3'
p136
sg9
S'Coreference-Identity'
p137
sg10
S'i45'
p138
sg12
S'i6'
p139
sg13
Nsg14
(lp140
(i__main__
Token
p141
(dp142
g18
I251
sba(i__main__
Token
p143
(dp144
g18
I252
sba(i__main__
Token
p145
(dp146
g18
I253
sbasg19
I253
sba(i__main__
Mention
p147
(dp148
g7
S't3'
p149
sg9
S'Anaphora-C'
p150
sg10
S'i46'
p151
sg12
S'i45'
p152
sg13
Nsg14
(lp153
(i__main__
Token
p154
(dp155
g18
I261
sbasg19
I261
sbasg7
g125
sg94
Nsba(i__main__
Chain
p156
(dp157
g3
(lp158
(i__main__
Mention
p159
(dp160
g7
S't4'
p161
sg9
Nsg10
S'i7'
p162
sg12
Nsg13
Nsg14
(lp163
(i__main__
Token
p164
(dp165
g18
I33
sba(i__main__
Token
p166
(dp167
g18
I34
sba(i__main__
Token
p168
(dp169
g18
I35
sba(i__main__
Token
p170
(dp171
g18
I36
sbasg19
I36
sba(i__main__
Mention
p172
(dp173
g7
S't4'
p174
sg9
S'Coreference-Identity'
p175
sg10
S'i8'
p176
sg12
S'i7'
p177
sg13
Nsg14
(lp178
(i__main__
Token
p179
(dp180
g18
I43
sba(i__main__
Token
p181
(dp182
g18
I44
sbasg19
I44
sba(i__main__
Mention
p183
(dp184
g7
S't4'
p185
sg9
S'Coreference-Identity'
p186
sg10
S'i23'
p187
sg12
S'i8'
p188
sg13
Nsg14
(lp189
(i__main__
Token
p190
(dp191
g18
I131
sba(i__main__
Token
p192
(dp193
g18
I132
sba(i__main__
Token
p194
(dp195
g18
I133
sbasg19
I133
sba(i__main__
Mention
p196
(dp197
g7
S't4'
p198
sg9
S'Coreference-Identity'
p199
sg10
S'i35'
p200
sg12
S'i23'
p201
sg13
Nsg14
(lp202
(i__main__
Token
p203
(dp204
g18
I188
sba(i__main__
Token
p205
(dp206
g18
I189
sba(i__main__
Token
p207
(dp208
g18
I190
sba(i__main__
Token
p209
(dp210
g18
I191
sbasg19
I191
sba(i__main__
Mention
p211
(dp212
g7
S't4'
p213
sg9
S'Coreference-Identity'
p214
sg10
S'i41'
p215
sg12
S'i35'
p216
sg13
Nsg14
(lp217
(i__main__
Token
p218
(dp219
g18
I212
sba(i__main__
Token
p220
(dp221
g18
I213
sbasg19
I213
sba(i__main__
Mention
p222
(dp223
g7
S't4'
p224
sg9
S'Coreference-Identity'
p225
sg10
S'i47'
p226
sg12
S'i41'
p227
sg13
Nsg14
(lp228
(i__main__
Token
p229
(dp230
g18
I262
sba(i__main__
Token
p231
(dp232
g18
I263
sbasg19
I263
sbasg7
g161
sg94
Nsba(i__main__
Chain
p233
(dp234
g3
(lp235
(i__main__
Mention
p236
(dp237
g7
S't5'
p238
sg9
Nsg10
S'i10'
p239
sg12
Nsg13
Nsg14
(lp240
(i__main__
Token
p241
(dp242
g18
I64
sba(i__main__
Token
p243
(dp244
g18
I65
sba(i__main__
Token
p245
(dp246
g18
I66
sba(i__main__
Token
p247
(dp248
g18
I67
sba(i__main__
Token
p249
(dp250
g18
I68
sbasg19
I68
sba(i__main__
Mention
p251
(dp252
g7
S't5'
p253
sg9
S'Coreference-Identity'
p254
sg10
S'i16'
p255
sg12
S'i10'
p256
sg13
Nsg14
(lp257
(i__main__
Token
p258
(dp259
g18
I103
sbasg19
I103
sbasg7
g238
sg94
Nsba(i__main__
Chain
p260
(dp261
g3
(lp262
(i__main__
Mention
p263
(dp264
g7
S't6'
p265
sg9
Nsg10
S'i11'
p266
sg12
Nsg13
Nsg14
(lp267
(i__main__
Token
p268
(dp269
g18
I76
sba(i__main__
Token
p270
(dp271
g18
I77
sba(i__main__
Token
p272
(dp273
g18
I78
sbasg19
I78
sba(i__main__
Mention
p274
(dp275
g7
S't6'
p276
sg9
S'Coreference-Noun-Noun'
p277
sg10
S'i14'
p278
sg12
S'i11'
p279
sg13
Nsg14
(lp280
(i__main__
Token
p281
(dp282
g18
I92
sba(i__main__
Token
p283
(dp284
g18
I93
sba(i__main__
Token
p285
(dp286
g18
I94
sba(i__main__
Token
p287
(dp288
g18
I95
sba(i__main__
Token
p289
(dp290
g18
I96
sba(i__main__
Token
p291
(dp292
g18
I97
sba(i__main__
Token
p293
(dp294
g18
I98
sba(i__main__
Token
p295
(dp296
g18
I99
sba(i__main__
Token
p297
(dp298
g18
I100
sba(i__main__
Token
p299
(dp300
g18
I101
sba(i__main__
Token
p301
(dp302
g18
I102
sba(i__main__
Token
p303
(dp304
g18
I103
sba(i__main__
Token
p305
(dp306
g18
I104
sba(i__main__
Token
p307
(dp308
g18
I105
sbasg19
I105
sbasg7
g265
sg94
Nsba(i__main__
Chain
p309
(dp310
g3
(lp311
(i__main__
Mention
p312
(dp313
g7
S't7'
p314
sg9
Nsg10
S'i15'
p315
sg12
Nsg13
Nsg14
(lp316
(i__main__
Token
p317
(dp318
g18
I93
sbasg19
I93
sba(i__main__
Mention
p319
(dp320
g7
S't7'
p321
sg9
S'Coreference-Identity'
p322
sg10
S'i19'
p323
sg12
S'i15'
p324
sg13
Nsg14
(lp325
(i__main__
Token
p326
(dp327
g18
I113
sbasg19
I113
sbasg7
g314
sg94
Nsba(i__main__
Chain
p328
(dp329
g3
(lp330
(i__main__
Mention
p331
(dp332
g7
S't8'
p333
sg9
Nsg10
S'i17'
p334
sg12
Nsg13
Nsg14
(lp335
(i__main__
Token
p336
(dp337
g18
I107
sba(i__main__
Token
p338
(dp339
g18
I108
sba(i__main__
Token
p340
(dp341
g18
I109
sbasg19
I109
sba(i__main__
Mention
p342
(dp343
g7
S't8'
p344
sg9
S'Coreference-NounComplement'
p345
sg10
S'i18'
p346
sg12
S'i17'
p347
sg13
Nsg14
(lp348
(i__main__
Token
p349
(dp350
g18
I110
sba(i__main__
Token
p351
(dp352
g18
I111
sbasg19
I111
sba(i__main__
Mention
p353
(dp354
g7
S't8'
p355
sg9
S'Coreference-Noun-Noun'
p356
sg10
S'i29'
p357
sg12
S'i18'
p358
sg13
Nsg14
(lp359
(i__main__
Token
p360
(dp361
g18
I162
sbasg19
I162
sba(i__main__
Mention
p362
(dp363
g7
S't8'
p364
sg9
S'Anaphora-C'
p365
sg10
S'i34'
p366
sg12
S'i29'
p367
sg13
Nsg14
(lp368
(i__main__
Token
p369
(dp370
g18
I187
sbasg19
I187
sba(i__main__
Mention
p371
(dp372
g7
S't8'
p373
sg9
S'Anaphora-C'
p374
sg10
S'i37'
p375
sg12
S'i34'
p376
sg13
Nsg14
(lp377
(i__main__
Token
p378
(dp379
g18
I205
sbasg19
I205
sba(i__main__
Mention
p380
(dp381
g7
S't8'
p382
sg9
S'Coreference-Noun-Noun'
p383
sg10
S'i44'
p384
sg12
S'i37'
p385
sg13
Nsg14
(lp386
(i__main__
Token
p387
(dp388
g18
I246
sbasg19
I246
sbasg7
g333
sg94
Nsba(i__main__
Chain
p389
(dp390
g3
(lp391
(i__main__
Mention
p392
(dp393
g7
S't9'
p394
sg9
Nsg10
S'i22'
p395
sg12
Nsg13
Nsg14
(lp396
(i__main__
Token
p397
(dp398
g18
I128
sba(i__main__
Token
p399
(dp400
g18
I129
sbasg19
I129
sba(i__main__
Mention
p401
(dp402
g7
S't9'
p403
sg9
S'Anaphora-C'
p404
sg10
S'i24'
p405
sg12
S'i22'
p406
sg13
Nsg14
(lp407
(i__main__
Token
p408
(dp409
g18
I135
sbasg19
I135
sba(i__main__
Mention
p410
(dp411
g7
S't9'
p412
sg9
S'Anaphora-RC'
p413
sg10
S'i26'
p414
sg12
S'i24'
p415
sg13
Nsg14
(lp416
(i__main__
Token
p417
(dp418
g18
I141
sbasg19
I141
sba(i__main__
Mention
p419
(dp420
g7
S't9'
p421
sg9
S'Coreference-Identity'
p422
sg10
S'i27'
p423
sg12
S'i26'
p424
sg13
Nsg14
(lp425
(i__main__
Token
p426
(dp427
g18
I144
sba(i__main__
Token
p428
(dp429
g18
I145
sbasg19
I145
sba(i__main__
Mention
p430
(dp431
g7
S't9'
p432
sg9
S'Coreference-Noun-Noun'
p433
sg10
S'i36'
p434
sg12
S'i27'
p435
sg13
Nsg14
(lp436
(i__main__
Token
p437
(dp438
g18
I195
sba(i__main__
Token
p439
(dp440
g18
I196
sbasg19
I196
sba(i__main__
Mention
p441
(dp442
g7
S't9'
p443
sg9
S'Coreference-Noun-Noun'
p444
sg10
S'i39'
p445
sg12
S'i36'
p446
sg13
Nsg14
(lp447
(i__main__
Token
p448
(dp449
g18
I210
sbasg19
I210
sbasg7
g394
sg94
Nsba(i__main__
Chain
p450
(dp451
g3
(lp452
(i__main__
Mention
p453
(dp454
g7
S't10'
p455
sg9
Nsg10
S'i25'
p456
sg12
Nsg13
Nsg14
(lp457
(i__main__
Token
p458
(dp459
g18
I137
sbasg19
I137
sba(i__main__
Mention
p460
(dp461
g7
S't10'
p462
sg9
S'Coreference-Identity'
p463
sg10
S'i28'
p464
sg12
S'i25'
p465
sg13
Nsg14
(lp466
(i__main__
Token
p467
(dp468
g18
I147
sbasg19
I147
sba(i__main__
Mention
p469
(dp470
g7
S't10'
p471
sg9
S'Coreference-Noun-Noun'
p472
sg10
S'i42'
p473
sg12
S'i28'
p474
sg13
Nsg14
(lp475
(i__main__
Token
p476
(dp477
g18
I235
sba(i__main__
Token
p478
(dp479
g18
I236
sbasg19
I236
sbasg7
g455
sg94
Nsba(i__main__
Chain
p480
(dp481
g3
(lp482
(i__main__
Mention
p483
(dp484
g7
S't11'
p485
sg9
Nsg10
S'i31'
p486
sg12
Nsg13
Nsg14
(lp487
(i__main__
Token
p488
(dp489
g18
I168
sba(i__main__
Token
p490
(dp491
g18
I169
sba(i__main__
Token
p492
(dp493
g18
I170
sba(i__main__
Token
p494
(dp495
g18
I171
sba(i__main__
Token
p496
(dp497
g18
I172
sba(i__main__
Token
p498
(dp499
g18
I173
sba(i__main__
Token
p500
(dp501
g18
I174
sba(i__main__
Token
p502
(dp503
g18
I175
sba(i__main__
Token
p504
(dp505
g18
I176
sba(i__main__
Token
p506
(dp507
g18
I177
sba(i__main__
Token
p508
(dp509
g18
I178
sba(i__main__
Token
p510
(dp511
g18
I179
sba(i__main__
Token
p512
(dp513
g18
I180
sba(i__main__
Token
p514
(dp515
g18
I181
sba(i__main__
Token
p516
(dp517
g18
I182
sba(i__main__
Token
p518
(dp519
g18
I183
sba(i__main__
Token
p520
(dp521
g18
I184
sbasg19
I184
sba(i__main__
Mention
p522
(dp523
g7
S't11'
p524
sg9
S'Anaphora-C'
p525
sg10
S'i33'
p526
sg12
S'i31'
p527
sg13
Nsg14
(lp528
(i__main__
Token
p529
(dp530
g18
I186
sbasg19
I186
sbasg7
g485
sg94
Nsba(i__main__
Chain
p531
(dp532
g3
(lp533
(i__main__
Mention
p534
(dp535
g7
S't12'
p536
sg9
S'anaphora-?'
p537
sg10
S'i38'
p538
sg12
S'i38'
p539
sg13
Nsg14
(lp540
(i__main__
Token
p541
(dp542
g18
I206
sbasg19
I206
sba(i__main__
Mention
p543
(dp544
g7
S't12'
p545
sg9
S'Anaphora-RC'
p546
sg10
S'i40'
p547
sg12
S'i38'
p548
sg13
Nsg14
(lp549
(i__main__
Token
p550
(dp551
g18
I210
sba(i__main__
Token
p552
(dp553
g18
I211
sba(i__main__
Token
p554
(dp555
g18
I212
sba(i__main__
Token
p556
(dp557
g18
I213
sba(i__main__
Token
p558
(dp559
g18
I214
sba(i__main__
Token
p560
(dp561
g18
I215
sba(i__main__
Token
p562
(dp563
g18
I216
sba(i__main__
Token
p564
(dp565
g18
I217
sba(i__main__
Token
p566
(dp567
g18
I218
sba(i__main__
Token
p568
(dp569
g18
I219
sba(i__main__
Token
p570
(dp571
g18
I220
sba(i__main__
Token
p572
(dp573
g18
I221
sba(i__main__
Token
p574
(dp575
g18
I222
sba(i__main__
Token
p576
(dp577
g18
I223
sba(i__main__
Token
p578
(dp579
g18
I224
sba(i__main__
Token
p580
(dp581
g18
I225
sba(i__main__
Token
p582
(dp583
g18
I226
sba(i__main__
Token
p584
(dp585
g18
I227
sba(i__main__
Token
p586
(dp587
g18
I228
sba(i__main__
Token
p588
(dp589
g18
I229
sba(i__main__
Token
p590
(dp591
g18
I230
sba(i__main__
Token
p592
(dp593
g18
I231
sba(i__main__
Token
p594
(dp595
g18
I232
sba(i__main__
Token
p596
(dp597
g18
I233
sba(i__main__
Token
p598
(dp599
g18
I234
sba(i__main__
Token
p600
(dp601
g18
I235
sba(i__main__
Token
p602
(dp603
g18
I236
sba(i__main__
Token
p604
(dp605
g18
I237
sba(i__main__
Token
p606
(dp607
g18
I238
sba(i__main__
Token
p608
(dp609
g18
I239
sba(i__main__
Token
p610
(dp611
g18
I240
sba(i__main__
Token
p612
(dp613
g18
I241
sba(i__main__
Token
p614
(dp615
g18
I242
sba(i__main__
Token
p616
(dp617
g18
I243
sba(i__main__
Token
p618
(dp619
g18
I244
sbasg19
I243
sbasg7
g536
sg94
Nsba(i__main__
Chain
p620
(dp621
g3
(lp622
(i__main__
Mention
p623
(dp624
g7
S't13'
p625
sg9
S'anaphora-?'
p626
sg10
S'i43'
p627
sg12
S'i43'
p628
sg13
Nsg14
(lp629
(i__main__
Token
p630
(dp631
g18
I238
sbasg19
I238
sbasg7
g625
sg94
Nsba.