(lp0
(i__main__
Chain
p1
(dp2
S'mentionList'
p3
(lp4
(i__main__
Mention
p5
(dp6
S'chainId'
p7
S't1'
p8
sS'relType'
p9
NsS'mentionId'
p10
S'i1'
p11
sS'antecedentId'
p12
NsS'crefMod'
p13
NsS'tokenList'
p14
(lp15
(i__main__
Token
p16
(dp17
S'tokenId'
p18
I26
sba(i__main__
Token
p19
(dp20
g18
I27
sbasS'mentionHead'
p21
I27
sba(i__main__
Mention
p22
(dp23
g7
S't1'
p24
sg9
S'Anaphora-C'
p25
sg10
S'i2'
p26
sg12
S'i1'
p27
sg13
Nsg14
(lp28
(i__main__
Token
p29
(dp30
g18
I37
sbasg21
I37
sba(i__main__
Mention
p31
(dp32
g7
S't1'
p33
sg9
S'Coreference-Identity'
p34
sg10
S'i41'
p35
sg12
S'i2'
p36
sg13
Nsg14
(lp37
(i__main__
Token
p38
(dp39
g18
I231
sba(i__main__
Token
p40
(dp41
g18
I232
sbasg21
I232
sba(i__main__
Mention
p42
(dp43
g7
S't1'
p44
sg9
S'Anaphora-C'
p45
sg10
S'i46'
p46
sg12
S'i41'
p47
sg13
Nsg14
(lp48
(i__main__
Token
p49
(dp50
g18
I299
sbasg21
I299
sbasg7
g8
sS'chainHead'
p51
Nsba(i__main__
Chain
p52
(dp53
g3
(lp54
(i__main__
Mention
p55
(dp56
g7
S't2'
p57
sg9
Nsg10
S'i3'
p58
sg12
Nsg13
Nsg14
(lp59
(i__main__
Token
p60
(dp61
g18
I38
sba(i__main__
Token
p62
(dp63
g18
I39
sbasg21
I39
sba(i__main__
Mention
p64
(dp65
g7
S't2'
p66
sg9
S'Coreference-Identity'
p67
sg10
S'i16'
p68
sg12
S'i3'
p69
sg13
Nsg14
(lp70
(i__main__
Token
p71
(dp72
g18
I139
sba(i__main__
Token
p73
(dp74
g18
I140
sbasg21
I140
sbasg7
g57
sg51
Nsba(i__main__
Chain
p75
(dp76
g3
(lp77
(i__main__
Mention
p78
(dp79
g7
S't3'
p80
sg9
Nsg10
S'i4'
p81
sg12
Nsg13
Nsg14
(lp82
(i__main__
Token
p83
(dp84
g18
I59
sba(i__main__
Token
p85
(dp86
g18
I60
sbasg21
I60
sba(i__main__
Mention
p87
(dp88
g7
S't3'
p89
sg9
S'Coreference-NounComplement'
p90
sg10
S'i5'
p91
sg12
S'i4'
p92
sg13
Nsg14
(lp93
(i__main__
Token
p94
(dp95
g18
I61
sba(i__main__
Token
p96
(dp97
g18
I62
sba(i__main__
Token
p98
(dp99
g18
I63
sba(i__main__
Token
p100
(dp101
g18
I64
sbasg21
I64
sba(i__main__
Mention
p102
(dp103
g7
S't3'
p104
sg9
S'Coreference-Noun-Noun'
p105
sg10
S'i39'
p106
sg12
S'i5'
p107
sg13
Nsg14
(lp108
(i__main__
Token
p109
(dp110
g18
I227
sba(i__main__
Token
p111
(dp112
g18
I228
sbasg21
I228
sba(i__main__
Mention
p113
(dp114
g7
S't3'
p115
sg9
S'Coreference-NounComplement'
p116
sg10
S'i40'
p117
sg12
S'i39'
p118
sg13
Nsg14
(lp119
(i__main__
Token
p120
(dp121
g18
I229
sbasg21
I229
sba(i__main__
Mention
p122
(dp123
g7
S't3'
p124
sg9
S'Coreference-Identity'
p125
sg10
S'i48'
p126
sg12
S'i40'
p127
sg13
Nsg14
(lp128
(i__main__
Token
p129
(dp130
g18
I308
sbasg21
I308
sbasg7
g80
sg51
Nsba(i__main__
Chain
p131
(dp132
g3
(lp133
(i__main__
Mention
p134
(dp135
g7
S't4'
p136
sg9
Nsg10
S'i6'
p137
sg12
Nsg13
Nsg14
(lp138
(i__main__
Token
p139
(dp140
g18
I75
sba(i__main__
Token
p141
(dp142
g18
I76
sba(i__main__
Token
p143
(dp144
g18
I77
sbasg21
I77
sba(i__main__
Mention
p145
(dp146
g7
S't4'
p147
sg9
S'Coreference-Identity'
p148
sg10
S'i15'
p149
sg12
S'i6'
p150
sg13
Nsg14
(lp151
(i__main__
Token
p152
(dp153
g18
I124
sba(i__main__
Token
p154
(dp155
g18
I125
sba(i__main__
Token
p156
(dp157
g18
I126
sbasg21
I126
sbasg7
g136
sg51
Nsba(i__main__
Chain
p158
(dp159
g3
(lp160
(i__main__
Mention
p161
(dp162
g7
S't5'
p163
sg9
Nsg10
S'i7'
p164
sg12
Nsg13
Nsg14
(lp165
(i__main__
Token
p166
(dp167
g18
I81
sba(i__main__
Token
p168
(dp169
g18
I82
sbasg21
I82
sba(i__main__
Mention
p170
(dp171
g7
S't5'
p172
sg9
S'Anaphora-C'
p173
sg10
S'i8'
p174
sg12
S'i7'
p175
sg13
Nsg14
(lp176
(i__main__
Token
p177
(dp178
g18
I85
sbasg21
I85
sbasg7
g163
sg51
Nsba(i__main__
Chain
p179
(dp180
g3
(lp181
(i__main__
Mention
p182
(dp183
g7
S't6'
p184
sg9
Nsg10
S'i9'
p185
sg12
Nsg13
Nsg14
(lp186
(i__main__
Token
p187
(dp188
g18
I97
sba(i__main__
Token
p189
(dp190
g18
I98
sba(i__main__
Token
p191
(dp192
g18
I99
sba(i__main__
Token
p193
(dp194
g18
I100
sba(i__main__
Token
p195
(dp196
g18
I101
sba(i__main__
Token
p197
(dp198
g18
I102
sba(i__main__
Token
p199
(dp200
g18
I103
sba(i__main__
Token
p201
(dp202
g18
I104
sba(i__main__
Token
p203
(dp204
g18
I105
sba(i__main__
Token
p205
(dp206
g18
I106
sba(i__main__
Token
p207
(dp208
g18
I107
sba(i__main__
Token
p209
(dp210
g18
I108
sba(i__main__
Token
p211
(dp212
g18
I109
sba(i__main__
Token
p213
(dp214
g18
I110
sba(i__main__
Token
p215
(dp216
g18
I111
sba(i__main__
Token
p217
(dp218
g18
I112
sba(i__main__
Token
p219
(dp220
g18
I113
sba(i__main__
Token
p221
(dp222
g18
I114
sba(i__main__
Token
p223
(dp224
g18
I115
sba(i__main__
Token
p225
(dp226
g18
I116
sba(i__main__
Token
p227
(dp228
g18
I117
sba(i__main__
Token
p229
(dp230
g18
I118
sba(i__main__
Token
p231
(dp232
g18
I119
sba(i__main__
Token
p233
(dp234
g18
I120
sbasg21
I110
sba(i__main__
Mention
p235
(dp236
g7
S't6'
p237
sg9
S'Anaphora-C'
p238
sg10
S'i14'
p239
sg12
S'i9'
p240
sg13
Nsg14
(lp241
(i__main__
Token
p242
(dp243
g18
I122
sbasg21
I122
sbasg7
g184
sg51
Nsba(i__main__
Chain
p244
(dp245
g3
(lp246
(i__main__
Mention
p247
(dp248
g7
S't7'
p249
sg9
Nsg10
S'i10'
p250
sg12
Nsg13
Nsg14
(lp251
(i__main__
Token
p252
(dp253
g18
I97
sba(i__main__
Token
p254
(dp255
g18
I98
sbasg21
I97
sba(i__main__
Mention
p256
(dp257
g7
S't7'
p258
sg9
S'Coreference-Identity'
p259
sg10
S'i12'
p260
sg12
S'i10'
p261
sg13
Nsg14
(lp262
(i__main__
Token
p263
(dp264
g18
I106
sbasg21
I106
sbasg7
g249
sg51
Nsba(i__main__
Chain
p265
(dp266
g3
(lp267
(i__main__
Mention
p268
(dp269
g7
S't8'
p270
sg9
Nsg10
S'i11'
p271
sg12
Nsg13
Nsg14
(lp272
(i__main__
Token
p273
(dp274
g18
I102
sba(i__main__
Token
p275
(dp276
g18
I103
sbasg21
I103
sba(i__main__
Mention
p277
(dp278
g7
S't8'
p279
sg9
S'Coreference-Identity'
p280
sg10
S'i13'
p281
sg12
S'i11'
p282
sg13
Nsg14
(lp283
(i__main__
Token
p284
(dp285
g18
I116
sba(i__main__
Token
p286
(dp287
g18
I117
sbasg21
I117
sbasg7
g270
sg51
Nsba(i__main__
Chain
p288
(dp289
g3
(lp290
(i__main__
Mention
p291
(dp292
g7
S't9'
p293
sg9
Nsg10
S'i17'
p294
sg12
Nsg13
Nsg14
(lp295
(i__main__
Token
p296
(dp297
g18
I145
sbasg21
I145
sba(i__main__
Mention
p298
(dp299
g7
S't9'
p300
sg9
S'Coreference-NounComplement'
p301
sg10
S'i18'
p302
sg12
S'i17'
p303
sg13
Nsg14
(lp304
(i__main__
Token
p305
(dp306
g18
I146
sba(i__main__
Token
p307
(dp308
g18
I147
sba(i__main__
Token
p309
(dp310
g18
I148
sba(i__main__
Token
p311
(dp312
g18
I149
sbasg21
I149
sbasg7
g293
sg51
Nsba(i__main__
Chain
p313
(dp314
g3
(lp315
(i__main__
Mention
p316
(dp317
g7
S't10'
p318
sg9
Nsg10
S'i19'
p319
sg12
Nsg13
Nsg14
(lp320
(i__main__
Token
p321
(dp322
g18
I157
sbasg21
I157
sba(i__main__
Mention
p323
(dp324
g7
S't10'
p325
sg9
S'Coreference-NounComplement'
p326
sg10
S'i20'
p327
sg12
S'i19'
p328
sg13
Nsg14
(lp329
(i__main__
Token
p330
(dp331
g18
I158
sba(i__main__
Token
p332
(dp333
g18
I159
sba(i__main__
Token
p334
(dp335
g18
I160
sbasg21
I160
sbasg7
g318
sg51
Nsba(i__main__
Chain
p336
(dp337
g3
(lp338
(i__main__
Mention
p339
(dp340
g7
S't11'
p341
sg9
Nsg10
S'i21'
p342
sg12
Nsg13
Nsg14
(lp343
(i__main__
Token
p344
(dp345
g18
I162
sbasg21
I162
sba(i__main__
Mention
p346
(dp347
g7
S't11'
p348
sg9
S'Coreference-NounComplement'
p349
sg10
S'i22'
p350
sg12
S'i21'
p351
sg13
Nsg14
(lp352
(i__main__
Token
p353
(dp354
g18
I163
sba(i__main__
Token
p355
(dp356
g18
I164
sbasg21
I164
sbasg7
g341
sg51
Nsba(i__main__
Chain
p357
(dp358
g3
(lp359
(i__main__
Mention
p360
(dp361
g7
S't12'
p362
sg9
Nsg10
S'i23'
p363
sg12
Nsg13
Nsg14
(lp364
(i__main__
Token
p365
(dp366
g18
I169
sba(i__main__
Token
p367
(dp368
g18
I170
sbasg21
I170
sba(i__main__
Mention
p369
(dp370
g7
S't12'
p371
sg9
S'Coreference-NounComplement'
p372
sg10
S'i24'
p373
sg12
S'i23'
p374
sg13
Nsg14
(lp375
(i__main__
Token
p376
(dp377
g18
I171
sba(i__main__
Token
p378
(dp379
g18
I172
sbasg21
I172
sbasg7
g362
sg51
Nsba(i__main__
Chain
p380
(dp381
g3
(lp382
(i__main__
Mention
p383
(dp384
g7
S't13'
p385
sg9
Nsg10
S'i25'
p386
sg12
Nsg13
Nsg14
(lp387
(i__main__
Token
p388
(dp389
g18
I174
sbasg21
I174
sba(i__main__
Mention
p390
(dp391
g7
S't13'
p392
sg9
S'Coreference-Identity'
p393
sg10
S'i43'
p394
sg12
S'i25'
p395
sg13
Nsg14
(lp396
(i__main__
Token
p397
(dp398
g18
I242
sbasg21
I242
sbasg7
g385
sg51
Nsba(i__main__
Chain
p399
(dp400
g3
(lp401
(i__main__
Mention
p402
(dp403
g7
S't14'
p404
sg9
Nsg10
S'i26'
p405
sg12
Nsg13
Nsg14
(lp406
(i__main__
Token
p407
(dp408
g18
I177
sba(i__main__
Token
p409
(dp410
g18
I178
sbasg21
I178
sba(i__main__
Mention
p411
(dp412
g7
S't14'
p413
sg9
S'Coreference-NounComplement'
p414
sg10
S'i27'
p415
sg12
S'i26'
p416
sg13
Nsg14
(lp417
(i__main__
Token
p418
(dp419
g18
I179
sba(i__main__
Token
p420
(dp421
g18
I180
sba(i__main__
Token
p422
(dp423
g18
I181
sbasg21
I181
sbasg7
g404
sg51
Nsba(i__main__
Chain
p424
(dp425
g3
(lp426
(i__main__
Mention
p427
(dp428
g7
S't15'
p429
sg9
Nsg10
S'i28'
p430
sg12
Nsg13
Nsg14
(lp431
(i__main__
Token
p432
(dp433
g18
I183
sbasg21
I183
sba(i__main__
Mention
p434
(dp435
g7
S't15'
p436
sg9
S'Coreference-NounComplement'
p437
sg10
S'i29'
p438
sg12
S'i28'
p439
sg13
Nsg14
(lp440
(i__main__
Token
p441
(dp442
g18
I184
sba(i__main__
Token
p443
(dp444
g18
I185
sba(i__main__
Token
p445
(dp446
g18
I186
sbasg21
I186
sbasg7
g429
sg51
Nsba(i__main__
Chain
p447
(dp448
g3
(lp449
(i__main__
Mention
p450
(dp451
g7
S't16'
p452
sg9
Nsg10
S'i30'
p453
sg12
Nsg13
Nsg14
(lp454
(i__main__
Token
p455
(dp456
g18
I193
sbasg21
I193
sba(i__main__
Mention
p457
(dp458
g7
S't16'
p459
sg9
S'Coreference-NounComplement'
p460
sg10
S'i31'
p461
sg12
S'i30'
p462
sg13
Nsg14
(lp463
(i__main__
Token
p464
(dp465
g18
I194
sba(i__main__
Token
p466
(dp467
g18
I195
sba(i__main__
Token
p468
(dp469
g18
I196
sba(i__main__
Token
p470
(dp471
g18
I197
sbasg21
I197
sbasg7
g452
sg51
Nsba(i__main__
Chain
p472
(dp473
g3
(lp474
(i__main__
Mention
p475
(dp476
g7
S't17'
p477
sg9
Nsg10
S'i32'
p478
sg12
Nsg13
Nsg14
(lp479
(i__main__
Token
p480
(dp481
g18
I199
sba(i__main__
Token
p482
(dp483
g18
I200
sbasg21
I200
sba(i__main__
Mention
p484
(dp485
g7
S't17'
p486
sg9
S'Coreference-NounComplement'
p487
sg10
S'i33'
p488
sg12
S'i32'
p489
sg13
Nsg14
(lp490
(i__main__
Token
p491
(dp492
g18
I201
sba(i__main__
Token
p493
(dp494
g18
I202
sba(i__main__
Token
p495
(dp496
g18
I203
sbasg21
I203
sbasg7
g477
sg51
Nsba(i__main__
Chain
p497
(dp498
g3
(lp499
(i__main__
Mention
p500
(dp501
g7
S't18'
p502
sg9
Nsg10
S'i34'
p503
sg12
Nsg13
Nsg14
(lp504
(i__main__
Token
p505
(dp506
g18
I208
sbasg21
I208
sba(i__main__
Mention
p507
(dp508
g7
S't18'
p509
sg9
S'Coreference-NounComplement'
p510
sg10
S'i35'
p511
sg12
S'i34'
p512
sg13
Nsg14
(lp513
(i__main__
Token
p514
(dp515
g18
I209
sba(i__main__
Token
p516
(dp517
g18
I210
sba(i__main__
Token
p518
(dp519
g18
I211
sbasg21
I211
sbasg7
g502
sg51
Nsba(i__main__
Chain
p520
(dp521
g3
(lp522
(i__main__
Mention
p523
(dp524
g7
S't19'
p525
sg9
Nsg10
S'i36'
p526
sg12
Nsg13
Nsg14
(lp527
(i__main__
Token
p528
(dp529
g18
I213
sba(i__main__
Token
p530
(dp531
g18
I214
sbasg21
I214
sba(i__main__
Mention
p532
(dp533
g7
S't19'
p534
sg9
S'Coreference-NounComplement'
p535
sg10
S'i37'
p536
sg12
S'i36'
p537
sg13
Nsg14
(lp538
(i__main__
Token
p539
(dp540
g18
I215
sba(i__main__
Token
p541
(dp542
g18
I216
sbasg21
I216
sbasg7
g525
sg51
Nsba(i__main__
Chain
p543
(dp544
g3
(lp545
(i__main__
Mention
p546
(dp547
g7
S't20'
p548
sg9
Nsg10
S'i38'
p549
sg12
Nsg13
Nsg14
(lp550
(i__main__
Token
p551
(dp552
g18
I223
sba(i__main__
Token
p553
(dp554
g18
I224
sba(i__main__
Token
p555
(dp556
g18
I225
sbasg21
I225
sba(i__main__
Mention
p557
(dp558
g7
S't20'
p559
sg9
S'Anaphora-C'
p560
sg10
S'i42'
p561
sg12
S'i38'
p562
sg13
Nsg14
(lp563
(i__main__
Token
p564
(dp565
g18
I234
sbasg21
I234
sbasg7
g548
sg51
Nsba(i__main__
Chain
p566
(dp567
g3
(lp568
(i__main__
Mention
p569
(dp570
g7
S't21'
p571
sg9
Nsg10
S'i44'
p572
sg12
Nsg13
Nsg14
(lp573
(i__main__
Token
p574
(dp575
g18
I276
sba(i__main__
Token
p576
(dp577
g18
I277
sbasg21
I277
sba(i__main__
Mention
p578
(dp579
g7
S't21'
p580
sg9
S'Coreference-Identity'
p581
sg10
S'i50'
p582
sg12
S'i44'
p583
sg13
Nsg14
(lp584
(i__main__
Token
p585
(dp586
g18
I317
sba(i__main__
Token
p587
(dp588
g18
I318
sbasg21
I318
sbasg7
g571
sg51
Nsba(i__main__
Chain
p589
(dp590
g3
(lp591
(i__main__
Mention
p592
(dp593
g7
S't22'
p594
sg9
Nsg10
S'i45'
p595
sg12
Nsg13
Nsg14
(lp596
(i__main__
Token
p597
(dp598
g18
I279
sba(i__main__
Token
p599
(dp600
g18
I280
sba(i__main__
Token
p601
(dp602
g18
I281
sbasg21
I281
sba(i__main__
Mention
p603
(dp604
g7
S't22'
p605
sg9
S'Coreference-Identity'
p606
sg10
S'i51'
p607
sg12
S'i45'
p608
sg13
Nsg14
(lp609
(i__main__
Token
p610
(dp611
g18
I323
sba(i__main__
Token
p612
(dp613
g18
I324
sbasg21
I324
sbasg7
g594
sg51
Nsba(i__main__
Chain
p614
(dp615
g3
(lp616
(i__main__
Mention
p617
(dp618
g7
S't23'
p619
sg9
Nsg10
S'i47'
p620
sg12
Nsg13
Nsg14
(lp621
(i__main__
Token
p622
(dp623
g18
I300
sbasg21
I300
sba(i__main__
Mention
p624
(dp625
g7
S't23'
p626
sg9
S'Anaphora-C'
p627
sg10
S'i49'
p628
sg12
S'i47'
p629
sg13
Nsg14
(lp630
(i__main__
Token
p631
(dp632
g18
I312
sbasg21
I312
sbasg7
g619
sg51
Nsba(i__main__
Chain
p633
(dp634
g3
(lp635
(i__main__
Mention
p636
(dp637
g7
S't24'
p638
sg9
Nsg10
S'i52'
p639
sg12
Nsg13
Nsg14
(lp640
(i__main__
Token
p641
(dp642
g18
I326
sba(i__main__
Token
p643
(dp644
g18
I327
sbasg21
Nsba(i__main__
Mention
p645
(dp646
g7
S't24'
p647
sg9
S'Coreference-NounComplement'
p648
sg10
S'i54'
p649
sg12
S'i52'
p650
sg13
Nsg14
(lp651
(i__main__
Token
p652
(dp653
g18
I328
sba(i__main__
Token
p654
(dp655
g18
I329
sba(i__main__
Token
p656
(dp657
g18
I330
sbasg21
I330
sbasg7
g638
sg51
Nsba(i__main__
Chain
p658
(dp659
g3
(lp660
(i__main__
Mention
p661
(dp662
g7
S't25'
p663
sg9
Nsg10
S'i53'
p664
sg12
Nsg13
Nsg14
(lp665
(i__main__
Token
p666
(dp667
g18
I326
sba(i__main__
Token
p668
(dp669
g18
I327
sbasg21
Nsba(i__main__
Mention
p670
(dp671
g7
S't25'
p672
sg9
S'Coreference-NounComplement'
p673
sg10
S'i55'
p674
sg12
S'i53'
p675
sg13
Nsg14
(lp676
(i__main__
Token
p677
(dp678
g18
I332
sba(i__main__
Token
p679
(dp680
g18
I333
sbasg21
I333
sbasg7
g663
sg51
Nsba.