(lp0
(i__main__
Chain
p1
(dp2
S'mentionList'
p3
(lp4
(i__main__
Mention
p5
(dp6
S'chainId'
p7
S't1'
p8
sS'relType'
p9
NsS'mentionId'
p10
S'i1'
p11
sS'antecedentId'
p12
NsS'crefMod'
p13
NsS'tokenList'
p14
(lp15
(i__main__
Token
p16
(dp17
S'tokenId'
p18
I0
sbasS'mentionHead'
p19
I0
sba(i__main__
Mention
p20
(dp21
g7
S't1'
p22
sg9
S'Coreference-Identity'
p23
sg10
S'i48'
p24
sg12
S'i1'
p25
sg13
Nsg14
(lp26
(i__main__
Token
p27
(dp28
g18
I190
sbasg19
I190
sbasg7
g8
sS'chainHead'
p29
Nsba(i__main__
Chain
p30
(dp31
g3
(lp32
(i__main__
Mention
p33
(dp34
g7
S't2'
p35
sg9
Nsg10
S'i2'
p36
sg12
Nsg13
Nsg14
(lp37
(i__main__
Token
p38
(dp39
g18
I2
sba(i__main__
Token
p40
(dp41
g18
I3
sbasg19
I3
sba(i__main__
Mention
p42
(dp43
g7
S't2'
p44
sg9
S'Coreference-NounComplement'
p45
sg10
S'i3'
p46
sg12
S'i2'
p47
sg13
Nsg14
(lp48
(i__main__
Token
p49
(dp50
g18
I4
sba(i__main__
Token
p51
(dp52
g18
I5
sbasg19
I5
sba(i__main__
Mention
p53
(dp54
g7
S't2'
p55
sg9
S'Anaphora-C'
p56
sg10
S'i8'
p57
sg12
S'i3'
p58
sg13
Nsg14
(lp59
(i__main__
Token
p60
(dp61
g18
I25
sbasg19
I25
sba(i__main__
Mention
p62
(dp63
g7
S't2'
p64
sg9
S'Coreference-Identity'
p65
sg10
S'i16'
p66
sg12
S'i8'
p67
sg13
Nsg14
(lp68
(i__main__
Token
p69
(dp70
g18
I54
sbasg19
I54
sba(i__main__
Mention
p71
(dp72
g7
S't2'
p73
sg9
Nsg10
S'i36'
p74
sg12
Nsg13
Nsg14
(lp75
(i__main__
Token
p76
(dp77
g18
I131
sba(i__main__
Token
p78
(dp79
g18
I132
sbasg19
Nsba(i__main__
Mention
p80
(dp81
g7
S't2'
p82
sg9
S'Coreference-PartOf'
p83
sg10
S'i41'
p84
sg12
S'i36'
p85
sg13
Nsg14
(lp86
(i__main__
Token
p87
(dp88
g18
I155
sbasg19
I155
sba(i__main__
Mention
p89
(dp90
g7
S't2'
p91
sg9
S'Anaphora-C'
p92
sg10
S'i43'
p93
sg12
S'i41'
p94
sg13
Nsg14
(lp95
(i__main__
Token
p96
(dp97
g18
I156
sbasg19
I156
sba(i__main__
Mention
p98
(dp99
g7
S't2'
p100
sg9
S'Anaphora-C'
p101
sg10
S'i45'
p102
sg12
S'i43'
p103
sg13
Nsg14
(lp104
(i__main__
Token
p105
(dp106
g18
I178
sbasg19
I178
sba(i__main__
Mention
p107
(dp108
g7
S't2'
p109
sg9
S'Anaphora-C'
p110
sg10
S'i47'
p111
sg12
S'i45'
p112
sg13
Nsg14
(lp113
(i__main__
Token
p114
(dp115
g18
I183
sbasg19
I183
sba(i__main__
Mention
p116
(dp117
g7
S't2'
p118
sg9
S'Coreference-Identity'
p119
sg10
S'i50'
p120
sg12
S'i47'
p121
sg13
Nsg14
(lp122
(i__main__
Token
p123
(dp124
g18
I197
sbasg19
I197
sba(i__main__
Mention
p125
(dp126
g7
S't2'
p127
sg9
S'Coreference-Identity'
p128
sg10
S'i57'
p129
sg12
S'i50'
p130
sg13
Nsg14
(lp131
(i__main__
Token
p132
(dp133
g18
I238
sbasg19
I238
sba(i__main__
Mention
p134
(dp135
g7
S't2'
p136
sg9
S'Anaphora-C'
p137
sg10
S'i60'
p138
sg12
S'i57'
p139
sg13
Nsg14
(lp140
(i__main__
Token
p141
(dp142
g18
I252
sbasg19
I252
sbasg7
g35
sg29
Nsba(i__main__
Chain
p143
(dp144
g3
(lp145
(i__main__
Mention
p146
(dp147
g7
S't3'
p148
sg9
Nsg10
S'i4'
p149
sg12
Nsg13
Nsg14
(lp150
(i__main__
Token
p151
(dp152
g18
I4
sba(i__main__
Token
p153
(dp154
g18
I5
sba(i__main__
Token
p155
(dp156
g18
I6
sba(i__main__
Token
p157
(dp158
g18
I7
sba(i__main__
Token
p159
(dp160
g18
I8
sba(i__main__
Token
p161
(dp162
g18
I9
sba(i__main__
Token
p163
(dp164
g18
I10
sba(i__main__
Token
p165
(dp166
g18
I11
sba(i__main__
Token
p167
(dp168
g18
I12
sba(i__main__
Token
p169
(dp170
g18
I13
sba(i__main__
Token
p171
(dp172
g18
I14
sba(i__main__
Token
p173
(dp174
g18
I15
sba(i__main__
Token
p175
(dp176
g18
I16
sba(i__main__
Token
p177
(dp178
g18
I17
sba(i__main__
Token
p179
(dp180
g18
I18
sba(i__main__
Token
p181
(dp182
g18
I19
sba(i__main__
Token
p183
(dp184
g18
I20
sba(i__main__
Token
p185
(dp186
g18
I21
sba(i__main__
Token
p187
(dp188
g18
I22
sba(i__main__
Token
p189
(dp190
g18
I23
sba(i__main__
Token
p191
(dp192
g18
I24
sba(i__main__
Token
p193
(dp194
g18
I25
sba(i__main__
Token
p195
(dp196
g18
I26
sba(i__main__
Token
p197
(dp198
g18
I27
sba(i__main__
Token
p199
(dp200
g18
I28
sba(i__main__
Token
p201
(dp202
g18
I29
sba(i__main__
Token
p203
(dp204
g18
I30
sba(i__main__
Token
p205
(dp206
g18
I31
sba(i__main__
Token
p207
(dp208
g18
I32
sba(i__main__
Token
p209
(dp210
g18
I33
sba(i__main__
Token
p211
(dp212
g18
I34
sba(i__main__
Token
p213
(dp214
g18
I35
sba(i__main__
Token
p215
(dp216
g18
I36
sbasg19
I34
sba(i__main__
Mention
p217
(dp218
g7
S't3'
p219
sg9
S'Anaphora-E'
p220
sg10
S'i15'
p221
sg12
S'i4'
p222
sg13
Nsg14
(lp223
(i__main__
Token
p224
(dp225
g18
I48
sbasg19
I48
sbasg7
g148
sg29
Nsba(i__main__
Chain
p226
(dp227
g3
(lp228
(i__main__
Mention
p229
(dp230
g7
S't4'
p231
sg9
Nsg10
S'i5'
p232
sg12
Nsg13
Nsg14
(lp233
(i__main__
Token
p234
(dp235
g18
I7
sbasg19
I7
sba(i__main__
Mention
p236
(dp237
g7
S't4'
p238
sg9
S'Coreference-Identity'
p239
sg10
S'i53'
p240
sg12
S'i5'
p241
sg13
Nsg14
(lp242
(i__main__
Token
p243
(dp244
g18
I220
sbasg19
I220
sbasg7
g231
sg29
Nsba(i__main__
Chain
p245
(dp246
g3
(lp247
(i__main__
Mention
p248
(dp249
g7
S't5'
p250
sg9
Nsg10
S'i6'
p251
sg12
Nsg13
Nsg14
(lp252
(i__main__
Token
p253
(dp254
g18
I9
sba(i__main__
Token
p255
(dp256
g18
I10
sbasg19
I10
sba(i__main__
Mention
p257
(dp258
g7
S't5'
p259
sg9
S'Coreference-Identity'
p260
sg10
S'i17'
p261
sg12
S'i6'
p262
sg13
Nsg14
(lp263
(i__main__
Token
p264
(dp265
g18
I56
sba(i__main__
Token
p266
(dp267
g18
I57
sbasg19
I57
sbasg7
g250
sg29
Nsba(i__main__
Chain
p268
(dp269
g3
(lp270
(i__main__
Mention
p271
(dp272
g7
S't6'
p273
sg9
Nsg10
S'i7'
p274
sg12
Nsg13
Nsg14
(lp275
(i__main__
Token
p276
(dp277
g18
I12
sbasg19
I12
sba(i__main__
Mention
p278
(dp279
g7
S't6'
p280
sg9
S'Coreference-Identity'
p281
sg10
S'i44'
p282
sg12
S'i7'
p283
sg13
Nsg14
(lp284
(i__main__
Token
p285
(dp286
g18
I157
sbasg19
I157
sbasg7
g273
sg29
Nsba(i__main__
Chain
p287
(dp288
g3
(lp289
(i__main__
Mention
p290
(dp291
g7
S't7'
p292
sg9
Nsg10
S'i9'
p293
sg12
Nsg13
Nsg14
(lp294
(i__main__
Token
p295
(dp296
g18
I27
sba(i__main__
Token
p297
(dp298
g18
I28
sba(i__main__
Token
p299
(dp300
g18
I29
sbasg19
Nsba(i__main__
Mention
p301
(dp302
g7
S't7'
p303
sg9
S'Coreference-PartOf'
p304
sg10
S'i20'
p305
sg12
S'i9'
p306
sg13
Nsg14
(lp307
(i__main__
Token
p308
(dp309
g18
I69
sba(i__main__
Token
p310
(dp311
g18
I70
sbasg19
I70
sba(i__main__
Mention
p312
(dp313
g7
S't7'
p314
sg9
S'Coreference-NounComplement'
p315
sg10
S'i21'
p316
sg12
S'i20'
p317
sg13
Nsg14
(lp318
(i__main__
Token
p319
(dp320
g18
I71
sba(i__main__
Token
p321
(dp322
g18
I72
sbasg19
I72
sba(i__main__
Mention
p323
(dp324
g7
S't7'
p325
sg9
Nsg10
S'i34'
p326
sg12
Nsg13
Nsg14
(lp327
(i__main__
Token
p328
(dp329
g18
I131
sba(i__main__
Token
p330
(dp331
g18
I132
sbasg19
Nsbasg7
g292
sg29
Nsba(i__main__
Chain
p332
(dp333
g3
(lp334
(i__main__
Mention
p335
(dp336
g7
S't8'
p337
sg9
Nsg10
S'i10'
p338
sg12
Nsg13
Nsg14
(lp339
(i__main__
Token
p340
(dp341
g18
I27
sba(i__main__
Token
p342
(dp343
g18
I28
sba(i__main__
Token
p344
(dp345
g18
I29
sbasg19
Nsba(i__main__
Mention
p346
(dp347
g7
S't8'
p348
sg9
S'Coreference-PartOf'
p349
sg10
S'i18'
p350
sg12
S'i10'
p351
sg13
Nsg14
(lp352
(i__main__
Token
p353
(dp354
g18
I59
sbasg19
I59
sba(i__main__
Mention
p355
(dp356
g7
S't8'
p357
sg9
S'Coreference-NounComplement'
p358
sg10
S'i19'
p359
sg12
S'i18'
p360
sg13
Nsg14
(lp361
(i__main__
Token
p362
(dp363
g18
I60
sba(i__main__
Token
p364
(dp365
g18
I61
sba(i__main__
Token
p366
(dp367
g18
I62
sbasg19
I62
sba(i__main__
Mention
p368
(dp369
g7
S't8'
p370
sg9
Nsg10
S'i35'
p371
sg12
Nsg13
Nsg14
(lp372
(i__main__
Token
p373
(dp374
g18
I131
sba(i__main__
Token
p375
(dp376
g18
I132
sbasg19
Nsbasg7
g337
sg29
Nsba(i__main__
Chain
p377
(dp378
g3
(lp379
(i__main__
Mention
p380
(dp381
g7
S't9'
p382
sg9
Nsg10
S'i11'
p383
sg12
Nsg13
Nsg14
(lp384
(i__main__
Token
p385
(dp386
g18
I27
sba(i__main__
Token
p387
(dp388
g18
I28
sba(i__main__
Token
p389
(dp390
g18
I29
sbasg19
Nsba(i__main__
Mention
p391
(dp392
g7
S't9'
p393
sg9
S'Coreference-PartOf'
p394
sg10
S'i22'
p395
sg12
S'i11'
p396
sg13
Nsg14
(lp397
(i__main__
Token
p398
(dp399
g18
I74
sba(i__main__
Token
p400
(dp401
g18
I75
sbasg19
I75
sba(i__main__
Mention
p402
(dp403
g7
S't9'
p404
sg9
Nsg10
S'i33'
p405
sg12
Nsg13
Nsg14
(lp406
(i__main__
Token
p407
(dp408
g18
I131
sba(i__main__
Token
p409
(dp410
g18
I132
sbasg19
Nsbasg7
g382
sg29
Nsba(i__main__
Chain
p411
(dp412
g3
(lp413
(i__main__
Mention
p414
(dp415
g7
S't10'
p416
sg9
Nsg10
S'i12'
p417
sg12
Nsg13
Nsg14
(lp418
(i__main__
Token
p419
(dp420
g18
I32
sbasg19
I32
sba(i__main__
Mention
p421
(dp422
g7
S't10'
p423
sg9
S'Coreference-Identity'
p424
sg10
S'i23'
p425
sg12
S'i12'
p426
sg13
Nsg14
(lp427
(i__main__
Token
p428
(dp429
g18
I82
sbasg19
I82
sbasg7
g416
sg29
Nsba(i__main__
Chain
p430
(dp431
g3
(lp432
(i__main__
Mention
p433
(dp434
g7
S't11'
p435
sg9
Nsg10
S'i13'
p436
sg12
Nsg13
Nsg14
(lp437
(i__main__
Token
p438
(dp439
g18
I38
sbasg19
I38
sba(i__main__
Mention
p440
(dp441
g7
S't11'
p442
sg9
S'Coreference-NounComplement'
p443
sg10
S'i14'
p444
sg12
S'i13'
p445
sg13
Nsg14
(lp446
(i__main__
Token
p447
(dp448
g18
I43
sba(i__main__
Token
p449
(dp450
g18
I44
sbasg19
I44
sba(i__main__
Mention
p451
(dp452
g7
S't11'
p453
sg9
S'Coreference-Identity'
p454
sg10
S'i24'
p455
sg12
S'i14'
p456
sg13
Nsg14
(lp457
(i__main__
Token
p458
(dp459
g18
I88
sbasg19
I88
sba(i__main__
Mention
p460
(dp461
g7
S't11'
p462
sg9
S'Anaphora-C'
p463
sg10
S'i37'
p464
sg12
S'i24'
p465
sg13
Nsg14
(lp466
(i__main__
Token
p467
(dp468
g18
I141
sbasg19
I141
sba(i__main__
Mention
p469
(dp470
g7
S't11'
p471
sg9
S'Coreference-Identity'
p472
sg10
S'i55'
p473
sg12
S'i37'
p474
sg13
Nsg14
(lp475
(i__main__
Token
p476
(dp477
g18
I227
sbasg19
I227
sba(i__main__
Mention
p478
(dp479
g7
S't11'
p480
sg9
S'Anaphora-C'
p481
sg10
S'i61'
p482
sg12
S'i55'
p483
sg13
Nsg14
(lp484
(i__main__
Token
p485
(dp486
g18
I259
sbasg19
I259
sbasg7
g435
sg29
Nsba(i__main__
Chain
p487
(dp488
g3
(lp489
(i__main__
Mention
p490
(dp491
g7
S't12'
p492
sg9
Nsg10
S'i25'
p493
sg12
Nsg13
Nsg14
(lp494
(i__main__
Token
p495
(dp496
g18
I92
sba(i__main__
Token
p497
(dp498
g18
I93
sba(i__main__
Token
p499
(dp500
g18
I94
sbasg19
I94
sba(i__main__
Mention
p501
(dp502
g7
S't12'
p503
sg9
S'Coreference-Abbreviation'
p504
sg10
S'i26'
p505
sg12
S'i25'
p506
sg13
Nsg14
(lp507
(i__main__
Token
p508
(dp509
g18
I96
sbasg19
I96
sbasg7
g492
sg29
Nsba(i__main__
Chain
p510
(dp511
g3
(lp512
(i__main__
Mention
p513
(dp514
g7
S't13'
p515
sg9
Nsg10
S'i27'
p516
sg12
Nsg13
Nsg14
(lp517
(i__main__
Token
p518
(dp519
g18
I99
sba(i__main__
Token
p520
(dp521
g18
I100
sbasg19
I100
sba(i__main__
Mention
p522
(dp523
g7
S't13'
p524
sg9
S'Coreference-Noun-Noun'
p525
sg10
S'i28'
p526
sg12
S'i27'
p527
sg13
Nsg14
(lp528
(i__main__
Token
p529
(dp530
g18
I102
sbasg19
I102
sbasg7
g515
sg29
Nsba(i__main__
Chain
p531
(dp532
g3
(lp533
(i__main__
Mention
p534
(dp535
g7
S't14'
p536
sg9
Nsg10
S'i29'
p537
sg12
Nsg13
Nsg14
(lp538
(i__main__
Token
p539
(dp540
g18
I107
sba(i__main__
Token
p541
(dp542
g18
I108
sbasg19
I108
sba(i__main__
Mention
p543
(dp544
g7
S't14'
p545
sg9
S'Coreference-Noun-Noun'
p546
sg10
S'i30'
p547
sg12
S'i29'
p548
sg13
Nsg14
(lp549
(i__main__
Token
p550
(dp551
g18
I110
sba(i__main__
Token
p552
(dp553
g18
I111
sbasg19
I111
sbasg7
g536
sg29
Nsba(i__main__
Chain
p554
(dp555
g3
(lp556
(i__main__
Mention
p557
(dp558
g7
S't15'
p559
sg9
Nsg10
S'i31'
p560
sg12
Nsg13
Nsg14
(lp561
(i__main__
Token
p562
(dp563
g18
I114
sbasg19
I114
sba(i__main__
Mention
p564
(dp565
g7
S't15'
p566
sg9
S'Coreference-Noun-Noun'
p567
sg10
S'i32'
p568
sg12
S'i31'
p569
sg13
Nsg14
(lp570
(i__main__
Token
p571
(dp572
g18
I116
sba(i__main__
Token
p573
(dp574
g18
I117
sba(i__main__
Token
p575
(dp576
g18
I118
sba(i__main__
Token
p577
(dp578
g18
I119
sba(i__main__
Token
p579
(dp580
g18
I120
sba(i__main__
Token
p581
(dp582
g18
I121
sba(i__main__
Token
p583
(dp584
g18
I122
sba(i__main__
Token
p585
(dp586
g18
I123
sba(i__main__
Token
p587
(dp588
g18
I124
sbasg19
I120
sbasg7
g559
sg29
Nsba(i__main__
Chain
p589
(dp590
g3
(lp591
(i__main__
Mention
p592
(dp593
g7
S't16'
p594
sg9
Nsg10
S'i38'
p595
sg12
Nsg13
Nsg14
(lp596
(i__main__
Token
p597
(dp598
g18
I142
sbasg19
I142
sba(i__main__
Mention
p599
(dp600
g7
S't16'
p601
sg9
Nsg10
S'i39'
p602
sg12
Nsg13
Nsg14
(lp603
(i__main__
Token
p604
(dp605
g18
I146
sba(i__main__
Token
p606
(dp607
g18
I147
sba(i__main__
Token
p608
(dp609
g18
I148
sba(i__main__
Token
p610
(dp611
g18
I149
sba(i__main__
Token
p612
(dp613
g18
I150
sba(i__main__
Token
p614
(dp615
g18
I151
sba(i__main__
Token
p616
(dp617
g18
I152
sba(i__main__
Token
p618
(dp619
g18
I153
sba(i__main__
Token
p620
(dp621
g18
I154
sba(i__main__
Token
p622
(dp623
g18
I155
sba(i__main__
Token
p624
(dp625
g18
I156
sba(i__main__
Token
p626
(dp627
g18
I157
sba(i__main__
Token
p628
(dp629
g18
I158
sba(i__main__
Token
p630
(dp631
g18
I159
sba(i__main__
Token
p632
(dp633
g18
I160
sba(i__main__
Token
p634
(dp635
g18
I161
sba(i__main__
Token
p636
(dp637
g18
I162
sba(i__main__
Token
p638
(dp639
g18
I163
sba(i__main__
Token
p640
(dp641
g18
I164
sba(i__main__
Token
p642
(dp643
g18
I165
sba(i__main__
Token
p644
(dp645
g18
I166
sba(i__main__
Token
p646
(dp647
g18
I167
sba(i__main__
Token
p648
(dp649
g18
I168
sba(i__main__
Token
p650
(dp651
g18
I169
sba(i__main__
Token
p652
(dp653
g18
I170
sba(i__main__
Token
p654
(dp655
g18
I171
sba(i__main__
Token
p656
(dp657
g18
I172
sba(i__main__
Token
p658
(dp659
g18
I173
sba(i__main__
Token
p660
(dp661
g18
I174
sba(i__main__
Token
p662
(dp663
g18
I175
sba(i__main__
Token
p664
(dp665
g18
I176
sba(i__main__
Token
p666
(dp667
g18
I177
sba(i__main__
Token
p668
(dp669
g18
I178
sba(i__main__
Token
p670
(dp671
g18
I179
sba(i__main__
Token
p672
(dp673
g18
I180
sba(i__main__
Token
p674
(dp675
g18
I181
sba(i__main__
Token
p676
(dp677
g18
I182
sba(i__main__
Token
p678
(dp679
g18
I183
sba(i__main__
Token
p680
(dp681
g18
I184
sba(i__main__
Token
p682
(dp683
g18
I185
sbasg19
Nsbasg7
g594
sg29
Nsba(i__main__
Chain
p684
(dp685
g3
(lp686
(i__main__
Mention
p687
(dp688
g7
S't17'
p689
sg9
Nsg10
S'i40'
p690
sg12
Nsg13
Nsg14
(lp691
(i__main__
Token
p692
(dp693
g18
I149
sba(i__main__
Token
p694
(dp695
g18
I150
sbasg19
I150
sba(i__main__
Mention
p696
(dp697
g7
S't17'
p698
sg9
Nsg10
S'i42'
p699
sg12
Nsg13
Nsg14
(lp700
(i__main__
Token
p701
(dp702
g18
I155
sba(i__main__
Token
p703
(dp704
g18
I156
sba(i__main__
Token
p705
(dp706
g18
I157
sba(i__main__
Token
p707
(dp708
g18
I158
sba(i__main__
Token
p709
(dp710
g18
I159
sba(i__main__
Token
p711
(dp712
g18
I160
sba(i__main__
Token
p713
(dp714
g18
I161
sba(i__main__
Token
p715
(dp716
g18
I162
sba(i__main__
Token
p717
(dp718
g18
I163
sba(i__main__
Token
p719
(dp720
g18
I164
sba(i__main__
Token
p721
(dp722
g18
I165
sba(i__main__
Token
p723
(dp724
g18
I166
sba(i__main__
Token
p725
(dp726
g18
I167
sba(i__main__
Token
p727
(dp728
g18
I168
sba(i__main__
Token
p729
(dp730
g18
I169
sba(i__main__
Token
p731
(dp732
g18
I170
sba(i__main__
Token
p733
(dp734
g18
I171
sba(i__main__
Token
p735
(dp736
g18
I172
sba(i__main__
Token
p737
(dp738
g18
I173
sba(i__main__
Token
p739
(dp740
g18
I174
sba(i__main__
Token
p741
(dp742
g18
I175
sba(i__main__
Token
p743
(dp744
g18
I176
sba(i__main__
Token
p745
(dp746
g18
I177
sba(i__main__
Token
p747
(dp748
g18
I178
sba(i__main__
Token
p749
(dp750
g18
I179
sba(i__main__
Token
p751
(dp752
g18
I180
sba(i__main__
Token
p753
(dp754
g18
I181
sba(i__main__
Token
p755
(dp756
g18
I182
sba(i__main__
Token
p757
(dp758
g18
I183
sba(i__main__
Token
p759
(dp760
g18
I184
sba(i__main__
Token
p761
(dp762
g18
I185
sbasg19
Nsbasg7
g689
sg29
Nsba(i__main__
Chain
p763
(dp764
g3
(lp765
(i__main__
Mention
p766
(dp767
g7
S't18'
p768
sg9
S'anaphora-?'
p769
sg10
S'i46'
p770
sg12
S'i46'
p771
sg13
Nsg14
(lp772
(i__main__
Token
p773
(dp774
g18
I180
sbasg19
I180
sbasg7
g768
sg29
Nsba(i__main__
Chain
p775
(dp776
g3
(lp777
(i__main__
Mention
p778
(dp779
g7
S't19'
p780
sg9
Nsg10
S'i49'
p781
sg12
Nsg13
Nsg14
(lp782
(i__main__
Token
p783
(dp784
g18
I192
sba(i__main__
Token
p785
(dp786
g18
I193
sbasg19
I193
sba(i__main__
Mention
p787
(dp788
g7
S't19'
p789
sg9
S'Coreference-Noun-Noun'
p790
sg10
S'i51'
p791
sg12
S'i49'
p792
sg13
Nsg14
(lp793
(i__main__
Token
p794
(dp795
g18
I206
sba(i__main__
Token
p796
(dp797
g18
I207
sbasg19
I207
sba(i__main__
Mention
p798
(dp799
g7
S't19'
p800
sg9
S'Coreference-Identity'
p801
sg10
S'i52'
p802
sg12
S'i51'
p803
sg13
Nsg14
(lp804
(i__main__
Token
p805
(dp806
g18
I216
sba(i__main__
Token
p807
(dp808
g18
I217
sbasg19
I217
sba(i__main__
Mention
p809
(dp810
g7
S't19'
p811
sg9
S'Coreference-Apposition'
p812
sg10
S'i54'
p813
sg12
S'i52'
p814
sg13
Nsg14
(lp815
(i__main__
Token
p816
(dp817
g18
I222
sbasg19
I222
sbasg7
g780
sg29
Nsba(i__main__
Chain
p818
(dp819
g3
(lp820
(i__main__
Mention
p821
(dp822
g7
S't20'
p823
sg9
Nsg10
S'i56'
p824
sg12
Nsg13
Nsg14
(lp825
(i__main__
Token
p826
(dp827
g18
I231
sbasg19
I231
sba(i__main__
Mention
p828
(dp829
g7
S't20'
p830
sg9
S'Anaphora-RE'
p831
sg10
S'i58'
p832
sg12
S'i56'
p833
sg13
Nsg14
(lp834
(i__main__
Token
p835
(dp836
g18
I238
sba(i__main__
Token
p837
(dp838
g18
I239
sba(i__main__
Token
p839
(dp840
g18
I240
sba(i__main__
Token
p841
(dp842
g18
I241
sba(i__main__
Token
p843
(dp844
g18
I242
sba(i__main__
Token
p845
(dp846
g18
I243
sba(i__main__
Token
p847
(dp848
g18
I244
sba(i__main__
Token
p849
(dp850
g18
I245
sba(i__main__
Token
p851
(dp852
g18
I246
sba(i__main__
Token
p853
(dp854
g18
I247
sba(i__main__
Token
p855
(dp856
g18
I248
sba(i__main__
Token
p857
(dp858
g18
I249
sba(i__main__
Token
p859
(dp860
g18
I250
sba(i__main__
Token
p861
(dp862
g18
I251
sba(i__main__
Token
p863
(dp864
g18
I252
sba(i__main__
Token
p865
(dp866
g18
I253
sba(i__main__
Token
p867
(dp868
g18
I254
sba(i__main__
Token
p869
(dp870
g18
I255
sba(i__main__
Token
p871
(dp872
g18
I256
sbasg19
I253
sbasg7
g823
sg29
Nsba(i__main__
Chain
p873
(dp874
g3
(lp875
(i__main__
Mention
p876
(dp877
g7
S't21'
p878
sg9
S'anaphora-?'
p879
sg10
S'i59'
p880
sg12
S'i59'
p881
sg13
Nsg14
(lp882
(i__main__
Token
p883
(dp884
g18
I251
sbasg19
I251
sbasg7
g878
sg29
Nsba.