(lp0
(i__main__
Chain
p1
(dp2
S'mentionList'
p3
(lp4
(i__main__
Mention
p5
(dp6
S'chainId'
p7
S't1'
p8
sS'relType'
p9
NsS'mentionId'
p10
S'i1'
p11
sS'antecedentId'
p12
NsS'crefMod'
p13
NsS'tokenList'
p14
(lp15
(i__main__
Token
p16
(dp17
S'tokenId'
p18
I5
sbasS'mentionHead'
p19
I5
sba(i__main__
Mention
p20
(dp21
g7
S't1'
p22
sg9
S'Coreference-Identity'
p23
sg10
S'i58'
p24
sg12
S'i1'
p25
sg13
Nsg14
(lp26
(i__main__
Token
p27
(dp28
g18
I295
sbasg19
I295
sba(i__main__
Mention
p29
(dp30
g7
S't1'
p31
sg9
S'Coreference-Identity'
p32
sg10
S'i60'
p33
sg12
S'i58'
p34
sg13
Nsg14
(lp35
(i__main__
Token
p36
(dp37
g18
I314
sbasg19
I314
sba(i__main__
Mention
p38
(dp39
g7
S't1'
p40
sg9
S'Coreference-RAbbreviation'
p41
sg10
S'i76'
p42
sg12
S'i60'
p43
sg13
Nsg14
(lp44
(i__main__
Token
p45
(dp46
g18
I413
sba(i__main__
Token
p47
(dp48
g18
I414
sba(i__main__
Token
p49
(dp50
g18
I415
sbasg19
I415
sbasg7
g8
sS'chainHead'
p51
Nsba(i__main__
Chain
p52
(dp53
g3
(lp54
(i__main__
Mention
p55
(dp56
g7
S't2'
p57
sg9
Nsg10
S'i2'
p58
sg12
Nsg13
Nsg14
(lp59
(i__main__
Token
p60
(dp61
g18
I5
sba(i__main__
Token
p62
(dp63
g18
I6
sbasg19
I6
sba(i__main__
Mention
p64
(dp65
g7
S't2'
p66
sg9
S'Coreference-Noun-Noun'
p67
sg10
S'i3'
p68
sg12
S'i2'
p69
sg13
Nsg14
(lp70
(i__main__
Token
p71
(dp72
g18
I8
sbasg19
I8
sba(i__main__
Mention
p73
(dp74
g7
S't2'
p75
sg9
S'Coreference-NounComplement'
p76
sg10
S'i4'
p77
sg12
S'i3'
p78
sg13
Nsg14
(lp79
(i__main__
Token
p80
(dp81
g18
I9
sba(i__main__
Token
p82
(dp83
g18
I10
sba(i__main__
Token
p84
(dp85
g18
I11
sbasg19
I11
sba(i__main__
Mention
p86
(dp87
g7
S't2'
p88
sg9
S'Coreference-Identity'
p89
sg10
S'i50'
p90
sg12
S'i4'
p91
sg13
Nsg14
(lp92
(i__main__
Token
p93
(dp94
g18
I265
sbasg19
I265
sba(i__main__
Mention
p95
(dp96
g7
S't2'
p97
sg9
S'Coreference-Identity'
p98
sg10
S'i56'
p99
sg12
S'i50'
p100
sg13
Nsg14
(lp101
(i__main__
Token
p102
(dp103
g18
I282
sbasg19
I282
sba(i__main__
Mention
p104
(dp105
g7
S't2'
p106
sg9
S'Anaphora-C'
p107
sg10
S'i57'
p108
sg12
S'i56'
p109
sg13
Nsg14
(lp110
(i__main__
Token
p111
(dp112
g18
I284
sbasg19
I284
sbasg7
g57
sg51
Nsba(i__main__
Chain
p113
(dp114
g3
(lp115
(i__main__
Mention
p116
(dp117
g7
S't3'
p118
sg9
Nsg10
S'i5'
p119
sg12
Nsg13
Nsg14
(lp120
(i__main__
Token
p121
(dp122
g18
I20
sbasg19
I20
sba(i__main__
Mention
p123
(dp124
g7
S't3'
p125
sg9
S'Coreference-RAbbreviation'
p126
sg10
S'i6'
p127
sg12
S'i5'
p128
sg13
Nsg14
(lp129
(i__main__
Token
p130
(dp131
g18
I31
sba(i__main__
Token
p132
(dp133
g18
I32
sba(i__main__
Token
p134
(dp135
g18
I33
sbasg19
I33
sbasg7
g118
sg51
Nsba(i__main__
Chain
p136
(dp137
g3
(lp138
(i__main__
Mention
p139
(dp140
g7
S't4'
p141
sg9
Nsg10
S'i7'
p142
sg12
Nsg13
Nsg14
(lp143
(i__main__
Token
p144
(dp145
g18
I35
sbasg19
I35
sba(i__main__
Mention
p146
(dp147
g7
S't4'
p148
sg9
S'Coreference-Noun-Noun'
p149
sg10
S'i8'
p150
sg12
S'i7'
p151
sg13
Nsg14
(lp152
(i__main__
Token
p153
(dp154
g18
I37
sba(i__main__
Token
p155
(dp156
g18
I38
sba(i__main__
Token
p157
(dp158
g18
I39
sbasg19
I39
sba(i__main__
Mention
p159
(dp160
g7
S't4'
p161
sg9
S'Coreference-NounComplement'
p162
sg10
S'i9'
p163
sg12
S'i8'
p164
sg13
Nsg14
(lp165
(i__main__
Token
p166
(dp167
g18
I40
sba(i__main__
Token
p168
(dp169
g18
I41
sbasg19
I41
sba(i__main__
Mention
p170
(dp171
g7
S't4'
p172
sg9
S'Coreference-Identity'
p173
sg10
S'i16'
p174
sg12
S'i9'
p175
sg13
Nsg14
(lp176
(i__main__
Token
p177
(dp178
g18
I73
sbasg19
I73
sba(i__main__
Mention
p179
(dp180
g7
S't4'
p181
sg9
S'Anaphora-C'
p182
sg10
S'i17'
p183
sg12
S'i16'
p184
sg13
Nsg14
(lp185
(i__main__
Token
p186
(dp187
g18
I75
sbasg19
I75
sba(i__main__
Mention
p188
(dp189
g7
S't4'
p190
sg9
S'Coreference-Identity'
p191
sg10
S'i18'
p192
sg12
S'i17'
p193
sg13
Nsg14
(lp194
(i__main__
Token
p195
(dp196
g18
I89
sbasg19
I89
sba(i__main__
Mention
p197
(dp198
g7
S't4'
p199
sg9
S'Anaphora-C'
p200
sg10
S'i19'
p201
sg12
S'i18'
p202
sg13
Nsg14
(lp203
(i__main__
Token
p204
(dp205
g18
I104
sbasg19
I104
sba(i__main__
Mention
p206
(dp207
g7
S't4'
p208
sg9
S'Coreference-Identity'
p209
sg10
S'i21'
p210
sg12
S'i88'
p211
sg13
Nsg14
(lp212
(i__main__
Token
p213
(dp214
g18
I111
sbasg19
I111
sba(i__main__
Mention
p215
(dp216
g7
S't4'
p217
sg9
S'Coreference-Noun-Noun'
p218
sg10
S'i34'
p219
sg12
S'i21'
p220
sg13
Nsg14
(lp221
(i__main__
Token
p222
(dp223
g18
I201
sba(i__main__
Token
p224
(dp225
g18
I202
sba(i__main__
Token
p226
(dp227
g18
I203
sbasg19
I203
sba(i__main__
Mention
p228
(dp229
g7
S't4'
p230
sg9
S'Coreference-NounComplement'
p231
sg10
S'i35'
p232
sg12
S'i34'
p233
sg13
Nsg14
(lp234
(i__main__
Token
p235
(dp236
g18
I204
sba(i__main__
Token
p237
(dp238
g18
I205
sbasg19
I205
sba(i__main__
Mention
p239
(dp240
g7
S't4'
p241
sg9
S'Anaphora-C'
p242
sg10
S'i36'
p243
sg12
S'i35'
p244
sg13
Nsg14
(lp245
(i__main__
Token
p246
(dp247
g18
I210
sbasg19
I210
sba(i__main__
Mention
p248
(dp249
g7
S't4'
p250
sg9
S'Anaphora-C'
p251
sg10
S'i38'
p252
sg12
S'i36'
p253
sg13
Nsg14
(lp254
(i__main__
Token
p255
(dp256
g18
I224
sbasg19
I224
sba(i__main__
Mention
p257
(dp258
g7
S't4'
p259
sg9
S'Anaphora-C'
p260
sg10
S'i40'
p261
sg12
S'i38'
p262
sg13
Nsg14
(lp263
(i__main__
Token
p264
(dp265
g18
I225
sbasg19
I225
sba(i__main__
Mention
p266
(dp267
g7
S't4'
p268
sg9
S'Anaphora-C'
p269
sg10
S'i42'
p270
sg12
S'i40'
p271
sg13
Nsg14
(lp272
(i__main__
Token
p273
(dp274
g18
I233
sbasg19
I233
sba(i__main__
Mention
p275
(dp276
g7
S't4'
p277
sg9
S'Anaphora-C'
p278
sg10
S'i44'
p279
sg12
S'i42'
p280
sg13
Nsg14
(lp281
(i__main__
Token
p282
(dp283
g18
I240
sbasg19
I240
sba(i__main__
Mention
p284
(dp285
g7
S't4'
p286
sg9
S'Anaphora-C'
p287
sg10
S'i47'
p288
sg12
S'i44'
p289
sg13
Nsg14
(lp290
(i__main__
Token
p291
(dp292
g18
I249
sbasg19
I249
sba(i__main__
Mention
p293
(dp294
g7
S't4'
p295
sg9
S'Coreference-Identity'
p296
sg10
S'i59'
p297
sg12
S'i94'
p298
sg13
Nsg14
(lp299
(i__main__
Token
p300
(dp301
g18
I298
sbasg19
I298
sba(i__main__
Mention
p302
(dp303
g7
S't4'
p304
sg9
S'Coreference-Noun-Noun'
p305
sg10
S'i65'
p306
sg12
S'i59'
p307
sg13
Nsg14
(lp308
(i__main__
Token
p309
(dp310
g18
I354
sba(i__main__
Token
p311
(dp312
g18
I355
sba(i__main__
Token
p313
(dp314
g18
I356
sbasg19
I356
sba(i__main__
Mention
p315
(dp316
g7
S't4'
p317
sg9
S'Coreference-Noun-Noun'
p318
sg10
S'i72'
p319
sg12
S'i65'
p320
sg13
Nsg14
(lp321
(i__main__
Token
p322
(dp323
g18
I390
sbasg19
I390
sba(i__main__
Mention
p324
(dp325
g7
S't4'
p326
sg9
S'Anaphora-C'
p327
sg10
S'i73'
p328
sg12
S'i72'
p329
sg13
Nsg14
(lp330
(i__main__
Token
p331
(dp332
g18
I392
sbasg19
I392
sba(i__main__
Mention
p333
(dp334
g7
S't4'
p335
sg9
S'Coreference-Noun-Noun'
p336
sg10
S'i81'
p337
sg12
S'i96'
p338
sg13
Nsg14
(lp339
(i__main__
Token
p340
(dp341
g18
I432
sbasg19
I432
sba(i__main__
Mention
p342
(dp343
g7
S't4'
p344
sg9
S'Coreference-Noun-Noun'
p345
sg10
S'i89'
p346
sg12
S'i81'
p347
sg13
Nsg14
(lp348
(i__main__
Token
p349
(dp350
g18
I459
sbasg19
I459
sba(i__main__
Mention
p351
(dp352
g7
S't4'
p353
sg9
S'Coreference-Noun-Noun'
p354
sg10
S'i93'
p355
sg12
S'i89'
p356
sg13
Nsg14
(lp357
(i__main__
Token
p358
(dp359
g18
I483
sbasg19
I483
sbasg7
g141
sg51
Nsba(i__main__
Chain
p360
(dp361
g3
(lp362
(i__main__
Mention
p363
(dp364
g7
S't5'
p365
sg9
Nsg10
S'i10'
p366
sg12
Nsg13
Nsg14
(lp367
(i__main__
Token
p368
(dp369
g18
I44
sbasg19
I44
sba(i__main__
Mention
p370
(dp371
g7
S't5'
p372
sg9
S'Anaphora-RC'
p373
sg10
S'i11'
p374
sg12
S'i10'
p375
sg13
Nsg14
(lp376
(i__main__
Token
p377
(dp378
g18
I45
sbasg19
I45
sbasg7
g365
sg51
Nsba(i__main__
Chain
p379
(dp380
g3
(lp381
(i__main__
Mention
p382
(dp383
g7
S't6'
p384
sg9
Nsg10
S'i12'
p385
sg12
Nsg13
Nsg14
(lp386
(i__main__
Token
p387
(dp388
g18
I47
sba(i__main__
Token
p389
(dp390
g18
I48
sbasg19
I48
sba(i__main__
Mention
p391
(dp392
g7
S't6'
p393
sg9
S'Coreference-Identity'
p394
sg10
S'i22'
p395
sg12
S'i12'
p396
sg13
Nsg14
(lp397
(i__main__
Token
p398
(dp399
g18
I113
sba(i__main__
Token
p400
(dp401
g18
I114
sba(i__main__
Token
p402
(dp403
g18
I115
sba(i__main__
Token
p404
(dp405
g18
I116
sba(i__main__
Token
p406
(dp407
g18
I117
sba(i__main__
Token
p408
(dp409
g18
I118
sba(i__main__
Token
p410
(dp411
g18
I119
sbasg19
I119
sba(i__main__
Mention
p412
(dp413
g7
S't6'
p414
sg9
S'Coreference-Noun-Noun'
p415
sg10
S'i23'
p416
sg12
S'i22'
p417
sg13
Nsg14
(lp418
(i__main__
Token
p419
(dp420
g18
I128
sba(i__main__
Token
p421
(dp422
g18
I129
sba(i__main__
Token
p423
(dp424
g18
I130
sbasg19
I130
sba(i__main__
Mention
p425
(dp426
g7
S't6'
p427
sg9
S'Anaphora-C'
p428
sg10
S'i24'
p429
sg12
S'i23'
p430
sg13
Nsg14
(lp431
(i__main__
Token
p432
(dp433
g18
I135
sbasg19
I135
sba(i__main__
Mention
p434
(dp435
g7
S't6'
p436
sg9
Nsg10
S'i27'
p437
sg12
Nsg13
Nsg14
(lp438
(i__main__
Token
p439
(dp440
g18
I150
sbasg19
Nsba(i__main__
Mention
p441
(dp442
g7
S't6'
p443
sg9
S'Anaphora-C'
p444
sg10
S'i29'
p445
sg12
S'i27'
p446
sg13
Nsg14
(lp447
(i__main__
Token
p448
(dp449
g18
I165
sbasg19
I165
sba(i__main__
Mention
p450
(dp451
g7
S't6'
p452
sg9
S'Coreference-Identity'
p453
sg10
S'i31'
p454
sg12
S'i87'
p455
sg13
Nsg14
(lp456
(i__main__
Token
p457
(dp458
g18
I177
sbasg19
I177
sba(i__main__
Mention
p459
(dp460
g7
S't6'
p461
sg9
S'Anaphora-C'
p462
sg10
S'i33'
p463
sg12
S'i31'
p464
sg13
Nsg14
(lp465
(i__main__
Token
p466
(dp467
g18
I185
sbasg19
I185
sbasg7
g384
sg51
Nsba(i__main__
Chain
p468
(dp469
g3
(lp470
(i__main__
Mention
p471
(dp472
g7
S't7'
p473
sg9
Nsg10
S'i13'
p474
sg12
Nsg13
Nsg14
(lp475
(i__main__
Token
p476
(dp477
g18
I63
sba(i__main__
Token
p478
(dp479
g18
I64
sba(i__main__
Token
p480
(dp481
g18
I65
sbasg19
I65
sba(i__main__
Mention
p482
(dp483
g7
S't7'
p484
sg9
S'Coreference-Identity'
p485
sg10
S'i69'
p486
sg12
S'i13'
p487
sg13
Nsg14
(lp488
(i__main__
Token
p489
(dp490
g18
I382
sba(i__main__
Token
p491
(dp492
g18
I383
sba(i__main__
Token
p493
(dp494
g18
I384
sbasg19
I384
sba(i__main__
Mention
p495
(dp496
g7
S't7'
p497
sg9
S'Coreference-Identity'
p498
sg10
S'i79'
p499
sg12
S'i69'
p500
sg13
Nsg14
(lp501
(i__main__
Token
p502
(dp503
g18
I425
sba(i__main__
Token
p504
(dp505
g18
I426
sbasg19
I426
sba(i__main__
Mention
p506
(dp507
g7
S't7'
p508
sg9
S'Coreference-Identity'
p509
sg10
S'i97'
p510
sg12
S'i79'
p511
sg13
Nsg14
(lp512
(i__main__
Token
p513
(dp514
g18
I504
sba(i__main__
Token
p515
(dp516
g18
I505
sba(i__main__
Token
p517
(dp518
g18
I506
sbasg19
I506
sbasg7
g473
sg51
Nsba(i__main__
Chain
p519
(dp520
g3
(lp521
(i__main__
Mention
p522
(dp523
g7
S't8'
p524
sg9
Nsg10
S'i14'
p525
sg12
Nsg13
Nsg14
(lp526
(i__main__
Token
p527
(dp528
g18
I63
sbasg19
I63
sba(i__main__
Mention
p529
(dp530
g7
S't8'
p531
sg9
S'Coreference-Identity'
p532
sg10
S'i53'
p533
sg12
S'i14'
p534
sg13
Nsg14
(lp535
(i__main__
Token
p536
(dp537
g18
I268
sbasg19
I268
sba(i__main__
Mention
p538
(dp539
g7
S't8'
p540
sg9
S'Coreference-Identity'
p541
sg10
S'i62'
p542
sg12
S'i53'
p543
sg13
Nsg14
(lp544
(i__main__
Token
p545
(dp546
g18
I319
sbasg19
I319
sba(i__main__
Mention
p547
(dp548
g7
S't8'
p549
sg9
S'Coreference-Identity'
p550
sg10
S'i70'
p551
sg12
S'i62'
p552
sg13
Nsg14
(lp553
(i__main__
Token
p554
(dp555
g18
I382
sbasg19
I382
sba(i__main__
Mention
p556
(dp557
g7
S't8'
p558
sg9
S'Coreference-Identity'
p559
sg10
S'i85'
p560
sg12
S'i70'
p561
sg13
Nsg14
(lp562
(i__main__
Token
p563
(dp564
g18
I438
sbasg19
I438
sba(i__main__
Mention
p565
(dp566
g7
S't8'
p567
sg9
S'Coreference-Identity'
p568
sg10
S'i98'
p569
sg12
S'i85'
p570
sg13
Nsg14
(lp571
(i__main__
Token
p572
(dp573
g18
I504
sbasg19
I504
sba(i__main__
Mention
p574
(dp575
g7
S't8'
p576
sg9
S'Coreference-Identity'
p577
sg10
S'i103'
p578
sg12
S'i98'
p579
sg13
Nsg14
(lp580
(i__main__
Token
p581
(dp582
g18
I517
sbasg19
I517
sba(i__main__
Mention
p583
(dp584
g7
S't8'
p585
sg9
S'Coreference-Identity'
p586
sg10
S'i108'
p587
sg12
S'i103'
p588
sg13
Nsg14
(lp589
(i__main__
Token
p590
(dp591
g18
I538
sbasg19
I538
sba(i__main__
Mention
p592
(dp593
g7
S't8'
p594
sg9
S'Coreference-Identity'
p595
sg10
S'i110'
p596
sg12
S'i108'
p597
sg13
Nsg14
(lp598
(i__main__
Token
p599
(dp600
g18
I545
sbasg19
I545
sbasg7
g524
sg51
Nsba(i__main__
Chain
p601
(dp602
g3
(lp603
(i__main__
Mention
p604
(dp605
g7
S't9'
p606
sg9
Nsg10
S'i15'
p607
sg12
Nsg13
Nsg14
(lp608
(i__main__
Token
p609
(dp610
g18
I67
sbasg19
I67
sba(i__main__
Mention
p611
(dp612
g7
S't9'
p613
sg9
S'Coreference-Identity'
p614
sg10
S'i71'
p615
sg12
S'i15'
p616
sg13
Nsg14
(lp617
(i__main__
Token
p618
(dp619
g18
I386
sbasg19
I386
sba(i__main__
Mention
p620
(dp621
g7
S't9'
p622
sg9
S'Coreference-Identity'
p623
sg10
S'i80'
p624
sg12
S'i71'
p625
sg13
Nsg14
(lp626
(i__main__
Token
p627
(dp628
g18
I428
sbasg19
I428
sba(i__main__
Mention
p629
(dp630
g7
S't9'
p631
sg9
S'Coreference-Identity'
p632
sg10
S'i100'
p633
sg12
S'i80'
p634
sg13
Nsg14
(lp635
(i__main__
Token
p636
(dp637
g18
I508
sbasg19
I508
sbasg7
g606
sg51
Nsba(i__main__
Chain
p638
(dp639
g3
(lp640
(i__main__
Mention
p641
(dp642
g7
S't10'
p643
sg9
Nsg10
S'i26'
p644
sg12
Nsg13
Nsg14
(lp645
(i__main__
Token
p646
(dp647
g18
I136
sba(i__main__
Token
p648
(dp649
g18
I137
sbasg19
I137
sba(i__main__
Mention
p650
(dp651
g7
S't10'
p652
sg9
Nsg10
S'i28'
p653
sg12
Nsg13
Nsg14
(lp654
(i__main__
Token
p655
(dp656
g18
I150
sbasg19
Nsba(i__main__
Mention
p657
(dp658
g7
S't10'
p659
sg9
S'Coreference-Identity'
p660
sg10
S'i32'
p661
sg12
S'i28'
p662
sg13
Nsg14
(lp663
(i__main__
Token
p664
(dp665
g18
I178
sbasg19
I178
sbasg7
g643
sg51
Nsba(i__main__
Chain
p666
(dp667
g3
(lp668
(i__main__
Mention
p669
(dp670
g7
S't11'
p671
sg9
Nsg10
S'i46'
p672
sg12
Nsg13
Nsg14
(lp673
(i__main__
Token
p674
(dp675
g18
I241
sbasg19
I241
sba(i__main__
Mention
p676
(dp677
g7
S't11'
p678
sg9
S'Anaphora-C'
p679
sg10
S'i49'
p680
sg12
S'i46'
p681
sg13
Nsg14
(lp682
(i__main__
Token
p683
(dp684
g18
I250
sbasg19
I250
sbasg7
g671
sg51
Nsba(i__main__
Chain
p685
(dp686
g3
(lp687
(i__main__
Mention
p688
(dp689
g7
S't12'
p690
sg9
Nsg10
S'i51'
p691
sg12
Nsg13
Nsg14
(lp692
(i__main__
Token
p693
(dp694
g18
I265
sba(i__main__
Token
p695
(dp696
g18
I266
sba(i__main__
Token
p697
(dp698
g18
I267
sba(i__main__
Token
p699
(dp700
g18
I268
sba(i__main__
Token
p701
(dp702
g18
I269
sba(i__main__
Token
p703
(dp704
g18
I270
sba(i__main__
Token
p705
(dp706
g18
I271
sba(i__main__
Token
p707
(dp708
g18
I272
sba(i__main__
Token
p709
(dp710
g18
I273
sba(i__main__
Token
p711
(dp712
g18
I274
sba(i__main__
Token
p713
(dp714
g18
I275
sba(i__main__
Token
p715
(dp716
g18
I276
sba(i__main__
Token
p717
(dp718
g18
I277
sba(i__main__
Token
p719
(dp720
g18
I278
sbasg19
I277
sba(i__main__
Mention
p721
(dp722
g7
S't12'
p723
sg9
S'Anaphora-E'
p724
sg10
S'i54'
p725
sg12
S'i51'
p726
sg13
Nsg14
(lp727
(i__main__
Token
p728
(dp729
g18
I280
sbasg19
I280
sbasg7
g690
sg51
Nsba(i__main__
Chain
p730
(dp731
g3
(lp732
(i__main__
Mention
p733
(dp734
g7
S't13'
p735
sg9
Nsg10
S'i52'
p736
sg12
Nsg13
Nsg14
(lp737
(i__main__
Token
p738
(dp739
g18
I268
sba(i__main__
Token
p740
(dp741
g18
I269
sbasg19
I269
sba(i__main__
Mention
p742
(dp743
g7
S't13'
p744
sg9
S'Coreference-Identity'
p745
sg10
S'i61'
p746
sg12
S'i52'
p747
sg13
Nsg14
(lp748
(i__main__
Token
p749
(dp750
g18
I319
sba(i__main__
Token
p751
(dp752
g18
I320
sbasg19
I320
sba(i__main__
Mention
p753
(dp754
g7
S't13'
p755
sg9
S'Coreference-Identity'
p756
sg10
S'i84'
p757
sg12
S'i61'
p758
sg13
Nsg14
(lp759
(i__main__
Token
p760
(dp761
g18
I438
sba(i__main__
Token
p762
(dp763
g18
I439
sbasg19
I439
sba(i__main__
Mention
p764
(dp765
g7
S't13'
p766
sg9
S'Coreference-Identity'
p767
sg10
S'i102'
p768
sg12
S'i84'
p769
sg13
Nsg14
(lp770
(i__main__
Token
p771
(dp772
g18
I517
sba(i__main__
Token
p773
(dp774
g18
I518
sbasg19
I518
sba(i__main__
Mention
p775
(dp776
g7
S't13'
p777
sg9
S'Coreference-Identity'
p778
sg10
S'i107'
p779
sg12
S'i102'
p780
sg13
Nsg14
(lp781
(i__main__
Token
p782
(dp783
g18
I538
sba(i__main__
Token
p784
(dp785
g18
I539
sbasg19
I539
sbasg7
g735
sg51
Nsba(i__main__
Chain
p786
(dp787
g3
(lp788
(i__main__
Mention
p789
(dp790
g7
S't14'
p791
sg9
Nsg10
S'i63'
p792
sg12
Nsg13
Nsg14
(lp793
(i__main__
Token
p794
(dp795
g18
I330
sba(i__main__
Token
p796
(dp797
g18
I331
sbasg19
I331
sba(i__main__
Mention
p798
(dp799
g7
S't14'
p800
sg9
S'Coreference-NounComplement'
p801
sg10
S'i64'
p802
sg12
S'i63'
p803
sg13
Nsg14
(lp804
(i__main__
Token
p805
(dp806
g18
I332
sba(i__main__
Token
p807
(dp808
g18
I333
sbasg19
I333
sba(i__main__
Mention
p809
(dp810
g7
S't14'
p811
sg9
S'Coreference-Identity'
p812
sg10
S'i66'
p813
sg12
S'i64'
p814
sg13
Nsg14
(lp815
(i__main__
Token
p816
(dp817
g18
I365
sbasg19
I365
sbasg7
g791
sg51
Nsba(i__main__
Chain
p818
(dp819
g3
(lp820
(i__main__
Mention
p821
(dp822
g7
S't15'
p823
sg9
Nsg10
S'i67'
p824
sg12
Nsg13
Nsg14
(lp825
(i__main__
Token
p826
(dp827
g18
I376
sba(i__main__
Token
p828
(dp829
g18
I377
sbasg19
I377
sba(i__main__
Mention
p830
(dp831
g7
S't15'
p832
sg9
S'Coreference-NounComplement'
p833
sg10
S'i68'
p834
sg12
S'i67'
p835
sg13
Nsg14
(lp836
(i__main__
Token
p837
(dp838
g18
I378
sba(i__main__
Token
p839
(dp840
g18
I379
sba(i__main__
Token
p841
(dp842
g18
I380
sbasg19
I380
sbasg7
g823
sg51
Nsba(i__main__
Chain
p843
(dp844
g3
(lp845
(i__main__
Mention
p846
(dp847
g7
S't16'
p848
sg9
Nsg10
S'i75'
p849
sg12
Nsg13
Nsg14
(lp850
(i__main__
Token
p851
(dp852
g18
I410
sbasg19
I410
sba(i__main__
Mention
p853
(dp854
g7
S't16'
p855
sg9
S'Coreference-Identity'
p856
sg10
S'i86'
p857
sg12
S'i75'
p858
sg13
Nsg14
(lp859
(i__main__
Token
p860
(dp861
g18
I448
sbasg19
I448
sba(i__main__
Mention
p862
(dp863
g7
S't16'
p864
sg9
S'Coreference-Identity'
p865
sg10
S'i90'
p866
sg12
S'i86'
p867
sg13
Nsg14
(lp868
(i__main__
Token
p869
(dp870
g18
I475
sbasg19
I475
sba(i__main__
Mention
p871
(dp872
g7
S't16'
p873
sg9
S'Coreference-Noun-Noun'
p874
sg10
S'i109'
p875
sg12
S'i90'
p876
sg13
Nsg14
(lp877
(i__main__
Token
p878
(dp879
g18
I540
sbasg19
I540
sbasg7
g848
sg51
Nsba(i__main__
Chain
p880
(dp881
g3
(lp882
(i__main__
Mention
p883
(dp884
g7
S't17'
p885
sg9
Nsg10
S'i77'
p886
sg12
Nsg13
Nsg14
(lp887
(i__main__
Token
p888
(dp889
g18
I417
sbasg19
I417
sba(i__main__
Mention
p890
(dp891
g7
S't17'
p892
sg9
S'Coreference-NounComplement'
p893
sg10
S'i78'
p894
sg12
S'i77'
p895
sg13
Nsg14
(lp896
(i__main__
Token
p897
(dp898
g18
I418
sba(i__main__
Token
p899
(dp900
g18
I419
sbasg19
I419
sbasg7
g885
sg51
Nsba(i__main__
Chain
p901
(dp902
g3
(lp903
(i__main__
Mention
p904
(dp905
g7
S't18'
p906
sg9
S'anaphora-E'
p907
sg10
S'i82'
p908
sg12
S'i83'
p909
sg13
Nsg14
(lp910
(i__main__
Token
p911
(dp912
g18
I434
sbasg19
I434
sbasg7
g906
sg51
Nsba(i__main__
Chain
p913
(dp914
g3
(lp915
(i__main__
Mention
p916
(dp917
g7
S't19'
p918
sg9
Nsg10
S'i87'
p919
sg12
Nsg13
Nsg14
(lp920
(i__main__
Token
p921
(dp922
g18
I451
sbasg19
I451
sba(i__main__
Mention
p923
(dp924
g7
S't19'
p925
sg9
S'Coreference-NounComplement'
p926
sg10
S'i88'
p927
sg12
S'i87'
p928
sg13
Nsg14
(lp929
(i__main__
Token
p930
(dp931
g18
I452
sba(i__main__
Token
p932
(dp933
g18
I453
sba(i__main__
Token
p934
(dp935
g18
I454
sbasg19
I454
sbasg7
g918
sg51
Nsba(i__main__
Chain
p936
(dp937
g3
(lp938
(i__main__
Mention
p939
(dp940
g7
S't20'
p941
sg9
Nsg10
S'i91'
p942
sg12
Nsg13
Nsg14
(lp943
(i__main__
Token
p944
(dp945
g18
I479
sbasg19
I479
sba(i__main__
Mention
p946
(dp947
g7
S't20'
p948
sg9
S'Coreference-NounComplement'
p949
sg10
S'i92'
p950
sg12
S'i91'
p951
sg13
Nsg14
(lp952
(i__main__
Token
p953
(dp954
g18
I480
sba(i__main__
Token
p955
(dp956
g18
I481
sbasg19
I481
sbasg7
g941
sg51
Nsba(i__main__
Chain
p957
(dp958
g3
(lp959
(i__main__
Mention
p960
(dp961
g7
S't21'
p962
sg9
Nsg10
S'i94'
p963
sg12
Nsg13
Nsg14
(lp964
(i__main__
Token
p965
(dp966
g18
I493
sba(i__main__
Token
p967
(dp968
g18
I494
sba(i__main__
Token
p969
(dp970
g18
I495
sbasg19
I495
sba(i__main__
Mention
p971
(dp972
g7
S't21'
p973
sg9
S'Coreference-Abbreviation'
p974
sg10
S'i106'
p975
sg12
S'i94'
p976
sg13
Nsg14
(lp977
(i__main__
Token
p978
(dp979
g18
I532
sbasg19
I532
sbasg7
g962
sg51
Nsba(i__main__
Chain
p980
(dp981
g3
(lp982
(i__main__
Mention
p983
(dp984
g7
S't22'
p985
sg9
Nsg10
S'i95'
p986
sg12
Nsg13
Nsg14
(lp987
(i__main__
Token
p988
(dp989
g18
I497
sbasg19
I497
sba(i__main__
Mention
p990
(dp991
g7
S't22'
p992
sg9
S'Coreference-NounComplement'
p993
sg10
S'i96'
p994
sg12
S'i95'
p995
sg13
Nsg14
(lp996
(i__main__
Token
p997
(dp998
g18
I498
sba(i__main__
Token
p999
(dp1000
g18
I499
sbasg19
I499
sba(i__main__
Mention
p1001
(dp1002
g7
S't22'
p1003
sg9
S'Anaphora-C'
p1004
sg10
S'i104'
p1005
sg12
S'i96'
p1006
sg13
Nsg14
(lp1007
(i__main__
Token
p1008
(dp1009
g18
I528
sbasg19
I528
sba(i__main__
Mention
p1010
(dp1011
g7
S't22'
p1012
sg9
S'Coreference-Noun-Noun'
p1013
sg10
S'i105'
p1014
sg12
S'i104'
p1015
sg13
Nsg14
(lp1016
(i__main__
Token
p1017
(dp1018
g18
I532
sba(i__main__
Token
p1019
(dp1020
g18
I533
sbasg19
I533
sbasg7
g985
sg51
Nsba(i__main__
Chain
p1021
(dp1022
g3
(lp1023
(i__main__
Mention
p1024
(dp1025
g7
S't23'
p1026
sg9
Nsg10
S'i99'
p1027
sg12
Nsg13
Nsg14
(lp1028
(i__main__
Token
p1029
(dp1030
g18
I504
sba(i__main__
Token
p1031
(dp1032
g18
I505
sba(i__main__
Token
p1033
(dp1034
g18
I506
sba(i__main__
Token
p1035
(dp1036
g18
I507
sba(i__main__
Token
p1037
(dp1038
g18
I508
sba(i__main__
Token
p1039
(dp1040
g18
I509
sba(i__main__
Token
p1041
(dp1042
g18
I510
sba(i__main__
Token
p1043
(dp1044
g18
I511
sba(i__main__
Token
p1045
(dp1046
g18
I512
sbasg19
I509
sba(i__main__
Mention
p1047
(dp1048
g7
S't23'
p1049
sg9
S'Anaphora-C'
p1050
sg10
S'i101'
p1051
sg12
S'i99'
p1052
sg13
Nsg14
(lp1053
(i__main__
Token
p1054
(dp1055
g18
I514
sbasg19
I514
sbasg7
g1026
sg51
Nsba.