(lp0
(i__main__
Chain
p1
(dp2
S'mentionList'
p3
(lp4
(i__main__
Mention
p5
(dp6
S'chainId'
p7
S't1'
p8
sS'relType'
p9
S'Coreference-Identity'
p10
sS'mentionId'
p11
S'i4'
p12
sS'antecedentId'
p13
S'i1'
p14
sS'crefMod'
p15
NsS'tokenList'
p16
(lp17
(i__main__
Token
p18
(dp19
S'tokenId'
p20
I3
sbasS'mentionHead'
p21
I3
sba(i__main__
Mention
p22
(dp23
g7
S't1'
p24
sg9
S'Coreference-Identity'
p25
sg11
S'i16'
p26
sg13
S'i4'
p27
sg15
Nsg16
(lp28
(i__main__
Token
p29
(dp30
g20
I93
sbasg21
I93
sbasg7
g8
sS'chainHead'
p31
Nsba(i__main__
Chain
p32
(dp33
g3
(lp34
(i__main__
Mention
p35
(dp36
g7
S't4'
p37
sg9
S'anaphora-?'
p38
sg11
S'i5'
p39
sg13
S'i5'
p40
sg15
Nsg16
(lp41
(i__main__
Token
p42
(dp43
g20
I8
sbasg21
I8
sbasg7
g37
sg31
Nsba(i__main__
Chain
p44
(dp45
g3
(lp46
(i__main__
Mention
p47
(dp48
g7
S't2'
p49
sg9
S'Coreference-Noun-Noun'
p50
sg11
S'i6'
p51
sg13
S'i2'
p52
sg15
Nsg16
(lp53
(i__main__
Token
p54
(dp55
g20
I23
sbasg21
I23
sba(i__main__
Mention
p56
(dp57
g7
S't2'
p58
sg9
S'Coreference-Noun-Noun'
p59
sg11
S'i11'
p60
sg13
S'i6'
p61
sg15
Nsg16
(lp62
(i__main__
Token
p63
(dp64
g20
I57
sbasg21
I57
sba(i__main__
Mention
p65
(dp66
g7
S't2'
p67
sg9
S'Coreference-Identity'
p68
sg11
S'i15'
p69
sg13
S'i11'
p70
sg15
Nsg16
(lp71
(i__main__
Token
p72
(dp73
g20
I89
sbasg21
I89
sba(i__main__
Mention
p74
(dp75
g7
S't2'
p76
sg9
S'Coreference-Identity'
p77
sg11
S'i51'
p78
sg13
S'i15'
p79
sg15
Nsg16
(lp80
(i__main__
Token
p81
(dp82
g20
I324
sbasg21
I324
sbasg7
g49
sg31
Nsba(i__main__
Chain
p83
(dp84
g3
(lp85
(i__main__
Mention
p86
(dp87
g7
S't3'
p88
sg9
S'Coreference-Identity'
p89
sg11
S'i7'
p90
sg13
S'i3'
p91
sg15
Nsg16
(lp92
(i__main__
Token
p93
(dp94
g20
I25
sba(i__main__
Token
p95
(dp96
g20
I26
sbasg21
I26
sbasg7
g88
sg31
Nsba(i__main__
Chain
p97
(dp98
g3
(lp99
(i__main__
Mention
p100
(dp101
g7
S't5'
p102
sg9
Nsg11
S'i8'
p103
sg13
Nsg15
Nsg16
(lp104
(i__main__
Token
p105
(dp106
g20
I32
sba(i__main__
Token
p107
(dp108
g20
I33
sbasg21
I33
sba(i__main__
Mention
p109
(dp110
g7
S't5'
p111
sg9
S'Coreference-Identity'
p112
sg11
S'i13'
p113
sg13
S'i8'
p114
sg15
Nsg16
(lp115
(i__main__
Token
p116
(dp117
g20
I77
sba(i__main__
Token
p118
(dp119
g20
I78
sbasg21
I78
sba(i__main__
Mention
p120
(dp121
g7
S't5'
p122
sg9
S'Coreference-Noun-Noun'
p123
sg11
S'i14'
p124
sg13
S'i13'
p125
sg15
Nsg16
(lp126
(i__main__
Token
p127
(dp128
g20
I79
sba(i__main__
Token
p129
(dp130
g20
I80
sba(i__main__
Token
p131
(dp132
g20
I81
sba(i__main__
Token
p133
(dp134
g20
I82
sbasg21
I82
sba(i__main__
Mention
p135
(dp136
g7
S't5'
p137
sg9
S'Coreference-Identity'
p138
sg11
S'i50'
p139
sg13
S'i14'
p140
sg15
Nsg16
(lp141
(i__main__
Token
p142
(dp143
g20
I296
sba(i__main__
Token
p144
(dp145
g20
I297
sbasg21
I297
sba(i__main__
Mention
p146
(dp147
g7
S't5'
p148
sg9
S'Coreference-Identity'
p149
sg11
S'i65'
p150
sg13
S'i50'
p151
sg15
Nsg16
(lp152
(i__main__
Token
p153
(dp154
g20
I390
sbasg21
I390
sba(i__main__
Mention
p155
(dp156
g7
S't5'
p157
sg9
S'Coreference-Identity'
p158
sg11
S'i76'
p159
sg13
S'i65'
p160
sg15
Nsg16
(lp161
(i__main__
Token
p162
(dp163
g20
I435
sbasg21
I435
sba(i__main__
Mention
p164
(dp165
g7
S't5'
p166
sg9
S'Coreference-Identity'
p167
sg11
S'i80'
p168
sg13
S'i76'
p169
sg15
Nsg16
(lp170
(i__main__
Token
p171
(dp172
g20
I452
sbasg21
I452
sbasg7
g102
sg31
Nsba(i__main__
Chain
p173
(dp174
g3
(lp175
(i__main__
Mention
p176
(dp177
g7
S't6'
p178
sg9
Nsg11
S'i9'
p179
sg13
Nsg15
Nsg16
(lp180
(i__main__
Token
p181
(dp182
g20
I35
sba(i__main__
Token
p183
(dp184
g20
I36
sbasg21
I36
sba(i__main__
Mention
p185
(dp186
g7
S't6'
p187
sg9
S'Coreference-Identity'
p188
sg11
S'i42'
p189
sg13
S'i9'
p190
sg15
Nsg16
(lp191
(i__main__
Token
p192
(dp193
g20
I234
sba(i__main__
Token
p194
(dp195
g20
I235
sbasg21
I235
sba(i__main__
Mention
p196
(dp197
g7
S't6'
p198
sg9
S'Coreference-Identity'
p199
sg11
S'i46'
p200
sg13
S'i42'
p201
sg15
Nsg16
(lp202
(i__main__
Token
p203
(dp204
g20
I262
sba(i__main__
Token
p205
(dp206
g20
I263
sbasg21
I263
sba(i__main__
Mention
p207
(dp208
g7
S't6'
p209
sg9
S'Coreference-Identity'
p210
sg11
S'i56'
p211
sg13
S'i46'
p212
sg15
Nsg16
(lp213
(i__main__
Token
p214
(dp215
g20
I342
sbasg21
I342
sba(i__main__
Mention
p216
(dp217
g7
S't6'
p218
sg9
S'Coreference-Identity'
p219
sg11
S'i58'
p220
sg13
S'i56'
p221
sg15
Nsg16
(lp222
(i__main__
Token
p223
(dp224
g20
I351
sbasg21
I351
sba(i__main__
Mention
p225
(dp226
g7
S't6'
p227
sg9
S'Coreference-Identity'
p228
sg11
S'i83'
p229
sg13
S'i58'
p230
sg15
Nsg16
(lp231
(i__main__
Token
p232
(dp233
g20
I463
sbasg21
I463
sbasg7
g178
sg31
Nsba(i__main__
Chain
p234
(dp235
g3
(lp236
(i__main__
Mention
p237
(dp238
g7
S't7'
p239
sg9
Nsg11
S'i10'
p240
sg13
Nsg15
Nsg16
(lp241
(i__main__
Token
p242
(dp243
g20
I38
sba(i__main__
Token
p244
(dp245
g20
I39
sbasg21
I39
sba(i__main__
Mention
p246
(dp247
g7
S't7'
p248
sg9
S'Coreference-Identity'
p249
sg11
S'i29'
p250
sg13
S'i10'
p251
sg15
Nsg16
(lp252
(i__main__
Token
p253
(dp254
g20
I178
sba(i__main__
Token
p255
(dp256
g20
I179
sbasg21
I179
sba(i__main__
Mention
p257
(dp258
g7
S't7'
p259
sg9
S'Coreference-Identity'
p260
sg11
S'i33'
p261
sg13
S'i29'
p262
sg15
Nsg16
(lp263
(i__main__
Token
p264
(dp265
g20
I192
sbasg21
I192
sba(i__main__
Mention
p266
(dp267
g7
S't7'
p268
sg9
S'Coreference-Identity'
p269
sg11
S'i72'
p270
sg13
S'i33'
p271
sg15
Nsg16
(lp272
(i__main__
Token
p273
(dp274
g20
I419
sbasg21
I419
sba(i__main__
Mention
p275
(dp276
g7
S't7'
p277
sg9
S'Coreference-Identity'
p278
sg11
S'i89'
p279
sg13
S'i72'
p280
sg15
Nsg16
(lp281
(i__main__
Token
p282
(dp283
g20
I483
sbasg21
I483
sbasg7
g239
sg31
Nsba(i__main__
Chain
p284
(dp285
g3
(lp286
(i__main__
Mention
p287
(dp288
g7
S't8'
p289
sg9
Nsg11
S'i12'
p290
sg13
Nsg15
Nsg16
(lp291
(i__main__
Token
p292
(dp293
g20
I59
sbasg21
I59
sba(i__main__
Mention
p294
(dp295
g7
S't8'
p296
sg9
S'Coreference-Identity'
p297
sg11
S'i52'
p298
sg13
S'i12'
p299
sg15
Nsg16
(lp300
(i__main__
Token
p301
(dp302
g20
I326
sbasg21
I326
sba(i__main__
Mention
p303
(dp304
g7
S't8'
p305
sg9
S'Coreference-Identity'
p306
sg11
S'i54'
p307
sg13
S'i52'
p308
sg15
Nsg16
(lp309
(i__main__
Token
p310
(dp311
g20
I334
sbasg21
I334
sbasg7
g289
sg31
Nsba(i__main__
Chain
p312
(dp313
g3
(lp314
(i__main__
Mention
p315
(dp316
g7
S't9'
p317
sg9
Nsg11
S'i17'
p318
sg13
Nsg15
Nsg16
(lp319
(i__main__
Token
p320
(dp321
g20
I111
sbasg21
I111
sba(i__main__
Mention
p322
(dp323
g7
S't9'
p324
sg9
S'Coreference-NounComplement'
p325
sg11
S'i18'
p326
sg13
S'i17'
p327
sg15
Nsg16
(lp328
(i__main__
Token
p329
(dp330
g20
I112
sba(i__main__
Token
p331
(dp332
g20
I113
sbasg21
I113
sba(i__main__
Mention
p333
(dp334
g7
S't9'
p335
sg9
S'Anaphora-C'
p336
sg11
S'i19'
p337
sg13
S'i18'
p338
sg15
Nsg16
(lp339
(i__main__
Token
p340
(dp341
g20
I119
sbasg21
I119
sba(i__main__
Mention
p342
(dp343
g7
S't9'
p344
sg9
S'Coreference-Identity'
p345
sg11
S'i24'
p346
sg13
S'i19'
p347
sg15
Nsg16
(lp348
(i__main__
Token
p349
(dp350
g20
I159
sbasg21
I159
sbasg7
g317
sg31
Nsba(i__main__
Chain
p351
(dp352
g3
(lp353
(i__main__
Mention
p354
(dp355
g7
S't10'
p356
sg9
Nsg11
S'i20'
p357
sg13
Nsg15
Nsg16
(lp358
(i__main__
Token
p359
(dp360
g20
I126
sbasg21
I126
sba(i__main__
Mention
p361
(dp362
g7
S't10'
p363
sg9
S'Coreference-Identity'
p364
sg11
S'i47'
p365
sg13
S'i20'
p366
sg15
Nsg16
(lp367
(i__main__
Token
p368
(dp369
g20
I271
sbasg21
I271
sbasg7
g356
sg31
Nsba(i__main__
Chain
p370
(dp371
g3
(lp372
(i__main__
Mention
p373
(dp374
g7
S't11'
p375
sg9
Nsg11
S'i21'
p376
sg13
Nsg15
Nsg16
(lp377
(i__main__
Token
p378
(dp379
g20
I134
sba(i__main__
Token
p380
(dp381
g20
I135
sbasg21
I135
sba(i__main__
Mention
p382
(dp383
g7
S't11'
p384
sg9
S'Anaphora-C'
p385
sg11
S'i22'
p386
sg13
S'i21'
p387
sg15
Nsg16
(lp388
(i__main__
Token
p389
(dp390
g20
I142
sbasg21
I142
sba(i__main__
Mention
p391
(dp392
g7
S't11'
p393
sg9
S'Coreference-Identity'
p394
sg11
S'i84'
p395
sg13
S'i22'
p396
sg15
Nsg16
(lp397
(i__main__
Token
p398
(dp399
g20
I467
sbasg21
I467
sbasg7
g375
sg31
Nsba(i__main__
Chain
p400
(dp401
g3
(lp402
(i__main__
Mention
p403
(dp404
g7
S't12'
p405
sg9
Nsg11
S'i23'
p406
sg13
Nsg15
Nsg16
(lp407
(i__main__
Token
p408
(dp409
g20
I150
sba(i__main__
Token
p410
(dp411
g20
I151
sbasg21
I151
sba(i__main__
Mention
p412
(dp413
g7
S't12'
p414
sg9
S'Coreference-Identity'
p415
sg11
S'i34'
p416
sg13
S'i23'
p417
sg15
Nsg16
(lp418
(i__main__
Token
p419
(dp420
g20
I194
sbasg21
I194
sba(i__main__
Mention
p421
(dp422
g7
S't12'
p423
sg9
S'Coreference-Identity'
p424
sg11
S'i87'
p425
sg13
S'i34'
p426
sg15
Nsg16
(lp427
(i__main__
Token
p428
(dp429
g20
I476
sbasg21
I476
sbasg7
g405
sg31
Nsba(i__main__
Chain
p430
(dp431
g3
(lp432
(i__main__
Mention
p433
(dp434
g7
S't13'
p435
sg9
Nsg11
S'i25'
p436
sg13
Nsg15
Nsg16
(lp437
(i__main__
Token
p438
(dp439
g20
I163
sbasg21
I163
sba(i__main__
Mention
p440
(dp441
g7
S't13'
p442
sg9
S'Coreference-NounComplement'
p443
sg11
S'i26'
p444
sg13
S'i25'
p445
sg15
Nsg16
(lp446
(i__main__
Token
p447
(dp448
g20
I164
sba(i__main__
Token
p449
(dp450
g20
I165
sbasg21
I165
sba(i__main__
Mention
p451
(dp452
g7
S't13'
p453
sg9
S'Anaphora-C'
p454
sg11
S'i27'
p455
sg13
S'i26'
p456
sg15
Nsg16
(lp457
(i__main__
Token
p458
(dp459
g20
I174
sbasg21
I174
sba(i__main__
Mention
p460
(dp461
g7
S't13'
p462
sg9
S'Anaphora-C'
p463
sg11
S'i31'
p464
sg13
S'i27'
p465
sg15
Nsg16
(lp466
(i__main__
Token
p467
(dp468
g20
I186
sbasg21
I186
sba(i__main__
Mention
p469
(dp470
g7
S't13'
p471
sg9
S'Coreference-Identity'
p472
sg11
S'i36'
p473
sg13
S'i100'
p474
sg15
Nsg16
(lp475
(i__main__
Token
p476
(dp477
g20
I217
sbasg21
I217
sbasg7
g435
sg31
Nsba(i__main__
Chain
p478
(dp479
g3
(lp480
(i__main__
Mention
p481
(dp482
g7
S't14'
p483
sg9
Nsg11
S'i30'
p484
sg13
Nsg15
Nsg16
(lp485
(i__main__
Token
p486
(dp487
g20
I178
sba(i__main__
Token
p488
(dp489
g20
I179
sba(i__main__
Token
p490
(dp491
g20
I180
sba(i__main__
Token
p492
(dp493
g20
I181
sba(i__main__
Token
p494
(dp495
g20
I182
sba(i__main__
Token
p496
(dp497
g20
I183
sba(i__main__
Token
p498
(dp499
g20
I184
sba(i__main__
Token
p500
(dp501
g20
I185
sba(i__main__
Token
p502
(dp503
g20
I186
sba(i__main__
Token
p504
(dp505
g20
I187
sba(i__main__
Token
p506
(dp507
g20
I188
sba(i__main__
Token
p508
(dp509
g20
I189
sba(i__main__
Token
p510
(dp511
g20
I190
sbasg21
I189
sba(i__main__
Mention
p512
(dp513
g7
S't14'
p514
sg9
S'Anaphora-E'
p515
sg11
S'i35'
p516
sg13
S'i30'
p517
sg15
Nsg16
(lp518
(i__main__
Token
p519
(dp520
g20
I201
sbasg21
I201
sbasg7
g483
sg31
Nsba(i__main__
Chain
p521
(dp522
g3
(lp523
(i__main__
Mention
p524
(dp525
g7
S't15'
p526
sg9
Nsg11
S'i37'
p527
sg13
Nsg15
Nsg16
(lp528
(i__main__
Token
p529
(dp530
g20
I217
sba(i__main__
Token
p531
(dp532
g20
I218
sba(i__main__
Token
p533
(dp534
g20
I219
sba(i__main__
Token
p535
(dp536
g20
I220
sba(i__main__
Token
p537
(dp538
g20
I221
sba(i__main__
Token
p539
(dp540
g20
I222
sba(i__main__
Token
p541
(dp542
g20
I223
sba(i__main__
Token
p543
(dp544
g20
I224
sba(i__main__
Token
p545
(dp546
g20
I225
sba(i__main__
Token
p547
(dp548
g20
I226
sba(i__main__
Token
p549
(dp550
g20
I227
sbasg21
I227
sba(i__main__
Mention
p551
(dp552
g7
S't15'
p553
sg9
S'Anaphora-E'
p554
sg11
S'i39'
p555
sg13
S'i37'
p556
sg15
Nsg16
(lp557
(i__main__
Token
p558
(dp559
g20
I229
sbasg21
I229
sbasg7
g526
sg31
Nsba(i__main__
Chain
p560
(dp561
g3
(lp562
(i__main__
Mention
p563
(dp564
g7
S't16'
p565
sg9
Nsg11
S'i38'
p566
sg13
Nsg15
Nsg16
(lp567
(i__main__
Token
p568
(dp569
g20
I224
sbasg21
I224
sba(i__main__
Mention
p570
(dp571
g7
S't16'
p572
sg9
S'Coreference-Identity'
p573
sg11
S'i48'
p574
sg13
S'i38'
p575
sg15
Nsg16
(lp576
(i__main__
Token
p577
(dp578
g20
I286
sbasg21
I286
sba(i__main__
Mention
p579
(dp580
g7
S't16'
p581
sg9
S'Coreference-Identity'
p582
sg11
S'i81'
p583
sg13
S'i48'
p584
sg15
Nsg16
(lp585
(i__main__
Token
p586
(dp587
g20
I460
sbasg21
I460
sbasg7
g565
sg31
Nsba(i__main__
Chain
p588
(dp589
g3
(lp590
(i__main__
Mention
p591
(dp592
g7
S't17'
p593
sg9
Nsg11
S'i41'
p594
sg13
Nsg15
Nsg16
(lp595
(i__main__
Token
p596
(dp597
g20
I231
sba(i__main__
Token
p598
(dp599
g20
I232
sbasg21
I232
sba(i__main__
Mention
p600
(dp601
g7
S't17'
p602
sg9
S'Coreference-Identity'
p603
sg11
S'i43'
p604
sg13
S'i41'
p605
sg15
Nsg16
(lp606
(i__main__
Token
p607
(dp608
g20
I249
sbasg21
I249
sbasg7
g593
sg31
Nsba(i__main__
Chain
p609
(dp610
g3
(lp611
(i__main__
Mention
p612
(dp613
g7
S't18'
p614
sg9
Nsg11
S'i44'
p615
sg13
Nsg15
Nsg16
(lp616
(i__main__
Token
p617
(dp618
g20
I252
sbasg21
I252
sba(i__main__
Mention
p619
(dp620
g7
S't18'
p621
sg9
Nsg11
S'i78'
p622
sg13
Nsg15
Nsg16
(lp623
(i__main__
Token
p624
(dp625
g20
I448
sbasg21
Nsbasg7
g614
sg31
Nsba(i__main__
Chain
p626
(dp627
g3
(lp628
(i__main__
Mention
p629
(dp630
g7
S't19'
p631
sg9
Nsg11
S'i45'
p632
sg13
Nsg15
Nsg16
(lp633
(i__main__
Token
p634
(dp635
g20
I256
sbasg21
I256
sba(i__main__
Mention
p636
(dp637
g7
S't19'
p638
sg9
S'Coreference-Identity'
p639
sg11
S'i49'
p640
sg13
S'i45'
p641
sg15
Nsg16
(lp642
(i__main__
Token
p643
(dp644
g20
I290
sbasg21
I290
sba(i__main__
Mention
p645
(dp646
g7
S't19'
p647
sg9
S'Coreference-Identity'
p648
sg11
S'i77'
p649
sg13
S'i49'
p650
sg15
Nsg16
(lp651
(i__main__
Token
p652
(dp653
g20
I442
sbasg21
I442
sbasg7
g631
sg31
Nsba(i__main__
Chain
p654
(dp655
g3
(lp656
(i__main__
Mention
p657
(dp658
g7
S't20'
p659
sg9
S'Coreference-Identity'
p660
sg11
S'i53'
p661
sg13
S'i28'
p662
sg15
Nsg16
(lp663
(i__main__
Token
p664
(dp665
g20
I333
sbasg21
I333
sba(i__main__
Mention
p666
(dp667
g7
S't20'
p668
sg9
S'Anaphora-RT'
p669
sg11
S'i55'
p670
sg13
S'i53'
p671
sg15
Nsg16
(lp672
(i__main__
Token
p673
(dp674
g20
I334
sba(i__main__
Token
p675
(dp676
g20
I335
sba(i__main__
Token
p677
(dp678
g20
I336
sba(i__main__
Token
p679
(dp680
g20
I337
sba(i__main__
Token
p681
(dp682
g20
I338
sba(i__main__
Token
p683
(dp684
g20
I339
sba(i__main__
Token
p685
(dp686
g20
I340
sbasg21
I338
sbasg7
g659
sg31
Nsba(i__main__
Chain
p687
(dp688
g3
(lp689
(i__main__
Mention
p690
(dp691
g7
S't21'
p692
sg9
S'anaphora-C'
p693
sg11
S'i57'
p694
sg13
S'i51'
p695
sg15
Nsg16
(lp696
(i__main__
Token
p697
(dp698
g20
I344
sbasg21
I344
sbasg7
g692
sg31
Nsba(i__main__
Chain
p699
(dp700
g3
(lp701
(i__main__
Mention
p702
(dp703
g7
S't22'
p704
sg9
Nsg11
S'i59'
p705
sg13
Nsg15
Nsg16
(lp706
(i__main__
Token
p707
(dp708
g20
I361
sba(i__main__
Token
p709
(dp710
g20
I362
sba(i__main__
Token
p711
(dp712
g20
I363
sba(i__main__
Token
p713
(dp714
g20
I364
sba(i__main__
Token
p715
(dp716
g20
I365
sba(i__main__
Token
p717
(dp718
g20
I366
sba(i__main__
Token
p719
(dp720
g20
I367
sba(i__main__
Token
p721
(dp722
g20
I368
sba(i__main__
Token
p723
(dp724
g20
I369
sba(i__main__
Token
p725
(dp726
g20
I370
sbasg21
I368
sba(i__main__
Mention
p727
(dp728
g7
S't22'
p729
sg9
S'Anaphora-E'
p730
sg11
S'i60'
p731
sg13
S'i59'
p732
sg15
Nsg16
(lp733
(i__main__
Token
p734
(dp735
g20
I372
sbasg21
I372
sbasg7
g704
sg31
Nsba(i__main__
Chain
p736
(dp737
g3
(lp738
(i__main__
Mention
p739
(dp740
g7
S't23'
p741
sg9
Nsg11
S'i62'
p742
sg13
Nsg15
Nsg16
(lp743
(i__main__
Token
p744
(dp745
g20
I374
sbasg21
I374
sba(i__main__
Mention
p746
(dp747
g7
S't23'
p748
sg9
S'Coreference-Identity'
p749
sg11
S'i64'
p750
sg13
S'i62'
p751
sg15
Nsg16
(lp752
(i__main__
Token
p753
(dp754
g20
I384
sbasg21
I384
sba(i__main__
Mention
p755
(dp756
g7
S't23'
p757
sg9
S'Coreference-Identity'
p758
sg11
S'i66'
p759
sg13
S'i64'
p760
sg15
Nsg16
(lp761
(i__main__
Token
p762
(dp763
g20
I397
sbasg21
I397
sbasg7
g741
sg31
Nsba(i__main__
Chain
p764
(dp765
g3
(lp766
(i__main__
Mention
p767
(dp768
g7
S't24'
p769
sg9
Nsg11
S'i63'
p770
sg13
Nsg15
Nsg16
(lp771
(i__main__
Token
p772
(dp773
g20
I376
sbasg21
I376
sba(i__main__
Mention
p774
(dp775
g7
S't24'
p776
sg9
S'Coreference-Identity'
p777
sg11
S'i69'
p778
sg13
S'i63'
p779
sg15
Nsg16
(lp780
(i__main__
Token
p781
(dp782
g20
I404
sbasg21
I404
sba(i__main__
Mention
p783
(dp784
g7
S't24'
p785
sg9
S'Coreference-Identity'
p786
sg11
S'i70'
p787
sg13
S'i69'
p788
sg15
Nsg16
(lp789
(i__main__
Token
p790
(dp791
g20
I412
sbasg21
I412
sbasg7
g769
sg31
Nsba(i__main__
Chain
p792
(dp793
g3
(lp794
(i__main__
Mention
p795
(dp796
g7
S't25'
p797
sg9
Nsg11
S'i67'
p798
sg13
Nsg15
Nsg16
(lp799
(i__main__
Token
p800
(dp801
g20
I401
sbasg21
I401
sba(i__main__
Mention
p802
(dp803
g7
S't25'
p804
sg9
S'Coreference-NounComplement'
p805
sg11
S'i68'
p806
sg13
S'i67'
p807
sg15
Nsg16
(lp808
(i__main__
Token
p809
(dp810
g20
I402
sbasg21
I402
sba(i__main__
Mention
p811
(dp812
g7
S't25'
p813
sg9
S'Coreference-Identity'
p814
sg11
S'i75'
p815
sg13
S'i68'
p816
sg15
Nsg16
(lp817
(i__main__
Token
p818
(dp819
g20
I429
sbasg21
I429
sbasg7
g797
sg31
Nsba(i__main__
Chain
p820
(dp821
g3
(lp822
(i__main__
Mention
p823
(dp824
g7
S't26'
p825
sg9
Nsg11
S'i71'
p826
sg13
Nsg15
Nsg16
(lp827
(i__main__
Token
p828
(dp829
g20
I412
sba(i__main__
Token
p830
(dp831
g20
I413
sba(i__main__
Token
p832
(dp833
g20
I414
sba(i__main__
Token
p834
(dp835
g20
I415
sba(i__main__
Token
p836
(dp837
g20
I416
sba(i__main__
Token
p838
(dp839
g20
I417
sba(i__main__
Token
p840
(dp841
g20
I418
sba(i__main__
Token
p842
(dp843
g20
I419
sba(i__main__
Token
p844
(dp845
g20
I420
sba(i__main__
Token
p846
(dp847
g20
I421
sba(i__main__
Token
p848
(dp849
g20
I422
sbasg21
I422
sba(i__main__
Mention
p850
(dp851
g7
S't26'
p852
sg9
S'Anaphora-E'
p853
sg11
S'i73'
p854
sg13
S'i71'
p855
sg15
Nsg16
(lp856
(i__main__
Token
p857
(dp858
g20
I424
sbasg21
I424
sbasg7
g825
sg31
Nsba(i__main__
Chain
p859
(dp860
g3
(lp861
(i__main__
Mention
p862
(dp863
g7
S't27'
p864
sg9
Nsg11
S'i82'
p865
sg13
Nsg15
Nsg16
(lp866
(i__main__
Token
p867
(dp868
g20
I460
sba(i__main__
Token
p869
(dp870
g20
I461
sba(i__main__
Token
p871
(dp872
g20
I462
sba(i__main__
Token
p873
(dp874
g20
I463
sba(i__main__
Token
p875
(dp876
g20
I464
sba(i__main__
Token
p877
(dp878
g20
I465
sba(i__main__
Token
p879
(dp880
g20
I466
sba(i__main__
Token
p881
(dp882
g20
I467
sba(i__main__
Token
p883
(dp884
g20
I468
sba(i__main__
Token
p885
(dp886
g20
I469
sba(i__main__
Token
p887
(dp888
g20
I470
sba(i__main__
Token
p889
(dp890
g20
I471
sbasg21
I470
sba(i__main__
Mention
p891
(dp892
g7
S't27'
p893
sg9
S'Anaphora-E'
p894
sg11
S'i85'
p895
sg13
S'i82'
p896
sg15
Nsg16
(lp897
(i__main__
Token
p898
(dp899
g20
I473
sbasg21
I473
sbasg7
g864
sg31
Nsba(i__main__
Chain
p900
(dp901
g3
(lp902
(i__main__
Mention
p903
(dp904
g7
S't28'
p905
sg9
S'anaphora-?'
p906
sg11
S'i88'
p907
sg13
S'i88'
p908
sg15
Nsg16
(lp909
(i__main__
Token
p910
(dp911
g20
I477
sbasg21
I477
sbasg7
g905
sg31
Nsba.