(lp0
(i__main__
Chain
p1
(dp2
S'mentionList'
p3
(lp4
(i__main__
Mention
p5
(dp6
S'chainId'
p7
S't1'
p8
sS'relType'
p9
NsS'mentionId'
p10
S'i1'
p11
sS'antecedentId'
p12
NsS'crefMod'
p13
NsS'tokenList'
p14
(lp15
(i__main__
Token
p16
(dp17
S'tokenId'
p18
I4
sba(i__main__
Token
p19
(dp20
g18
I5
sbasS'mentionHead'
p21
I5
sba(i__main__
Mention
p22
(dp23
g7
S't1'
p24
sg9
S'Coreference-NounComplement'
p25
sg10
S'i2'
p26
sg12
S'i1'
p27
sg13
Nsg14
(lp28
(i__main__
Token
p29
(dp30
g18
I6
sba(i__main__
Token
p31
(dp32
g18
I7
sbasg21
I7
sba(i__main__
Mention
p33
(dp34
g7
S't1'
p35
sg9
S'Anaphora-C'
p36
sg10
S'i3'
p37
sg12
S'i2'
p38
sg13
Nsg14
(lp39
(i__main__
Token
p40
(dp41
g18
I13
sbasg21
I13
sba(i__main__
Mention
p42
(dp43
g7
S't1'
p44
sg9
S'Coreference-Identity'
p45
sg10
S'i7'
p46
sg12
S'i3'
p47
sg13
Nsg14
(lp48
(i__main__
Token
p49
(dp50
g18
I45
sbasg21
I45
sba(i__main__
Mention
p51
(dp52
g7
S't1'
p53
sg9
S'Anaphora-C'
p54
sg10
S'i13'
p55
sg12
S'i7'
p56
sg13
Nsg14
(lp57
(i__main__
Token
p58
(dp59
g18
I73
sbasg21
I73
sba(i__main__
Mention
p60
(dp61
g7
S't1'
p62
sg9
S'Coreference-Identity'
p63
sg10
S'i16'
p64
sg12
S'i13'
p65
sg13
Nsg14
(lp66
(i__main__
Token
p67
(dp68
g18
I100
sbasg21
I100
sba(i__main__
Mention
p69
(dp70
g7
S't1'
p71
sg9
S'Anaphora-C'
p72
sg10
S'i20'
p73
sg12
S'i16'
p74
sg13
Nsg14
(lp75
(i__main__
Token
p76
(dp77
g18
I123
sbasg21
I123
sba(i__main__
Mention
p78
(dp79
g7
S't1'
p80
sg9
S'Anaphora-C'
p81
sg10
S'i21'
p82
sg12
S'i20'
p83
sg13
Nsg14
(lp84
(i__main__
Token
p85
(dp86
g18
I129
sbasg21
I129
sba(i__main__
Mention
p87
(dp88
g7
S't1'
p89
sg9
S'Anaphora-C'
p90
sg10
S'i22'
p91
sg12
S'i21'
p92
sg13
Nsg14
(lp93
(i__main__
Token
p94
(dp95
g18
I132
sbasg21
I132
sbasg7
g8
sS'chainHead'
p96
Nsba(i__main__
Chain
p97
(dp98
g3
(lp99
(i__main__
Mention
p100
(dp101
g7
S't2'
p102
sg9
Nsg10
S'i4'
p103
sg12
Nsg13
Nsg14
(lp104
(i__main__
Token
p105
(dp106
g18
I20
sbasg21
I20
sba(i__main__
Mention
p107
(dp108
g7
S't2'
p109
sg9
S'Coreference-NounComplement'
p110
sg10
S'i5'
p111
sg12
S'i4'
p112
sg13
Nsg14
(lp113
(i__main__
Token
p114
(dp115
g18
I21
sba(i__main__
Token
p116
(dp117
g18
I22
sbasg21
I22
sba(i__main__
Mention
p118
(dp119
g7
S't2'
p120
sg9
S'Coreference-Noun-Noun'
p121
sg10
S'i6'
p122
sg12
S'i5'
p123
sg13
Nsg14
(lp124
(i__main__
Token
p125
(dp126
g18
I36
sbasg21
I36
sba(i__main__
Mention
p127
(dp128
g7
S't2'
p129
sg9
S'Coreference-Noun-Noun'
p130
sg10
S'i9'
p131
sg12
S'i7'
p132
sg13
Nsg14
(lp133
(i__main__
Token
p134
(dp135
g18
I56
sba(i__main__
Token
p136
(dp137
g18
I57
sbasg21
I57
sba(i__main__
Mention
p138
(dp139
g7
S't2'
p140
sg9
S'Anaphora-C'
p141
sg10
S'i12'
p142
sg12
S'i9'
p143
sg13
Nsg14
(lp144
(i__main__
Token
p145
(dp146
g18
I66
sbasg21
I66
sba(i__main__
Mention
p147
(dp148
g7
S't2'
p149
sg9
S'Coreference-Noun-Noun'
p150
sg10
S'i14'
p151
sg12
S'i12'
p152
sg13
Nsg14
(lp153
(i__main__
Token
p154
(dp155
g18
I77
sbasg21
I77
sba(i__main__
Mention
p156
(dp157
g7
S't2'
p158
sg9
S'Anaphora-C'
p159
sg10
S'i15'
p160
sg12
S'i14'
p161
sg13
Nsg14
(lp162
(i__main__
Token
p163
(dp164
g18
I89
sbasg21
I89
sba(i__main__
Mention
p165
(dp166
g7
S't2'
p167
sg9
S'Coreference-Identity'
p168
sg10
S'i17'
p169
sg12
S'i15'
p170
sg13
Nsg14
(lp171
(i__main__
Token
p172
(dp173
g18
I115
sbasg21
I115
sba(i__main__
Mention
p174
(dp175
g7
S't2'
p176
sg9
S'Anaphora-C'
p177
sg10
S'i19'
p178
sg12
S'i17'
p179
sg13
Nsg14
(lp180
(i__main__
Token
p181
(dp182
g18
I117
sbasg21
I117
sbasg7
g102
sg96
Nsba(i__main__
Chain
p183
(dp184
g3
(lp185
(i__main__
Mention
p186
(dp187
g7
S't3'
p188
sg9
Nsg10
S'i8'
p189
sg12
Nsg13
Nsg14
(lp190
(i__main__
Token
p191
(dp192
g18
I49
sbasg21
I49
sba(i__main__
Mention
p193
(dp194
g7
S't3'
p195
sg9
S'Anaphora-RC'
p196
sg10
S'i10'
p197
sg12
S'i8'
p198
sg13
Nsg14
(lp199
(i__main__
Token
p200
(dp201
g18
I56
sba(i__main__
Token
p202
(dp203
g18
I57
sba(i__main__
Token
p204
(dp205
g18
I58
sba(i__main__
Token
p206
(dp207
g18
I59
sba(i__main__
Token
p208
(dp209
g18
I60
sba(i__main__
Token
p210
(dp211
g18
I61
sba(i__main__
Token
p212
(dp213
g18
I62
sba(i__main__
Token
p214
(dp215
g18
I63
sba(i__main__
Token
p216
(dp217
g18
I64
sba(i__main__
Token
p218
(dp219
g18
I65
sba(i__main__
Token
p220
(dp221
g18
I66
sba(i__main__
Token
p222
(dp223
g18
I67
sba(i__main__
Token
p224
(dp225
g18
I68
sba(i__main__
Token
p226
(dp227
g18
I69
sba(i__main__
Token
p228
(dp229
g18
I70
sba(i__main__
Token
p230
(dp231
g18
I71
sbasg21
I65
sbasg7
g188
sg96
Nsba(i__main__
Chain
p232
(dp233
g3
(lp234
(i__main__
Mention
p235
(dp236
g7
S't4'
p237
sg9
Nsg10
S'i18'
p238
sg12
Nsg13
Nsg14
(lp239
(i__main__
Token
p240
(dp241
g18
I121
sbasg21
I121
sba(i__main__
Mention
p242
(dp243
g7
S't4'
p244
sg9
S'Anaphora-C'
p245
sg10
S'i23'
p246
sg12
S'i18'
p247
sg13
Nsg14
(lp248
(i__main__
Token
p249
(dp250
g18
I133
sbasg21
I133
sba(i__main__
Mention
p251
(dp252
g7
S't4'
p253
sg9
S'Coreference-Identity'
p254
sg10
S'i24'
p255
sg12
S'i23'
p256
sg13
Nsg14
(lp257
(i__main__
Token
p258
(dp259
g18
I148
sba(i__main__
Token
p260
(dp261
g18
I149
sbasg21
I149
sbasg7
g237
sg96
Nsba.