(lp0
(i__main__
Chain
p1
(dp2
S'mentionList'
p3
(lp4
(i__main__
Mention
p5
(dp6
S'chainId'
p7
S't1'
p8
sS'relType'
p9
NsS'mentionId'
p10
S'i1'
p11
sS'antecedentId'
p12
NsS'crefMod'
p13
NsS'tokenList'
p14
(lp15
(i__main__
Token
p16
(dp17
S'tokenId'
p18
I0
sba(i__main__
Token
p19
(dp20
g18
I1
sba(i__main__
Token
p21
(dp22
g18
I2
sbasS'mentionHead'
p23
I2
sba(i__main__
Mention
p24
(dp25
g7
S't1'
p26
sg9
S'Coreference-Abbreviation'
p27
sg10
S'i75'
p28
sg12
S'i1'
p29
sg13
Nsg14
(lp30
(i__main__
Token
p31
(dp32
g18
I265
sbasg23
I265
sba(i__main__
Mention
p33
(dp34
g7
S't1'
p35
sg9
S'Coreference-Identity'
p36
sg10
S'i87'
p37
sg12
S'i75'
p38
sg13
Nsg14
(lp39
(i__main__
Token
p40
(dp41
g18
I308
sbasg23
I308
sbasg7
g8
sS'chainHead'
p42
Nsba(i__main__
Chain
p43
(dp44
g3
(lp45
(i__main__
Mention
p46
(dp47
g7
S't2'
p48
sg9
Nsg10
S'i2'
p49
sg12
Nsg13
Nsg14
(lp50
(i__main__
Token
p51
(dp52
g18
I4
sba(i__main__
Token
p53
(dp54
g18
I5
sbasg23
I5
sba(i__main__
Mention
p55
(dp56
g7
S't2'
p57
sg9
S'Coreference-Noun-Noun'
p58
sg10
S'i3'
p59
sg12
S'i2'
p60
sg13
Nsg14
(lp61
(i__main__
Token
p62
(dp63
g18
I7
sba(i__main__
Token
p64
(dp65
g18
I8
sbasg23
I8
sba(i__main__
Mention
p66
(dp67
g7
S't2'
p68
sg9
S'Coreference-NounComplement'
p69
sg10
S'i4'
p70
sg12
S'i3'
p71
sg13
Nsg14
(lp72
(i__main__
Token
p73
(dp74
g18
I9
sba(i__main__
Token
p75
(dp76
g18
I10
sbasg23
I10
sba(i__main__
Mention
p77
(dp78
g7
S't2'
p79
sg9
S'Coreference-Identity'
p80
sg10
S'i24'
p81
sg12
S'i4'
p82
sg13
Nsg14
(lp83
(i__main__
Token
p84
(dp85
g18
I76
sba(i__main__
Token
p86
(dp87
g18
I77
sbasg23
I77
sba(i__main__
Mention
p88
(dp89
g7
S't2'
p90
sg9
S'Coreference-Identity'
p91
sg10
S'i69'
p92
sg12
S'i24'
p93
sg13
Nsg14
(lp94
(i__main__
Token
p95
(dp96
g18
I225
sba(i__main__
Token
p97
(dp98
g18
I226
sbasg23
I226
sba(i__main__
Mention
p99
(dp100
g7
S't2'
p101
sg9
S'Anaphora-C'
p102
sg10
S'i70'
p103
sg12
S'i69'
p104
sg13
Nsg14
(lp105
(i__main__
Token
p106
(dp107
g18
I228
sbasg23
I228
sba(i__main__
Mention
p108
(dp109
g7
S't2'
p110
sg9
S'Coreference-Identity'
p111
sg10
S'i80'
p112
sg12
S'i70'
p113
sg13
Nsg14
(lp114
(i__main__
Token
p115
(dp116
g18
I285
sba(i__main__
Token
p117
(dp118
g18
I286
sbasg23
I286
sbasg7
g48
sg42
Nsba(i__main__
Chain
p119
(dp120
g3
(lp121
(i__main__
Mention
p122
(dp123
g7
S't3'
p124
sg9
Nsg10
S'i5'
p125
sg12
Nsg13
Nsg14
(lp126
(i__main__
Token
p127
(dp128
g18
I12
sba(i__main__
Token
p129
(dp130
g18
I13
sba(i__main__
Token
p131
(dp132
g18
I14
sba(i__main__
Token
p133
(dp134
g18
I15
sbasg23
I15
sba(i__main__
Mention
p135
(dp136
g7
S't3'
p137
sg9
S'Coreference-Identity'
p138
sg10
S'i48'
p139
sg12
S'i5'
p140
sg13
Nsg14
(lp141
(i__main__
Token
p142
(dp143
g18
I149
sba(i__main__
Token
p144
(dp145
g18
I150
sbasg23
I150
sba(i__main__
Mention
p146
(dp147
g7
S't3'
p148
sg9
S'Coreference-Identity'
p149
sg10
S'i67'
p150
sg12
S'i48'
p151
sg13
Nsg14
(lp152
(i__main__
Token
p153
(dp154
g18
I217
sba(i__main__
Token
p155
(dp156
g18
I218
sba(i__main__
Token
p157
(dp158
g18
I219
sba(i__main__
Token
p159
(dp160
g18
I220
sbasg23
I220
sbasg7
g124
sg42
Nsba(i__main__
Chain
p161
(dp162
g3
(lp163
(i__main__
Mention
p164
(dp165
g7
S't4'
p166
sg9
Nsg10
S'i6'
p167
sg12
Nsg13
Nsg14
(lp168
(i__main__
Token
p169
(dp170
g18
I17
sbasg23
I17
sba(i__main__
Mention
p171
(dp172
g7
S't4'
p173
sg9
S'Coreference-Identity'
p174
sg10
S'i11'
p175
sg12
S'i6'
p176
sg13
Nsg14
(lp177
(i__main__
Token
p178
(dp179
g18
I36
sbasg23
I36
sba(i__main__
Mention
p180
(dp181
g7
S't4'
p182
sg9
S'Coreference-Identity'
p183
sg10
S'i63'
p184
sg12
S'i11'
p185
sg13
Nsg14
(lp186
(i__main__
Token
p187
(dp188
g18
I200
sba(i__main__
Token
p189
(dp190
g18
I201
sbasg23
I201
sba(i__main__
Mention
p191
(dp192
g7
S't4'
p193
sg9
S'Coreference-Identity'
p194
sg10
S'i68'
p195
sg12
S'i63'
p196
sg13
Nsg14
(lp197
(i__main__
Token
p198
(dp199
g18
I222
sbasg23
I222
sbasg7
g166
sg42
Nsba(i__main__
Chain
p200
(dp201
g3
(lp202
(i__main__
Mention
p203
(dp204
g7
S't5'
p205
sg9
Nsg10
S'i7'
p206
sg12
Nsg13
Nsg14
(lp207
(i__main__
Token
p208
(dp209
g18
I19
sba(i__main__
Token
p210
(dp211
g18
I20
sba(i__main__
Token
p212
(dp213
g18
I21
sbasg23
I21
sba(i__main__
Mention
p214
(dp215
g7
S't5'
p216
sg9
S'Anaphora-C'
p217
sg10
S'i8'
p218
sg12
S'i7'
p219
sg13
Nsg14
(lp220
(i__main__
Token
p221
(dp222
g18
I23
sbasg23
I23
sba(i__main__
Mention
p223
(dp224
g7
S't5'
p225
sg9
S'Coreference-Identity'
p226
sg10
S'i9'
p227
sg12
S'i8'
p228
sg13
Nsg14
(lp229
(i__main__
Token
p230
(dp231
g18
I29
sbasg23
I29
sba(i__main__
Mention
p232
(dp233
g7
S't5'
p234
sg9
S'Coreference-Identity'
p235
sg10
S'i21'
p236
sg12
S'i9'
p237
sg13
Nsg14
(lp238
(i__main__
Token
p239
(dp240
g18
I65
sbasg23
I65
sba(i__main__
Mention
p241
(dp242
g7
S't5'
p243
sg9
S'Coreference-Identity'
p244
sg10
S'i34'
p245
sg12
S'i21'
p246
sg13
Nsg14
(lp247
(i__main__
Token
p248
(dp249
g18
I107
sba(i__main__
Token
p250
(dp251
g18
I108
sbasg23
I108
sba(i__main__
Mention
p252
(dp253
g7
S't5'
p254
sg9
S'Coreference-Identity'
p255
sg10
S'i38'
p256
sg12
S'i34'
p257
sg13
Nsg14
(lp258
(i__main__
Token
p259
(dp260
g18
I115
sbasg23
I115
sba(i__main__
Mention
p261
(dp262
g7
S't5'
p263
sg9
S'Coreference-Identity'
p264
sg10
S'i44'
p265
sg12
S'i38'
p266
sg13
Nsg14
(lp267
(i__main__
Token
p268
(dp269
g18
I137
sbasg23
I137
sba(i__main__
Mention
p270
(dp271
g7
S't5'
p272
sg9
S'Coreference-Identity'
p273
sg10
S'i56'
p274
sg12
S'i44'
p275
sg13
Nsg14
(lp276
(i__main__
Token
p277
(dp278
g18
I168
sbasg23
I168
sba(i__main__
Mention
p279
(dp280
g7
S't5'
p281
sg9
S'Coreference-Identity'
p282
sg10
S'i58'
p283
sg12
S'i56'
p284
sg13
Nsg14
(lp285
(i__main__
Token
p286
(dp287
g18
I175
sbasg23
I175
sba(i__main__
Mention
p288
(dp289
g7
S't5'
p290
sg9
S'Coreference-Identity'
p291
sg10
S'i73'
p292
sg12
S'i58'
p293
sg13
Nsg14
(lp294
(i__main__
Token
p295
(dp296
g18
I248
sba(i__main__
Token
p297
(dp298
g18
I249
sbasg23
I249
sbasg7
g205
sg42
Nsba(i__main__
Chain
p299
(dp300
g3
(lp301
(i__main__
Mention
p302
(dp303
g7
S't6'
p304
sg9
Nsg10
S'i10'
p305
sg12
Nsg13
Nsg14
(lp306
(i__main__
Token
p307
(dp308
g18
I34
sbasg23
I34
sba(i__main__
Mention
p309
(dp310
g7
S't6'
p311
sg9
S'Anaphora-RT'
p312
sg10
S'i12'
p313
sg12
S'i10'
p314
sg13
Nsg14
(lp315
(i__main__
Token
p316
(dp317
g18
I36
sba(i__main__
Token
p318
(dp319
g18
I37
sba(i__main__
Token
p320
(dp321
g18
I38
sba(i__main__
Token
p322
(dp323
g18
I39
sba(i__main__
Token
p324
(dp325
g18
I40
sbasg23
I39
sba(i__main__
Mention
p326
(dp327
g7
S't6'
p328
sg9
S'Anaphora-T'
p329
sg10
S'i13'
p330
sg12
S'i12'
p331
sg13
Nsg14
(lp332
(i__main__
Token
p333
(dp334
g18
I41
sbasg23
I41
sbasg7
g304
sg42
Nsba(i__main__
Chain
p335
(dp336
g3
(lp337
(i__main__
Mention
p338
(dp339
g7
S't7'
p340
sg9
S'anaphora-?'
p341
sg10
S'i15'
p342
sg12
S'i15'
p343
sg13
Nsg14
(lp344
(i__main__
Token
p345
(dp346
g18
I43
sbasg23
I43
sbasg7
g340
sg42
Nsba(i__main__
Chain
p347
(dp348
g3
(lp349
(i__main__
Mention
p350
(dp351
g7
S't8'
p352
sg9
S'anaphora-?'
p353
sg10
S'i16'
p354
sg12
S'i16'
p355
sg13
Nsg14
(lp356
(i__main__
Token
p357
(dp358
g18
I47
sbasg23
I47
sbasg7
g352
sg42
Nsba(i__main__
Chain
p359
(dp360
g3
(lp361
(i__main__
Mention
p362
(dp363
g7
S't9'
p364
sg9
Nsg10
S'i17'
p365
sg12
Nsg13
Nsg14
(lp366
(i__main__
Token
p367
(dp368
g18
I48
sbasg23
I48
sba(i__main__
Mention
p369
(dp370
g7
S't9'
p371
sg9
S'Coreference-Identity'
p372
sg10
S'i43'
p373
sg12
S'i17'
p374
sg13
Nsg14
(lp375
(i__main__
Token
p376
(dp377
g18
I130
sbasg23
I130
sba(i__main__
Mention
p378
(dp379
g7
S't9'
p380
sg9
S'Coreference-Identity'
p381
sg10
S'i65'
p382
sg12
S'i43'
p383
sg13
Nsg14
(lp384
(i__main__
Token
p385
(dp386
g18
I204
sbasg23
I204
sbasg7
g364
sg42
Nsba(i__main__
Chain
p387
(dp388
g3
(lp389
(i__main__
Mention
p390
(dp391
g7
S't10'
p392
sg9
Nsg10
S'i18'
p393
sg12
Nsg13
Nsg14
(lp394
(i__main__
Token
p395
(dp396
g18
I54
sbasg23
I54
sba(i__main__
Mention
p397
(dp398
g7
S't10'
p399
sg9
S'Coreference-Identity'
p400
sg10
S'i32'
p401
sg12
S'i18'
p402
sg13
Nsg14
(lp403
(i__main__
Token
p404
(dp405
g18
I95
sbasg23
I95
sba(i__main__
Mention
p406
(dp407
g7
S't10'
p408
sg9
S'Coreference-Identity'
p409
sg10
S'i45'
p410
sg12
S'i32'
p411
sg13
Nsg14
(lp412
(i__main__
Token
p413
(dp414
g18
I139
sbasg23
I139
sba(i__main__
Mention
p415
(dp416
g7
S't10'
p417
sg9
S'Coreference-Identity'
p418
sg10
S'i66'
p419
sg12
S'i45'
p420
sg13
Nsg14
(lp421
(i__main__
Token
p422
(dp423
g18
I210
sbasg23
I210
sba(i__main__
Mention
p424
(dp425
g7
S't10'
p426
sg9
S'Coreference-Identity'
p427
sg10
S'i74'
p428
sg12
S'i66'
p429
sg13
Nsg14
(lp430
(i__main__
Token
p431
(dp432
g18
I255
sbasg23
I255
sbasg7
g392
sg42
Nsba(i__main__
Chain
p433
(dp434
g3
(lp435
(i__main__
Mention
p436
(dp437
g7
S't11'
p438
sg9
Nsg10
S'i19'
p439
sg12
Nsg13
Nsg14
(lp440
(i__main__
Token
p441
(dp442
g18
I57
sba(i__main__
Token
p443
(dp444
g18
I58
sbasg23
I58
sba(i__main__
Mention
p445
(dp446
g7
S't11'
p447
sg9
S'Anaphora-C'
p448
sg10
S'i31'
p449
sg12
S'i19'
p450
sg13
Nsg14
(lp451
(i__main__
Token
p452
(dp453
g18
I91
sbasg23
I91
sba(i__main__
Mention
p454
(dp455
g7
S't11'
p456
sg9
S'Coreference-Identity'
p457
sg10
S'i33'
p458
sg12
S'i31'
p459
sg13
Nsg14
(lp460
(i__main__
Token
p461
(dp462
g18
I100
sba(i__main__
Token
p463
(dp464
g18
I101
sbasg23
I101
sbasg7
g438
sg42
Nsba(i__main__
Chain
p465
(dp466
g3
(lp467
(i__main__
Mention
p468
(dp469
g7
S't12'
p470
sg9
Nsg10
S'i20'
p471
sg12
Nsg13
Nsg14
(lp472
(i__main__
Token
p473
(dp474
g18
I63
sbasg23
I63
sba(i__main__
Mention
p475
(dp476
g7
S't12'
p477
sg9
S'Coreference-Identity'
p478
sg10
S'i60'
p479
sg12
S'i20'
p480
sg13
Nsg14
(lp481
(i__main__
Token
p482
(dp483
g18
I185
sbasg23
I185
sbasg7
g470
sg42
Nsba(i__main__
Chain
p484
(dp485
g3
(lp486
(i__main__
Mention
p487
(dp488
g7
S't13'
p489
sg9
Nsg10
S'i22'
p490
sg12
Nsg13
Nsg14
(lp491
(i__main__
Token
p492
(dp493
g18
I67
sbasg23
I67
sba(i__main__
Mention
p494
(dp495
g7
S't13'
p496
sg9
S'Coreference-NounComplement'
p497
sg10
S'i23'
p498
sg12
S'i22'
p499
sg13
Nsg14
(lp500
(i__main__
Token
p501
(dp502
g18
I68
sba(i__main__
Token
p503
(dp504
g18
I69
sbasg23
I69
sba(i__main__
Mention
p505
(dp506
g7
S't13'
p507
sg9
S'Coreference-Noun-Noun'
p508
sg10
S'i59'
p509
sg12
S'i23'
p510
sg13
Nsg14
(lp511
(i__main__
Token
p512
(dp513
g18
I177
sbasg23
I177
sbasg7
g489
sg42
Nsba(i__main__
Chain
p514
(dp515
g3
(lp516
(i__main__
Mention
p517
(dp518
g7
S't14'
p519
sg9
Nsg10
S'i25'
p520
sg12
Nsg13
Nsg14
(lp521
(i__main__
Token
p522
(dp523
g18
I79
sba(i__main__
Token
p524
(dp525
g18
I80
sbasg23
I80
sba(i__main__
Mention
p526
(dp527
g7
S't14'
p528
sg9
S'Coreference-Identity'
p529
sg10
S'i29'
p530
sg12
S'i25'
p531
sg13
Nsg14
(lp532
(i__main__
Token
p533
(dp534
g18
I87
sba(i__main__
Token
p535
(dp536
g18
I88
sbasg23
I88
sba(i__main__
Mention
p537
(dp538
g7
S't14'
p539
sg9
S'Coreference-Identity'
p540
sg10
S'i40'
p541
sg12
S'i29'
p542
sg13
Nsg14
(lp543
(i__main__
Token
p544
(dp545
g18
I117
sba(i__main__
Token
p546
(dp547
g18
I118
sba(i__main__
Token
p548
(dp549
g18
I119
sba(i__main__
Token
p550
(dp551
g18
I120
sbasg23
I120
sba(i__main__
Mention
p552
(dp553
g7
S't14'
p554
sg9
S'Coreference-Identity'
p555
sg10
S'i62'
p556
sg12
S'i40'
p557
sg13
Nsg14
(lp558
(i__main__
Token
p559
(dp560
g18
I190
sbasg23
I190
sba(i__main__
Mention
p561
(dp562
g7
S't14'
p563
sg9
S'Coreference-Identity'
p564
sg10
S'i76'
p565
sg12
S'i62'
p566
sg13
Nsg14
(lp567
(i__main__
Token
p568
(dp569
g18
I276
sba(i__main__
Token
p570
(dp571
g18
I277
sbasg23
I277
sba(i__main__
Mention
p572
(dp573
g7
S't14'
p574
sg9
S'Anaphora-C'
p575
sg10
S'i79'
p576
sg12
S'i76'
p577
sg13
Nsg14
(lp578
(i__main__
Token
p579
(dp580
g18
I284
sbasg23
I284
sba(i__main__
Mention
p581
(dp582
g7
S't14'
p583
sg9
S'Coreference-Identity'
p584
sg10
S'i83'
p585
sg12
S'i79'
p586
sg13
Nsg14
(lp587
(i__main__
Token
p588
(dp589
g18
I298
sba(i__main__
Token
p590
(dp591
g18
I299
sbasg23
I299
sbasg7
g519
sg42
Nsba(i__main__
Chain
p592
(dp593
g3
(lp594
(i__main__
Mention
p595
(dp596
g7
S't15'
p597
sg9
S'anaphora-?'
p598
sg10
S'i26'
p599
sg12
S'i26'
p600
sg13
Nsg14
(lp601
(i__main__
Token
p602
(dp603
g18
I79
sbasg23
I79
sbasg7
g597
sg42
Nsba(i__main__
Chain
p604
(dp605
g3
(lp606
(i__main__
Mention
p607
(dp608
g7
S't16'
p609
sg9
Nsg10
S'i27'
p610
sg12
Nsg13
Nsg14
(lp611
(i__main__
Token
p612
(dp613
g18
I82
sba(i__main__
Token
p614
(dp615
g18
I83
sbasg23
I83
sba(i__main__
Mention
p616
(dp617
g7
S't16'
p618
sg9
S'Coreference-Identity'
p619
sg10
S'i81'
p620
sg12
S'i27'
p621
sg13
Nsg14
(lp622
(i__main__
Token
p623
(dp624
g18
I288
sba(i__main__
Token
p625
(dp626
g18
I289
sbasg23
I289
sbasg7
g609
sg42
Nsba(i__main__
Chain
p627
(dp628
g3
(lp629
(i__main__
Mention
p630
(dp631
g7
S't17'
p632
sg9
Nsg10
S'i28'
p633
sg12
Nsg13
Nsg14
(lp634
(i__main__
Token
p635
(dp636
g18
I90
sbasg23
I90
sba(i__main__
Mention
p637
(dp638
g7
S't17'
p639
sg9
S'Coreference-Identity'
p640
sg10
S'i61'
p641
sg12
S'i46'
p642
sg13
Nsg14
(lp643
(i__main__
Token
p644
(dp645
g18
I187
sba(i__main__
Token
p646
(dp647
g18
I188
sbasg23
I188
sba(i__main__
Mention
p648
(dp649
g7
S't17'
p650
sg9
S'Coreference-Identity'
p651
sg10
S'i77'
p652
sg12
S'i61'
p653
sg13
Nsg14
(lp654
(i__main__
Token
p655
(dp656
g18
I279
sba(i__main__
Token
p657
(dp658
g18
I280
sbasg23
I280
sba(i__main__
Mention
p659
(dp660
g7
S't17'
p661
sg9
S'Anaphora-C'
p662
sg10
S'i78'
p663
sg12
S'i77'
p664
sg13
Nsg14
(lp665
(i__main__
Token
p666
(dp667
g18
I283
sbasg23
I283
sbasg7
g632
sg42
Nsba(i__main__
Chain
p668
(dp669
g3
(lp670
(i__main__
Mention
p671
(dp672
g7
S't18'
p673
sg9
S'anaphora-E'
p674
sg10
S'i35'
p675
sg12
S'i36'
p676
sg13
Nsg14
(lp677
(i__main__
Token
p678
(dp679
g18
I109
sbasg23
I109
sba(i__main__
Mention
p680
(dp681
g7
S't18'
p682
sg9
S'Anaphora-C'
p683
sg10
S'i41'
p684
sg12
S'i35'
p685
sg13
Nsg14
(lp686
(i__main__
Token
p687
(dp688
g18
I127
sbasg23
I127
sbasg7
g673
sg42
Nsba(i__main__
Chain
p689
(dp690
g3
(lp691
(i__main__
Mention
p692
(dp693
g7
S't19'
p694
sg9
S'anaphora-?'
p695
sg10
S'i37'
p696
sg12
S'i37'
p697
sg13
Nsg14
(lp698
(i__main__
Token
p699
(dp700
g18
I110
sbasg23
I110
sbasg7
g694
sg42
Nsba(i__main__
Chain
p701
(dp702
g3
(lp703
(i__main__
Mention
p704
(dp705
g7
S't20'
p706
sg9
Nsg10
S'i39'
p707
sg12
Nsg13
Nsg14
(lp708
(i__main__
Token
p709
(dp710
g18
I117
sbasg23
I117
sba(i__main__
Mention
p711
(dp712
g7
S't20'
p713
sg9
S'Coreference-Identity'
p714
sg10
S'i82'
p715
sg12
S'i39'
p716
sg13
Nsg14
(lp717
(i__main__
Token
p718
(dp719
g18
I292
sbasg23
I292
sbasg7
g706
sg42
Nsba(i__main__
Chain
p720
(dp721
g3
(lp722
(i__main__
Mention
p723
(dp724
g7
S't21'
p725
sg9
S'anaphora-?'
p726
sg10
S'i42'
p727
sg12
S'i42'
p728
sg13
Nsg14
(lp729
(i__main__
Token
p730
(dp731
g18
I129
sbasg23
I129
sbasg7
g725
sg42
Nsba(i__main__
Chain
p732
(dp733
g3
(lp734
(i__main__
Mention
p735
(dp736
g7
S't22'
p737
sg9
Nsg10
S'i46'
p738
sg12
Nsg13
Nsg14
(lp739
(i__main__
Token
p740
(dp741
g18
I141
sbasg23
I141
sba(i__main__
Mention
p742
(dp743
g7
S't22'
p744
sg9
Nsg10
S'i47'
p745
sg12
Nsg13
Nsg14
(lp746
(i__main__
Token
p747
(dp748
g18
I146
sba(i__main__
Token
p749
(dp750
g18
I147
sba(i__main__
Token
p751
(dp752
g18
I148
sba(i__main__
Token
p753
(dp754
g18
I149
sba(i__main__
Token
p755
(dp756
g18
I150
sba(i__main__
Token
p757
(dp758
g18
I151
sba(i__main__
Token
p759
(dp760
g18
I152
sba(i__main__
Token
p761
(dp762
g18
I153
sba(i__main__
Token
p763
(dp764
g18
I154
sba(i__main__
Token
p765
(dp766
g18
I155
sba(i__main__
Token
p767
(dp768
g18
I156
sba(i__main__
Token
p769
(dp770
g18
I157
sba(i__main__
Token
p771
(dp772
g18
I158
sba(i__main__
Token
p773
(dp774
g18
I159
sba(i__main__
Token
p775
(dp776
g18
I160
sba(i__main__
Token
p777
(dp778
g18
I161
sba(i__main__
Token
p779
(dp780
g18
I162
sba(i__main__
Token
p781
(dp782
g18
I163
sba(i__main__
Token
p783
(dp784
g18
I164
sbasg23
Nsbasg7
g737
sg42
Nsba(i__main__
Chain
p785
(dp786
g3
(lp787
(i__main__
Mention
p788
(dp789
g7
S't23'
p790
sg9
Nsg10
S'i49'
p791
sg12
Nsg13
Nsg14
(lp792
(i__main__
Token
p793
(dp794
g18
I152
sba(i__main__
Token
p795
(dp796
g18
I153
sbasg23
Nsba(i__main__
Mention
p797
(dp798
g7
S't23'
p799
sg9
S'Anaphora-C'
p800
sg10
S'i51'
p801
sg12
S'i49'
p802
sg13
Nsg14
(lp803
(i__main__
Token
p804
(dp805
g18
I156
sbasg23
I156
sbasg7
g790
sg42
Nsba(i__main__
Chain
p806
(dp807
g3
(lp808
(i__main__
Mention
p809
(dp810
g7
S't24'
p811
sg9
Nsg10
S'i50'
p812
sg12
Nsg13
Nsg14
(lp813
(i__main__
Token
p814
(dp815
g18
I153
sbasg23
Nsbasg7
g811
sg42
Nsba(i__main__
Chain
p816
(dp817
g3
(lp818
(i__main__
Mention
p819
(dp820
g7
S't25'
p821
sg9
Nsg10
S'i52'
p822
sg12
Nsg13
Nsg14
(lp823
(i__main__
Token
p824
(dp825
g18
I156
sba(i__main__
Token
p826
(dp827
g18
I157
sba(i__main__
Token
p828
(dp829
g18
I158
sba(i__main__
Token
p830
(dp831
g18
I159
sba(i__main__
Token
p832
(dp833
g18
I160
sba(i__main__
Token
p834
(dp835
g18
I161
sba(i__main__
Token
p836
(dp837
g18
I162
sba(i__main__
Token
p838
(dp839
g18
I163
sba(i__main__
Token
p840
(dp841
g18
I164
sbasg23
Nsba(i__main__
Mention
p842
(dp843
g7
S't25'
p844
sg9
S'Anaphora-E'
p845
sg10
S'i54'
p846
sg12
S'i52'
p847
sg13
Nsg14
(lp848
(i__main__
Token
p849
(dp850
g18
I167
sbasg23
I167
sbasg7
g821
sg42
Nsba(i__main__
Chain
p851
(dp852
g3
(lp853
(i__main__
Mention
p854
(dp855
g7
S't26'
p856
sg9
S'anaphora-?'
p857
sg10
S'i57'
p858
sg12
S'i57'
p859
sg13
Nsg14
(lp860
(i__main__
Token
p861
(dp862
g18
I170
sbasg23
I170
sbasg7
g856
sg42
Nsba(i__main__
Chain
p863
(dp864
g3
(lp865
(i__main__
Mention
p866
(dp867
g7
S't27'
p868
sg9
S'anaphora-?'
p869
sg10
S'i64'
p870
sg12
S'i64'
p871
sg13
Nsg14
(lp872
(i__main__
Token
p873
(dp874
g18
I203
sbasg23
I203
sbasg7
g868
sg42
Nsba(i__main__
Chain
p875
(dp876
g3
(lp877
(i__main__
Mention
p878
(dp879
g7
S't28'
p880
sg9
Nsg10
S'i71'
p881
sg12
Nsg13
Nsg14
(lp882
(i__main__
Token
p883
(dp884
g18
I238
sba(i__main__
Token
p885
(dp886
g18
I239
sbasg23
I239
sba(i__main__
Mention
p887
(dp888
g7
S't28'
p889
sg9
S'Anaphora-C'
p890
sg10
S'i72'
p891
sg12
S'i71'
p892
sg13
Nsg14
(lp893
(i__main__
Token
p894
(dp895
g18
I246
sbasg23
I246
sbasg7
g880
sg42
Nsba(i__main__
Chain
p896
(dp897
g3
(lp898
(i__main__
Mention
p899
(dp900
g7
S't29'
p901
sg9
Nsg10
S'i84'
p902
sg12
Nsg13
Nsg14
(lp903
(i__main__
Token
p904
(dp905
g18
I301
sba(i__main__
Token
p906
(dp907
g18
I302
sba(i__main__
Token
p908
(dp909
g18
I303
sbasg23
I303
sba(i__main__
Mention
p910
(dp911
g7
S't29'
p912
sg9
S'Anaphora-C'
p913
sg10
S'i85'
p914
sg12
S'i84'
p915
sg13
Nsg14
(lp916
(i__main__
Token
p917
(dp918
g18
I307
sbasg23
I307
sbasg7
g901
sg42
Nsba.