(lp0
(i__main__
Chain
p1
(dp2
S'mentionList'
p3
(lp4
(i__main__
Mention
p5
(dp6
S'chainId'
p7
S't1'
p8
sS'relType'
p9
NsS'mentionId'
p10
S'i1'
p11
sS'antecedentId'
p12
NsS'crefMod'
p13
NsS'tokenList'
p14
(lp15
(i__main__
Token
p16
(dp17
S'tokenId'
p18
I0
sba(i__main__
Token
p19
(dp20
g18
I1
sbasS'mentionHead'
p21
I1
sba(i__main__
Mention
p22
(dp23
g7
S't1'
p24
sg9
S'Anaphora-C'
p25
sg10
S'i7'
p26
sg12
S'i1'
p27
sg13
Nsg14
(lp28
(i__main__
Token
p29
(dp30
g18
I26
sbasg21
I26
sba(i__main__
Mention
p31
(dp32
g7
S't1'
p33
sg9
S'Coreference-Noun-Noun'
p34
sg10
S'i9'
p35
sg12
S'i7'
p36
sg13
Nsg14
(lp37
(i__main__
Token
p38
(dp39
g18
I27
sba(i__main__
Token
p40
(dp41
g18
I28
sbasg21
I28
sba(i__main__
Mention
p42
(dp43
g7
S't1'
p44
sg9
S'Coreference-Identity'
p45
sg10
S'i13'
p46
sg12
S'i9'
p47
sg13
Nsg14
(lp48
(i__main__
Token
p49
(dp50
g18
I49
sbasg21
I49
sba(i__main__
Mention
p51
(dp52
g7
S't1'
p53
sg9
S'Anaphora-C'
p54
sg10
S'i14'
p55
sg12
S'i13'
p56
sg13
Nsg14
(lp57
(i__main__
Token
p58
(dp59
g18
I56
sbasg21
I56
sba(i__main__
Mention
p60
(dp61
g7
S't1'
p62
sg9
S'Coreference-Identity'
p63
sg10
S'i18'
p64
sg12
S'i14'
p65
sg13
Nsg14
(lp66
(i__main__
Token
p67
(dp68
g18
I78
sbasg21
I78
sba(i__main__
Mention
p69
(dp70
g7
S't1'
p71
sg9
S'Coreference-Identity'
p72
sg10
S'i23'
p73
sg12
S'i18'
p74
sg13
Nsg14
(lp75
(i__main__
Token
p76
(dp77
g18
I107
sbasg21
I107
sba(i__main__
Mention
p78
(dp79
g7
S't1'
p80
sg9
S'Anaphora-C'
p81
sg10
S'i26'
p82
sg12
S'i23'
p83
sg13
Nsg14
(lp84
(i__main__
Token
p85
(dp86
g18
I125
sbasg21
I125
sba(i__main__
Mention
p87
(dp88
g7
S't1'
p89
sg9
S'Coreference-Identity'
p90
sg10
S'i29'
p91
sg12
S'i26'
p92
sg13
Nsg14
(lp93
(i__main__
Token
p94
(dp95
g18
I148
sbasg21
I148
sba(i__main__
Mention
p96
(dp97
g7
S't1'
p98
sg9
S'Coreference-Identity'
p99
sg10
S'i32'
p100
sg12
S'i29'
p101
sg13
Nsg14
(lp102
(i__main__
Token
p103
(dp104
g18
I169
sbasg21
I169
sba(i__main__
Mention
p105
(dp106
g7
S't1'
p107
sg9
S'Anaphora-C'
p108
sg10
S'i33'
p109
sg12
S'i32'
p110
sg13
Nsg14
(lp111
(i__main__
Token
p112
(dp113
g18
I173
sbasg21
I173
sba(i__main__
Mention
p114
(dp115
g7
S't1'
p116
sg9
S'Anaphora-C'
p117
sg10
S'i37'
p118
sg12
S'i33'
p119
sg13
Nsg14
(lp120
(i__main__
Token
p121
(dp122
g18
I187
sbasg21
I187
sba(i__main__
Mention
p123
(dp124
g7
S't1'
p125
sg9
S'Anaphora-C'
p126
sg10
S'i41'
p127
sg12
S'i37'
p128
sg13
Nsg14
(lp129
(i__main__
Token
p130
(dp131
g18
I194
sbasg21
I194
sba(i__main__
Mention
p132
(dp133
g7
S't1'
p134
sg9
S'Coreference-Identity'
p135
sg10
S'i46'
p136
sg12
S'i41'
p137
sg13
Nsg14
(lp138
(i__main__
Token
p139
(dp140
g18
I213
sbasg21
I213
sba(i__main__
Mention
p141
(dp142
g7
S't1'
p143
sg9
S'Anaphora-C'
p144
sg10
S'i48'
p145
sg12
S'i46'
p146
sg13
Nsg14
(lp147
(i__main__
Token
p148
(dp149
g18
I227
sbasg21
I227
sba(i__main__
Mention
p150
(dp151
g7
S't1'
p152
sg9
S'Anaphora-C'
p153
sg10
S'i50'
p154
sg12
S'i48'
p155
sg13
Nsg14
(lp156
(i__main__
Token
p157
(dp158
g18
I251
sbasg21
I251
sba(i__main__
Mention
p159
(dp160
g7
S't1'
p161
sg9
S'Anaphora-C'
p162
sg10
S'i51'
p163
sg12
S'i50'
p164
sg13
Nsg14
(lp165
(i__main__
Token
p166
(dp167
g18
I260
sbasg21
I260
sba(i__main__
Mention
p168
(dp169
g7
S't1'
p170
sg9
S'Anaphora-C'
p171
sg10
S'i57'
p172
sg12
S'i51'
p173
sg13
Nsg14
(lp174
(i__main__
Token
p175
(dp176
g18
I288
sbasg21
I288
sba(i__main__
Mention
p177
(dp178
g7
S't1'
p179
sg9
S'Coreference-Identity'
p180
sg10
S'i58'
p181
sg12
S'i57'
p182
sg13
Nsg14
(lp183
(i__main__
Token
p184
(dp185
g18
I295
sba(i__main__
Token
p186
(dp187
g18
I296
sbasg21
I296
sba(i__main__
Mention
p188
(dp189
g7
S't1'
p190
sg9
S'Anaphora-C'
p191
sg10
S'i60'
p192
sg12
S'i58'
p193
sg13
Nsg14
(lp194
(i__main__
Token
p195
(dp196
g18
I307
sbasg21
I307
sba(i__main__
Mention
p197
(dp198
g7
S't1'
p199
sg9
S'Coreference-Identity'
p200
sg10
S'i66'
p201
sg12
S'i60'
p202
sg13
Nsg14
(lp203
(i__main__
Token
p204
(dp205
g18
I337
sbasg21
I337
sba(i__main__
Mention
p206
(dp207
g7
S't1'
p208
sg9
S'Anaphora-C'
p209
sg10
S'i67'
p210
sg12
S'i66'
p211
sg13
Nsg14
(lp212
(i__main__
Token
p213
(dp214
g18
I339
sbasg21
I339
sba(i__main__
Mention
p215
(dp216
g7
S't1'
p217
sg9
S'Anaphora-C'
p218
sg10
S'i70'
p219
sg12
S'i67'
p220
sg13
Nsg14
(lp221
(i__main__
Token
p222
(dp223
g18
I346
sbasg21
I346
sba(i__main__
Mention
p224
(dp225
g7
S't1'
p226
sg9
S'Coreference-Noun-Noun'
p227
sg10
S'i72'
p228
sg12
S'i70'
p229
sg13
Nsg14
(lp230
(i__main__
Token
p231
(dp232
g18
I354
sbasg21
I354
sba(i__main__
Mention
p233
(dp234
g7
S't1'
p235
sg9
S'Coreference-NounComplement'
p236
sg10
S'i73'
p237
sg12
S'i72'
p238
sg13
Nsg14
(lp239
(i__main__
Token
p240
(dp241
g18
I355
sba(i__main__
Token
p242
(dp243
g18
I356
sbasg21
I356
sba(i__main__
Mention
p244
(dp245
g7
S't1'
p246
sg9
S'Coreference-Identity'
p247
sg10
S'i74'
p248
sg12
S'i73'
p249
sg13
Nsg14
(lp250
(i__main__
Token
p251
(dp252
g18
I365
sbasg21
I365
sba(i__main__
Mention
p253
(dp254
g7
S't1'
p255
sg9
S'Coreference-Identity'
p256
sg10
S'i80'
p257
sg12
S'i74'
p258
sg13
Nsg14
(lp259
(i__main__
Token
p260
(dp261
g18
I402
sbasg21
I402
sbasg7
g8
sS'chainHead'
p262
Nsba(i__main__
Chain
p263
(dp264
g3
(lp265
(i__main__
Mention
p266
(dp267
g7
S't2'
p268
sg9
Nsg10
S'i2'
p269
sg12
Nsg13
Nsg14
(lp270
(i__main__
Token
p271
(dp272
g18
I4
sbasg21
I4
sba(i__main__
Mention
p273
(dp274
g7
S't2'
p275
sg9
S'Coreference-Identity'
p276
sg10
S'i24'
p277
sg12
S'i2'
p278
sg13
Nsg14
(lp279
(i__main__
Token
p280
(dp281
g18
I115
sbasg21
I115
sba(i__main__
Mention
p282
(dp283
g7
S't2'
p284
sg9
S'Coreference-Identity'
p285
sg10
S'i39'
p286
sg12
S'i24'
p287
sg13
Nsg14
(lp288
(i__main__
Token
p289
(dp290
g18
I188
sbasg21
I188
sba(i__main__
Mention
p291
(dp292
g7
S't2'
p293
sg9
S'Coreference-Identity'
p294
sg10
S'i69'
p295
sg12
S'i39'
p296
sg13
Nsg14
(lp297
(i__main__
Token
p298
(dp299
g18
I340
sba(i__main__
Token
p300
(dp301
g18
I341
sbasg21
I341
sba(i__main__
Mention
p302
(dp303
g7
S't2'
p304
sg9
S'Coreference-Identity'
p305
sg10
S'i81'
p306
sg12
S'i69'
p307
sg13
Nsg14
(lp308
(i__main__
Token
p309
(dp310
g18
I412
sbasg21
I412
sbasg7
g268
sg262
Nsba(i__main__
Chain
p311
(dp312
g3
(lp313
(i__main__
Mention
p314
(dp315
g7
S't3'
p316
sg9
Nsg10
S'i3'
p317
sg12
Nsg13
Nsg14
(lp318
(i__main__
Token
p319
(dp320
g18
I7
sbasg21
I7
sba(i__main__
Mention
p321
(dp322
g7
S't3'
p323
sg9
S'Coreference-Identity'
p324
sg10
S'i10'
p325
sg12
S'i3'
p326
sg13
Nsg14
(lp327
(i__main__
Token
p328
(dp329
g18
I30
sbasg21
I30
sba(i__main__
Mention
p330
(dp331
g7
S't3'
p332
sg9
S'Coreference-Identity'
p333
sg10
S'i15'
p334
sg12
S'i10'
p335
sg13
Nsg14
(lp336
(i__main__
Token
p337
(dp338
g18
I57
sbasg21
I57
sba(i__main__
Mention
p339
(dp340
g7
S't3'
p341
sg9
S'Coreference-Identity'
p342
sg10
S'i25'
p343
sg12
S'i15'
p344
sg13
Nsg14
(lp345
(i__main__
Token
p346
(dp347
g18
I117
sbasg21
I117
sba(i__main__
Mention
p348
(dp349
g7
S't3'
p350
sg9
S'Coreference-Noun-Noun'
p351
sg10
S'i31'
p352
sg12
S'i25'
p353
sg13
Nsg14
(lp354
(i__main__
Token
p355
(dp356
g18
I162
sba(i__main__
Token
p357
(dp358
g18
I163
sbasg21
I163
sba(i__main__
Mention
p359
(dp360
g7
S't3'
p361
sg9
S'Coreference-Identity'
p362
sg10
S'i40'
p363
sg12
S'i31'
p364
sg13
Nsg14
(lp365
(i__main__
Token
p366
(dp367
g18
I190
sbasg21
I190
sba(i__main__
Mention
p368
(dp369
g7
S't3'
p370
sg9
S'Coreference-Identity'
p371
sg10
S'i59'
p372
sg12
S'i40'
p373
sg13
Nsg14
(lp374
(i__main__
Token
p375
(dp376
g18
I297
sbasg21
I297
sba(i__main__
Mention
p377
(dp378
g7
S't3'
p379
sg9
S'Coreference-Identity'
p380
sg10
S'i82'
p381
sg12
S'i59'
p382
sg13
Nsg14
(lp383
(i__main__
Token
p384
(dp385
g18
I414
sbasg21
I414
sbasg7
g316
sg262
Nsba(i__main__
Chain
p386
(dp387
g3
(lp388
(i__main__
Mention
p389
(dp390
g7
S't4'
p391
sg9
Nsg10
S'i4'
p392
sg12
Nsg13
Nsg14
(lp393
(i__main__
Token
p394
(dp395
g18
I13
sba(i__main__
Token
p396
(dp397
g18
I14
sba(i__main__
Token
p398
(dp399
g18
I15
sbasg21
I15
sba(i__main__
Mention
p400
(dp401
g7
S't4'
p402
sg9
S'Coreference-Identity'
p403
sg10
S'i19'
p404
sg12
S'i4'
p405
sg13
Nsg14
(lp406
(i__main__
Token
p407
(dp408
g18
I89
sbasg21
I89
sbasg7
g391
sg262
Nsba(i__main__
Chain
p409
(dp410
g3
(lp411
(i__main__
Mention
p412
(dp413
g7
S't5'
p414
sg9
Nsg10
S'i5'
p415
sg12
Nsg13
Nsg14
(lp416
(i__main__
Token
p417
(dp418
g18
I13
sba(i__main__
Token
p419
(dp420
g18
I14
sbasg21
I14
sba(i__main__
Mention
p421
(dp422
g7
S't5'
p423
sg9
S'Coreference-Identity'
p424
sg10
S'i52'
p425
sg12
S'i5'
p426
sg13
Nsg14
(lp427
(i__main__
Token
p428
(dp429
g18
I273
sba(i__main__
Token
p430
(dp431
g18
I274
sbasg21
I274
sba(i__main__
Mention
p432
(dp433
g7
S't5'
p434
sg9
S'Coreference-Identity'
p435
sg10
S'i71'
p436
sg12
S'i52'
p437
sg13
Nsg14
(lp438
(i__main__
Token
p439
(dp440
g18
I349
sbasg21
I349
sba(i__main__
Mention
p441
(dp442
g7
S't5'
p443
sg9
S'Coreference-Identity'
p444
sg10
S'i79'
p445
sg12
S'i71'
p446
sg13
Nsg14
(lp447
(i__main__
Token
p448
(dp449
g18
I393
sba(i__main__
Token
p450
(dp451
g18
I394
sbasg21
I394
sbasg7
g414
sg262
Nsba(i__main__
Chain
p452
(dp453
g3
(lp454
(i__main__
Mention
p455
(dp456
g7
S't6'
p457
sg9
Nsg10
S'i6'
p458
sg12
Nsg13
Nsg14
(lp459
(i__main__
Token
p460
(dp461
g18
I25
sbasg21
I25
sba(i__main__
Mention
p462
(dp463
g7
S't6'
p464
sg9
S'Anaphora-RT'
p465
sg10
S'i8'
p466
sg12
S'i6'
p467
sg13
Nsg14
(lp468
(i__main__
Token
p469
(dp470
g18
I26
sba(i__main__
Token
p471
(dp472
g18
I27
sba(i__main__
Token
p473
(dp474
g18
I28
sba(i__main__
Token
p475
(dp476
g18
I29
sba(i__main__
Token
p477
(dp478
g18
I30
sba(i__main__
Token
p479
(dp480
g18
I31
sba(i__main__
Token
p481
(dp482
g18
I32
sba(i__main__
Token
p483
(dp484
g18
I33
sba(i__main__
Token
p485
(dp486
g18
I34
sba(i__main__
Token
p487
(dp488
g18
I35
sba(i__main__
Token
p489
(dp490
g18
I36
sbasg21
I35
sbasg7
g457
sg262
Nsba(i__main__
Chain
p491
(dp492
g3
(lp493
(i__main__
Mention
p494
(dp495
g7
S't7'
p496
sg9
Nsg10
S'i11'
p497
sg12
Nsg13
Nsg14
(lp498
(i__main__
Token
p499
(dp500
g18
I38
sbasg21
I38
sba(i__main__
Mention
p501
(dp502
g7
S't7'
p503
sg9
S'Coreference-Identity'
p504
sg10
S'i27'
p505
sg12
S'i11'
p506
sg13
Nsg14
(lp507
(i__main__
Token
p508
(dp509
g18
I140
sbasg21
I140
sba(i__main__
Mention
p510
(dp511
g7
S't7'
p512
sg9
S'Coreference-Identity'
p513
sg10
S'i47'
p514
sg12
S'i27'
p515
sg13
Nsg14
(lp516
(i__main__
Token
p517
(dp518
g18
I215
sbasg21
I215
sba(i__main__
Mention
p519
(dp520
g7
S't7'
p521
sg9
S'Coreference-Identity'
p522
sg10
S'i49'
p523
sg12
S'i47'
p524
sg13
Nsg14
(lp525
(i__main__
Token
p526
(dp527
g18
I230
sbasg21
I230
sba(i__main__
Mention
p528
(dp529
g7
S't7'
p530
sg9
S'Coreference-Identity'
p531
sg10
S'i78'
p532
sg12
S'i49'
p533
sg13
Nsg14
(lp534
(i__main__
Token
p535
(dp536
g18
I387
sbasg21
I387
sbasg7
g496
sg262
Nsba(i__main__
Chain
p537
(dp538
g3
(lp539
(i__main__
Mention
p540
(dp541
g7
S't8'
p542
sg9
Nsg10
S'i12'
p543
sg12
Nsg13
Nsg14
(lp544
(i__main__
Token
p545
(dp546
g18
I38
sba(i__main__
Token
p547
(dp548
g18
I39
sba(i__main__
Token
p549
(dp550
g18
I40
sba(i__main__
Token
p551
(dp552
g18
I41
sba(i__main__
Token
p553
(dp554
g18
I42
sba(i__main__
Token
p555
(dp556
g18
I43
sba(i__main__
Token
p557
(dp558
g18
I44
sba(i__main__
Token
p559
(dp560
g18
I45
sbasg21
I45
sba(i__main__
Mention
p561
(dp562
g7
S't8'
p563
sg9
S'Coreference-Identity'
p564
sg10
S'i28'
p565
sg12
S'i12'
p566
sg13
Nsg14
(lp567
(i__main__
Token
p568
(dp569
g18
I142
sba(i__main__
Token
p570
(dp571
g18
I143
sbasg21
I143
sba(i__main__
Mention
p572
(dp573
g7
S't8'
p574
sg9
S'Anaphora-C'
p575
sg10
S'i30'
p576
sg12
S'i28'
p577
sg13
Nsg14
(lp578
(i__main__
Token
p579
(dp580
g18
I155
sbasg21
I155
sbasg7
g542
sg262
Nsba(i__main__
Chain
p581
(dp582
g3
(lp583
(i__main__
Mention
p584
(dp585
g7
S't9'
p586
sg9
Nsg10
S'i16'
p587
sg12
Nsg13
Nsg14
(lp588
(i__main__
Token
p589
(dp590
g18
I61
sbasg21
I61
sba(i__main__
Mention
p591
(dp592
g7
S't9'
p593
sg9
S'Anaphora-RC'
p594
sg10
S'i17'
p595
sg12
S'i16'
p596
sg13
Nsg14
(lp597
(i__main__
Token
p598
(dp599
g18
I66
sba(i__main__
Token
p600
(dp601
g18
I67
sba(i__main__
Token
p602
(dp603
g18
I68
sba(i__main__
Token
p604
(dp605
g18
I69
sba(i__main__
Token
p606
(dp607
g18
I70
sba(i__main__
Token
p608
(dp609
g18
I71
sba(i__main__
Token
p610
(dp611
g18
I72
sba(i__main__
Token
p612
(dp613
g18
I73
sba(i__main__
Token
p614
(dp615
g18
I74
sba(i__main__
Token
p616
(dp617
g18
I75
sba(i__main__
Token
p618
(dp619
g18
I76
sba(i__main__
Token
p620
(dp621
g18
I77
sba(i__main__
Token
p622
(dp623
g18
I78
sba(i__main__
Token
p624
(dp625
g18
I79
sba(i__main__
Token
p626
(dp627
g18
I80
sba(i__main__
Token
p628
(dp629
g18
I81
sba(i__main__
Token
p630
(dp631
g18
I82
sba(i__main__
Token
p632
(dp633
g18
I83
sba(i__main__
Token
p634
(dp635
g18
I84
sba(i__main__
Token
p636
(dp637
g18
I85
sba(i__main__
Token
p638
(dp639
g18
I86
sbasg21
I85
sbasg7
g586
sg262
Nsba(i__main__
Chain
p640
(dp641
g3
(lp642
(i__main__
Mention
p643
(dp644
g7
S't10'
p645
sg9
S'anaphora-?'
p646
sg10
S'i20'
p647
sg12
S'i20'
p648
sg13
Nsg14
(lp649
(i__main__
Token
p650
(dp651
g18
I91
sbasg21
I91
sba(i__main__
Mention
p652
(dp653
g7
S't10'
p654
sg9
S'Anaphora-RC'
p655
sg10
S'i21'
p656
sg12
S'i20'
p657
sg13
Nsg14
(lp658
(i__main__
Token
p659
(dp660
g18
I98
sba(i__main__
Token
p661
(dp662
g18
I99
sba(i__main__
Token
p663
(dp664
g18
I100
sba(i__main__
Token
p665
(dp666
g18
I101
sba(i__main__
Token
p667
(dp668
g18
I102
sba(i__main__
Token
p669
(dp670
g18
I103
sba(i__main__
Token
p671
(dp672
g18
I104
sbasg21
I102
sbasg7
g645
sg262
Nsba(i__main__
Chain
p673
(dp674
g3
(lp675
(i__main__
Mention
p676
(dp677
g7
S't11'
p678
sg9
S'anaphora-?'
p679
sg10
S'i22'
p680
sg12
S'i22'
p681
sg13
Nsg14
(lp682
(i__main__
Token
p683
(dp684
g18
I100
sbasg21
I100
sbasg7
g678
sg262
Nsba(i__main__
Chain
p685
(dp686
g3
(lp687
(i__main__
Mention
p688
(dp689
g7
S't12'
p690
sg9
S'anaphora-C'
p691
sg10
S'i34'
p692
sg12
S'i35'
p693
sg13
Nsg14
(lp694
(i__main__
Token
p695
(dp696
g18
I174
sbasg21
I174
sbasg7
g690
sg262
Nsba(i__main__
Chain
p697
(dp698
g3
(lp699
(i__main__
Mention
p700
(dp701
g7
S't13'
p702
sg9
Nsg10
S'i36'
p703
sg12
Nsg13
Nsg14
(lp704
(i__main__
Token
p705
(dp706
g18
I183
sbasg21
I183
sba(i__main__
Mention
p707
(dp708
g7
S't13'
p709
sg9
S'Anaphora-RC'
p710
sg10
S'i38'
p711
sg12
S'i36'
p712
sg13
Nsg14
(lp713
(i__main__
Token
p714
(dp715
g18
I187
sba(i__main__
Token
p716
(dp717
g18
I188
sba(i__main__
Token
p718
(dp719
g18
I189
sba(i__main__
Token
p720
(dp721
g18
I190
sba(i__main__
Token
p722
(dp723
g18
I191
sba(i__main__
Token
p724
(dp725
g18
I192
sbasg21
I191
sbasg7
g702
sg262
Nsba(i__main__
Chain
p726
(dp727
g3
(lp728
(i__main__
Mention
p729
(dp730
g7
S't14'
p731
sg9
S'anaphora-?'
p732
sg10
S'i42'
p733
sg12
S'i42'
p734
sg13
Nsg14
(lp735
(i__main__
Token
p736
(dp737
g18
I195
sbasg21
I195
sba(i__main__
Mention
p738
(dp739
g7
S't14'
p740
sg9
S'Anaphora-RC'
p741
sg10
S'i43'
p742
sg12
S'i42'
p743
sg13
Nsg14
(lp744
(i__main__
Token
p745
(dp746
g18
I199
sba(i__main__
Token
p747
(dp748
g18
I200
sba(i__main__
Token
p749
(dp750
g18
I201
sba(i__main__
Token
p751
(dp752
g18
I202
sba(i__main__
Token
p753
(dp754
g18
I203
sba(i__main__
Token
p755
(dp756
g18
I204
sba(i__main__
Token
p757
(dp758
g18
I205
sba(i__main__
Token
p759
(dp760
g18
I206
sba(i__main__
Token
p761
(dp762
g18
I207
sba(i__main__
Token
p763
(dp764
g18
I208
sba(i__main__
Token
p765
(dp766
g18
I209
sba(i__main__
Token
p767
(dp768
g18
I210
sba(i__main__
Token
p769
(dp770
g18
I211
sbasg21
I207
sbasg7
g731
sg262
Nsba(i__main__
Chain
p771
(dp772
g3
(lp773
(i__main__
Mention
p774
(dp775
g7
S't15'
p776
sg9
Nsg10
S'i44'
p777
sg12
Nsg13
Nsg14
(lp778
(i__main__
Token
p779
(dp780
g18
I203
sba(i__main__
Token
p781
(dp782
g18
I204
sbasg21
I204
sba(i__main__
Mention
p783
(dp784
g7
S't15'
p785
sg9
S'Anaphora-C'
p786
sg10
S'i45'
p787
sg12
S'i44'
p788
sg13
Nsg14
(lp789
(i__main__
Token
p790
(dp791
g18
I209
sbasg21
I209
sbasg7
g776
sg262
Nsba(i__main__
Chain
p792
(dp793
g3
(lp794
(i__main__
Mention
p795
(dp796
g7
S't16'
p797
sg9
Nsg10
S'i53'
p798
sg12
Nsg13
Nsg14
(lp799
(i__main__
Token
p800
(dp801
g18
I276
sbasg21
I276
sba(i__main__
Mention
p802
(dp803
g7
S't16'
p804
sg9
S'Coreference-NounComplement'
p805
sg10
S'i54'
p806
sg12
S'i53'
p807
sg13
Nsg14
(lp808
(i__main__
Token
p809
(dp810
g18
I277
sba(i__main__
Token
p811
(dp812
g18
I278
sbasg21
I278
sbasg7
g797
sg262
Nsba(i__main__
Chain
p813
(dp814
g3
(lp815
(i__main__
Mention
p816
(dp817
g7
S't17'
p818
sg9
Nsg10
S'i55'
p819
sg12
Nsg13
Nsg14
(lp820
(i__main__
Token
p821
(dp822
g18
I280
sba(i__main__
Token
p823
(dp824
g18
I281
sbasg21
I281
sba(i__main__
Mention
p825
(dp826
g7
S't17'
p827
sg9
S'Coreference-NounComplement'
p828
sg10
S'i56'
p829
sg12
S'i55'
p830
sg13
Nsg14
(lp831
(i__main__
Token
p832
(dp833
g18
I282
sbasg21
I282
sba(i__main__
Mention
p834
(dp835
g7
S't17'
p836
sg9
S'Coreference-Identity'
p837
sg10
S'i61'
p838
sg12
S'i56'
p839
sg13
Nsg14
(lp840
(i__main__
Token
p841
(dp842
g18
I310
sbasg21
I310
sba(i__main__
Mention
p843
(dp844
g7
S't17'
p845
sg9
S'Coreference-Identity'
p846
sg10
S'i65'
p847
sg12
S'i61'
p848
sg13
Nsg14
(lp849
(i__main__
Token
p850
(dp851
g18
I330
sbasg21
I330
sbasg7
g818
sg262
Nsba(i__main__
Chain
p852
(dp853
g3
(lp854
(i__main__
Mention
p855
(dp856
g7
S't18'
p857
sg9
S'anaphora-?'
p858
sg10
S'i62'
p859
sg12
S'i62'
p860
sg13
Nsg14
(lp861
(i__main__
Token
p862
(dp863
g18
I311
sbasg21
I311
sba(i__main__
Mention
p864
(dp865
g7
S't18'
p866
sg9
S'Anaphora-RC'
p867
sg10
S'i63'
p868
sg12
S'i62'
p869
sg13
Nsg14
(lp870
(i__main__
Token
p871
(dp872
g18
I318
sba(i__main__
Token
p873
(dp874
g18
I319
sba(i__main__
Token
p875
(dp876
g18
I320
sba(i__main__
Token
p877
(dp878
g18
I321
sba(i__main__
Token
p879
(dp880
g18
I322
sba(i__main__
Token
p881
(dp882
g18
I323
sba(i__main__
Token
p883
(dp884
g18
I324
sbasg21
I322
sbasg7
g857
sg262
Nsba(i__main__
Chain
p885
(dp886
g3
(lp887
(i__main__
Mention
p888
(dp889
g7
S't19'
p890
sg9
S'anaphora-?'
p891
sg10
S'i64'
p892
sg12
S'i64'
p893
sg13
Nsg14
(lp894
(i__main__
Token
p895
(dp896
g18
I320
sbasg21
I320
sbasg7
g890
sg262
Nsba(i__main__
Chain
p897
(dp898
g3
(lp899
(i__main__
Mention
p900
(dp901
g7
S't20'
p902
sg9
S'anaphora-?'
p903
sg10
S'i75'
p904
sg12
S'i75'
p905
sg13
Nsg14
(lp906
(i__main__
Token
p907
(dp908
g18
I376
sbasg21
I376
sbasg7
g902
sg262
Nsba(i__main__
Chain
p909
(dp910
g3
(lp911
(i__main__
Mention
p912
(dp913
g7
S't21'
p914
sg9
S'anaphora-E'
p915
sg10
S'i76'
p916
sg12
S'i77'
p917
sg13
Nsg14
(lp918
(i__main__
Token
p919
(dp920
g18
I377
sbasg21
I377
sbasg7
g914
sg262
Nsba.