(lp0
(i__main__
Chain
p1
(dp2
S'mentionList'
p3
(lp4
(i__main__
Mention
p5
(dp6
S'chainId'
p7
S't1'
p8
sS'relType'
p9
NsS'mentionId'
p10
S'i1'
p11
sS'antecedentId'
p12
NsS'crefMod'
p13
NsS'tokenList'
p14
(lp15
(i__main__
Token
p16
(dp17
S'tokenId'
p18
I3
sba(i__main__
Token
p19
(dp20
g18
I4
sbasS'mentionHead'
p21
I4
sba(i__main__
Mention
p22
(dp23
g7
S't1'
p24
sg9
S'Coreference-NounComplement'
p25
sg10
S'i2'
p26
sg12
S'i1'
p27
sg13
Nsg14
(lp28
(i__main__
Token
p29
(dp30
g18
I5
sba(i__main__
Token
p31
(dp32
g18
I6
sbasg21
I6
sba(i__main__
Mention
p33
(dp34
g7
S't1'
p35
sg9
S'Anaphora-C'
p36
sg10
S'i4'
p37
sg12
S'i2'
p38
sg13
Nsg14
(lp39
(i__main__
Token
p40
(dp41
g18
I19
sbasg21
I19
sba(i__main__
Mention
p42
(dp43
g7
S't1'
p44
sg9
S'Coreference-Identity'
p45
sg10
S'i26'
p46
sg12
S'i4'
p47
sg13
Nsg14
(lp48
(i__main__
Token
p49
(dp50
g18
I183
sba(i__main__
Token
p51
(dp52
g18
I184
sba(i__main__
Token
p53
(dp54
g18
I185
sbasg21
I185
sba(i__main__
Mention
p55
(dp56
g7
S't1'
p57
sg9
S'Coreference-Identity'
p58
sg10
S'i35'
p59
sg12
S'i26'
p60
sg13
Nsg14
(lp61
(i__main__
Token
p62
(dp63
g18
I289
sba(i__main__
Token
p64
(dp65
g18
I290
sba(i__main__
Token
p66
(dp67
g18
I291
sbasg21
I291
sba(i__main__
Mention
p68
(dp69
g7
S't1'
p70
sg9
S'Coreference-Identity'
p71
sg10
S'i37'
p72
sg12
S'i35'
p73
sg13
Nsg14
(lp74
(i__main__
Token
p75
(dp76
g18
I308
sbasg21
I308
sba(i__main__
Mention
p77
(dp78
g7
S't1'
p79
sg9
S'Coreference-Identity'
p80
sg10
S'i45'
p81
sg12
S'i37'
p82
sg13
Nsg14
(lp83
(i__main__
Token
p84
(dp85
g18
I359
sba(i__main__
Token
p86
(dp87
g18
I360
sba(i__main__
Token
p88
(dp89
g18
I361
sbasg21
I361
sba(i__main__
Mention
p90
(dp91
g7
S't1'
p92
sg9
S'Coreference-Identity'
p93
sg10
S'i52'
p94
sg12
S'i45'
p95
sg13
Nsg14
(lp96
(i__main__
Token
p97
(dp98
g18
I424
sba(i__main__
Token
p99
(dp100
g18
I425
sba(i__main__
Token
p101
(dp102
g18
I426
sbasg21
I426
sba(i__main__
Mention
p103
(dp104
g7
S't1'
p105
sg9
S'Coreference-Identity'
p106
sg10
S'i61'
p107
sg12
S'i52'
p108
sg13
Nsg14
(lp109
(i__main__
Token
p110
(dp111
g18
I479
sba(i__main__
Token
p112
(dp113
g18
I480
sbasg21
I480
sbasg7
g8
sS'chainHead'
p114
Nsba(i__main__
Chain
p115
(dp116
g3
(lp117
(i__main__
Mention
p118
(dp119
g7
S't2'
p120
sg9
Nsg10
S'i3'
p121
sg12
Nsg13
Nsg14
(lp122
(i__main__
Token
p123
(dp124
g18
I14
sba(i__main__
Token
p125
(dp126
g18
I15
sba(i__main__
Token
p127
(dp128
g18
I16
sba(i__main__
Token
p129
(dp130
g18
I17
sbasg21
I17
sba(i__main__
Mention
p131
(dp132
g7
S't2'
p133
sg9
S'Coreference-Identity'
p134
sg10
S'i14'
p135
sg12
S'i3'
p136
sg13
Nsg14
(lp137
(i__main__
Token
p138
(dp139
g18
I102
sbasg21
I102
sba(i__main__
Mention
p140
(dp141
g7
S't2'
p142
sg9
S'Anaphora-C'
p143
sg10
S'i15'
p144
sg12
S'i14'
p145
sg13
Nsg14
(lp146
(i__main__
Token
p147
(dp148
g18
I106
sbasg21
I106
sba(i__main__
Mention
p149
(dp150
g7
S't2'
p151
sg9
S'Coreference-Noun-Noun'
p152
sg10
S'i22'
p153
sg12
S'i15'
p154
sg13
Nsg14
(lp155
(i__main__
Token
p156
(dp157
g18
I143
sba(i__main__
Token
p158
(dp159
g18
I144
sbasg21
I144
sba(i__main__
Mention
p160
(dp161
g7
S't2'
p162
sg9
S'Anaphora-C'
p163
sg10
S'i27'
p164
sg12
S'i22'
p165
sg13
Nsg14
(lp166
(i__main__
Token
p167
(dp168
g18
I200
sbasg21
I200
sba(i__main__
Mention
p169
(dp170
g7
S't2'
p171
sg9
S'Coreference-Noun-Noun'
p172
sg10
S'i32'
p173
sg12
S'i27'
p174
sg13
Nsg14
(lp175
(i__main__
Token
p176
(dp177
g18
I246
sbasg21
I246
sba(i__main__
Mention
p178
(dp179
g7
S't2'
p180
sg9
S'Coreference-Noun-Noun'
p181
sg10
S'i34'
p182
sg12
S'i32'
p183
sg13
Nsg14
(lp184
(i__main__
Token
p185
(dp186
g18
I263
sbasg21
I263
sba(i__main__
Mention
p187
(dp188
g7
S't2'
p189
sg9
S'Coreference-Identity'
p190
sg10
S'i43'
p191
sg12
S'i34'
p192
sg13
Nsg14
(lp193
(i__main__
Token
p194
(dp195
g18
I344
sbasg21
I344
sba(i__main__
Mention
p196
(dp197
g7
S't2'
p198
sg9
S'Anaphora-C'
p199
sg10
S'i46'
p200
sg12
S'i43'
p201
sg13
Nsg14
(lp202
(i__main__
Token
p203
(dp204
g18
I388
sbasg21
I388
sba(i__main__
Mention
p205
(dp206
g7
S't2'
p207
sg9
S'Coreference-Identity'
p208
sg10
S'i53'
p209
sg12
S'i46'
p210
sg13
Nsg14
(lp211
(i__main__
Token
p212
(dp213
g18
I433
sbasg21
I433
sba(i__main__
Mention
p214
(dp215
g7
S't2'
p216
sg9
S'Anaphora-C'
p217
sg10
S'i60'
p218
sg12
S'i53'
p219
sg13
Nsg14
(lp220
(i__main__
Token
p221
(dp222
g18
I476
sbasg21
I476
sbasg7
g120
sg114
Nsba(i__main__
Chain
p223
(dp224
g3
(lp225
(i__main__
Mention
p226
(dp227
g7
S't3'
p228
sg9
Nsg10
S'i5'
p229
sg12
Nsg13
Nsg14
(lp230
(i__main__
Token
p231
(dp232
g18
I41
sba(i__main__
Token
p233
(dp234
g18
I42
sba(i__main__
Token
p235
(dp236
g18
I43
sba(i__main__
Token
p237
(dp238
g18
I44
sba(i__main__
Token
p239
(dp240
g18
I45
sba(i__main__
Token
p241
(dp242
g18
I46
sba(i__main__
Token
p243
(dp244
g18
I47
sba(i__main__
Token
p245
(dp246
g18
I48
sbasg21
Nsba(i__main__
Mention
p247
(dp248
g7
S't3'
p249
sg9
Nsg10
S'i7'
p250
sg12
Nsg13
Nsg14
(lp251
(i__main__
Token
p252
(dp253
g18
I71
sba(i__main__
Token
p254
(dp255
g18
I72
sbasg21
Nsba(i__main__
Mention
p256
(dp257
g7
S't3'
p258
sg9
Nsg10
S'i9'
p259
sg12
Nsg13
Nsg14
(lp260
(i__main__
Token
p261
(dp262
g18
I79
sba(i__main__
Token
p263
(dp264
g18
I80
sbasg21
Nsba(i__main__
Mention
p265
(dp266
g7
S't3'
p267
sg9
Nsg10
S'i11'
p268
sg12
Nsg13
Nsg14
(lp269
(i__main__
Token
p270
(dp271
g18
I89
sba(i__main__
Token
p272
(dp273
g18
I90
sbasg21
Nsba(i__main__
Mention
p274
(dp275
g7
S't3'
p276
sg9
Nsg10
S'i38'
p277
sg12
Nsg13
Nsg14
(lp278
(i__main__
Token
p279
(dp280
g18
I311
sba(i__main__
Token
p281
(dp282
g18
I312
sba(i__main__
Token
p283
(dp284
g18
I313
sba(i__main__
Token
p285
(dp286
g18
I314
sba(i__main__
Token
p287
(dp288
g18
I315
sba(i__main__
Token
p289
(dp290
g18
I316
sba(i__main__
Token
p291
(dp292
g18
I317
sbasg21
Nsbasg7
g228
sg114
Nsba(i__main__
Chain
p293
(dp294
g3
(lp295
(i__main__
Mention
p296
(dp297
g7
S't4'
p298
sg9
Nsg10
S'i6'
p299
sg12
Nsg13
Nsg14
(lp300
(i__main__
Token
p301
(dp302
g18
I41
sba(i__main__
Token
p303
(dp304
g18
I42
sba(i__main__
Token
p305
(dp306
g18
I43
sba(i__main__
Token
p307
(dp308
g18
I44
sba(i__main__
Token
p309
(dp310
g18
I45
sba(i__main__
Token
p311
(dp312
g18
I46
sba(i__main__
Token
p313
(dp314
g18
I47
sba(i__main__
Token
p315
(dp316
g18
I48
sbasg21
Nsba(i__main__
Mention
p317
(dp318
g7
S't4'
p319
sg9
Nsg10
S'i8'
p320
sg12
Nsg13
Nsg14
(lp321
(i__main__
Token
p322
(dp323
g18
I71
sba(i__main__
Token
p324
(dp325
g18
I72
sbasg21
Nsba(i__main__
Mention
p326
(dp327
g7
S't4'
p328
sg9
Nsg10
S'i10'
p329
sg12
Nsg13
Nsg14
(lp330
(i__main__
Token
p331
(dp332
g18
I79
sba(i__main__
Token
p333
(dp334
g18
I80
sbasg21
Nsba(i__main__
Mention
p335
(dp336
g7
S't4'
p337
sg9
Nsg10
S'i12'
p338
sg12
Nsg13
Nsg14
(lp339
(i__main__
Token
p340
(dp341
g18
I89
sba(i__main__
Token
p342
(dp343
g18
I90
sbasg21
Nsba(i__main__
Mention
p344
(dp345
g7
S't4'
p346
sg9
Nsg10
S'i40'
p347
sg12
Nsg13
Nsg14
(lp348
(i__main__
Token
p349
(dp350
g18
I311
sba(i__main__
Token
p351
(dp352
g18
I312
sba(i__main__
Token
p353
(dp354
g18
I313
sba(i__main__
Token
p355
(dp356
g18
I314
sba(i__main__
Token
p357
(dp358
g18
I315
sba(i__main__
Token
p359
(dp360
g18
I316
sba(i__main__
Token
p361
(dp362
g18
I317
sbasg21
Nsba(i__main__
Mention
p363
(dp364
g7
S't4'
p365
sg9
S'Coreference-Noun-Noun'
p366
sg10
S'i42'
p367
sg12
S'i40'
p368
sg13
Nsg14
(lp369
(i__main__
Token
p370
(dp371
g18
I332
sba(i__main__
Token
p372
(dp373
g18
I333
sba(i__main__
Token
p374
(dp375
g18
I334
sba(i__main__
Token
p376
(dp377
g18
I335
sba(i__main__
Token
p378
(dp379
g18
I336
sba(i__main__
Token
p380
(dp381
g18
I337
sbasg21
I337
sba(i__main__
Mention
p382
(dp383
g7
S't4'
p384
sg9
S'Coreference-Noun-Noun'
p385
sg10
S'i48'
p386
sg12
S'i42'
p387
sg13
Nsg14
(lp388
(i__main__
Token
p389
(dp390
g18
I407
sba(i__main__
Token
p391
(dp392
g18
I408
sbasg21
I408
sba(i__main__
Mention
p393
(dp394
g7
S't4'
p395
sg9
S'Coreference-RPartOf'
p396
sg10
S'i55'
p397
sg12
S'i48'
p398
sg13
Nsg14
(lp399
(i__main__
Token
p400
(dp401
g18
I449
sba(i__main__
Token
p402
(dp403
g18
I450
sbasg21
I450
sbasg7
g298
sg114
Nsba(i__main__
Chain
p404
(dp405
g3
(lp406
(i__main__
Mention
p407
(dp408
g7
S't5'
p409
sg9
Nsg10
S'i13'
p410
sg12
Nsg13
Nsg14
(lp411
(i__main__
Token
p412
(dp413
g18
I92
sbasg21
I92
sba(i__main__
Mention
p414
(dp415
g7
S't5'
p416
sg9
S'Coreference-Identity'
p417
sg10
S'i17'
p418
sg12
S'i13'
p419
sg13
Nsg14
(lp420
(i__main__
Token
p421
(dp422
g18
I110
sbasg21
I110
sba(i__main__
Mention
p423
(dp424
g7
S't5'
p425
sg9
S'Coreference-Identity'
p426
sg10
S'i19'
p427
sg12
S'i17'
p428
sg13
Nsg14
(lp429
(i__main__
Token
p430
(dp431
g18
I120
sbasg21
I120
sba(i__main__
Mention
p432
(dp433
g7
S't5'
p434
sg9
S'Anaphora-C'
p435
sg10
S'i21'
p436
sg12
S'i19'
p437
sg13
Nsg14
(lp438
(i__main__
Token
p439
(dp440
g18
I124
sbasg21
I124
sba(i__main__
Mention
p441
(dp442
g7
S't5'
p443
sg9
S'Coreference-Identity'
p444
sg10
S'i57'
p445
sg12
S'i21'
p446
sg13
Nsg14
(lp447
(i__main__
Token
p448
(dp449
g18
I452
sbasg21
I452
sba(i__main__
Mention
p450
(dp451
g7
S't5'
p452
sg9
S'Coreference-Identity'
p453
sg10
S'i58'
p454
sg12
S'i57'
p455
sg13
Nsg14
(lp456
(i__main__
Token
p457
(dp458
g18
I458
sbasg21
I458
sba(i__main__
Mention
p459
(dp460
g7
S't5'
p461
sg9
S'Anaphora-C'
p462
sg10
S'i59'
p463
sg12
S'i58'
p464
sg13
Nsg14
(lp465
(i__main__
Token
p466
(dp467
g18
I466
sbasg21
I466
sbasg7
g409
sg114
Nsba(i__main__
Chain
p468
(dp469
g3
(lp470
(i__main__
Mention
p471
(dp472
g7
S't6'
p473
sg9
Nsg10
S'i16'
p474
sg12
Nsg13
Nsg14
(lp475
(i__main__
Token
p476
(dp477
g18
I107
sbasg21
I107
sba(i__main__
Mention
p478
(dp479
g7
S't6'
p480
sg9
S'Coreference-Identity'
p481
sg10
S'i18'
p482
sg12
S'i16'
p483
sg13
Nsg14
(lp484
(i__main__
Token
p485
(dp486
g18
I117
sbasg21
I117
sba(i__main__
Mention
p487
(dp488
g7
S't6'
p489
sg9
S'Anaphora-C'
p490
sg10
S'i20'
p491
sg12
S'i18'
p492
sg13
Nsg14
(lp493
(i__main__
Token
p494
(dp495
g18
I123
sbasg21
I123
sbasg7
g473
sg114
Nsba(i__main__
Chain
p496
(dp497
g3
(lp498
(i__main__
Mention
p499
(dp500
g7
S't7'
p501
sg9
Nsg10
S'i23'
p502
sg12
Nsg13
Nsg14
(lp503
(i__main__
Token
p504
(dp505
g18
I148
sba(i__main__
Token
p506
(dp507
g18
I149
sba(i__main__
Token
p508
(dp509
g18
I150
sba(i__main__
Token
p510
(dp511
g18
I151
sba(i__main__
Token
p512
(dp513
g18
I152
sba(i__main__
Token
p514
(dp515
g18
I153
sba(i__main__
Token
p516
(dp517
g18
I154
sba(i__main__
Token
p518
(dp519
g18
I155
sba(i__main__
Token
p520
(dp521
g18
I156
sba(i__main__
Token
p522
(dp523
g18
I157
sba(i__main__
Token
p524
(dp525
g18
I158
sba(i__main__
Token
p526
(dp527
g18
I159
sbasg21
I156
sba(i__main__
Mention
p528
(dp529
g7
S't7'
p530
sg9
S'Anaphora-E'
p531
sg10
S'i24'
p532
sg12
S'i23'
p533
sg13
Nsg14
(lp534
(i__main__
Token
p535
(dp536
g18
I161
sbasg21
I161
sbasg7
g501
sg114
Nsba(i__main__
Chain
p537
(dp538
g3
(lp539
(i__main__
Mention
p540
(dp541
g7
S't8'
p542
sg9
Nsg10
S'i25'
p543
sg12
Nsg13
Nsg14
(lp544
(i__main__
Token
p545
(dp546
g18
I162
sbasg21
I162
sba(i__main__
Mention
p547
(dp548
g7
S't8'
p549
sg9
S'Coreference-Identity'
p550
sg10
S'i33'
p551
sg12
S'i25'
p552
sg13
Nsg14
(lp553
(i__main__
Token
p554
(dp555
g18
I256
sbasg21
I256
sba(i__main__
Mention
p556
(dp557
g7
S't8'
p558
sg9
S'Coreference-Identity'
p559
sg10
S'i44'
p560
sg12
S'i33'
p561
sg13
Nsg14
(lp562
(i__main__
Token
p563
(dp564
g18
I348
sbasg21
I348
sba(i__main__
Mention
p565
(dp566
g7
S't8'
p567
sg9
S'Coreference-Identity'
p568
sg10
S'i54'
p569
sg12
S'i44'
p570
sg13
Nsg14
(lp571
(i__main__
Token
p572
(dp573
g18
I447
sbasg21
I447
sbasg7
g542
sg114
Nsba(i__main__
Chain
p574
(dp575
g3
(lp576
(i__main__
Mention
p577
(dp578
g7
S't9'
p579
sg9
Nsg10
S'i28'
p580
sg12
Nsg13
Nsg14
(lp581
(i__main__
Token
p582
(dp583
g18
I232
sbasg21
I232
sba(i__main__
Mention
p584
(dp585
g7
S't9'
p586
sg9
S'Coreference-NounComplement'
p587
sg10
S'i29'
p588
sg12
S'i28'
p589
sg13
Nsg14
(lp590
(i__main__
Token
p591
(dp592
g18
I233
sba(i__main__
Token
p593
(dp594
g18
I234
sbasg21
I234
sbasg7
g579
sg114
Nsba(i__main__
Chain
p595
(dp596
g3
(lp597
(i__main__
Mention
p598
(dp599
g7
S't10'
p600
sg9
Nsg10
S'i30'
p601
sg12
Nsg13
Nsg14
(lp602
(i__main__
Token
p603
(dp604
g18
I236
sbasg21
I236
sba(i__main__
Mention
p605
(dp606
g7
S't10'
p607
sg9
S'Coreference-NounComplement'
p608
sg10
S'i31'
p609
sg12
S'i30'
p610
sg13
Nsg14
(lp611
(i__main__
Token
p612
(dp613
g18
I238
sba(i__main__
Token
p614
(dp615
g18
I239
sba(i__main__
Token
p616
(dp617
g18
I240
sbasg21
I240
sbasg7
g600
sg114
Nsba(i__main__
Chain
p618
(dp619
g3
(lp620
(i__main__
Mention
p621
(dp622
g7
S't11'
p623
sg9
Nsg10
S'i36'
p624
sg12
Nsg13
Nsg14
(lp625
(i__main__
Token
p626
(dp627
g18
I303
sbasg21
I303
sba(i__main__
Mention
p628
(dp629
g7
S't11'
p630
sg9
S'Coreference-RPartOf'
p631
sg10
S'i62'
p632
sg12
S'i36'
p633
sg13
Nsg14
(lp634
(i__main__
Token
p635
(dp636
g18
I485
sba(i__main__
Token
p637
(dp638
g18
I486
sba(i__main__
Token
p639
(dp640
g18
I487
sbasg21
I487
sba(i__main__
Mention
p641
(dp642
g7
S't11'
p643
sg9
S'Coreference-Identity'
p644
sg10
S'i63'
p645
sg12
S'i62'
p646
sg13
Nsg14
(lp647
(i__main__
Token
p648
(dp649
g18
I498
sba(i__main__
Token
p650
(dp651
g18
I499
sbasg21
I499
sbasg7
g623
sg114
Nsba(i__main__
Chain
p652
(dp653
g3
(lp654
(i__main__
Mention
p655
(dp656
g7
S't12'
p657
sg9
Nsg10
S'i39'
p658
sg12
Nsg13
Nsg14
(lp659
(i__main__
Token
p660
(dp661
g18
I311
sba(i__main__
Token
p662
(dp663
g18
I312
sba(i__main__
Token
p664
(dp665
g18
I313
sba(i__main__
Token
p666
(dp667
g18
I314
sba(i__main__
Token
p668
(dp669
g18
I315
sba(i__main__
Token
p670
(dp671
g18
I316
sba(i__main__
Token
p672
(dp673
g18
I317
sba(i__main__
Token
p674
(dp675
g18
I318
sba(i__main__
Token
p676
(dp677
g18
I319
sba(i__main__
Token
p678
(dp679
g18
I320
sba(i__main__
Token
p680
(dp681
g18
I321
sba(i__main__
Token
p682
(dp683
g18
I322
sba(i__main__
Token
p684
(dp685
g18
I323
sbasg21
I322
sba(i__main__
Mention
p686
(dp687
g7
S't12'
p688
sg9
S'Anaphora-E'
p689
sg10
S'i41'
p690
sg12
S'i39'
p691
sg13
Nsg14
(lp692
(i__main__
Token
p693
(dp694
g18
I325
sbasg21
I325
sbasg7
g657
sg114
Nsba(i__main__
Chain
p695
(dp696
g3
(lp697
(i__main__
Mention
p698
(dp699
g7
S't13'
p700
sg9
Nsg10
S'i47'
p701
sg12
Nsg13
Nsg14
(lp702
(i__main__
Token
p703
(dp704
g18
I405
sbasg21
I405
sbasg7
g700
sg114
Nsba(i__main__
Chain
p705
(dp706
g3
(lp707
(i__main__
Mention
p708
(dp709
g7
S't14'
p710
sg9
Nsg10
S'i50'
p711
sg12
Nsg13
Nsg14
(lp712
(i__main__
Token
p713
(dp714
g18
I409
sbasg21
I409
sbasg7
g710
sg114
Nsba(i__main__
Chain
p715
(dp716
g3
(lp717
(i__main__
Mention
p718
(dp719
g7
S't15'
p720
sg9
Nsg10
S'i51'
p721
sg12
Nsg13
Nsg14
(lp722
(i__main__
Token
p723
(dp724
g18
I412
sbasg21
I412
sbasg7
g720
sg114
Nsba.