(lp0
(i__main__
Chain
p1
(dp2
S'mentionList'
p3
(lp4
(i__main__
Mention
p5
(dp6
S'chainId'
p7
S't1'
p8
sS'relType'
p9
NsS'mentionId'
p10
S'i1'
p11
sS'antecedentId'
p12
NsS'crefMod'
p13
NsS'tokenList'
p14
(lp15
(i__main__
Token
p16
(dp17
S'tokenId'
p18
I4
sbasS'mentionHead'
p19
I4
sba(i__main__
Mention
p20
(dp21
g7
S't1'
p22
sg9
S'Coreference-Identity'
p23
sg10
S'i13'
p24
sg12
S'i1'
p25
sg13
Nsg14
(lp26
(i__main__
Token
p27
(dp28
g18
I73
sbasg19
I73
sba(i__main__
Mention
p29
(dp30
g7
S't1'
p31
sg9
S'Coreference-Identity'
p32
sg10
S'i17'
p33
sg12
S'i13'
p34
sg13
Nsg14
(lp35
(i__main__
Token
p36
(dp37
g18
I96
sbasg19
I96
sbasg7
g8
sS'chainHead'
p38
Nsba(i__main__
Chain
p39
(dp40
g3
(lp41
(i__main__
Mention
p42
(dp43
g7
S't2'
p44
sg9
Nsg10
S'i2'
p45
sg12
Nsg13
Nsg14
(lp46
(i__main__
Token
p47
(dp48
g18
I8
sbasg19
I8
sba(i__main__
Mention
p49
(dp50
g7
S't2'
p51
sg9
S'Coreference-Identity'
p52
sg10
S'i12'
p53
sg12
S'i2'
p54
sg13
Nsg14
(lp55
(i__main__
Token
p56
(dp57
g18
I63
sbasg19
I63
sbasg7
g44
sg38
Nsba(i__main__
Chain
p58
(dp59
g3
(lp60
(i__main__
Mention
p61
(dp62
g7
S't3'
p63
sg9
Nsg10
S'i3'
p64
sg12
Nsg13
Nsg14
(lp65
(i__main__
Token
p66
(dp67
g18
I11
sba(i__main__
Token
p68
(dp69
g18
I12
sbasg19
I12
sba(i__main__
Mention
p70
(dp71
g7
S't3'
p72
sg9
S'Coreference-NounComplement'
p73
sg10
S'i4'
p74
sg12
S'i3'
p75
sg13
Nsg14
(lp76
(i__main__
Token
p77
(dp78
g18
I13
sba(i__main__
Token
p79
(dp80
g18
I14
sba(i__main__
Token
p81
(dp82
g18
I15
sbasg19
I15
sba(i__main__
Mention
p83
(dp84
g7
S't3'
p85
sg9
S'Coreference-Noun-Noun'
p86
sg10
S'i6'
p87
sg12
S'i4'
p88
sg13
Nsg14
(lp89
(i__main__
Token
p90
(dp91
g18
I25
sbasg19
I25
sba(i__main__
Mention
p92
(dp93
g7
S't3'
p94
sg9
S'Coreference-Identity'
p95
sg10
S'i10'
p96
sg12
S'i6'
p97
sg13
Nsg14
(lp98
(i__main__
Token
p99
(dp100
g18
I54
sba(i__main__
Token
p101
(dp102
g18
I55
sbasg19
I55
sba(i__main__
Mention
p103
(dp104
g7
S't3'
p105
sg9
S'Anaphora-C'
p106
sg10
S'i15'
p107
sg12
S'i10'
p108
sg13
Nsg14
(lp109
(i__main__
Token
p110
(dp111
g18
I83
sbasg19
I83
sba(i__main__
Mention
p112
(dp113
g7
S't3'
p114
sg9
S'Coreference-Identity'
p115
sg10
S'i16'
p116
sg12
S'i15'
p117
sg13
Nsg14
(lp118
(i__main__
Token
p119
(dp120
g18
I90
sbasg19
I90
sbasg7
g63
sg38
Nsba(i__main__
Chain
p121
(dp122
g3
(lp123
(i__main__
Mention
p124
(dp125
g7
S't4'
p126
sg9
Nsg10
S'i5'
p127
sg12
Nsg13
Nsg14
(lp128
(i__main__
Token
p129
(dp130
g18
I17
sbasg19
I17
sba(i__main__
Mention
p131
(dp132
g7
S't4'
p133
sg9
S'Coreference-Identity'
p134
sg10
S'i11'
p135
sg12
S'i5'
p136
sg13
Nsg14
(lp137
(i__main__
Token
p138
(dp139
g18
I57
sbasg19
I57
sba(i__main__
Mention
p140
(dp141
g7
S't4'
p142
sg9
S'Coreference-Identity'
p143
sg10
S'i14'
p144
sg12
S'i11'
p145
sg13
Nsg14
(lp146
(i__main__
Token
p147
(dp148
g18
I75
sbasg19
I75
sbasg7
g126
sg38
Nsba(i__main__
Chain
p149
(dp150
g3
(lp151
(i__main__
Mention
p152
(dp153
g7
S't5'
p154
sg9
Nsg10
S'i7'
p155
sg12
Nsg13
Nsg14
(lp156
(i__main__
Token
p157
(dp158
g18
I32
sbasg19
I32
sba(i__main__
Mention
p159
(dp160
g7
S't5'
p161
sg9
S'Coreference-Identity'
p162
sg10
S'i20'
p163
sg12
S'i7'
p164
sg13
Nsg14
(lp165
(i__main__
Token
p166
(dp167
g18
I118
sba(i__main__
Token
p168
(dp169
g18
I119
sbasg19
I119
sba(i__main__
Mention
p170
(dp171
g7
S't5'
p172
sg9
S'Coreference-Identity'
p173
sg10
S'i40'
p174
sg12
S'i20'
p175
sg13
Nsg14
(lp176
(i__main__
Token
p177
(dp178
g18
I214
sbasg19
I214
sba(i__main__
Mention
p179
(dp180
g7
S't5'
p181
sg9
S'Coreference-Identity'
p182
sg10
S'i46'
p183
sg12
S'i40'
p184
sg13
Nsg14
(lp185
(i__main__
Token
p186
(dp187
g18
I256
sbasg19
I256
sbasg7
g154
sg38
Nsba(i__main__
Chain
p188
(dp189
g3
(lp190
(i__main__
Mention
p191
(dp192
g7
S't6'
p193
sg9
Nsg10
S'i8'
p194
sg12
Nsg13
Nsg14
(lp195
(i__main__
Token
p196
(dp197
g18
I40
sbasg19
I40
sba(i__main__
Mention
p198
(dp199
g7
S't6'
p200
sg9
S'Coreference-Identity'
p201
sg10
S'i9'
p202
sg12
S'i8'
p203
sg13
Nsg14
(lp204
(i__main__
Token
p205
(dp206
g18
I42
sbasg19
I42
sba(i__main__
Mention
p207
(dp208
g7
S't6'
p209
sg9
S'Coreference-Identity'
p210
sg10
S'i42'
p211
sg12
S'i9'
p212
sg13
Nsg14
(lp213
(i__main__
Token
p214
(dp215
g18
I220
sbasg19
I220
sba(i__main__
Mention
p216
(dp217
g7
S't6'
p218
sg9
S'Coreference-Identity'
p219
sg10
S'i44'
p220
sg12
S'i42'
p221
sg13
Nsg14
(lp222
(i__main__
Token
p223
(dp224
g18
I237
sbasg19
I237
sba(i__main__
Mention
p225
(dp226
g7
S't6'
p227
sg9
S'Coreference-Identity'
p228
sg10
S'i51'
p229
sg12
S'i44'
p230
sg13
Nsg14
(lp231
(i__main__
Token
p232
(dp233
g18
I276
sbasg19
I276
sbasg7
g193
sg38
Nsba(i__main__
Chain
p234
(dp235
g3
(lp236
(i__main__
Mention
p237
(dp238
g7
S't7'
p239
sg9
S'anaphora-?'
p240
sg10
S'i18'
p241
sg12
S'i18'
p242
sg13
Nsg14
(lp243
(i__main__
Token
p244
(dp245
g18
I111
sbasg19
I111
sbasg7
g239
sg38
Nsba(i__main__
Chain
p246
(dp247
g3
(lp248
(i__main__
Mention
p249
(dp250
g7
S't8'
p251
sg9
S'anaphora-?'
p252
sg10
S'i19'
p253
sg12
S'i19'
p254
sg13
Nsg14
(lp255
(i__main__
Token
p256
(dp257
g18
I113
sbasg19
I113
sbasg7
g251
sg38
Nsba(i__main__
Chain
p258
(dp259
g3
(lp260
(i__main__
Mention
p261
(dp262
g7
S't9'
p263
sg9
Nsg10
S'i21'
p264
sg12
Nsg13
Nsg14
(lp265
(i__main__
Token
p266
(dp267
g18
I121
sba(i__main__
Token
p268
(dp269
g18
I122
sbasg19
I122
sba(i__main__
Mention
p270
(dp271
g7
S't9'
p272
sg9
S'Coreference-Identity'
p273
sg10
S'i34'
p274
sg12
S'i21'
p275
sg13
Nsg14
(lp276
(i__main__
Token
p277
(dp278
g18
I184
sbasg19
I184
sbasg7
g263
sg38
Nsba(i__main__
Chain
p279
(dp280
g3
(lp281
(i__main__
Mention
p282
(dp283
g7
S't10'
p284
sg9
Nsg10
S'i22'
p285
sg12
Nsg13
Nsg14
(lp286
(i__main__
Token
p287
(dp288
g18
I139
sbasg19
I139
sba(i__main__
Mention
p289
(dp290
g7
S't10'
p291
sg9
S'Coreference-Identity'
p292
sg10
S'i37'
p293
sg12
S'i22'
p294
sg13
Nsg14
(lp295
(i__main__
Token
p296
(dp297
g18
I201
sbasg19
I201
sbasg7
g284
sg38
Nsba(i__main__
Chain
p298
(dp299
g3
(lp300
(i__main__
Mention
p301
(dp302
g7
S't11'
p303
sg9
Nsg10
S'i23'
p304
sg12
Nsg13
Nsg14
(lp305
(i__main__
Token
p306
(dp307
g18
I141
sba(i__main__
Token
p308
(dp309
g18
I142
sbasg19
Nsba(i__main__
Mention
p310
(dp311
g7
S't11'
p312
sg9
Nsg10
S'i25'
p313
sg12
Nsg13
Nsg14
(lp314
(i__main__
Token
p315
(dp316
g18
I150
sba(i__main__
Token
p317
(dp318
g18
I151
sbasg19
Nsba(i__main__
Mention
p319
(dp320
g7
S't11'
p321
sg9
Nsg10
S'i27'
p322
sg12
Nsg13
Nsg14
(lp323
(i__main__
Token
p324
(dp325
g18
I161
sbasg19
Nsba(i__main__
Mention
p326
(dp327
g7
S't11'
p328
sg9
S'Coreference-PartOf'
p329
sg10
S'i30'
p330
sg12
S'i27'
p331
sg13
Nsg14
(lp332
(i__main__
Token
p333
(dp334
g18
I163
sbasg19
I163
sba(i__main__
Mention
p335
(dp336
g7
S't11'
p337
sg9
S'Anaphora-C'
p338
sg10
S'i31'
p339
sg12
S'i30'
p340
sg13
Nsg14
(lp341
(i__main__
Token
p342
(dp343
g18
I172
sbasg19
I172
sba(i__main__
Mention
p344
(dp345
g7
S't11'
p346
sg9
S'Coreference-Noun-Noun'
p347
sg10
S'i32'
p348
sg12
S'i31'
p349
sg13
Nsg14
(lp350
(i__main__
Token
p351
(dp352
g18
I174
sba(i__main__
Token
p353
(dp354
g18
I175
sbasg19
I175
sbasg7
g303
sg38
Nsba(i__main__
Chain
p355
(dp356
g3
(lp357
(i__main__
Mention
p358
(dp359
g7
S't12'
p360
sg9
Nsg10
S'i24'
p361
sg12
Nsg13
Nsg14
(lp362
(i__main__
Token
p363
(dp364
g18
I141
sba(i__main__
Token
p365
(dp366
g18
I142
sbasg19
Nsba(i__main__
Mention
p367
(dp368
g7
S't12'
p369
sg9
Nsg10
S'i26'
p370
sg12
Nsg13
Nsg14
(lp371
(i__main__
Token
p372
(dp373
g18
I150
sba(i__main__
Token
p374
(dp375
g18
I151
sbasg19
Nsba(i__main__
Mention
p376
(dp377
g7
S't12'
p378
sg9
Nsg10
S'i28'
p379
sg12
Nsg13
Nsg14
(lp380
(i__main__
Token
p381
(dp382
g18
I161
sbasg19
Nsba(i__main__
Mention
p383
(dp384
g7
S't12'
p385
sg9
S'Coreference-PartOf'
p386
sg10
S'i33'
p387
sg12
S'i28'
p388
sg13
Nsg14
(lp389
(i__main__
Token
p390
(dp391
g18
I182
sba(i__main__
Token
p392
(dp393
g18
I183
sbasg19
I183
sba(i__main__
Mention
p394
(dp395
g7
S't12'
p396
sg9
S'Anaphora-C'
p397
sg10
S'i35'
p398
sg12
S'i33'
p399
sg13
Nsg14
(lp400
(i__main__
Token
p401
(dp402
g18
I191
sbasg19
I191
sba(i__main__
Mention
p403
(dp404
g7
S't12'
p405
sg9
S'Coreference-Noun-Noun'
p406
sg10
S'i36'
p407
sg12
S'i35'
p408
sg13
Nsg14
(lp409
(i__main__
Token
p410
(dp411
g18
I193
sba(i__main__
Token
p412
(dp413
g18
I194
sbasg19
I194
sbasg7
g360
sg38
Nsba(i__main__
Chain
p414
(dp415
g3
(lp416
(i__main__
Mention
p417
(dp418
g7
S't13'
p419
sg9
Nsg10
S'i38'
p420
sg12
Nsg13
Nsg14
(lp421
(i__main__
Token
p422
(dp423
g18
I207
sbasg19
I207
sba(i__main__
Mention
p424
(dp425
g7
S't13'
p426
sg9
S'Coreference-NounComplement'
p427
sg10
S'i39'
p428
sg12
S'i38'
p429
sg13
Nsg14
(lp430
(i__main__
Token
p431
(dp432
g18
I208
sba(i__main__
Token
p433
(dp434
g18
I209
sbasg19
I209
sbasg7
g419
sg38
Nsba(i__main__
Chain
p435
(dp436
g3
(lp437
(i__main__
Mention
p438
(dp439
g7
S't14'
p440
sg9
Nsg10
S'i41'
p441
sg12
Nsg13
Nsg14
(lp442
(i__main__
Token
p443
(dp444
g18
I216
sbasg19
I216
sba(i__main__
Mention
p445
(dp446
g7
S't14'
p447
sg9
S'Coreference-Identity'
p448
sg10
S'i43'
p449
sg12
S'i41'
p450
sg13
Nsg14
(lp451
(i__main__
Token
p452
(dp453
g18
I225
sbasg19
I225
sba(i__main__
Mention
p454
(dp455
g7
S't14'
p456
sg9
S'Coreference-Identity'
p457
sg10
S'i45'
p458
sg12
S'i43'
p459
sg13
Nsg14
(lp460
(i__main__
Token
p461
(dp462
g18
I254
sbasg19
I254
sba(i__main__
Mention
p463
(dp464
g7
S't14'
p465
sg9
S'Coreference-Identity'
p466
sg10
S'i56'
p467
sg12
S'i45'
p468
sg13
Nsg14
(lp469
(i__main__
Token
p470
(dp471
g18
I305
sbasg19
I305
sba(i__main__
Mention
p472
(dp473
g7
S't14'
p474
sg9
S'Coreference-Identity'
p475
sg10
S'i65'
p476
sg12
S'i56'
p477
sg13
Nsg14
(lp478
(i__main__
Token
p479
(dp480
g18
I375
sbasg19
I375
sbasg7
g440
sg38
Nsba(i__main__
Chain
p481
(dp482
g3
(lp483
(i__main__
Mention
p484
(dp485
g7
S't15'
p486
sg9
Nsg10
S'i47'
p487
sg12
Nsg13
Nsg14
(lp488
(i__main__
Token
p489
(dp490
g18
I262
sba(i__main__
Token
p491
(dp492
g18
I263
sba(i__main__
Token
p493
(dp494
g18
I264
sbasg19
I264
sba(i__main__
Mention
p495
(dp496
g7
S't15'
p497
sg9
S'Anaphora-C'
p498
sg10
S'i49'
p499
sg12
S'i47'
p500
sg13
Nsg14
(lp501
(i__main__
Token
p502
(dp503
g18
I272
sbasg19
I272
sba(i__main__
Mention
p504
(dp505
g7
S't15'
p506
sg9
S'Coreference-Identity'
p507
sg10
S'i54'
p508
sg12
S'i49'
p509
sg13
Nsg14
(lp510
(i__main__
Token
p511
(dp512
g18
I282
sba(i__main__
Token
p513
(dp514
g18
I283
sbasg19
I283
sba(i__main__
Mention
p515
(dp516
g7
S't15'
p517
sg9
S'Coreference-Identity'
p518
sg10
S'i72'
p519
sg12
S'i54'
p520
sg13
Nsg14
(lp521
(i__main__
Token
p522
(dp523
g18
I396
sba(i__main__
Token
p524
(dp525
g18
I397
sba(i__main__
Token
p526
(dp527
g18
I398
sbasg19
I398
sba(i__main__
Mention
p528
(dp529
g7
S't15'
p530
sg9
S'Anaphora-C'
p531
sg10
S'i75'
p532
sg12
S'i72'
p533
sg13
Nsg14
(lp534
(i__main__
Token
p535
(dp536
g18
I405
sbasg19
I405
sbasg7
g486
sg38
Nsba(i__main__
Chain
p537
(dp538
g3
(lp539
(i__main__
Mention
p540
(dp541
g7
S't16'
p542
sg9
Nsg10
S'i48'
p543
sg12
Nsg13
Nsg14
(lp544
(i__main__
Token
p545
(dp546
g18
I266
sba(i__main__
Token
p547
(dp548
g18
I267
sbasg19
I267
sba(i__main__
Mention
p549
(dp550
g7
S't16'
p551
sg9
S'Coreference-Identity'
p552
sg10
S'i66'
p553
sg12
S'i48'
p554
sg13
Nsg14
(lp555
(i__main__
Token
p556
(dp557
g18
I377
sbasg19
I377
sba(i__main__
Mention
p558
(dp559
g7
S't16'
p560
sg9
S'Coreference-Identity'
p561
sg10
S'i73'
p562
sg12
S'i66'
p563
sg13
Nsg14
(lp564
(i__main__
Token
p565
(dp566
g18
I400
sba(i__main__
Token
p567
(dp568
g18
I401
sbasg19
I401
sbasg7
g542
sg38
Nsba(i__main__
Chain
p569
(dp570
g3
(lp571
(i__main__
Mention
p572
(dp573
g7
S't17'
p574
sg9
Nsg10
S'i50'
p575
sg12
Nsg13
Nsg14
(lp576
(i__main__
Token
p577
(dp578
g18
I272
sba(i__main__
Token
p579
(dp580
g18
I273
sba(i__main__
Token
p581
(dp582
g18
I274
sba(i__main__
Token
p583
(dp584
g18
I275
sba(i__main__
Token
p585
(dp586
g18
I276
sba(i__main__
Token
p587
(dp588
g18
I277
sba(i__main__
Token
p589
(dp590
g18
I278
sbasg19
I278
sba(i__main__
Mention
p591
(dp592
g7
S't17'
p593
sg9
S'Anaphora-E'
p594
sg10
S'i52'
p595
sg12
S'i50'
p596
sg13
Nsg14
(lp597
(i__main__
Token
p598
(dp599
g18
I280
sbasg19
I280
sbasg7
g574
sg38
Nsba(i__main__
Chain
p600
(dp601
g3
(lp602
(i__main__
Mention
p603
(dp604
g7
S't18'
p605
sg9
Nsg10
S'i55'
p606
sg12
Nsg13
Nsg14
(lp607
(i__main__
Token
p608
(dp609
g18
I289
sbasg19
I289
sba(i__main__
Mention
p610
(dp611
g7
S't18'
p612
sg9
S'Coreference-Identity'
p613
sg10
S'i74'
p614
sg12
S'i55'
p615
sg13
Nsg14
(lp616
(i__main__
Token
p617
(dp618
g18
I403
sbasg19
I403
sbasg7
g605
sg38
Nsba(i__main__
Chain
p619
(dp620
g3
(lp621
(i__main__
Mention
p622
(dp623
g7
S't19'
p624
sg9
Nsg10
S'i57'
p625
sg12
Nsg13
Nsg14
(lp626
(i__main__
Token
p627
(dp628
g18
I320
sba(i__main__
Token
p629
(dp630
g18
I321
sbasg19
I321
sba(i__main__
Mention
p631
(dp632
g7
S't19'
p633
sg9
S'Anaphora-C'
p634
sg10
S'i58'
p635
sg12
S'i57'
p636
sg13
Nsg14
(lp637
(i__main__
Token
p638
(dp639
g18
I323
sbasg19
I323
sba(i__main__
Mention
p640
(dp641
g7
S't19'
p642
sg9
S'Coreference-Noun-Noun'
p643
sg10
S'i60'
p644
sg12
S'i58'
p645
sg13
Nsg14
(lp646
(i__main__
Token
p647
(dp648
g18
I327
sba(i__main__
Token
p649
(dp650
g18
I328
sbasg19
I328
sbasg7
g624
sg38
Nsba(i__main__
Chain
p651
(dp652
g3
(lp653
(i__main__
Mention
p654
(dp655
g7
S't20'
p656
sg9
Nsg10
S'i61'
p657
sg12
Nsg13
Nsg14
(lp658
(i__main__
Token
p659
(dp660
g18
I357
sbasg19
I357
sba(i__main__
Mention
p661
(dp662
g7
S't20'
p663
sg9
S'Anaphora-C'
p664
sg10
S'i62'
p665
sg12
S'i61'
p666
sg13
Nsg14
(lp667
(i__main__
Token
p668
(dp669
g18
I359
sbasg19
I359
sbasg7
g656
sg38
Nsba(i__main__
Chain
p670
(dp671
g3
(lp672
(i__main__
Mention
p673
(dp674
g7
S't21'
p675
sg9
S'anaphora-?'
p676
sg10
S'i64'
p677
sg12
S'i64'
p678
sg13
Nsg14
(lp679
(i__main__
Token
p680
(dp681
g18
I360
sbasg19
I360
sbasg7
g675
sg38
Nsba(i__main__
Chain
p682
(dp683
g3
(lp684
(i__main__
Mention
p685
(dp686
g7
S't22'
p687
sg9
Nsg10
S'i67'
p688
sg12
Nsg13
Nsg14
(lp689
(i__main__
Token
p690
(dp691
g18
I379
sbasg19
I379
sba(i__main__
Mention
p692
(dp693
g7
S't22'
p694
sg9
S'Coreference-NounComplement'
p695
sg10
S'i68'
p696
sg12
S'i67'
p697
sg13
Nsg14
(lp698
(i__main__
Token
p699
(dp700
g18
I380
sba(i__main__
Token
p701
(dp702
g18
I381
sba(i__main__
Token
p703
(dp704
g18
I382
sbasg19
I382
sba(i__main__
Mention
p705
(dp706
g7
S't22'
p707
sg9
S'Anaphora-C'
p708
sg10
S'i69'
p709
sg12
S'i68'
p710
sg13
Nsg14
(lp711
(i__main__
Token
p712
(dp713
g18
I389
sbasg19
I389
sbasg7
g687
sg38
Nsba(i__main__
Chain
p714
(dp715
g3
(lp716
(i__main__
Mention
p717
(dp718
g7
S't23'
p719
sg9
Nsg10
S'i70'
p720
sg12
Nsg13
Nsg14
(lp721
(i__main__
Token
p722
(dp723
g18
I390
sbasg19
I390
sba(i__main__
Mention
p724
(dp725
g7
S't23'
p726
sg9
S'Coreference-NounComplement'
p727
sg10
S'i71'
p728
sg12
S'i70'
p729
sg13
Nsg14
(lp730
(i__main__
Token
p731
(dp732
g18
I391
sbasg19
I391
sbasg7
g719
sg38
Nsba(i__main__
Chain
p733
(dp734
g3
(lp735
(i__main__
Mention
p736
(dp737
g7
S't24'
p738
sg9
Nsg10
S'i77'
p739
sg12
Nsg13
Nsg14
(lp740
(i__main__
Token
p741
(dp742
g18
I409
sba(i__main__
Token
p743
(dp744
g18
I410
sbasg19
I410
sba(i__main__
Mention
p745
(dp746
g7
S't24'
p747
sg9
S'Coreference-Identity'
p748
sg10
S'i80'
p749
sg12
S'i77'
p750
sg13
Nsg14
(lp751
(i__main__
Token
p752
(dp753
g18
I436
sba(i__main__
Token
p754
(dp755
g18
I437
sbasg19
I437
sba(i__main__
Mention
p756
(dp757
g7
S't24'
p758
sg9
Nsg10
S'i82'
p759
sg12
Nsg13
Nsg14
(lp760
(i__main__
Token
p761
(dp762
g18
I444
sbasg19
Nsbasg7
g738
sg38
Nsba(i__main__
Chain
p763
(dp764
g3
(lp765
(i__main__
Mention
p766
(dp767
g7
S't25'
p768
sg9
Nsg10
S'i78'
p769
sg12
Nsg13
Nsg14
(lp770
(i__main__
Token
p771
(dp772
g18
I416
sba(i__main__
Token
p773
(dp774
g18
I417
sba(i__main__
Token
p775
(dp776
g18
I418
sba(i__main__
Token
p777
(dp778
g18
I419
sbasg19
I419
sba(i__main__
Mention
p779
(dp780
g7
S't25'
p781
sg9
S'Coreference-Identity'
p782
sg10
S'i81'
p783
sg12
S'i78'
p784
sg13
Nsg14
(lp785
(i__main__
Token
p786
(dp787
g18
I439
sbasg19
I439
sba(i__main__
Mention
p788
(dp789
g7
S't25'
p790
sg9
Nsg10
S'i83'
p791
sg12
Nsg13
Nsg14
(lp792
(i__main__
Token
p793
(dp794
g18
I444
sbasg19
Nsbasg7
g768
sg38
Nsba(i__main__
Chain
p795
(dp796
g3
(lp797
(i__main__
Mention
p798
(dp799
g7
S't26'
p800
sg9
S'anaphora-?'
p801
sg10
S'i84'
p802
sg12
S'i84'
p803
sg13
Nsg14
(lp804
(i__main__
Token
p805
(dp806
g18
I445
sbasg19
I445
sbasg7
g800
sg38
Nsba.