(lp0
(i__main__
Chain
p1
(dp2
S'mentionList'
p3
(lp4
(i__main__
Mention
p5
(dp6
S'chainId'
p7
S't1'
p8
sS'relType'
p9
NsS'mentionId'
p10
S'i1'
p11
sS'antecedentId'
p12
NsS'crefMod'
p13
NsS'tokenList'
p14
(lp15
(i__main__
Token
p16
(dp17
S'tokenId'
p18
I0
sbasS'mentionHead'
p19
I0
sba(i__main__
Mention
p20
(dp21
g7
S't1'
p22
sg9
S'Coreference-Identity'
p23
sg10
S'i32'
p24
sg12
S'i1'
p25
sg13
Nsg14
(lp26
(i__main__
Token
p27
(dp28
g18
I133
sbasg19
I133
sba(i__main__
Mention
p29
(dp30
g7
S't1'
p31
sg9
S'Coreference-InferedRelation'
p32
sg10
S'i43'
p33
sg12
S'i32'
p34
sg13
Nsg14
(lp35
(i__main__
Token
p36
(dp37
g18
I204
sbasg19
I204
sbasg7
g8
sS'chainHead'
p38
Nsba(i__main__
Chain
p39
(dp40
g3
(lp41
(i__main__
Mention
p42
(dp43
g7
S't2'
p44
sg9
Nsg10
S'i2'
p45
sg12
Nsg13
Nsg14
(lp46
(i__main__
Token
p47
(dp48
g18
I2
sbasg19
I2
sba(i__main__
Mention
p49
(dp50
g7
S't2'
p51
sg9
S'Coreference-NounComplement'
p52
sg10
S'i3'
p53
sg12
S'i2'
p54
sg13
Nsg14
(lp55
(i__main__
Token
p56
(dp57
g18
I3
sba(i__main__
Token
p58
(dp59
g18
I4
sbasg19
I4
sba(i__main__
Mention
p60
(dp61
g7
S't2'
p62
sg9
S'Coreference-Identity'
p63
sg10
S'i12'
p64
sg12
S'i3'
p65
sg13
Nsg14
(lp66
(i__main__
Token
p67
(dp68
g18
I42
sbasg19
I42
sba(i__main__
Mention
p69
(dp70
g7
S't2'
p71
sg9
S'Anaphora-C'
p72
sg10
S'i13'
p73
sg12
S'i12'
p74
sg13
Nsg14
(lp75
(i__main__
Token
p76
(dp77
g18
I57
sbasg19
I57
sba(i__main__
Mention
p78
(dp79
g7
S't2'
p80
sg9
S'Coreference-Identity'
p81
sg10
S'i18'
p82
sg12
S'i13'
p83
sg13
Nsg14
(lp84
(i__main__
Token
p85
(dp86
g18
I72
sbasg19
I72
sba(i__main__
Mention
p87
(dp88
g7
S't2'
p89
sg9
S'Anaphora-C'
p90
sg10
S'i23'
p91
sg12
S'i18'
p92
sg13
Nsg14
(lp93
(i__main__
Token
p94
(dp95
g18
I107
sbasg19
I107
sba(i__main__
Mention
p96
(dp97
g7
S't2'
p98
sg9
S'Anaphora-C'
p99
sg10
S'i25'
p100
sg12
S'i23'
p101
sg13
Nsg14
(lp102
(i__main__
Token
p103
(dp104
g18
I112
sbasg19
I112
sba(i__main__
Mention
p105
(dp106
g7
S't2'
p107
sg9
S'Coreference-Identity'
p108
sg10
S'i30'
p109
sg12
S'i25'
p110
sg13
Nsg14
(lp111
(i__main__
Token
p112
(dp113
g18
I128
sbasg19
I128
sba(i__main__
Mention
p114
(dp115
g7
S't2'
p116
sg9
S'Anaphora-C'
p117
sg10
S'i31'
p118
sg12
S'i30'
p119
sg13
Nsg14
(lp120
(i__main__
Token
p121
(dp122
g18
I132
sbasg19
I132
sba(i__main__
Mention
p123
(dp124
g7
S't2'
p125
sg9
S'Anaphora-C'
p126
sg10
S'i34'
p127
sg12
S'i31'
p128
sg13
Nsg14
(lp129
(i__main__
Token
p130
(dp131
g18
I155
sbasg19
I155
sba(i__main__
Mention
p132
(dp133
g7
S't2'
p134
sg9
S'Coreference-Identity'
p135
sg10
S'i36'
p136
sg12
S'i34'
p137
sg13
Nsg14
(lp138
(i__main__
Token
p139
(dp140
g18
I176
sbasg19
I176
sba(i__main__
Mention
p141
(dp142
g7
S't2'
p143
sg9
S'Anaphora-C'
p144
sg10
S'i37'
p145
sg12
S'i36'
p146
sg13
Nsg14
(lp147
(i__main__
Token
p148
(dp149
g18
I180
sbasg19
I180
sba(i__main__
Mention
p150
(dp151
g7
S't2'
p152
sg9
S'Anaphora-C'
p153
sg10
S'i41'
p154
sg12
S'i37'
p155
sg13
Nsg14
(lp156
(i__main__
Token
p157
(dp158
g18
I192
sbasg19
I192
sba(i__main__
Mention
p159
(dp160
g7
S't2'
p161
sg9
S'Coreference-Identity'
p162
sg10
S'i44'
p163
sg12
S'i41'
p164
sg13
Nsg14
(lp165
(i__main__
Token
p166
(dp167
g18
I223
sbasg19
I223
sbasg7
g44
sg38
Nsba(i__main__
Chain
p168
(dp169
g3
(lp170
(i__main__
Mention
p171
(dp172
g7
S't3'
p173
sg9
Nsg10
S'i4'
p174
sg12
Nsg13
Nsg14
(lp175
(i__main__
Token
p176
(dp177
g18
I8
sba(i__main__
Token
p178
(dp179
g18
I9
sbasg19
I9
sba(i__main__
Mention
p180
(dp181
g7
S't3'
p182
sg9
S'Coreference-NounComplement'
p183
sg10
S'i5'
p184
sg12
S'i4'
p185
sg13
Nsg14
(lp186
(i__main__
Token
p187
(dp188
g18
I10
sba(i__main__
Token
p189
(dp190
g18
I11
sbasg19
I11
sba(i__main__
Mention
p191
(dp192
g7
S't3'
p193
sg9
S'Coreference-Identity'
p194
sg10
S'i10'
p195
sg12
S'i5'
p196
sg13
Nsg14
(lp197
(i__main__
Token
p198
(dp199
g18
I33
sbasg19
I33
sba(i__main__
Mention
p200
(dp201
g7
S't3'
p202
sg9
S'Coreference-Identity'
p203
sg10
S'i24'
p204
sg12
S'i10'
p205
sg13
Nsg14
(lp206
(i__main__
Token
p207
(dp208
g18
I110
sbasg19
I110
sba(i__main__
Mention
p209
(dp210
g7
S't3'
p211
sg9
S'Coreference-Identity'
p212
sg10
S'i26'
p213
sg12
S'i24'
p214
sg13
Nsg14
(lp215
(i__main__
Token
p216
(dp217
g18
I119
sbasg19
I119
sba(i__main__
Mention
p218
(dp219
g7
S't3'
p220
sg9
S'Coreference-Identity'
p221
sg10
S'i38'
p222
sg12
S'i26'
p223
sg13
Nsg14
(lp224
(i__main__
Token
p225
(dp226
g18
I181
sbasg19
I181
sba(i__main__
Mention
p227
(dp228
g7
S't3'
p229
sg9
S'Coreference-Noun-Noun'
p230
sg10
S'i40'
p231
sg12
S'i38'
p232
sg13
Nsg14
(lp233
(i__main__
Token
p234
(dp235
g18
I189
sba(i__main__
Token
p236
(dp237
g18
I190
sbasg19
I190
sba(i__main__
Mention
p238
(dp239
g7
S't3'
p240
sg9
S'Coreference-Identity'
p241
sg10
S'i42'
p242
sg12
S'i40'
p243
sg13
Nsg14
(lp244
(i__main__
Token
p245
(dp246
g18
I201
sba(i__main__
Token
p247
(dp248
g18
I202
sbasg19
I202
sbasg7
g173
sg38
Nsba(i__main__
Chain
p249
(dp250
g3
(lp251
(i__main__
Mention
p252
(dp253
g7
S't4'
p254
sg9
Nsg10
S'i6'
p255
sg12
Nsg13
Nsg14
(lp256
(i__main__
Token
p257
(dp258
g18
I13
sbasg19
I13
sba(i__main__
Mention
p259
(dp260
g7
S't4'
p261
sg9
S'Coreference-Identity'
p262
sg10
S'i27'
p263
sg12
S'i6'
p264
sg13
Nsg14
(lp265
(i__main__
Token
p266
(dp267
g18
I122
sbasg19
I122
sba(i__main__
Mention
p268
(dp269
g7
S't4'
p270
sg9
Nsg10
S'i28'
p271
sg12
Nsg13
Nsg14
(lp272
(i__main__
Token
p273
(dp274
g18
I124
sba(i__main__
Token
p275
(dp276
g18
I125
sbasg19
Nsbasg7
g254
sg38
Nsba(i__main__
Chain
p277
(dp278
g3
(lp279
(i__main__
Mention
p280
(dp281
g7
S't5'
p282
sg9
Nsg10
S'i7'
p283
sg12
Nsg13
Nsg14
(lp284
(i__main__
Token
p285
(dp286
g18
I15
sbasg19
I15
sba(i__main__
Mention
p287
(dp288
g7
S't5'
p289
sg9
S'Coreference-Identity'
p290
sg10
S'i14'
p291
sg12
S'i7'
p292
sg13
Nsg14
(lp293
(i__main__
Token
p294
(dp295
g18
I58
sbasg19
I58
sbasg7
g282
sg38
Nsba(i__main__
Chain
p296
(dp297
g3
(lp298
(i__main__
Mention
p299
(dp300
g7
S't6'
p301
sg9
Nsg10
S'i8'
p302
sg12
Nsg13
Nsg14
(lp303
(i__main__
Token
p304
(dp305
g18
I17
sbasg19
I17
sba(i__main__
Mention
p306
(dp307
g7
S't6'
p308
sg9
S'Coreference-Identity'
p309
sg10
S'i15'
p310
sg12
S'i8'
p311
sg13
Nsg14
(lp312
(i__main__
Token
p313
(dp314
g18
I60
sbasg19
I60
sbasg7
g301
sg38
Nsba(i__main__
Chain
p315
(dp316
g3
(lp317
(i__main__
Mention
p318
(dp319
g7
S't7'
p320
sg9
Nsg10
S'i9'
p321
sg12
Nsg13
Nsg14
(lp322
(i__main__
Token
p323
(dp324
g18
I24
sba(i__main__
Token
p325
(dp326
g18
I25
sba(i__main__
Token
p327
(dp328
g18
I26
sbasg19
I26
sba(i__main__
Mention
p329
(dp330
g7
S't7'
p331
sg9
S'Coreference-Identity'
p332
sg10
S'i17'
p333
sg12
S'i9'
p334
sg13
Nsg14
(lp335
(i__main__
Token
p336
(dp337
g18
I66
sba(i__main__
Token
p338
(dp339
g18
I67
sbasg19
I67
sba(i__main__
Mention
p340
(dp341
g7
S't7'
p342
sg9
S'Coreference-Identity'
p343
sg10
S'i19'
p344
sg12
S'i17'
p345
sg13
Nsg14
(lp346
(i__main__
Token
p347
(dp348
g18
I76
sba(i__main__
Token
p349
(dp350
g18
I77
sbasg19
I77
sba(i__main__
Mention
p351
(dp352
g7
S't7'
p353
sg9
S'Anaphora-C'
p354
sg10
S'i20'
p355
sg12
S'i19'
p356
sg13
Nsg14
(lp357
(i__main__
Token
p358
(dp359
g18
I91
sbasg19
I91
sba(i__main__
Mention
p360
(dp361
g7
S't7'
p362
sg9
S'Anaphora-C'
p363
sg10
S'i22'
p364
sg12
S'i20'
p365
sg13
Nsg14
(lp366
(i__main__
Token
p367
(dp368
g18
I101
sbasg19
I101
sbasg7
g320
sg38
Nsba(i__main__
Chain
p369
(dp370
g3
(lp371
(i__main__
Mention
p372
(dp373
g7
S't8'
p374
sg9
Nsg10
S'i11'
p375
sg12
Nsg13
Nsg14
(lp376
(i__main__
Token
p377
(dp378
g18
I39
sbasg19
I39
sba(i__main__
Mention
p379
(dp380
g7
S't8'
p381
sg9
Nsg10
S'i29'
p382
sg12
Nsg13
Nsg14
(lp383
(i__main__
Token
p384
(dp385
g18
I124
sba(i__main__
Token
p386
(dp387
g18
I125
sbasg19
Nsba(i__main__
Mention
p388
(dp389
g7
S't8'
p390
sg9
S'Coreference-Identity'
p391
sg10
S'i39'
p392
sg12
S'i29'
p393
sg13
Nsg14
(lp394
(i__main__
Token
p395
(dp396
g18
I184
sba(i__main__
Token
p397
(dp398
g18
I185
sbasg19
I185
sbasg7
g374
sg38
Nsba(i__main__
Chain
p399
(dp400
g3
(lp401
(i__main__
Mention
p402
(dp403
g7
S't9'
p404
sg9
Nsg10
S'i16'
p405
sg12
Nsg13
Nsg14
(lp406
(i__main__
Token
p407
(dp408
g18
I64
sbasg19
I64
sba(i__main__
Mention
p409
(dp410
g7
S't9'
p411
sg9
S'Coreference-Identity'
p412
sg10
S'i21'
p413
sg12
S'i16'
p414
sg13
Nsg14
(lp415
(i__main__
Token
p416
(dp417
g18
I93
sbasg19
I93
sbasg7
g404
sg38
Nsba(i__main__
Chain
p418
(dp419
g3
(lp420
(i__main__
Mention
p421
(dp422
g7
S't10'
p423
sg9
Nsg10
S'i33'
p424
sg12
Nsg13
Nsg14
(lp425
(i__main__
Token
p426
(dp427
g18
I151
sbasg19
I151
sba(i__main__
Mention
p428
(dp429
g7
S't10'
p430
sg9
S'Coreference-Identity'
p431
sg10
S'i35'
p432
sg12
S'i33'
p433
sg13
Nsg14
(lp434
(i__main__
Token
p435
(dp436
g18
I158
sba(i__main__
Token
p437
(dp438
g18
I159
sbasg19
I159
sbasg7
g423
sg38
Nsba(i__main__
Chain
p439
(dp440
g3
(lp441
(i__main__
Mention
p442
(dp443
g7
S't11'
p444
sg9
S'anaphora-?'
p445
sg10
S'i45'
p446
sg12
S'i45'
p447
sg13
Nsg14
(lp448
(i__main__
Token
p449
(dp450
g18
I243
sbasg19
I243
sbasg7
g444
sg38
Nsba.