(lp0
(i__main__
Chain
p1
(dp2
S'mentionList'
p3
(lp4
(i__main__
Mention
p5
(dp6
S'chainId'
p7
S't1'
p8
sS'relType'
p9
NsS'mentionId'
p10
S'i1'
p11
sS'antecedentId'
p12
NsS'crefMod'
p13
NsS'tokenList'
p14
(lp15
(i__main__
Token
p16
(dp17
S'tokenId'
p18
I0
sba(i__main__
Token
p19
(dp20
g18
I1
sba(i__main__
Token
p21
(dp22
g18
I2
sba(i__main__
Token
p23
(dp24
g18
I3
sbasS'mentionHead'
p25
I2
sba(i__main__
Mention
p26
(dp27
g7
S't1'
p28
sg9
S'Coreference-Identity'
p29
sg10
S'i2'
p30
sg12
S'i1'
p31
sg13
Nsg14
(lp32
(i__main__
Token
p33
(dp34
g18
I9
sba(i__main__
Token
p35
(dp36
g18
I10
sba(i__main__
Token
p37
(dp38
g18
I11
sba(i__main__
Token
p39
(dp40
g18
I12
sbasg25
I11
sba(i__main__
Mention
p41
(dp42
g7
S't1'
p43
sg9
S'Coreference-Identity'
p44
sg10
S'i3'
p45
sg12
S'i2'
p46
sg13
Nsg14
(lp47
(i__main__
Token
p48
(dp49
g18
I30
sba(i__main__
Token
p50
(dp51
g18
I31
sba(i__main__
Token
p52
(dp53
g18
I32
sba(i__main__
Token
p54
(dp55
g18
I33
sbasg25
I32
sba(i__main__
Mention
p56
(dp57
g7
S't1'
p58
sg9
S'Anaphora-C'
p59
sg10
S'i5'
p60
sg12
S'i3'
p61
sg13
Nsg14
(lp62
(i__main__
Token
p63
(dp64
g18
I54
sbasg25
I54
sba(i__main__
Mention
p65
(dp66
g7
S't1'
p67
sg9
S'Coreference-Noun-Noun'
p68
sg10
S'i6'
p69
sg12
S'i5'
p70
sg13
Nsg14
(lp71
(i__main__
Token
p72
(dp73
g18
I65
sba(i__main__
Token
p74
(dp75
g18
I66
sbasg25
I65
sba(i__main__
Mention
p76
(dp77
g7
S't1'
p78
sg9
S'Coreference-Identity'
p79
sg10
S'i7'
p80
sg12
S'i6'
p81
sg13
Nsg14
(lp82
(i__main__
Token
p83
(dp84
g18
I88
sba(i__main__
Token
p85
(dp86
g18
I89
sbasg25
I88
sba(i__main__
Mention
p87
(dp88
g7
S't1'
p89
sg9
S'Coreference-Identity'
p90
sg10
S'i15'
p91
sg12
S'i7'
p92
sg13
Nsg14
(lp93
(i__main__
Token
p94
(dp95
g18
I138
sba(i__main__
Token
p96
(dp97
g18
I139
sbasg25
I138
sba(i__main__
Mention
p98
(dp99
g7
S't1'
p100
sg9
S'Anaphora-C'
p101
sg10
S'i18'
p102
sg12
S'i15'
p103
sg13
Nsg14
(lp104
(i__main__
Token
p105
(dp106
g18
I160
sbasg25
I160
sba(i__main__
Mention
p107
(dp108
g7
S't1'
p109
sg9
S'Coreference-Identity'
p110
sg10
S'i22'
p111
sg12
S'i18'
p112
sg13
Nsg14
(lp113
(i__main__
Token
p114
(dp115
g18
I196
sba(i__main__
Token
p116
(dp117
g18
I197
sbasg25
I196
sbasg7
g8
sS'chainHead'
p118
Nsba(i__main__
Chain
p119
(dp120
g3
(lp121
(i__main__
Mention
p122
(dp123
g7
S't2'
p124
sg9
Nsg10
S'i4'
p125
sg12
Nsg13
Nsg14
(lp126
(i__main__
Token
p127
(dp128
g18
I43
sba(i__main__
Token
p129
(dp130
g18
I44
sba(i__main__
Token
p131
(dp132
g18
I45
sbasg25
I44
sba(i__main__
Mention
p133
(dp134
g7
S't2'
p135
sg9
S'Coreference-Identity'
p136
sg10
S'i20'
p137
sg12
S'i4'
p138
sg13
Nsg14
(lp139
(i__main__
Token
p140
(dp141
g18
I178
sba(i__main__
Token
p142
(dp143
g18
I179
sbasg25
I178
sbasg7
g124
sg118
Nsba(i__main__
Chain
p144
(dp145
g3
(lp146
(i__main__
Mention
p147
(dp148
g7
S't3'
p149
sg9
Nsg10
S'i8'
p150
sg12
Nsg13
Nsg14
(lp151
(i__main__
Token
p152
(dp153
g18
I105
sbasg25
I105
sbasg7
g149
sg118
Nsba(i__main__
Chain
p154
(dp155
g3
(lp156
(i__main__
Mention
p157
(dp158
g7
S't4'
p159
sg9
Nsg10
S'i9'
p160
sg12
Nsg13
Nsg14
(lp161
(i__main__
Token
p162
(dp163
g18
I113
sbasg25
I113
sba(i__main__
Mention
p164
(dp165
g7
S't4'
p166
sg9
S'Coreference-NounComplement'
p167
sg10
S'i10'
p168
sg12
S'i9'
p169
sg13
Nsg14
(lp170
(i__main__
Token
p171
(dp172
g18
I114
sba(i__main__
Token
p173
(dp174
g18
I115
sba(i__main__
Token
p175
(dp176
g18
I116
sbasg25
I116
sbasg7
g159
sg118
Nsba(i__main__
Chain
p177
(dp178
g3
(lp179
(i__main__
Mention
p180
(dp181
g7
S't5'
p182
sg9
Nsg10
S'i11'
p183
sg12
Nsg13
Nsg14
(lp184
(i__main__
Token
p185
(dp186
g18
I118
sba(i__main__
Token
p187
(dp188
g18
I119
sbasg25
I119
sba(i__main__
Mention
p189
(dp190
g7
S't5'
p191
sg9
S'Coreference-NounComplement'
p192
sg10
S'i12'
p193
sg12
S'i11'
p194
sg13
Nsg14
(lp195
(i__main__
Token
p196
(dp197
g18
I120
sba(i__main__
Token
p198
(dp199
g18
I121
sbasg25
I121
sbasg7
g182
sg118
Nsba(i__main__
Chain
p200
(dp201
g3
(lp202
(i__main__
Mention
p203
(dp204
g7
S't6'
p205
sg9
Nsg10
S'i13'
p206
sg12
Nsg13
Nsg14
(lp207
(i__main__
Token
p208
(dp209
g18
I133
sbasg25
I133
sba(i__main__
Mention
p210
(dp211
g7
S't6'
p212
sg9
S'Coreference-NounComplement'
p213
sg10
S'i14'
p214
sg12
S'i13'
p215
sg13
Nsg14
(lp216
(i__main__
Token
p217
(dp218
g18
I134
sba(i__main__
Token
p219
(dp220
g18
I135
sba(i__main__
Token
p221
(dp222
g18
I136
sbasg25
I136
sbasg7
g205
sg118
Nsba(i__main__
Chain
p223
(dp224
g3
(lp225
(i__main__
Mention
p226
(dp227
g7
S't7'
p228
sg9
Nsg10
S'i16'
p229
sg12
Nsg13
Nsg14
(lp230
(i__main__
Token
p231
(dp232
g18
I152
sbasg25
I152
sba(i__main__
Mention
p233
(dp234
g7
S't7'
p235
sg9
S'Anaphora-C'
p236
sg10
S'i17'
p237
sg12
S'i16'
p238
sg13
Nsg14
(lp239
(i__main__
Token
p240
(dp241
g18
I158
sbasg25
I158
sbasg7
g228
sg118
Nsba(i__main__
Chain
p242
(dp243
g3
(lp244
(i__main__
Mention
p245
(dp246
g7
S't8'
p247
sg9
Nsg10
S'i19'
p248
sg12
Nsg13
Nsg14
(lp249
(i__main__
Token
p250
(dp251
g18
I173
sbasg25
I173
sba(i__main__
Mention
p252
(dp253
g7
S't8'
p254
sg9
S'Coreference-Identity'
p255
sg10
S'i21'
p256
sg12
S'i19'
p257
sg13
Nsg14
(lp258
(i__main__
Token
p259
(dp260
g18
I186
sbasg25
I186
sbasg7
g247
sg118
Nsba.