(lp0
(i__main__
Chain
p1
(dp2
S'mentionList'
p3
(lp4
(i__main__
Mention
p5
(dp6
S'chainId'
p7
S't1'
p8
sS'relType'
p9
NsS'mentionId'
p10
S'i1'
p11
sS'antecedentId'
p12
NsS'crefMod'
p13
NsS'tokenList'
p14
(lp15
(i__main__
Token
p16
(dp17
S'tokenId'
p18
I0
sba(i__main__
Token
p19
(dp20
g18
I1
sbasS'mentionHead'
p21
I1
sba(i__main__
Mention
p22
(dp23
g7
S't1'
p24
sg9
S'Coreference-NounComplement'
p25
sg10
S'i2'
p26
sg12
S'i1'
p27
sg13
Nsg14
(lp28
(i__main__
Token
p29
(dp30
g18
I2
sbasg21
I2
sba(i__main__
Mention
p31
(dp32
g7
S't1'
p33
sg9
Nsg10
S'i33'
p34
sg12
Nsg13
Nsg14
(lp35
(i__main__
Token
p36
(dp37
g18
I101
sba(i__main__
Token
p38
(dp39
g18
I102
sbasg21
Nsba(i__main__
Mention
p40
(dp41
g7
S't1'
p42
sg9
S'Coreference-PartOf'
p43
sg10
S'i41'
p44
sg12
S'i33'
p45
sg13
Nsg14
(lp46
(i__main__
Token
p47
(dp48
g18
I143
sbasg21
I143
sba(i__main__
Mention
p49
(dp50
g7
S't1'
p51
sg9
S'Coreference-Identity'
p52
sg10
S'i43'
p53
sg12
S'i41'
p54
sg13
Nsg14
(lp55
(i__main__
Token
p56
(dp57
g18
I155
sbasg21
I155
sbasg7
g8
sS'chainHead'
p58
Nsba(i__main__
Chain
p59
(dp60
g3
(lp61
(i__main__
Mention
p62
(dp63
g7
S't2'
p64
sg9
Nsg10
S'i3'
p65
sg12
Nsg13
Nsg14
(lp66
(i__main__
Token
p67
(dp68
g18
I4
sba(i__main__
Token
p69
(dp70
g18
I5
sba(i__main__
Token
p71
(dp72
g18
I6
sbasg21
I6
sba(i__main__
Mention
p73
(dp74
g7
S't2'
p75
sg9
Nsg10
S'i32'
p76
sg12
Nsg13
Nsg14
(lp77
(i__main__
Token
p78
(dp79
g18
I101
sba(i__main__
Token
p80
(dp81
g18
I102
sbasg21
Nsbasg7
g64
sg58
Nsba(i__main__
Chain
p82
(dp83
g3
(lp84
(i__main__
Mention
p85
(dp86
g7
S't3'
p87
sg9
Nsg10
S'i4'
p88
sg12
Nsg13
Nsg14
(lp89
(i__main__
Token
p90
(dp91
g18
I9
sba(i__main__
Token
p92
(dp93
g18
I10
sbasg21
I10
sba(i__main__
Mention
p94
(dp95
g7
S't3'
p96
sg9
S'Coreference-Identity'
p97
sg10
S'i31'
p98
sg12
S'i4'
p99
sg13
Nsg14
(lp100
(i__main__
Token
p101
(dp102
g18
I99
sbasg21
I99
sba(i__main__
Mention
p103
(dp104
g7
S't3'
p105
sg9
S'Coreference-Identity'
p106
sg10
S'i36'
p107
sg12
S'i31'
p108
sg13
Nsg14
(lp109
(i__main__
Token
p110
(dp111
g18
I118
sbasg21
I118
sbasg7
g87
sg58
Nsba(i__main__
Chain
p112
(dp113
g3
(lp114
(i__main__
Mention
p115
(dp116
g7
S't4'
p117
sg9
Nsg10
S'i5'
p118
sg12
Nsg13
Nsg14
(lp119
(i__main__
Token
p120
(dp121
g18
I9
sbasg21
I9
sba(i__main__
Mention
p122
(dp123
g7
S't4'
p124
sg9
S'Coreference-Identity'
p125
sg10
S'i27'
p126
sg12
S'i5'
p127
sg13
Nsg14
(lp128
(i__main__
Token
p129
(dp130
g18
I72
sbasg21
I72
sba(i__main__
Mention
p131
(dp132
g7
S't4'
p133
sg9
S'Coreference-Identity'
p134
sg10
S'i47'
p135
sg12
S'i27'
p136
sg13
Nsg14
(lp137
(i__main__
Token
p138
(dp139
g18
I170
sbasg21
I170
sbasg7
g117
sg58
Nsba(i__main__
Chain
p140
(dp141
g3
(lp142
(i__main__
Mention
p143
(dp144
g7
S't5'
p145
sg9
Nsg10
S'i6'
p146
sg12
Nsg13
Nsg14
(lp147
(i__main__
Token
p148
(dp149
g18
I14
sba(i__main__
Token
p150
(dp151
g18
I15
sbasg21
I15
sba(i__main__
Mention
p152
(dp153
g7
S't5'
p154
sg9
S'Coreference-Identity'
p155
sg10
S'i18'
p156
sg12
S'i6'
p157
sg13
Nsg14
(lp158
(i__main__
Token
p159
(dp160
g18
I49
sba(i__main__
Token
p161
(dp162
g18
I50
sbasg21
I50
sbasg7
g145
sg58
Nsba(i__main__
Chain
p163
(dp164
g3
(lp165
(i__main__
Mention
p166
(dp167
g7
S't6'
p168
sg9
Nsg10
S'i7'
p169
sg12
Nsg13
Nsg14
(lp170
(i__main__
Token
p171
(dp172
g18
I14
sbasg21
I14
sba(i__main__
Mention
p173
(dp174
g7
S't6'
p175
sg9
S'Coreference-InferedRelation'
p176
sg10
S'i19'
p177
sg12
S'i7'
p178
sg13
Nsg14
(lp179
(i__main__
Token
p180
(dp181
g18
I49
sbasg21
I49
sbasg7
g168
sg58
Nsba(i__main__
Chain
p182
(dp183
g3
(lp184
(i__main__
Mention
p185
(dp186
g7
S't7'
p187
sg9
Nsg10
S'i8'
p188
sg12
Nsg13
Nsg14
(lp189
(i__main__
Token
p190
(dp191
g18
I17
sbasg21
I17
sba(i__main__
Mention
p192
(dp193
g7
S't7'
p194
sg9
S'Coreference-Identity'
p195
sg10
S'i20'
p196
sg12
S'i8'
p197
sg13
Nsg14
(lp198
(i__main__
Token
p199
(dp200
g18
I52
sbasg21
I52
sbasg7
g187
sg58
Nsba(i__main__
Chain
p201
(dp202
g3
(lp203
(i__main__
Mention
p204
(dp205
g7
S't8'
p206
sg9
Nsg10
S'i9'
p207
sg12
Nsg13
Nsg14
(lp208
(i__main__
Token
p209
(dp210
g18
I19
sbasg21
I19
sba(i__main__
Mention
p211
(dp212
g7
S't8'
p213
sg9
S'Coreference-Identity'
p214
sg10
S'i21'
p215
sg12
S'i9'
p216
sg13
Nsg14
(lp217
(i__main__
Token
p218
(dp219
g18
I54
sbasg21
I54
sba(i__main__
Mention
p220
(dp221
g7
S't8'
p222
sg9
S'Coreference-Identity'
p223
sg10
S'i24'
p224
sg12
S'i21'
p225
sg13
Nsg14
(lp226
(i__main__
Token
p227
(dp228
g18
I62
sbasg21
I62
sbasg7
g206
sg58
Nsba(i__main__
Chain
p229
(dp230
g3
(lp231
(i__main__
Mention
p232
(dp233
g7
S't9'
p234
sg9
Nsg10
S'i10'
p235
sg12
Nsg13
Nsg14
(lp236
(i__main__
Token
p237
(dp238
g18
I24
sba(i__main__
Token
p239
(dp240
g18
I25
sbasg21
I25
sba(i__main__
Mention
p241
(dp242
g7
S't9'
p243
sg9
S'Anaphora-C'
p244
sg10
S'i12'
p245
sg12
S'i10'
p246
sg13
Nsg14
(lp247
(i__main__
Token
p248
(dp249
g18
I29
sbasg21
I29
sba(i__main__
Mention
p250
(dp251
g7
S't9'
p252
sg9
S'Coreference-Identity'
p253
sg10
S'i16'
p254
sg12
S'i12'
p255
sg13
Nsg14
(lp256
(i__main__
Token
p257
(dp258
g18
I42
sbasg21
I42
sba(i__main__
Mention
p259
(dp260
g7
S't9'
p261
sg9
S'Coreference-Identity'
p262
sg10
S'i23'
p263
sg12
S'i16'
p264
sg13
Nsg14
(lp265
(i__main__
Token
p266
(dp267
g18
I60
sbasg21
I60
sba(i__main__
Mention
p268
(dp269
g7
S't9'
p270
sg9
S'Coreference-Identity'
p271
sg10
S'i30'
p272
sg12
S'i23'
p273
sg13
Nsg14
(lp274
(i__main__
Token
p275
(dp276
g18
I97
sbasg21
I97
sba(i__main__
Mention
p277
(dp278
g7
S't9'
p279
sg9
S'Coreference-Identity'
p280
sg10
S'i34'
p281
sg12
S'i30'
p282
sg13
Nsg14
(lp283
(i__main__
Token
p284
(dp285
g18
I104
sbasg21
I104
sba(i__main__
Mention
p286
(dp287
g7
S't9'
p288
sg9
S'Coreference-Identity'
p289
sg10
S'i42'
p290
sg12
S'i34'
p291
sg13
Nsg14
(lp292
(i__main__
Token
p293
(dp294
g18
I145
sbasg21
I145
sbasg7
g234
sg58
Nsba(i__main__
Chain
p295
(dp296
g3
(lp297
(i__main__
Mention
p298
(dp299
g7
S't10'
p300
sg9
Nsg10
S'i11'
p301
sg12
Nsg13
Nsg14
(lp302
(i__main__
Token
p303
(dp304
g18
I27
sbasg21
I27
sba(i__main__
Mention
p305
(dp306
g7
S't10'
p307
sg9
S'Coreference-Identity'
p308
sg10
S'i35'
p309
sg12
S'i11'
p310
sg13
Nsg14
(lp311
(i__main__
Token
p312
(dp313
g18
I116
sbasg21
I116
sbasg7
g300
sg58
Nsba(i__main__
Chain
p314
(dp315
g3
(lp316
(i__main__
Mention
p317
(dp318
g7
S't11'
p319
sg9
Nsg10
S'i13'
p320
sg12
Nsg13
Nsg14
(lp321
(i__main__
Token
p322
(dp323
g18
I30
sbasg21
I30
sba(i__main__
Mention
p324
(dp325
g7
S't11'
p326
sg9
S'Coreference-Identity'
p327
sg10
S'i29'
p328
sg12
S'i13'
p329
sg13
Nsg14
(lp330
(i__main__
Token
p331
(dp332
g18
I85
sbasg21
I85
sbasg7
g319
sg58
Nsba(i__main__
Chain
p333
(dp334
g3
(lp335
(i__main__
Mention
p336
(dp337
g7
S't12'
p338
sg9
Nsg10
S'i14'
p339
sg12
Nsg13
Nsg14
(lp340
(i__main__
Token
p341
(dp342
g18
I38
sba(i__main__
Token
p343
(dp344
g18
I39
sbasg21
I39
sba(i__main__
Mention
p345
(dp346
g7
S't12'
p347
sg9
S'Coreference-NounComplement'
p348
sg10
S'i15'
p349
sg12
S'i14'
p350
sg13
Nsg14
(lp351
(i__main__
Token
p352
(dp353
g18
I40
sbasg21
I40
sba(i__main__
Mention
p354
(dp355
g7
S't12'
p356
sg9
S'Anaphora-C'
p357
sg10
S'i17'
p358
sg12
S'i15'
p359
sg13
Nsg14
(lp360
(i__main__
Token
p361
(dp362
g18
I47
sbasg21
I47
sba(i__main__
Mention
p363
(dp364
g7
S't12'
p365
sg9
S'Anaphora-C'
p366
sg10
S'i22'
p367
sg12
S'i17'
p368
sg13
Nsg14
(lp369
(i__main__
Token
p370
(dp371
g18
I59
sbasg21
I59
sba(i__main__
Mention
p372
(dp373
g7
S't12'
p374
sg9
S'Coreference-Noun-Noun'
p375
sg10
S'i44'
p376
sg12
S'i22'
p377
sg13
Nsg14
(lp378
(i__main__
Token
p379
(dp380
g18
I163
sba(i__main__
Token
p381
(dp382
g18
I164
sbasg21
I164
sba(i__main__
Mention
p383
(dp384
g7
S't12'
p385
sg9
S'Anaphora-C'
p386
sg10
S'i45'
p387
sg12
S'i44'
p388
sg13
Nsg14
(lp389
(i__main__
Token
p390
(dp391
g18
I166
sbasg21
I166
sbasg7
g338
sg58
Nsba(i__main__
Chain
p392
(dp393
g3
(lp394
(i__main__
Mention
p395
(dp396
g7
S't13'
p397
sg9
S'anaphora-?'
p398
sg10
S'i25'
p399
sg12
S'i25'
p400
sg13
Nsg14
(lp401
(i__main__
Token
p402
(dp403
g18
I67
sbasg21
I67
sbasg7
g397
sg58
Nsba(i__main__
Chain
p404
(dp405
g3
(lp406
(i__main__
Mention
p407
(dp408
g7
S't14'
p409
sg9
Nsg10
S'i26'
p410
sg12
Nsg13
Nsg14
(lp411
(i__main__
Token
p412
(dp413
g18
I72
sba(i__main__
Token
p414
(dp415
g18
I73
sbasg21
I73
sba(i__main__
Mention
p416
(dp417
g7
S't14'
p418
sg9
S'Coreference-NounComplement'
p419
sg10
S'i28'
p420
sg12
S'i26'
p421
sg13
Nsg14
(lp422
(i__main__
Token
p423
(dp424
g18
I74
sba(i__main__
Token
p425
(dp426
g18
I75
sbasg21
I75
sbasg7
g409
sg58
Nsba(i__main__
Chain
p427
(dp428
g3
(lp429
(i__main__
Mention
p430
(dp431
g7
S't15'
p432
sg9
Nsg10
S'i37'
p433
sg12
Nsg13
Nsg14
(lp434
(i__main__
Token
p435
(dp436
g18
I126
sbasg21
Nsba(i__main__
Mention
p437
(dp438
g7
S't15'
p439
sg9
S'Coreference-PartOf'
p440
sg10
S'i39'
p441
sg12
S'i37'
p442
sg13
Nsg14
(lp443
(i__main__
Token
p444
(dp445
g18
I127
sba(i__main__
Token
p446
(dp447
g18
I128
sbasg21
I128
sbasg7
g432
sg58
Nsba(i__main__
Chain
p448
(dp449
g3
(lp450
(i__main__
Mention
p451
(dp452
g7
S't16'
p453
sg9
Nsg10
S'i38'
p454
sg12
Nsg13
Nsg14
(lp455
(i__main__
Token
p456
(dp457
g18
I126
sbasg21
Nsba(i__main__
Mention
p458
(dp459
g7
S't16'
p460
sg9
S'Coreference-PartOf'
p461
sg10
S'i40'
p462
sg12
S'i38'
p463
sg13
Nsg14
(lp464
(i__main__
Token
p465
(dp466
g18
I130
sba(i__main__
Token
p467
(dp468
g18
I131
sba(i__main__
Token
p469
(dp470
g18
I132
sbasg21
I132
sbasg7
g453
sg58
Nsba(i__main__
Chain
p471
(dp472
g3
(lp473
(i__main__
Mention
p474
(dp475
g7
S't17'
p476
sg9
Nsg10
S'i46'
p477
sg12
Nsg13
Nsg14
(lp478
(i__main__
Token
p479
(dp480
g18
I169
sba(i__main__
Token
p481
(dp482
g18
I170
sba(i__main__
Token
p483
(dp484
g18
I171
sba(i__main__
Token
p485
(dp486
g18
I172
sbasg21
I172
sba(i__main__
Mention
p487
(dp488
g7
S't17'
p489
sg9
S'Coreference-Identity'
p490
sg10
S'i48'
p491
sg12
S'i46'
p492
sg13
Nsg14
(lp493
(i__main__
Token
p494
(dp495
g18
I177
sbasg21
I177
sbasg7
g476
sg58
Nsba.