(lp0
(i__main__
Chain
p1
(dp2
S'mentionList'
p3
(lp4
(i__main__
Mention
p5
(dp6
S'chainId'
p7
S't1'
p8
sS'relType'
p9
NsS'mentionId'
p10
S'i1'
p11
sS'antecedentId'
p12
NsS'crefMod'
p13
NsS'tokenList'
p14
(lp15
(i__main__
Token
p16
(dp17
S'tokenId'
p18
I22
sbasS'mentionHead'
p19
I22
sba(i__main__
Mention
p20
(dp21
g7
S't1'
p22
sg9
S'Coreference-NounComplement'
p23
sg10
S'i3'
p24
sg12
S'i1'
p25
sg13
Nsg14
(lp26
(i__main__
Token
p27
(dp28
g18
I23
sba(i__main__
Token
p29
(dp30
g18
I24
sbasg19
I24
sba(i__main__
Mention
p31
(dp32
g7
S't1'
p33
sg9
S'Coreference-Identity'
p34
sg10
S'i15'
p35
sg12
S'i3'
p36
sg13
Nsg14
(lp37
(i__main__
Token
p38
(dp39
g18
I65
sbasg19
I65
sba(i__main__
Mention
p40
(dp41
g7
S't1'
p42
sg9
S'Coreference-Identity'
p43
sg10
S'i21'
p44
sg12
S'i15'
p45
sg13
Nsg14
(lp46
(i__main__
Token
p47
(dp48
g18
I87
sbasg19
I87
sba(i__main__
Mention
p49
(dp50
g7
S't1'
p51
sg9
S'Coreference-Noun-Noun'
p52
sg10
S'i43'
p53
sg12
S'i21'
p54
sg13
Nsg14
(lp55
(i__main__
Token
p56
(dp57
g18
I175
sbasg19
I175
sba(i__main__
Mention
p58
(dp59
g7
S't1'
p60
sg9
Nsg10
S'i44'
p61
sg12
Nsg13
Nsg14
(lp62
(i__main__
Token
p63
(dp64
g18
I177
sbasg19
Nsba(i__main__
Mention
p65
(dp66
g7
S't1'
p67
sg9
S'Coreference-Noun-Noun'
p68
sg10
S'i54'
p69
sg12
S'i44'
p70
sg13
Nsg14
(lp71
(i__main__
Token
p72
(dp73
g18
I246
sbasg19
I246
sba(i__main__
Mention
p74
(dp75
g7
S't1'
p76
sg9
S'Coreference-Noun-Noun'
p77
sg10
S'i93'
p78
sg12
S'i54'
p79
sg13
Nsg14
(lp80
(i__main__
Token
p81
(dp82
g18
I456
sbasg19
I456
sba(i__main__
Mention
p83
(dp84
g7
S't1'
p85
sg9
S'Coreference-Identity'
p86
sg10
S'i108'
p87
sg12
S'i93'
p88
sg13
Nsg14
(lp89
(i__main__
Token
p90
(dp91
g18
I509
sbasg19
I509
sba(i__main__
Mention
p92
(dp93
g7
S't1'
p94
sg9
S'Coreference-Noun-Noun'
p95
sg10
S'i113'
p96
sg12
S'i108'
p97
sg13
Nsg14
(lp98
(i__main__
Token
p99
(dp100
g18
I535
sbasg19
I535
sba(i__main__
Mention
p101
(dp102
g7
S't1'
p103
sg9
S'Coreference-Identity'
p104
sg10
S'i118'
p105
sg12
S'i113'
p106
sg13
Nsg14
(lp107
(i__main__
Token
p108
(dp109
g18
I559
sbasg19
I559
sba(i__main__
Mention
p110
(dp111
g7
S't1'
p112
sg9
S'Coreference-Noun-Noun'
p113
sg10
S'i128'
p114
sg12
S'i118'
p115
sg13
Nsg14
(lp116
(i__main__
Token
p117
(dp118
g18
I610
sbasg19
I610
sbasg7
g8
sS'chainHead'
p119
Nsba(i__main__
Chain
p120
(dp121
g3
(lp122
(i__main__
Mention
p123
(dp124
g7
S't2'
p125
sg9
Nsg10
S'i2'
p126
sg12
Nsg13
Nsg14
(lp127
(i__main__
Token
p128
(dp129
g18
I22
sba(i__main__
Token
p130
(dp131
g18
I23
sba(i__main__
Token
p132
(dp133
g18
I24
sba(i__main__
Token
p134
(dp135
g18
I25
sba(i__main__
Token
p136
(dp137
g18
I26
sba(i__main__
Token
p138
(dp139
g18
I27
sba(i__main__
Token
p140
(dp141
g18
I28
sba(i__main__
Token
p142
(dp143
g18
I29
sba(i__main__
Token
p144
(dp145
g18
I30
sba(i__main__
Token
p146
(dp147
g18
I31
sbasg19
I31
sba(i__main__
Mention
p148
(dp149
g7
S't2'
p150
sg9
S'Coreference-Identity'
p151
sg10
S'i16'
p152
sg12
S'i2'
p153
sg13
Nsg14
(lp154
(i__main__
Token
p155
(dp156
g18
I65
sba(i__main__
Token
p157
(dp158
g18
I66
sba(i__main__
Token
p159
(dp160
g18
I67
sba(i__main__
Token
p161
(dp162
g18
I68
sbasg19
I68
sba(i__main__
Mention
p163
(dp164
g7
S't2'
p165
sg9
S'Anaphora-C'
p166
sg10
S'i18'
p167
sg12
S'i16'
p168
sg13
Nsg14
(lp169
(i__main__
Token
p170
(dp171
g18
I76
sbasg19
I76
sba(i__main__
Mention
p172
(dp173
g7
S't2'
p174
sg9
S'Coreference-Identity'
p175
sg10
S'i114'
p176
sg12
S'i18'
p177
sg13
Nsg14
(lp178
(i__main__
Token
p179
(dp180
g18
I535
sba(i__main__
Token
p181
(dp182
g18
I536
sba(i__main__
Token
p183
(dp184
g18
I537
sba(i__main__
Token
p185
(dp186
g18
I538
sba(i__main__
Token
p187
(dp188
g18
I539
sba(i__main__
Token
p189
(dp190
g18
I540
sbasg19
I540
sbasg7
g125
sg119
Nsba(i__main__
Chain
p191
(dp192
g3
(lp193
(i__main__
Mention
p194
(dp195
g7
S't3'
p196
sg9
Nsg10
S'i4'
p197
sg12
Nsg13
Nsg14
(lp198
(i__main__
Token
p199
(dp200
g18
I26
sbasg19
I26
sba(i__main__
Mention
p201
(dp202
g7
S't3'
p203
sg9
S'Coreference-NounComplement'
p204
sg10
S'i5'
p205
sg12
S'i4'
p206
sg13
Nsg14
(lp207
(i__main__
Token
p208
(dp209
g18
I27
sba(i__main__
Token
p210
(dp211
g18
I28
sbasg19
I28
sba(i__main__
Mention
p212
(dp213
g7
S't3'
p214
sg9
S'Coreference-Identity'
p215
sg10
S'i10'
p216
sg12
S'i5'
p217
sg13
Nsg14
(lp218
(i__main__
Token
p219
(dp220
g18
I50
sbasg19
I50
sba(i__main__
Mention
p221
(dp222
g7
S't3'
p223
sg9
S'Coreference-Identity'
p224
sg10
S'i17'
p225
sg12
S'i10'
p226
sg13
Nsg14
(lp227
(i__main__
Token
p228
(dp229
g18
I67
sbasg19
I67
sba(i__main__
Mention
p230
(dp231
g7
S't3'
p232
sg9
S'Coreference-Noun-Noun'
p233
sg10
S'i19'
p234
sg12
S'i17'
p235
sg13
Nsg14
(lp236
(i__main__
Token
p237
(dp238
g18
I79
sbasg19
I79
sba(i__main__
Mention
p239
(dp240
g7
S't3'
p241
sg9
S'Coreference-Identity'
p242
sg10
S'i24'
p243
sg12
S'i19'
p244
sg13
Nsg14
(lp245
(i__main__
Token
p246
(dp247
g18
I110
sbasg19
I110
sba(i__main__
Mention
p248
(dp249
g7
S't3'
p250
sg9
S'Coreference-Identity'
p251
sg10
S'i42'
p252
sg12
S'i24'
p253
sg13
Nsg14
(lp254
(i__main__
Token
p255
(dp256
g18
I173
sbasg19
I173
sba(i__main__
Mention
p257
(dp258
g7
S't3'
p259
sg9
Nsg10
S'i45'
p260
sg12
Nsg13
Nsg14
(lp261
(i__main__
Token
p262
(dp263
g18
I177
sbasg19
Nsba(i__main__
Mention
p264
(dp265
g7
S't3'
p266
sg9
S'Coreference-Noun-Noun'
p267
sg10
S'i91'
p268
sg12
S'i45'
p269
sg13
Nsg14
(lp270
(i__main__
Token
p271
(dp272
g18
I454
sbasg19
I454
sba(i__main__
Mention
p273
(dp274
g7
S't3'
p275
sg9
S'Anaphora-C'
p276
sg10
S'i96'
p277
sg12
S'i91'
p278
sg13
Nsg14
(lp279
(i__main__
Token
p280
(dp281
g18
I471
sbasg19
I471
sba(i__main__
Mention
p282
(dp283
g7
S't3'
p284
sg9
S'Coreference-Identity'
p285
sg10
S'i99'
p286
sg12
S'i96'
p287
sg13
Nsg14
(lp288
(i__main__
Token
p289
(dp290
g18
I479
sbasg19
I479
sba(i__main__
Mention
p291
(dp292
g7
S't3'
p293
sg9
S'Anaphora-C'
p294
sg10
S'i101'
p295
sg12
S'i99'
p296
sg13
Nsg14
(lp297
(i__main__
Token
p298
(dp299
g18
I487
sbasg19
I487
sba(i__main__
Mention
p300
(dp301
g7
S't3'
p302
sg9
S'Anaphora-C'
p303
sg10
S'i104'
p304
sg12
S'i101'
p305
sg13
Nsg14
(lp306
(i__main__
Token
p307
(dp308
g18
I492
sbasg19
I492
sba(i__main__
Mention
p309
(dp310
g7
S't3'
p311
sg9
S'Coreference-Noun-Noun'
p312
sg10
S'i109'
p313
sg12
S'i104'
p314
sg13
Nsg14
(lp315
(i__main__
Token
p316
(dp317
g18
I511
sbasg19
I511
sba(i__main__
Mention
p318
(dp319
g7
S't3'
p320
sg9
S'Coreference-Noun-Noun'
p321
sg10
S'i115'
p322
sg12
S'i109'
p323
sg13
Nsg14
(lp324
(i__main__
Token
p325
(dp326
g18
I537
sbasg19
I537
sba(i__main__
Mention
p327
(dp328
g7
S't3'
p329
sg9
S'Coreference-Identity'
p330
sg10
S'i117'
p331
sg12
S'i115'
p332
sg13
Nsg14
(lp333
(i__main__
Token
p334
(dp335
g18
I552
sbasg19
I552
sba(i__main__
Mention
p336
(dp337
g7
S't3'
p338
sg9
S'Coreference-Identity'
p339
sg10
S'i125'
p340
sg12
S'i117'
p341
sg13
Nsg14
(lp342
(i__main__
Token
p343
(dp344
g18
I600
sbasg19
I600
sba(i__main__
Mention
p345
(dp346
g7
S't3'
p347
sg9
S'Anaphora-C'
p348
sg10
S'i127'
p349
sg12
S'i125'
p350
sg13
Nsg14
(lp351
(i__main__
Token
p352
(dp353
g18
I609
sbasg19
I609
sbasg7
g196
sg119
Nsba(i__main__
Chain
p354
(dp355
g3
(lp356
(i__main__
Mention
p357
(dp358
g7
S't4'
p359
sg9
Nsg10
S'i6'
p360
sg12
Nsg13
Nsg14
(lp361
(i__main__
Token
p362
(dp363
g18
I33
sba(i__main__
Token
p364
(dp365
g18
I34
sba(i__main__
Token
p366
(dp367
g18
I35
sba(i__main__
Token
p368
(dp369
g18
I36
sbasg19
I36
sba(i__main__
Mention
p370
(dp371
g7
S't4'
p372
sg9
S'Coreference-Bracketed/Abbraviation'
p373
sg10
S'i8'
p374
sg12
S'i6'
p375
sg13
Nsg14
(lp376
(i__main__
Token
p377
(dp378
g18
I38
sbasg19
I38
sba(i__main__
Mention
p379
(dp380
g7
S't4'
p381
sg9
S'Coreference-Noun-Noun'
p382
sg10
S'i11'
p383
sg12
S'i8'
p384
sg13
Nsg14
(lp385
(i__main__
Token
p386
(dp387
g18
I52
sbasg19
I52
sba(i__main__
Mention
p388
(dp389
g7
S't4'
p390
sg9
S'Coreference-Identity'
p391
sg10
S'i34'
p392
sg12
S'i11'
p393
sg13
Nsg14
(lp394
(i__main__
Token
p395
(dp396
g18
I145
sbasg19
I145
sba(i__main__
Mention
p397
(dp398
g7
S't4'
p399
sg9
S'Coreference-Noun-Noun'
p400
sg10
S'i63'
p401
sg12
S'i34'
p402
sg13
Nsg14
(lp403
(i__main__
Token
p404
(dp405
g18
I284
sbasg19
I284
sba(i__main__
Mention
p406
(dp407
g7
S't4'
p408
sg9
S'Coreference-Identity'
p409
sg10
S'i77'
p410
sg12
S'i63'
p411
sg13
Nsg14
(lp412
(i__main__
Token
p413
(dp414
g18
I352
sbasg19
I352
sba(i__main__
Mention
p415
(dp416
g7
S't4'
p417
sg9
S'Coreference-Identity'
p418
sg10
S'i84'
p419
sg12
S'i77'
p420
sg13
Nsg14
(lp421
(i__main__
Token
p422
(dp423
g18
I389
sbasg19
I389
sba(i__main__
Mention
p424
(dp425
g7
S't4'
p426
sg9
S'Coreference-Noun-Noun'
p427
sg10
S'i132'
p428
sg12
S'i84'
p429
sg13
Nsg14
(lp430
(i__main__
Token
p431
(dp432
g18
I625
sbasg19
I625
sbasg7
g359
sg119
Nsba(i__main__
Chain
p433
(dp434
g3
(lp435
(i__main__
Mention
p436
(dp437
g7
S't5'
p438
sg9
Nsg10
S'i7'
p439
sg12
Nsg13
Nsg14
(lp440
(i__main__
Token
p441
(dp442
g18
I41
sba(i__main__
Token
p443
(dp444
g18
I42
sbasg19
I42
sba(i__main__
Mention
p445
(dp446
g7
S't5'
p447
sg9
S'Coreference-NounComplement'
p448
sg10
S'i9'
p449
sg12
S'i7'
p450
sg13
Nsg14
(lp451
(i__main__
Token
p452
(dp453
g18
I43
sba(i__main__
Token
p454
(dp455
g18
I44
sbasg19
I44
sba(i__main__
Mention
p456
(dp457
g7
S't5'
p458
sg9
S'Coreference-Identity'
p459
sg10
S'i14'
p460
sg12
S'i9'
p461
sg13
Nsg14
(lp462
(i__main__
Token
p463
(dp464
g18
I63
sbasg19
I63
sba(i__main__
Mention
p465
(dp466
g7
S't5'
p467
sg9
S'Anaphora-C'
p468
sg10
S'i20'
p469
sg12
S'i14'
p470
sg13
Nsg14
(lp471
(i__main__
Token
p472
(dp473
g18
I84
sbasg19
I84
sba(i__main__
Mention
p474
(dp475
g7
S't5'
p476
sg9
S'Anaphora-C'
p477
sg10
S'i25'
p478
sg12
S'i20'
p479
sg13
Nsg14
(lp480
(i__main__
Token
p481
(dp482
g18
I117
sbasg19
I117
sba(i__main__
Mention
p483
(dp484
g7
S't5'
p485
sg9
S'Coreference-Identity'
p486
sg10
S'i37'
p487
sg12
S'i25'
p488
sg13
Nsg14
(lp489
(i__main__
Token
p490
(dp491
g18
I153
sbasg19
I153
sba(i__main__
Mention
p492
(dp493
g7
S't5'
p494
sg9
S'Coreference-Identity'
p495
sg10
S'i47'
p496
sg12
S'i37'
p497
sg13
Nsg14
(lp498
(i__main__
Token
p499
(dp500
g18
I192
sbasg19
I192
sba(i__main__
Mention
p501
(dp502
g7
S't5'
p503
sg9
S'Coreference-Identity'
p504
sg10
S'i90'
p505
sg12
S'i47'
p506
sg13
Nsg14
(lp507
(i__main__
Token
p508
(dp509
g18
I447
sbasg19
I447
sba(i__main__
Mention
p510
(dp511
g7
S't5'
p512
sg9
S'Coreference-Identity'
p513
sg10
S'i107'
p514
sg12
S'i90'
p515
sg13
Nsg14
(lp516
(i__main__
Token
p517
(dp518
g18
I501
sbasg19
I501
sba(i__main__
Mention
p519
(dp520
g7
S't5'
p521
sg9
S'Coreference-Identity'
p522
sg10
S'i116'
p523
sg12
S'i107'
p524
sg13
Nsg14
(lp525
(i__main__
Token
p526
(dp527
g18
I545
sbasg19
I545
sba(i__main__
Mention
p528
(dp529
g7
S't5'
p530
sg9
S'Coreference-Identity'
p531
sg10
S'i123'
p532
sg12
S'i116'
p533
sg13
Nsg14
(lp534
(i__main__
Token
p535
(dp536
g18
I587
sbasg19
I587
sba(i__main__
Mention
p537
(dp538
g7
S't5'
p539
sg9
S'Anaphora-C'
p540
sg10
S'i124'
p541
sg12
S'i123'
p542
sg13
Nsg14
(lp543
(i__main__
Token
p544
(dp545
g18
I591
sbasg19
I591
sba(i__main__
Mention
p546
(dp547
g7
S't5'
p548
sg9
S'Anaphora-C'
p549
sg10
S'i131'
p550
sg12
S'i124'
p551
sg13
Nsg14
(lp552
(i__main__
Token
p553
(dp554
g18
I622
sbasg19
I622
sbasg7
g438
sg119
Nsba(i__main__
Chain
p555
(dp556
g3
(lp557
(i__main__
Mention
p558
(dp559
g7
S't6'
p560
sg9
Nsg10
S'i12'
p561
sg12
Nsg13
Nsg14
(lp562
(i__main__
Token
p563
(dp564
g18
I54
sba(i__main__
Token
p565
(dp566
g18
I55
sbasg19
I55
sba(i__main__
Mention
p567
(dp568
g7
S't6'
p569
sg9
S'Coreference-NounComplement'
p570
sg10
S'i13'
p571
sg12
S'i12'
p572
sg13
Nsg14
(lp573
(i__main__
Token
p574
(dp575
g18
I56
sba(i__main__
Token
p576
(dp577
g18
I57
sbasg19
I57
sba(i__main__
Mention
p578
(dp579
g7
S't6'
p580
sg9
S'Coreference-Identity'
p581
sg10
S'i23'
p582
sg12
S'i13'
p583
sg13
Nsg14
(lp584
(i__main__
Token
p585
(dp586
g18
I105
sbasg19
I105
sba(i__main__
Mention
p587
(dp588
g7
S't6'
p589
sg9
S'Coreference-Identity'
p590
sg10
S'i38'
p591
sg12
S'i23'
p592
sg13
Nsg14
(lp593
(i__main__
Token
p594
(dp595
g18
I163
sbasg19
I163
sba(i__main__
Mention
p596
(dp597
g7
S't6'
p598
sg9
S'Coreference-Noun-Noun'
p599
sg10
S'i40'
p600
sg12
S'i38'
p601
sg13
Nsg14
(lp602
(i__main__
Token
p603
(dp604
g18
I167
sbasg19
I167
sba(i__main__
Mention
p605
(dp606
g7
S't6'
p607
sg9
S'Coreference-Noun-Noun'
p608
sg10
S'i46'
p609
sg12
S'i40'
p610
sg13
Nsg14
(lp611
(i__main__
Token
p612
(dp613
g18
I190
sbasg19
I190
sba(i__main__
Mention
p614
(dp615
g7
S't6'
p616
sg9
S'Coreference-Identity'
p617
sg10
S'i49'
p618
sg12
S'i46'
p619
sg13
Nsg14
(lp620
(i__main__
Token
p621
(dp622
g18
I211
sbasg19
I211
sba(i__main__
Mention
p623
(dp624
g7
S't6'
p625
sg9
S'Anaphora-C'
p626
sg10
S'i52'
p627
sg12
S'i49'
p628
sg13
Nsg14
(lp629
(i__main__
Token
p630
(dp631
g18
I236
sbasg19
I236
sba(i__main__
Mention
p632
(dp633
g7
S't6'
p634
sg9
S'Anaphora-C'
p635
sg10
S'i56'
p636
sg12
S'i52'
p637
sg13
Nsg14
(lp638
(i__main__
Token
p639
(dp640
g18
I254
sbasg19
I254
sba(i__main__
Mention
p641
(dp642
g7
S't6'
p643
sg9
S'Anaphora-C'
p644
sg10
S'i61'
p645
sg12
S'i56'
p646
sg13
Nsg14
(lp647
(i__main__
Token
p648
(dp649
g18
I273
sbasg19
I273
sba(i__main__
Mention
p650
(dp651
g7
S't6'
p652
sg9
S'Coreference-Identity'
p653
sg10
S'i98'
p654
sg12
S'i61'
p655
sg13
Nsg14
(lp656
(i__main__
Token
p657
(dp658
g18
I472
sbasg19
I472
sba(i__main__
Mention
p659
(dp660
g7
S't6'
p661
sg9
S'Coreference-Identity'
p662
sg10
S'i134'
p663
sg12
S'i98'
p664
sg13
Nsg14
(lp665
(i__main__
Token
p666
(dp667
g18
I642
sbasg19
I642
sbasg7
g560
sg119
Nsba(i__main__
Chain
p668
(dp669
g3
(lp670
(i__main__
Mention
p671
(dp672
g7
S't7'
p673
sg9
Nsg10
S'i22'
p674
sg12
Nsg13
Nsg14
(lp675
(i__main__
Token
p676
(dp677
g18
I89
sba(i__main__
Token
p678
(dp679
g18
I90
sba(i__main__
Token
p680
(dp681
g18
I91
sba(i__main__
Token
p682
(dp683
g18
I92
sbasg19
I92
sba(i__main__
Mention
p684
(dp685
g7
S't7'
p686
sg9
S'Coreference-Identity'
p687
sg10
S'i133'
p688
sg12
S'i22'
p689
sg13
Nsg14
(lp690
(i__main__
Token
p691
(dp692
g18
I638
sba(i__main__
Token
p693
(dp694
g18
I639
sba(i__main__
Token
p695
(dp696
g18
I640
sba(i__main__
Token
p697
(dp698
g18
I641
sbasg19
I641
sbasg7
g673
sg119
Nsba(i__main__
Chain
p699
(dp700
g3
(lp701
(i__main__
Mention
p702
(dp703
g7
S't8'
p704
sg9
Nsg10
S'i26'
p705
sg12
Nsg13
Nsg14
(lp706
(i__main__
Token
p707
(dp708
g18
I118
sba(i__main__
Token
p709
(dp710
g18
I119
sbasg19
I119
sba(i__main__
Mention
p711
(dp712
g7
S't8'
p713
sg9
S'Coreference-Identity'
p714
sg10
S'i32'
p715
sg12
S'i26'
p716
sg13
Nsg14
(lp717
(i__main__
Token
p718
(dp719
g18
I129
sbasg19
I129
sba(i__main__
Mention
p720
(dp721
g7
S't8'
p722
sg9
S'Coreference-Identity'
p723
sg10
S'i110'
p724
sg12
S'i32'
p725
sg13
Nsg14
(lp726
(i__main__
Token
p727
(dp728
g18
I527
sba(i__main__
Token
p729
(dp730
g18
I528
sba(i__main__
Token
p731
(dp732
g18
I529
sbasg19
I529
sbasg7
g704
sg119
Nsba(i__main__
Chain
p733
(dp734
g3
(lp735
(i__main__
Mention
p736
(dp737
g7
S't9'
p738
sg9
Nsg10
S'i27'
p739
sg12
Nsg13
Nsg14
(lp740
(i__main__
Token
p741
(dp742
g18
I121
sba(i__main__
Token
p743
(dp744
g18
I122
sbasg19
I122
sba(i__main__
Mention
p745
(dp746
g7
S't9'
p747
sg9
S'Coreference-NounComplement'
p748
sg10
S'i28'
p749
sg12
S'i27'
p750
sg13
Nsg14
(lp751
(i__main__
Token
p752
(dp753
g18
I123
sba(i__main__
Token
p754
(dp755
g18
I124
sbasg19
I124
sba(i__main__
Mention
p756
(dp757
g7
S't9'
p758
sg9
S'Coreference-Identity'
p759
sg10
S'i55'
p760
sg12
S'i28'
p761
sg13
Nsg14
(lp762
(i__main__
Token
p763
(dp764
g18
I249
sba(i__main__
Token
p765
(dp766
g18
I250
sbasg19
I250
sbasg7
g738
sg119
Nsba(i__main__
Chain
p767
(dp768
g3
(lp769
(i__main__
Mention
p770
(dp771
g7
S't10'
p772
sg9
Nsg10
S'i29'
p773
sg12
Nsg13
Nsg14
(lp774
(i__main__
Token
p775
(dp776
g18
I126
sbasg19
I126
sba(i__main__
Mention
p777
(dp778
g7
S't10'
p779
sg9
S'Coreference-Identity'
p780
sg10
S'i111'
p781
sg12
S'i29'
p782
sg13
Nsg14
(lp783
(i__main__
Token
p784
(dp785
g18
I531
sbasg19
I531
sbasg7
g772
sg119
Nsba(i__main__
Chain
p786
(dp787
g3
(lp788
(i__main__
Mention
p789
(dp790
g7
S't11'
p791
sg9
Nsg10
S'i30'
p792
sg12
Nsg13
Nsg14
(lp793
(i__main__
Token
p794
(dp795
g18
I126
sba(i__main__
Token
p796
(dp797
g18
I127
sbasg19
I127
sba(i__main__
Mention
p798
(dp799
g7
S't11'
p800
sg9
S'Coreference-Identity'
p801
sg10
S'i112'
p802
sg12
S'i30'
p803
sg13
Nsg14
(lp804
(i__main__
Token
p805
(dp806
g18
I531
sba(i__main__
Token
p807
(dp808
g18
I532
sbasg19
I532
sbasg7
g791
sg119
Nsba(i__main__
Chain
p809
(dp810
g3
(lp811
(i__main__
Mention
p812
(dp813
g7
S't12'
p814
sg9
Nsg10
S'i31'
p815
sg12
Nsg13
Nsg14
(lp816
(i__main__
Token
p817
(dp818
g18
I131
sbasg19
I131
sba(i__main__
Mention
p819
(dp820
g7
S't12'
p821
sg9
S'Coreference-NounComplement'
p822
sg10
S'i33'
p823
sg12
S'i31'
p824
sg13
Nsg14
(lp825
(i__main__
Token
p826
(dp827
g18
I133
sba(i__main__
Token
p828
(dp829
g18
I134
sbasg19
I134
sbasg7
g814
sg119
Nsba(i__main__
Chain
p830
(dp831
g3
(lp832
(i__main__
Mention
p833
(dp834
g7
S't13'
p835
sg9
Nsg10
S'i35'
p836
sg12
Nsg13
Nsg14
(lp837
(i__main__
Token
p838
(dp839
g18
I147
sba(i__main__
Token
p840
(dp841
g18
I148
sbasg19
I148
sba(i__main__
Mention
p842
(dp843
g7
S't13'
p844
sg9
S'Coreference-Identity'
p845
sg10
S'i39'
p846
sg12
S'i35'
p847
sg13
Nsg14
(lp848
(i__main__
Token
p849
(dp850
g18
I165
sbasg19
I165
sba(i__main__
Mention
p851
(dp852
g7
S't13'
p853
sg9
S'Coreference-Identity'
p854
sg10
S'i58'
p855
sg12
S'i39'
p856
sg13
Nsg14
(lp857
(i__main__
Token
p858
(dp859
g18
I260
sba(i__main__
Token
p860
(dp861
g18
I261
sbasg19
I261
sbasg7
g835
sg119
Nsba(i__main__
Chain
p862
(dp863
g3
(lp864
(i__main__
Mention
p865
(dp866
g7
S't14'
p867
sg9
Nsg10
S'i36'
p868
sg12
Nsg13
Nsg14
(lp869
(i__main__
Token
p870
(dp871
g18
I150
sbasg19
I150
sba(i__main__
Mention
p872
(dp873
g7
S't14'
p874
sg9
S'Coreference-Identity'
p875
sg10
S'i41'
p876
sg12
S'i36'
p877
sg13
Nsg14
(lp878
(i__main__
Token
p879
(dp880
g18
I170
sba(i__main__
Token
p881
(dp882
g18
I171
sbasg19
I171
sba(i__main__
Mention
p883
(dp884
g7
S't14'
p885
sg9
S'Coreference-Identity'
p886
sg10
S'i59'
p887
sg12
S'i41'
p888
sg13
Nsg14
(lp889
(i__main__
Token
p890
(dp891
g18
I263
sbasg19
I263
sba(i__main__
Mention
p892
(dp893
g7
S't14'
p894
sg9
S'Coreference-Identity'
p895
sg10
S'i62'
p896
sg12
S'i59'
p897
sg13
Nsg14
(lp898
(i__main__
Token
p899
(dp900
g18
I274
sbasg19
I274
sbasg7
g867
sg119
Nsba(i__main__
Chain
p901
(dp902
g3
(lp903
(i__main__
Mention
p904
(dp905
g7
S't15'
p906
sg9
Nsg10
S'i48'
p907
sg12
Nsg13
Nsg14
(lp908
(i__main__
Token
p909
(dp910
g18
I192
sba(i__main__
Token
p911
(dp912
g18
I193
sba(i__main__
Token
p913
(dp914
g18
I194
sba(i__main__
Token
p915
(dp916
g18
I195
sba(i__main__
Token
p917
(dp918
g18
I196
sbasg19
I196
sba(i__main__
Mention
p919
(dp920
g7
S't15'
p921
sg9
S'Anaphora-C'
p922
sg10
S'i51'
p923
sg12
S'i48'
p924
sg13
Nsg14
(lp925
(i__main__
Token
p926
(dp927
g18
I223
sbasg19
I223
sbasg7
g906
sg119
Nsba(i__main__
Chain
p928
(dp929
g3
(lp930
(i__main__
Mention
p931
(dp932
g7
S't16'
p933
sg9
Nsg10
S'i50'
p934
sg12
Nsg13
Nsg14
(lp935
(i__main__
Token
p936
(dp937
g18
I213
sbasg19
I213
sba(i__main__
Mention
p938
(dp939
g7
S't16'
p940
sg9
S'Coreference-Identity'
p941
sg10
S'i89'
p942
sg12
S'i50'
p943
sg13
Nsg14
(lp944
(i__main__
Token
p945
(dp946
g18
I434
sbasg19
I434
sbasg7
g933
sg119
Nsba(i__main__
Chain
p947
(dp948
g3
(lp949
(i__main__
Mention
p950
(dp951
g7
S't17'
p952
sg9
Nsg10
S'i53'
p953
sg12
Nsg13
Nsg14
(lp954
(i__main__
Token
p955
(dp956
g18
I240
sbasg19
I240
sbasg7
g952
sg119
Nsba(i__main__
Chain
p957
(dp958
g3
(lp959
(i__main__
Mention
p960
(dp961
g7
S't18'
p962
sg9
Nsg10
S'i57'
p963
sg12
Nsg13
Nsg14
(lp964
(i__main__
Token
p965
(dp966
g18
I257
sba(i__main__
Token
p967
(dp968
g18
I258
sba(i__main__
Token
p969
(dp970
g18
I259
sba(i__main__
Token
p971
(dp972
g18
I260
sba(i__main__
Token
p973
(dp974
g18
I261
sba(i__main__
Token
p975
(dp976
g18
I262
sba(i__main__
Token
p977
(dp978
g18
I263
sba(i__main__
Token
p979
(dp980
g18
I264
sba(i__main__
Token
p981
(dp982
g18
I265
sba(i__main__
Token
p983
(dp984
g18
I266
sba(i__main__
Token
p985
(dp986
g18
I267
sba(i__main__
Token
p987
(dp988
g18
I268
sbasg19
I268
sba(i__main__
Mention
p989
(dp990
g7
S't18'
p991
sg9
S'Anaphora-E'
p992
sg10
S'i60'
p993
sg12
S'i57'
p994
sg13
Nsg14
(lp995
(i__main__
Token
p996
(dp997
g18
I270
sbasg19
I270
sbasg7
g962
sg119
Nsba(i__main__
Chain
p998
(dp999
g3
(lp1000
(i__main__
Mention
p1001
(dp1002
g7
S't19'
p1003
sg9
Nsg10
S'i64'
p1004
sg12
Nsg13
Nsg14
(lp1005
(i__main__
Token
p1006
(dp1007
g18
I284
sba(i__main__
Token
p1008
(dp1009
g18
I285
sbasg19
I285
sba(i__main__
Mention
p1010
(dp1011
g7
S't19'
p1012
sg9
S'Coreference-Identity'
p1013
sg10
S'i72'
p1014
sg12
S'i64'
p1015
sg13
Nsg14
(lp1016
(i__main__
Token
p1017
(dp1018
g18
I328
sbasg19
I328
sba(i__main__
Mention
p1019
(dp1020
g7
S't19'
p1021
sg9
S'Coreference-Identity'
p1022
sg10
S'i78'
p1023
sg12
S'i72'
p1024
sg13
Nsg14
(lp1025
(i__main__
Token
p1026
(dp1027
g18
I354
sbasg19
I354
sba(i__main__
Mention
p1028
(dp1029
g7
S't19'
p1030
sg9
S'Coreference-Identity'
p1031
sg10
S'i85'
p1032
sg12
S'i78'
p1033
sg13
Nsg14
(lp1034
(i__main__
Token
p1035
(dp1036
g18
I389
sba(i__main__
Token
p1037
(dp1038
g18
I390
sbasg19
I390
sbasg7
g1003
sg119
Nsba(i__main__
Chain
p1039
(dp1040
g3
(lp1041
(i__main__
Mention
p1042
(dp1043
g7
S't20'
p1044
sg9
Nsg10
S'i65'
p1045
sg12
Nsg13
Nsg14
(lp1046
(i__main__
Token
p1047
(dp1048
g18
I287
sba(i__main__
Token
p1049
(dp1050
g18
I288
sbasg19
I288
sba(i__main__
Mention
p1051
(dp1052
g7
S't20'
p1053
sg9
S'Coreference-InferedRelation'
p1054
sg10
S'i66'
p1055
sg12
S'i65'
p1056
sg13
Nsg14
(lp1057
(i__main__
Token
p1058
(dp1059
g18
I307
sbasg19
I307
sbasg7
g1044
sg119
Nsba(i__main__
Chain
p1060
(dp1061
g3
(lp1062
(i__main__
Mention
p1063
(dp1064
g7
S't21'
p1065
sg9
Nsg10
S'i67'
p1066
sg12
Nsg13
Nsg14
(lp1067
(i__main__
Token
p1068
(dp1069
g18
I309
sbasg19
I309
sba(i__main__
Mention
p1070
(dp1071
g7
S't21'
p1072
sg9
S'Coreference-Identity'
p1073
sg10
S'i69'
p1074
sg12
S'i67'
p1075
sg13
Nsg14
(lp1076
(i__main__
Token
p1077
(dp1078
g18
I326
sbasg19
I326
sba(i__main__
Mention
p1079
(dp1080
g7
S't21'
p1081
sg9
S'Coreference-Identity'
p1082
sg10
S'i79'
p1083
sg12
S'i69'
p1084
sg13
Nsg14
(lp1085
(i__main__
Token
p1086
(dp1087
g18
I366
sbasg19
I366
sbasg7
g1065
sg119
Nsba(i__main__
Chain
p1088
(dp1089
g3
(lp1090
(i__main__
Mention
p1091
(dp1092
g7
S't22'
p1093
sg9
Nsg10
S'i68'
p1094
sg12
Nsg13
Nsg14
(lp1095
(i__main__
Token
p1096
(dp1097
g18
I312
sba(i__main__
Token
p1098
(dp1099
g18
I313
sbasg19
I313
sba(i__main__
Mention
p1100
(dp1101
g7
S't22'
p1102
sg9
S'Coreference-Identity'
p1103
sg10
S'i80'
p1104
sg12
S'i68'
p1105
sg13
Nsg14
(lp1106
(i__main__
Token
p1107
(dp1108
g18
I373
sbasg19
I373
sba(i__main__
Mention
p1109
(dp1110
g7
S't22'
p1111
sg9
S'Anaphora-C'
p1112
sg10
S'i81'
p1113
sg12
S'i80'
p1114
sg13
Nsg14
(lp1115
(i__main__
Token
p1116
(dp1117
g18
I375
sbasg19
I375
sba(i__main__
Mention
p1118
(dp1119
g7
S't22'
p1120
sg9
S'Coreference-Identity'
p1121
sg10
S'i86'
p1122
sg12
S'i81'
p1123
sg13
Nsg14
(lp1124
(i__main__
Token
p1125
(dp1126
g18
I403
sbasg19
I403
sbasg7
g1093
sg119
Nsba(i__main__
Chain
p1127
(dp1128
g3
(lp1129
(i__main__
Mention
p1130
(dp1131
g7
S't23'
p1132
sg9
Nsg10
S'i70'
p1133
sg12
Nsg13
Nsg14
(lp1134
(i__main__
Token
p1135
(dp1136
g18
I328
sba(i__main__
Token
p1137
(dp1138
g18
I329
sbasg19
Nsba(i__main__
Mention
p1139
(dp1140
g7
S't23'
p1141
sg9
Nsg10
S'i73'
p1142
sg12
Nsg13
Nsg14
(lp1143
(i__main__
Token
p1144
(dp1145
g18
I333
sba(i__main__
Token
p1146
(dp1147
g18
I334
sba(i__main__
Token
p1148
(dp1149
g18
I335
sba(i__main__
Token
p1150
(dp1151
g18
I336
sbasg19
Nsba(i__main__
Mention
p1152
(dp1153
g7
S't23'
p1154
sg9
S'Coreference-PartOf'
p1155
sg10
S'i75'
p1156
sg12
S'i73'
p1157
sg13
Nsg14
(lp1158
(i__main__
Token
p1159
(dp1160
g18
I337
sba(i__main__
Token
p1161
(dp1162
g18
I338
sba(i__main__
Token
p1163
(dp1164
g18
I339
sbasg19
I339
sba(i__main__
Mention
p1165
(dp1166
g7
S't23'
p1167
sg9
Nsg10
S'i82'
p1168
sg12
Nsg13
Nsg14
(lp1169
(i__main__
Token
p1170
(dp1171
g18
I378
sba(i__main__
Token
p1172
(dp1173
g18
I379
sbasg19
Nsbasg7
g1132
sg119
Nsba(i__main__
Chain
p1174
(dp1175
g3
(lp1176
(i__main__
Mention
p1177
(dp1178
g7
S't24'
p1179
sg9
Nsg10
S'i71'
p1180
sg12
Nsg13
Nsg14
(lp1181
(i__main__
Token
p1182
(dp1183
g18
I328
sba(i__main__
Token
p1184
(dp1185
g18
I329
sbasg19
Nsba(i__main__
Mention
p1186
(dp1187
g7
S't24'
p1188
sg9
Nsg10
S'i74'
p1189
sg12
Nsg13
Nsg14
(lp1190
(i__main__
Token
p1191
(dp1192
g18
I333
sba(i__main__
Token
p1193
(dp1194
g18
I334
sba(i__main__
Token
p1195
(dp1196
g18
I335
sba(i__main__
Token
p1197
(dp1198
g18
I336
sbasg19
Nsba(i__main__
Mention
p1199
(dp1200
g7
S't24'
p1201
sg9
S'Coreference-PartOf'
p1202
sg10
S'i76'
p1203
sg12
S'i74'
p1204
sg13
Nsg14
(lp1205
(i__main__
Token
p1206
(dp1207
g18
I341
sba(i__main__
Token
p1208
(dp1209
g18
I342
sba(i__main__
Token
p1210
(dp1211
g18
I343
sbasg19
I343
sba(i__main__
Mention
p1212
(dp1213
g7
S't24'
p1214
sg9
Nsg10
S'i83'
p1215
sg12
Nsg13
Nsg14
(lp1216
(i__main__
Token
p1217
(dp1218
g18
I378
sba(i__main__
Token
p1219
(dp1220
g18
I379
sbasg19
Nsbasg7
g1179
sg119
Nsba(i__main__
Chain
p1221
(dp1222
g3
(lp1223
(i__main__
Mention
p1224
(dp1225
g7
S't25'
p1226
sg9
Nsg10
S'i87'
p1227
sg12
Nsg13
Nsg14
(lp1228
(i__main__
Token
p1229
(dp1230
g18
I405
sba(i__main__
Token
p1231
(dp1232
g18
I406
sba(i__main__
Token
p1233
(dp1234
g18
I407
sbasg19
I407
sba(i__main__
Mention
p1235
(dp1236
g7
S't25'
p1237
sg9
S'Coreference-Identity'
p1238
sg10
S'i88'
p1239
sg12
S'i87'
p1240
sg13
Nsg14
(lp1241
(i__main__
Token
p1242
(dp1243
g18
I418
sba(i__main__
Token
p1244
(dp1245
g18
I419
sba(i__main__
Token
p1246
(dp1247
g18
I420
sbasg19
I420
sbasg7
g1226
sg119
Nsba(i__main__
Chain
p1248
(dp1249
g3
(lp1250
(i__main__
Mention
p1251
(dp1252
g7
S't26'
p1253
sg9
Nsg10
S'i92'
p1254
sg12
Nsg13
Nsg14
(lp1255
(i__main__
Token
p1256
(dp1257
g18
I454
sba(i__main__
Token
p1258
(dp1259
g18
I455
sba(i__main__
Token
p1260
(dp1261
g18
I456
sba(i__main__
Token
p1262
(dp1263
g18
I457
sba(i__main__
Token
p1264
(dp1265
g18
I458
sba(i__main__
Token
p1266
(dp1267
g18
I459
sba(i__main__
Token
p1268
(dp1269
g18
I460
sba(i__main__
Token
p1270
(dp1271
g18
I461
sba(i__main__
Token
p1272
(dp1273
g18
I462
sba(i__main__
Token
p1274
(dp1275
g18
I463
sbasg19
I463
sba(i__main__
Mention
p1276
(dp1277
g7
S't26'
p1278
sg9
S'Anaphora-E'
p1279
sg10
S'i94'
p1280
sg12
S'i92'
p1281
sg13
Nsg14
(lp1282
(i__main__
Token
p1283
(dp1284
g18
I465
sbasg19
I465
sbasg7
g1253
sg119
Nsba(i__main__
Chain
p1285
(dp1286
g3
(lp1287
(i__main__
Mention
p1288
(dp1289
g7
S't27'
p1290
sg9
Nsg10
S'i95'
p1291
sg12
Nsg13
Nsg14
(lp1292
(i__main__
Token
p1293
(dp1294
g18
I468
sbasg19
I468
sba(i__main__
Mention
p1295
(dp1296
g7
S't27'
p1297
sg9
S'Anaphora-RC'
p1298
sg10
S'i97'
p1299
sg12
S'i95'
p1300
sg13
Nsg14
(lp1301
(i__main__
Token
p1302
(dp1303
g18
I471
sba(i__main__
Token
p1304
(dp1305
g18
I472
sba(i__main__
Token
p1306
(dp1307
g18
I473
sba(i__main__
Token
p1308
(dp1309
g18
I474
sba(i__main__
Token
p1310
(dp1311
g18
I475
sba(i__main__
Token
p1312
(dp1313
g18
I476
sba(i__main__
Token
p1314
(dp1315
g18
I477
sbasg19
I477
sbasg7
g1290
sg119
Nsba(i__main__
Chain
p1316
(dp1317
g3
(lp1318
(i__main__
Mention
p1319
(dp1320
g7
S't28'
p1321
sg9
Nsg10
S'i100'
p1322
sg12
Nsg13
Nsg14
(lp1323
(i__main__
Token
p1324
(dp1325
g18
I480
sbasg19
I480
sba(i__main__
Mention
p1326
(dp1327
g7
S't28'
p1328
sg9
S'Anaphora-RC'
p1329
sg10
S'i102'
p1330
sg12
S'i100'
p1331
sg13
Nsg14
(lp1332
(i__main__
Token
p1333
(dp1334
g18
I487
sba(i__main__
Token
p1335
(dp1336
g18
I488
sba(i__main__
Token
p1337
(dp1338
g18
I489
sba(i__main__
Token
p1339
(dp1340
g18
I490
sba(i__main__
Token
p1341
(dp1342
g18
I491
sba(i__main__
Token
p1343
(dp1344
g18
I492
sba(i__main__
Token
p1345
(dp1346
g18
I493
sba(i__main__
Token
p1347
(dp1348
g18
I494
sba(i__main__
Token
p1349
(dp1350
g18
I495
sba(i__main__
Token
p1351
(dp1352
g18
I496
sba(i__main__
Token
p1353
(dp1354
g18
I497
sbasg19
I496
sbasg7
g1321
sg119
Nsba(i__main__
Chain
p1355
(dp1356
g3
(lp1357
(i__main__
Mention
p1358
(dp1359
g7
S't29'
p1360
sg9
Nsg10
S'i103'
p1361
sg12
Nsg13
Nsg14
(lp1362
(i__main__
Token
p1363
(dp1364
g18
I488
sbasg19
I488
sbasg7
g1360
sg119
Nsba(i__main__
Chain
p1365
(dp1366
g3
(lp1367
(i__main__
Mention
p1368
(dp1369
g7
S't30'
p1370
sg9
Nsg10
S'i105'
p1371
sg12
Nsg13
Nsg14
(lp1372
(i__main__
Token
p1373
(dp1374
g18
I493
sbasg19
I493
sbasg7
g1370
sg119
Nsba(i__main__
Chain
p1375
(dp1376
g3
(lp1377
(i__main__
Mention
p1378
(dp1379
g7
S't31'
p1380
sg9
Nsg10
S'i106'
p1381
sg12
Nsg13
Nsg14
(lp1382
(i__main__
Token
p1383
(dp1384
g18
I494
sbasg19
I494
sbasg7
g1380
sg119
Nsba(i__main__
Chain
p1385
(dp1386
g3
(lp1387
(i__main__
Mention
p1388
(dp1389
g7
S't32'
p1390
sg9
Nsg10
S'i119'
p1391
sg12
Nsg13
Nsg14
(lp1392
(i__main__
Token
p1393
(dp1394
g18
I559
sba(i__main__
Token
p1395
(dp1396
g18
I560
sba(i__main__
Token
p1397
(dp1398
g18
I561
sba(i__main__
Token
p1399
(dp1400
g18
I562
sbasg19
I562
sba(i__main__
Mention
p1401
(dp1402
g7
S't32'
p1403
sg9
S'Coreference-Identity'
p1404
sg10
S'i129'
p1405
sg12
S'i119'
p1406
sg13
Nsg14
(lp1407
(i__main__
Token
p1408
(dp1409
g18
I610
sba(i__main__
Token
p1410
(dp1411
g18
I611
sba(i__main__
Token
p1412
(dp1413
g18
I612
sba(i__main__
Token
p1414
(dp1415
g18
I613
sba(i__main__
Token
p1416
(dp1417
g18
I614
sbasg19
I614
sbasg7
g1390
sg119
Nsba(i__main__
Chain
p1418
(dp1419
g3
(lp1420
(i__main__
Mention
p1421
(dp1422
g7
S't33'
p1423
sg9
Nsg10
S'i120'
p1424
sg12
Nsg13
Nsg14
(lp1425
(i__main__
Token
p1426
(dp1427
g18
I564
sbasg19
I564
sba(i__main__
Mention
p1428
(dp1429
g7
S't33'
p1430
sg9
S'Coreference-Identity'
p1431
sg10
S'i130'
p1432
sg12
S'i120'
p1433
sg13
Nsg14
(lp1434
(i__main__
Token
p1435
(dp1436
g18
I616
sbasg19
I616
sbasg7
g1423
sg119
Nsba(i__main__
Chain
p1437
(dp1438
g3
(lp1439
(i__main__
Mention
p1440
(dp1441
g7
S't34'
p1442
sg9
Nsg10
S'i121'
p1443
sg12
Nsg13
Nsg14
(lp1444
(i__main__
Token
p1445
(dp1446
g18
I565
sba(i__main__
Token
p1447
(dp1448
g18
I566
sbasg19
I566
sba(i__main__
Mention
p1449
(dp1450
g7
S't34'
p1451
sg9
S'Coreference-Identity'
p1452
sg10
S'i122'
p1453
sg12
S'i121'
p1454
sg13
Nsg14
(lp1455
(i__main__
Token
p1456
(dp1457
g18
I575
sbasg19
I575
sba(i__main__
Mention
p1458
(dp1459
g7
S't34'
p1460
sg9
S'Coreference-Identity'
p1461
sg10
S'i126'
p1462
sg12
S'i122'
p1463
sg13
Nsg14
(lp1464
(i__main__
Token
p1465
(dp1466
g18
I601
sba(i__main__
Token
p1467
(dp1468
g18
I602
sbasg19
I602
sbasg7
g1442
sg119
Nsba.