(lp0
(i__main__
Chain
p1
(dp2
S'mentionList'
p3
(lp4
(i__main__
Mention
p5
(dp6
S'chainId'
p7
S't1'
p8
sS'relType'
p9
NsS'mentionId'
p10
S'i1'
p11
sS'antecedentId'
p12
NsS'crefMod'
p13
NsS'tokenList'
p14
(lp15
(i__main__
Token
p16
(dp17
S'tokenId'
p18
I0
sba(i__main__
Token
p19
(dp20
g18
I1
sba(i__main__
Token
p21
(dp22
g18
I2
sbasS'mentionHead'
p23
I2
sba(i__main__
Mention
p24
(dp25
g7
S't1'
p26
sg9
S'Coreference-Noun-Noun'
p27
sg10
S'i3'
p28
sg12
S'i1'
p29
sg13
Nsg14
(lp30
(i__main__
Token
p31
(dp32
g18
I6
sba(i__main__
Token
p33
(dp34
g18
I7
sbasg23
I7
sba(i__main__
Mention
p35
(dp36
g7
S't1'
p37
sg9
S'Coreference-NounComplement'
p38
sg10
S'i4'
p39
sg12
S'i3'
p40
sg13
Nsg14
(lp41
(i__main__
Token
p42
(dp43
g18
I8
sba(i__main__
Token
p44
(dp45
g18
I9
sbasg23
I9
sba(i__main__
Mention
p46
(dp47
g7
S't1'
p48
sg9
S'Anaphora-C'
p49
sg10
S'i6'
p50
sg12
S'i4'
p51
sg13
Nsg14
(lp52
(i__main__
Token
p53
(dp54
g18
I23
sbasg23
I23
sba(i__main__
Mention
p55
(dp56
g7
S't1'
p57
sg9
S'Anaphora-C'
p58
sg10
S'i8'
p59
sg12
S'i6'
p60
sg13
Nsg14
(lp61
(i__main__
Token
p62
(dp63
g18
I32
sbasg23
I32
sba(i__main__
Mention
p64
(dp65
g7
S't1'
p66
sg9
S'Coreference-Identity'
p67
sg10
S'i9'
p68
sg12
S'i8'
p69
sg13
Nsg14
(lp70
(i__main__
Token
p71
(dp72
g18
I50
sbasg23
I50
sba(i__main__
Mention
p73
(dp74
g7
S't1'
p75
sg9
S'Coreference-Identity'
p76
sg10
S'i13'
p77
sg12
S'i9'
p78
sg13
Nsg14
(lp79
(i__main__
Token
p80
(dp81
g18
I69
sbasg23
I69
sba(i__main__
Mention
p82
(dp83
g7
S't1'
p84
sg9
S'Anaphora-C'
p85
sg10
S'i14'
p86
sg12
S'i13'
p87
sg13
Nsg14
(lp88
(i__main__
Token
p89
(dp90
g18
I90
sbasg23
I90
sba(i__main__
Mention
p91
(dp92
g7
S't1'
p93
sg9
S'Coreference-Identity'
p94
sg10
S'i23'
p95
sg12
S'i14'
p96
sg13
Nsg14
(lp97
(i__main__
Token
p98
(dp99
g18
I116
sbasg23
I116
sba(i__main__
Mention
p100
(dp101
g7
S't1'
p102
sg9
S'Coreference-Identity'
p103
sg10
S'i25'
p104
sg12
S'i23'
p105
sg13
Nsg14
(lp106
(i__main__
Token
p107
(dp108
g18
I127
sbasg23
I127
sba(i__main__
Mention
p109
(dp110
g7
S't1'
p111
sg9
S'Anaphora-C'
p112
sg10
S'i29'
p113
sg12
S'i25'
p114
sg13
Nsg14
(lp115
(i__main__
Token
p116
(dp117
g18
I136
sbasg23
I136
sba(i__main__
Mention
p118
(dp119
g7
S't1'
p120
sg9
S'Coreference-Identity'
p121
sg10
S'i36'
p122
sg12
S'i29'
p123
sg13
Nsg14
(lp124
(i__main__
Token
p125
(dp126
g18
I168
sbasg23
I168
sba(i__main__
Mention
p127
(dp128
g7
S't1'
p129
sg9
S'Anaphora-C'
p130
sg10
S'i37'
p131
sg12
S'i36'
p132
sg13
Nsg14
(lp133
(i__main__
Token
p134
(dp135
g18
I172
sbasg23
I172
sba(i__main__
Mention
p136
(dp137
g7
S't1'
p138
sg9
S'Anaphora-C'
p139
sg10
S'i38'
p140
sg12
S'i37'
p141
sg13
Nsg14
(lp142
(i__main__
Token
p143
(dp144
g18
I195
sbasg23
I195
sbasg7
g8
sS'chainHead'
p145
Nsba(i__main__
Chain
p146
(dp147
g3
(lp148
(i__main__
Mention
p149
(dp150
g7
S't2'
p151
sg9
Nsg10
S'i2'
p152
sg12
Nsg13
Nsg14
(lp153
(i__main__
Token
p154
(dp155
g18
I4
sbasg23
I4
sba(i__main__
Mention
p156
(dp157
g7
S't2'
p158
sg9
S'Coreference-Identity'
p159
sg10
S'i10'
p160
sg12
S'i2'
p161
sg13
Nsg14
(lp162
(i__main__
Token
p163
(dp164
g18
I52
sbasg23
I52
sba(i__main__
Mention
p165
(dp166
g7
S't2'
p167
sg9
S'Coreference-Identity'
p168
sg10
S'i18'
p169
sg12
S'i10'
p170
sg13
Nsg14
(lp171
(i__main__
Token
p172
(dp173
g18
I106
sbasg23
I106
sbasg7
g151
sg145
Nsba(i__main__
Chain
p174
(dp175
g3
(lp176
(i__main__
Mention
p177
(dp178
g7
S't3'
p179
sg9
Nsg10
S'i5'
p180
sg12
Nsg13
Nsg14
(lp181
(i__main__
Token
p182
(dp183
g18
I11
sba(i__main__
Token
p184
(dp185
g18
I12
sbasg23
I12
sba(i__main__
Mention
p186
(dp187
g7
S't3'
p188
sg9
S'Coreference-Identity'
p189
sg10
S'i15'
p190
sg12
S'i5'
p191
sg13
Nsg14
(lp192
(i__main__
Token
p193
(dp194
g18
I91
sba(i__main__
Token
p195
(dp196
g18
I92
sbasg23
I92
sbasg7
g179
sg145
Nsba(i__main__
Chain
p197
(dp198
g3
(lp199
(i__main__
Mention
p200
(dp201
g7
S't4'
p202
sg9
Nsg10
S'i7'
p203
sg12
Nsg13
Nsg14
(lp204
(i__main__
Token
p205
(dp206
g18
I25
sba(i__main__
Token
p207
(dp208
g18
I26
sbasg23
I26
sba(i__main__
Mention
p209
(dp210
g7
S't4'
p211
sg9
S'Coreference-Identity'
p212
sg10
S'i24'
p213
sg12
S'i7'
p214
sg13
Nsg14
(lp215
(i__main__
Token
p216
(dp217
g18
I119
sbasg23
I119
sbasg7
g202
sg145
Nsba(i__main__
Chain
p218
(dp219
g3
(lp220
(i__main__
Mention
p221
(dp222
g7
S't5'
p223
sg9
Nsg10
S'i11'
p224
sg12
Nsg13
Nsg14
(lp225
(i__main__
Token
p226
(dp227
g18
I57
sba(i__main__
Token
p228
(dp229
g18
I58
sba(i__main__
Token
p230
(dp231
g18
I59
sba(i__main__
Token
p232
(dp233
g18
I60
sba(i__main__
Token
p234
(dp235
g18
I61
sba(i__main__
Token
p236
(dp237
g18
I62
sba(i__main__
Token
p238
(dp239
g18
I63
sba(i__main__
Token
p240
(dp241
g18
I64
sba(i__main__
Token
p242
(dp243
g18
I65
sbasg23
I63
sba(i__main__
Mention
p244
(dp245
g7
S't5'
p246
sg9
S'Anaphora-E'
p247
sg10
S'i12'
p248
sg12
S'i11'
p249
sg13
Nsg14
(lp250
(i__main__
Token
p251
(dp252
g18
I67
sbasg23
I67
sbasg7
g223
sg145
Nsba(i__main__
Chain
p253
(dp254
g3
(lp255
(i__main__
Mention
p256
(dp257
g7
S't6'
p258
sg9
Nsg10
S'i16'
p259
sg12
Nsg13
Nsg14
(lp260
(i__main__
Token
p261
(dp262
g18
I101
sbasg23
I101
sba(i__main__
Mention
p263
(dp264
g7
S't6'
p265
sg9
S'Coreference-NounComplement'
p266
sg10
S'i17'
p267
sg12
S'i16'
p268
sg13
Nsg14
(lp269
(i__main__
Token
p270
(dp271
g18
I102
sba(i__main__
Token
p272
(dp273
g18
I103
sbasg23
I103
sba(i__main__
Mention
p274
(dp275
g7
S't6'
p276
sg9
S'Coreference-Noun-Noun'
p277
sg10
S'i30'
p278
sg12
S'i17'
p279
sg13
Nsg14
(lp280
(i__main__
Token
p281
(dp282
g18
I141
sbasg23
I141
sbasg7
g258
sg145
Nsba(i__main__
Chain
p283
(dp284
g3
(lp285
(i__main__
Mention
p286
(dp287
g7
S't7'
p288
sg9
Nsg10
S'i19'
p289
sg12
Nsg13
Nsg14
(lp290
(i__main__
Token
p291
(dp292
g18
I106
sba(i__main__
Token
p293
(dp294
g18
I107
sbasg23
I107
sba(i__main__
Mention
p295
(dp296
g7
S't7'
p297
sg9
S'Coreference-NounComplement'
p298
sg10
S'i20'
p299
sg12
S'i19'
p300
sg13
Nsg14
(lp301
(i__main__
Token
p302
(dp303
g18
I108
sba(i__main__
Token
p304
(dp305
g18
I109
sbasg23
I109
sba(i__main__
Mention
p306
(dp307
g7
S't7'
p308
sg9
S'Coreference-Identity'
p309
sg10
S'i28'
p310
sg12
S'i20'
p311
sg13
Nsg14
(lp312
(i__main__
Token
p313
(dp314
g18
I134
sbasg23
I134
sba(i__main__
Mention
p315
(dp316
g7
S't7'
p317
sg9
S'Anaphora-C'
p318
sg10
S'i31'
p319
sg12
S'i28'
p320
sg13
Nsg14
(lp321
(i__main__
Token
p322
(dp323
g18
I142
sbasg23
I142
sba(i__main__
Mention
p324
(dp325
g7
S't7'
p326
sg9
S'Anaphora-C'
p327
sg10
S'i32'
p328
sg12
S'i31'
p329
sg13
Nsg14
(lp330
(i__main__
Token
p331
(dp332
g18
I152
sbasg23
I152
sba(i__main__
Mention
p333
(dp334
g7
S't7'
p335
sg9
S'Anaphora-C'
p336
sg10
S'i35'
p337
sg12
S'i32'
p338
sg13
Nsg14
(lp339
(i__main__
Token
p340
(dp341
g18
I159
sbasg23
I159
sbasg7
g288
sg145
Nsba(i__main__
Chain
p342
(dp343
g3
(lp344
(i__main__
Mention
p345
(dp346
g7
S't8'
p347
sg9
Nsg10
S'i21'
p348
sg12
Nsg13
Nsg14
(lp349
(i__main__
Token
p350
(dp351
g18
I114
sba(i__main__
Token
p352
(dp353
g18
I115
sbasg23
I115
sba(i__main__
Mention
p354
(dp355
g7
S't8'
p356
sg9
S'Coreference-Identity'
p357
sg10
S'i27'
p358
sg12
S'i21'
p359
sg13
Nsg14
(lp360
(i__main__
Token
p361
(dp362
g18
I133
sbasg23
I133
sbasg7
g347
sg145
Nsba(i__main__
Chain
p363
(dp364
g3
(lp365
(i__main__
Mention
p366
(dp367
g7
S't9'
p368
sg9
Nsg10
S'i22'
p369
sg12
Nsg13
Nsg14
(lp370
(i__main__
Token
p371
(dp372
g18
I114
sbasg23
I114
sba(i__main__
Mention
p373
(dp374
g7
S't9'
p375
sg9
S'Coreference-Identity'
p376
sg10
S'i26'
p377
sg12
S'i22'
p378
sg13
Nsg14
(lp379
(i__main__
Token
p380
(dp381
g18
I131
sbasg23
I131
sbasg7
g368
sg145
Nsba(i__main__
Chain
p382
(dp383
g3
(lp384
(i__main__
Mention
p385
(dp386
g7
S't10'
p387
sg9
Nsg10
S'i33'
p388
sg12
Nsg13
Nsg14
(lp389
(i__main__
Token
p390
(dp391
g18
I155
sbasg23
I155
sba(i__main__
Mention
p392
(dp393
g7
S't10'
p394
sg9
S'Coreference-NounComplement'
p395
sg10
S'i34'
p396
sg12
S'i33'
p397
sg13
Nsg14
(lp398
(i__main__
Token
p399
(dp400
g18
I156
sba(i__main__
Token
p401
(dp402
g18
I157
sbasg23
I157
sbasg7
g387
sg145
Nsba.